TMS320C2000 Assembler PC v6.2.5 Tue Aug 15 11:39:29 2017

Tools Copyright (c) 1996-2014 Texas Instruments Incorporated
C:\Users\wmj\AppData\Local\Temp\7522410                              PAGE    1

       1              ;***************************************************************
       2              ;* TMS320C2000 C/C++ Codegen                         PC v6.2.5 *
       3              ;* Date/Time created: Tue Aug 15 11:39:29 2017                 *
       4              ;***************************************************************
       5                      .compiler_opts --float_support=softlib --hll_source=on --mem_model:code=flat --mem_model:data=large -
       6        0002  FP      .set    XAR2
       7              
       8              $C$DW$CU        .dwtag  DW_TAG_compile_unit
       9                      .dwattr $C$DW$CU, DW_AT_name("D:/FOC_27/sw/drivers/drvic/FreeModbus/demo.c")
      10                      .dwattr $C$DW$CU, DW_AT_producer("TMS320C2000 C/C++ Codegen PC v6.2.5 Copyright (c) 1996-2014 Texas I
      11                      .dwattr $C$DW$CU, DW_AT_TI_version(0x01)
      12                      .dwattr $C$DW$CU, DW_AT_comp_dir("D:\FOC_27\sw\solutions\instaspin_foc\boards\hvkit_rev1p1\f28x\f2802
      13              ;**************************************************************
      14              ;* CINIT RECORDS                                              *
      15              ;**************************************************************
      16 00000000               .sect   ".cinit"
      17                      .align  1
      18 00000000 FFFF          .field          -1,16
      19 00000001 0000-         .field          _usRegInputStart+0,32
         00000002 0000 
      20 00000003 03E8          .bits   1000,16                 ; _usRegInputStart @ 0
      21              
      22              
      23              $C$DW$1 .dwtag  DW_TAG_subprogram, DW_AT_name("eMBEnable")
      24                      .dwattr $C$DW$1, DW_AT_TI_symbol_name("_eMBEnable")
      25                      .dwattr $C$DW$1, DW_AT_type(*$C$DW$T$38)
      26                      .dwattr $C$DW$1, DW_AT_declaration
      27                      .dwattr $C$DW$1, DW_AT_external
      28              
      29              $C$DW$2 .dwtag  DW_TAG_subprogram, DW_AT_name("eMBInit")
      30                      .dwattr $C$DW$2, DW_AT_TI_symbol_name("_eMBInit")
      31                      .dwattr $C$DW$2, DW_AT_type(*$C$DW$T$38)
      32                      .dwattr $C$DW$2, DW_AT_declaration
      33                      .dwattr $C$DW$2, DW_AT_external
      34              $C$DW$3 .dwtag  DW_TAG_formal_parameter
      35                      .dwattr $C$DW$3, DW_AT_type(*$C$DW$T$21)
      36              $C$DW$4 .dwtag  DW_TAG_formal_parameter
      37                      .dwattr $C$DW$4, DW_AT_type(*$C$DW$T$22)
      38              $C$DW$5 .dwtag  DW_TAG_formal_parameter
      39                      .dwattr $C$DW$5, DW_AT_type(*$C$DW$T$22)
      40              $C$DW$6 .dwtag  DW_TAG_formal_parameter
      41                      .dwattr $C$DW$6, DW_AT_type(*$C$DW$T$24)
      42              $C$DW$7 .dwtag  DW_TAG_formal_parameter
      43                      .dwattr $C$DW$7, DW_AT_type(*$C$DW$T$26)
      44                      .dwendtag $C$DW$2
      45              
      46              
      47              $C$DW$8 .dwtag  DW_TAG_subprogram, DW_AT_name("eMBPoll")
      48                      .dwattr $C$DW$8, DW_AT_TI_symbol_name("_eMBPoll")
      49                      .dwattr $C$DW$8, DW_AT_type(*$C$DW$T$38)
      50                      .dwattr $C$DW$8, DW_AT_declaration
      51                      .dwattr $C$DW$8, DW_AT_external
      52 00000000       _usRegInputStart:       .usect  ".ebss",1,1,0
      53              $C$DW$9 .dwtag  DW_TAG_variable, DW_AT_name("usRegInputStart")
      54                      .dwattr $C$DW$9, DW_AT_TI_symbol_name("_usRegInputStart")
TMS320C2000 Assembler PC v6.2.5 Tue Aug 15 11:39:29 2017

Tools Copyright (c) 1996-2014 Texas Instruments Incorporated
C:\Users\wmj\AppData\Local\Temp\7522410                              PAGE    2

      55                      .dwattr $C$DW$9, DW_AT_type(*$C$DW$T$33)
      56                      .dwattr $C$DW$9, DW_AT_location[DW_OP_addr _usRegInputStart]
      57 00000001       _usRegInputBuf: .usect  ".ebss",4,1,0
      58              $C$DW$10        .dwtag  DW_TAG_variable, DW_AT_name("usRegInputBuf")
      59                      .dwattr $C$DW$10, DW_AT_TI_symbol_name("_usRegInputBuf")
      60                      .dwattr $C$DW$10, DW_AT_type(*$C$DW$T$44)
      61                      .dwattr $C$DW$10, DW_AT_location[DW_OP_addr _usRegInputBuf]
      62              ;       C:\ti\ccsv6\tools\compiler\c2000_6.2.5\bin\opt2000.exe C:\\Users\\wmj\\AppData\\Local\\Temp\\752242 C
      63              ;       C:\ti\ccsv6\tools\compiler\c2000_6.2.5\bin\ac2000.exe -@C:\\Users\\wmj\\AppData\\Local\\Temp\\7522416
      64 00000000               .sect   ".text"
      65                      .clink
      66                      .global _main
      67              
      68              $C$DW$11        .dwtag  DW_TAG_subprogram, DW_AT_name("main")
      69                      .dwattr $C$DW$11, DW_AT_low_pc(_main)
      70                      .dwattr $C$DW$11, DW_AT_high_pc(0x00)
      71                      .dwattr $C$DW$11, DW_AT_TI_symbol_name("_main")
      72                      .dwattr $C$DW$11, DW_AT_external
      73                      .dwattr $C$DW$11, DW_AT_type(*$C$DW$T$10)
      74                      .dwattr $C$DW$11, DW_AT_TI_begin_file("D:/FOC_27/sw/drivers/drvic/FreeModbus/demo.c")
      75                      .dwattr $C$DW$11, DW_AT_TI_begin_line(0x24)
      76                      .dwattr $C$DW$11, DW_AT_TI_begin_column(0x01)
      77                      .dwattr $C$DW$11, DW_AT_TI_max_frame_size(-4)
      78                      .dwpsn  file "D:/FOC_27/sw/drivers/drvic/FreeModbus/demo.c",line 37,column 1,is_stmt,address _main
      79              
      80                      .dwfde $C$DW$CIE, _main
      81              
      82              ;***************************************************************
      83              ;* FNAME: _main                         FR SIZE:   2           *
      84              ;*                                                             *
      85              ;* FUNCTION ENVIRONMENT                                        *
      86              ;*                                                             *
      87              ;* FUNCTION PROPERTIES                                         *
      88              ;*                            2 Parameter,  0 Auto,  0 SOE     *
      89              ;***************************************************************
      90              
      91 00000000       _main:
      92                      .dwcfi  cfa_offset, -2
      93                      .dwcfi  save_reg_to_mem, 26, 0
      94                      .dwcfi  save_reg_to_reg, 78, 26
      95 00000000 FE02          ADDB      SP,#2                 ; [CPU_U] 
      96                      .dwcfi  cfa_offset, -4
      97 00000001 2901          CLRC      SXM                   ; [CPU_] 
      98                      .dwpsn  file "D:/FOC_27/sw/drivers/drvic/FreeModbus/demo.c",line 40,column 5,is_stmt
      99 00000002 D400          MOVB      XAR4,#0               ; [CPU_] |40| 
     100 00000003 D50A          MOVB      XAR5,#10              ; [CPU_] |40| 
     101 00000004 2B41          MOV       *-SP[1],#0            ; [CPU_] |40| 
     102 00000005 FF20          MOV       ACC,#38400            ; [CPU_] |40| 
         00000006 9600 
     103 00000007 56BF          MOVB      *-SP[2],#2,UNC        ; [CPU_] |40| 
         00000008 0242 
     104              $C$DW$12        .dwtag  DW_TAG_TI_branch
     105                      .dwattr $C$DW$12, DW_AT_low_pc(0x00)
     106                      .dwattr $C$DW$12, DW_AT_name("_eMBInit")
     107                      .dwattr $C$DW$12, DW_AT_TI_call
TMS320C2000 Assembler PC v6.2.5 Tue Aug 15 11:39:29 2017

Tools Copyright (c) 1996-2014 Texas Instruments Incorporated
C:\Users\wmj\AppData\Local\Temp\7522410                              PAGE    3

     108 00000009 7640!         LCR       #_eMBInit             ; [CPU_] |40| 
         0000000a 0000 
     109                      ; call occurs [#_eMBInit] ; [] |40| 
     110                      .dwpsn  file "D:/FOC_27/sw/drivers/drvic/FreeModbus/demo.c",line 43,column 5,is_stmt
     111              $C$DW$13        .dwtag  DW_TAG_TI_branch
     112                      .dwattr $C$DW$13, DW_AT_low_pc(0x00)
     113                      .dwattr $C$DW$13, DW_AT_name("_eMBEnable")
     114                      .dwattr $C$DW$13, DW_AT_TI_call
     115 0000000b 7640!         LCR       #_eMBEnable           ; [CPU_] |43| 
         0000000c 0000 
     116                      ; call occurs [#_eMBEnable] ; [] |43| 
     117 0000000d       $C$L1:    
     118                      .dwpsn  file "D:/FOC_27/sw/drivers/drvic/FreeModbus/demo.c",line 47,column 9,is_stmt
     119              $C$DW$14        .dwtag  DW_TAG_TI_branch
     120                      .dwattr $C$DW$14, DW_AT_low_pc(0x00)
     121                      .dwattr $C$DW$14, DW_AT_name("_eMBPoll")
     122                      .dwattr $C$DW$14, DW_AT_TI_call
     123 0000000d 7640!         LCR       #_eMBPoll             ; [CPU_] |47| 
         0000000e 0000 
     124                      ; call occurs [#_eMBPoll] ; [] |47| 
     125 0000000f 761F-         MOVW      DP,#_usRegInputBuf    ; [CPU_U] 
         00000010 0000 
     126                      .dwpsn  file "D:/FOC_27/sw/drivers/drvic/FreeModbus/demo.c",line 50,column 9,is_stmt
     127 00000011 0A01-         INC       @_usRegInputBuf       ; [CPU_] |50| 
     128                      .dwpsn  file "D:/FOC_27/sw/drivers/drvic/FreeModbus/demo.c",line 51,column 5,is_stmt
     129 00000012 6FFB          B         $C$L1,UNC             ; [CPU_] |51| 
     130                      ; branch occurs ; [] |51| 
     131                      .dwattr $C$DW$11, DW_AT_TI_end_file("D:/FOC_27/sw/drivers/drvic/FreeModbus/demo.c")
     132                      .dwattr $C$DW$11, DW_AT_TI_end_line(0x34)
     133                      .dwattr $C$DW$11, DW_AT_TI_end_column(0x01)
     134                      .dwendentry
     135                      .dwendtag $C$DW$11
     136              
     137 00000013               .sect   ".text"
     138                      .clink
     139                      .global _eMBRegInputCB
     140              
     141              $C$DW$15        .dwtag  DW_TAG_subprogram, DW_AT_name("eMBRegInputCB")
     142                      .dwattr $C$DW$15, DW_AT_low_pc(_eMBRegInputCB)
     143                      .dwattr $C$DW$15, DW_AT_high_pc(0x00)
     144                      .dwattr $C$DW$15, DW_AT_TI_symbol_name("_eMBRegInputCB")
     145                      .dwattr $C$DW$15, DW_AT_external
     146                      .dwattr $C$DW$15, DW_AT_type(*$C$DW$T$38)
     147                      .dwattr $C$DW$15, DW_AT_TI_begin_file("D:/FOC_27/sw/drivers/drvic/FreeModbus/demo.c")
     148                      .dwattr $C$DW$15, DW_AT_TI_begin_line(0x37)
     149                      .dwattr $C$DW$15, DW_AT_TI_begin_column(0x01)
     150                      .dwattr $C$DW$15, DW_AT_TI_max_frame_size(-2)
     151                      .dwpsn  file "D:/FOC_27/sw/drivers/drvic/FreeModbus/demo.c",line 56,column 1,is_stmt,address _eMBRegI
     152              
     153                      .dwfde $C$DW$CIE, _eMBRegInputCB
     154              $C$DW$16        .dwtag  DW_TAG_formal_parameter, DW_AT_name("pucRegBuffer")
     155                      .dwattr $C$DW$16, DW_AT_TI_symbol_name("_pucRegBuffer")
     156                      .dwattr $C$DW$16, DW_AT_type(*$C$DW$T$31)
     157                      .dwattr $C$DW$16, DW_AT_location[DW_OP_reg12]
     158              $C$DW$17        .dwtag  DW_TAG_formal_parameter, DW_AT_name("usAddress")
TMS320C2000 Assembler PC v6.2.5 Tue Aug 15 11:39:29 2017

Tools Copyright (c) 1996-2014 Texas Instruments Incorporated
C:\Users\wmj\AppData\Local\Temp\7522410                              PAGE    4

     159                      .dwattr $C$DW$17, DW_AT_TI_symbol_name("_usAddress")
     160                      .dwattr $C$DW$17, DW_AT_type(*$C$DW$T$33)
     161                      .dwattr $C$DW$17, DW_AT_location[DW_OP_reg0]
     162              $C$DW$18        .dwtag  DW_TAG_formal_parameter, DW_AT_name("usNRegs")
     163                      .dwattr $C$DW$18, DW_AT_TI_symbol_name("_usNRegs")
     164                      .dwattr $C$DW$18, DW_AT_type(*$C$DW$T$33)
     165                      .dwattr $C$DW$18, DW_AT_location[DW_OP_reg1]
     166              
     167              ;***************************************************************
     168              ;* FNAME: _eMBRegInputCB                FR SIZE:   0           *
     169              ;*                                                             *
     170              ;* FUNCTION ENVIRONMENT                                        *
     171              ;*                                                             *
     172              ;* FUNCTION PROPERTIES                                         *
     173              ;*                            0 Parameter,  0 Auto,  0 SOE     *
     174              ;***************************************************************
     175              
     176              _eMBRegInputCB:
     177              ;* AR7   assigned to _eStatus
     178              $C$DW$19        .dwtag  DW_TAG_variable, DW_AT_name("eStatus")
     179                      .dwattr $C$DW$19, DW_AT_TI_symbol_name("_eStatus")
     180                      .dwattr $C$DW$19, DW_AT_type(*$C$DW$T$38)
     181                      .dwattr $C$DW$19, DW_AT_location[DW_OP_reg18]
     182              ;* AR6   assigned to _usNRegs
     183              $C$DW$20        .dwtag  DW_TAG_variable, DW_AT_name("usNRegs")
     184                      .dwattr $C$DW$20, DW_AT_TI_symbol_name("_usNRegs")
     185                      .dwattr $C$DW$20, DW_AT_type(*$C$DW$T$33)
     186                      .dwattr $C$DW$20, DW_AT_location[DW_OP_reg16]
     187              ;* PL    assigned to _usAddress
     188              $C$DW$21        .dwtag  DW_TAG_variable, DW_AT_name("usAddress")
     189                      .dwattr $C$DW$21, DW_AT_TI_symbol_name("_usAddress")
     190                      .dwattr $C$DW$21, DW_AT_type(*$C$DW$T$43)
     191                      .dwattr $C$DW$21, DW_AT_location[DW_OP_reg2]
     192              ;* AR4   assigned to _pucRegBuffer
     193              $C$DW$22        .dwtag  DW_TAG_variable, DW_AT_name("pucRegBuffer")
     194                      .dwattr $C$DW$22, DW_AT_TI_symbol_name("_pucRegBuffer")
     195                      .dwattr $C$DW$22, DW_AT_type(*$C$DW$T$31)
     196                      .dwattr $C$DW$22, DW_AT_location[DW_OP_reg12]
     197              ;* AR6   assigned to $O$L1
     198              ;* AR5   assigned to $O$U19
     199                      .dwcfi  cfa_offset, -2
     200                      .dwcfi  save_reg_to_mem, 26, 0
     201                      .dwcfi  save_reg_to_reg, 78, 26
     202 00000013 27A9          MOV       PL,AL                 ; [CPU_] |56| 
     203 00000014 88A8          MOVZ      AR6,AH                ; [CPU_] |56| 
     204                      .dwpsn  file "D:/FOC_27/sw/drivers/drvic/FreeModbus/demo.c",line 60,column 5,is_stmt
     205 00000015 1BAB          CMP       PL,#1000              ; [CPU_] |60| 
         00000016 03E8 
     206 00000017 681C          B         $C$L3,LO              ; [CPU_] |60| 
     207                      ; branchcc occurs ; [] |60| 
     208 00000018 92A6          MOV       AL,AR6                ; [CPU_] 
     209 00000019 94AB          ADD       AL,PL                 ; [CPU_] |60| 
     210 0000001a 1BA9          CMP       AL,#1004              ; [CPU_] |60| 
         0000001b 03EC 
     211 0000001c 6617          B         $C$L3,HI              ; [CPU_] |60| 
TMS320C2000 Assembler PC v6.2.5 Tue Aug 15 11:39:29 2017

Tools Copyright (c) 1996-2014 Texas Instruments Incorporated
C:\Users\wmj\AppData\Local\Temp\7522410                              PAGE    5

     212                      ; branchcc occurs ; [] |60| 
     213                      .dwpsn  file "D:/FOC_27/sw/drivers/drvic/FreeModbus/demo.c",line 64,column 16,is_stmt
     214 0000001d 5300          CMPB      AH,#0                 ; [CPU_] |64| 
     215                      .dwpsn  file "D:/FOC_27/sw/drivers/drvic/FreeModbus/demo.c",line 57,column 29,is_stmt
     216 0000001e B600          MOVB      XAR7,#0               ; [CPU_] |57| 
     217                      .dwpsn  file "D:/FOC_27/sw/drivers/drvic/FreeModbus/demo.c",line 64,column 16,is_stmt
     218 0000001f EC15          BF        $C$L4,EQ              ; [CPU_] |64| 
     219                      ; branchcc occurs ; [] |64| 
     220 00000020 92AB          MOV       AL,PL                 ; [CPU_] 
     221 00000021 761F-         MOVW      DP,#_usRegInputStart  ; [CPU_U] 
         00000022 0000 
     222 00000023 3B01          SETC      SXM                   ; [CPU_] 
     223 00000024 8F40-         MOVL      XAR5,#_usRegInputBuf  ; [CPU_U] 
         00000025 0001 
     224 00000026 DE81          SUBB      XAR6,#1               ; [CPU_U] 
     225 00000027 9E00-         SUB       AL,@_usRegInputStart  ; [CPU_] 
     226 00000028 85A9          MOV       ACC,AL                ; [CPU_] 
     227 00000029 5601          ADDL      XAR5,ACC              ; [CPU_] 
         0000002a 00A5 
     228 0000002b       $C$L2:    
     229                      .dwpsn  file "D:/FOC_27/sw/drivers/drvic/FreeModbus/demo.c",line 66,column 13,is_stmt
     230 0000002b 93C5          MOV       AH,*+XAR5[0]          ; [CPU_] |66| 
     231 0000002c FFD7          LSR       AH,8                  ; [CPU_] |66| 
     232 0000002d 9784          MOV       *XAR4++,AH            ; [CPU_] |66| 
     233                      .dwpsn  file "D:/FOC_27/sw/drivers/drvic/FreeModbus/demo.c",line 67,column 13,is_stmt
     234 0000002e C785          MOVB      AH.LSB,*XAR5++        ; [CPU_] |67| 
     235 0000002f 9784          MOV       *XAR4++,AH            ; [CPU_] |67| 
     236                      .dwpsn  file "D:/FOC_27/sw/drivers/drvic/FreeModbus/demo.c",line 64,column 16,is_stmt
     237 00000030 000E          BANZ      $C$L2,AR6--           ; [CPU_] |64| 
         00000031 FFFB 
     238                      ; branchcc occurs ; [] |64| 
     239 00000032 6F02          B         $C$L4,UNC             ; [CPU_] |64| 
     240                      ; branch occurs ; [] |64| 
     241 00000033       $C$L3:    
     242                      .dwpsn  file "D:/FOC_27/sw/drivers/drvic/FreeModbus/demo.c",line 74,column 9,is_stmt
     243 00000033 B601          MOVB      XAR7,#1               ; [CPU_] |74| 
     244 00000034       $C$L4:    
     245                      .dwpsn  file "D:/FOC_27/sw/drivers/drvic/FreeModbus/demo.c",line 77,column 5,is_stmt
     246 00000034 92A7          MOV       AL,AR7                ; [CPU_] |77| 
     247              $C$DW$23        .dwtag  DW_TAG_TI_branch
     248                      .dwattr $C$DW$23, DW_AT_low_pc(0x00)
     249                      .dwattr $C$DW$23, DW_AT_TI_return
     250 00000035 0006          LRETR     ; [CPU_] 
     251                      ; return occurs ; [] 
     252                      .dwattr $C$DW$15, DW_AT_TI_end_file("D:/FOC_27/sw/drivers/drvic/FreeModbus/demo.c")
     253                      .dwattr $C$DW$15, DW_AT_TI_end_line(0x4e)
     254                      .dwattr $C$DW$15, DW_AT_TI_end_column(0x01)
     255                      .dwendentry
     256                      .dwendtag $C$DW$15
     257              
     258 00000036               .sect   ".text"
     259                      .clink
     260                      .global _eMBRegHoldingCB
     261              
     262              $C$DW$24        .dwtag  DW_TAG_subprogram, DW_AT_name("eMBRegHoldingCB")
TMS320C2000 Assembler PC v6.2.5 Tue Aug 15 11:39:29 2017

Tools Copyright (c) 1996-2014 Texas Instruments Incorporated
C:\Users\wmj\AppData\Local\Temp\7522410                              PAGE    6

     263                      .dwattr $C$DW$24, DW_AT_low_pc(_eMBRegHoldingCB)
     264                      .dwattr $C$DW$24, DW_AT_high_pc(0x00)
     265                      .dwattr $C$DW$24, DW_AT_TI_symbol_name("_eMBRegHoldingCB")
     266                      .dwattr $C$DW$24, DW_AT_external
     267                      .dwattr $C$DW$24, DW_AT_type(*$C$DW$T$38)
     268                      .dwattr $C$DW$24, DW_AT_TI_begin_file("D:/FOC_27/sw/drivers/drvic/FreeModbus/demo.c")
     269                      .dwattr $C$DW$24, DW_AT_TI_begin_line(0x51)
     270                      .dwattr $C$DW$24, DW_AT_TI_begin_column(0x01)
     271                      .dwattr $C$DW$24, DW_AT_TI_max_frame_size(-2)
     272                      .dwpsn  file "D:/FOC_27/sw/drivers/drvic/FreeModbus/demo.c",line 82,column 1,is_stmt,address _eMBRegH
     273              
     274                      .dwfde $C$DW$CIE, _eMBRegHoldingCB
     275              $C$DW$25        .dwtag  DW_TAG_formal_parameter, DW_AT_name("pucRegBuffer")
     276                      .dwattr $C$DW$25, DW_AT_TI_symbol_name("_pucRegBuffer")
     277                      .dwattr $C$DW$25, DW_AT_type(*$C$DW$T$31)
     278                      .dwattr $C$DW$25, DW_AT_location[DW_OP_reg12]
     279              $C$DW$26        .dwtag  DW_TAG_formal_parameter, DW_AT_name("usAddress")
     280                      .dwattr $C$DW$26, DW_AT_TI_symbol_name("_usAddress")
     281                      .dwattr $C$DW$26, DW_AT_type(*$C$DW$T$33)
     282                      .dwattr $C$DW$26, DW_AT_location[DW_OP_reg0]
     283              $C$DW$27        .dwtag  DW_TAG_formal_parameter, DW_AT_name("usNRegs")
     284                      .dwattr $C$DW$27, DW_AT_TI_symbol_name("_usNRegs")
     285                      .dwattr $C$DW$27, DW_AT_type(*$C$DW$T$33)
     286                      .dwattr $C$DW$27, DW_AT_location[DW_OP_reg1]
     287              $C$DW$28        .dwtag  DW_TAG_formal_parameter, DW_AT_name("eMode")
     288                      .dwattr $C$DW$28, DW_AT_TI_symbol_name("_eMode")
     289                      .dwattr $C$DW$28, DW_AT_type(*$C$DW$T$36)
     290                      .dwattr $C$DW$28, DW_AT_location[DW_OP_reg14]
     291              
     292              ;***************************************************************
     293              ;* FNAME: _eMBRegHoldingCB              FR SIZE:   0           *
     294              ;*                                                             *
     295              ;* FUNCTION ENVIRONMENT                                        *
     296              ;*                                                             *
     297              ;* FUNCTION PROPERTIES                                         *
     298              ;*                            0 Parameter,  0 Auto,  0 SOE     *
     299              ;***************************************************************
     300              
     301 00000036       _eMBRegHoldingCB:
     302                      .dwcfi  cfa_offset, -2
     303                      .dwcfi  save_reg_to_mem, 26, 0
     304                      .dwcfi  save_reg_to_reg, 78, 26
     305                      .dwpsn  file "D:/FOC_27/sw/drivers/drvic/FreeModbus/demo.c",line 87,column 5,is_stmt
     306 00000036 9A01          MOVB      AL,#1                 ; [CPU_] |87| 
     307              $C$DW$29        .dwtag  DW_TAG_TI_branch
     308                      .dwattr $C$DW$29, DW_AT_low_pc(0x00)
     309                      .dwattr $C$DW$29, DW_AT_TI_return
     310 00000037 0006          LRETR     ; [CPU_] 
     311                      ; return occurs ; [] 
     312                      .dwattr $C$DW$24, DW_AT_TI_end_file("D:/FOC_27/sw/drivers/drvic/FreeModbus/demo.c")
     313                      .dwattr $C$DW$24, DW_AT_TI_end_line(0x58)
     314                      .dwattr $C$DW$24, DW_AT_TI_end_column(0x01)
     315                      .dwendentry
     316                      .dwendtag $C$DW$24
     317              
TMS320C2000 Assembler PC v6.2.5 Tue Aug 15 11:39:29 2017

Tools Copyright (c) 1996-2014 Texas Instruments Incorporated
C:\Users\wmj\AppData\Local\Temp\7522410                              PAGE    7

     318 00000038               .sect   ".text"
     319                      .clink
     320                      .global _eMBRegDiscreteCB
     321              
     322              $C$DW$30        .dwtag  DW_TAG_subprogram, DW_AT_name("eMBRegDiscreteCB")
     323                      .dwattr $C$DW$30, DW_AT_low_pc(_eMBRegDiscreteCB)
     324                      .dwattr $C$DW$30, DW_AT_high_pc(0x00)
     325                      .dwattr $C$DW$30, DW_AT_TI_symbol_name("_eMBRegDiscreteCB")
     326                      .dwattr $C$DW$30, DW_AT_external
     327                      .dwattr $C$DW$30, DW_AT_type(*$C$DW$T$38)
     328                      .dwattr $C$DW$30, DW_AT_TI_begin_file("D:/FOC_27/sw/drivers/drvic/FreeModbus/demo.c")
     329                      .dwattr $C$DW$30, DW_AT_TI_begin_line(0x66)
     330                      .dwattr $C$DW$30, DW_AT_TI_begin_column(0x01)
     331                      .dwattr $C$DW$30, DW_AT_TI_max_frame_size(-2)
     332                      .dwpsn  file "D:/FOC_27/sw/drivers/drvic/FreeModbus/demo.c",line 103,column 1,is_stmt,address _eMBReg
     333              
     334                      .dwfde $C$DW$CIE, _eMBRegDiscreteCB
     335              $C$DW$31        .dwtag  DW_TAG_formal_parameter, DW_AT_name("pucRegBuffer")
     336                      .dwattr $C$DW$31, DW_AT_TI_symbol_name("_pucRegBuffer")
     337                      .dwattr $C$DW$31, DW_AT_type(*$C$DW$T$31)
     338                      .dwattr $C$DW$31, DW_AT_location[DW_OP_reg12]
     339              $C$DW$32        .dwtag  DW_TAG_formal_parameter, DW_AT_name("usAddress")
     340                      .dwattr $C$DW$32, DW_AT_TI_symbol_name("_usAddress")
     341                      .dwattr $C$DW$32, DW_AT_type(*$C$DW$T$33)
     342                      .dwattr $C$DW$32, DW_AT_location[DW_OP_reg0]
     343              $C$DW$33        .dwtag  DW_TAG_formal_parameter, DW_AT_name("usNDiscrete")
     344                      .dwattr $C$DW$33, DW_AT_TI_symbol_name("_usNDiscrete")
     345                      .dwattr $C$DW$33, DW_AT_type(*$C$DW$T$33)
     346                      .dwattr $C$DW$33, DW_AT_location[DW_OP_reg1]
     347              
     348              ;***************************************************************
     349              ;* FNAME: _eMBRegDiscreteCB             FR SIZE:   0           *
     350              ;*                                                             *
     351              ;* FUNCTION ENVIRONMENT                                        *
     352              ;*                                                             *
     353              ;* FUNCTION PROPERTIES                                         *
     354              ;*                            0 Parameter,  0 Auto,  0 SOE     *
     355              ;***************************************************************
     356              
     357 00000038       _eMBRegDiscreteCB:
     358                      .dwcfi  cfa_offset, -2
     359                      .dwcfi  save_reg_to_mem, 26, 0
     360                      .dwcfi  save_reg_to_reg, 78, 26
     361                      .dwpsn  file "D:/FOC_27/sw/drivers/drvic/FreeModbus/demo.c",line 107,column 5,is_stmt
     362 00000038 9A01          MOVB      AL,#1                 ; [CPU_] |107| 
     363              $C$DW$34        .dwtag  DW_TAG_TI_branch
     364                      .dwattr $C$DW$34, DW_AT_low_pc(0x00)
     365                      .dwattr $C$DW$34, DW_AT_TI_return
     366 00000039 0006          LRETR     ; [CPU_] 
     367                      ; return occurs ; [] 
     368                      .dwattr $C$DW$30, DW_AT_TI_end_file("D:/FOC_27/sw/drivers/drvic/FreeModbus/demo.c")
     369                      .dwattr $C$DW$30, DW_AT_TI_end_line(0x6c)
     370                      .dwattr $C$DW$30, DW_AT_TI_end_column(0x01)
     371                      .dwendentry
     372                      .dwendtag $C$DW$30
TMS320C2000 Assembler PC v6.2.5 Tue Aug 15 11:39:29 2017

Tools Copyright (c) 1996-2014 Texas Instruments Incorporated
C:\Users\wmj\AppData\Local\Temp\7522410                              PAGE    8

     373              
     374 0000003a               .sect   ".text"
     375                      .clink
     376                      .global _eMBRegCoilsCB
     377              
     378              $C$DW$35        .dwtag  DW_TAG_subprogram, DW_AT_name("eMBRegCoilsCB")
     379                      .dwattr $C$DW$35, DW_AT_low_pc(_eMBRegCoilsCB)
     380                      .dwattr $C$DW$35, DW_AT_high_pc(0x00)
     381                      .dwattr $C$DW$35, DW_AT_TI_symbol_name("_eMBRegCoilsCB")
     382                      .dwattr $C$DW$35, DW_AT_external
     383                      .dwattr $C$DW$35, DW_AT_type(*$C$DW$T$38)
     384                      .dwattr $C$DW$35, DW_AT_TI_begin_file("D:/FOC_27/sw/drivers/drvic/FreeModbus/demo.c")
     385                      .dwattr $C$DW$35, DW_AT_TI_begin_line(0x5c)
     386                      .dwattr $C$DW$35, DW_AT_TI_begin_column(0x01)
     387                      .dwattr $C$DW$35, DW_AT_TI_max_frame_size(-2)
     388                      .dwpsn  file "D:/FOC_27/sw/drivers/drvic/FreeModbus/demo.c",line 93,column 1,is_stmt,address _eMBRegC
     389              
     390                      .dwfde $C$DW$CIE, _eMBRegCoilsCB
     391              $C$DW$36        .dwtag  DW_TAG_formal_parameter, DW_AT_name("pucRegBuffer")
     392                      .dwattr $C$DW$36, DW_AT_TI_symbol_name("_pucRegBuffer")
     393                      .dwattr $C$DW$36, DW_AT_type(*$C$DW$T$31)
     394                      .dwattr $C$DW$36, DW_AT_location[DW_OP_reg12]
     395              $C$DW$37        .dwtag  DW_TAG_formal_parameter, DW_AT_name("usAddress")
     396                      .dwattr $C$DW$37, DW_AT_TI_symbol_name("_usAddress")
     397                      .dwattr $C$DW$37, DW_AT_type(*$C$DW$T$33)
     398                      .dwattr $C$DW$37, DW_AT_location[DW_OP_reg0]
     399              $C$DW$38        .dwtag  DW_TAG_formal_parameter, DW_AT_name("usNCoils")
     400                      .dwattr $C$DW$38, DW_AT_TI_symbol_name("_usNCoils")
     401                      .dwattr $C$DW$38, DW_AT_type(*$C$DW$T$33)
     402                      .dwattr $C$DW$38, DW_AT_location[DW_OP_reg1]
     403              $C$DW$39        .dwtag  DW_TAG_formal_parameter, DW_AT_name("eMode")
     404                      .dwattr $C$DW$39, DW_AT_TI_symbol_name("_eMode")
     405                      .dwattr $C$DW$39, DW_AT_type(*$C$DW$T$36)
     406                      .dwattr $C$DW$39, DW_AT_location[DW_OP_reg14]
     407              
     408              ;***************************************************************
     409              ;* FNAME: _eMBRegCoilsCB                FR SIZE:   0           *
     410              ;*                                                             *
     411              ;* FUNCTION ENVIRONMENT                                        *
     412              ;*                                                             *
     413              ;* FUNCTION PROPERTIES                                         *
     414              ;*                            0 Parameter,  0 Auto,  0 SOE     *
     415              ;***************************************************************
     416              
     417 0000003a       _eMBRegCoilsCB:
     418                      .dwcfi  cfa_offset, -2
     419                      .dwcfi  save_reg_to_mem, 26, 0
     420                      .dwcfi  save_reg_to_reg, 78, 26
     421                      .dwpsn  file "D:/FOC_27/sw/drivers/drvic/FreeModbus/demo.c",line 98,column 5,is_stmt
     422 0000003a 9A01          MOVB      AL,#1                 ; [CPU_] |98| 
     423              $C$DW$40        .dwtag  DW_TAG_TI_branch
     424                      .dwattr $C$DW$40, DW_AT_low_pc(0x00)
     425                      .dwattr $C$DW$40, DW_AT_TI_return
     426 0000003b 0006          LRETR     ; [CPU_] 
     427                      ; return occurs ; [] 
TMS320C2000 Assembler PC v6.2.5 Tue Aug 15 11:39:29 2017

Tools Copyright (c) 1996-2014 Texas Instruments Incorporated
C:\Users\wmj\AppData\Local\Temp\7522410                              PAGE    9

     428                      .dwattr $C$DW$35, DW_AT_TI_end_file("D:/FOC_27/sw/drivers/drvic/FreeModbus/demo.c")
     429                      .dwattr $C$DW$35, DW_AT_TI_end_line(0x63)
     430                      .dwattr $C$DW$35, DW_AT_TI_end_column(0x01)
     431                      .dwendentry
     432                      .dwendtag $C$DW$35
     433              
     434              ;**************************************************************
     435              ;* UNDEFINED EXTERNAL REFERENCES                              *
     436              ;**************************************************************
     437                      .global _eMBEnable
     438                      .global _eMBInit
     439                      .global _eMBPoll
     440              
     441              ;***************************************************************
     442              ;* TYPE INFORMATION                                            *
     443              ;***************************************************************
     444              
     445              $C$DW$T$19      .dwtag  DW_TAG_enumeration_type
     446                      .dwattr $C$DW$T$19, DW_AT_byte_size(0x01)
     447              $C$DW$41        .dwtag  DW_TAG_enumerator, DW_AT_name("MB_ENOERR"), DW_AT_const_value(0x00)
     448              $C$DW$42        .dwtag  DW_TAG_enumerator, DW_AT_name("MB_ENOREG"), DW_AT_const_value(0x01)
     449              $C$DW$43        .dwtag  DW_TAG_enumerator, DW_AT_name("MB_EINVAL"), DW_AT_const_value(0x02)
     450              $C$DW$44        .dwtag  DW_TAG_enumerator, DW_AT_name("MB_EPORTERR"), DW_AT_const_value(0x03)
     451              $C$DW$45        .dwtag  DW_TAG_enumerator, DW_AT_name("MB_ENORES"), DW_AT_const_value(0x04)
     452              $C$DW$46        .dwtag  DW_TAG_enumerator, DW_AT_name("MB_EIO"), DW_AT_const_value(0x05)
     453              $C$DW$47        .dwtag  DW_TAG_enumerator, DW_AT_name("MB_EILLSTATE"), DW_AT_const_value(0x06)
     454              $C$DW$48        .dwtag  DW_TAG_enumerator, DW_AT_name("MB_ETIMEDOUT"), DW_AT_const_value(0x07)
     455                      .dwendtag $C$DW$T$19
     456              
     457              $C$DW$T$38      .dwtag  DW_TAG_typedef, DW_AT_name("eMBErrorCode")
     458                      .dwattr $C$DW$T$38, DW_AT_type(*$C$DW$T$19)
     459                      .dwattr $C$DW$T$38, DW_AT_language(DW_LANG_C)
     460              
     461              $C$DW$T$20      .dwtag  DW_TAG_enumeration_type
     462                      .dwattr $C$DW$T$20, DW_AT_byte_size(0x01)
     463              $C$DW$49        .dwtag  DW_TAG_enumerator, DW_AT_name("MB_RTU"), DW_AT_const_value(0x00)
     464              $C$DW$50        .dwtag  DW_TAG_enumerator, DW_AT_name("MB_ASCII"), DW_AT_const_value(0x01)
     465              $C$DW$51        .dwtag  DW_TAG_enumerator, DW_AT_name("MB_TCP"), DW_AT_const_value(0x02)
     466                      .dwendtag $C$DW$T$20
     467              
     468              $C$DW$T$21      .dwtag  DW_TAG_typedef, DW_AT_name("eMBMode")
     469                      .dwattr $C$DW$T$21, DW_AT_type(*$C$DW$T$20)
     470                      .dwattr $C$DW$T$21, DW_AT_language(DW_LANG_C)
     471              
     472              $C$DW$T$25      .dwtag  DW_TAG_enumeration_type
     473                      .dwattr $C$DW$T$25, DW_AT_byte_size(0x01)
     474              $C$DW$52        .dwtag  DW_TAG_enumerator, DW_AT_name("MB_PAR_NONE"), DW_AT_const_value(0x00)
     475              $C$DW$53        .dwtag  DW_TAG_enumerator, DW_AT_name("MB_PAR_ODD"), DW_AT_const_value(0x01)
     476              $C$DW$54        .dwtag  DW_TAG_enumerator, DW_AT_name("MB_PAR_EVEN"), DW_AT_const_value(0x02)
     477                      .dwendtag $C$DW$T$25
     478              
     479              $C$DW$T$26      .dwtag  DW_TAG_typedef, DW_AT_name("eMBParity")
     480                      .dwattr $C$DW$T$26, DW_AT_type(*$C$DW$T$25)
     481                      .dwattr $C$DW$T$26, DW_AT_language(DW_LANG_C)
     482              
TMS320C2000 Assembler PC v6.2.5 Tue Aug 15 11:39:29 2017

Tools Copyright (c) 1996-2014 Texas Instruments Incorporated
C:\Users\wmj\AppData\Local\Temp\7522410                              PAGE   10

     483              $C$DW$T$35      .dwtag  DW_TAG_enumeration_type
     484                      .dwattr $C$DW$T$35, DW_AT_byte_size(0x01)
     485              $C$DW$55        .dwtag  DW_TAG_enumerator, DW_AT_name("MB_REG_READ"), DW_AT_const_value(0x00)
     486              $C$DW$56        .dwtag  DW_TAG_enumerator, DW_AT_name("MB_REG_WRITE"), DW_AT_const_value(0x01)
     487                      .dwendtag $C$DW$T$35
     488              
     489              $C$DW$T$36      .dwtag  DW_TAG_typedef, DW_AT_name("eMBRegisterMode")
     490                      .dwattr $C$DW$T$36, DW_AT_type(*$C$DW$T$35)
     491                      .dwattr $C$DW$T$36, DW_AT_language(DW_LANG_C)
     492              $C$DW$T$4       .dwtag  DW_TAG_base_type
     493                      .dwattr $C$DW$T$4, DW_AT_encoding(DW_ATE_boolean)
     494                      .dwattr $C$DW$T$4, DW_AT_name("bool")
     495                      .dwattr $C$DW$T$4, DW_AT_byte_size(0x01)
     496              $C$DW$T$5       .dwtag  DW_TAG_base_type
     497                      .dwattr $C$DW$T$5, DW_AT_encoding(DW_ATE_signed_char)
     498                      .dwattr $C$DW$T$5, DW_AT_name("signed char")
     499                      .dwattr $C$DW$T$5, DW_AT_byte_size(0x01)
     500              $C$DW$T$6       .dwtag  DW_TAG_base_type
     501                      .dwattr $C$DW$T$6, DW_AT_encoding(DW_ATE_unsigned_char)
     502                      .dwattr $C$DW$T$6, DW_AT_name("unsigned char")
     503                      .dwattr $C$DW$T$6, DW_AT_byte_size(0x01)
     504              $C$DW$T$22      .dwtag  DW_TAG_typedef, DW_AT_name("UCHAR")
     505                      .dwattr $C$DW$T$22, DW_AT_type(*$C$DW$T$6)
     506                      .dwattr $C$DW$T$22, DW_AT_language(DW_LANG_C)
     507              $C$DW$T$31      .dwtag  DW_TAG_pointer_type
     508                      .dwattr $C$DW$T$31, DW_AT_type(*$C$DW$T$22)
     509                      .dwattr $C$DW$T$31, DW_AT_address_class(0x16)
     510              $C$DW$T$7       .dwtag  DW_TAG_base_type
     511                      .dwattr $C$DW$T$7, DW_AT_encoding(DW_ATE_signed_char)
     512                      .dwattr $C$DW$T$7, DW_AT_name("wchar_t")
     513                      .dwattr $C$DW$T$7, DW_AT_byte_size(0x01)
     514              $C$DW$T$8       .dwtag  DW_TAG_base_type
     515                      .dwattr $C$DW$T$8, DW_AT_encoding(DW_ATE_signed)
     516                      .dwattr $C$DW$T$8, DW_AT_name("short")
     517                      .dwattr $C$DW$T$8, DW_AT_byte_size(0x01)
     518              $C$DW$T$9       .dwtag  DW_TAG_base_type
     519                      .dwattr $C$DW$T$9, DW_AT_encoding(DW_ATE_unsigned)
     520                      .dwattr $C$DW$T$9, DW_AT_name("unsigned short")
     521                      .dwattr $C$DW$T$9, DW_AT_byte_size(0x01)
     522              $C$DW$T$32      .dwtag  DW_TAG_typedef, DW_AT_name("uint16_t")
     523                      .dwattr $C$DW$T$32, DW_AT_type(*$C$DW$T$9)
     524                      .dwattr $C$DW$T$32, DW_AT_language(DW_LANG_C)
     525              $C$DW$T$33      .dwtag  DW_TAG_typedef, DW_AT_name("USHORT")
     526                      .dwattr $C$DW$T$33, DW_AT_type(*$C$DW$T$32)
     527                      .dwattr $C$DW$T$33, DW_AT_language(DW_LANG_C)
     528              $C$DW$57        .dwtag  DW_TAG_TI_far_type
     529                      .dwattr $C$DW$57, DW_AT_type(*$C$DW$T$33)
     530              $C$DW$T$43      .dwtag  DW_TAG_const_type
     531                      .dwattr $C$DW$T$43, DW_AT_type(*$C$DW$57)
     532              
     533              $C$DW$T$44      .dwtag  DW_TAG_array_type
     534                      .dwattr $C$DW$T$44, DW_AT_type(*$C$DW$T$33)
     535                      .dwattr $C$DW$T$44, DW_AT_language(DW_LANG_C)
     536                      .dwattr $C$DW$T$44, DW_AT_byte_size(0x04)
     537              $C$DW$58        .dwtag  DW_TAG_subrange_type
TMS320C2000 Assembler PC v6.2.5 Tue Aug 15 11:39:29 2017

Tools Copyright (c) 1996-2014 Texas Instruments Incorporated
C:\Users\wmj\AppData\Local\Temp\7522410                              PAGE   11

     538                      .dwattr $C$DW$58, DW_AT_upper_bound(0x03)
     539                      .dwendtag $C$DW$T$44
     540              
     541              $C$DW$T$10      .dwtag  DW_TAG_base_type
     542                      .dwattr $C$DW$T$10, DW_AT_encoding(DW_ATE_signed)
     543                      .dwattr $C$DW$T$10, DW_AT_name("int")
     544                      .dwattr $C$DW$T$10, DW_AT_byte_size(0x01)
     545              $C$DW$T$11      .dwtag  DW_TAG_base_type
     546                      .dwattr $C$DW$T$11, DW_AT_encoding(DW_ATE_unsigned)
     547                      .dwattr $C$DW$T$11, DW_AT_name("unsigned int")
     548                      .dwattr $C$DW$T$11, DW_AT_byte_size(0x01)
     549              $C$DW$T$12      .dwtag  DW_TAG_base_type
     550                      .dwattr $C$DW$T$12, DW_AT_encoding(DW_ATE_signed)
     551                      .dwattr $C$DW$T$12, DW_AT_name("long")
     552                      .dwattr $C$DW$T$12, DW_AT_byte_size(0x02)
     553              $C$DW$T$13      .dwtag  DW_TAG_base_type
     554                      .dwattr $C$DW$T$13, DW_AT_encoding(DW_ATE_unsigned)
     555                      .dwattr $C$DW$T$13, DW_AT_name("unsigned long")
     556                      .dwattr $C$DW$T$13, DW_AT_byte_size(0x02)
     557              $C$DW$T$23      .dwtag  DW_TAG_typedef, DW_AT_name("uint32_t")
     558                      .dwattr $C$DW$T$23, DW_AT_type(*$C$DW$T$13)
     559                      .dwattr $C$DW$T$23, DW_AT_language(DW_LANG_C)
     560              $C$DW$T$24      .dwtag  DW_TAG_typedef, DW_AT_name("ULONG")
     561                      .dwattr $C$DW$T$24, DW_AT_type(*$C$DW$T$23)
     562                      .dwattr $C$DW$T$24, DW_AT_language(DW_LANG_C)
     563              $C$DW$T$14      .dwtag  DW_TAG_base_type
     564                      .dwattr $C$DW$T$14, DW_AT_encoding(DW_ATE_signed)
     565                      .dwattr $C$DW$T$14, DW_AT_name("long long")
     566                      .dwattr $C$DW$T$14, DW_AT_byte_size(0x04)
     567              $C$DW$T$15      .dwtag  DW_TAG_base_type
     568                      .dwattr $C$DW$T$15, DW_AT_encoding(DW_ATE_unsigned)
     569                      .dwattr $C$DW$T$15, DW_AT_name("unsigned long long")
     570                      .dwattr $C$DW$T$15, DW_AT_byte_size(0x04)
     571              $C$DW$T$16      .dwtag  DW_TAG_base_type
     572                      .dwattr $C$DW$T$16, DW_AT_encoding(DW_ATE_float)
     573                      .dwattr $C$DW$T$16, DW_AT_name("float")
     574                      .dwattr $C$DW$T$16, DW_AT_byte_size(0x02)
     575              $C$DW$T$17      .dwtag  DW_TAG_base_type
     576                      .dwattr $C$DW$T$17, DW_AT_encoding(DW_ATE_float)
     577                      .dwattr $C$DW$T$17, DW_AT_name("double")
     578                      .dwattr $C$DW$T$17, DW_AT_byte_size(0x02)
     579              $C$DW$T$18      .dwtag  DW_TAG_base_type
     580                      .dwattr $C$DW$T$18, DW_AT_encoding(DW_ATE_float)
     581                      .dwattr $C$DW$T$18, DW_AT_name("long double")
     582                      .dwattr $C$DW$T$18, DW_AT_byte_size(0x04)
     583                      .dwattr $C$DW$CU, DW_AT_language(DW_LANG_C)
     584              
     585              ;***************************************************************
     586              ;* DWARF CIE ENTRIES                                           *
     587              ;***************************************************************
     588              
     589              $C$DW$CIE       .dwcie 78
     590                      .dwcfi  cfa_register, 20
     591                      .dwcfi  cfa_offset, 0
     592                      .dwcfi  undefined, 0
TMS320C2000 Assembler PC v6.2.5 Tue Aug 15 11:39:29 2017

Tools Copyright (c) 1996-2014 Texas Instruments Incorporated
C:\Users\wmj\AppData\Local\Temp\7522410                              PAGE   12

     593                      .dwcfi  undefined, 1
     594                      .dwcfi  undefined, 2
     595                      .dwcfi  undefined, 3
     596                      .dwcfi  undefined, 20
     597                      .dwcfi  undefined, 21
     598                      .dwcfi  undefined, 22
     599                      .dwcfi  undefined, 23
     600                      .dwcfi  undefined, 24
     601                      .dwcfi  undefined, 25
     602                      .dwcfi  undefined, 26
     603                      .dwcfi  same_value, 28
     604                      .dwcfi  undefined, 29
     605                      .dwcfi  undefined, 30
     606                      .dwcfi  undefined, 31
     607                      .dwcfi  undefined, 32
     608                      .dwcfi  undefined, 33
     609                      .dwcfi  undefined, 34
     610                      .dwcfi  undefined, 35
     611                      .dwcfi  undefined, 36
     612                      .dwcfi  undefined, 37
     613                      .dwcfi  undefined, 38
     614                      .dwcfi  undefined, 75
     615                      .dwcfi  undefined, 76
     616                      .dwcfi  undefined, 77
     617                      .dwcfi  undefined, 4
     618                      .dwcfi  same_value, 6
     619                      .dwcfi  same_value, 8
     620                      .dwcfi  same_value, 10
     621                      .dwcfi  undefined, 12
     622                      .dwcfi  undefined, 14
     623                      .dwcfi  undefined, 16
     624                      .dwcfi  undefined, 17
     625                      .dwcfi  undefined, 18
     626                      .dwcfi  undefined, 19
     627                      .dwcfi  undefined, 5
     628                      .dwcfi  same_value, 7
     629                      .dwcfi  same_value, 9
     630                      .dwcfi  same_value, 11
     631                      .dwcfi  undefined, 13
     632                      .dwcfi  undefined, 15
     633                      .dwcfi  undefined, 78
     634                      .dwendentry
     635              
     636              ;***************************************************************
     637              ;* DWARF REGISTER MAP                                          *
     638              ;***************************************************************
     639              
     640              $C$DW$59        .dwtag  DW_TAG_TI_assign_register, DW_AT_name("AL")
     641                      .dwattr $C$DW$59, DW_AT_location[DW_OP_reg0]
     642              $C$DW$60        .dwtag  DW_TAG_TI_assign_register, DW_AT_name("AH")
     643                      .dwattr $C$DW$60, DW_AT_location[DW_OP_reg1]
     644              $C$DW$61        .dwtag  DW_TAG_TI_assign_register, DW_AT_name("PL")
     645                      .dwattr $C$DW$61, DW_AT_location[DW_OP_reg2]
     646              $C$DW$62        .dwtag  DW_TAG_TI_assign_register, DW_AT_name("PH")
     647                      .dwattr $C$DW$62, DW_AT_location[DW_OP_reg3]
TMS320C2000 Assembler PC v6.2.5 Tue Aug 15 11:39:29 2017

Tools Copyright (c) 1996-2014 Texas Instruments Incorporated
C:\Users\wmj\AppData\Local\Temp\7522410                              PAGE   13

     648              $C$DW$63        .dwtag  DW_TAG_TI_assign_register, DW_AT_name("SP")
     649                      .dwattr $C$DW$63, DW_AT_location[DW_OP_reg20]
     650              $C$DW$64        .dwtag  DW_TAG_TI_assign_register, DW_AT_name("XT")
     651                      .dwattr $C$DW$64, DW_AT_location[DW_OP_reg21]
     652              $C$DW$65        .dwtag  DW_TAG_TI_assign_register, DW_AT_name("T")
     653                      .dwattr $C$DW$65, DW_AT_location[DW_OP_reg22]
     654              $C$DW$66        .dwtag  DW_TAG_TI_assign_register, DW_AT_name("ST0")
     655                      .dwattr $C$DW$66, DW_AT_location[DW_OP_reg23]
     656              $C$DW$67        .dwtag  DW_TAG_TI_assign_register, DW_AT_name("ST1")
     657                      .dwattr $C$DW$67, DW_AT_location[DW_OP_reg24]
     658              $C$DW$68        .dwtag  DW_TAG_TI_assign_register, DW_AT_name("PC")
     659                      .dwattr $C$DW$68, DW_AT_location[DW_OP_reg25]
     660              $C$DW$69        .dwtag  DW_TAG_TI_assign_register, DW_AT_name("RPC")
     661                      .dwattr $C$DW$69, DW_AT_location[DW_OP_reg26]
     662              $C$DW$70        .dwtag  DW_TAG_TI_assign_register, DW_AT_name("FP")
     663                      .dwattr $C$DW$70, DW_AT_location[DW_OP_reg28]
     664              $C$DW$71        .dwtag  DW_TAG_TI_assign_register, DW_AT_name("DP")
     665                      .dwattr $C$DW$71, DW_AT_location[DW_OP_reg29]
     666              $C$DW$72        .dwtag  DW_TAG_TI_assign_register, DW_AT_name("SXM")
     667                      .dwattr $C$DW$72, DW_AT_location[DW_OP_reg30]
     668              $C$DW$73        .dwtag  DW_TAG_TI_assign_register, DW_AT_name("PM")
     669                      .dwattr $C$DW$73, DW_AT_location[DW_OP_reg31]
     670              $C$DW$74        .dwtag  DW_TAG_TI_assign_register, DW_AT_name("OVM")
     671                      .dwattr $C$DW$74, DW_AT_location[DW_OP_regx 0x20]
     672              $C$DW$75        .dwtag  DW_TAG_TI_assign_register, DW_AT_name("PAGE0")
     673                      .dwattr $C$DW$75, DW_AT_location[DW_OP_regx 0x21]
     674              $C$DW$76        .dwtag  DW_TAG_TI_assign_register, DW_AT_name("AMODE")
     675                      .dwattr $C$DW$76, DW_AT_location[DW_OP_regx 0x22]
     676              $C$DW$77        .dwtag  DW_TAG_TI_assign_register, DW_AT_name("INTM")
     677                      .dwattr $C$DW$77, DW_AT_location[DW_OP_regx 0x23]
     678              $C$DW$78        .dwtag  DW_TAG_TI_assign_register, DW_AT_name("IFR")
     679                      .dwattr $C$DW$78, DW_AT_location[DW_OP_regx 0x24]
     680              $C$DW$79        .dwtag  DW_TAG_TI_assign_register, DW_AT_name("IER")
     681                      .dwattr $C$DW$79, DW_AT_location[DW_OP_regx 0x25]
     682              $C$DW$80        .dwtag  DW_TAG_TI_assign_register, DW_AT_name("V")
     683                      .dwattr $C$DW$80, DW_AT_location[DW_OP_regx 0x26]
     684              $C$DW$81        .dwtag  DW_TAG_TI_assign_register, DW_AT_name("PSEUDOH")
     685                      .dwattr $C$DW$81, DW_AT_location[DW_OP_regx 0x4c]
     686              $C$DW$82        .dwtag  DW_TAG_TI_assign_register, DW_AT_name("VOL")
     687                      .dwattr $C$DW$82, DW_AT_location[DW_OP_regx 0x4d]
     688              $C$DW$83        .dwtag  DW_TAG_TI_assign_register, DW_AT_name("AR0")
     689                      .dwattr $C$DW$83, DW_AT_location[DW_OP_reg4]
     690              $C$DW$84        .dwtag  DW_TAG_TI_assign_register, DW_AT_name("AR1")
     691                      .dwattr $C$DW$84, DW_AT_location[DW_OP_reg6]
     692              $C$DW$85        .dwtag  DW_TAG_TI_assign_register, DW_AT_name("AR2")
     693                      .dwattr $C$DW$85, DW_AT_location[DW_OP_reg8]
     694              $C$DW$86        .dwtag  DW_TAG_TI_assign_register, DW_AT_name("AR3")
     695                      .dwattr $C$DW$86, DW_AT_location[DW_OP_reg10]
     696              $C$DW$87        .dwtag  DW_TAG_TI_assign_register, DW_AT_name("AR4")
     697                      .dwattr $C$DW$87, DW_AT_location[DW_OP_reg12]
     698              $C$DW$88        .dwtag  DW_TAG_TI_assign_register, DW_AT_name("AR5")
     699                      .dwattr $C$DW$88, DW_AT_location[DW_OP_reg14]
     700              $C$DW$89        .dwtag  DW_TAG_TI_assign_register, DW_AT_name("AR6")
     701                      .dwattr $C$DW$89, DW_AT_location[DW_OP_reg16]
     702              $C$DW$90        .dwtag  DW_TAG_TI_assign_register, DW_AT_name("XAR6")
TMS320C2000 Assembler PC v6.2.5 Tue Aug 15 11:39:29 2017

Tools Copyright (c) 1996-2014 Texas Instruments Incorporated
C:\Users\wmj\AppData\Local\Temp\7522410                              PAGE   14

     703                      .dwattr $C$DW$90, DW_AT_location[DW_OP_reg17]
     704              $C$DW$91        .dwtag  DW_TAG_TI_assign_register, DW_AT_name("AR7")
     705                      .dwattr $C$DW$91, DW_AT_location[DW_OP_reg18]
     706              $C$DW$92        .dwtag  DW_TAG_TI_assign_register, DW_AT_name("XAR7")
     707                      .dwattr $C$DW$92, DW_AT_location[DW_OP_reg19]
     708              $C$DW$93        .dwtag  DW_TAG_TI_assign_register, DW_AT_name("XAR0")
     709                      .dwattr $C$DW$93, DW_AT_location[DW_OP_reg5]
     710              $C$DW$94        .dwtag  DW_TAG_TI_assign_register, DW_AT_name("XAR1")
     711                      .dwattr $C$DW$94, DW_AT_location[DW_OP_reg7]
     712              $C$DW$95        .dwtag  DW_TAG_TI_assign_register, DW_AT_name("XAR2")
     713                      .dwattr $C$DW$95, DW_AT_location[DW_OP_reg9]
     714              $C$DW$96        .dwtag  DW_TAG_TI_assign_register, DW_AT_name("XAR3")
     715                      .dwattr $C$DW$96, DW_AT_location[DW_OP_reg11]
     716              $C$DW$97        .dwtag  DW_TAG_TI_assign_register, DW_AT_name("XAR4")
     717                      .dwattr $C$DW$97, DW_AT_location[DW_OP_reg13]
     718              $C$DW$98        .dwtag  DW_TAG_TI_assign_register, DW_AT_name("XAR5")
     719                      .dwattr $C$DW$98, DW_AT_location[DW_OP_reg15]
     720              $C$DW$99        .dwtag  DW_TAG_TI_assign_register, DW_AT_name("CIE_RETA")
     721                      .dwattr $C$DW$99, DW_AT_location[DW_OP_regx 0x4e]
     722                      .dwendtag $C$DW$CU
     723              

No Assembly Errors, No Assembly Warnings
