TMS320C2000 Assembler PC v6.2.5 Sat Sep 16 14:47:35 2017

Tools Copyright (c) 1996-2014 Texas Instruments Incorporated
C:\Users\wmj\AppData\Local\Temp\1316010                              PAGE    1

       1              ;***************************************************************
       2              ;* TMS320C2000 C/C++ Codegen                         PC v6.2.5 *
       3              ;* Date/Time created: Sat Sep 16 14:47:34 2017                 *
       4              ;***************************************************************
       5                      .compiler_opts --float_support=softlib --hll_source=on --mem_model:code=flat --mem_model:data=large -
       6        0002  FP      .set    XAR2
       7              
       8              $C$DW$CU        .dwtag  DW_TAG_compile_unit
       9                      .dwattr $C$DW$CU, DW_AT_name("D:/BM1000/sw/modules/user/src/32b/user.c")
      10                      .dwattr $C$DW$CU, DW_AT_producer("TMS320C2000 C/C++ Codegen PC v6.2.5 Copyright (c) 1996-2014 Texas I
      11                      .dwattr $C$DW$CU, DW_AT_TI_version(0x01)
      12                      .dwattr $C$DW$CU, DW_AT_comp_dir("D:\BM1000\sw\solutions\instaspin_foc\boards\hvkit_rev1p1\f28x\f2802
      13              ;**************************************************************
      14              ;* CINIT RECORDS                                              *
      15              ;**************************************************************
      16 00000000               .sect   ".cinit"
      17                      .align  1
      18 00000000 FFA8          .field          -$C$IR_1,16
      19 00000001 0000-         .field          _MOTOR_DATA+0,32
         00000002 0000 
      20 00000003 0000          .bits   0,16                    ; _MOTOR_DATA[0]._motor_type @ 0
      21 00000004 0002          .bits   2,16                    ; _MOTOR_DATA[0]._motor_numPolePairs @ 16
      22 00000005 0101          .xfloat $strtod("0x1.4e0202p+7")                ; _MOTOR_DATA[0]._motor_Rr @ 32
         00000006 4327 
      23 00000007 B663          .xfloat $strtod("0x1.c16cc6p+6")                ; _MOTOR_DATA[0]._motor_Rs @ 64
         00000008 42E0 
      24 00000009 CADC          .xfloat $strtod("0x1.f595b8p-3")                ; _MOTOR_DATA[0]._motor_Ls_d @ 96
         0000000a 3E7A 
      25 0000000b CADC          .xfloat $strtod("0x1.f595b8p-3")                ; _MOTOR_DATA[0]._motor_Ls_q @ 128
         0000000c 3E7A 
      26 0000000d 5048          .xfloat $strtod("0x1.90a09p+1")         ; _MOTOR_DATA[0]._motor_ratedFlux @ 160
         0000000e 4048 
      27 0000000f F4D8          .xfloat $strtod("0x1.19e9bp-2")         ; _MOTOR_DATA[0]._IdRated @ 192
         00000010 3E8C 
      28 00000011 CCCD          .xfloat $strtod("0x1.99999ap-5")                ; _MOTOR_DATA[0]._maxCurrent_resEst @ 224
         00000012 3D4C 
      29 00000013 0000          .xfloat $strtod("0x0p+0")               ; _MOTOR_DATA[0]._maxCurrent_indEst @ 256
         00000014 0000 
      30 00000015 999A          .xfloat $strtod("0x1.333334p-2")                ; _MOTOR_DATA[0]._maxCurrent @ 288
         00000016 3E99 
      31 00000017 0000          .xfloat $strtod("0x1.4p+2")             ; _MOTOR_DATA[0]._fluxEstFreq_Hz @ 320
         00000018 40A0 
      32 00000019 0000          .bits   0,16                    ; _MOTOR_DATA[1]._motor_type @ 352
      33 0000001a 0002          .bits   2,16                    ; _MOTOR_DATA[1]._motor_numPolePairs @ 368
      34 0000001b 0000          .xfloat $strtod("0x0p+0")               ; _MOTOR_DATA[1]._motor_Rr @ 384
         0000001c 0000 
      35 0000001d 0000          .xfloat $strtod("0x0p+0")               ; _MOTOR_DATA[1]._motor_Rs @ 416
         0000001e 0000 
      36 0000001f 0000          .xfloat $strtod("0x0p+0")               ; _MOTOR_DATA[1]._motor_Ls_d @ 448
         00000020 0000 
      37 00000021 0000          .xfloat $strtod("0x0p+0")               ; _MOTOR_DATA[1]._motor_Ls_q @ 480
         00000022 0000 
      38 00000023 5048          .xfloat $strtod("0x1.90a09p+1")         ; _MOTOR_DATA[1]._motor_ratedFlux @ 512
         00000024 4048 
      39 00000025 0000          .xfloat $strtod("0x0p+0")               ; _MOTOR_DATA[1]._IdRated @ 544
TMS320C2000 Assembler PC v6.2.5 Sat Sep 16 14:47:35 2017

Tools Copyright (c) 1996-2014 Texas Instruments Incorporated
C:\Users\wmj\AppData\Local\Temp\1316010                              PAGE    2

         00000026 0000 
      40 00000027 CCCD          .xfloat $strtod("0x1.99999ap-4")                ; _MOTOR_DATA[1]._maxCurrent_resEst @ 576
         00000028 3DCC 
      41 00000029 0000          .xfloat $strtod("0x0p+0")               ; _MOTOR_DATA[1]._maxCurrent_indEst @ 608
         0000002a 0000 
      42 0000002b CCCD          .xfloat $strtod("0x1.99999ap-3")                ; _MOTOR_DATA[1]._maxCurrent @ 640
         0000002c 3E4C 
      43 0000002d 0000          .xfloat $strtod("0x1.4p+2")             ; _MOTOR_DATA[1]._fluxEstFreq_Hz @ 672
         0000002e 40A0 
      44 0000002f 0000          .bits   0,16                    ; _MOTOR_DATA[2]._motor_type @ 704
      45 00000030 0002          .bits   2,16                    ; _MOTOR_DATA[2]._motor_numPolePairs @ 720
      46 00000031 0000          .xfloat $strtod("0x0p+0")               ; _MOTOR_DATA[2]._motor_Rr @ 736
         00000032 0000 
      47 00000033 0000          .xfloat $strtod("0x0p+0")               ; _MOTOR_DATA[2]._motor_Rs @ 768
         00000034 0000 
      48 00000035 0000          .xfloat $strtod("0x0p+0")               ; _MOTOR_DATA[2]._motor_Ls_d @ 800
         00000036 0000 
      49 00000037 0000          .xfloat $strtod("0x0p+0")               ; _MOTOR_DATA[2]._motor_Ls_q @ 832
         00000038 0000 
      50 00000039 5048          .xfloat $strtod("0x1.90a09p+1")         ; _MOTOR_DATA[2]._motor_ratedFlux @ 864
         0000003a 4048 
      51 0000003b 0000          .xfloat $strtod("0x0p+0")               ; _MOTOR_DATA[2]._IdRated @ 896
         0000003c 0000 
      52 0000003d CCCD          .xfloat $strtod("0x1.99999ap-4")                ; _MOTOR_DATA[2]._maxCurrent_resEst @ 928
         0000003e 3DCC 
      53 0000003f 0000          .xfloat $strtod("0x0p+0")               ; _MOTOR_DATA[2]._maxCurrent_indEst @ 960
         00000040 0000 
      54 00000041 CCCD          .xfloat $strtod("0x1.99999ap-3")                ; _MOTOR_DATA[2]._maxCurrent @ 992
         00000042 3E4C 
      55 00000043 0000          .xfloat $strtod("0x1.4p+2")             ; _MOTOR_DATA[2]._fluxEstFreq_Hz @ 1024
         00000044 40A0 
      56 00000045 0000          .bits   0,16                    ; _MOTOR_DATA[3]._motor_type @ 1056
      57 00000046 0002          .bits   2,16                    ; _MOTOR_DATA[3]._motor_numPolePairs @ 1072
      58 00000047 72AF          .xfloat $strtod("0x1.00e55ep+4")                ; _MOTOR_DATA[3]._motor_Rr @ 1088
         00000048 4180 
      59 00000049 C528          .xfloat $strtod("0x1.058a5p+3")         ; _MOTOR_DATA[3]._motor_Rs @ 1120
         0000004a 4102 
      60 0000004b 01ED          .xfloat $strtod("0x1.a603dap-6")                ; _MOTOR_DATA[3]._motor_Ls_d @ 1152
         0000004c 3CD3 
      61 0000004d 01ED          .xfloat $strtod("0x1.a603dap-6")                ; _MOTOR_DATA[3]._motor_Ls_q @ 1184
         0000004e 3CD3 
      62 0000004f 5048          .xfloat $strtod("0x1.90a09p+1")         ; _MOTOR_DATA[3]._motor_ratedFlux @ 1216
         00000050 4048 
      63 00000051 F3E4          .xfloat $strtod("0x1.03e7c8p+0")                ; _MOTOR_DATA[3]._IdRated @ 1248
         00000052 3F81 
      64 00000053 999A          .xfloat $strtod("0x1.333334p-2")                ; _MOTOR_DATA[3]._maxCurrent_resEst @ 1280
         00000054 3E99 
      65 00000055 0000          .xfloat $strtod("0x0p+0")               ; _MOTOR_DATA[3]._maxCurrent_indEst @ 1312
         00000056 0000 
      66 00000057 999A          .xfloat $strtod("0x1.333334p+0")                ; _MOTOR_DATA[3]._maxCurrent @ 1344
         00000058 3F99 
      67 00000059 0000          .xfloat $strtod("0x1.4p+2")             ; _MOTOR_DATA[3]._fluxEstFreq_Hz @ 1376
         0000005a 40A0 
      68        0058  $C$IR_1:        .set    88
      69              
TMS320C2000 Assembler PC v6.2.5 Sat Sep 16 14:47:35 2017

Tools Copyright (c) 1996-2014 Texas Instruments Incorporated
C:\Users\wmj\AppData\Local\Temp\1316010                              PAGE    3

      70              
      71              $C$DW$1 .dwtag  DW_TAG_subprogram, DW_AT_name("CTRL_setGains")
      72                      .dwattr $C$DW$1, DW_AT_TI_symbol_name("_CTRL_setGains")
      73                      .dwattr $C$DW$1, DW_AT_declaration
      74                      .dwattr $C$DW$1, DW_AT_external
      75              $C$DW$2 .dwtag  DW_TAG_formal_parameter
      76                      .dwattr $C$DW$2, DW_AT_type(*$C$DW$T$88)
      77              $C$DW$3 .dwtag  DW_TAG_formal_parameter
      78                      .dwattr $C$DW$3, DW_AT_type(*$C$DW$T$85)
      79              $C$DW$4 .dwtag  DW_TAG_formal_parameter
      80                      .dwattr $C$DW$4, DW_AT_type(*$C$DW$T$98)
      81              $C$DW$5 .dwtag  DW_TAG_formal_parameter
      82                      .dwattr $C$DW$5, DW_AT_type(*$C$DW$T$98)
      83              $C$DW$6 .dwtag  DW_TAG_formal_parameter
      84                      .dwattr $C$DW$6, DW_AT_type(*$C$DW$T$98)
      85                      .dwendtag $C$DW$1
      86              
      87              
      88              $C$DW$7 .dwtag  DW_TAG_subprogram, DW_AT_name("EST_setLs_q_pu")
      89                      .dwattr $C$DW$7, DW_AT_TI_symbol_name("_EST_setLs_q_pu")
      90                      .dwattr $C$DW$7, DW_AT_declaration
      91                      .dwattr $C$DW$7, DW_AT_external
      92              $C$DW$8 .dwtag  DW_TAG_formal_parameter
      93                      .dwattr $C$DW$8, DW_AT_type(*$C$DW$T$33)
      94              $C$DW$9 .dwtag  DW_TAG_formal_parameter
      95                      .dwattr $C$DW$9, DW_AT_type(*$C$DW$T$98)
      96                      .dwendtag $C$DW$7
      97              
      98              
      99              $C$DW$10        .dwtag  DW_TAG_subprogram, DW_AT_name("EST_setLs_d_pu")
     100                      .dwattr $C$DW$10, DW_AT_TI_symbol_name("_EST_setLs_d_pu")
     101                      .dwattr $C$DW$10, DW_AT_declaration
     102                      .dwattr $C$DW$10, DW_AT_external
     103              $C$DW$11        .dwtag  DW_TAG_formal_parameter
     104                      .dwattr $C$DW$11, DW_AT_type(*$C$DW$T$33)
     105              $C$DW$12        .dwtag  DW_TAG_formal_parameter
     106                      .dwattr $C$DW$12, DW_AT_type(*$C$DW$T$98)
     107                      .dwendtag $C$DW$10
     108              
     109              
     110              $C$DW$13        .dwtag  DW_TAG_subprogram, DW_AT_name("EST_setLs_qFmt")
     111                      .dwattr $C$DW$13, DW_AT_TI_symbol_name("_EST_setLs_qFmt")
     112                      .dwattr $C$DW$13, DW_AT_declaration
     113                      .dwattr $C$DW$13, DW_AT_external
     114              $C$DW$14        .dwtag  DW_TAG_formal_parameter
     115                      .dwattr $C$DW$14, DW_AT_type(*$C$DW$T$33)
     116              $C$DW$15        .dwtag  DW_TAG_formal_parameter
     117                      .dwattr $C$DW$15, DW_AT_type(*$C$DW$T$101)
     118                      .dwendtag $C$DW$13
     119              
     120              
     121              $C$DW$16        .dwtag  DW_TAG_subprogram, DW_AT_name("__IQmpy")
     122                      .dwattr $C$DW$16, DW_AT_TI_symbol_name("___IQmpy")
     123                      .dwattr $C$DW$16, DW_AT_type(*$C$DW$T$12)
     124                      .dwattr $C$DW$16, DW_AT_declaration
TMS320C2000 Assembler PC v6.2.5 Sat Sep 16 14:47:35 2017

Tools Copyright (c) 1996-2014 Texas Instruments Incorporated
C:\Users\wmj\AppData\Local\Temp\1316010                              PAGE    4

     125                      .dwattr $C$DW$16, DW_AT_external
     126              $C$DW$17        .dwtag  DW_TAG_formal_parameter
     127                      .dwattr $C$DW$17, DW_AT_type(*$C$DW$T$12)
     128              $C$DW$18        .dwtag  DW_TAG_formal_parameter
     129                      .dwattr $C$DW$18, DW_AT_type(*$C$DW$T$12)
     130              $C$DW$19        .dwtag  DW_TAG_formal_parameter
     131                      .dwattr $C$DW$19, DW_AT_type(*$C$DW$T$10)
     132                      .dwendtag $C$DW$16
     133              
     134              
     135              $C$DW$20        .dwtag  DW_TAG_subprogram, DW_AT_name("modf")
     136                      .dwattr $C$DW$20, DW_AT_TI_symbol_name("_modf")
     137                      .dwattr $C$DW$20, DW_AT_type(*$C$DW$T$17)
     138                      .dwattr $C$DW$20, DW_AT_declaration
     139                      .dwattr $C$DW$20, DW_AT_external
     140              $C$DW$21        .dwtag  DW_TAG_formal_parameter
     141                      .dwattr $C$DW$21, DW_AT_type(*$C$DW$T$17)
     142              $C$DW$22        .dwtag  DW_TAG_formal_parameter
     143                      .dwattr $C$DW$22, DW_AT_type(*$C$DW$T$131)
     144                      .dwendtag $C$DW$20
     145              
     146              
     147              $C$DW$23        .dwtag  DW_TAG_subprogram, DW_AT_name("log")
     148                      .dwattr $C$DW$23, DW_AT_TI_symbol_name("_log")
     149                      .dwattr $C$DW$23, DW_AT_type(*$C$DW$T$17)
     150                      .dwattr $C$DW$23, DW_AT_declaration
     151                      .dwattr $C$DW$23, DW_AT_external
     152              $C$DW$24        .dwtag  DW_TAG_formal_parameter
     153                      .dwattr $C$DW$24, DW_AT_type(*$C$DW$T$17)
     154                      .dwendtag $C$DW$23
     155              
     156              
     157              $C$DW$25        .dwtag  DW_TAG_subprogram, DW_AT_name("EST_getLs_q_H")
     158                      .dwattr $C$DW$25, DW_AT_TI_symbol_name("_EST_getLs_q_H")
     159                      .dwattr $C$DW$25, DW_AT_type(*$C$DW$T$54)
     160                      .dwattr $C$DW$25, DW_AT_declaration
     161                      .dwattr $C$DW$25, DW_AT_external
     162              $C$DW$26        .dwtag  DW_TAG_formal_parameter
     163                      .dwattr $C$DW$26, DW_AT_type(*$C$DW$T$33)
     164                      .dwendtag $C$DW$25
     165              
     166              
     167              $C$DW$27        .dwtag  DW_TAG_subprogram, DW_AT_name("EST_getLs_q_pu")
     168                      .dwattr $C$DW$27, DW_AT_TI_symbol_name("_EST_getLs_q_pu")
     169                      .dwattr $C$DW$27, DW_AT_type(*$C$DW$T$20)
     170                      .dwattr $C$DW$27, DW_AT_declaration
     171                      .dwattr $C$DW$27, DW_AT_external
     172              $C$DW$28        .dwtag  DW_TAG_formal_parameter
     173                      .dwattr $C$DW$28, DW_AT_type(*$C$DW$T$33)
     174                      .dwendtag $C$DW$27
     175              
     176              
     177              $C$DW$29        .dwtag  DW_TAG_subprogram, DW_AT_name("EST_getLs_coarse_max_pu")
     178                      .dwattr $C$DW$29, DW_AT_TI_symbol_name("_EST_getLs_coarse_max_pu")
     179                      .dwattr $C$DW$29, DW_AT_type(*$C$DW$T$20)
TMS320C2000 Assembler PC v6.2.5 Sat Sep 16 14:47:35 2017

Tools Copyright (c) 1996-2014 Texas Instruments Incorporated
C:\Users\wmj\AppData\Local\Temp\1316010                              PAGE    5

     180                      .dwattr $C$DW$29, DW_AT_declaration
     181                      .dwattr $C$DW$29, DW_AT_external
     182              $C$DW$30        .dwtag  DW_TAG_formal_parameter
     183                      .dwattr $C$DW$30, DW_AT_type(*$C$DW$T$33)
     184                      .dwendtag $C$DW$29
     185              
     186              
     187              $C$DW$31        .dwtag  DW_TAG_subprogram, DW_AT_name("EST_getRs_Ohm")
     188                      .dwattr $C$DW$31, DW_AT_TI_symbol_name("_EST_getRs_Ohm")
     189                      .dwattr $C$DW$31, DW_AT_type(*$C$DW$T$54)
     190                      .dwattr $C$DW$31, DW_AT_declaration
     191                      .dwattr $C$DW$31, DW_AT_external
     192              $C$DW$32        .dwtag  DW_TAG_formal_parameter
     193                      .dwattr $C$DW$32, DW_AT_type(*$C$DW$T$33)
     194                      .dwendtag $C$DW$31
     195              
     196              
     197              $C$DW$33        .dwtag  DW_TAG_subprogram, DW_AT_name("pow")
     198                      .dwattr $C$DW$33, DW_AT_TI_symbol_name("_pow")
     199                      .dwattr $C$DW$33, DW_AT_type(*$C$DW$T$17)
     200                      .dwattr $C$DW$33, DW_AT_declaration
     201                      .dwattr $C$DW$33, DW_AT_external
     202              $C$DW$34        .dwtag  DW_TAG_formal_parameter
     203                      .dwattr $C$DW$34, DW_AT_type(*$C$DW$T$17)
     204              $C$DW$35        .dwtag  DW_TAG_formal_parameter
     205                      .dwattr $C$DW$35, DW_AT_type(*$C$DW$T$17)
     206                      .dwendtag $C$DW$33
     207              
     208              
     209              $C$DW$36        .dwtag  DW_TAG_subprogram, DW_AT_name("_IQ30toF")
     210                      .dwattr $C$DW$36, DW_AT_TI_symbol_name("__IQ30toF")
     211                      .dwattr $C$DW$36, DW_AT_type(*$C$DW$T$16)
     212                      .dwattr $C$DW$36, DW_AT_declaration
     213                      .dwattr $C$DW$36, DW_AT_external
     214              $C$DW$37        .dwtag  DW_TAG_formal_parameter
     215                      .dwattr $C$DW$37, DW_AT_type(*$C$DW$T$12)
     216                      .dwendtag $C$DW$36
     217              
     218              
     219              $C$DW$38        .dwtag  DW_TAG_subprogram, DW_AT_name("EST_getLs_d_H")
     220                      .dwattr $C$DW$38, DW_AT_TI_symbol_name("_EST_getLs_d_H")
     221                      .dwattr $C$DW$38, DW_AT_type(*$C$DW$T$54)
     222                      .dwattr $C$DW$38, DW_AT_declaration
     223                      .dwattr $C$DW$38, DW_AT_external
     224              $C$DW$39        .dwtag  DW_TAG_formal_parameter
     225                      .dwattr $C$DW$39, DW_AT_type(*$C$DW$T$33)
     226                      .dwendtag $C$DW$38
     227              
     228              
     229              $C$DW$40        .dwtag  DW_TAG_subprogram, DW_AT_name("EST_getFlux_pu")
     230                      .dwattr $C$DW$40, DW_AT_TI_symbol_name("_EST_getFlux_pu")
     231                      .dwattr $C$DW$40, DW_AT_type(*$C$DW$T$20)
     232                      .dwattr $C$DW$40, DW_AT_declaration
     233                      .dwattr $C$DW$40, DW_AT_external
     234              $C$DW$41        .dwtag  DW_TAG_formal_parameter
TMS320C2000 Assembler PC v6.2.5 Sat Sep 16 14:47:35 2017

Tools Copyright (c) 1996-2014 Texas Instruments Incorporated
C:\Users\wmj\AppData\Local\Temp\1316010                              PAGE    6

     235                      .dwattr $C$DW$41, DW_AT_type(*$C$DW$T$33)
     236                      .dwendtag $C$DW$40
     237              
     238              
     239              $C$DW$42        .dwtag  DW_TAG_subprogram, DW_AT_name("EST_getLs_d_pu")
     240                      .dwattr $C$DW$42, DW_AT_TI_symbol_name("_EST_getLs_d_pu")
     241                      .dwattr $C$DW$42, DW_AT_type(*$C$DW$T$20)
     242                      .dwattr $C$DW$42, DW_AT_declaration
     243                      .dwattr $C$DW$42, DW_AT_external
     244              $C$DW$43        .dwtag  DW_TAG_formal_parameter
     245                      .dwattr $C$DW$43, DW_AT_type(*$C$DW$T$33)
     246                      .dwendtag $C$DW$42
     247              
     248                      .global _MOTOR_DATA
     249 00000000       _MOTOR_DATA:    .usect  ".ebss",88,1,1
     250              $C$DW$44        .dwtag  DW_TAG_variable, DW_AT_name("MOTOR_DATA")
     251                      .dwattr $C$DW$44, DW_AT_TI_symbol_name("_MOTOR_DATA")
     252                      .dwattr $C$DW$44, DW_AT_location[DW_OP_addr _MOTOR_DATA]
     253                      .dwattr $C$DW$44, DW_AT_type(*$C$DW$T$95)
     254                      .dwattr $C$DW$44, DW_AT_external
     255              ;       C:\ti\ccsv6\tools\compiler\c2000_6.2.5\bin\opt2000.exe C:\\Users\\wmj\\AppData\\Local\\Temp\\131602 C
     256              ;       C:\ti\ccsv6\tools\compiler\c2000_6.2.5\bin\ac2000.exe -@C:\\Users\\wmj\\AppData\\Local\\Temp\\1316016
     257 00000000               .sect   ".text"
     258                      .clink
     259                      .global _USER_softwareUpdate1p6
     260              
     261              $C$DW$45        .dwtag  DW_TAG_subprogram, DW_AT_name("USER_softwareUpdate1p6")
     262                      .dwattr $C$DW$45, DW_AT_low_pc(_USER_softwareUpdate1p6)
     263                      .dwattr $C$DW$45, DW_AT_high_pc(0x00)
     264                      .dwattr $C$DW$45, DW_AT_TI_symbol_name("_USER_softwareUpdate1p6")
     265                      .dwattr $C$DW$45, DW_AT_external
     266                      .dwattr $C$DW$45, DW_AT_TI_begin_file("D:/BM1000/sw/modules/user/src/32b/user.c")
     267                      .dwattr $C$DW$45, DW_AT_TI_begin_line(0x37d)
     268                      .dwattr $C$DW$45, DW_AT_TI_begin_column(0x06)
     269                      .dwattr $C$DW$45, DW_AT_TI_max_frame_size(-22)
     270                      .dwpsn  file "D:/BM1000/sw/modules/user/src/32b/user.c",line 894,column 1,is_stmt,address _USER_softw
     271              
     272                      .dwfde $C$DW$CIE, _USER_softwareUpdate1p6
     273              $C$DW$46        .dwtag  DW_TAG_formal_parameter, DW_AT_name("handle")
     274                      .dwattr $C$DW$46, DW_AT_TI_symbol_name("_handle")
     275                      .dwattr $C$DW$46, DW_AT_type(*$C$DW$T$88)
     276                      .dwattr $C$DW$46, DW_AT_location[DW_OP_reg12]
     277              
     278              ;***************************************************************
     279              ;* FNAME: _USER_softwareUpdate1p6       FR SIZE:  20           *
     280              ;*                                                             *
     281              ;* FUNCTION ENVIRONMENT                                        *
     282              ;*                                                             *
     283              ;* FUNCTION PROPERTIES                                         *
     284              ;*                            2 Parameter, 11 Auto,  6 SOE     *
     285              ;***************************************************************
     286              
     287              _USER_softwareUpdate1p6:
     288              ;* AL    assigned to _x
     289              $C$DW$47        .dwtag  DW_TAG_variable, DW_AT_name("x")
TMS320C2000 Assembler PC v6.2.5 Sat Sep 16 14:47:35 2017

Tools Copyright (c) 1996-2014 Texas Instruments Incorporated
C:\Users\wmj\AppData\Local\Temp\1316010                              PAGE    7

     290                      .dwattr $C$DW$47, DW_AT_TI_symbol_name("_x")
     291                      .dwattr $C$DW$47, DW_AT_type(*$C$DW$T$17)
     292                      .dwattr $C$DW$47, DW_AT_location[DW_OP_reg0]
     293              $C$DW$48        .dwtag  DW_TAG_variable, DW_AT_name("y")
     294                      .dwattr $C$DW$48, DW_AT_TI_symbol_name("_y")
     295                      .dwattr $C$DW$48, DW_AT_type(*$C$DW$T$17)
     296                      .dwattr $C$DW$48, DW_AT_location[DW_OP_breg20 -4]
     297              ;* AR2   assigned to _Ls_q_pu
     298              $C$DW$49        .dwtag  DW_TAG_variable, DW_AT_name("Ls_q_pu")
     299                      .dwattr $C$DW$49, DW_AT_TI_symbol_name("_Ls_q_pu")
     300                      .dwattr $C$DW$49, DW_AT_type(*$C$DW$T$20)
     301                      .dwattr $C$DW$49, DW_AT_location[DW_OP_reg8]
     302              ;* AR1   assigned to _L_max
     303              $C$DW$50        .dwtag  DW_TAG_variable, DW_AT_name("L_max")
     304                      .dwattr $C$DW$50, DW_AT_TI_symbol_name("_L_max")
     305                      .dwattr $C$DW$50, DW_AT_type(*$C$DW$T$54)
     306                      .dwattr $C$DW$50, DW_AT_location[DW_OP_reg6]
     307              ;* AR6   assigned to _Ls_coarse_max
     308              $C$DW$51        .dwtag  DW_TAG_variable, DW_AT_name("Ls_coarse_max")
     309                      .dwattr $C$DW$51, DW_AT_TI_symbol_name("_Ls_coarse_max")
     310                      .dwattr $C$DW$51, DW_AT_type(*$C$DW$T$54)
     311                      .dwattr $C$DW$51, DW_AT_location[DW_OP_reg16]
     312              ;* AR3   assigned to _handle
     313              $C$DW$52        .dwtag  DW_TAG_variable, DW_AT_name("handle")
     314                      .dwattr $C$DW$52, DW_AT_TI_symbol_name("_handle")
     315                      .dwattr $C$DW$52, DW_AT_type(*$C$DW$T$89)
     316                      .dwattr $C$DW$52, DW_AT_location[DW_OP_reg10]
     317              ;* AL    assigned to $O$R1
     318                      .dwcfi  cfa_offset, -2
     319                      .dwcfi  save_reg_to_mem, 26, 0
     320                      .dwcfi  save_reg_to_reg, 78, 26
     321 00000000 B2BD          MOVL      *SP++,XAR1            ; [CPU_] 
     322                      .dwcfi  save_reg_to_mem, 7, 2
     323                      .dwcfi  cfa_offset, -4
     324 00000001 AABD          MOVL      *SP++,XAR2            ; [CPU_] 
     325                      .dwcfi  save_reg_to_mem, 9, 4
     326                      .dwcfi  cfa_offset, -6
     327 00000002 A2BD          MOVL      *SP++,XAR3            ; [CPU_] 
     328                      .dwcfi  save_reg_to_mem, 11, 6
     329                      .dwcfi  cfa_offset, -8
     330 00000003 FE0E          ADDB      SP,#14                ; [CPU_U] 
     331                      .dwcfi  cfa_offset, -22
     332                      .dwpsn  file "D:/BM1000/sw/modules/user/src/32b/user.c",line 897,column 25,is_stmt
     333 00000004 D018          MOVB      XAR0,#24              ; [CPU_] |897| 
     334                      .dwpsn  file "D:/BM1000/sw/modules/user/src/32b/user.c",line 894,column 1,is_stmt
     335 00000005 82A4          MOVL      XAR3,XAR4             ; [CPU_] |894| 
     336                      .dwpsn  file "D:/BM1000/sw/modules/user/src/32b/user.c",line 897,column 25,is_stmt
     337 00000006 8A93          MOVL      XAR4,*+XAR3[AR0]      ; [CPU_] |897| 
     338              $C$DW$53        .dwtag  DW_TAG_TI_branch
     339                      .dwattr $C$DW$53, DW_AT_low_pc(0x00)
     340                      .dwattr $C$DW$53, DW_AT_name("_EST_getLs_coarse_max_pu")
     341                      .dwattr $C$DW$53, DW_AT_TI_call
     342 00000007 7640!         LCR       #_EST_getLs_coarse_max_pu ; [CPU_] |897| 
         00000008 0000 
     343                      ; call occurs [#_EST_getLs_coarse_max_pu] ; [] |897| 
TMS320C2000 Assembler PC v6.2.5 Sat Sep 16 14:47:35 2017

Tools Copyright (c) 1996-2014 Texas Instruments Incorporated
C:\Users\wmj\AppData\Local\Temp\1316010                              PAGE    8

     344              $C$DW$54        .dwtag  DW_TAG_TI_branch
     345                      .dwattr $C$DW$54, DW_AT_low_pc(0x00)
     346                      .dwattr $C$DW$54, DW_AT_name("__IQ30toF")
     347                      .dwattr $C$DW$54, DW_AT_TI_call
     348 00000009 7640!         LCR       #__IQ30toF            ; [CPU_] |897| 
         0000000a 0000 
     349                      ; call occurs [#__IQ30toF] ; [] |897| 
     350 0000000b 1EA6          MOVL      XAR6,ACC              ; [CPU_] |897| 
     351                      .dwpsn  file "D:/BM1000/sw/modules/user/src/32b/user.c",line 898,column 23,is_stmt
     352 0000000c 28A9          MOV       AL,#33142             ; [CPU_] |898| 
         0000000d 8176 
     353 0000000e 28A8          MOV       AH,#15517             ; [CPU_] |898| 
         0000000f 3C9D 
     354 00000010 1E42          MOVL      *-SP[2],ACC           ; [CPU_] |898| 
     355 00000011 06A6          MOVL      ACC,XAR6              ; [CPU_] |898| 
     356              $C$DW$55        .dwtag  DW_TAG_TI_branch
     357                      .dwattr $C$DW$55, DW_AT_low_pc(0x00)
     358                      .dwattr $C$DW$55, DW_AT_name("FS$$MPY")
     359                      .dwattr $C$DW$55, DW_AT_TI_call
     360 00000012 7640!         LCR       #FS$$MPY              ; [CPU_] |898| 
         00000013 0000 
     361                      ; call occurs [#FS$$MPY] ; [] |898| 
     362 00000014 D088          MOVB      XAR0,#136             ; [CPU_] |898| 
     363 00000015 1E42          MOVL      *-SP[2],ACC           ; [CPU_] |898| 
     364 00000016 0693          MOVL      ACC,*+XAR3[AR0]       ; [CPU_] |898| 
     365              $C$DW$56        .dwtag  DW_TAG_TI_branch
     366                      .dwattr $C$DW$56, DW_AT_low_pc(0x00)
     367                      .dwattr $C$DW$56, DW_AT_name("FS$$DIV")
     368                      .dwattr $C$DW$56, DW_AT_TI_call
     369 00000017 7640!         LCR       #FS$$DIV              ; [CPU_] |898| 
         00000018 0000 
     370                      ; call occurs [#FS$$DIV] ; [] |898| 
     371              $C$DW$57        .dwtag  DW_TAG_TI_branch
     372                      .dwattr $C$DW$57, DW_AT_low_pc(0x00)
     373                      .dwattr $C$DW$57, DW_AT_name("_log")
     374                      .dwattr $C$DW$57, DW_AT_TI_call
     375 00000019 7640!         LCR       #_log                 ; [CPU_] |898| 
         0000001a 0000 
     376                      ; call occurs [#_log] ; [] |898| 
     377 0000001b 8BA9          MOVL      XAR1,ACC              ; [CPU_] |898| 
     378 0000001c 9A00          MOV       AL,#0                 ; [CPU_] |898| 
     379 0000001d 28A8          MOV       AH,#16384             ; [CPU_] |898| 
         0000001e 4000 
     380              $C$DW$58        .dwtag  DW_TAG_TI_branch
     381                      .dwattr $C$DW$58, DW_AT_low_pc(0x00)
     382                      .dwattr $C$DW$58, DW_AT_name("_log")
     383                      .dwattr $C$DW$58, DW_AT_TI_call
     384 0000001f 7640!         LCR       #_log                 ; [CPU_] |898| 
         00000020 0000 
     385                      ; call occurs [#_log] ; [] |898| 
     386 00000021 1E42          MOVL      *-SP[2],ACC           ; [CPU_] |898| 
     387 00000022 B2A9          MOVL      ACC,XAR1              ; [CPU_] |898| 
     388              $C$DW$59        .dwtag  DW_TAG_TI_branch
     389                      .dwattr $C$DW$59, DW_AT_low_pc(0x00)
     390                      .dwattr $C$DW$59, DW_AT_name("FS$$DIV")
TMS320C2000 Assembler PC v6.2.5 Sat Sep 16 14:47:35 2017

Tools Copyright (c) 1996-2014 Texas Instruments Incorporated
C:\Users\wmj\AppData\Local\Temp\1316010                              PAGE    9

     391                      .dwattr $C$DW$59, DW_AT_TI_call
     392 00000023 7640!         LCR       #FS$$DIV              ; [CPU_] |898| 
         00000024 0000 
     393                      ; call occurs [#FS$$DIV] ; [] |898| 
     394                      .dwpsn  file "C:/ti/ccsv6/tools/compiler/c2000_6.2.5/include/math.h",line 110,column 45,is_stmt
     395 00000025 5CAD          MOVZ      AR4,SP                ; [CPU_U] |110| 
     396 00000026 DC84          SUBB      XAR4,#4               ; [CPU_U] |110| 
     397              $C$DW$60        .dwtag  DW_TAG_TI_branch
     398                      .dwattr $C$DW$60, DW_AT_low_pc(0x00)
     399                      .dwattr $C$DW$60, DW_AT_name("_modf")
     400                      .dwattr $C$DW$60, DW_AT_TI_call
     401 00000027 7640!         LCR       #_modf                ; [CPU_] |110| 
         00000028 0000 
     402                      ; call occurs [#_modf] ; [] |110| 
     403 00000029 1EA6          MOVL      XAR6,ACC              ; [CPU_] |110| 
     404 0000002a 9A00          MOV       AL,#0                 ; [CPU_] |110| 
     405 0000002b 9B00          MOV       AH,#0                 ; [CPU_] |110| 
     406 0000002c 1E42          MOVL      *-SP[2],ACC           ; [CPU_] |110| 
     407 0000002d 06A6          MOVL      ACC,XAR6              ; [CPU_] |110| 
     408              $C$DW$61        .dwtag  DW_TAG_TI_branch
     409                      .dwattr $C$DW$61, DW_AT_low_pc(0x00)
     410                      .dwattr $C$DW$61, DW_AT_name("FS$$CMP")
     411                      .dwattr $C$DW$61, DW_AT_TI_call
     412 0000002e 7640!         LCR       #FS$$CMP              ; [CPU_] |110| 
         0000002f 0000 
     413                      ; call occurs [#FS$$CMP] ; [] |110| 
     414 00000030 5200          CMPB      AL,#0                 ; [CPU_] |110| 
     415 00000031 6203          B         $C$L1,GT              ; [CPU_] |110| 
     416                      ; branchcc occurs ; [] |110| 
     417 00000032 0644          MOVL      ACC,*-SP[4]           ; [CPU_] |110| 
     418 00000033 6F07          B         $C$L2,UNC             ; [CPU_] |110| 
     419                      ; branch occurs ; [] |110| 
     420 00000034       $C$L1:    
     421 00000034 FF2F          MOV       ACC,#32512 << 15      ; [CPU_] |110| 
         00000035 7F00 
     422 00000036 1E42          MOVL      *-SP[2],ACC           ; [CPU_] |110| 
     423 00000037 0644          MOVL      ACC,*-SP[4]           ; [CPU_] |110| 
     424              $C$DW$62        .dwtag  DW_TAG_TI_branch
     425                      .dwattr $C$DW$62, DW_AT_low_pc(0x00)
     426                      .dwattr $C$DW$62, DW_AT_name("FS$$ADD")
     427                      .dwattr $C$DW$62, DW_AT_TI_call
     428 00000038 7640!         LCR       #FS$$ADD              ; [CPU_] |110| 
         00000039 0000 
     429                      ; call occurs [#FS$$ADD] ; [] |110| 
     430 0000003a       $C$L2:    
     431                      .dwpsn  file "D:/BM1000/sw/modules/user/src/32b/user.c",line 900,column 17,is_stmt
     432              $C$DW$63        .dwtag  DW_TAG_TI_branch
     433                      .dwattr $C$DW$63, DW_AT_low_pc(0x00)
     434                      .dwattr $C$DW$63, DW_AT_name("FS$$TOI")
     435                      .dwattr $C$DW$63, DW_AT_TI_call
     436 0000003a 7640!         LCR       #FS$$TOI              ; [CPU_] |900| 
         0000003b 0000 
     437                      ; call occurs [#FS$$TOI] ; [] |900| 
     438 0000003c 964D          MOV       *-SP[13],AL           ; [CPU_] |900| 
     439              $C$DW$64        .dwtag  DW_TAG_TI_branch
TMS320C2000 Assembler PC v6.2.5 Sat Sep 16 14:47:35 2017

Tools Copyright (c) 1996-2014 Texas Instruments Incorporated
C:\Users\wmj\AppData\Local\Temp\1316010                              PAGE   10

     440                      .dwattr $C$DW$64, DW_AT_low_pc(0x00)
     441                      .dwattr $C$DW$64, DW_AT_name("I$$TOFS")
     442                      .dwattr $C$DW$64, DW_AT_TI_call
     443 0000003d 7640!         LCR       #I$$TOFS              ; [CPU_] |900| 
         0000003e 0000 
     444                      ; call occurs [#I$$TOFS] ; [] |900| 
     445 0000003f 1E42          MOVL      *-SP[2],ACC           ; [CPU_] |900| 
     446 00000040 9A00          MOV       AL,#0                 ; [CPU_] |900| 
     447 00000041 28A8          MOV       AH,#16384             ; [CPU_] |900| 
         00000042 4000 
     448              $C$DW$65        .dwtag  DW_TAG_TI_branch
     449                      .dwattr $C$DW$65, DW_AT_low_pc(0x00)
     450                      .dwattr $C$DW$65, DW_AT_name("_pow")
     451                      .dwattr $C$DW$65, DW_AT_TI_call
     452 00000043 7640!         LCR       #_pow                 ; [CPU_] |900| 
         00000044 0000 
     453                      ; call occurs [#_pow] ; [] |900| 
     454 00000045 1EA6          MOVL      XAR6,ACC              ; [CPU_] |900| 
     455 00000046 28A9          MOV       AL,#33142             ; [CPU_] |900| 
         00000047 8176 
     456 00000048 28A8          MOV       AH,#15517             ; [CPU_] |900| 
         00000049 3C9D 
     457 0000004a 1E42          MOVL      *-SP[2],ACC           ; [CPU_] |900| 
     458 0000004b 06A6          MOVL      ACC,XAR6              ; [CPU_] |900| 
     459              $C$DW$66        .dwtag  DW_TAG_TI_branch
     460                      .dwattr $C$DW$66, DW_AT_low_pc(0x00)
     461                      .dwattr $C$DW$66, DW_AT_name("FS$$MPY")
     462                      .dwattr $C$DW$66, DW_AT_TI_call
     463 0000004c 7640!         LCR       #FS$$MPY              ; [CPU_] |900| 
         0000004d 0000 
     464                      ; call occurs [#FS$$MPY] ; [] |900| 
     465                      .dwpsn  file "D:/BM1000/sw/modules/user/src/32b/user.c",line 902,column 15,is_stmt
     466 0000004e D08A          MOVB      XAR0,#138             ; [CPU_] |902| 
     467                      .dwpsn  file "D:/BM1000/sw/modules/user/src/32b/user.c",line 900,column 17,is_stmt
     468 0000004f 8BA9          MOVL      XAR1,ACC              ; [CPU_] |900| 
     469                      .dwpsn  file "D:/BM1000/sw/modules/user/src/32b/user.c",line 902,column 15,is_stmt
     470 00000050 1E42          MOVL      *-SP[2],ACC           ; [CPU_] |902| 
     471 00000051 0693          MOVL      ACC,*+XAR3[AR0]       ; [CPU_] |902| 
     472              $C$DW$67        .dwtag  DW_TAG_TI_branch
     473                      .dwattr $C$DW$67, DW_AT_low_pc(0x00)
     474                      .dwattr $C$DW$67, DW_AT_name("FS$$DIV")
     475                      .dwattr $C$DW$67, DW_AT_TI_call
     476 00000052 7640!         LCR       #FS$$DIV              ; [CPU_] |902| 
         00000053 0000 
     477                      ; call occurs [#FS$$DIV] ; [] |902| 
     478 00000054 88AD          MOVZ      AR6,SP                ; [CPU_U] |902| 
     479 00000055 DE8C          SUBB      XAR6,#12              ; [CPU_U] |902| 
     480              $C$DW$68        .dwtag  DW_TAG_TI_branch
     481                      .dwattr $C$DW$68, DW_AT_low_pc(0x00)
     482                      .dwattr $C$DW$68, DW_AT_name("FS$$TOFD")
     483                      .dwattr $C$DW$68, DW_AT_TI_call
     484 00000056 7640!         LCR       #FS$$TOFD             ; [CPU_] |902| 
         00000057 0000 
     485                      ; call occurs [#FS$$TOFD] ; [] |902| 
     486 00000058 5CAD          MOVZ      AR4,SP                ; [CPU_U] |902| 
TMS320C2000 Assembler PC v6.2.5 Sat Sep 16 14:47:35 2017

Tools Copyright (c) 1996-2014 Texas Instruments Incorporated
C:\Users\wmj\AppData\Local\Temp\1316010                              PAGE   11

     487 00000059 88AD          MOVZ      AR6,SP                ; [CPU_U] |902| 
     488 0000005a 8F40+         MOVL      XAR5,#$C$FL1          ; [CPU_U] |902| 
         0000005b 0000 
     489 0000005c DC8C          SUBB      XAR4,#12              ; [CPU_U] |902| 
     490 0000005d DE88          SUBB      XAR6,#8               ; [CPU_U] |902| 
     491              $C$DW$69        .dwtag  DW_TAG_TI_branch
     492                      .dwattr $C$DW$69, DW_AT_low_pc(0x00)
     493                      .dwattr $C$DW$69, DW_AT_name("FD$$MPY")
     494                      .dwattr $C$DW$69, DW_AT_TI_call
     495 0000005e 7640!         LCR       #FD$$MPY              ; [CPU_] |902| 
         0000005f 0000 
     496                      ; call occurs [#FD$$MPY] ; [] |902| 
     497 00000060 5CAD          MOVZ      AR4,SP                ; [CPU_U] |902| 
     498 00000061 DC88          SUBB      XAR4,#8               ; [CPU_U] |902| 
     499              $C$DW$70        .dwtag  DW_TAG_TI_branch
     500                      .dwattr $C$DW$70, DW_AT_low_pc(0x00)
     501                      .dwattr $C$DW$70, DW_AT_name("FD$$TOL")
     502                      .dwattr $C$DW$70, DW_AT_TI_call
     503 00000062 7640!         LCR       #FD$$TOL              ; [CPU_] |902| 
         00000063 0000 
     504                      ; call occurs [#FD$$TOL] ; [] |902| 
     505                      .dwpsn  file "D:/BM1000/sw/modules/user/src/32b/user.c",line 906,column 3,is_stmt
     506 00000064 D088          MOVB      XAR0,#136             ; [CPU_] |906| 
     507                      .dwpsn  file "D:/BM1000/sw/modules/user/src/32b/user.c",line 902,column 15,is_stmt
     508 00000065 86A9          MOVL      XAR2,ACC              ; [CPU_] |902| 
     509                      .dwpsn  file "D:/BM1000/sw/modules/user/src/32b/user.c",line 906,column 3,is_stmt
     510 00000066 B242          MOVL      *-SP[2],XAR1          ; [CPU_] |906| 
     511 00000067 0693          MOVL      ACC,*+XAR3[AR0]       ; [CPU_] |906| 
     512              $C$DW$71        .dwtag  DW_TAG_TI_branch
     513                      .dwattr $C$DW$71, DW_AT_low_pc(0x00)
     514                      .dwattr $C$DW$71, DW_AT_name("FS$$DIV")
     515                      .dwattr $C$DW$71, DW_AT_TI_call
     516 00000068 7640!         LCR       #FS$$DIV              ; [CPU_] |906| 
         00000069 0000 
     517                      ; call occurs [#FS$$DIV] ; [] |906| 
     518 0000006a 88AD          MOVZ      AR6,SP                ; [CPU_U] |906| 
     519 0000006b DE8C          SUBB      XAR6,#12              ; [CPU_U] |906| 
     520              $C$DW$72        .dwtag  DW_TAG_TI_branch
     521                      .dwattr $C$DW$72, DW_AT_low_pc(0x00)
     522                      .dwattr $C$DW$72, DW_AT_name("FS$$TOFD")
     523                      .dwattr $C$DW$72, DW_AT_TI_call
     524 0000006c 7640!         LCR       #FS$$TOFD             ; [CPU_] |906| 
         0000006d 0000 
     525                      ; call occurs [#FS$$TOFD] ; [] |906| 
     526 0000006e 5CAD          MOVZ      AR4,SP                ; [CPU_U] |906| 
     527 0000006f 88AD          MOVZ      AR6,SP                ; [CPU_U] |906| 
     528 00000070 8F40+         MOVL      XAR5,#$C$FL1          ; [CPU_U] |906| 
         00000071 0000 
     529 00000072 DC8C          SUBB      XAR4,#12              ; [CPU_U] |906| 
     530 00000073 DE88          SUBB      XAR6,#8               ; [CPU_U] |906| 
     531              $C$DW$73        .dwtag  DW_TAG_TI_branch
     532                      .dwattr $C$DW$73, DW_AT_low_pc(0x00)
     533                      .dwattr $C$DW$73, DW_AT_name("FD$$MPY")
     534                      .dwattr $C$DW$73, DW_AT_TI_call
     535 00000074 7640!         LCR       #FD$$MPY              ; [CPU_] |906| 
TMS320C2000 Assembler PC v6.2.5 Sat Sep 16 14:47:35 2017

Tools Copyright (c) 1996-2014 Texas Instruments Incorporated
C:\Users\wmj\AppData\Local\Temp\1316010                              PAGE   12

         00000075 0000 
     536                      ; call occurs [#FD$$MPY] ; [] |906| 
     537 00000076 5CAD          MOVZ      AR4,SP                ; [CPU_U] |906| 
     538 00000077 DC88          SUBB      XAR4,#8               ; [CPU_U] |906| 
     539              $C$DW$74        .dwtag  DW_TAG_TI_branch
     540                      .dwattr $C$DW$74, DW_AT_low_pc(0x00)
     541                      .dwattr $C$DW$74, DW_AT_name("FD$$TOL")
     542                      .dwattr $C$DW$74, DW_AT_TI_call
     543 00000078 7640!         LCR       #FD$$TOL              ; [CPU_] |906| 
         00000079 0000 
     544                      ; call occurs [#FD$$TOL] ; [] |906| 
     545 0000007a D018          MOVB      XAR0,#24              ; [CPU_] |906| 
     546 0000007b 8A93          MOVL      XAR4,*+XAR3[AR0]      ; [CPU_] |906| 
     547              $C$DW$75        .dwtag  DW_TAG_TI_branch
     548                      .dwattr $C$DW$75, DW_AT_low_pc(0x00)
     549                      .dwattr $C$DW$75, DW_AT_name("_EST_setLs_d_pu")
     550                      .dwattr $C$DW$75, DW_AT_TI_call
     551 0000007c 7640!         LCR       #_EST_setLs_d_pu      ; [CPU_] |906| 
         0000007d 0000 
     552                      ; call occurs [#_EST_setLs_d_pu] ; [] |906| 
     553                      .dwpsn  file "D:/BM1000/sw/modules/user/src/32b/user.c",line 907,column 3,is_stmt
     554 0000007e D018          MOVB      XAR0,#24              ; [CPU_] |907| 
     555 0000007f AAA9          MOVL      ACC,XAR2              ; [CPU_] |907| 
     556 00000080 8A93          MOVL      XAR4,*+XAR3[AR0]      ; [CPU_] |907| 
     557              $C$DW$76        .dwtag  DW_TAG_TI_branch
     558                      .dwattr $C$DW$76, DW_AT_low_pc(0x00)
     559                      .dwattr $C$DW$76, DW_AT_name("_EST_setLs_q_pu")
     560                      .dwattr $C$DW$76, DW_AT_TI_call
     561 00000081 7640!         LCR       #_EST_setLs_q_pu      ; [CPU_] |907| 
         00000082 0000 
     562                      ; call occurs [#_EST_setLs_q_pu] ; [] |907| 
     563                      .dwpsn  file "D:/BM1000/sw/modules/user/src/32b/user.c",line 908,column 3,is_stmt
     564 00000083 9A1E          MOVB      AL,#30                ; [CPU_] |908| 
     565 00000084 9E4D          SUB       AL,*-SP[13]           ; [CPU_] |908| 
     566 00000085 D018          MOVB      XAR0,#24              ; [CPU_] |908| 
     567 00000086 8A93          MOVL      XAR4,*+XAR3[AR0]      ; [CPU_] |908| 
     568              $C$DW$77        .dwtag  DW_TAG_TI_branch
     569                      .dwattr $C$DW$77, DW_AT_low_pc(0x00)
     570                      .dwattr $C$DW$77, DW_AT_name("_EST_setLs_qFmt")
     571                      .dwattr $C$DW$77, DW_AT_TI_call
     572 00000087 7640!         LCR       #_EST_setLs_qFmt      ; [CPU_] |908| 
         00000088 0000 
     573                      ; call occurs [#_EST_setLs_qFmt] ; [] |908| 
     574 00000089 FE8E          SUBB      SP,#14                ; [CPU_U] 
     575                      .dwcfi  cfa_offset, -8
     576 0000008a 82BE          MOVL      XAR3,*--SP            ; [CPU_] 
     577                      .dwcfi  cfa_offset, -6
     578                      .dwcfi  restore_reg, 11
     579 0000008b 86BE          MOVL      XAR2,*--SP            ; [CPU_] 
     580                      .dwcfi  cfa_offset, -4
     581                      .dwcfi  restore_reg, 9
     582 0000008c 8BBE          MOVL      XAR1,*--SP            ; [CPU_] 
     583                      .dwcfi  cfa_offset, -2
     584                      .dwcfi  restore_reg, 7
     585              $C$DW$78        .dwtag  DW_TAG_TI_branch
TMS320C2000 Assembler PC v6.2.5 Sat Sep 16 14:47:35 2017

Tools Copyright (c) 1996-2014 Texas Instruments Incorporated
C:\Users\wmj\AppData\Local\Temp\1316010                              PAGE   13

     586                      .dwattr $C$DW$78, DW_AT_low_pc(0x00)
     587                      .dwattr $C$DW$78, DW_AT_TI_return
     588 0000008d 0006          LRETR     ; [CPU_] 
     589                      ; return occurs ; [] 
     590                      .dwattr $C$DW$45, DW_AT_TI_end_file("D:/BM1000/sw/modules/user/src/32b/user.c")
     591                      .dwattr $C$DW$45, DW_AT_TI_end_line(0x38f)
     592                      .dwattr $C$DW$45, DW_AT_TI_end_column(0x01)
     593                      .dwendentry
     594                      .dwendtag $C$DW$45
     595              
     596 0000008e               .sect   ".text"
     597                      .clink
     598                      .global _USER_setWaitTimeParams
     599              
     600              $C$DW$79        .dwtag  DW_TAG_subprogram, DW_AT_name("USER_setWaitTimeParams")
     601                      .dwattr $C$DW$79, DW_AT_low_pc(_USER_setWaitTimeParams)
     602                      .dwattr $C$DW$79, DW_AT_high_pc(0x00)
     603                      .dwattr $C$DW$79, DW_AT_TI_symbol_name("_USER_setWaitTimeParams")
     604                      .dwattr $C$DW$79, DW_AT_external
     605                      .dwattr $C$DW$79, DW_AT_TI_begin_file("D:/BM1000/sw/modules/user/src/32b/user.c")
     606                      .dwattr $C$DW$79, DW_AT_TI_begin_line(0xa4)
     607                      .dwattr $C$DW$79, DW_AT_TI_begin_column(0x06)
     608                      .dwattr $C$DW$79, DW_AT_TI_max_frame_size(-8)
     609                      .dwpsn  file "D:/BM1000/sw/modules/user/src/32b/user.c",line 165,column 1,is_stmt,address _USER_setWa
     610              
     611                      .dwfde $C$DW$CIE, _USER_setWaitTimeParams
     612              $C$DW$80        .dwtag  DW_TAG_formal_parameter, DW_AT_name("pUserParams")
     613                      .dwattr $C$DW$80, DW_AT_TI_symbol_name("_pUserParams")
     614                      .dwattr $C$DW$80, DW_AT_type(*$C$DW$T$80)
     615                      .dwattr $C$DW$80, DW_AT_location[DW_OP_reg12]
     616              
     617              ;***************************************************************
     618              ;* FNAME: _USER_setWaitTimeParams       FR SIZE:   6           *
     619              ;*                                                             *
     620              ;* FUNCTION ENVIRONMENT                                        *
     621              ;*                                                             *
     622              ;* FUNCTION PROPERTIES                                         *
     623              ;*                            2 Parameter,  0 Auto,  4 SOE     *
     624              ;***************************************************************
     625              
     626              _USER_setWaitTimeParams:
     627              ;* AR4   assigned to $O$C1
     628              ;* AR4   assigned to $O$C2
     629              ;* AR4   assigned to $O$C3
     630              ;* AR1   assigned to $O$C4
     631              ;* AR4   assigned to $O$C5
     632              ;* AR2   assigned to _pUserParams
     633              $C$DW$81        .dwtag  DW_TAG_variable, DW_AT_name("pUserParams")
     634                      .dwattr $C$DW$81, DW_AT_TI_symbol_name("_pUserParams")
     635                      .dwattr $C$DW$81, DW_AT_type(*$C$DW$T$91)
     636                      .dwattr $C$DW$81, DW_AT_location[DW_OP_reg8]
     637                      .dwcfi  cfa_offset, -2
     638                      .dwcfi  save_reg_to_mem, 26, 0
     639                      .dwcfi  save_reg_to_reg, 78, 26
     640 0000008e B2BD          MOVL      *SP++,XAR1            ; [CPU_] 
TMS320C2000 Assembler PC v6.2.5 Sat Sep 16 14:47:35 2017

Tools Copyright (c) 1996-2014 Texas Instruments Incorporated
C:\Users\wmj\AppData\Local\Temp\1316010                              PAGE   14

     641                      .dwcfi  save_reg_to_mem, 7, 2
     642                      .dwcfi  cfa_offset, -4
     643 0000008f AABD          MOVL      *SP++,XAR2            ; [CPU_] 
     644                      .dwcfi  save_reg_to_mem, 9, 4
     645                      .dwcfi  cfa_offset, -6
     646 00000090 FE02          ADDB      SP,#2                 ; [CPU_U] 
     647                      .dwcfi  cfa_offset, -8
     648 00000091 86A4          MOVL      XAR2,XAR4             ; [CPU_] |165| 
     649 00000092 8BA4          MOVL      XAR1,XAR4             ; [CPU_] |165| 
     650                      .dwpsn  file "D:/BM1000/sw/modules/user/src/32b/user.c",line 167,column 3,is_stmt
     651 00000093 0200          MOVB      ACC,#0                ; [CPU_] |167| 
     652                      .dwpsn  file "D:/BM1000/sw/modules/user/src/32b/user.c",line 169,column 3,is_stmt
     653 00000094 8F40          MOVL      XAR5,#25000           ; [CPU_U] |169| 
         00000095 61A8 
     654                      .dwpsn  file "D:/BM1000/sw/modules/user/src/32b/user.c",line 176,column 3,is_stmt
     655 00000096 D052          MOVB      XAR0,#82              ; [CPU_] |176| 
     656                      .dwpsn  file "D:/BM1000/sw/modules/user/src/32b/user.c",line 167,column 3,is_stmt
     657 00000097 DC54          ADDB      XAR4,#84              ; [CPU_] |167| 
     658                      .dwpsn  file "D:/BM1000/sw/modules/user/src/32b/user.c",line 172,column 3,is_stmt
     659 00000098 D95C          ADDB      XAR1,#92              ; [CPU_] |172| 
     660                      .dwpsn  file "D:/BM1000/sw/modules/user/src/32b/user.c",line 167,column 3,is_stmt
     661 00000099 1EC4          MOVL      *+XAR4[0],ACC         ; [CPU_] |167| 
     662                      .dwpsn  file "D:/BM1000/sw/modules/user/src/32b/user.c",line 168,column 3,is_stmt
     663 0000009a 1ED4          MOVL      *+XAR4[2],ACC         ; [CPU_] |168| 
     664                      .dwpsn  file "D:/BM1000/sw/modules/user/src/32b/user.c",line 169,column 3,is_stmt
     665 0000009b A0E4          MOVL      *+XAR4[4],XAR5        ; [CPU_] |169| 
     666                      .dwpsn  file "D:/BM1000/sw/modules/user/src/32b/user.c",line 170,column 3,is_stmt
     667 0000009c 1EF4          MOVL      *+XAR4[6],ACC         ; [CPU_] |170| 
     668                      .dwpsn  file "D:/BM1000/sw/modules/user/src/32b/user.c",line 174,column 3,is_stmt
     669 0000009d 8F00          MOVL      XAR4,#40000           ; [CPU_U] |174| 
         0000009e 9C40 
     670                      .dwpsn  file "D:/BM1000/sw/modules/user/src/32b/user.c",line 172,column 3,is_stmt
     671 0000009f 1EC1          MOVL      *+XAR1[0],ACC         ; [CPU_] |172| 
     672                      .dwpsn  file "D:/BM1000/sw/modules/user/src/32b/user.c",line 173,column 3,is_stmt
     673 000000a0 1ED1          MOVL      *+XAR1[2],ACC         ; [CPU_] |173| 
     674                      .dwpsn  file "D:/BM1000/sw/modules/user/src/32b/user.c",line 174,column 3,is_stmt
     675 000000a1 A8E1          MOVL      *+XAR1[4],XAR4        ; [CPU_] |174| 
     676                      .dwpsn  file "D:/BM1000/sw/modules/user/src/32b/user.c",line 175,column 3,is_stmt
     677 000000a2 1EF1          MOVL      *+XAR1[6],ACC         ; [CPU_] |175| 
     678                      .dwpsn  file "D:/BM1000/sw/modules/user/src/32b/user.c",line 176,column 3,is_stmt
     679 000000a3 FF2F          MOV       ACC,#32256 << 15      ; [CPU_] |176| 
         000000a4 7E00 
     680 000000a5 1E42          MOVL      *-SP[2],ACC           ; [CPU_] |176| 
     681 000000a6 0692          MOVL      ACC,*+XAR2[AR0]       ; [CPU_] |176| 
     682              $C$DW$82        .dwtag  DW_TAG_TI_branch
     683                      .dwattr $C$DW$82, DW_AT_low_pc(0x00)
     684                      .dwattr $C$DW$82, DW_AT_name("FS$$MPY")
     685                      .dwattr $C$DW$82, DW_AT_TI_call
     686 000000a7 7640!         LCR       #FS$$MPY              ; [CPU_] |176| 
         000000a8 0000 
     687                      ; call occurs [#FS$$MPY] ; [] |176| 
     688 000000a9 1EA6          MOVL      XAR6,ACC              ; [CPU_] |176| 
     689 000000aa 9A00          MOV       AL,#0                 ; [CPU_] |176| 
     690 000000ab 28A8          MOV       AH,#16544             ; [CPU_] |176| 
         000000ac 40A0 
TMS320C2000 Assembler PC v6.2.5 Sat Sep 16 14:47:35 2017

Tools Copyright (c) 1996-2014 Texas Instruments Incorporated
C:\Users\wmj\AppData\Local\Temp\1316010                              PAGE   15

     691 000000ad 1E42          MOVL      *-SP[2],ACC           ; [CPU_] |176| 
     692 000000ae 06A6          MOVL      ACC,XAR6              ; [CPU_] |176| 
     693              $C$DW$83        .dwtag  DW_TAG_TI_branch
     694                      .dwattr $C$DW$83, DW_AT_low_pc(0x00)
     695                      .dwattr $C$DW$83, DW_AT_name("FS$$ADD")
     696                      .dwattr $C$DW$83, DW_AT_TI_call
     697 000000af 7640!         LCR       #FS$$ADD              ; [CPU_] |176| 
         000000b0 0000 
     698                      ; call occurs [#FS$$ADD] ; [] |176| 
     699 000000b1 1EA6          MOVL      XAR6,ACC              ; [CPU_] |176| 
     700 000000b2 28A9          MOV       AL,#16384             ; [CPU_] |176| 
         000000b3 4000 
     701 000000b4 28A8          MOV       AH,#17820             ; [CPU_] |176| 
         000000b5 459C 
     702 000000b6 1E42          MOVL      *-SP[2],ACC           ; [CPU_] |176| 
     703 000000b7 06A6          MOVL      ACC,XAR6              ; [CPU_] |176| 
     704              $C$DW$84        .dwtag  DW_TAG_TI_branch
     705                      .dwattr $C$DW$84, DW_AT_low_pc(0x00)
     706                      .dwattr $C$DW$84, DW_AT_name("FS$$MPY")
     707                      .dwattr $C$DW$84, DW_AT_TI_call
     708 000000b8 7640!         LCR       #FS$$MPY              ; [CPU_] |176| 
         000000b9 0000 
     709                      ; call occurs [#FS$$MPY] ; [] |176| 
     710              $C$DW$85        .dwtag  DW_TAG_TI_branch
     711                      .dwattr $C$DW$85, DW_AT_low_pc(0x00)
     712                      .dwattr $C$DW$85, DW_AT_name("FS$$TOUL")
     713                      .dwattr $C$DW$85, DW_AT_TI_call
     714 000000ba 7640!         LCR       #FS$$TOUL             ; [CPU_] |176| 
         000000bb 0000 
     715                      ; call occurs [#FS$$TOUL] ; [] |176| 
     716 000000bc D008          MOVB      XAR0,#8               ; [CPU_] |176| 
     717                      .dwpsn  file "D:/BM1000/sw/modules/user/src/32b/user.c",line 177,column 3,is_stmt
     718 000000bd 8F02          MOVL      XAR4,#150000          ; [CPU_U] |177| 
         000000be 49F0 
     719                      .dwpsn  file "D:/BM1000/sw/modules/user/src/32b/user.c",line 176,column 3,is_stmt
     720 000000bf 1E91          MOVL      *+XAR1[AR0],ACC       ; [CPU_] |176| 
     721                      .dwpsn  file "D:/BM1000/sw/modules/user/src/32b/user.c",line 177,column 3,is_stmt
     722 000000c0 D00A          MOVB      XAR0,#10              ; [CPU_] |177| 
     723                      .dwpsn  file "D:/BM1000/sw/modules/user/src/32b/user.c",line 179,column 3,is_stmt
     724 000000c1 0200          MOVB      ACC,#0                ; [CPU_] |179| 
     725                      .dwpsn  file "D:/BM1000/sw/modules/user/src/32b/user.c",line 177,column 3,is_stmt
     726 000000c2 A891          MOVL      *+XAR1[AR0],XAR4      ; [CPU_] |177| 
     727                      .dwpsn  file "D:/BM1000/sw/modules/user/src/32b/user.c",line 178,column 3,is_stmt
     728 000000c3 D00C          MOVB      XAR0,#12              ; [CPU_] |178| 
     729 000000c4 8F00          MOVL      XAR4,#1000            ; [CPU_U] |178| 
         000000c5 03E8 
     730 000000c6 A891          MOVL      *+XAR1[AR0],XAR4      ; [CPU_] |178| 
     731                      .dwpsn  file "D:/BM1000/sw/modules/user/src/32b/user.c",line 179,column 3,is_stmt
     732 000000c7 D00E          MOVB      XAR0,#14              ; [CPU_] |179| 
     733                      .dwpsn  file "D:/BM1000/sw/modules/user/src/32b/user.c",line 180,column 3,is_stmt
     734 000000c8 8F00          MOVL      XAR4,#10000           ; [CPU_U] |180| 
         000000c9 2710 
     735                      .dwpsn  file "D:/BM1000/sw/modules/user/src/32b/user.c",line 179,column 3,is_stmt
     736 000000ca 1E91          MOVL      *+XAR1[AR0],ACC       ; [CPU_] |179| 
     737                      .dwpsn  file "D:/BM1000/sw/modules/user/src/32b/user.c",line 180,column 3,is_stmt
TMS320C2000 Assembler PC v6.2.5 Sat Sep 16 14:47:35 2017

Tools Copyright (c) 1996-2014 Texas Instruments Incorporated
C:\Users\wmj\AppData\Local\Temp\1316010                              PAGE   16

     738 000000cb D010          MOVB      XAR0,#16              ; [CPU_] |180| 
     739 000000cc A891          MOVL      *+XAR1[AR0],XAR4      ; [CPU_] |180| 
     740                      .dwpsn  file "D:/BM1000/sw/modules/user/src/32b/user.c",line 181,column 3,is_stmt
     741 000000cd D012          MOVB      XAR0,#18              ; [CPU_] |181| 
     742                      .dwpsn  file "D:/BM1000/sw/modules/user/src/32b/user.c",line 183,column 3,is_stmt
     743 000000ce 8F01          MOVL      XAR4,#100000          ; [CPU_U] |183| 
         000000cf 86A0 
     744                      .dwpsn  file "D:/BM1000/sw/modules/user/src/32b/user.c",line 181,column 3,is_stmt
     745 000000d0 1E91          MOVL      *+XAR1[AR0],ACC       ; [CPU_] |181| 
     746                      .dwpsn  file "D:/BM1000/sw/modules/user/src/32b/user.c",line 182,column 3,is_stmt
     747 000000d1 D014          MOVB      XAR0,#20              ; [CPU_] |182| 
     748 000000d2 1E91          MOVL      *+XAR1[AR0],ACC       ; [CPU_] |182| 
     749                      .dwpsn  file "D:/BM1000/sw/modules/user/src/32b/user.c",line 183,column 3,is_stmt
     750 000000d3 D016          MOVB      XAR0,#22              ; [CPU_] |183| 
     751 000000d4 A891          MOVL      *+XAR1[AR0],XAR4      ; [CPU_] |183| 
     752                      .dwpsn  file "D:/BM1000/sw/modules/user/src/32b/user.c",line 187,column 3,is_stmt
     753 000000d5 8AA2          MOVL      XAR4,XAR2             ; [CPU_] |187| 
     754                      .dwpsn  file "D:/BM1000/sw/modules/user/src/32b/user.c",line 184,column 3,is_stmt
     755 000000d6 D018          MOVB      XAR0,#24              ; [CPU_] |184| 
     756                      .dwpsn  file "D:/BM1000/sw/modules/user/src/32b/user.c",line 189,column 3,is_stmt
     757 000000d7 8F40          MOVL      XAR5,#50000           ; [CPU_U] |189| 
         000000d8 C350 
     758                      .dwpsn  file "D:/BM1000/sw/modules/user/src/32b/user.c",line 184,column 3,is_stmt
     759 000000d9 1E91          MOVL      *+XAR1[AR0],ACC       ; [CPU_] |184| 
     760                      .dwpsn  file "D:/BM1000/sw/modules/user/src/32b/user.c",line 187,column 3,is_stmt
     761 000000da DC78          ADDB      XAR4,#120             ; [CPU_] |187| 
     762                      .dwpsn  file "D:/BM1000/sw/modules/user/src/32b/user.c",line 185,column 3,is_stmt
     763 000000db D01A          MOVB      XAR0,#26              ; [CPU_] |185| 
     764 000000dc 1E91          MOVL      *+XAR1[AR0],ACC       ; [CPU_] |185| 
     765                      .dwpsn  file "D:/BM1000/sw/modules/user/src/32b/user.c",line 191,column 3,is_stmt
     766 000000dd D008          MOVB      XAR0,#8               ; [CPU_] |191| 
     767                      .dwpsn  file "D:/BM1000/sw/modules/user/src/32b/user.c",line 187,column 3,is_stmt
     768 000000de 1EC4          MOVL      *+XAR4[0],ACC         ; [CPU_] |187| 
     769                      .dwpsn  file "D:/BM1000/sw/modules/user/src/32b/user.c",line 188,column 3,is_stmt
     770 000000df 1ED4          MOVL      *+XAR4[2],ACC         ; [CPU_] |188| 
     771                      .dwpsn  file "D:/BM1000/sw/modules/user/src/32b/user.c",line 189,column 3,is_stmt
     772 000000e0 A0E4          MOVL      *+XAR4[4],XAR5        ; [CPU_] |189| 
     773                      .dwpsn  file "D:/BM1000/sw/modules/user/src/32b/user.c",line 190,column 3,is_stmt
     774 000000e1 8F40          MOVL      XAR5,#1000            ; [CPU_U] |190| 
         000000e2 03E8 
     775 000000e3 A0F4          MOVL      *+XAR4[6],XAR5        ; [CPU_] |190| 
     776                      .dwpsn  file "D:/BM1000/sw/modules/user/src/32b/user.c",line 191,column 3,is_stmt
     777 000000e4 8F40          MOVL      XAR5,#20000           ; [CPU_U] |191| 
         000000e5 4E20 
     778 000000e6 A094          MOVL      *+XAR4[AR0],XAR5      ; [CPU_] |191| 
     779                      .dwpsn  file "D:/BM1000/sw/modules/user/src/32b/user.c",line 192,column 3,is_stmt
     780 000000e7 D00A          MOVB      XAR0,#10              ; [CPU_] |192| 
     781                      .dwpsn  file "D:/BM1000/sw/modules/user/src/32b/user.c",line 196,column 3,is_stmt
     782 000000e8 8F40          MOVL      XAR5,#15000           ; [CPU_U] |196| 
         000000e9 3A98 
     783                      .dwpsn  file "D:/BM1000/sw/modules/user/src/32b/user.c",line 192,column 3,is_stmt
     784 000000ea 1E94          MOVL      *+XAR4[AR0],ACC       ; [CPU_] |192| 
     785                      .dwpsn  file "D:/BM1000/sw/modules/user/src/32b/user.c",line 198,column 3,is_stmt
     786 000000eb D008          MOVB      XAR0,#8               ; [CPU_] |198| 
     787                      .dwpsn  file "D:/BM1000/sw/modules/user/src/32b/user.c",line 194,column 3,is_stmt
TMS320C2000 Assembler PC v6.2.5 Sat Sep 16 14:47:35 2017

Tools Copyright (c) 1996-2014 Texas Instruments Incorporated
C:\Users\wmj\AppData\Local\Temp\1316010                              PAGE   17

     788 000000ec 0284          MOVB      ACC,#132              ; [CPU_] |194| 
     789 000000ed 07A2          ADDL      ACC,XAR2              ; [CPU_] |194| 
     790 000000ee 8AA9          MOVL      XAR4,ACC              ; [CPU_] |194| 
     791 000000ef 0200          MOVB      ACC,#0                ; [CPU_] |194| 
     792 000000f0 1EC4          MOVL      *+XAR4[0],ACC         ; [CPU_] |194| 
     793                      .dwpsn  file "D:/BM1000/sw/modules/user/src/32b/user.c",line 195,column 3,is_stmt
     794 000000f1 1ED4          MOVL      *+XAR4[2],ACC         ; [CPU_] |195| 
     795                      .dwpsn  file "D:/BM1000/sw/modules/user/src/32b/user.c",line 196,column 3,is_stmt
     796 000000f2 A0E4          MOVL      *+XAR4[4],XAR5        ; [CPU_] |196| 
     797                      .dwpsn  file "D:/BM1000/sw/modules/user/src/32b/user.c",line 197,column 3,is_stmt
     798 000000f3 A0F4          MOVL      *+XAR4[6],XAR5        ; [CPU_] |197| 
     799                      .dwpsn  file "D:/BM1000/sw/modules/user/src/32b/user.c",line 198,column 3,is_stmt
     800 000000f4 8F40          MOVL      XAR5,#1000            ; [CPU_U] |198| 
         000000f5 03E8 
     801 000000f6 A094          MOVL      *+XAR4[AR0],XAR5      ; [CPU_] |198| 
     802                      .dwpsn  file "D:/BM1000/sw/modules/user/src/32b/user.c",line 199,column 3,is_stmt
     803 000000f7 D00A          MOVB      XAR0,#10              ; [CPU_] |199| 
     804 000000f8 8F41          MOVL      XAR5,#100000          ; [CPU_U] |199| 
         000000f9 86A0 
     805 000000fa A094          MOVL      *+XAR4[AR0],XAR5      ; [CPU_] |199| 
     806                      .dwpsn  file "D:/BM1000/sw/modules/user/src/32b/user.c",line 200,column 3,is_stmt
     807 000000fb D00C          MOVB      XAR0,#12              ; [CPU_] |200| 
     808                      .dwpsn  file "D:/BM1000/sw/modules/user/src/32b/user.c",line 204,column 3,is_stmt
     809 000000fc 8F40          MOVL      XAR5,#5000            ; [CPU_U] |204| 
         000000fd 1388 
     810                      .dwpsn  file "D:/BM1000/sw/modules/user/src/32b/user.c",line 200,column 3,is_stmt
     811 000000fe 1E94          MOVL      *+XAR4[AR0],ACC       ; [CPU_] |200| 
     812                      .dwpsn  file "D:/BM1000/sw/modules/user/src/32b/user.c",line 202,column 3,is_stmt
     813 000000ff 0292          MOVB      ACC,#146              ; [CPU_] |202| 
     814                      .dwpsn  file "D:/BM1000/sw/modules/user/src/32b/user.c",line 206,column 3,is_stmt
     815 00000100 D008          MOVB      XAR0,#8               ; [CPU_] |206| 
     816                      .dwpsn  file "D:/BM1000/sw/modules/user/src/32b/user.c",line 202,column 3,is_stmt
     817 00000101 07A2          ADDL      ACC,XAR2              ; [CPU_] |202| 
     818 00000102 8AA9          MOVL      XAR4,ACC              ; [CPU_] |202| 
     819 00000103 0200          MOVB      ACC,#0                ; [CPU_] |202| 
     820 00000104 1EC4          MOVL      *+XAR4[0],ACC         ; [CPU_] |202| 
     821                      .dwpsn  file "D:/BM1000/sw/modules/user/src/32b/user.c",line 203,column 3,is_stmt
     822 00000105 1ED4          MOVL      *+XAR4[2],ACC         ; [CPU_] |203| 
     823                      .dwpsn  file "D:/BM1000/sw/modules/user/src/32b/user.c",line 204,column 3,is_stmt
     824 00000106 A0E4          MOVL      *+XAR4[4],XAR5        ; [CPU_] |204| 
     825                      .dwpsn  file "D:/BM1000/sw/modules/user/src/32b/user.c",line 205,column 3,is_stmt
     826 00000107 8F40          MOVL      XAR5,#10000           ; [CPU_U] |205| 
         00000108 2710 
     827 00000109 A0F4          MOVL      *+XAR4[6],XAR5        ; [CPU_] |205| 
     828                      .dwpsn  file "D:/BM1000/sw/modules/user/src/32b/user.c",line 206,column 3,is_stmt
     829 0000010a 8F40          MOVL      XAR5,#35000           ; [CPU_U] |206| 
         0000010b 88B8 
     830 0000010c A094          MOVL      *+XAR4[AR0],XAR5      ; [CPU_] |206| 
     831                      .dwpsn  file "D:/BM1000/sw/modules/user/src/32b/user.c",line 207,column 3,is_stmt
     832 0000010d D00A          MOVB      XAR0,#10              ; [CPU_] |207| 
     833 0000010e FE82          SUBB      SP,#2                 ; [CPU_U] 
     834                      .dwcfi  cfa_offset, -6
     835 0000010f 1E94          MOVL      *+XAR4[AR0],ACC       ; [CPU_] |207| 
     836 00000110 86BE          MOVL      XAR2,*--SP            ; [CPU_] 
     837                      .dwcfi  cfa_offset, -4
TMS320C2000 Assembler PC v6.2.5 Sat Sep 16 14:47:35 2017

Tools Copyright (c) 1996-2014 Texas Instruments Incorporated
C:\Users\wmj\AppData\Local\Temp\1316010                              PAGE   18

     838                      .dwcfi  restore_reg, 9
     839 00000111 8BBE          MOVL      XAR1,*--SP            ; [CPU_] 
     840                      .dwcfi  cfa_offset, -2
     841                      .dwcfi  restore_reg, 7
     842              $C$DW$86        .dwtag  DW_TAG_TI_branch
     843                      .dwattr $C$DW$86, DW_AT_low_pc(0x00)
     844                      .dwattr $C$DW$86, DW_AT_TI_return
     845 00000112 0006          LRETR     ; [CPU_] 
     846                      ; return occurs ; [] 
     847                      .dwattr $C$DW$79, DW_AT_TI_end_file("D:/BM1000/sw/modules/user/src/32b/user.c")
     848                      .dwattr $C$DW$79, DW_AT_TI_end_line(0xd2)
     849                      .dwattr $C$DW$79, DW_AT_TI_end_column(0x01)
     850                      .dwendentry
     851                      .dwendtag $C$DW$79
     852              
     853 00000113               .sect   ".text"
     854                      .clink
     855                      .global _USER_setParams
     856              
     857              $C$DW$87        .dwtag  DW_TAG_subprogram, DW_AT_name("USER_setParams")
     858                      .dwattr $C$DW$87, DW_AT_low_pc(_USER_setParams)
     859                      .dwattr $C$DW$87, DW_AT_high_pc(0x00)
     860                      .dwattr $C$DW$87, DW_AT_TI_symbol_name("_USER_setParams")
     861                      .dwattr $C$DW$87, DW_AT_external
     862                      .dwattr $C$DW$87, DW_AT_TI_begin_file("D:/BM1000/sw/modules/user/src/32b/user.c")
     863                      .dwattr $C$DW$87, DW_AT_TI_begin_line(0x4e)
     864                      .dwattr $C$DW$87, DW_AT_TI_begin_column(0x06)
     865                      .dwattr $C$DW$87, DW_AT_TI_max_frame_size(-2)
     866                      .dwpsn  file "D:/BM1000/sw/modules/user/src/32b/user.c",line 79,column 1,is_stmt,address _USER_setPar
     867              
     868                      .dwfde $C$DW$CIE, _USER_setParams
     869              $C$DW$88        .dwtag  DW_TAG_formal_parameter, DW_AT_name("pUserParams")
     870                      .dwattr $C$DW$88, DW_AT_TI_symbol_name("_pUserParams")
     871                      .dwattr $C$DW$88, DW_AT_type(*$C$DW$T$80)
     872                      .dwattr $C$DW$88, DW_AT_location[DW_OP_reg12]
     873              
     874              ;***************************************************************
     875              ;* FNAME: _USER_setParams               FR SIZE:   0           *
     876              ;*                                                             *
     877              ;* FUNCTION ENVIRONMENT                                        *
     878              ;*                                                             *
     879              ;* FUNCTION PROPERTIES                                         *
     880              ;*                            0 Parameter,  0 Auto,  0 SOE     *
     881              ;***************************************************************
     882              
     883              _USER_setParams:
     884              ;* AR4   assigned to _pUserParams
     885              $C$DW$89        .dwtag  DW_TAG_variable, DW_AT_name("pUserParams")
     886                      .dwattr $C$DW$89, DW_AT_TI_symbol_name("_pUserParams")
     887                      .dwattr $C$DW$89, DW_AT_type(*$C$DW$T$91)
     888                      .dwattr $C$DW$89, DW_AT_location[DW_OP_reg12]
     889                      .dwcfi  cfa_offset, -2
     890                      .dwcfi  save_reg_to_mem, 26, 0
     891                      .dwcfi  save_reg_to_reg, 78, 26
     892                      .dwpsn  file "D:/BM1000/sw/modules/user/src/32b/user.c",line 80,column 3,is_stmt
TMS320C2000 Assembler PC v6.2.5 Sat Sep 16 14:47:35 2017

Tools Copyright (c) 1996-2014 Texas Instruments Incorporated
C:\Users\wmj\AppData\Local\Temp\1316010                              PAGE   19

     893 00000113 9A00          MOV       AL,#0                 ; [CPU_] |80| 
     894 00000114 28A8          MOV       AH,#16672             ; [CPU_] |80| 
         00000115 4120 
     895 00000116 1EC4          MOVL      *+XAR4[0],ACC         ; [CPU_] |80| 
     896                      .dwpsn  file "D:/BM1000/sw/modules/user/src/32b/user.c",line 87,column 3,is_stmt
     897 00000117 D008          MOVB      XAR0,#8               ; [CPU_] |87| 
     898                      .dwpsn  file "D:/BM1000/sw/modules/user/src/32b/user.c",line 81,column 3,is_stmt
     899 00000118 28A8          MOV       AH,#17377             ; [CPU_] |81| 
         00000119 43E1 
     900 0000011a 1ED4          MOVL      *+XAR4[2],ACC         ; [CPU_] |81| 
     901                      .dwpsn  file "D:/BM1000/sw/modules/user/src/32b/user.c",line 83,column 3,is_stmt
     902 0000011b 28A8          MOV       AH,#17224             ; [CPU_] |83| 
         0000011c 4348 
     903 0000011d 1EE4          MOVL      *+XAR4[4],ACC         ; [CPU_] |83| 
     904                      .dwpsn  file "D:/BM1000/sw/modules/user/src/32b/user.c",line 85,column 3,is_stmt
     905 0000011e 56BF          MOVB      *+XAR4[6],#2,UNC      ; [CPU_] |85| 
         0000011f 02F4 
     906                      .dwpsn  file "D:/BM1000/sw/modules/user/src/32b/user.c",line 86,column 3,is_stmt
     907 00000120 56BF          MOVB      *+XAR4[7],#1,UNC      ; [CPU_] |86| 
         00000121 01FC 
     908                      .dwpsn  file "D:/BM1000/sw/modules/user/src/32b/user.c",line 94,column 3,is_stmt
     909 00000122 28A8          MOV       AH,#16800             ; [CPU_] |94| 
         00000123 41A0 
     910                      .dwpsn  file "D:/BM1000/sw/modules/user/src/32b/user.c",line 87,column 3,is_stmt
     911 00000124 56BF          MOVB      *+XAR4[AR0],#1,UNC    ; [CPU_] |87| 
         00000125 0194 
     912                      .dwpsn  file "D:/BM1000/sw/modules/user/src/32b/user.c",line 88,column 3,is_stmt
     913 00000126 D009          MOVB      XAR0,#9               ; [CPU_] |88| 
     914 00000127 56BF          MOVB      *+XAR4[AR0],#15,UNC   ; [CPU_] |88| 
         00000128 0F94 
     915                      .dwpsn  file "D:/BM1000/sw/modules/user/src/32b/user.c",line 89,column 3,is_stmt
     916 00000129 D00A          MOVB      XAR0,#10              ; [CPU_] |89| 
     917                      .dwpsn  file "D:/BM1000/sw/modules/user/src/32b/user.c",line 149,column 3,is_stmt
     918 0000012a 8F40          MOVL      XAR5,#5000            ; [CPU_U] |149| 
         0000012b 1388 
     919                      .dwpsn  file "D:/BM1000/sw/modules/user/src/32b/user.c",line 89,column 3,is_stmt
     920 0000012c 56BF          MOVB      *+XAR4[AR0],#15,UNC   ; [CPU_] |89| 
         0000012d 0F94 
     921                      .dwpsn  file "D:/BM1000/sw/modules/user/src/32b/user.c",line 91,column 3,is_stmt
     922 0000012e D00B          MOVB      XAR0,#11              ; [CPU_] |91| 
     923 0000012f 56BF          MOVB      *+XAR4[AR0],#3,UNC    ; [CPU_] |91| 
         00000130 0394 
     924                      .dwpsn  file "D:/BM1000/sw/modules/user/src/32b/user.c",line 92,column 3,is_stmt
     925 00000131 D00C          MOVB      XAR0,#12              ; [CPU_] |92| 
     926 00000132 56BF          MOVB      *+XAR4[AR0],#3,UNC    ; [CPU_] |92| 
         00000133 0394 
     927                      .dwpsn  file "D:/BM1000/sw/modules/user/src/32b/user.c",line 94,column 3,is_stmt
     928 00000134 D00E          MOVB      XAR0,#14              ; [CPU_] |94| 
     929 00000135 1E94          MOVL      *+XAR4[AR0],ACC       ; [CPU_] |94| 
     930                      .dwpsn  file "D:/BM1000/sw/modules/user/src/32b/user.c",line 95,column 3,is_stmt
     931 00000136 D010          MOVB      XAR0,#16              ; [CPU_] |95| 
     932 00000137 28A8          MOV       AH,#17096             ; [CPU_] |95| 
         00000138 42C8 
     933 00000139 1E94          MOVL      *+XAR4[AR0],ACC       ; [CPU_] |95| 
     934                      .dwpsn  file "D:/BM1000/sw/modules/user/src/32b/user.c",line 97,column 3,is_stmt
TMS320C2000 Assembler PC v6.2.5 Sat Sep 16 14:47:35 2017

Tools Copyright (c) 1996-2014 Texas Instruments Incorporated
C:\Users\wmj\AppData\Local\Temp\1316010                              PAGE   20

     935 0000013a D012          MOVB      XAR0,#18              ; [CPU_] |97| 
     936 0000013b 28A8          MOV       AH,#15267             ; [CPU_] |97| 
         0000013c 3BA3 
     937 0000013d 28A9          MOV       AL,#55050             ; [CPU_] |97| 
         0000013e D70A 
     938 0000013f 1E94          MOVL      *+XAR4[AR0],ACC       ; [CPU_] |97| 
     939                      .dwpsn  file "D:/BM1000/sw/modules/user/src/32b/user.c",line 99,column 3,is_stmt
     940 00000140 D014          MOVB      XAR0,#20              ; [CPU_] |99| 
     941 00000141 FF2F          MOV       ACC,#32512 << 15      ; [CPU_] |99| 
         00000142 7F00 
     942 00000143 1E94          MOVL      *+XAR4[AR0],ACC       ; [CPU_] |99| 
     943                      .dwpsn  file "D:/BM1000/sw/modules/user/src/32b/user.c",line 101,column 3,is_stmt
     944 00000144 D016          MOVB      XAR0,#22              ; [CPU_] |101| 
     945 00000145 9A00          MOV       AL,#0                 ; [CPU_] |101| 
     946 00000146 28A8          MOV       AH,#16800             ; [CPU_] |101| 
         00000147 41A0 
     947 00000148 1E94          MOVL      *+XAR4[AR0],ACC       ; [CPU_] |101| 
     948                      .dwpsn  file "D:/BM1000/sw/modules/user/src/32b/user.c",line 103,column 3,is_stmt
     949 00000149 D018          MOVB      XAR0,#24              ; [CPU_] |103| 
     950 0000014a 28A8          MOV       AH,#16384             ; [CPU_] |103| 
         0000014b 4000 
     951 0000014c 1E94          MOVL      *+XAR4[AR0],ACC       ; [CPU_] |103| 
     952                      .dwpsn  file "D:/BM1000/sw/modules/user/src/32b/user.c",line 105,column 3,is_stmt
     953 0000014d D01A          MOVB      XAR0,#26              ; [CPU_] |105| 
     954 0000014e 28A8          MOV       AH,#16576             ; [CPU_] |105| 
         0000014f 40C0 
     955 00000150 1E94          MOVL      *+XAR4[AR0],ACC       ; [CPU_] |105| 
     956                      .dwpsn  file "D:/BM1000/sw/modules/user/src/32b/user.c",line 107,column 3,is_stmt
     957 00000151 D01C          MOVB      XAR0,#28              ; [CPU_] |107| 
     958 00000152 28A8          MOV       AH,#17096             ; [CPU_] |107| 
         00000153 42C8 
     959 00000154 1E94          MOVL      *+XAR4[AR0],ACC       ; [CPU_] |107| 
     960                      .dwpsn  file "D:/BM1000/sw/modules/user/src/32b/user.c",line 109,column 3,is_stmt
     961 00000155 D01E          MOVB      XAR0,#30              ; [CPU_] |109| 
     962 00000156 1E94          MOVL      *+XAR4[AR0],ACC       ; [CPU_] |109| 
     963                      .dwpsn  file "D:/BM1000/sw/modules/user/src/32b/user.c",line 111,column 3,is_stmt
     964 00000157 D020          MOVB      XAR0,#32              ; [CPU_] |111| 
     965 00000158 FF2F          MOV       ACC,#32512 << 15      ; [CPU_] |111| 
         00000159 7F00 
     966 0000015a 1E94          MOVL      *+XAR4[AR0],ACC       ; [CPU_] |111| 
     967                      .dwpsn  file "D:/BM1000/sw/modules/user/src/32b/user.c",line 113,column 3,is_stmt
     968 0000015b D022          MOVB      XAR0,#34              ; [CPU_] |113| 
     969 0000015c 1E94          MOVL      *+XAR4[AR0],ACC       ; [CPU_] |113| 
     970                      .dwpsn  file "D:/BM1000/sw/modules/user/src/32b/user.c",line 115,column 3,is_stmt
     971 0000015d D026          MOVB      XAR0,#38              ; [CPU_] |115| 
     972                      .dwpsn  file "D:/BM1000/sw/modules/user/src/32b/user.c",line 117,column 3,is_stmt
     973 0000015e 9A00          MOV       AL,#0                 ; [CPU_] |117| 
     974 0000015f 28A8          MOV       AH,#16968             ; [CPU_] |117| 
         00000160 4248 
     975                      .dwpsn  file "D:/BM1000/sw/modules/user/src/32b/user.c",line 115,column 3,is_stmt
     976 00000161 56BF          MOVB      *+XAR4[AR0],#60,UNC   ; [CPU_] |115| 
         00000162 3C94 
     977                      .dwpsn  file "D:/BM1000/sw/modules/user/src/32b/user.c",line 117,column 3,is_stmt
     978 00000163 D028          MOVB      XAR0,#40              ; [CPU_] |117| 
     979 00000164 1E94          MOVL      *+XAR4[AR0],ACC       ; [CPU_] |117| 
TMS320C2000 Assembler PC v6.2.5 Sat Sep 16 14:47:35 2017

Tools Copyright (c) 1996-2014 Texas Instruments Incorporated
C:\Users\wmj\AppData\Local\Temp\1316010                              PAGE   21

     980                      .dwpsn  file "D:/BM1000/sw/modules/user/src/32b/user.c",line 119,column 3,is_stmt
     981 00000165 D02A          MOVB      XAR0,#42              ; [CPU_] |119| 
     982 00000166 28A9          MOV       AL,#1107              ; [CPU_] |119| 
         00000167 0453 
     983 00000168 28A8          MOV       AH,#16233             ; [CPU_] |119| 
         00000169 3F69 
     984 0000016a 1E94          MOVL      *+XAR4[AR0],ACC       ; [CPU_] |119| 
     985                      .dwpsn  file "D:/BM1000/sw/modules/user/src/32b/user.c",line 121,column 3,is_stmt
     986 0000016b D02C          MOVB      XAR0,#44              ; [CPU_] |121| 
     987 0000016c 28A9          MOV       AL,#38797             ; [CPU_] |121| 
         0000016d 978D 
     988 0000016e 28A8          MOV       AH,#16382             ; [CPU_] |121| 
         0000016f 3FFE 
     989 00000170 1E94          MOVL      *+XAR4[AR0],ACC       ; [CPU_] |121| 
     990                      .dwpsn  file "D:/BM1000/sw/modules/user/src/32b/user.c",line 123,column 3,is_stmt
     991 00000171 D02E          MOVB      XAR0,#46              ; [CPU_] |123| 
     992 00000172 28A9          MOV       AL,#18377             ; [CPU_] |123| 
         00000173 47C9 
     993 00000174 28A8          MOV       AH,#17682             ; [CPU_] |123| 
         00000175 4512 
     994 00000176 1E94          MOVL      *+XAR4[AR0],ACC       ; [CPU_] |123| 
     995                      .dwpsn  file "D:/BM1000/sw/modules/user/src/32b/user.c",line 125,column 3,is_stmt
     996 00000177 D030          MOVB      XAR0,#48              ; [CPU_] |125| 
     997 00000178 FF2F          MOV       ACC,#32256 << 15      ; [CPU_] |125| 
         00000179 7E00 
     998 0000017a 1E94          MOVL      *+XAR4[AR0],ACC       ; [CPU_] |125| 
     999                      .dwpsn  file "D:/BM1000/sw/modules/user/src/32b/user.c",line 127,column 3,is_stmt
    1000 0000017b D032          MOVB      XAR0,#50              ; [CPU_] |127| 
    1001 0000017c FF2F          MOV       ACC,#32640 << 15      ; [CPU_] |127| 
         0000017d 7F80 
    1002 0000017e 1E94          MOVL      *+XAR4[AR0],ACC       ; [CPU_] |127| 
    1003                      .dwpsn  file "D:/BM1000/sw/modules/user/src/32b/user.c",line 137,column 7,is_stmt
    1004 0000017f D024          MOVB      XAR0,#36              ; [CPU_] |137| 
    1005 00000180 FF2F          MOV       ACC,#32512 << 15      ; [CPU_] |137| 
         00000181 7F00 
    1006 00000182 1E94          MOVL      *+XAR4[AR0],ACC       ; [CPU_] |137| 
    1007                      .dwpsn  file "D:/BM1000/sw/modules/user/src/32b/user.c",line 143,column 3,is_stmt
    1008 00000183 D04E          MOVB      XAR0,#78              ; [CPU_] |143| 
    1009 00000184 1E94          MOVL      *+XAR4[AR0],ACC       ; [CPU_] |143| 
    1010                      .dwpsn  file "D:/BM1000/sw/modules/user/src/32b/user.c",line 144,column 3,is_stmt
    1011 00000185 D04C          MOVB      XAR0,#76              ; [CPU_] |144| 
    1012 00000186 1E94          MOVL      *+XAR4[AR0],ACC       ; [CPU_] |144| 
    1013                      .dwpsn  file "D:/BM1000/sw/modules/user/src/32b/user.c",line 145,column 3,is_stmt
    1014 00000187 D050          MOVB      XAR0,#80              ; [CPU_] |145| 
    1015 00000188 28A9          MOV       AL,#46871             ; [CPU_] |145| 
         00000189 B717 
    1016 0000018a 28A8          MOV       AH,#14545             ; [CPU_] |145| 
         0000018b 38D1 
    1017 0000018c 1E94          MOVL      *+XAR4[AR0],ACC       ; [CPU_] |145| 
    1018                      .dwpsn  file "D:/BM1000/sw/modules/user/src/32b/user.c",line 149,column 3,is_stmt
    1019 0000018d D09E          MOVB      XAR0,#158             ; [CPU_] |149| 
    1020                      .dwpsn  file "D:/BM1000/sw/modules/user/src/32b/user.c",line 153,column 3,is_stmt
    1021 0000018e 0232          MOVB      ACC,#50               ; [CPU_] |153| 
    1022                      .dwpsn  file "D:/BM1000/sw/modules/user/src/32b/user.c",line 149,column 3,is_stmt
    1023 0000018f A094          MOVL      *+XAR4[AR0],XAR5      ; [CPU_] |149| 
TMS320C2000 Assembler PC v6.2.5 Sat Sep 16 14:47:35 2017

Tools Copyright (c) 1996-2014 Texas Instruments Incorporated
C:\Users\wmj\AppData\Local\Temp\1316010                              PAGE   22

    1024                      .dwpsn  file "D:/BM1000/sw/modules/user/src/32b/user.c",line 151,column 3,is_stmt
    1025 00000190 D0A0          MOVB      XAR0,#160             ; [CPU_] |151| 
    1026 00000191 A094          MOVL      *+XAR4[AR0],XAR5      ; [CPU_] |151| 
    1027                      .dwpsn  file "D:/BM1000/sw/modules/user/src/32b/user.c",line 153,column 3,is_stmt
    1028 00000192 D0A2          MOVB      XAR0,#162             ; [CPU_] |153| 
    1029                      .dwpsn  file "D:/BM1000/sw/modules/user/src/32b/user.c",line 155,column 3,is_stmt
    1030 00000193 8F40          MOVL      XAR5,#333             ; [CPU_U] |155| 
         00000194 014D 
    1031                      .dwpsn  file "D:/BM1000/sw/modules/user/src/32b/user.c",line 153,column 3,is_stmt
    1032 00000195 1E94          MOVL      *+XAR4[AR0],ACC       ; [CPU_] |153| 
    1033                      .dwpsn  file "D:/BM1000/sw/modules/user/src/32b/user.c",line 155,column 3,is_stmt
    1034 00000196 D0A4          MOVB      XAR0,#164             ; [CPU_] |155| 
    1035                      .dwpsn  file "D:/BM1000/sw/modules/user/src/32b/user.c",line 157,column 3,is_stmt
    1036 00000197 28A9          MOV       AL,#46871             ; [CPU_] |157| 
         00000198 B717 
    1037 00000199 28A8          MOV       AH,#14673             ; [CPU_] |157| 
         0000019a 3951 
    1038                      .dwpsn  file "D:/BM1000/sw/modules/user/src/32b/user.c",line 155,column 3,is_stmt
    1039 0000019b A094          MOVL      *+XAR4[AR0],XAR5      ; [CPU_] |155| 
    1040                      .dwpsn  file "D:/BM1000/sw/modules/user/src/32b/user.c",line 157,column 3,is_stmt
    1041 0000019c D0A6          MOVB      XAR0,#166             ; [CPU_] |157| 
    1042 0000019d 1E94          MOVL      *+XAR4[AR0],ACC       ; [CPU_] |157| 
    1043              $C$DW$90        .dwtag  DW_TAG_TI_branch
    1044                      .dwattr $C$DW$90, DW_AT_low_pc(0x00)
    1045                      .dwattr $C$DW$90, DW_AT_TI_return
    1046 0000019e 0006          LRETR     ; [CPU_] 
    1047                      ; return occurs ; [] 
    1048                      .dwattr $C$DW$87, DW_AT_TI_end_file("D:/BM1000/sw/modules/user/src/32b/user.c")
    1049                      .dwattr $C$DW$87, DW_AT_TI_end_line(0xa2)
    1050                      .dwattr $C$DW$87, DW_AT_TI_end_column(0x01)
    1051                      .dwendentry
    1052                      .dwendtag $C$DW$87
    1053              
    1054 0000019f               .sect   ".text"
    1055                      .clink
    1056                      .global _USER_setMotorParams
    1057              
    1058              $C$DW$91        .dwtag  DW_TAG_subprogram, DW_AT_name("USER_setMotorParams")
    1059                      .dwattr $C$DW$91, DW_AT_low_pc(_USER_setMotorParams)
    1060                      .dwattr $C$DW$91, DW_AT_high_pc(0x00)
    1061                      .dwattr $C$DW$91, DW_AT_TI_symbol_name("_USER_setMotorParams")
    1062                      .dwattr $C$DW$91, DW_AT_external
    1063                      .dwattr $C$DW$91, DW_AT_TI_begin_file("D:/BM1000/sw/modules/user/src/32b/user.c")
    1064                      .dwattr $C$DW$91, DW_AT_TI_begin_line(0xd5)
    1065                      .dwattr $C$DW$91, DW_AT_TI_begin_column(0x06)
    1066                      .dwattr $C$DW$91, DW_AT_TI_max_frame_size(-6)
    1067                      .dwpsn  file "D:/BM1000/sw/modules/user/src/32b/user.c",line 214,column 1,is_stmt,address _USER_setMo
    1068              
    1069                      .dwfde $C$DW$CIE, _USER_setMotorParams
    1070              $C$DW$92        .dwtag  DW_TAG_formal_parameter, DW_AT_name("pUserParams")
    1071                      .dwattr $C$DW$92, DW_AT_TI_symbol_name("_pUserParams")
    1072                      .dwattr $C$DW$92, DW_AT_type(*$C$DW$T$80)
    1073                      .dwattr $C$DW$92, DW_AT_location[DW_OP_reg12]
    1074              
    1075              ;***************************************************************
TMS320C2000 Assembler PC v6.2.5 Sat Sep 16 14:47:35 2017

Tools Copyright (c) 1996-2014 Texas Instruments Incorporated
C:\Users\wmj\AppData\Local\Temp\1316010                              PAGE   23

    1076              ;* FNAME: _USER_setMotorParams          FR SIZE:   4           *
    1077              ;*                                                             *
    1078              ;* FUNCTION ENVIRONMENT                                        *
    1079              ;*                                                             *
    1080              ;* FUNCTION PROPERTIES                                         *
    1081              ;*                            2 Parameter,  0 Auto,  2 SOE     *
    1082              ;***************************************************************
    1083              
    1084              _USER_setMotorParams:
    1085              ;* AR4   assigned to $O$C1
    1086              ;* AR1   assigned to _pUserParams
    1087              $C$DW$93        .dwtag  DW_TAG_variable, DW_AT_name("pUserParams")
    1088                      .dwattr $C$DW$93, DW_AT_TI_symbol_name("_pUserParams")
    1089                      .dwattr $C$DW$93, DW_AT_type(*$C$DW$T$91)
    1090                      .dwattr $C$DW$93, DW_AT_location[DW_OP_reg6]
    1091                      .dwcfi  cfa_offset, -2
    1092                      .dwcfi  save_reg_to_mem, 26, 0
    1093                      .dwcfi  save_reg_to_reg, 78, 26
    1094 0000019f B2BD          MOVL      *SP++,XAR1            ; [CPU_] 
    1095                      .dwcfi  save_reg_to_mem, 7, 2
    1096                      .dwcfi  cfa_offset, -4
    1097 000001a0 FE02          ADDB      SP,#2                 ; [CPU_U] 
    1098                      .dwcfi  cfa_offset, -6
    1099 000001a1 8BA4          MOVL      XAR1,XAR4             ; [CPU_] |214| 
    1100                      .dwpsn  file "D:/BM1000/sw/modules/user/src/32b/user.c",line 216,column 3,is_stmt
    1101 000001a2 D0AB          MOVB      XAR0,#171             ; [CPU_] |216| 
    1102 000001a3 28AC          MOV       T,#22                 ; [CPU_] |216| 
         000001a4 0016 
    1103 000001a5 8F00-         MOVL      XAR4,#_MOTOR_DATA     ; [CPU_U] |216| 
         000001a6 0000 
    1104 000001a7 C5A4          MOVL      XAR7,XAR4             ; [CPU_] |216| 
    1105 000001a8 3091          MPYXU     ACC,T,*+XAR1[AR0]     ; [CPU_] |216| 
    1106                      .dwpsn  file "D:/BM1000/sw/modules/user/src/32b/user.c",line 217,column 3,is_stmt
    1107 000001a9 83A4          MOVL      XAR5,XAR4             ; [CPU_] |217| 
    1108                      .dwpsn  file "D:/BM1000/sw/modules/user/src/32b/user.c",line 216,column 3,is_stmt
    1109 000001aa D034          MOVB      XAR0,#52              ; [CPU_] |216| 
    1110 000001ab 5601          ADDL      XAR7,ACC              ; [CPU_] |216| 
         000001ac 00A7 
    1111 000001ad 92C7          MOV       AL,*XAR7              ; [CPU_] |216| 
    1112 000001ae 9691          MOV       *+XAR1[AR0],AL        ; [CPU_] |216| 
    1113                      .dwpsn  file "D:/BM1000/sw/modules/user/src/32b/user.c",line 217,column 3,is_stmt
    1114 000001af D0AB          MOVB      XAR0,#171             ; [CPU_] |217| 
    1115 000001b0 3091          MPYXU     ACC,T,*+XAR1[AR0]     ; [CPU_] |217| 
    1116 000001b1 D035          MOVB      XAR0,#53              ; [CPU_] |217| 
    1117 000001b2 5601          ADDL      XAR5,ACC              ; [CPU_] |217| 
         000001b3 00A5 
    1118 000001b4 92CD          MOV       AL,*+XAR5[1]          ; [CPU_] |217| 
    1119                      .dwpsn  file "D:/BM1000/sw/modules/user/src/32b/user.c",line 218,column 3,is_stmt
    1120 000001b5 83A4          MOVL      XAR5,XAR4             ; [CPU_] |218| 
    1121                      .dwpsn  file "D:/BM1000/sw/modules/user/src/32b/user.c",line 217,column 3,is_stmt
    1122 000001b6 9691          MOV       *+XAR1[AR0],AL        ; [CPU_] |217| 
    1123                      .dwpsn  file "D:/BM1000/sw/modules/user/src/32b/user.c",line 218,column 3,is_stmt
    1124 000001b7 D0AB          MOVB      XAR0,#171             ; [CPU_] |218| 
    1125 000001b8 3091          MPYXU     ACC,T,*+XAR1[AR0]     ; [CPU_] |218| 
    1126 000001b9 D00A          MOVB      XAR0,#10              ; [CPU_] |218| 
TMS320C2000 Assembler PC v6.2.5 Sat Sep 16 14:47:35 2017

Tools Copyright (c) 1996-2014 Texas Instruments Incorporated
C:\Users\wmj\AppData\Local\Temp\1316010                              PAGE   24

    1127 000001ba 5601          ADDL      XAR5,ACC              ; [CPU_] |218| 
         000001bb 00A5 
    1128 000001bc 0695          MOVL      ACC,*+XAR5[AR0]       ; [CPU_] |218| 
    1129 000001bd D036          MOVB      XAR0,#54              ; [CPU_] |218| 
    1130                      .dwpsn  file "D:/BM1000/sw/modules/user/src/32b/user.c",line 219,column 3,is_stmt
    1131 000001be 83A4          MOVL      XAR5,XAR4             ; [CPU_] |219| 
    1132                      .dwpsn  file "D:/BM1000/sw/modules/user/src/32b/user.c",line 218,column 3,is_stmt
    1133 000001bf 1E91          MOVL      *+XAR1[AR0],ACC       ; [CPU_] |218| 
    1134                      .dwpsn  file "D:/BM1000/sw/modules/user/src/32b/user.c",line 219,column 3,is_stmt
    1135 000001c0 D0AB          MOVB      XAR0,#171             ; [CPU_] |219| 
    1136 000001c1 3091          MPYXU     ACC,T,*+XAR1[AR0]     ; [CPU_] |219| 
    1137 000001c2 D038          MOVB      XAR0,#56              ; [CPU_] |219| 
    1138 000001c3 5601          ADDL      XAR5,ACC              ; [CPU_] |219| 
         000001c4 00A5 
    1139 000001c5 06D5          MOVL      ACC,*+XAR5[2]         ; [CPU_] |219| 
    1140                      .dwpsn  file "D:/BM1000/sw/modules/user/src/32b/user.c",line 220,column 3,is_stmt
    1141 000001c6 83A4          MOVL      XAR5,XAR4             ; [CPU_] |220| 
    1142                      .dwpsn  file "D:/BM1000/sw/modules/user/src/32b/user.c",line 219,column 3,is_stmt
    1143 000001c7 1E91          MOVL      *+XAR1[AR0],ACC       ; [CPU_] |219| 
    1144                      .dwpsn  file "D:/BM1000/sw/modules/user/src/32b/user.c",line 220,column 3,is_stmt
    1145 000001c8 D0AB          MOVB      XAR0,#171             ; [CPU_] |220| 
    1146 000001c9 3091          MPYXU     ACC,T,*+XAR1[AR0]     ; [CPU_] |220| 
    1147 000001ca D03A          MOVB      XAR0,#58              ; [CPU_] |220| 
    1148 000001cb 5601          ADDL      XAR5,ACC              ; [CPU_] |220| 
         000001cc 00A5 
    1149 000001cd 06E5          MOVL      ACC,*+XAR5[4]         ; [CPU_] |220| 
    1150                      .dwpsn  file "D:/BM1000/sw/modules/user/src/32b/user.c",line 221,column 3,is_stmt
    1151 000001ce 83A4          MOVL      XAR5,XAR4             ; [CPU_] |221| 
    1152                      .dwpsn  file "D:/BM1000/sw/modules/user/src/32b/user.c",line 220,column 3,is_stmt
    1153 000001cf 1E91          MOVL      *+XAR1[AR0],ACC       ; [CPU_] |220| 
    1154                      .dwpsn  file "D:/BM1000/sw/modules/user/src/32b/user.c",line 221,column 3,is_stmt
    1155 000001d0 D0AB          MOVB      XAR0,#171             ; [CPU_] |221| 
    1156 000001d1 3091          MPYXU     ACC,T,*+XAR1[AR0]     ; [CPU_] |221| 
    1157 000001d2 D03C          MOVB      XAR0,#60              ; [CPU_] |221| 
    1158 000001d3 5601          ADDL      XAR5,ACC              ; [CPU_] |221| 
         000001d4 00A5 
    1159 000001d5 06F5          MOVL      ACC,*+XAR5[6]         ; [CPU_] |221| 
    1160                      .dwpsn  file "D:/BM1000/sw/modules/user/src/32b/user.c",line 222,column 3,is_stmt
    1161 000001d6 83A4          MOVL      XAR5,XAR4             ; [CPU_] |222| 
    1162                      .dwpsn  file "D:/BM1000/sw/modules/user/src/32b/user.c",line 221,column 3,is_stmt
    1163 000001d7 1E91          MOVL      *+XAR1[AR0],ACC       ; [CPU_] |221| 
    1164                      .dwpsn  file "D:/BM1000/sw/modules/user/src/32b/user.c",line 222,column 3,is_stmt
    1165 000001d8 D0AB          MOVB      XAR0,#171             ; [CPU_] |222| 
    1166 000001d9 3091          MPYXU     ACC,T,*+XAR1[AR0]     ; [CPU_] |222| 
    1167 000001da D008          MOVB      XAR0,#8               ; [CPU_] |222| 
    1168 000001db 5601          ADDL      XAR5,ACC              ; [CPU_] |222| 
         000001dc 00A5 
    1169 000001dd 0695          MOVL      ACC,*+XAR5[AR0]       ; [CPU_] |222| 
    1170 000001de D03E          MOVB      XAR0,#62              ; [CPU_] |222| 
    1171                      .dwpsn  file "D:/BM1000/sw/modules/user/src/32b/user.c",line 224,column 3,is_stmt
    1172 000001df 83A4          MOVL      XAR5,XAR4             ; [CPU_] |224| 
    1173                      .dwpsn  file "D:/BM1000/sw/modules/user/src/32b/user.c",line 222,column 3,is_stmt
    1174 000001e0 1E91          MOVL      *+XAR1[AR0],ACC       ; [CPU_] |222| 
    1175                      .dwpsn  file "D:/BM1000/sw/modules/user/src/32b/user.c",line 224,column 3,is_stmt
    1176 000001e1 D0AB          MOVB      XAR0,#171             ; [CPU_] |224| 
TMS320C2000 Assembler PC v6.2.5 Sat Sep 16 14:47:35 2017

Tools Copyright (c) 1996-2014 Texas Instruments Incorporated
C:\Users\wmj\AppData\Local\Temp\1316010                              PAGE   25

    1177 000001e2 3091          MPYXU     ACC,T,*+XAR1[AR0]     ; [CPU_] |224| 
    1178 000001e3 D00C          MOVB      XAR0,#12              ; [CPU_] |224| 
    1179 000001e4 5601          ADDL      XAR5,ACC              ; [CPU_] |224| 
         000001e5 00A5 
    1180 000001e6 0695          MOVL      ACC,*+XAR5[AR0]       ; [CPU_] |224| 
    1181 000001e7 D04A          MOVB      XAR0,#74              ; [CPU_] |224| 
    1182                      .dwpsn  file "D:/BM1000/sw/modules/user/src/32b/user.c",line 225,column 3,is_stmt
    1183 000001e8 83A4          MOVL      XAR5,XAR4             ; [CPU_] |225| 
    1184                      .dwpsn  file "D:/BM1000/sw/modules/user/src/32b/user.c",line 224,column 3,is_stmt
    1185 000001e9 1E91          MOVL      *+XAR1[AR0],ACC       ; [CPU_] |224| 
    1186                      .dwpsn  file "D:/BM1000/sw/modules/user/src/32b/user.c",line 225,column 3,is_stmt
    1187 000001ea D0AB          MOVB      XAR0,#171             ; [CPU_] |225| 
    1188 000001eb 3091          MPYXU     ACC,T,*+XAR1[AR0]     ; [CPU_] |225| 
    1189 000001ec D00E          MOVB      XAR0,#14              ; [CPU_] |225| 
    1190 000001ed 5601          ADDL      XAR5,ACC              ; [CPU_] |225| 
         000001ee 00A5 
    1191 000001ef 0695          MOVL      ACC,*+XAR5[AR0]       ; [CPU_] |225| 
    1192 000001f0 D042          MOVB      XAR0,#66              ; [CPU_] |225| 
    1193                      .dwpsn  file "D:/BM1000/sw/modules/user/src/32b/user.c",line 226,column 3,is_stmt
    1194 000001f1 83A4          MOVL      XAR5,XAR4             ; [CPU_] |226| 
    1195                      .dwpsn  file "D:/BM1000/sw/modules/user/src/32b/user.c",line 225,column 3,is_stmt
    1196 000001f2 1E91          MOVL      *+XAR1[AR0],ACC       ; [CPU_] |225| 
    1197                      .dwpsn  file "D:/BM1000/sw/modules/user/src/32b/user.c",line 226,column 3,is_stmt
    1198 000001f3 D0AB          MOVB      XAR0,#171             ; [CPU_] |226| 
    1199 000001f4 3091          MPYXU     ACC,T,*+XAR1[AR0]     ; [CPU_] |226| 
    1200 000001f5 D010          MOVB      XAR0,#16              ; [CPU_] |226| 
    1201 000001f6 5601          ADDL      XAR5,ACC              ; [CPU_] |226| 
         000001f7 00A5 
    1202 000001f8 0695          MOVL      ACC,*+XAR5[AR0]       ; [CPU_] |226| 
    1203 000001f9 D044          MOVB      XAR0,#68              ; [CPU_] |226| 
    1204                      .dwpsn  file "D:/BM1000/sw/modules/user/src/32b/user.c",line 227,column 3,is_stmt
    1205 000001fa 83A4          MOVL      XAR5,XAR4             ; [CPU_] |227| 
    1206                      .dwpsn  file "D:/BM1000/sw/modules/user/src/32b/user.c",line 226,column 3,is_stmt
    1207 000001fb 1E91          MOVL      *+XAR1[AR0],ACC       ; [CPU_] |226| 
    1208                      .dwpsn  file "D:/BM1000/sw/modules/user/src/32b/user.c",line 227,column 3,is_stmt
    1209 000001fc D0AB          MOVB      XAR0,#171             ; [CPU_] |227| 
    1210 000001fd 3091          MPYXU     ACC,T,*+XAR1[AR0]     ; [CPU_] |227| 
    1211 000001fe D012          MOVB      XAR0,#18              ; [CPU_] |227| 
    1212 000001ff 5601          ADDL      XAR5,ACC              ; [CPU_] |227| 
         00000200 00A5 
    1213 00000201 0695          MOVL      ACC,*+XAR5[AR0]       ; [CPU_] |227| 
    1214 00000202 D040          MOVB      XAR0,#64              ; [CPU_] |227| 
    1215 00000203 1E91          MOVL      *+XAR1[AR0],ACC       ; [CPU_] |227| 
    1216                      .dwpsn  file "D:/BM1000/sw/modules/user/src/32b/user.c",line 228,column 3,is_stmt
    1217 00000204 D0AB          MOVB      XAR0,#171             ; [CPU_] |228| 
    1218 00000205 3091          MPYXU     ACC,T,*+XAR1[AR0]     ; [CPU_] |228| 
    1219 00000206 D014          MOVB      XAR0,#20              ; [CPU_] |228| 
    1220 00000207 5601          ADDL      XAR4,ACC              ; [CPU_] |228| 
         00000208 00A4 
    1221 00000209 0694          MOVL      ACC,*+XAR4[AR0]       ; [CPU_] |228| 
    1222 0000020a D052          MOVB      XAR0,#82              ; [CPU_] |228| 
    1223 0000020b 1E91          MOVL      *+XAR1[AR0],ACC       ; [CPU_] |228| 
    1224                      .dwpsn  file "D:/BM1000/sw/modules/user/src/32b/user.c",line 230,column 3,is_stmt
    1225 0000020c 9A00          MOV       AL,#0                 ; [CPU_] |230| 
    1226 0000020d 28A8          MOV       AH,#16672             ; [CPU_] |230| 
TMS320C2000 Assembler PC v6.2.5 Sat Sep 16 14:47:35 2017

Tools Copyright (c) 1996-2014 Texas Instruments Incorporated
C:\Users\wmj\AppData\Local\Temp\1316010                              PAGE   26

         0000020e 4120 
    1227 0000020f D042          MOVB      XAR0,#66              ; [CPU_] |230| 
    1228 00000210 1E42          MOVL      *-SP[2],ACC           ; [CPU_] |230| 
    1229 00000211 0691          MOVL      ACC,*+XAR1[AR0]       ; [CPU_] |230| 
    1230              $C$DW$94        .dwtag  DW_TAG_TI_branch
    1231                      .dwattr $C$DW$94, DW_AT_low_pc(0x00)
    1232                      .dwattr $C$DW$94, DW_AT_name("FS$$DIV")
    1233                      .dwattr $C$DW$94, DW_AT_TI_call
    1234 00000212 7640!         LCR       #FS$$DIV              ; [CPU_] |230| 
         00000213 0000 
    1235                      ; call occurs [#FS$$DIV] ; [] |230| 
    1236 00000214 1EA6          MOVL      XAR6,ACC              ; [CPU_] |230| 
    1237 00000215 28A9          MOV       AL,#32768             ; [CPU_] |230| 
         00000216 8000 
    1238 00000217 28A8          MOV       AH,#17318             ; [CPU_] |230| 
         00000218 43A6 
    1239 00000219 1E42          MOVL      *-SP[2],ACC           ; [CPU_] |230| 
    1240 0000021a 06A6          MOVL      ACC,XAR6              ; [CPU_] |230| 
    1241              $C$DW$95        .dwtag  DW_TAG_TI_branch
    1242                      .dwattr $C$DW$95, DW_AT_low_pc(0x00)
    1243                      .dwattr $C$DW$95, DW_AT_name("FS$$DIV")
    1244                      .dwattr $C$DW$95, DW_AT_TI_call
    1245 0000021b 7640!         LCR       #FS$$DIV              ; [CPU_] |230| 
         0000021c 0000 
    1246                      ; call occurs [#FS$$DIV] ; [] |230| 
    1247 0000021d D046          MOVB      XAR0,#70              ; [CPU_] |230| 
    1248 0000021e 1E91          MOVL      *+XAR1[AR0],ACC       ; [CPU_] |230| 
    1249                      .dwpsn  file "D:/BM1000/sw/modules/user/src/32b/user.c",line 231,column 3,is_stmt
    1250 0000021f 28A9          MOV       AL,#39322             ; [CPU_] |231| 
         00000220 999A 
    1251 00000221 28A8          MOV       AH,#16025             ; [CPU_] |231| 
         00000222 3E99 
    1252 00000223 D042          MOVB      XAR0,#66              ; [CPU_] |231| 
    1253 00000224 1E42          MOVL      *-SP[2],ACC           ; [CPU_] |231| 
    1254 00000225 0691          MOVL      ACC,*+XAR1[AR0]       ; [CPU_] |231| 
    1255              $C$DW$96        .dwtag  DW_TAG_TI_branch
    1256                      .dwattr $C$DW$96, DW_AT_low_pc(0x00)
    1257                      .dwattr $C$DW$96, DW_AT_name("FS$$MPY")
    1258                      .dwattr $C$DW$96, DW_AT_TI_call
    1259 00000226 7640!         LCR       #FS$$MPY              ; [CPU_] |231| 
         00000227 0000 
    1260                      ; call occurs [#FS$$MPY] ; [] |231| 
    1261 00000228 1EA6          MOVL      XAR6,ACC              ; [CPU_] |231| 
    1262 00000229 9A00          MOV       AL,#0                 ; [CPU_] |231| 
    1263 0000022a 28A8          MOV       AH,#16672             ; [CPU_] |231| 
         0000022b 4120 
    1264 0000022c 1E42          MOVL      *-SP[2],ACC           ; [CPU_] |231| 
    1265 0000022d 06A6          MOVL      ACC,XAR6              ; [CPU_] |231| 
    1266              $C$DW$97        .dwtag  DW_TAG_TI_branch
    1267                      .dwattr $C$DW$97, DW_AT_low_pc(0x00)
    1268                      .dwattr $C$DW$97, DW_AT_name("FS$$DIV")
    1269                      .dwattr $C$DW$97, DW_AT_TI_call
    1270 0000022e 7640!         LCR       #FS$$DIV              ; [CPU_] |231| 
         0000022f 0000 
    1271                      ; call occurs [#FS$$DIV] ; [] |231| 
TMS320C2000 Assembler PC v6.2.5 Sat Sep 16 14:47:35 2017

Tools Copyright (c) 1996-2014 Texas Instruments Incorporated
C:\Users\wmj\AppData\Local\Temp\1316010                              PAGE   27

    1272 00000230 1EA6          MOVL      XAR6,ACC              ; [CPU_] |231| 
    1273 00000231 28A9          MOV       AL,#32768             ; [CPU_] |231| 
         00000232 8000 
    1274 00000233 28A8          MOV       AH,#17318             ; [CPU_] |231| 
         00000234 43A6 
    1275 00000235 1E42          MOVL      *-SP[2],ACC           ; [CPU_] |231| 
    1276 00000236 06A6          MOVL      ACC,XAR6              ; [CPU_] |231| 
    1277              $C$DW$98        .dwtag  DW_TAG_TI_branch
    1278                      .dwattr $C$DW$98, DW_AT_low_pc(0x00)
    1279                      .dwattr $C$DW$98, DW_AT_name("FS$$DIV")
    1280                      .dwattr $C$DW$98, DW_AT_TI_call
    1281 00000237 7640!         LCR       #FS$$DIV              ; [CPU_] |231| 
         00000238 0000 
    1282                      ; call occurs [#FS$$DIV] ; [] |231| 
    1283 00000239 D048          MOVB      XAR0,#72              ; [CPU_] |231| 
    1284 0000023a 1E91          MOVL      *+XAR1[AR0],ACC       ; [CPU_] |231| 
    1285                      .dwpsn  file "D:/BM1000/sw/modules/user/src/32b/user.c",line 232,column 3,is_stmt
    1286 0000023b 9A00          MOV       AL,#0                 ; [CPU_] |232| 
    1287 0000023c 28A8          MOV       AH,#48896             ; [CPU_] |232| 
         0000023d BF00 
    1288 0000023e D040          MOVB      XAR0,#64              ; [CPU_] |232| 
    1289 0000023f 1E42          MOVL      *-SP[2],ACC           ; [CPU_] |232| 
    1290 00000240 0691          MOVL      ACC,*+XAR1[AR0]       ; [CPU_] |232| 
    1291              $C$DW$99        .dwtag  DW_TAG_TI_branch
    1292                      .dwattr $C$DW$99, DW_AT_low_pc(0x00)
    1293                      .dwattr $C$DW$99, DW_AT_name("FS$$MPY")
    1294                      .dwattr $C$DW$99, DW_AT_TI_call
    1295 00000241 7640!         LCR       #FS$$MPY              ; [CPU_] |232| 
         00000242 0000 
    1296                      ; call occurs [#FS$$MPY] ; [] |232| 
    1297 00000243 D0A8          MOVB      XAR0,#168             ; [CPU_] |232| 
    1298 00000244 1E91          MOVL      *+XAR1[AR0],ACC       ; [CPU_] |232| 
    1299 00000245 FE82          SUBB      SP,#2                 ; [CPU_U] 
    1300                      .dwcfi  cfa_offset, -4
    1301 00000246 8BBE          MOVL      XAR1,*--SP            ; [CPU_] 
    1302                      .dwcfi  cfa_offset, -2
    1303                      .dwcfi  restore_reg, 7
    1304              $C$DW$100       .dwtag  DW_TAG_TI_branch
    1305                      .dwattr $C$DW$100, DW_AT_low_pc(0x00)
    1306                      .dwattr $C$DW$100, DW_AT_TI_return
    1307 00000247 0006          LRETR     ; [CPU_] 
    1308                      ; return occurs ; [] 
    1309                      .dwattr $C$DW$91, DW_AT_TI_end_file("D:/BM1000/sw/modules/user/src/32b/user.c")
    1310                      .dwattr $C$DW$91, DW_AT_TI_end_line(0xeb)
    1311                      .dwattr $C$DW$91, DW_AT_TI_end_column(0x01)
    1312                      .dwendentry
    1313                      .dwendtag $C$DW$91
    1314              
    1315 00000248               .sect   ".text"
    1316                      .clink
    1317                      .global _USER_setMotorIDs
    1318              
    1319              $C$DW$101       .dwtag  DW_TAG_subprogram, DW_AT_name("USER_setMotorIDs")
    1320                      .dwattr $C$DW$101, DW_AT_low_pc(_USER_setMotorIDs)
    1321                      .dwattr $C$DW$101, DW_AT_high_pc(0x00)
TMS320C2000 Assembler PC v6.2.5 Sat Sep 16 14:47:35 2017

Tools Copyright (c) 1996-2014 Texas Instruments Incorporated
C:\Users\wmj\AppData\Local\Temp\1316010                              PAGE   28

    1322                      .dwattr $C$DW$101, DW_AT_TI_symbol_name("_USER_setMotorIDs")
    1323                      .dwattr $C$DW$101, DW_AT_external
    1324                      .dwattr $C$DW$101, DW_AT_TI_begin_file("D:/BM1000/sw/modules/user/src/32b/user.c")
    1325                      .dwattr $C$DW$101, DW_AT_TI_begin_line(0xed)
    1326                      .dwattr $C$DW$101, DW_AT_TI_begin_column(0x06)
    1327                      .dwattr $C$DW$101, DW_AT_TI_max_frame_size(-2)
    1328                      .dwpsn  file "D:/BM1000/sw/modules/user/src/32b/user.c",line 238,column 1,is_stmt,address _USER_setMo
    1329              
    1330                      .dwfde $C$DW$CIE, _USER_setMotorIDs
    1331              $C$DW$102       .dwtag  DW_TAG_formal_parameter, DW_AT_name("pUserParams")
    1332                      .dwattr $C$DW$102, DW_AT_TI_symbol_name("_pUserParams")
    1333                      .dwattr $C$DW$102, DW_AT_type(*$C$DW$T$80)
    1334                      .dwattr $C$DW$102, DW_AT_location[DW_OP_reg12]
    1335              $C$DW$103       .dwtag  DW_TAG_formal_parameter, DW_AT_name("motor_ID")
    1336                      .dwattr $C$DW$103, DW_AT_TI_symbol_name("_motor_ID")
    1337                      .dwattr $C$DW$103, DW_AT_type(*$C$DW$T$101)
    1338                      .dwattr $C$DW$103, DW_AT_location[DW_OP_reg0]
    1339              
    1340              ;***************************************************************
    1341              ;* FNAME: _USER_setMotorIDs             FR SIZE:   0           *
    1342              ;*                                                             *
    1343              ;* FUNCTION ENVIRONMENT                                        *
    1344              ;*                                                             *
    1345              ;* FUNCTION PROPERTIES                                         *
    1346              ;*                            0 Parameter,  0 Auto,  0 SOE     *
    1347              ;***************************************************************
    1348              
    1349              _USER_setMotorIDs:
    1350              ;* AR4   assigned to _pUserParams
    1351              $C$DW$104       .dwtag  DW_TAG_variable, DW_AT_name("pUserParams")
    1352                      .dwattr $C$DW$104, DW_AT_TI_symbol_name("_pUserParams")
    1353                      .dwattr $C$DW$104, DW_AT_type(*$C$DW$T$91)
    1354                      .dwattr $C$DW$104, DW_AT_location[DW_OP_reg12]
    1355              ;* AL    assigned to _motor_ID
    1356              $C$DW$105       .dwtag  DW_TAG_variable, DW_AT_name("motor_ID")
    1357                      .dwattr $C$DW$105, DW_AT_TI_symbol_name("_motor_ID")
    1358                      .dwattr $C$DW$105, DW_AT_type(*$C$DW$T$101)
    1359                      .dwattr $C$DW$105, DW_AT_location[DW_OP_reg0]
    1360                      .dwcfi  cfa_offset, -2
    1361                      .dwcfi  save_reg_to_mem, 26, 0
    1362                      .dwcfi  save_reg_to_reg, 78, 26
    1363                      .dwpsn  file "D:/BM1000/sw/modules/user/src/32b/user.c",line 239,column 3,is_stmt
    1364 00000248 D0AB          MOVB      XAR0,#171             ; [CPU_] |239| 
    1365 00000249 9694          MOV       *+XAR4[AR0],AL        ; [CPU_] |239| 
    1366              $C$DW$106       .dwtag  DW_TAG_TI_branch
    1367                      .dwattr $C$DW$106, DW_AT_low_pc(0x00)
    1368                      .dwattr $C$DW$106, DW_AT_TI_return
    1369 0000024a 0006          LRETR     ; [CPU_] 
    1370                      ; return occurs ; [] 
    1371                      .dwattr $C$DW$101, DW_AT_TI_end_file("D:/BM1000/sw/modules/user/src/32b/user.c")
    1372                      .dwattr $C$DW$101, DW_AT_TI_end_line(0xf1)
    1373                      .dwattr $C$DW$101, DW_AT_TI_end_column(0x01)
    1374                      .dwendentry
    1375                      .dwendtag $C$DW$101
    1376              
TMS320C2000 Assembler PC v6.2.5 Sat Sep 16 14:47:35 2017

Tools Copyright (c) 1996-2014 Texas Instruments Incorporated
C:\Users\wmj\AppData\Local\Temp\1316010                              PAGE   29

    1377 0000024b               .sect   ".text"
    1378                      .clink
    1379                      .global _USER_setErrorCode
    1380              
    1381              $C$DW$107       .dwtag  DW_TAG_subprogram, DW_AT_name("USER_setErrorCode")
    1382                      .dwattr $C$DW$107, DW_AT_low_pc(_USER_setErrorCode)
    1383                      .dwattr $C$DW$107, DW_AT_high_pc(0x00)
    1384                      .dwattr $C$DW$107, DW_AT_TI_symbol_name("_USER_setErrorCode")
    1385                      .dwattr $C$DW$107, DW_AT_external
    1386                      .dwattr $C$DW$107, DW_AT_TI_begin_file("D:/BM1000/sw/modules/user/src/32b/user.c")
    1387                      .dwattr $C$DW$107, DW_AT_TI_begin_line(0x375)
    1388                      .dwattr $C$DW$107, DW_AT_TI_begin_column(0x06)
    1389                      .dwattr $C$DW$107, DW_AT_TI_max_frame_size(-2)
    1390                      .dwpsn  file "D:/BM1000/sw/modules/user/src/32b/user.c",line 886,column 1,is_stmt,address _USER_setEr
    1391              
    1392                      .dwfde $C$DW$CIE, _USER_setErrorCode
    1393              $C$DW$108       .dwtag  DW_TAG_formal_parameter, DW_AT_name("pUserParams")
    1394                      .dwattr $C$DW$108, DW_AT_TI_symbol_name("_pUserParams")
    1395                      .dwattr $C$DW$108, DW_AT_type(*$C$DW$T$80)
    1396                      .dwattr $C$DW$108, DW_AT_location[DW_OP_reg12]
    1397              $C$DW$109       .dwtag  DW_TAG_formal_parameter, DW_AT_name("errorCode")
    1398                      .dwattr $C$DW$109, DW_AT_TI_symbol_name("_errorCode")
    1399                      .dwattr $C$DW$109, DW_AT_type(*$C$DW$T$78)
    1400                      .dwattr $C$DW$109, DW_AT_location[DW_OP_reg0]
    1401              
    1402              ;***************************************************************
    1403              ;* FNAME: _USER_setErrorCode            FR SIZE:   0           *
    1404              ;*                                                             *
    1405              ;* FUNCTION ENVIRONMENT                                        *
    1406              ;*                                                             *
    1407              ;* FUNCTION PROPERTIES                                         *
    1408              ;*                            0 Parameter,  0 Auto,  0 SOE     *
    1409              ;***************************************************************
    1410              
    1411              _USER_setErrorCode:
    1412              ;* AR4   assigned to _pUserParams
    1413              $C$DW$110       .dwtag  DW_TAG_variable, DW_AT_name("pUserParams")
    1414                      .dwattr $C$DW$110, DW_AT_TI_symbol_name("_pUserParams")
    1415                      .dwattr $C$DW$110, DW_AT_type(*$C$DW$T$91)
    1416                      .dwattr $C$DW$110, DW_AT_location[DW_OP_reg12]
    1417              ;* AL    assigned to _errorCode
    1418              $C$DW$111       .dwtag  DW_TAG_variable, DW_AT_name("errorCode")
    1419                      .dwattr $C$DW$111, DW_AT_TI_symbol_name("_errorCode")
    1420                      .dwattr $C$DW$111, DW_AT_type(*$C$DW$T$78)
    1421                      .dwattr $C$DW$111, DW_AT_location[DW_OP_reg0]
    1422                      .dwcfi  cfa_offset, -2
    1423                      .dwcfi  save_reg_to_mem, 26, 0
    1424                      .dwcfi  save_reg_to_reg, 78, 26
    1425                      .dwpsn  file "D:/BM1000/sw/modules/user/src/32b/user.c",line 887,column 3,is_stmt
    1426 0000024b D0AA          MOVB      XAR0,#170             ; [CPU_] |887| 
    1427 0000024c 9694          MOV       *+XAR4[AR0],AL        ; [CPU_] |887| 
    1428              $C$DW$112       .dwtag  DW_TAG_TI_branch
    1429                      .dwattr $C$DW$112, DW_AT_low_pc(0x00)
    1430                      .dwattr $C$DW$112, DW_AT_TI_return
    1431 0000024d 0006          LRETR     ; [CPU_] 
TMS320C2000 Assembler PC v6.2.5 Sat Sep 16 14:47:35 2017

Tools Copyright (c) 1996-2014 Texas Instruments Incorporated
C:\Users\wmj\AppData\Local\Temp\1316010                              PAGE   30

    1432                      ; return occurs ; [] 
    1433                      .dwattr $C$DW$107, DW_AT_TI_end_file("D:/BM1000/sw/modules/user/src/32b/user.c")
    1434                      .dwattr $C$DW$107, DW_AT_TI_end_line(0x37a)
    1435                      .dwattr $C$DW$107, DW_AT_TI_end_column(0x01)
    1436                      .dwendentry
    1437                      .dwendtag $C$DW$107
    1438              
    1439 0000024e               .sect   ".text"
    1440                      .clink
    1441                      .global _USER_getErrorCode
    1442              
    1443              $C$DW$113       .dwtag  DW_TAG_subprogram, DW_AT_name("USER_getErrorCode")
    1444                      .dwattr $C$DW$113, DW_AT_low_pc(_USER_getErrorCode)
    1445                      .dwattr $C$DW$113, DW_AT_high_pc(0x00)
    1446                      .dwattr $C$DW$113, DW_AT_TI_symbol_name("_USER_getErrorCode")
    1447                      .dwattr $C$DW$113, DW_AT_external
    1448                      .dwattr $C$DW$113, DW_AT_type(*$C$DW$T$75)
    1449                      .dwattr $C$DW$113, DW_AT_TI_begin_file("D:/BM1000/sw/modules/user/src/32b/user.c")
    1450                      .dwattr $C$DW$113, DW_AT_TI_begin_line(0x36f)
    1451                      .dwattr $C$DW$113, DW_AT_TI_begin_column(0x12)
    1452                      .dwattr $C$DW$113, DW_AT_TI_max_frame_size(-2)
    1453                      .dwpsn  file "D:/BM1000/sw/modules/user/src/32b/user.c",line 880,column 1,is_stmt,address _USER_getEr
    1454              
    1455                      .dwfde $C$DW$CIE, _USER_getErrorCode
    1456              $C$DW$114       .dwtag  DW_TAG_formal_parameter, DW_AT_name("pUserParams")
    1457                      .dwattr $C$DW$114, DW_AT_TI_symbol_name("_pUserParams")
    1458                      .dwattr $C$DW$114, DW_AT_type(*$C$DW$T$80)
    1459                      .dwattr $C$DW$114, DW_AT_location[DW_OP_reg12]
    1460              
    1461              ;***************************************************************
    1462              ;* FNAME: _USER_getErrorCode            FR SIZE:   0           *
    1463              ;*                                                             *
    1464              ;* FUNCTION ENVIRONMENT                                        *
    1465              ;*                                                             *
    1466              ;* FUNCTION PROPERTIES                                         *
    1467              ;*                            0 Parameter,  0 Auto,  0 SOE     *
    1468              ;***************************************************************
    1469              
    1470              _USER_getErrorCode:
    1471              ;* AR4   assigned to _pUserParams
    1472              $C$DW$115       .dwtag  DW_TAG_variable, DW_AT_name("pUserParams")
    1473                      .dwattr $C$DW$115, DW_AT_TI_symbol_name("_pUserParams")
    1474                      .dwattr $C$DW$115, DW_AT_type(*$C$DW$T$91)
    1475                      .dwattr $C$DW$115, DW_AT_location[DW_OP_reg12]
    1476                      .dwcfi  cfa_offset, -2
    1477                      .dwcfi  save_reg_to_mem, 26, 0
    1478                      .dwcfi  save_reg_to_reg, 78, 26
    1479                      .dwpsn  file "D:/BM1000/sw/modules/user/src/32b/user.c",line 881,column 3,is_stmt
    1480 0000024e D0AA          MOVB      XAR0,#170             ; [CPU_] |881| 
    1481 0000024f 9294          MOV       AL,*+XAR4[AR0]        ; [CPU_] |881| 
    1482              $C$DW$116       .dwtag  DW_TAG_TI_branch
    1483                      .dwattr $C$DW$116, DW_AT_low_pc(0x00)
    1484                      .dwattr $C$DW$116, DW_AT_TI_return
    1485 00000250 0006          LRETR     ; [CPU_] 
    1486                      ; return occurs ; [] 
TMS320C2000 Assembler PC v6.2.5 Sat Sep 16 14:47:35 2017

Tools Copyright (c) 1996-2014 Texas Instruments Incorporated
C:\Users\wmj\AppData\Local\Temp\1316010                              PAGE   31

    1487                      .dwattr $C$DW$113, DW_AT_TI_end_file("D:/BM1000/sw/modules/user/src/32b/user.c")
    1488                      .dwattr $C$DW$113, DW_AT_TI_end_line(0x372)
    1489                      .dwattr $C$DW$113, DW_AT_TI_end_column(0x01)
    1490                      .dwendentry
    1491                      .dwendtag $C$DW$113
    1492              
    1493 00000251               .sect   ".text"
    1494                      .clink
    1495                      .global _USER_computeTorque_lbin
    1496              
    1497              $C$DW$117       .dwtag  DW_TAG_subprogram, DW_AT_name("USER_computeTorque_lbin")
    1498                      .dwattr $C$DW$117, DW_AT_low_pc(_USER_computeTorque_lbin)
    1499                      .dwattr $C$DW$117, DW_AT_high_pc(0x00)
    1500                      .dwattr $C$DW$117, DW_AT_TI_symbol_name("_USER_computeTorque_lbin")
    1501                      .dwattr $C$DW$117, DW_AT_external
    1502                      .dwattr $C$DW$117, DW_AT_type(*$C$DW$T$20)
    1503                      .dwattr $C$DW$117, DW_AT_TI_begin_file("D:/BM1000/sw/modules/user/src/32b/user.c")
    1504                      .dwattr $C$DW$117, DW_AT_TI_begin_line(0x41f)
    1505                      .dwattr $C$DW$117, DW_AT_TI_begin_column(0x05)
    1506                      .dwattr $C$DW$117, DW_AT_TI_max_frame_size(-16)
    1507                      .dwpsn  file "D:/BM1000/sw/modules/user/src/32b/user.c",line 1056,column 1,is_stmt,address _USER_comp
    1508              
    1509                      .dwfde $C$DW$CIE, _USER_computeTorque_lbin
    1510              $C$DW$118       .dwtag  DW_TAG_formal_parameter, DW_AT_name("handle")
    1511                      .dwattr $C$DW$118, DW_AT_TI_symbol_name("_handle")
    1512                      .dwattr $C$DW$118, DW_AT_type(*$C$DW$T$88)
    1513                      .dwattr $C$DW$118, DW_AT_location[DW_OP_reg12]
    1514              $C$DW$119       .dwtag  DW_TAG_formal_parameter, DW_AT_name("torque_Flux_sf")
    1515                      .dwattr $C$DW$119, DW_AT_TI_symbol_name("_torque_Flux_sf")
    1516                      .dwattr $C$DW$119, DW_AT_type(*$C$DW$T$98)
    1517                      .dwattr $C$DW$119, DW_AT_location[DW_OP_reg0]
    1518              $C$DW$120       .dwtag  DW_TAG_formal_parameter, DW_AT_name("torque_Ls_sf")
    1519                      .dwattr $C$DW$120, DW_AT_TI_symbol_name("_torque_Ls_sf")
    1520                      .dwattr $C$DW$120, DW_AT_type(*$C$DW$T$98)
    1521                      .dwattr $C$DW$120, DW_AT_location[DW_OP_breg20 -18]
    1522              
    1523              ;***************************************************************
    1524              ;* FNAME: _USER_computeTorque_lbin      FR SIZE:  14           *
    1525              ;*                                                             *
    1526              ;* FUNCTION ENVIRONMENT                                        *
    1527              ;*                                                             *
    1528              ;* FUNCTION PROPERTIES                                         *
    1529              ;*                            0 Parameter,  8 Auto,  6 SOE     *
    1530              ;***************************************************************
    1531              
    1532              _USER_computeTorque_lbin:
    1533              ;* AR1   assigned to _handle
    1534              $C$DW$121       .dwtag  DW_TAG_variable, DW_AT_name("handle")
    1535                      .dwattr $C$DW$121, DW_AT_TI_symbol_name("_handle")
    1536                      .dwattr $C$DW$121, DW_AT_type(*$C$DW$T$89)
    1537                      .dwattr $C$DW$121, DW_AT_location[DW_OP_reg6]
    1538              $C$DW$122       .dwtag  DW_TAG_variable, DW_AT_name("torque_Flux_sf")
    1539                      .dwattr $C$DW$122, DW_AT_TI_symbol_name("_torque_Flux_sf")
    1540                      .dwattr $C$DW$122, DW_AT_type(*$C$DW$T$98)
    1541                      .dwattr $C$DW$122, DW_AT_location[DW_OP_breg20 -2]
TMS320C2000 Assembler PC v6.2.5 Sat Sep 16 14:47:35 2017

Tools Copyright (c) 1996-2014 Texas Instruments Incorporated
C:\Users\wmj\AppData\Local\Temp\1316010                              PAGE   32

    1542              $C$DW$123       .dwtag  DW_TAG_variable, DW_AT_name("torque_Ls_sf")
    1543                      .dwattr $C$DW$123, DW_AT_TI_symbol_name("_torque_Ls_sf")
    1544                      .dwattr $C$DW$123, DW_AT_type(*$C$DW$T$98)
    1545                      .dwattr $C$DW$123, DW_AT_location[DW_OP_breg20 -4]
    1546              $C$DW$124       .dwtag  DW_TAG_variable, DW_AT_name("Flux_pu")
    1547                      .dwattr $C$DW$124, DW_AT_TI_symbol_name("_Flux_pu")
    1548                      .dwattr $C$DW$124, DW_AT_type(*$C$DW$T$20)
    1549                      .dwattr $C$DW$124, DW_AT_location[DW_OP_breg20 -6]
    1550              ;* AR3   assigned to _Id_pu
    1551              $C$DW$125       .dwtag  DW_TAG_variable, DW_AT_name("Id_pu")
    1552                      .dwattr $C$DW$125, DW_AT_TI_symbol_name("_Id_pu")
    1553                      .dwattr $C$DW$125, DW_AT_type(*$C$DW$T$20)
    1554                      .dwattr $C$DW$125, DW_AT_location[DW_OP_reg10]
    1555              ;* AR2   assigned to _Iq_pu
    1556              $C$DW$126       .dwtag  DW_TAG_variable, DW_AT_name("Iq_pu")
    1557                      .dwattr $C$DW$126, DW_AT_TI_symbol_name("_Iq_pu")
    1558                      .dwattr $C$DW$126, DW_AT_type(*$C$DW$T$20)
    1559                      .dwattr $C$DW$126, DW_AT_location[DW_OP_reg8]
    1560              ;* AR7   assigned to _Ld_minus_Lq_pu
    1561              $C$DW$127       .dwtag  DW_TAG_variable, DW_AT_name("Ld_minus_Lq_pu")
    1562                      .dwattr $C$DW$127, DW_AT_TI_symbol_name("_Ld_minus_Lq_pu")
    1563                      .dwattr $C$DW$127, DW_AT_type(*$C$DW$T$20)
    1564                      .dwattr $C$DW$127, DW_AT_location[DW_OP_reg18]
    1565                      .dwcfi  cfa_offset, -2
    1566                      .dwcfi  save_reg_to_mem, 26, 0
    1567                      .dwcfi  save_reg_to_reg, 78, 26
    1568 00000251 B2BD          MOVL      *SP++,XAR1            ; [CPU_] 
    1569                      .dwcfi  save_reg_to_mem, 7, 2
    1570                      .dwcfi  cfa_offset, -4
    1571 00000252 AABD          MOVL      *SP++,XAR2            ; [CPU_] 
    1572                      .dwcfi  save_reg_to_mem, 9, 4
    1573                      .dwcfi  cfa_offset, -6
    1574 00000253 A2BD          MOVL      *SP++,XAR3            ; [CPU_] 
    1575                      .dwcfi  save_reg_to_mem, 11, 6
    1576                      .dwcfi  cfa_offset, -8
    1577 00000254 FE08          ADDB      SP,#8                 ; [CPU_U] 
    1578                      .dwcfi  cfa_offset, -16
    1579                      .dwpsn  file "D:/BM1000/sw/modules/user/src/32b/user.c",line 1059,column 15,is_stmt
    1580 00000255 D018          MOVB      XAR0,#24              ; [CPU_] |1059| 
    1581                      .dwpsn  file "D:/BM1000/sw/modules/user/src/32b/user.c",line 1056,column 1,is_stmt
    1582 00000256 8BA4          MOVL      XAR1,XAR4             ; [CPU_] |1056| 
    1583 00000257 1E42          MOVL      *-SP[2],ACC           ; [CPU_] |1056| 
    1584 00000258 0652          MOVL      ACC,*-SP[18]          ; [CPU_] |1056| 
    1585 00000259 1E44          MOVL      *-SP[4],ACC           ; [CPU_] |1056| 
    1586                      .dwpsn  file "D:/BM1000/sw/modules/user/src/32b/user.c",line 1059,column 15,is_stmt
    1587 0000025a 8A91          MOVL      XAR4,*+XAR1[AR0]      ; [CPU_] |1059| 
    1588              $C$DW$128       .dwtag  DW_TAG_TI_branch
    1589                      .dwattr $C$DW$128, DW_AT_low_pc(0x00)
    1590                      .dwattr $C$DW$128, DW_AT_name("_EST_getFlux_pu")
    1591                      .dwattr $C$DW$128, DW_AT_TI_call
    1592 0000025b 7640!         LCR       #_EST_getFlux_pu      ; [CPU_] |1059| 
         0000025c 0000 
    1593                      ; call occurs [#_EST_getFlux_pu] ; [] |1059| 
    1594                      .dwpsn  file "D:/BM1000/sw/modules/pid/src/32b/pid.h",line 106,column 3,is_stmt
    1595 0000025d D020          MOVB      XAR0,#32              ; [CPU_] |106| 
TMS320C2000 Assembler PC v6.2.5 Sat Sep 16 14:47:35 2017

Tools Copyright (c) 1996-2014 Texas Instruments Incorporated
C:\Users\wmj\AppData\Local\Temp\1316010                              PAGE   33

    1596                      .dwpsn  file "D:/BM1000/sw/modules/user/src/32b/user.c",line 1059,column 15,is_stmt
    1597 0000025e 1E46          MOVL      *-SP[6],ACC           ; [CPU_] |1059| 
    1598                      .dwpsn  file "D:/BM1000/sw/modules/pid/src/32b/pid.h",line 106,column 3,is_stmt
    1599 0000025f 8A91          MOVL      XAR4,*+XAR1[AR0]      ; [CPU_] |106| 
    1600 00000260 D00A          MOVB      XAR0,#10              ; [CPU_] |106| 
    1601 00000261 8294          MOVL      XAR3,*+XAR4[AR0]      ; [CPU_] |106| 
    1602 00000262 D032          MOVB      XAR0,#50              ; [CPU_] |106| 
    1603 00000263 8A91          MOVL      XAR4,*+XAR1[AR0]      ; [CPU_] |106| 
    1604 00000264 D00A          MOVB      XAR0,#10              ; [CPU_] |106| 
    1605 00000265 8694          MOVL      XAR2,*+XAR4[AR0]      ; [CPU_] |106| 
    1606                      .dwpsn  file "D:/BM1000/sw/modules/user/src/32b/user.c",line 1062,column 22,is_stmt
    1607 00000266 D018          MOVB      XAR0,#24              ; [CPU_] |1062| 
    1608 00000267 8A91          MOVL      XAR4,*+XAR1[AR0]      ; [CPU_] |1062| 
    1609              $C$DW$129       .dwtag  DW_TAG_TI_branch
    1610                      .dwattr $C$DW$129, DW_AT_low_pc(0x00)
    1611                      .dwattr $C$DW$129, DW_AT_name("_EST_getLs_q_pu")
    1612                      .dwattr $C$DW$129, DW_AT_TI_call
    1613 00000268 7640!         LCR       #_EST_getLs_q_pu      ; [CPU_] |1062| 
         00000269 0000 
    1614                      ; call occurs [#_EST_getLs_q_pu] ; [] |1062| 
    1615 0000026a D018          MOVB      XAR0,#24              ; [CPU_] |1062| 
    1616 0000026b 1E48          MOVL      *-SP[8],ACC           ; [CPU_] |1062| 
    1617 0000026c 8A91          MOVL      XAR4,*+XAR1[AR0]      ; [CPU_] |1062| 
    1618              $C$DW$130       .dwtag  DW_TAG_TI_branch
    1619                      .dwattr $C$DW$130, DW_AT_low_pc(0x00)
    1620                      .dwattr $C$DW$130, DW_AT_name("_EST_getLs_d_pu")
    1621                      .dwattr $C$DW$130, DW_AT_TI_call
    1622 0000026d 7640!         LCR       #_EST_getLs_d_pu      ; [CPU_] |1062| 
         0000026e 0000 
    1623                      ; call occurs [#_EST_getLs_d_pu] ; [] |1062| 
    1624 0000026f C448          MOVL      XAR6,*-SP[8]          ; [CPU_] |1062| 
    1625 00000270 3B01          SETC      SXM                   ; [CPU_] 
    1626 00000271 8746          MOVL      XT,*-SP[6]            ; [CPU_] |1062| 
    1627 00000272 03A6          SUBL      ACC,XAR6              ; [CPU_] |1062| 
    1628                      .dwpsn  file "D:/BM1000/sw/modules/user/src/32b/user.c",line 1067,column 3,is_stmt
    1629 00000273 5605          IMPYL     P,XT,XAR2             ; [CPU_] |1067| 
         00000274 00A2 
    1630                      .dwpsn  file "D:/BM1000/sw/modules/user/src/32b/user.c",line 1062,column 22,is_stmt
    1631 00000275 FF45          SFR       ACC,6                 ; [CPU_] |1062| 
    1632                      .dwpsn  file "D:/BM1000/sw/modules/user/src/32b/user.c",line 1067,column 3,is_stmt
    1633 00000276 8746          MOVL      XT,*-SP[6]            ; [CPU_] |1067| 
    1634 00000277 C442          MOVL      XAR6,*-SP[2]          ; [CPU_] |1067| 
    1635                      .dwpsn  file "D:/BM1000/sw/modules/user/src/32b/user.c",line 1062,column 22,is_stmt
    1636 00000278 1EA7          MOVL      XAR7,ACC              ; [CPU_] |1062| 
    1637                      .dwpsn  file "D:/BM1000/sw/modules/user/src/32b/user.c",line 1067,column 3,is_stmt
    1638 00000279 5663          QMPYL     ACC,XT,XAR2           ; [CPU_] |1067| 
         0000027a 00A2 
    1639 0000027b 56A7          LSL64     ACC:P,#8              ; [CPU_] |1067| 
    1640 0000027c 1EAC          MOVL      XT,ACC                ; [CPU_] |1067| 
    1641 0000027d 0642          MOVL      ACC,*-SP[2]           ; [CPU_] |1067| 
    1642 0000027e 5605          IMPYL     P,XT,XAR6             ; [CPU_] |1067| 
         0000027f 00A6 
    1643 00000280 5663          QMPYL     ACC,XT,ACC            ; [CPU_] |1067| 
         00000281 00A9 
    1644 00000282 87A7          MOVL      XT,XAR7               ; [CPU_] |1067| 
TMS320C2000 Assembler PC v6.2.5 Sat Sep 16 14:47:35 2017

Tools Copyright (c) 1996-2014 Texas Instruments Incorporated
C:\Users\wmj\AppData\Local\Temp\1316010                              PAGE   34

    1645 00000283 56A7          LSL64     ACC:P,#8              ; [CPU_] |1067| 
    1646 00000284 C544          MOVL      XAR7,*-SP[4]          ; [CPU_] |1067| 
    1647 00000285 1EA6          MOVL      XAR6,ACC              ; [CPU_] |1067| 
    1648 00000286 5605          IMPYL     P,XT,XAR3             ; [CPU_] |1067| 
         00000287 00A3 
    1649 00000288 5663          QMPYL     ACC,XT,XAR3           ; [CPU_] |1067| 
         00000289 00A3 
    1650 0000028a 56A7          LSL64     ACC:P,#8              ; [CPU_] |1067| 
    1651 0000028b 1EAC          MOVL      XT,ACC                ; [CPU_] |1067| 
    1652 0000028c 5605          IMPYL     P,XT,XAR2             ; [CPU_] |1067| 
         0000028d 00A2 
    1653 0000028e 5663          QMPYL     ACC,XT,XAR2           ; [CPU_] |1067| 
         0000028f 00A2 
    1654 00000290 56A7          LSL64     ACC:P,#8              ; [CPU_] |1067| 
    1655 00000291 1EAC          MOVL      XT,ACC                ; [CPU_] |1067| 
    1656 00000292 0644          MOVL      ACC,*-SP[4]           ; [CPU_] |1067| 
    1657 00000293 5605          IMPYL     P,XT,XAR7             ; [CPU_] |1067| 
         00000294 00A7 
    1658 00000295 5663          QMPYL     ACC,XT,ACC            ; [CPU_] |1067| 
         00000296 00A9 
    1659 00000297 56A7          LSL64     ACC:P,#8              ; [CPU_] |1067| 
    1660 00000298 07A6          ADDL      ACC,XAR6              ; [CPU_] |1067| 
    1661 00000299 1EAC          MOVL      XT,ACC                ; [CPU_] |1067| 
    1662 0000029a FE88          SUBB      SP,#8                 ; [CPU_U] 
    1663                      .dwcfi  cfa_offset, -8
    1664 0000029b 28A9          MOV       AL,#51840             ; [CPU_] |1067| 
         0000029c CA80 
    1665 0000029d 28A8          MOV       AH,#2265              ; [CPU_] |1067| 
         0000029e 08D9 
    1666 0000029f 5605          IMPYL     P,XT,ACC              ; [CPU_] |1067| 
         000002a0 00A9 
    1667 000002a1 5663          QMPYL     ACC,XT,ACC            ; [CPU_] |1067| 
         000002a2 00A9 
    1668 000002a3 82BE          MOVL      XAR3,*--SP            ; [CPU_] 
    1669                      .dwcfi  cfa_offset, -6
    1670                      .dwcfi  restore_reg, 11
    1671 000002a4 56A7          LSL64     ACC:P,#8              ; [CPU_] |1067| 
    1672 000002a5 86BE          MOVL      XAR2,*--SP            ; [CPU_] 
    1673                      .dwcfi  cfa_offset, -4
    1674                      .dwcfi  restore_reg, 9
    1675 000002a6 8BBE          MOVL      XAR1,*--SP            ; [CPU_] 
    1676                      .dwcfi  cfa_offset, -2
    1677                      .dwcfi  restore_reg, 7
    1678              $C$DW$131       .dwtag  DW_TAG_TI_branch
    1679                      .dwattr $C$DW$131, DW_AT_low_pc(0x00)
    1680                      .dwattr $C$DW$131, DW_AT_TI_return
    1681 000002a7 0006          LRETR     ; [CPU_] 
    1682                      ; return occurs ; [] 
    1683                      .dwattr $C$DW$117, DW_AT_TI_end_file("D:/BM1000/sw/modules/user/src/32b/user.c")
    1684                      .dwattr $C$DW$117, DW_AT_TI_end_line(0x42c)
    1685                      .dwattr $C$DW$117, DW_AT_TI_end_column(0x01)
    1686                      .dwendentry
    1687                      .dwendtag $C$DW$117
    1688              
    1689 000002a8               .sect   ".text"
TMS320C2000 Assembler PC v6.2.5 Sat Sep 16 14:47:35 2017

Tools Copyright (c) 1996-2014 Texas Instruments Incorporated
C:\Users\wmj\AppData\Local\Temp\1316010                              PAGE   35

    1690                      .clink
    1691                      .global _USER_computeTorque_Nm
    1692              
    1693              $C$DW$132       .dwtag  DW_TAG_subprogram, DW_AT_name("USER_computeTorque_Nm")
    1694                      .dwattr $C$DW$132, DW_AT_low_pc(_USER_computeTorque_Nm)
    1695                      .dwattr $C$DW$132, DW_AT_high_pc(0x00)
    1696                      .dwattr $C$DW$132, DW_AT_TI_symbol_name("_USER_computeTorque_Nm")
    1697                      .dwattr $C$DW$132, DW_AT_external
    1698                      .dwattr $C$DW$132, DW_AT_type(*$C$DW$T$20)
    1699                      .dwattr $C$DW$132, DW_AT_TI_begin_file("D:/BM1000/sw/modules/user/src/32b/user.c")
    1700                      .dwattr $C$DW$132, DW_AT_TI_begin_line(0x40d)
    1701                      .dwattr $C$DW$132, DW_AT_TI_begin_column(0x05)
    1702                      .dwattr $C$DW$132, DW_AT_TI_max_frame_size(-16)
    1703                      .dwpsn  file "D:/BM1000/sw/modules/user/src/32b/user.c",line 1038,column 1,is_stmt,address _USER_comp
    1704              
    1705                      .dwfde $C$DW$CIE, _USER_computeTorque_Nm
    1706              $C$DW$133       .dwtag  DW_TAG_formal_parameter, DW_AT_name("handle")
    1707                      .dwattr $C$DW$133, DW_AT_TI_symbol_name("_handle")
    1708                      .dwattr $C$DW$133, DW_AT_type(*$C$DW$T$88)
    1709                      .dwattr $C$DW$133, DW_AT_location[DW_OP_reg12]
    1710              $C$DW$134       .dwtag  DW_TAG_formal_parameter, DW_AT_name("torque_Flux_sf")
    1711                      .dwattr $C$DW$134, DW_AT_TI_symbol_name("_torque_Flux_sf")
    1712                      .dwattr $C$DW$134, DW_AT_type(*$C$DW$T$98)
    1713                      .dwattr $C$DW$134, DW_AT_location[DW_OP_reg0]
    1714              $C$DW$135       .dwtag  DW_TAG_formal_parameter, DW_AT_name("torque_Ls_sf")
    1715                      .dwattr $C$DW$135, DW_AT_TI_symbol_name("_torque_Ls_sf")
    1716                      .dwattr $C$DW$135, DW_AT_type(*$C$DW$T$98)
    1717                      .dwattr $C$DW$135, DW_AT_location[DW_OP_breg20 -18]
    1718              
    1719              ;***************************************************************
    1720              ;* FNAME: _USER_computeTorque_Nm        FR SIZE:  14           *
    1721              ;*                                                             *
    1722              ;* FUNCTION ENVIRONMENT                                        *
    1723              ;*                                                             *
    1724              ;* FUNCTION PROPERTIES                                         *
    1725              ;*                            0 Parameter,  8 Auto,  6 SOE     *
    1726              ;***************************************************************
    1727              
    1728              _USER_computeTorque_Nm:
    1729              ;* AR1   assigned to _handle
    1730              $C$DW$136       .dwtag  DW_TAG_variable, DW_AT_name("handle")
    1731                      .dwattr $C$DW$136, DW_AT_TI_symbol_name("_handle")
    1732                      .dwattr $C$DW$136, DW_AT_type(*$C$DW$T$89)
    1733                      .dwattr $C$DW$136, DW_AT_location[DW_OP_reg6]
    1734              $C$DW$137       .dwtag  DW_TAG_variable, DW_AT_name("torque_Flux_sf")
    1735                      .dwattr $C$DW$137, DW_AT_TI_symbol_name("_torque_Flux_sf")
    1736                      .dwattr $C$DW$137, DW_AT_type(*$C$DW$T$98)
    1737                      .dwattr $C$DW$137, DW_AT_location[DW_OP_breg20 -2]
    1738              $C$DW$138       .dwtag  DW_TAG_variable, DW_AT_name("torque_Ls_sf")
    1739                      .dwattr $C$DW$138, DW_AT_TI_symbol_name("_torque_Ls_sf")
    1740                      .dwattr $C$DW$138, DW_AT_type(*$C$DW$T$98)
    1741                      .dwattr $C$DW$138, DW_AT_location[DW_OP_breg20 -4]
    1742              $C$DW$139       .dwtag  DW_TAG_variable, DW_AT_name("Flux_pu")
    1743                      .dwattr $C$DW$139, DW_AT_TI_symbol_name("_Flux_pu")
    1744                      .dwattr $C$DW$139, DW_AT_type(*$C$DW$T$20)
TMS320C2000 Assembler PC v6.2.5 Sat Sep 16 14:47:35 2017

Tools Copyright (c) 1996-2014 Texas Instruments Incorporated
C:\Users\wmj\AppData\Local\Temp\1316010                              PAGE   36

    1745                      .dwattr $C$DW$139, DW_AT_location[DW_OP_breg20 -6]
    1746              ;* AR3   assigned to _Id_pu
    1747              $C$DW$140       .dwtag  DW_TAG_variable, DW_AT_name("Id_pu")
    1748                      .dwattr $C$DW$140, DW_AT_TI_symbol_name("_Id_pu")
    1749                      .dwattr $C$DW$140, DW_AT_type(*$C$DW$T$20)
    1750                      .dwattr $C$DW$140, DW_AT_location[DW_OP_reg10]
    1751              ;* AR2   assigned to _Iq_pu
    1752              $C$DW$141       .dwtag  DW_TAG_variable, DW_AT_name("Iq_pu")
    1753                      .dwattr $C$DW$141, DW_AT_TI_symbol_name("_Iq_pu")
    1754                      .dwattr $C$DW$141, DW_AT_type(*$C$DW$T$20)
    1755                      .dwattr $C$DW$141, DW_AT_location[DW_OP_reg8]
    1756              ;* AR7   assigned to _Ld_minus_Lq_pu
    1757              $C$DW$142       .dwtag  DW_TAG_variable, DW_AT_name("Ld_minus_Lq_pu")
    1758                      .dwattr $C$DW$142, DW_AT_TI_symbol_name("_Ld_minus_Lq_pu")
    1759                      .dwattr $C$DW$142, DW_AT_type(*$C$DW$T$20)
    1760                      .dwattr $C$DW$142, DW_AT_location[DW_OP_reg18]
    1761                      .dwcfi  cfa_offset, -2
    1762                      .dwcfi  save_reg_to_mem, 26, 0
    1763                      .dwcfi  save_reg_to_reg, 78, 26
    1764 000002a8 B2BD          MOVL      *SP++,XAR1            ; [CPU_] 
    1765                      .dwcfi  save_reg_to_mem, 7, 2
    1766                      .dwcfi  cfa_offset, -4
    1767 000002a9 AABD          MOVL      *SP++,XAR2            ; [CPU_] 
    1768                      .dwcfi  save_reg_to_mem, 9, 4
    1769                      .dwcfi  cfa_offset, -6
    1770 000002aa A2BD          MOVL      *SP++,XAR3            ; [CPU_] 
    1771                      .dwcfi  save_reg_to_mem, 11, 6
    1772                      .dwcfi  cfa_offset, -8
    1773 000002ab FE08          ADDB      SP,#8                 ; [CPU_U] 
    1774                      .dwcfi  cfa_offset, -16
    1775                      .dwpsn  file "D:/BM1000/sw/modules/user/src/32b/user.c",line 1041,column 15,is_stmt
    1776 000002ac D018          MOVB      XAR0,#24              ; [CPU_] |1041| 
    1777                      .dwpsn  file "D:/BM1000/sw/modules/user/src/32b/user.c",line 1038,column 1,is_stmt
    1778 000002ad 8BA4          MOVL      XAR1,XAR4             ; [CPU_] |1038| 
    1779 000002ae 1E42          MOVL      *-SP[2],ACC           ; [CPU_] |1038| 
    1780 000002af 0652          MOVL      ACC,*-SP[18]          ; [CPU_] |1038| 
    1781 000002b0 1E44          MOVL      *-SP[4],ACC           ; [CPU_] |1038| 
    1782                      .dwpsn  file "D:/BM1000/sw/modules/user/src/32b/user.c",line 1041,column 15,is_stmt
    1783 000002b1 8A91          MOVL      XAR4,*+XAR1[AR0]      ; [CPU_] |1041| 
    1784              $C$DW$143       .dwtag  DW_TAG_TI_branch
    1785                      .dwattr $C$DW$143, DW_AT_low_pc(0x00)
    1786                      .dwattr $C$DW$143, DW_AT_name("_EST_getFlux_pu")
    1787                      .dwattr $C$DW$143, DW_AT_TI_call
    1788 000002b2 7640!         LCR       #_EST_getFlux_pu      ; [CPU_] |1041| 
         000002b3 0000 
    1789                      ; call occurs [#_EST_getFlux_pu] ; [] |1041| 
    1790                      .dwpsn  file "D:/BM1000/sw/modules/pid/src/32b/pid.h",line 106,column 3,is_stmt
    1791 000002b4 D020          MOVB      XAR0,#32              ; [CPU_] |106| 
    1792                      .dwpsn  file "D:/BM1000/sw/modules/user/src/32b/user.c",line 1041,column 15,is_stmt
    1793 000002b5 1E46          MOVL      *-SP[6],ACC           ; [CPU_] |1041| 
    1794                      .dwpsn  file "D:/BM1000/sw/modules/pid/src/32b/pid.h",line 106,column 3,is_stmt
    1795 000002b6 8A91          MOVL      XAR4,*+XAR1[AR0]      ; [CPU_] |106| 
    1796 000002b7 D00A          MOVB      XAR0,#10              ; [CPU_] |106| 
    1797 000002b8 8294          MOVL      XAR3,*+XAR4[AR0]      ; [CPU_] |106| 
    1798 000002b9 D032          MOVB      XAR0,#50              ; [CPU_] |106| 
TMS320C2000 Assembler PC v6.2.5 Sat Sep 16 14:47:35 2017

Tools Copyright (c) 1996-2014 Texas Instruments Incorporated
C:\Users\wmj\AppData\Local\Temp\1316010                              PAGE   37

    1799 000002ba 8A91          MOVL      XAR4,*+XAR1[AR0]      ; [CPU_] |106| 
    1800 000002bb D00A          MOVB      XAR0,#10              ; [CPU_] |106| 
    1801 000002bc 8694          MOVL      XAR2,*+XAR4[AR0]      ; [CPU_] |106| 
    1802                      .dwpsn  file "D:/BM1000/sw/modules/user/src/32b/user.c",line 1044,column 22,is_stmt
    1803 000002bd D018          MOVB      XAR0,#24              ; [CPU_] |1044| 
    1804 000002be 8A91          MOVL      XAR4,*+XAR1[AR0]      ; [CPU_] |1044| 
    1805              $C$DW$144       .dwtag  DW_TAG_TI_branch
    1806                      .dwattr $C$DW$144, DW_AT_low_pc(0x00)
    1807                      .dwattr $C$DW$144, DW_AT_name("_EST_getLs_q_pu")
    1808                      .dwattr $C$DW$144, DW_AT_TI_call
    1809 000002bf 7640!         LCR       #_EST_getLs_q_pu      ; [CPU_] |1044| 
         000002c0 0000 
    1810                      ; call occurs [#_EST_getLs_q_pu] ; [] |1044| 
    1811 000002c1 D018          MOVB      XAR0,#24              ; [CPU_] |1044| 
    1812 000002c2 1E48          MOVL      *-SP[8],ACC           ; [CPU_] |1044| 
    1813 000002c3 8A91          MOVL      XAR4,*+XAR1[AR0]      ; [CPU_] |1044| 
    1814              $C$DW$145       .dwtag  DW_TAG_TI_branch
    1815                      .dwattr $C$DW$145, DW_AT_low_pc(0x00)
    1816                      .dwattr $C$DW$145, DW_AT_name("_EST_getLs_d_pu")
    1817                      .dwattr $C$DW$145, DW_AT_TI_call
    1818 000002c4 7640!         LCR       #_EST_getLs_d_pu      ; [CPU_] |1044| 
         000002c5 0000 
    1819                      ; call occurs [#_EST_getLs_d_pu] ; [] |1044| 
    1820 000002c6 C448          MOVL      XAR6,*-SP[8]          ; [CPU_] |1044| 
    1821 000002c7 3B01          SETC      SXM                   ; [CPU_] 
    1822 000002c8 8746          MOVL      XT,*-SP[6]            ; [CPU_] |1044| 
    1823 000002c9 03A6          SUBL      ACC,XAR6              ; [CPU_] |1044| 
    1824                      .dwpsn  file "D:/BM1000/sw/modules/user/src/32b/user.c",line 1049,column 3,is_stmt
    1825 000002ca 5605          IMPYL     P,XT,XAR2             ; [CPU_] |1049| 
         000002cb 00A2 
    1826                      .dwpsn  file "D:/BM1000/sw/modules/user/src/32b/user.c",line 1044,column 22,is_stmt
    1827 000002cc FF45          SFR       ACC,6                 ; [CPU_] |1044| 
    1828                      .dwpsn  file "D:/BM1000/sw/modules/user/src/32b/user.c",line 1049,column 3,is_stmt
    1829 000002cd 8746          MOVL      XT,*-SP[6]            ; [CPU_] |1049| 
    1830 000002ce C442          MOVL      XAR6,*-SP[2]          ; [CPU_] |1049| 
    1831                      .dwpsn  file "D:/BM1000/sw/modules/user/src/32b/user.c",line 1044,column 22,is_stmt
    1832 000002cf 1EA7          MOVL      XAR7,ACC              ; [CPU_] |1044| 
    1833                      .dwpsn  file "D:/BM1000/sw/modules/user/src/32b/user.c",line 1049,column 3,is_stmt
    1834 000002d0 5663          QMPYL     ACC,XT,XAR2           ; [CPU_] |1049| 
         000002d1 00A2 
    1835 000002d2 56A7          LSL64     ACC:P,#8              ; [CPU_] |1049| 
    1836 000002d3 1EAC          MOVL      XT,ACC                ; [CPU_] |1049| 
    1837 000002d4 0642          MOVL      ACC,*-SP[2]           ; [CPU_] |1049| 
    1838 000002d5 5605          IMPYL     P,XT,XAR6             ; [CPU_] |1049| 
         000002d6 00A6 
    1839 000002d7 5663          QMPYL     ACC,XT,ACC            ; [CPU_] |1049| 
         000002d8 00A9 
    1840 000002d9 87A7          MOVL      XT,XAR7               ; [CPU_] |1049| 
    1841 000002da 56A7          LSL64     ACC:P,#8              ; [CPU_] |1049| 
    1842 000002db C544          MOVL      XAR7,*-SP[4]          ; [CPU_] |1049| 
    1843 000002dc 1EA6          MOVL      XAR6,ACC              ; [CPU_] |1049| 
    1844 000002dd 5605          IMPYL     P,XT,XAR3             ; [CPU_] |1049| 
         000002de 00A3 
    1845 000002df 5663          QMPYL     ACC,XT,XAR3           ; [CPU_] |1049| 
         000002e0 00A3 
TMS320C2000 Assembler PC v6.2.5 Sat Sep 16 14:47:35 2017

Tools Copyright (c) 1996-2014 Texas Instruments Incorporated
C:\Users\wmj\AppData\Local\Temp\1316010                              PAGE   38

    1846 000002e1 56A7          LSL64     ACC:P,#8              ; [CPU_] |1049| 
    1847 000002e2 FE88          SUBB      SP,#8                 ; [CPU_U] 
    1848                      .dwcfi  cfa_offset, -8
    1849 000002e3 1EAC          MOVL      XT,ACC                ; [CPU_] |1049| 
    1850 000002e4 5605          IMPYL     P,XT,XAR2             ; [CPU_] |1049| 
         000002e5 00A2 
    1851 000002e6 5663          QMPYL     ACC,XT,XAR2           ; [CPU_] |1049| 
         000002e7 00A2 
    1852 000002e8 82BE          MOVL      XAR3,*--SP            ; [CPU_] 
    1853                      .dwcfi  cfa_offset, -6
    1854                      .dwcfi  restore_reg, 11
    1855 000002e9 56A7          LSL64     ACC:P,#8              ; [CPU_] |1049| 
    1856 000002ea 1EAC          MOVL      XT,ACC                ; [CPU_] |1049| 
    1857 000002eb 86BE          MOVL      XAR2,*--SP            ; [CPU_] 
    1858                      .dwcfi  cfa_offset, -4
    1859                      .dwcfi  restore_reg, 9
    1860 000002ec 5605          IMPYL     P,XT,XAR7             ; [CPU_] |1049| 
         000002ed 00A7 
    1861 000002ee 5663          QMPYL     ACC,XT,XAR7           ; [CPU_] |1049| 
         000002ef 00A7 
    1862 000002f0 56A7          LSL64     ACC:P,#8              ; [CPU_] |1049| 
    1863 000002f1 8BBE          MOVL      XAR1,*--SP            ; [CPU_] 
    1864                      .dwcfi  cfa_offset, -2
    1865                      .dwcfi  restore_reg, 7
    1866 000002f2 07A6          ADDL      ACC,XAR6              ; [CPU_] |1049| 
    1867              $C$DW$146       .dwtag  DW_TAG_TI_branch
    1868                      .dwattr $C$DW$146, DW_AT_low_pc(0x00)
    1869                      .dwattr $C$DW$146, DW_AT_TI_return
    1870 000002f3 0006          LRETR     ; [CPU_] 
    1871                      ; return occurs ; [] 
    1872                      .dwattr $C$DW$132, DW_AT_TI_end_file("D:/BM1000/sw/modules/user/src/32b/user.c")
    1873                      .dwattr $C$DW$132, DW_AT_TI_end_line(0x41a)
    1874                      .dwattr $C$DW$132, DW_AT_TI_end_column(0x01)
    1875                      .dwendentry
    1876                      .dwendtag $C$DW$132
    1877              
    1878 000002f4               .sect   ".text"
    1879                      .clink
    1880                      .global _USER_computeTorque_Ls_Id_Iq_pu_to_Nm_sf
    1881              
    1882              $C$DW$147       .dwtag  DW_TAG_subprogram, DW_AT_name("USER_computeTorque_Ls_Id_Iq_pu_to_Nm_sf")
    1883                      .dwattr $C$DW$147, DW_AT_low_pc(_USER_computeTorque_Ls_Id_Iq_pu_to_Nm_sf)
    1884                      .dwattr $C$DW$147, DW_AT_high_pc(0x00)
    1885                      .dwattr $C$DW$147, DW_AT_TI_symbol_name("_USER_computeTorque_Ls_Id_Iq_pu_to_Nm_sf")
    1886                      .dwattr $C$DW$147, DW_AT_external
    1887                      .dwattr $C$DW$147, DW_AT_type(*$C$DW$T$20)
    1888                      .dwattr $C$DW$147, DW_AT_TI_begin_file("D:/BM1000/sw/modules/user/src/32b/user.c")
    1889                      .dwattr $C$DW$147, DW_AT_TI_begin_line(0x3d2)
    1890                      .dwattr $C$DW$147, DW_AT_TI_begin_column(0x05)
    1891                      .dwattr $C$DW$147, DW_AT_TI_max_frame_size(-18)
    1892                      .dwpsn  file "D:/BM1000/sw/modules/user/src/32b/user.c",line 979,column 1,is_stmt,address _USER_compu
    1893              
    1894                      .dwfde $C$DW$CIE, _USER_computeTorque_Ls_Id_Iq_pu_to_Nm_sf
    1895              $C$DW$148       .dwtag  DW_TAG_formal_parameter, DW_AT_name("pUserParams")
    1896                      .dwattr $C$DW$148, DW_AT_TI_symbol_name("_pUserParams")
TMS320C2000 Assembler PC v6.2.5 Sat Sep 16 14:47:35 2017

Tools Copyright (c) 1996-2014 Texas Instruments Incorporated
C:\Users\wmj\AppData\Local\Temp\1316010                              PAGE   39

    1897                      .dwattr $C$DW$148, DW_AT_type(*$C$DW$T$80)
    1898                      .dwattr $C$DW$148, DW_AT_location[DW_OP_reg12]
    1899              
    1900              ;***************************************************************
    1901              ;* FNAME: _USER_computeTorque_Ls_Id_Iq_pu_to_Nm_sf FR SIZE:  16           *
    1902              ;*                                                             *
    1903              ;* FUNCTION ENVIRONMENT                                        *
    1904              ;*                                                             *
    1905              ;* FUNCTION PROPERTIES                                         *
    1906              ;*                            2 Parameter, 10 Auto,  4 SOE     *
    1907              ;***************************************************************
    1908              
    1909              _USER_computeTorque_Ls_Id_Iq_pu_to_Nm_sf:
    1910              ;* AL    assigned to _x
    1911              $C$DW$149       .dwtag  DW_TAG_variable, DW_AT_name("x")
    1912                      .dwattr $C$DW$149, DW_AT_TI_symbol_name("_x")
    1913                      .dwattr $C$DW$149, DW_AT_type(*$C$DW$T$17)
    1914                      .dwattr $C$DW$149, DW_AT_location[DW_OP_reg0]
    1915              $C$DW$150       .dwtag  DW_TAG_variable, DW_AT_name("y")
    1916                      .dwattr $C$DW$150, DW_AT_TI_symbol_name("_y")
    1917                      .dwattr $C$DW$150, DW_AT_type(*$C$DW$T$17)
    1918                      .dwattr $C$DW$150, DW_AT_location[DW_OP_breg20 -4]
    1919              ;* AR1   assigned to _lShift
    1920              $C$DW$151       .dwtag  DW_TAG_variable, DW_AT_name("lShift")
    1921                      .dwattr $C$DW$151, DW_AT_TI_symbol_name("_lShift")
    1922                      .dwattr $C$DW$151, DW_AT_type(*$C$DW$T$54)
    1923                      .dwattr $C$DW$151, DW_AT_location[DW_OP_reg6]
    1924              ;* AR2   assigned to _pUserParams
    1925              $C$DW$152       .dwtag  DW_TAG_variable, DW_AT_name("pUserParams")
    1926                      .dwattr $C$DW$152, DW_AT_TI_symbol_name("_pUserParams")
    1927                      .dwattr $C$DW$152, DW_AT_type(*$C$DW$T$91)
    1928                      .dwattr $C$DW$152, DW_AT_location[DW_OP_reg8]
    1929                      .dwcfi  cfa_offset, -2
    1930                      .dwcfi  save_reg_to_mem, 26, 0
    1931                      .dwcfi  save_reg_to_reg, 78, 26
    1932 000002f4 B2BD          MOVL      *SP++,XAR1            ; [CPU_] 
    1933                      .dwcfi  save_reg_to_mem, 7, 2
    1934                      .dwcfi  cfa_offset, -4
    1935 000002f5 AABD          MOVL      *SP++,XAR2            ; [CPU_] 
    1936                      .dwcfi  save_reg_to_mem, 9, 4
    1937                      .dwcfi  cfa_offset, -6
    1938 000002f6 FE0C          ADDB      SP,#12                ; [CPU_U] 
    1939                      .dwcfi  cfa_offset, -18
    1940                      .dwpsn  file "D:/BM1000/sw/modules/user/src/32b/user.c",line 982,column 18,is_stmt
    1941 000002f7 28A9          MOV       AL,#33291             ; [CPU_] |982| 
         000002f8 820B 
    1942 000002f9 28A8          MOV       AH,#15452             ; [CPU_] |982| 
         000002fa 3C5C 
    1943 000002fb D03C          MOVB      XAR0,#60              ; [CPU_] |982| 
    1944                      .dwpsn  file "D:/BM1000/sw/modules/user/src/32b/user.c",line 979,column 1,is_stmt
    1945 000002fc 86A4          MOVL      XAR2,XAR4             ; [CPU_] |979| 
    1946                      .dwpsn  file "D:/BM1000/sw/modules/user/src/32b/user.c",line 982,column 18,is_stmt
    1947 000002fd 1E42          MOVL      *-SP[2],ACC           ; [CPU_] |982| 
    1948 000002fe 0692          MOVL      ACC,*+XAR2[AR0]       ; [CPU_] |982| 
    1949              $C$DW$153       .dwtag  DW_TAG_TI_branch
TMS320C2000 Assembler PC v6.2.5 Sat Sep 16 14:47:35 2017

Tools Copyright (c) 1996-2014 Texas Instruments Incorporated
C:\Users\wmj\AppData\Local\Temp\1316010                              PAGE   40

    1950                      .dwattr $C$DW$153, DW_AT_low_pc(0x00)
    1951                      .dwattr $C$DW$153, DW_AT_name("FS$$DIV")
    1952                      .dwattr $C$DW$153, DW_AT_TI_call
    1953 000002ff 7640!         LCR       #FS$$DIV              ; [CPU_] |982| 
         00000300 0000 
    1954                      ; call occurs [#FS$$DIV] ; [] |982| 
    1955              $C$DW$154       .dwtag  DW_TAG_TI_branch
    1956                      .dwattr $C$DW$154, DW_AT_low_pc(0x00)
    1957                      .dwattr $C$DW$154, DW_AT_name("_log")
    1958                      .dwattr $C$DW$154, DW_AT_TI_call
    1959 00000301 7640!         LCR       #_log                 ; [CPU_] |982| 
         00000302 0000 
    1960                      ; call occurs [#_log] ; [] |982| 
    1961 00000303 8BA9          MOVL      XAR1,ACC              ; [CPU_] |982| 
    1962 00000304 9A00          MOV       AL,#0                 ; [CPU_] |982| 
    1963 00000305 28A8          MOV       AH,#16384             ; [CPU_] |982| 
         00000306 4000 
    1964              $C$DW$155       .dwtag  DW_TAG_TI_branch
    1965                      .dwattr $C$DW$155, DW_AT_low_pc(0x00)
    1966                      .dwattr $C$DW$155, DW_AT_name("_log")
    1967                      .dwattr $C$DW$155, DW_AT_TI_call
    1968 00000307 7640!         LCR       #_log                 ; [CPU_] |982| 
         00000308 0000 
    1969                      ; call occurs [#_log] ; [] |982| 
    1970 00000309 1E42          MOVL      *-SP[2],ACC           ; [CPU_] |982| 
    1971 0000030a B2A9          MOVL      ACC,XAR1              ; [CPU_] |982| 
    1972              $C$DW$156       .dwtag  DW_TAG_TI_branch
    1973                      .dwattr $C$DW$156, DW_AT_low_pc(0x00)
    1974                      .dwattr $C$DW$156, DW_AT_name("FS$$DIV")
    1975                      .dwattr $C$DW$156, DW_AT_TI_call
    1976 0000030b 7640!         LCR       #FS$$DIV              ; [CPU_] |982| 
         0000030c 0000 
    1977                      ; call occurs [#FS$$DIV] ; [] |982| 
    1978                      .dwpsn  file "C:/ti/ccsv6/tools/compiler/c2000_6.2.5/include/math.h",line 110,column 45,is_stmt
    1979 0000030d 5CAD          MOVZ      AR4,SP                ; [CPU_U] |110| 
    1980 0000030e DC84          SUBB      XAR4,#4               ; [CPU_U] |110| 
    1981              $C$DW$157       .dwtag  DW_TAG_TI_branch
    1982                      .dwattr $C$DW$157, DW_AT_low_pc(0x00)
    1983                      .dwattr $C$DW$157, DW_AT_name("_modf")
    1984                      .dwattr $C$DW$157, DW_AT_TI_call
    1985 0000030f 7640!         LCR       #_modf                ; [CPU_] |110| 
         00000310 0000 
    1986                      ; call occurs [#_modf] ; [] |110| 
    1987 00000311 1EA6          MOVL      XAR6,ACC              ; [CPU_] |110| 
    1988 00000312 9A00          MOV       AL,#0                 ; [CPU_] |110| 
    1989 00000313 9B00          MOV       AH,#0                 ; [CPU_] |110| 
    1990 00000314 1E42          MOVL      *-SP[2],ACC           ; [CPU_] |110| 
    1991 00000315 06A6          MOVL      ACC,XAR6              ; [CPU_] |110| 
    1992              $C$DW$158       .dwtag  DW_TAG_TI_branch
    1993                      .dwattr $C$DW$158, DW_AT_low_pc(0x00)
    1994                      .dwattr $C$DW$158, DW_AT_name("FS$$CMP")
    1995                      .dwattr $C$DW$158, DW_AT_TI_call
    1996 00000316 7640!         LCR       #FS$$CMP              ; [CPU_] |110| 
         00000317 0000 
    1997                      ; call occurs [#FS$$CMP] ; [] |110| 
TMS320C2000 Assembler PC v6.2.5 Sat Sep 16 14:47:35 2017

Tools Copyright (c) 1996-2014 Texas Instruments Incorporated
C:\Users\wmj\AppData\Local\Temp\1316010                              PAGE   41

    1998 00000318 5200          CMPB      AL,#0                 ; [CPU_] |110| 
    1999 00000319 6203          B         $C$L3,GT              ; [CPU_] |110| 
    2000                      ; branchcc occurs ; [] |110| 
    2001 0000031a 8B44          MOVL      XAR1,*-SP[4]          ; [CPU_] |110| 
    2002 0000031b 6F08          B         $C$L4,UNC             ; [CPU_] |110| 
    2003                      ; branch occurs ; [] |110| 
    2004 0000031c       $C$L3:    
    2005 0000031c FF2F          MOV       ACC,#32512 << 15      ; [CPU_] |110| 
         0000031d 7F00 
    2006 0000031e 1E42          MOVL      *-SP[2],ACC           ; [CPU_] |110| 
    2007 0000031f 0644          MOVL      ACC,*-SP[4]           ; [CPU_] |110| 
    2008              $C$DW$159       .dwtag  DW_TAG_TI_branch
    2009                      .dwattr $C$DW$159, DW_AT_low_pc(0x00)
    2010                      .dwattr $C$DW$159, DW_AT_name("FS$$ADD")
    2011                      .dwattr $C$DW$159, DW_AT_TI_call
    2012 00000320 7640!         LCR       #FS$$ADD              ; [CPU_] |110| 
         00000321 0000 
    2013                      ; call occurs [#FS$$ADD] ; [] |110| 
    2014 00000322 8BA9          MOVL      XAR1,ACC              ; [CPU_] |110| 
    2015 00000323       $C$L4:    
    2016                      .dwpsn  file "D:/BM1000/sw/modules/user/src/32b/user.c",line 984,column 3,is_stmt
    2017 00000323 D035          MOVB      XAR0,#53              ; [CPU_] |984| 
    2018 00000324 9292          MOV       AL,*+XAR2[AR0]        ; [CPU_] |984| 
    2019              $C$DW$160       .dwtag  DW_TAG_TI_branch
    2020                      .dwattr $C$DW$160, DW_AT_low_pc(0x00)
    2021                      .dwattr $C$DW$160, DW_AT_name("U$$TOFS")
    2022                      .dwattr $C$DW$160, DW_AT_TI_call
    2023 00000325 7640!         LCR       #U$$TOFS              ; [CPU_] |984| 
         00000326 0000 
    2024                      ; call occurs [#U$$TOFS] ; [] |984| 
    2025 00000327 1EA6          MOVL      XAR6,ACC              ; [CPU_] |984| 
    2026 00000328 28A9          MOV       AL,#6729              ; [CPU_] |984| 
         00000329 1A49 
    2027 0000032a 28A8          MOV       AH,#16374             ; [CPU_] |984| 
         0000032b 3FF6 
    2028 0000032c 1E42          MOVL      *-SP[2],ACC           ; [CPU_] |984| 
    2029 0000032d 06A6          MOVL      ACC,XAR6              ; [CPU_] |984| 
    2030              $C$DW$161       .dwtag  DW_TAG_TI_branch
    2031                      .dwattr $C$DW$161, DW_AT_low_pc(0x00)
    2032                      .dwattr $C$DW$161, DW_AT_name("FS$$MPY")
    2033                      .dwattr $C$DW$161, DW_AT_TI_call
    2034 0000032e 7640!         LCR       #FS$$MPY              ; [CPU_] |984| 
         0000032f 0000 
    2035                      ; call occurs [#FS$$MPY] ; [] |984| 
    2036 00000330 1EA6          MOVL      XAR6,ACC              ; [CPU_] |984| 
    2037 00000331 FF2F          MOV       ACC,#32640 << 15      ; [CPU_] |984| 
         00000332 7F80 
    2038 00000333 1E42          MOVL      *-SP[2],ACC           ; [CPU_] |984| 
    2039 00000334 06A6          MOVL      ACC,XAR6              ; [CPU_] |984| 
    2040              $C$DW$162       .dwtag  DW_TAG_TI_branch
    2041                      .dwattr $C$DW$162, DW_AT_low_pc(0x00)
    2042                      .dwattr $C$DW$162, DW_AT_name("FS$$MPY")
    2043                      .dwattr $C$DW$162, DW_AT_TI_call
    2044 00000335 7640!         LCR       #FS$$MPY              ; [CPU_] |984| 
         00000336 0000 
TMS320C2000 Assembler PC v6.2.5 Sat Sep 16 14:47:35 2017

Tools Copyright (c) 1996-2014 Texas Instruments Incorporated
C:\Users\wmj\AppData\Local\Temp\1316010                              PAGE   42

    2045                      ; call occurs [#FS$$MPY] ; [] |984| 
    2046 00000337 86A9          MOVL      XAR2,ACC              ; [CPU_] |984| 
    2047 00000338 B242          MOVL      *-SP[2],XAR1          ; [CPU_] |984| 
    2048 00000339 9A00          MOV       AL,#0                 ; [CPU_] |984| 
    2049 0000033a 28A8          MOV       AH,#16384             ; [CPU_] |984| 
         0000033b 4000 
    2050              $C$DW$163       .dwtag  DW_TAG_TI_branch
    2051                      .dwattr $C$DW$163, DW_AT_low_pc(0x00)
    2052                      .dwattr $C$DW$163, DW_AT_name("_pow")
    2053                      .dwattr $C$DW$163, DW_AT_TI_call
    2054 0000033c 7640!         LCR       #_pow                 ; [CPU_] |984| 
         0000033d 0000 
    2055                      ; call occurs [#_pow] ; [] |984| 
    2056 0000033e 1E42          MOVL      *-SP[2],ACC           ; [CPU_] |984| 
    2057 0000033f AAA9          MOVL      ACC,XAR2              ; [CPU_] |984| 
    2058              $C$DW$164       .dwtag  DW_TAG_TI_branch
    2059                      .dwattr $C$DW$164, DW_AT_low_pc(0x00)
    2060                      .dwattr $C$DW$164, DW_AT_name("FS$$MPY")
    2061                      .dwattr $C$DW$164, DW_AT_TI_call
    2062 00000340 7640!         LCR       #FS$$MPY              ; [CPU_] |984| 
         00000341 0000 
    2063                      ; call occurs [#FS$$MPY] ; [] |984| 
    2064 00000342 88AD          MOVZ      AR6,SP                ; [CPU_U] |984| 
    2065 00000343 DE8C          SUBB      XAR6,#12              ; [CPU_U] |984| 
    2066              $C$DW$165       .dwtag  DW_TAG_TI_branch
    2067                      .dwattr $C$DW$165, DW_AT_low_pc(0x00)
    2068                      .dwattr $C$DW$165, DW_AT_name("FS$$TOFD")
    2069                      .dwattr $C$DW$165, DW_AT_TI_call
    2070 00000344 7640!         LCR       #FS$$TOFD             ; [CPU_] |984| 
         00000345 0000 
    2071                      ; call occurs [#FS$$TOFD] ; [] |984| 
    2072 00000346 5CAD          MOVZ      AR4,SP                ; [CPU_U] |984| 
    2073 00000347 88AD          MOVZ      AR6,SP                ; [CPU_U] |984| 
    2074 00000348 8F40+         MOVL      XAR5,#$C$FL2          ; [CPU_U] |984| 
         00000349 0004 
    2075 0000034a DC8C          SUBB      XAR4,#12              ; [CPU_U] |984| 
    2076 0000034b DE88          SUBB      XAR6,#8               ; [CPU_U] |984| 
    2077              $C$DW$166       .dwtag  DW_TAG_TI_branch
    2078                      .dwattr $C$DW$166, DW_AT_low_pc(0x00)
    2079                      .dwattr $C$DW$166, DW_AT_name("FD$$MPY")
    2080                      .dwattr $C$DW$166, DW_AT_TI_call
    2081 0000034c 7640!         LCR       #FD$$MPY              ; [CPU_] |984| 
         0000034d 0000 
    2082                      ; call occurs [#FD$$MPY] ; [] |984| 
    2083 0000034e 5CAD          MOVZ      AR4,SP                ; [CPU_U] |984| 
    2084 0000034f DC88          SUBB      XAR4,#8               ; [CPU_U] |984| 
    2085              $C$DW$167       .dwtag  DW_TAG_TI_branch
    2086                      .dwattr $C$DW$167, DW_AT_low_pc(0x00)
    2087                      .dwattr $C$DW$167, DW_AT_name("FD$$TOL")
    2088                      .dwattr $C$DW$167, DW_AT_TI_call
    2089 00000350 7640!         LCR       #FD$$TOL              ; [CPU_] |984| 
         00000351 0000 
    2090                      ; call occurs [#FD$$TOL] ; [] |984| 
    2091 00000352 FE8C          SUBB      SP,#12                ; [CPU_U] 
    2092                      .dwcfi  cfa_offset, -6
TMS320C2000 Assembler PC v6.2.5 Sat Sep 16 14:47:35 2017

Tools Copyright (c) 1996-2014 Texas Instruments Incorporated
C:\Users\wmj\AppData\Local\Temp\1316010                              PAGE   43

    2093 00000353 86BE          MOVL      XAR2,*--SP            ; [CPU_] 
    2094                      .dwcfi  cfa_offset, -4
    2095                      .dwcfi  restore_reg, 9
    2096 00000354 8BBE          MOVL      XAR1,*--SP            ; [CPU_] 
    2097                      .dwcfi  cfa_offset, -2
    2098                      .dwcfi  restore_reg, 7
    2099              $C$DW$168       .dwtag  DW_TAG_TI_branch
    2100                      .dwattr $C$DW$168, DW_AT_low_pc(0x00)
    2101                      .dwattr $C$DW$168, DW_AT_TI_return
    2102 00000355 0006          LRETR     ; [CPU_] 
    2103                      ; return occurs ; [] 
    2104                      .dwattr $C$DW$147, DW_AT_TI_end_file("D:/BM1000/sw/modules/user/src/32b/user.c")
    2105                      .dwattr $C$DW$147, DW_AT_TI_end_line(0x3d9)
    2106                      .dwattr $C$DW$147, DW_AT_TI_end_column(0x01)
    2107                      .dwendentry
    2108                      .dwendtag $C$DW$147
    2109              
    2110 00000356               .sect   ".text"
    2111                      .clink
    2112                      .global _USER_computeTorque_Flux_Iq_pu_to_Nm_sf
    2113              
    2114              $C$DW$169       .dwtag  DW_TAG_subprogram, DW_AT_name("USER_computeTorque_Flux_Iq_pu_to_Nm_sf")
    2115                      .dwattr $C$DW$169, DW_AT_low_pc(_USER_computeTorque_Flux_Iq_pu_to_Nm_sf)
    2116                      .dwattr $C$DW$169, DW_AT_high_pc(0x00)
    2117                      .dwattr $C$DW$169, DW_AT_TI_symbol_name("_USER_computeTorque_Flux_Iq_pu_to_Nm_sf")
    2118                      .dwattr $C$DW$169, DW_AT_external
    2119                      .dwattr $C$DW$169, DW_AT_type(*$C$DW$T$20)
    2120                      .dwattr $C$DW$169, DW_AT_TI_begin_file("D:/BM1000/sw/modules/user/src/32b/user.c")
    2121                      .dwattr $C$DW$169, DW_AT_TI_begin_line(0x3de)
    2122                      .dwattr $C$DW$169, DW_AT_TI_begin_column(0x05)
    2123                      .dwattr $C$DW$169, DW_AT_TI_max_frame_size(-18)
    2124                      .dwpsn  file "D:/BM1000/sw/modules/user/src/32b/user.c",line 991,column 1,is_stmt,address _USER_compu
    2125              
    2126                      .dwfde $C$DW$CIE, _USER_computeTorque_Flux_Iq_pu_to_Nm_sf
    2127              $C$DW$170       .dwtag  DW_TAG_formal_parameter, DW_AT_name("pUserParams")
    2128                      .dwattr $C$DW$170, DW_AT_TI_symbol_name("_pUserParams")
    2129                      .dwattr $C$DW$170, DW_AT_type(*$C$DW$T$80)
    2130                      .dwattr $C$DW$170, DW_AT_location[DW_OP_reg12]
    2131              
    2132              ;***************************************************************
    2133              ;* FNAME: _USER_computeTorque_Flux_Iq_pu_to_Nm_sf FR SIZE:  16           *
    2134              ;*                                                             *
    2135              ;* FUNCTION ENVIRONMENT                                        *
    2136              ;*                                                             *
    2137              ;* FUNCTION PROPERTIES                                         *
    2138              ;*                            2 Parameter, 10 Auto,  4 SOE     *
    2139              ;***************************************************************
    2140              
    2141              _USER_computeTorque_Flux_Iq_pu_to_Nm_sf:
    2142              ;* AL    assigned to _x
    2143              $C$DW$171       .dwtag  DW_TAG_variable, DW_AT_name("x")
    2144                      .dwattr $C$DW$171, DW_AT_TI_symbol_name("_x")
    2145                      .dwattr $C$DW$171, DW_AT_type(*$C$DW$T$17)
    2146                      .dwattr $C$DW$171, DW_AT_location[DW_OP_reg0]
    2147              $C$DW$172       .dwtag  DW_TAG_variable, DW_AT_name("y")
TMS320C2000 Assembler PC v6.2.5 Sat Sep 16 14:47:35 2017

Tools Copyright (c) 1996-2014 Texas Instruments Incorporated
C:\Users\wmj\AppData\Local\Temp\1316010                              PAGE   44

    2148                      .dwattr $C$DW$172, DW_AT_TI_symbol_name("_y")
    2149                      .dwattr $C$DW$172, DW_AT_type(*$C$DW$T$17)
    2150                      .dwattr $C$DW$172, DW_AT_location[DW_OP_breg20 -4]
    2151              ;* AL    assigned to _maxFlux
    2152              $C$DW$173       .dwtag  DW_TAG_variable, DW_AT_name("maxFlux")
    2153                      .dwattr $C$DW$173, DW_AT_TI_symbol_name("_maxFlux")
    2154                      .dwattr $C$DW$173, DW_AT_type(*$C$DW$T$54)
    2155                      .dwattr $C$DW$173, DW_AT_location[DW_OP_reg0]
    2156              ;* AR2   assigned to _pUserParams
    2157              $C$DW$174       .dwtag  DW_TAG_variable, DW_AT_name("pUserParams")
    2158                      .dwattr $C$DW$174, DW_AT_TI_symbol_name("_pUserParams")
    2159                      .dwattr $C$DW$174, DW_AT_type(*$C$DW$T$91)
    2160                      .dwattr $C$DW$174, DW_AT_location[DW_OP_reg8]
    2161              ;* AL    assigned to $O$S2
    2162              ;* AR1   assigned to $O$R1
    2163                      .dwcfi  cfa_offset, -2
    2164                      .dwcfi  save_reg_to_mem, 26, 0
    2165                      .dwcfi  save_reg_to_reg, 78, 26
    2166 00000356 B2BD          MOVL      *SP++,XAR1            ; [CPU_] 
    2167                      .dwcfi  save_reg_to_mem, 7, 2
    2168                      .dwcfi  cfa_offset, -4
    2169 00000357 AABD          MOVL      *SP++,XAR2            ; [CPU_] 
    2170                      .dwcfi  save_reg_to_mem, 9, 4
    2171                      .dwcfi  cfa_offset, -6
    2172 00000358 FE0C          ADDB      SP,#12                ; [CPU_U] 
    2173                      .dwcfi  cfa_offset, -18
    2174                      .dwpsn  file "D:/BM1000/sw/modules/user/src/32b/user.c",line 994,column 19,is_stmt
    2175 00000359 D034          MOVB      XAR0,#52              ; [CPU_] |994| 
    2176                      .dwpsn  file "D:/BM1000/sw/modules/user/src/32b/user.c",line 991,column 1,is_stmt
    2177 0000035a 86A4          MOVL      XAR2,XAR4             ; [CPU_] |991| 
    2178                      .dwpsn  file "D:/BM1000/sw/modules/user/src/32b/user.c",line 994,column 19,is_stmt
    2179 0000035b 9292          MOV       AL,*+XAR2[AR0]        ; [CPU_] |994| 
    2180 0000035c EC06          BF        $C$L5,EQ              ; [CPU_] |994| 
    2181                      ; branchcc occurs ; [] |994| 
    2182 0000035d 28A9          MOV       AL,#13107             ; [CPU_] |994| 
         0000035e 3333 
    2183 0000035f 28A8          MOV       AH,#16179             ; [CPU_] |994| 
         00000360 3F33 
    2184 00000361 6F05          B         $C$L6,UNC             ; [CPU_] |994| 
    2185                      ; branch occurs ; [] |994| 
    2186 00000362       $C$L5:    
    2187 00000362 28A9          MOV       AL,#52429             ; [CPU_] |994| 
         00000363 CCCD 
    2188 00000364 28A8          MOV       AH,#15692             ; [CPU_] |994| 
         00000365 3D4C 
    2189 00000366       $C$L6:    
    2190 00000366 1E42          MOVL      *-SP[2],ACC           ; [CPU_] |994| 
    2191 00000367 D036          MOVB      XAR0,#54              ; [CPU_] |994| 
    2192 00000368 0692          MOVL      ACC,*+XAR2[AR0]       ; [CPU_] |994| 
    2193              $C$DW$175       .dwtag  DW_TAG_TI_branch
    2194                      .dwattr $C$DW$175, DW_AT_low_pc(0x00)
    2195                      .dwattr $C$DW$175, DW_AT_name("FS$$MPY")
    2196                      .dwattr $C$DW$175, DW_AT_TI_call
    2197 00000369 7640!         LCR       #FS$$MPY              ; [CPU_] |994| 
         0000036a 0000 
TMS320C2000 Assembler PC v6.2.5 Sat Sep 16 14:47:35 2017

Tools Copyright (c) 1996-2014 Texas Instruments Incorporated
C:\Users\wmj\AppData\Local\Temp\1316010                              PAGE   45

    2198                      ; call occurs [#FS$$MPY] ; [] |994| 
    2199                      .dwpsn  file "D:/BM1000/sw/modules/user/src/32b/user.c",line 995,column 18,is_stmt
    2200 0000036b 1E42          MOVL      *-SP[2],ACC           ; [CPU_] |995| 
    2201 0000036c 28A9          MOV       AL,#20972             ; [CPU_] |995| 
         0000036d 51EC 
    2202 0000036e 28A8          MOV       AH,#15800             ; [CPU_] |995| 
         0000036f 3DB8 
    2203              $C$DW$176       .dwtag  DW_TAG_TI_branch
    2204                      .dwattr $C$DW$176, DW_AT_low_pc(0x00)
    2205                      .dwattr $C$DW$176, DW_AT_name("FS$$DIV")
    2206                      .dwattr $C$DW$176, DW_AT_TI_call
    2207 00000370 7640!         LCR       #FS$$DIV              ; [CPU_] |995| 
         00000371 0000 
    2208                      ; call occurs [#FS$$DIV] ; [] |995| 
    2209              $C$DW$177       .dwtag  DW_TAG_TI_branch
    2210                      .dwattr $C$DW$177, DW_AT_low_pc(0x00)
    2211                      .dwattr $C$DW$177, DW_AT_name("_log")
    2212                      .dwattr $C$DW$177, DW_AT_TI_call
    2213 00000372 7640!         LCR       #_log                 ; [CPU_] |995| 
         00000373 0000 
    2214                      ; call occurs [#_log] ; [] |995| 
    2215 00000374 8BA9          MOVL      XAR1,ACC              ; [CPU_] |995| 
    2216 00000375 9A00          MOV       AL,#0                 ; [CPU_] |995| 
    2217 00000376 28A8          MOV       AH,#16384             ; [CPU_] |995| 
         00000377 4000 
    2218              $C$DW$178       .dwtag  DW_TAG_TI_branch
    2219                      .dwattr $C$DW$178, DW_AT_low_pc(0x00)
    2220                      .dwattr $C$DW$178, DW_AT_name("_log")
    2221                      .dwattr $C$DW$178, DW_AT_TI_call
    2222 00000378 7640!         LCR       #_log                 ; [CPU_] |995| 
         00000379 0000 
    2223                      ; call occurs [#_log] ; [] |995| 
    2224 0000037a 1E42          MOVL      *-SP[2],ACC           ; [CPU_] |995| 
    2225 0000037b B2A9          MOVL      ACC,XAR1              ; [CPU_] |995| 
    2226              $C$DW$179       .dwtag  DW_TAG_TI_branch
    2227                      .dwattr $C$DW$179, DW_AT_low_pc(0x00)
    2228                      .dwattr $C$DW$179, DW_AT_name("FS$$DIV")
    2229                      .dwattr $C$DW$179, DW_AT_TI_call
    2230 0000037c 7640!         LCR       #FS$$DIV              ; [CPU_] |995| 
         0000037d 0000 
    2231                      ; call occurs [#FS$$DIV] ; [] |995| 
    2232                      .dwpsn  file "C:/ti/ccsv6/tools/compiler/c2000_6.2.5/include/math.h",line 110,column 45,is_stmt
    2233 0000037e 5CAD          MOVZ      AR4,SP                ; [CPU_U] |110| 
    2234 0000037f DC84          SUBB      XAR4,#4               ; [CPU_U] |110| 
    2235              $C$DW$180       .dwtag  DW_TAG_TI_branch
    2236                      .dwattr $C$DW$180, DW_AT_low_pc(0x00)
    2237                      .dwattr $C$DW$180, DW_AT_name("_modf")
    2238                      .dwattr $C$DW$180, DW_AT_TI_call
    2239 00000380 7640!         LCR       #_modf                ; [CPU_] |110| 
         00000381 0000 
    2240                      ; call occurs [#_modf] ; [] |110| 
    2241 00000382 1EA6          MOVL      XAR6,ACC              ; [CPU_] |110| 
    2242 00000383 9A00          MOV       AL,#0                 ; [CPU_] |110| 
    2243 00000384 9B00          MOV       AH,#0                 ; [CPU_] |110| 
    2244 00000385 1E42          MOVL      *-SP[2],ACC           ; [CPU_] |110| 
TMS320C2000 Assembler PC v6.2.5 Sat Sep 16 14:47:35 2017

Tools Copyright (c) 1996-2014 Texas Instruments Incorporated
C:\Users\wmj\AppData\Local\Temp\1316010                              PAGE   46

    2245 00000386 06A6          MOVL      ACC,XAR6              ; [CPU_] |110| 
    2246              $C$DW$181       .dwtag  DW_TAG_TI_branch
    2247                      .dwattr $C$DW$181, DW_AT_low_pc(0x00)
    2248                      .dwattr $C$DW$181, DW_AT_name("FS$$CMP")
    2249                      .dwattr $C$DW$181, DW_AT_TI_call
    2250 00000387 7640!         LCR       #FS$$CMP              ; [CPU_] |110| 
         00000388 0000 
    2251                      ; call occurs [#FS$$CMP] ; [] |110| 
    2252 00000389 5200          CMPB      AL,#0                 ; [CPU_] |110| 
    2253 0000038a 6203          B         $C$L7,GT              ; [CPU_] |110| 
    2254                      ; branchcc occurs ; [] |110| 
    2255 0000038b 8B44          MOVL      XAR1,*-SP[4]          ; [CPU_] |110| 
    2256 0000038c 6F08          B         $C$L8,UNC             ; [CPU_] |110| 
    2257                      ; branch occurs ; [] |110| 
    2258 0000038d       $C$L7:    
    2259 0000038d FF2F          MOV       ACC,#32512 << 15      ; [CPU_] |110| 
         0000038e 7F00 
    2260 0000038f 1E42          MOVL      *-SP[2],ACC           ; [CPU_] |110| 
    2261 00000390 0644          MOVL      ACC,*-SP[4]           ; [CPU_] |110| 
    2262              $C$DW$182       .dwtag  DW_TAG_TI_branch
    2263                      .dwattr $C$DW$182, DW_AT_low_pc(0x00)
    2264                      .dwattr $C$DW$182, DW_AT_name("FS$$ADD")
    2265                      .dwattr $C$DW$182, DW_AT_TI_call
    2266 00000391 7640!         LCR       #FS$$ADD              ; [CPU_] |110| 
         00000392 0000 
    2267                      ; call occurs [#FS$$ADD] ; [] |110| 
    2268 00000393 8BA9          MOVL      XAR1,ACC              ; [CPU_] |110| 
    2269 00000394       $C$L8:    
    2270                      .dwpsn  file "D:/BM1000/sw/modules/user/src/32b/user.c",line 997,column 3,is_stmt
    2271 00000394 D035          MOVB      XAR0,#53              ; [CPU_] |997| 
    2272 00000395 9292          MOV       AL,*+XAR2[AR0]        ; [CPU_] |997| 
    2273              $C$DW$183       .dwtag  DW_TAG_TI_branch
    2274                      .dwattr $C$DW$183, DW_AT_low_pc(0x00)
    2275                      .dwattr $C$DW$183, DW_AT_name("U$$TOFS")
    2276                      .dwattr $C$DW$183, DW_AT_TI_call
    2277 00000396 7640!         LCR       #U$$TOFS              ; [CPU_] |997| 
         00000397 0000 
    2278                      ; call occurs [#U$$TOFS] ; [] |997| 
    2279 00000398 1EA6          MOVL      XAR6,ACC              ; [CPU_] |997| 
    2280 00000399 28A9          MOV       AL,#44381             ; [CPU_] |997| 
         0000039a AD5D 
    2281 0000039b 28A8          MOV       AH,#15890             ; [CPU_] |997| 
         0000039c 3E12 
    2282 0000039d 1E42          MOVL      *-SP[2],ACC           ; [CPU_] |997| 
    2283 0000039e 06A6          MOVL      ACC,XAR6              ; [CPU_] |997| 
    2284              $C$DW$184       .dwtag  DW_TAG_TI_branch
    2285                      .dwattr $C$DW$184, DW_AT_low_pc(0x00)
    2286                      .dwattr $C$DW$184, DW_AT_name("FS$$MPY")
    2287                      .dwattr $C$DW$184, DW_AT_TI_call
    2288 0000039f 7640!         LCR       #FS$$MPY              ; [CPU_] |997| 
         000003a0 0000 
    2289                      ; call occurs [#FS$$MPY] ; [] |997| 
    2290 000003a1 1EA6          MOVL      XAR6,ACC              ; [CPU_] |997| 
    2291 000003a2 FF2F          MOV       ACC,#32640 << 15      ; [CPU_] |997| 
         000003a3 7F80 
TMS320C2000 Assembler PC v6.2.5 Sat Sep 16 14:47:35 2017

Tools Copyright (c) 1996-2014 Texas Instruments Incorporated
C:\Users\wmj\AppData\Local\Temp\1316010                              PAGE   47

    2292 000003a4 1E42          MOVL      *-SP[2],ACC           ; [CPU_] |997| 
    2293 000003a5 06A6          MOVL      ACC,XAR6              ; [CPU_] |997| 
    2294              $C$DW$185       .dwtag  DW_TAG_TI_branch
    2295                      .dwattr $C$DW$185, DW_AT_low_pc(0x00)
    2296                      .dwattr $C$DW$185, DW_AT_name("FS$$MPY")
    2297                      .dwattr $C$DW$185, DW_AT_TI_call
    2298 000003a6 7640!         LCR       #FS$$MPY              ; [CPU_] |997| 
         000003a7 0000 
    2299                      ; call occurs [#FS$$MPY] ; [] |997| 
    2300 000003a8 86A9          MOVL      XAR2,ACC              ; [CPU_] |997| 
    2301 000003a9 B2A9          MOVL      ACC,XAR1              ; [CPU_] |997| 
    2302              $C$DW$186       .dwtag  DW_TAG_TI_branch
    2303                      .dwattr $C$DW$186, DW_AT_low_pc(0x00)
    2304                      .dwattr $C$DW$186, DW_AT_name("FS$$NEG")
    2305                      .dwattr $C$DW$186, DW_AT_TI_call
    2306 000003aa 7640!         LCR       #FS$$NEG              ; [CPU_] |997| 
         000003ab 0000 
    2307                      ; call occurs [#FS$$NEG] ; [] |997| 
    2308 000003ac 1E42          MOVL      *-SP[2],ACC           ; [CPU_] |997| 
    2309 000003ad 9A00          MOV       AL,#0                 ; [CPU_] |997| 
    2310 000003ae 28A8          MOV       AH,#16384             ; [CPU_] |997| 
         000003af 4000 
    2311              $C$DW$187       .dwtag  DW_TAG_TI_branch
    2312                      .dwattr $C$DW$187, DW_AT_low_pc(0x00)
    2313                      .dwattr $C$DW$187, DW_AT_name("_pow")
    2314                      .dwattr $C$DW$187, DW_AT_TI_call
    2315 000003b0 7640!         LCR       #_pow                 ; [CPU_] |997| 
         000003b1 0000 
    2316                      ; call occurs [#_pow] ; [] |997| 
    2317 000003b2 1E42          MOVL      *-SP[2],ACC           ; [CPU_] |997| 
    2318 000003b3 AAA9          MOVL      ACC,XAR2              ; [CPU_] |997| 
    2319              $C$DW$188       .dwtag  DW_TAG_TI_branch
    2320                      .dwattr $C$DW$188, DW_AT_low_pc(0x00)
    2321                      .dwattr $C$DW$188, DW_AT_name("FS$$MPY")
    2322                      .dwattr $C$DW$188, DW_AT_TI_call
    2323 000003b4 7640!         LCR       #FS$$MPY              ; [CPU_] |997| 
         000003b5 0000 
    2324                      ; call occurs [#FS$$MPY] ; [] |997| 
    2325 000003b6 88AD          MOVZ      AR6,SP                ; [CPU_U] |997| 
    2326 000003b7 DE8C          SUBB      XAR6,#12              ; [CPU_U] |997| 
    2327              $C$DW$189       .dwtag  DW_TAG_TI_branch
    2328                      .dwattr $C$DW$189, DW_AT_low_pc(0x00)
    2329                      .dwattr $C$DW$189, DW_AT_name("FS$$TOFD")
    2330                      .dwattr $C$DW$189, DW_AT_TI_call
    2331 000003b8 7640!         LCR       #FS$$TOFD             ; [CPU_] |997| 
         000003b9 0000 
    2332                      ; call occurs [#FS$$TOFD] ; [] |997| 
    2333 000003ba 5CAD          MOVZ      AR4,SP                ; [CPU_U] |997| 
    2334 000003bb 88AD          MOVZ      AR6,SP                ; [CPU_U] |997| 
    2335 000003bc 8F40+         MOVL      XAR5,#$C$FL2          ; [CPU_U] |997| 
         000003bd 0004 
    2336 000003be DC8C          SUBB      XAR4,#12              ; [CPU_U] |997| 
    2337 000003bf DE88          SUBB      XAR6,#8               ; [CPU_U] |997| 
    2338              $C$DW$190       .dwtag  DW_TAG_TI_branch
    2339                      .dwattr $C$DW$190, DW_AT_low_pc(0x00)
TMS320C2000 Assembler PC v6.2.5 Sat Sep 16 14:47:35 2017

Tools Copyright (c) 1996-2014 Texas Instruments Incorporated
C:\Users\wmj\AppData\Local\Temp\1316010                              PAGE   48

    2340                      .dwattr $C$DW$190, DW_AT_name("FD$$MPY")
    2341                      .dwattr $C$DW$190, DW_AT_TI_call
    2342 000003c0 7640!         LCR       #FD$$MPY              ; [CPU_] |997| 
         000003c1 0000 
    2343                      ; call occurs [#FD$$MPY] ; [] |997| 
    2344 000003c2 5CAD          MOVZ      AR4,SP                ; [CPU_U] |997| 
    2345 000003c3 DC88          SUBB      XAR4,#8               ; [CPU_U] |997| 
    2346              $C$DW$191       .dwtag  DW_TAG_TI_branch
    2347                      .dwattr $C$DW$191, DW_AT_low_pc(0x00)
    2348                      .dwattr $C$DW$191, DW_AT_name("FD$$TOL")
    2349                      .dwattr $C$DW$191, DW_AT_TI_call
    2350 000003c4 7640!         LCR       #FD$$TOL              ; [CPU_] |997| 
         000003c5 0000 
    2351                      ; call occurs [#FD$$TOL] ; [] |997| 
    2352 000003c6 FE8C          SUBB      SP,#12                ; [CPU_U] 
    2353                      .dwcfi  cfa_offset, -6
    2354 000003c7 86BE          MOVL      XAR2,*--SP            ; [CPU_] 
    2355                      .dwcfi  cfa_offset, -4
    2356                      .dwcfi  restore_reg, 9
    2357 000003c8 8BBE          MOVL      XAR1,*--SP            ; [CPU_] 
    2358                      .dwcfi  cfa_offset, -2
    2359                      .dwcfi  restore_reg, 7
    2360              $C$DW$192       .dwtag  DW_TAG_TI_branch
    2361                      .dwattr $C$DW$192, DW_AT_low_pc(0x00)
    2362                      .dwattr $C$DW$192, DW_AT_TI_return
    2363 000003c9 0006          LRETR     ; [CPU_] 
    2364                      ; return occurs ; [] 
    2365                      .dwattr $C$DW$169, DW_AT_TI_end_file("D:/BM1000/sw/modules/user/src/32b/user.c")
    2366                      .dwattr $C$DW$169, DW_AT_TI_end_line(0x3e6)
    2367                      .dwattr $C$DW$169, DW_AT_TI_end_column(0x01)
    2368                      .dwendentry
    2369                      .dwendtag $C$DW$169
    2370              
    2371 000003ca               .sect   ".text"
    2372                      .clink
    2373                      .global _USER_computeFlux_pu_to_Wb_sf
    2374              
    2375              $C$DW$193       .dwtag  DW_TAG_subprogram, DW_AT_name("USER_computeFlux_pu_to_Wb_sf")
    2376                      .dwattr $C$DW$193, DW_AT_low_pc(_USER_computeFlux_pu_to_Wb_sf)
    2377                      .dwattr $C$DW$193, DW_AT_high_pc(0x00)
    2378                      .dwattr $C$DW$193, DW_AT_TI_symbol_name("_USER_computeFlux_pu_to_Wb_sf")
    2379                      .dwattr $C$DW$193, DW_AT_external
    2380                      .dwattr $C$DW$193, DW_AT_type(*$C$DW$T$20)
    2381                      .dwattr $C$DW$193, DW_AT_TI_begin_file("D:/BM1000/sw/modules/user/src/32b/user.c")
    2382                      .dwattr $C$DW$193, DW_AT_TI_begin_line(0x3eb)
    2383                      .dwattr $C$DW$193, DW_AT_TI_begin_column(0x05)
    2384                      .dwattr $C$DW$193, DW_AT_TI_max_frame_size(-16)
    2385                      .dwpsn  file "D:/BM1000/sw/modules/user/src/32b/user.c",line 1004,column 1,is_stmt,address _USER_comp
    2386              
    2387                      .dwfde $C$DW$CIE, _USER_computeFlux_pu_to_Wb_sf
    2388              $C$DW$194       .dwtag  DW_TAG_formal_parameter, DW_AT_name("pUserParams")
    2389                      .dwattr $C$DW$194, DW_AT_TI_symbol_name("_pUserParams")
    2390                      .dwattr $C$DW$194, DW_AT_type(*$C$DW$T$80)
    2391                      .dwattr $C$DW$194, DW_AT_location[DW_OP_reg12]
    2392              
TMS320C2000 Assembler PC v6.2.5 Sat Sep 16 14:47:35 2017

Tools Copyright (c) 1996-2014 Texas Instruments Incorporated
C:\Users\wmj\AppData\Local\Temp\1316010                              PAGE   49

    2393              ;***************************************************************
    2394              ;* FNAME: _USER_computeFlux_pu_to_Wb_sf FR SIZE:  14           *
    2395              ;*                                                             *
    2396              ;* FUNCTION ENVIRONMENT                                        *
    2397              ;*                                                             *
    2398              ;* FUNCTION PROPERTIES                                         *
    2399              ;*                            2 Parameter, 10 Auto,  2 SOE     *
    2400              ;***************************************************************
    2401              
    2402              _USER_computeFlux_pu_to_Wb_sf:
    2403              ;* AL    assigned to _x
    2404              $C$DW$195       .dwtag  DW_TAG_variable, DW_AT_name("x")
    2405                      .dwattr $C$DW$195, DW_AT_TI_symbol_name("_x")
    2406                      .dwattr $C$DW$195, DW_AT_type(*$C$DW$T$17)
    2407                      .dwattr $C$DW$195, DW_AT_location[DW_OP_reg0]
    2408              $C$DW$196       .dwtag  DW_TAG_variable, DW_AT_name("y")
    2409                      .dwattr $C$DW$196, DW_AT_TI_symbol_name("_y")
    2410                      .dwattr $C$DW$196, DW_AT_type(*$C$DW$T$17)
    2411                      .dwattr $C$DW$196, DW_AT_location[DW_OP_breg20 -4]
    2412              ;* AL    assigned to _maxFlux
    2413              $C$DW$197       .dwtag  DW_TAG_variable, DW_AT_name("maxFlux")
    2414                      .dwattr $C$DW$197, DW_AT_TI_symbol_name("_maxFlux")
    2415                      .dwattr $C$DW$197, DW_AT_type(*$C$DW$T$54)
    2416                      .dwattr $C$DW$197, DW_AT_location[DW_OP_reg0]
    2417              ;* AR4   assigned to _pUserParams
    2418              $C$DW$198       .dwtag  DW_TAG_variable, DW_AT_name("pUserParams")
    2419                      .dwattr $C$DW$198, DW_AT_TI_symbol_name("_pUserParams")
    2420                      .dwattr $C$DW$198, DW_AT_type(*$C$DW$T$91)
    2421                      .dwattr $C$DW$198, DW_AT_location[DW_OP_reg12]
    2422              ;* AL    assigned to $O$S2
    2423              ;* AL    assigned to $O$R1
    2424                      .dwcfi  cfa_offset, -2
    2425                      .dwcfi  save_reg_to_mem, 26, 0
    2426                      .dwcfi  save_reg_to_reg, 78, 26
    2427 000003ca B2BD          MOVL      *SP++,XAR1            ; [CPU_] 
    2428                      .dwcfi  save_reg_to_mem, 7, 2
    2429                      .dwcfi  cfa_offset, -4
    2430 000003cb FE0C          ADDB      SP,#12                ; [CPU_U] 
    2431                      .dwcfi  cfa_offset, -16
    2432                      .dwpsn  file "D:/BM1000/sw/modules/user/src/32b/user.c",line 1006,column 19,is_stmt
    2433 000003cc D034          MOVB      XAR0,#52              ; [CPU_] |1006| 
    2434 000003cd 9294          MOV       AL,*+XAR4[AR0]        ; [CPU_] |1006| 
    2435 000003ce EC06          BF        $C$L9,EQ              ; [CPU_] |1006| 
    2436                      ; branchcc occurs ; [] |1006| 
    2437 000003cf 28A9          MOV       AL,#13107             ; [CPU_] |1006| 
         000003d0 3333 
    2438 000003d1 28A8          MOV       AH,#16179             ; [CPU_] |1006| 
         000003d2 3F33 
    2439 000003d3 6F05          B         $C$L10,UNC            ; [CPU_] |1006| 
    2440                      ; branch occurs ; [] |1006| 
    2441 000003d4       $C$L9:    
    2442 000003d4 28A9          MOV       AL,#52429             ; [CPU_] |1006| 
         000003d5 CCCD 
    2443 000003d6 28A8          MOV       AH,#15692             ; [CPU_] |1006| 
         000003d7 3D4C 
TMS320C2000 Assembler PC v6.2.5 Sat Sep 16 14:47:35 2017

Tools Copyright (c) 1996-2014 Texas Instruments Incorporated
C:\Users\wmj\AppData\Local\Temp\1316010                              PAGE   50

    2444 000003d8       $C$L10:    
    2445 000003d8 1E42          MOVL      *-SP[2],ACC           ; [CPU_] |1006| 
    2446 000003d9 D036          MOVB      XAR0,#54              ; [CPU_] |1006| 
    2447 000003da 0694          MOVL      ACC,*+XAR4[AR0]       ; [CPU_] |1006| 
    2448              $C$DW$199       .dwtag  DW_TAG_TI_branch
    2449                      .dwattr $C$DW$199, DW_AT_low_pc(0x00)
    2450                      .dwattr $C$DW$199, DW_AT_name("FS$$MPY")
    2451                      .dwattr $C$DW$199, DW_AT_TI_call
    2452 000003db 7640!         LCR       #FS$$MPY              ; [CPU_] |1006| 
         000003dc 0000 
    2453                      ; call occurs [#FS$$MPY] ; [] |1006| 
    2454                      .dwpsn  file "D:/BM1000/sw/modules/user/src/32b/user.c",line 1007,column 18,is_stmt
    2455 000003dd 1E42          MOVL      *-SP[2],ACC           ; [CPU_] |1007| 
    2456 000003de 28A9          MOV       AL,#20972             ; [CPU_] |1007| 
         000003df 51EC 
    2457 000003e0 28A8          MOV       AH,#15800             ; [CPU_] |1007| 
         000003e1 3DB8 
    2458              $C$DW$200       .dwtag  DW_TAG_TI_branch
    2459                      .dwattr $C$DW$200, DW_AT_low_pc(0x00)
    2460                      .dwattr $C$DW$200, DW_AT_name("FS$$DIV")
    2461                      .dwattr $C$DW$200, DW_AT_TI_call
    2462 000003e2 7640!         LCR       #FS$$DIV              ; [CPU_] |1007| 
         000003e3 0000 
    2463                      ; call occurs [#FS$$DIV] ; [] |1007| 
    2464              $C$DW$201       .dwtag  DW_TAG_TI_branch
    2465                      .dwattr $C$DW$201, DW_AT_low_pc(0x00)
    2466                      .dwattr $C$DW$201, DW_AT_name("_log")
    2467                      .dwattr $C$DW$201, DW_AT_TI_call
    2468 000003e4 7640!         LCR       #_log                 ; [CPU_] |1007| 
         000003e5 0000 
    2469                      ; call occurs [#_log] ; [] |1007| 
    2470 000003e6 8BA9          MOVL      XAR1,ACC              ; [CPU_] |1007| 
    2471 000003e7 9A00          MOV       AL,#0                 ; [CPU_] |1007| 
    2472 000003e8 28A8          MOV       AH,#16384             ; [CPU_] |1007| 
         000003e9 4000 
    2473              $C$DW$202       .dwtag  DW_TAG_TI_branch
    2474                      .dwattr $C$DW$202, DW_AT_low_pc(0x00)
    2475                      .dwattr $C$DW$202, DW_AT_name("_log")
    2476                      .dwattr $C$DW$202, DW_AT_TI_call
    2477 000003ea 7640!         LCR       #_log                 ; [CPU_] |1007| 
         000003eb 0000 
    2478                      ; call occurs [#_log] ; [] |1007| 
    2479 000003ec 1E42          MOVL      *-SP[2],ACC           ; [CPU_] |1007| 
    2480 000003ed B2A9          MOVL      ACC,XAR1              ; [CPU_] |1007| 
    2481              $C$DW$203       .dwtag  DW_TAG_TI_branch
    2482                      .dwattr $C$DW$203, DW_AT_low_pc(0x00)
    2483                      .dwattr $C$DW$203, DW_AT_name("FS$$DIV")
    2484                      .dwattr $C$DW$203, DW_AT_TI_call
    2485 000003ee 7640!         LCR       #FS$$DIV              ; [CPU_] |1007| 
         000003ef 0000 
    2486                      ; call occurs [#FS$$DIV] ; [] |1007| 
    2487                      .dwpsn  file "C:/ti/ccsv6/tools/compiler/c2000_6.2.5/include/math.h",line 110,column 45,is_stmt
    2488 000003f0 5CAD          MOVZ      AR4,SP                ; [CPU_U] |110| 
    2489 000003f1 DC84          SUBB      XAR4,#4               ; [CPU_U] |110| 
    2490              $C$DW$204       .dwtag  DW_TAG_TI_branch
TMS320C2000 Assembler PC v6.2.5 Sat Sep 16 14:47:35 2017

Tools Copyright (c) 1996-2014 Texas Instruments Incorporated
C:\Users\wmj\AppData\Local\Temp\1316010                              PAGE   51

    2491                      .dwattr $C$DW$204, DW_AT_low_pc(0x00)
    2492                      .dwattr $C$DW$204, DW_AT_name("_modf")
    2493                      .dwattr $C$DW$204, DW_AT_TI_call
    2494 000003f2 7640!         LCR       #_modf                ; [CPU_] |110| 
         000003f3 0000 
    2495                      ; call occurs [#_modf] ; [] |110| 
    2496 000003f4 1EA6          MOVL      XAR6,ACC              ; [CPU_] |110| 
    2497 000003f5 9A00          MOV       AL,#0                 ; [CPU_] |110| 
    2498 000003f6 9B00          MOV       AH,#0                 ; [CPU_] |110| 
    2499 000003f7 1E42          MOVL      *-SP[2],ACC           ; [CPU_] |110| 
    2500 000003f8 06A6          MOVL      ACC,XAR6              ; [CPU_] |110| 
    2501              $C$DW$205       .dwtag  DW_TAG_TI_branch
    2502                      .dwattr $C$DW$205, DW_AT_low_pc(0x00)
    2503                      .dwattr $C$DW$205, DW_AT_name("FS$$CMP")
    2504                      .dwattr $C$DW$205, DW_AT_TI_call
    2505 000003f9 7640!         LCR       #FS$$CMP              ; [CPU_] |110| 
         000003fa 0000 
    2506                      ; call occurs [#FS$$CMP] ; [] |110| 
    2507 000003fb 5200          CMPB      AL,#0                 ; [CPU_] |110| 
    2508 000003fc 6203          B         $C$L11,GT             ; [CPU_] |110| 
    2509                      ; branchcc occurs ; [] |110| 
    2510 000003fd 0644          MOVL      ACC,*-SP[4]           ; [CPU_] |110| 
    2511 000003fe 6F07          B         $C$L12,UNC            ; [CPU_] |110| 
    2512                      ; branch occurs ; [] |110| 
    2513 000003ff       $C$L11:    
    2514 000003ff FF2F          MOV       ACC,#32512 << 15      ; [CPU_] |110| 
         00000400 7F00 
    2515 00000401 1E42          MOVL      *-SP[2],ACC           ; [CPU_] |110| 
    2516 00000402 0644          MOVL      ACC,*-SP[4]           ; [CPU_] |110| 
    2517              $C$DW$206       .dwtag  DW_TAG_TI_branch
    2518                      .dwattr $C$DW$206, DW_AT_low_pc(0x00)
    2519                      .dwattr $C$DW$206, DW_AT_name("FS$$ADD")
    2520                      .dwattr $C$DW$206, DW_AT_TI_call
    2521 00000403 7640!         LCR       #FS$$ADD              ; [CPU_] |110| 
         00000404 0000 
    2522                      ; call occurs [#FS$$ADD] ; [] |110| 
    2523 00000405       $C$L12:    
    2524                      .dwpsn  file "D:/BM1000/sw/modules/user/src/32b/user.c",line 1009,column 3,is_stmt
    2525              $C$DW$207       .dwtag  DW_TAG_TI_branch
    2526                      .dwattr $C$DW$207, DW_AT_low_pc(0x00)
    2527                      .dwattr $C$DW$207, DW_AT_name("FS$$NEG")
    2528                      .dwattr $C$DW$207, DW_AT_TI_call
    2529 00000405 7640!         LCR       #FS$$NEG              ; [CPU_] |1009| 
         00000406 0000 
    2530                      ; call occurs [#FS$$NEG] ; [] |1009| 
    2531 00000407 1E42          MOVL      *-SP[2],ACC           ; [CPU_] |1009| 
    2532 00000408 9A00          MOV       AL,#0                 ; [CPU_] |1009| 
    2533 00000409 28A8          MOV       AH,#16384             ; [CPU_] |1009| 
         0000040a 4000 
    2534              $C$DW$208       .dwtag  DW_TAG_TI_branch
    2535                      .dwattr $C$DW$208, DW_AT_low_pc(0x00)
    2536                      .dwattr $C$DW$208, DW_AT_name("_pow")
    2537                      .dwattr $C$DW$208, DW_AT_TI_call
    2538 0000040b 7640!         LCR       #_pow                 ; [CPU_] |1009| 
         0000040c 0000 
TMS320C2000 Assembler PC v6.2.5 Sat Sep 16 14:47:35 2017

Tools Copyright (c) 1996-2014 Texas Instruments Incorporated
C:\Users\wmj\AppData\Local\Temp\1316010                              PAGE   52

    2539                      ; call occurs [#_pow] ; [] |1009| 
    2540 0000040d 1EA6          MOVL      XAR6,ACC              ; [CPU_] |1009| 
    2541 0000040e 28A9          MOV       AL,#44795             ; [CPU_] |1009| 
         0000040f AEFB 
    2542 00000410 28A8          MOV       AH,#15466             ; [CPU_] |1009| 
         00000411 3C6A 
    2543 00000412 1E42          MOVL      *-SP[2],ACC           ; [CPU_] |1009| 
    2544 00000413 06A6          MOVL      ACC,XAR6              ; [CPU_] |1009| 
    2545              $C$DW$209       .dwtag  DW_TAG_TI_branch
    2546                      .dwattr $C$DW$209, DW_AT_low_pc(0x00)
    2547                      .dwattr $C$DW$209, DW_AT_name("FS$$MPY")
    2548                      .dwattr $C$DW$209, DW_AT_TI_call
    2549 00000414 7640!         LCR       #FS$$MPY              ; [CPU_] |1009| 
         00000415 0000 
    2550                      ; call occurs [#FS$$MPY] ; [] |1009| 
    2551 00000416 88AD          MOVZ      AR6,SP                ; [CPU_U] |1009| 
    2552 00000417 DE8C          SUBB      XAR6,#12              ; [CPU_U] |1009| 
    2553              $C$DW$210       .dwtag  DW_TAG_TI_branch
    2554                      .dwattr $C$DW$210, DW_AT_low_pc(0x00)
    2555                      .dwattr $C$DW$210, DW_AT_name("FS$$TOFD")
    2556                      .dwattr $C$DW$210, DW_AT_TI_call
    2557 00000418 7640!         LCR       #FS$$TOFD             ; [CPU_] |1009| 
         00000419 0000 
    2558                      ; call occurs [#FS$$TOFD] ; [] |1009| 
    2559 0000041a 5CAD          MOVZ      AR4,SP                ; [CPU_U] |1009| 
    2560 0000041b 88AD          MOVZ      AR6,SP                ; [CPU_U] |1009| 
    2561 0000041c 8F40+         MOVL      XAR5,#$C$FL2          ; [CPU_U] |1009| 
         0000041d 0004 
    2562 0000041e DC8C          SUBB      XAR4,#12              ; [CPU_U] |1009| 
    2563 0000041f DE88          SUBB      XAR6,#8               ; [CPU_U] |1009| 
    2564              $C$DW$211       .dwtag  DW_TAG_TI_branch
    2565                      .dwattr $C$DW$211, DW_AT_low_pc(0x00)
    2566                      .dwattr $C$DW$211, DW_AT_name("FD$$MPY")
    2567                      .dwattr $C$DW$211, DW_AT_TI_call
    2568 00000420 7640!         LCR       #FD$$MPY              ; [CPU_] |1009| 
         00000421 0000 
    2569                      ; call occurs [#FD$$MPY] ; [] |1009| 
    2570 00000422 5CAD          MOVZ      AR4,SP                ; [CPU_U] |1009| 
    2571 00000423 DC88          SUBB      XAR4,#8               ; [CPU_U] |1009| 
    2572              $C$DW$212       .dwtag  DW_TAG_TI_branch
    2573                      .dwattr $C$DW$212, DW_AT_low_pc(0x00)
    2574                      .dwattr $C$DW$212, DW_AT_name("FD$$TOL")
    2575                      .dwattr $C$DW$212, DW_AT_TI_call
    2576 00000424 7640!         LCR       #FD$$TOL              ; [CPU_] |1009| 
         00000425 0000 
    2577                      ; call occurs [#FD$$TOL] ; [] |1009| 
    2578 00000426 FE8C          SUBB      SP,#12                ; [CPU_U] 
    2579                      .dwcfi  cfa_offset, -4
    2580 00000427 8BBE          MOVL      XAR1,*--SP            ; [CPU_] 
    2581                      .dwcfi  cfa_offset, -2
    2582                      .dwcfi  restore_reg, 7
    2583              $C$DW$213       .dwtag  DW_TAG_TI_branch
    2584                      .dwattr $C$DW$213, DW_AT_low_pc(0x00)
    2585                      .dwattr $C$DW$213, DW_AT_TI_return
    2586 00000428 0006          LRETR     ; [CPU_] 
TMS320C2000 Assembler PC v6.2.5 Sat Sep 16 14:47:35 2017

Tools Copyright (c) 1996-2014 Texas Instruments Incorporated
C:\Users\wmj\AppData\Local\Temp\1316010                              PAGE   53

    2587                      ; return occurs ; [] 
    2588                      .dwattr $C$DW$193, DW_AT_TI_end_file("D:/BM1000/sw/modules/user/src/32b/user.c")
    2589                      .dwattr $C$DW$193, DW_AT_TI_end_line(0x3f2)
    2590                      .dwattr $C$DW$193, DW_AT_TI_end_column(0x01)
    2591                      .dwendentry
    2592                      .dwendtag $C$DW$193
    2593              
    2594 00000429               .sect   ".text"
    2595                      .clink
    2596                      .global _USER_computeFlux_pu_to_VpHz_sf
    2597              
    2598              $C$DW$214       .dwtag  DW_TAG_subprogram, DW_AT_name("USER_computeFlux_pu_to_VpHz_sf")
    2599                      .dwattr $C$DW$214, DW_AT_low_pc(_USER_computeFlux_pu_to_VpHz_sf)
    2600                      .dwattr $C$DW$214, DW_AT_high_pc(0x00)
    2601                      .dwattr $C$DW$214, DW_AT_TI_symbol_name("_USER_computeFlux_pu_to_VpHz_sf")
    2602                      .dwattr $C$DW$214, DW_AT_external
    2603                      .dwattr $C$DW$214, DW_AT_type(*$C$DW$T$20)
    2604                      .dwattr $C$DW$214, DW_AT_TI_begin_file("D:/BM1000/sw/modules/user/src/32b/user.c")
    2605                      .dwattr $C$DW$214, DW_AT_TI_begin_line(0x3f7)
    2606                      .dwattr $C$DW$214, DW_AT_TI_begin_column(0x05)
    2607                      .dwattr $C$DW$214, DW_AT_TI_max_frame_size(-16)
    2608                      .dwpsn  file "D:/BM1000/sw/modules/user/src/32b/user.c",line 1016,column 1,is_stmt,address _USER_comp
    2609              
    2610                      .dwfde $C$DW$CIE, _USER_computeFlux_pu_to_VpHz_sf
    2611              $C$DW$215       .dwtag  DW_TAG_formal_parameter, DW_AT_name("pUserParams")
    2612                      .dwattr $C$DW$215, DW_AT_TI_symbol_name("_pUserParams")
    2613                      .dwattr $C$DW$215, DW_AT_type(*$C$DW$T$80)
    2614                      .dwattr $C$DW$215, DW_AT_location[DW_OP_reg12]
    2615              
    2616              ;***************************************************************
    2617              ;* FNAME: _USER_computeFlux_pu_to_VpHz_sf FR SIZE:  14           *
    2618              ;*                                                             *
    2619              ;* FUNCTION ENVIRONMENT                                        *
    2620              ;*                                                             *
    2621              ;* FUNCTION PROPERTIES                                         *
    2622              ;*                            2 Parameter, 10 Auto,  2 SOE     *
    2623              ;***************************************************************
    2624              
    2625              _USER_computeFlux_pu_to_VpHz_sf:
    2626              ;* AL    assigned to _x
    2627              $C$DW$216       .dwtag  DW_TAG_variable, DW_AT_name("x")
    2628                      .dwattr $C$DW$216, DW_AT_TI_symbol_name("_x")
    2629                      .dwattr $C$DW$216, DW_AT_type(*$C$DW$T$17)
    2630                      .dwattr $C$DW$216, DW_AT_location[DW_OP_reg0]
    2631              $C$DW$217       .dwtag  DW_TAG_variable, DW_AT_name("y")
    2632                      .dwattr $C$DW$217, DW_AT_TI_symbol_name("_y")
    2633                      .dwattr $C$DW$217, DW_AT_type(*$C$DW$T$17)
    2634                      .dwattr $C$DW$217, DW_AT_location[DW_OP_breg20 -4]
    2635              ;* AL    assigned to _maxFlux
    2636              $C$DW$218       .dwtag  DW_TAG_variable, DW_AT_name("maxFlux")
    2637                      .dwattr $C$DW$218, DW_AT_TI_symbol_name("_maxFlux")
    2638                      .dwattr $C$DW$218, DW_AT_type(*$C$DW$T$54)
    2639                      .dwattr $C$DW$218, DW_AT_location[DW_OP_reg0]
    2640              ;* AR4   assigned to _pUserParams
    2641              $C$DW$219       .dwtag  DW_TAG_variable, DW_AT_name("pUserParams")
TMS320C2000 Assembler PC v6.2.5 Sat Sep 16 14:47:35 2017

Tools Copyright (c) 1996-2014 Texas Instruments Incorporated
C:\Users\wmj\AppData\Local\Temp\1316010                              PAGE   54

    2642                      .dwattr $C$DW$219, DW_AT_TI_symbol_name("_pUserParams")
    2643                      .dwattr $C$DW$219, DW_AT_type(*$C$DW$T$91)
    2644                      .dwattr $C$DW$219, DW_AT_location[DW_OP_reg12]
    2645              ;* AL    assigned to $O$S2
    2646              ;* AL    assigned to $O$R1
    2647                      .dwcfi  cfa_offset, -2
    2648                      .dwcfi  save_reg_to_mem, 26, 0
    2649                      .dwcfi  save_reg_to_reg, 78, 26
    2650 00000429 B2BD          MOVL      *SP++,XAR1            ; [CPU_] 
    2651                      .dwcfi  save_reg_to_mem, 7, 2
    2652                      .dwcfi  cfa_offset, -4
    2653 0000042a FE0C          ADDB      SP,#12                ; [CPU_U] 
    2654                      .dwcfi  cfa_offset, -16
    2655                      .dwpsn  file "D:/BM1000/sw/modules/user/src/32b/user.c",line 1018,column 19,is_stmt
    2656 0000042b D034          MOVB      XAR0,#52              ; [CPU_] |1018| 
    2657 0000042c 9294          MOV       AL,*+XAR4[AR0]        ; [CPU_] |1018| 
    2658 0000042d EC06          BF        $C$L13,EQ             ; [CPU_] |1018| 
    2659                      ; branchcc occurs ; [] |1018| 
    2660 0000042e 28A9          MOV       AL,#13107             ; [CPU_] |1018| 
         0000042f 3333 
    2661 00000430 28A8          MOV       AH,#16179             ; [CPU_] |1018| 
         00000431 3F33 
    2662 00000432 6F05          B         $C$L14,UNC            ; [CPU_] |1018| 
    2663                      ; branch occurs ; [] |1018| 
    2664 00000433       $C$L13:    
    2665 00000433 28A9          MOV       AL,#52429             ; [CPU_] |1018| 
         00000434 CCCD 
    2666 00000435 28A8          MOV       AH,#15692             ; [CPU_] |1018| 
         00000436 3D4C 
    2667 00000437       $C$L14:    
    2668 00000437 1E42          MOVL      *-SP[2],ACC           ; [CPU_] |1018| 
    2669 00000438 D036          MOVB      XAR0,#54              ; [CPU_] |1018| 
    2670 00000439 0694          MOVL      ACC,*+XAR4[AR0]       ; [CPU_] |1018| 
    2671              $C$DW$220       .dwtag  DW_TAG_TI_branch
    2672                      .dwattr $C$DW$220, DW_AT_low_pc(0x00)
    2673                      .dwattr $C$DW$220, DW_AT_name("FS$$MPY")
    2674                      .dwattr $C$DW$220, DW_AT_TI_call
    2675 0000043a 7640!         LCR       #FS$$MPY              ; [CPU_] |1018| 
         0000043b 0000 
    2676                      ; call occurs [#FS$$MPY] ; [] |1018| 
    2677                      .dwpsn  file "D:/BM1000/sw/modules/user/src/32b/user.c",line 1019,column 18,is_stmt
    2678 0000043c 1E42          MOVL      *-SP[2],ACC           ; [CPU_] |1019| 
    2679 0000043d 28A9          MOV       AL,#20972             ; [CPU_] |1019| 
         0000043e 51EC 
    2680 0000043f 28A8          MOV       AH,#15800             ; [CPU_] |1019| 
         00000440 3DB8 
    2681              $C$DW$221       .dwtag  DW_TAG_TI_branch
    2682                      .dwattr $C$DW$221, DW_AT_low_pc(0x00)
    2683                      .dwattr $C$DW$221, DW_AT_name("FS$$DIV")
    2684                      .dwattr $C$DW$221, DW_AT_TI_call
    2685 00000441 7640!         LCR       #FS$$DIV              ; [CPU_] |1019| 
         00000442 0000 
    2686                      ; call occurs [#FS$$DIV] ; [] |1019| 
    2687              $C$DW$222       .dwtag  DW_TAG_TI_branch
    2688                      .dwattr $C$DW$222, DW_AT_low_pc(0x00)
TMS320C2000 Assembler PC v6.2.5 Sat Sep 16 14:47:35 2017

Tools Copyright (c) 1996-2014 Texas Instruments Incorporated
C:\Users\wmj\AppData\Local\Temp\1316010                              PAGE   55

    2689                      .dwattr $C$DW$222, DW_AT_name("_log")
    2690                      .dwattr $C$DW$222, DW_AT_TI_call
    2691 00000443 7640!         LCR       #_log                 ; [CPU_] |1019| 
         00000444 0000 
    2692                      ; call occurs [#_log] ; [] |1019| 
    2693 00000445 8BA9          MOVL      XAR1,ACC              ; [CPU_] |1019| 
    2694 00000446 9A00          MOV       AL,#0                 ; [CPU_] |1019| 
    2695 00000447 28A8          MOV       AH,#16384             ; [CPU_] |1019| 
         00000448 4000 
    2696              $C$DW$223       .dwtag  DW_TAG_TI_branch
    2697                      .dwattr $C$DW$223, DW_AT_low_pc(0x00)
    2698                      .dwattr $C$DW$223, DW_AT_name("_log")
    2699                      .dwattr $C$DW$223, DW_AT_TI_call
    2700 00000449 7640!         LCR       #_log                 ; [CPU_] |1019| 
         0000044a 0000 
    2701                      ; call occurs [#_log] ; [] |1019| 
    2702 0000044b 1E42          MOVL      *-SP[2],ACC           ; [CPU_] |1019| 
    2703 0000044c B2A9          MOVL      ACC,XAR1              ; [CPU_] |1019| 
    2704              $C$DW$224       .dwtag  DW_TAG_TI_branch
    2705                      .dwattr $C$DW$224, DW_AT_low_pc(0x00)
    2706                      .dwattr $C$DW$224, DW_AT_name("FS$$DIV")
    2707                      .dwattr $C$DW$224, DW_AT_TI_call
    2708 0000044d 7640!         LCR       #FS$$DIV              ; [CPU_] |1019| 
         0000044e 0000 
    2709                      ; call occurs [#FS$$DIV] ; [] |1019| 
    2710                      .dwpsn  file "C:/ti/ccsv6/tools/compiler/c2000_6.2.5/include/math.h",line 110,column 45,is_stmt
    2711 0000044f 5CAD          MOVZ      AR4,SP                ; [CPU_U] |110| 
    2712 00000450 DC84          SUBB      XAR4,#4               ; [CPU_U] |110| 
    2713              $C$DW$225       .dwtag  DW_TAG_TI_branch
    2714                      .dwattr $C$DW$225, DW_AT_low_pc(0x00)
    2715                      .dwattr $C$DW$225, DW_AT_name("_modf")
    2716                      .dwattr $C$DW$225, DW_AT_TI_call
    2717 00000451 7640!         LCR       #_modf                ; [CPU_] |110| 
         00000452 0000 
    2718                      ; call occurs [#_modf] ; [] |110| 
    2719 00000453 1EA6          MOVL      XAR6,ACC              ; [CPU_] |110| 
    2720 00000454 9A00          MOV       AL,#0                 ; [CPU_] |110| 
    2721 00000455 9B00          MOV       AH,#0                 ; [CPU_] |110| 
    2722 00000456 1E42          MOVL      *-SP[2],ACC           ; [CPU_] |110| 
    2723 00000457 06A6          MOVL      ACC,XAR6              ; [CPU_] |110| 
    2724              $C$DW$226       .dwtag  DW_TAG_TI_branch
    2725                      .dwattr $C$DW$226, DW_AT_low_pc(0x00)
    2726                      .dwattr $C$DW$226, DW_AT_name("FS$$CMP")
    2727                      .dwattr $C$DW$226, DW_AT_TI_call
    2728 00000458 7640!         LCR       #FS$$CMP              ; [CPU_] |110| 
         00000459 0000 
    2729                      ; call occurs [#FS$$CMP] ; [] |110| 
    2730 0000045a 5200          CMPB      AL,#0                 ; [CPU_] |110| 
    2731 0000045b 6203          B         $C$L15,GT             ; [CPU_] |110| 
    2732                      ; branchcc occurs ; [] |110| 
    2733 0000045c 0644          MOVL      ACC,*-SP[4]           ; [CPU_] |110| 
    2734 0000045d 6F07          B         $C$L16,UNC            ; [CPU_] |110| 
    2735                      ; branch occurs ; [] |110| 
    2736 0000045e       $C$L15:    
    2737 0000045e FF2F          MOV       ACC,#32512 << 15      ; [CPU_] |110| 
TMS320C2000 Assembler PC v6.2.5 Sat Sep 16 14:47:35 2017

Tools Copyright (c) 1996-2014 Texas Instruments Incorporated
C:\Users\wmj\AppData\Local\Temp\1316010                              PAGE   56

         0000045f 7F00 
    2738 00000460 1E42          MOVL      *-SP[2],ACC           ; [CPU_] |110| 
    2739 00000461 0644          MOVL      ACC,*-SP[4]           ; [CPU_] |110| 
    2740              $C$DW$227       .dwtag  DW_TAG_TI_branch
    2741                      .dwattr $C$DW$227, DW_AT_low_pc(0x00)
    2742                      .dwattr $C$DW$227, DW_AT_name("FS$$ADD")
    2743                      .dwattr $C$DW$227, DW_AT_TI_call
    2744 00000462 7640!         LCR       #FS$$ADD              ; [CPU_] |110| 
         00000463 0000 
    2745                      ; call occurs [#FS$$ADD] ; [] |110| 
    2746 00000464       $C$L16:    
    2747                      .dwpsn  file "D:/BM1000/sw/modules/user/src/32b/user.c",line 1021,column 3,is_stmt
    2748              $C$DW$228       .dwtag  DW_TAG_TI_branch
    2749                      .dwattr $C$DW$228, DW_AT_low_pc(0x00)
    2750                      .dwattr $C$DW$228, DW_AT_name("FS$$NEG")
    2751                      .dwattr $C$DW$228, DW_AT_TI_call
    2752 00000464 7640!         LCR       #FS$$NEG              ; [CPU_] |1021| 
         00000465 0000 
    2753                      ; call occurs [#FS$$NEG] ; [] |1021| 
    2754 00000466 1E42          MOVL      *-SP[2],ACC           ; [CPU_] |1021| 
    2755 00000467 9A00          MOV       AL,#0                 ; [CPU_] |1021| 
    2756 00000468 28A8          MOV       AH,#16384             ; [CPU_] |1021| 
         00000469 4000 
    2757              $C$DW$229       .dwtag  DW_TAG_TI_branch
    2758                      .dwattr $C$DW$229, DW_AT_low_pc(0x00)
    2759                      .dwattr $C$DW$229, DW_AT_name("_pow")
    2760                      .dwattr $C$DW$229, DW_AT_TI_call
    2761 0000046a 7640!         LCR       #_pow                 ; [CPU_] |1021| 
         0000046b 0000 
    2762                      ; call occurs [#_pow] ; [] |1021| 
    2763 0000046c 1EA6          MOVL      XAR6,ACC              ; [CPU_] |1021| 
    2764 0000046d 28A9          MOV       AL,#20972             ; [CPU_] |1021| 
         0000046e 51EC 
    2765 0000046f 28A8          MOV       AH,#15800             ; [CPU_] |1021| 
         00000470 3DB8 
    2766 00000471 1E42          MOVL      *-SP[2],ACC           ; [CPU_] |1021| 
    2767 00000472 06A6          MOVL      ACC,XAR6              ; [CPU_] |1021| 
    2768              $C$DW$230       .dwtag  DW_TAG_TI_branch
    2769                      .dwattr $C$DW$230, DW_AT_low_pc(0x00)
    2770                      .dwattr $C$DW$230, DW_AT_name("FS$$MPY")
    2771                      .dwattr $C$DW$230, DW_AT_TI_call
    2772 00000473 7640!         LCR       #FS$$MPY              ; [CPU_] |1021| 
         00000474 0000 
    2773                      ; call occurs [#FS$$MPY] ; [] |1021| 
    2774 00000475 88AD          MOVZ      AR6,SP                ; [CPU_U] |1021| 
    2775 00000476 DE8C          SUBB      XAR6,#12              ; [CPU_U] |1021| 
    2776              $C$DW$231       .dwtag  DW_TAG_TI_branch
    2777                      .dwattr $C$DW$231, DW_AT_low_pc(0x00)
    2778                      .dwattr $C$DW$231, DW_AT_name("FS$$TOFD")
    2779                      .dwattr $C$DW$231, DW_AT_TI_call
    2780 00000477 7640!         LCR       #FS$$TOFD             ; [CPU_] |1021| 
         00000478 0000 
    2781                      ; call occurs [#FS$$TOFD] ; [] |1021| 
    2782 00000479 5CAD          MOVZ      AR4,SP                ; [CPU_U] |1021| 
    2783 0000047a 88AD          MOVZ      AR6,SP                ; [CPU_U] |1021| 
TMS320C2000 Assembler PC v6.2.5 Sat Sep 16 14:47:35 2017

Tools Copyright (c) 1996-2014 Texas Instruments Incorporated
C:\Users\wmj\AppData\Local\Temp\1316010                              PAGE   57

    2784 0000047b 8F40+         MOVL      XAR5,#$C$FL2          ; [CPU_U] |1021| 
         0000047c 0004 
    2785 0000047d DC8C          SUBB      XAR4,#12              ; [CPU_U] |1021| 
    2786 0000047e DE88          SUBB      XAR6,#8               ; [CPU_U] |1021| 
    2787              $C$DW$232       .dwtag  DW_TAG_TI_branch
    2788                      .dwattr $C$DW$232, DW_AT_low_pc(0x00)
    2789                      .dwattr $C$DW$232, DW_AT_name("FD$$MPY")
    2790                      .dwattr $C$DW$232, DW_AT_TI_call
    2791 0000047f 7640!         LCR       #FD$$MPY              ; [CPU_] |1021| 
         00000480 0000 
    2792                      ; call occurs [#FD$$MPY] ; [] |1021| 
    2793 00000481 5CAD          MOVZ      AR4,SP                ; [CPU_U] |1021| 
    2794 00000482 DC88          SUBB      XAR4,#8               ; [CPU_U] |1021| 
    2795              $C$DW$233       .dwtag  DW_TAG_TI_branch
    2796                      .dwattr $C$DW$233, DW_AT_low_pc(0x00)
    2797                      .dwattr $C$DW$233, DW_AT_name("FD$$TOL")
    2798                      .dwattr $C$DW$233, DW_AT_TI_call
    2799 00000483 7640!         LCR       #FD$$TOL              ; [CPU_] |1021| 
         00000484 0000 
    2800                      ; call occurs [#FD$$TOL] ; [] |1021| 
    2801 00000485 FE8C          SUBB      SP,#12                ; [CPU_U] 
    2802                      .dwcfi  cfa_offset, -4
    2803 00000486 8BBE          MOVL      XAR1,*--SP            ; [CPU_] 
    2804                      .dwcfi  cfa_offset, -2
    2805                      .dwcfi  restore_reg, 7
    2806              $C$DW$234       .dwtag  DW_TAG_TI_branch
    2807                      .dwattr $C$DW$234, DW_AT_low_pc(0x00)
    2808                      .dwattr $C$DW$234, DW_AT_TI_return
    2809 00000487 0006          LRETR     ; [CPU_] 
    2810                      ; return occurs ; [] 
    2811                      .dwattr $C$DW$214, DW_AT_TI_end_file("D:/BM1000/sw/modules/user/src/32b/user.c")
    2812                      .dwattr $C$DW$214, DW_AT_TI_end_line(0x3fe)
    2813                      .dwattr $C$DW$214, DW_AT_TI_end_column(0x01)
    2814                      .dwendentry
    2815                      .dwendtag $C$DW$214
    2816              
    2817 00000488               .sect   ".text"
    2818                      .clink
    2819                      .global _USER_computeFlux
    2820              
    2821              $C$DW$235       .dwtag  DW_TAG_subprogram, DW_AT_name("USER_computeFlux")
    2822                      .dwattr $C$DW$235, DW_AT_low_pc(_USER_computeFlux)
    2823                      .dwattr $C$DW$235, DW_AT_high_pc(0x00)
    2824                      .dwattr $C$DW$235, DW_AT_TI_symbol_name("_USER_computeFlux")
    2825                      .dwattr $C$DW$235, DW_AT_external
    2826                      .dwattr $C$DW$235, DW_AT_type(*$C$DW$T$20)
    2827                      .dwattr $C$DW$235, DW_AT_TI_begin_file("D:/BM1000/sw/modules/user/src/32b/user.c")
    2828                      .dwattr $C$DW$235, DW_AT_TI_begin_line(0x403)
    2829                      .dwattr $C$DW$235, DW_AT_TI_begin_column(0x05)
    2830                      .dwattr $C$DW$235, DW_AT_TI_max_frame_size(-4)
    2831                      .dwpsn  file "D:/BM1000/sw/modules/user/src/32b/user.c",line 1028,column 1,is_stmt,address _USER_comp
    2832              
    2833                      .dwfde $C$DW$CIE, _USER_computeFlux
    2834              $C$DW$236       .dwtag  DW_TAG_formal_parameter, DW_AT_name("handle")
    2835                      .dwattr $C$DW$236, DW_AT_TI_symbol_name("_handle")
TMS320C2000 Assembler PC v6.2.5 Sat Sep 16 14:47:35 2017

Tools Copyright (c) 1996-2014 Texas Instruments Incorporated
C:\Users\wmj\AppData\Local\Temp\1316010                              PAGE   58

    2836                      .dwattr $C$DW$236, DW_AT_type(*$C$DW$T$88)
    2837                      .dwattr $C$DW$236, DW_AT_location[DW_OP_reg12]
    2838              $C$DW$237       .dwtag  DW_TAG_formal_parameter, DW_AT_name("sf")
    2839                      .dwattr $C$DW$237, DW_AT_TI_symbol_name("_sf")
    2840                      .dwattr $C$DW$237, DW_AT_type(*$C$DW$T$98)
    2841                      .dwattr $C$DW$237, DW_AT_location[DW_OP_reg0]
    2842              
    2843              ;***************************************************************
    2844              ;* FNAME: _USER_computeFlux             FR SIZE:   2           *
    2845              ;*                                                             *
    2846              ;* FUNCTION ENVIRONMENT                                        *
    2847              ;*                                                             *
    2848              ;* FUNCTION PROPERTIES                                         *
    2849              ;*                            0 Parameter,  0 Auto,  2 SOE     *
    2850              ;***************************************************************
    2851              
    2852              _USER_computeFlux:
    2853              ;* AR4   assigned to _handle
    2854              $C$DW$238       .dwtag  DW_TAG_variable, DW_AT_name("handle")
    2855                      .dwattr $C$DW$238, DW_AT_TI_symbol_name("_handle")
    2856                      .dwattr $C$DW$238, DW_AT_type(*$C$DW$T$89)
    2857                      .dwattr $C$DW$238, DW_AT_location[DW_OP_reg12]
    2858              ;* AR1   assigned to _sf
    2859              $C$DW$239       .dwtag  DW_TAG_variable, DW_AT_name("sf")
    2860                      .dwattr $C$DW$239, DW_AT_TI_symbol_name("_sf")
    2861                      .dwattr $C$DW$239, DW_AT_type(*$C$DW$T$98)
    2862                      .dwattr $C$DW$239, DW_AT_location[DW_OP_reg6]
    2863                      .dwcfi  cfa_offset, -2
    2864                      .dwcfi  save_reg_to_mem, 26, 0
    2865                      .dwcfi  save_reg_to_reg, 78, 26
    2866 00000488 B2BD          MOVL      *SP++,XAR1            ; [CPU_] 
    2867                      .dwcfi  save_reg_to_mem, 7, 2
    2868                      .dwcfi  cfa_offset, -4
    2869                      .dwpsn  file "D:/BM1000/sw/modules/user/src/32b/user.c",line 1031,column 3,is_stmt
    2870 00000489 D018          MOVB      XAR0,#24              ; [CPU_] |1031| 
    2871                      .dwpsn  file "D:/BM1000/sw/modules/user/src/32b/user.c",line 1028,column 1,is_stmt
    2872 0000048a 8BA9          MOVL      XAR1,ACC              ; [CPU_] |1028| 
    2873                      .dwpsn  file "D:/BM1000/sw/modules/user/src/32b/user.c",line 1031,column 3,is_stmt
    2874 0000048b 8A94          MOVL      XAR4,*+XAR4[AR0]      ; [CPU_] |1031| 
    2875              $C$DW$240       .dwtag  DW_TAG_TI_branch
    2876                      .dwattr $C$DW$240, DW_AT_low_pc(0x00)
    2877                      .dwattr $C$DW$240, DW_AT_name("_EST_getFlux_pu")
    2878                      .dwattr $C$DW$240, DW_AT_TI_call
    2879 0000048c 7640!         LCR       #_EST_getFlux_pu      ; [CPU_] |1031| 
         0000048d 0000 
    2880                      ; call occurs [#_EST_getFlux_pu] ; [] |1031| 
    2881 0000048e 1EAC          MOVL      XT,ACC                ; [CPU_] |1031| 
    2882 0000048f 5605          IMPYL     P,XT,XAR1             ; [CPU_] |1031| 
         00000490 00A1 
    2883 00000491 5663          QMPYL     ACC,XT,XAR1           ; [CPU_] |1031| 
         00000492 00A1 
    2884 00000493 8BBE          MOVL      XAR1,*--SP            ; [CPU_] 
    2885                      .dwcfi  cfa_offset, -2
    2886                      .dwcfi  restore_reg, 7
    2887 00000494 56A7          LSL64     ACC:P,#8              ; [CPU_] |1031| 
TMS320C2000 Assembler PC v6.2.5 Sat Sep 16 14:47:35 2017

Tools Copyright (c) 1996-2014 Texas Instruments Incorporated
C:\Users\wmj\AppData\Local\Temp\1316010                              PAGE   59

    2888              $C$DW$241       .dwtag  DW_TAG_TI_branch
    2889                      .dwattr $C$DW$241, DW_AT_low_pc(0x00)
    2890                      .dwattr $C$DW$241, DW_AT_TI_return
    2891 00000495 0006          LRETR     ; [CPU_] 
    2892                      ; return occurs ; [] 
    2893                      .dwattr $C$DW$235, DW_AT_TI_end_file("D:/BM1000/sw/modules/user/src/32b/user.c")
    2894                      .dwattr $C$DW$235, DW_AT_TI_end_line(0x408)
    2895                      .dwattr $C$DW$235, DW_AT_TI_end_column(0x01)
    2896                      .dwendentry
    2897                      .dwendtag $C$DW$235
    2898              
    2899 00000496               .sect   ".text"
    2900                      .clink
    2901                      .global _USER_checkForErrors
    2902              
    2903              $C$DW$242       .dwtag  DW_TAG_subprogram, DW_AT_name("USER_checkForErrors")
    2904                      .dwattr $C$DW$242, DW_AT_low_pc(_USER_checkForErrors)
    2905                      .dwattr $C$DW$242, DW_AT_high_pc(0x00)
    2906                      .dwattr $C$DW$242, DW_AT_TI_symbol_name("_USER_checkForErrors")
    2907                      .dwattr $C$DW$242, DW_AT_external
    2908                      .dwattr $C$DW$242, DW_AT_TI_begin_file("D:/BM1000/sw/modules/user/src/32b/user.c")
    2909                      .dwattr $C$DW$242, DW_AT_TI_begin_line(0xf4)
    2910                      .dwattr $C$DW$242, DW_AT_TI_begin_column(0x06)
    2911                      .dwattr $C$DW$242, DW_AT_TI_max_frame_size(-12)
    2912                      .dwpsn  file "D:/BM1000/sw/modules/user/src/32b/user.c",line 245,column 1,is_stmt,address _USER_check
    2913              
    2914                      .dwfde $C$DW$CIE, _USER_checkForErrors
    2915              $C$DW$243       .dwtag  DW_TAG_formal_parameter, DW_AT_name("pUserParams")
    2916                      .dwattr $C$DW$243, DW_AT_TI_symbol_name("_pUserParams")
    2917                      .dwattr $C$DW$243, DW_AT_type(*$C$DW$T$80)
    2918                      .dwattr $C$DW$243, DW_AT_location[DW_OP_reg12]
    2919              
    2920              ;***************************************************************
    2921              ;* FNAME: _USER_checkForErrors          FR SIZE:  10           *
    2922              ;*                                                             *
    2923              ;* FUNCTION ENVIRONMENT                                        *
    2924              ;*                                                             *
    2925              ;* FUNCTION PROPERTIES                                         *
    2926              ;*                            2 Parameter,  2 Auto,  6 SOE     *
    2927              ;***************************************************************
    2928              
    2929              _USER_checkForErrors:
    2930              ;* AR2   assigned to $O$C1
    2931              ;* AR3   assigned to $O$C3
    2932              ;* AR2   assigned to $O$C4
    2933              ;* AR2   assigned to $O$C5
    2934              ;* AL    assigned to $O$C6
    2935              ;* AL    assigned to $O$C7
    2936              ;* AR2   assigned to $O$C8
    2937              ;* AR2   assigned to $O$C9
    2938              ;* AR2   assigned to $O$U147
    2939              ;* AR2   assigned to $O$U155
    2940              ;* AR2   assigned to $O$U73
    2941              ;* AR2   assigned to $O$U202
    2942              ;* AR1   assigned to _pUserParams
TMS320C2000 Assembler PC v6.2.5 Sat Sep 16 14:47:35 2017

Tools Copyright (c) 1996-2014 Texas Instruments Incorporated
C:\Users\wmj\AppData\Local\Temp\1316010                              PAGE   60

    2943              $C$DW$244       .dwtag  DW_TAG_variable, DW_AT_name("pUserParams")
    2944                      .dwattr $C$DW$244, DW_AT_TI_symbol_name("_pUserParams")
    2945                      .dwattr $C$DW$244, DW_AT_type(*$C$DW$T$91)
    2946                      .dwattr $C$DW$244, DW_AT_location[DW_OP_reg6]
    2947              ;* AR3   assigned to $O$U3
    2948              ;* AR2   assigned to $O$U3
    2949              ;* AR3   assigned to $O$U3
    2950              ;* AR2   assigned to $O$U26
    2951              ;* AR2   assigned to $O$U26
    2952              ;* AR2   assigned to $O$U29
    2953              ;* AR2   assigned to $O$U100
    2954              ;* AR2   assigned to $O$U100
    2955              ;* AR2   assigned to $O$U111
    2956              ;* AR2   assigned to $O$U47
    2957              ;* AR2   assigned to $O$U52
    2958              ;* AR2   assigned to $O$U21
    2959              ;* AR3   assigned to $O$U21
    2960              ;* AR2   assigned to $O$U23
    2961              ;* AR2   assigned to $O$U23
    2962              ;* AR2   assigned to $O$U19
    2963              ;* AR2   assigned to $O$U19
    2964                      .dwcfi  cfa_offset, -2
    2965                      .dwcfi  save_reg_to_mem, 26, 0
    2966                      .dwcfi  save_reg_to_reg, 78, 26
    2967 00000496 B2BD          MOVL      *SP++,XAR1            ; [CPU_] 
    2968                      .dwcfi  save_reg_to_mem, 7, 2
    2969                      .dwcfi  cfa_offset, -4
    2970 00000497 AABD          MOVL      *SP++,XAR2            ; [CPU_] 
    2971                      .dwcfi  save_reg_to_mem, 9, 4
    2972                      .dwcfi  cfa_offset, -6
    2973 00000498 A2BD          MOVL      *SP++,XAR3            ; [CPU_] 
    2974                      .dwcfi  save_reg_to_mem, 11, 6
    2975                      .dwcfi  cfa_offset, -8
    2976 00000499 FE04          ADDB      SP,#4                 ; [CPU_U] 
    2977                      .dwcfi  cfa_offset, -12
    2978                      .dwpsn  file "D:/BM1000/sw/modules/user/src/32b/user.c",line 246,column 3,is_stmt
    2979 0000049a 9A00          MOVB      AL,#0                 ; [CPU_] |246| 
    2980              $C$DW$245       .dwtag  DW_TAG_TI_branch
    2981                      .dwattr $C$DW$245, DW_AT_low_pc(0x00)
    2982                      .dwattr $C$DW$245, DW_AT_name("_USER_setErrorCode")
    2983                      .dwattr $C$DW$245, DW_AT_TI_call
    2984 0000049b 7640'         LCR       #_USER_setErrorCode   ; [CPU_] |246| 
         0000049c 024B 
    2985                      ; call occurs [#_USER_setErrorCode] ; [] |246| 
    2986                      .dwpsn  file "D:/BM1000/sw/modules/user/src/32b/user.c",line 245,column 1,is_stmt
    2987 0000049d 8BA4          MOVL      XAR1,XAR4             ; [CPU_] |245| 
    2988                      .dwpsn  file "D:/BM1000/sw/modules/user/src/32b/user.c",line 248,column 3,is_stmt
    2989 0000049e D040          MOVB      XAR0,#64              ; [CPU_] |248| 
    2990 0000049f 8691          MOVL      XAR2,*+XAR1[AR0]      ; [CPU_] |248| 
    2991 000004a0 28A8          MOV       AH,#15523             ; [CPU_] |248| 
         000004a1 3CA3 
    2992 000004a2 28A9          MOV       AL,#55050             ; [CPU_] |248| 
         000004a3 D70A 
    2993 000004a4 1E42          MOVL      *-SP[2],ACC           ; [CPU_] |248| 
    2994 000004a5 AAA9          MOVL      ACC,XAR2              ; [CPU_] |248| 
TMS320C2000 Assembler PC v6.2.5 Sat Sep 16 14:47:35 2017

Tools Copyright (c) 1996-2014 Texas Instruments Incorporated
C:\Users\wmj\AppData\Local\Temp\1316010                              PAGE   61

    2995              $C$DW$246       .dwtag  DW_TAG_TI_branch
    2996                      .dwattr $C$DW$246, DW_AT_low_pc(0x00)
    2997                      .dwattr $C$DW$246, DW_AT_name("FS$$MPY")
    2998                      .dwattr $C$DW$246, DW_AT_TI_call
    2999 000004a6 7640!         LCR       #FS$$MPY              ; [CPU_] |248| 
         000004a7 0000 
    3000                      ; call occurs [#FS$$MPY] ; [] |248| 
    3001 000004a8 1EA6          MOVL      XAR6,ACC              ; [CPU_] |248| 
    3002 000004a9 9A00          MOV       AL,#0                 ; [CPU_] |248| 
    3003 000004aa 28A8          MOV       AH,#17224             ; [CPU_] |248| 
         000004ab 4348 
    3004 000004ac 1E42          MOVL      *-SP[2],ACC           ; [CPU_] |248| 
    3005 000004ad 06A6          MOVL      ACC,XAR6              ; [CPU_] |248| 
    3006              $C$DW$247       .dwtag  DW_TAG_TI_branch
    3007                      .dwattr $C$DW$247, DW_AT_low_pc(0x00)
    3008                      .dwattr $C$DW$247, DW_AT_name("FS$$MPY")
    3009                      .dwattr $C$DW$247, DW_AT_TI_call
    3010 000004ae 7640!         LCR       #FS$$MPY              ; [CPU_] |248| 
         000004af 0000 
    3011                      ; call occurs [#FS$$MPY] ; [] |248| 
    3012 000004b0 1EA6          MOVL      XAR6,ACC              ; [CPU_] |248| 
    3013 000004b1 FF2F          MOV       ACC,#30720 << 15      ; [CPU_] |248| 
         000004b2 7800 
    3014 000004b3 1E42          MOVL      *-SP[2],ACC           ; [CPU_] |248| 
    3015 000004b4 06A6          MOVL      ACC,XAR6              ; [CPU_] |248| 
    3016              $C$DW$248       .dwtag  DW_TAG_TI_branch
    3017                      .dwattr $C$DW$248, DW_AT_low_pc(0x00)
    3018                      .dwattr $C$DW$248, DW_AT_name("FS$$MPY")
    3019                      .dwattr $C$DW$248, DW_AT_TI_call
    3020 000004b5 7640!         LCR       #FS$$MPY              ; [CPU_] |248| 
         000004b6 0000 
