TMS320C2000 Assembler PC v15.12.3 Mon Sep 25 12:51:19 2017

Tools Copyright (c) 1996-2015 Texas Instruments Incorporated
C:\Users\wmj\AppData\Local\Temp\0412810                              PAGE    1

       1              ;***************************************************************
       2              ;* TMS320C2000 C/C++ Codegen                   PC v15.12.3.LTS *
       3              ;* Date/Time created: Mon Sep 25 12:51:17 2017                 *
       4              ;***************************************************************
       5                      .compiler_opts --abi=coffabi --float_support=softlib --hll_source=on --mem_model:code=flat --mem_mode
       6        0002  FP      .set    XAR2
       7              
       8              $C$DW$CU        .dwtag  DW_TAG_compile_unit
       9                      .dwattr $C$DW$CU, DW_AT_name("D:/BM1000/sw/modules/ctrl/src/32b/ctrl.c")
      10                      .dwattr $C$DW$CU, DW_AT_producer("TI TMS320C2000 C/C++ Codegen PC v15.12.3.LTS Copyright (c) 1996-201
      11                      .dwattr $C$DW$CU, DW_AT_TI_version(0x01)
      12                      .dwattr $C$DW$CU, DW_AT_comp_dir("D:\BM1000\sw\solutions\instaspin_foc\boards\hvkit_rev1p1\f28x\f2802
      13              
      14              ;**************************************************************
      15              ;* FUNCTION SYNONYMS                                          *
      16              ;**************************************************************
      17                      .global _CTRL_setMaximumSpeed_pu
      18        0482' _CTRL_setMaximumSpeed_pu        .set _CTRL_setSpd_max_pu
      19                      .global _CTRL_setMagCurrent_pu
      20        047F' _CTRL_setMagCurrent_pu  .set _CTRL_setIdRated_pu
      21                      .global _CTRL_getMagCurrent_pu
      22        0488' _CTRL_getMagCurrent_pu  .set _CTRL_getIdRated_pu
      23                      .global _CTRL_getMaximumSpeed_pu
      24        0485' _CTRL_getMaximumSpeed_pu        .set _CTRL_getSpd_max_pu
      25              
      26              $C$DW$1 .dwtag  DW_TAG_subprogram
      27                      .dwattr $C$DW$1, DW_AT_name("CTRL_setEstParams")
      28                      .dwattr $C$DW$1, DW_AT_TI_symbol_name("_CTRL_setEstParams")
      29                      .dwattr $C$DW$1, DW_AT_declaration
      30                      .dwattr $C$DW$1, DW_AT_external
      31              $C$DW$2 .dwtag  DW_TAG_formal_parameter
      32                      .dwattr $C$DW$2, DW_AT_type(*$C$DW$T$50)
      33              
      34              $C$DW$3 .dwtag  DW_TAG_formal_parameter
      35                      .dwattr $C$DW$3, DW_AT_type(*$C$DW$T$237)
      36              
      37                      .dwendtag $C$DW$1
      38              
      39              
      40              $C$DW$4 .dwtag  DW_TAG_subprogram
      41                      .dwattr $C$DW$4, DW_AT_name("CTRL_runTraj")
      42                      .dwattr $C$DW$4, DW_AT_TI_symbol_name("_CTRL_runTraj")
      43                      .dwattr $C$DW$4, DW_AT_declaration
      44                      .dwattr $C$DW$4, DW_AT_external
      45              $C$DW$5 .dwtag  DW_TAG_formal_parameter
      46                      .dwattr $C$DW$5, DW_AT_type(*$C$DW$T$173)
      47              
      48                      .dwendtag $C$DW$4
      49              
      50              
      51              $C$DW$6 .dwtag  DW_TAG_subprogram
      52                      .dwattr $C$DW$6, DW_AT_name("CTRL_setupEstIdleState")
      53                      .dwattr $C$DW$6, DW_AT_TI_symbol_name("_CTRL_setupEstIdleState")
      54                      .dwattr $C$DW$6, DW_AT_declaration
      55                      .dwattr $C$DW$6, DW_AT_external
TMS320C2000 Assembler PC v15.12.3 Mon Sep 25 12:51:19 2017

Tools Copyright (c) 1996-2015 Texas Instruments Incorporated
C:\Users\wmj\AppData\Local\Temp\0412810                              PAGE    2

      56              $C$DW$7 .dwtag  DW_TAG_formal_parameter
      57                      .dwattr $C$DW$7, DW_AT_type(*$C$DW$T$173)
      58              
      59                      .dwendtag $C$DW$6
      60              
      61              
      62              $C$DW$8 .dwtag  DW_TAG_subprogram
      63                      .dwattr $C$DW$8, DW_AT_name("CTRL_setupEstOnLineState")
      64                      .dwattr $C$DW$8, DW_AT_TI_symbol_name("_CTRL_setupEstOnLineState")
      65                      .dwattr $C$DW$8, DW_AT_declaration
      66                      .dwattr $C$DW$8, DW_AT_external
      67              $C$DW$9 .dwtag  DW_TAG_formal_parameter
      68                      .dwattr $C$DW$9, DW_AT_type(*$C$DW$T$173)
      69              
      70                      .dwendtag $C$DW$8
      71              
      72              
      73              $C$DW$10        .dwtag  DW_TAG_subprogram
      74                      .dwattr $C$DW$10, DW_AT_name("CTRL_setUserMotorParams")
      75                      .dwattr $C$DW$10, DW_AT_TI_symbol_name("_CTRL_setUserMotorParams")
      76                      .dwattr $C$DW$10, DW_AT_declaration
      77                      .dwattr $C$DW$10, DW_AT_external
      78              $C$DW$11        .dwtag  DW_TAG_formal_parameter
      79                      .dwattr $C$DW$11, DW_AT_type(*$C$DW$T$173)
      80              
      81                      .dwendtag $C$DW$10
      82              
      83              
      84              $C$DW$12        .dwtag  DW_TAG_subprogram
      85                      .dwattr $C$DW$12, DW_AT_name("CTRL_setupTraj")
      86                      .dwattr $C$DW$12, DW_AT_TI_symbol_name("_CTRL_setupTraj")
      87                      .dwattr $C$DW$12, DW_AT_declaration
      88                      .dwattr $C$DW$12, DW_AT_external
      89              $C$DW$13        .dwtag  DW_TAG_formal_parameter
      90                      .dwattr $C$DW$13, DW_AT_type(*$C$DW$T$173)
      91              
      92                      .dwendtag $C$DW$12
      93              
      94              
      95              $C$DW$14        .dwtag  DW_TAG_subprogram
      96                      .dwattr $C$DW$14, DW_AT_name("CTRL_setupCtrl")
      97                      .dwattr $C$DW$14, DW_AT_TI_symbol_name("_CTRL_setupCtrl")
      98                      .dwattr $C$DW$14, DW_AT_declaration
      99                      .dwattr $C$DW$14, DW_AT_external
     100              $C$DW$15        .dwtag  DW_TAG_formal_parameter
     101                      .dwattr $C$DW$15, DW_AT_type(*$C$DW$T$173)
     102              
     103                      .dwendtag $C$DW$14
     104              
     105              
     106              $C$DW$16        .dwtag  DW_TAG_subprogram
     107                      .dwattr $C$DW$16, DW_AT_name("EST_setRs_pu")
     108                      .dwattr $C$DW$16, DW_AT_TI_symbol_name("_EST_setRs_pu")
     109                      .dwattr $C$DW$16, DW_AT_declaration
     110                      .dwattr $C$DW$16, DW_AT_external
TMS320C2000 Assembler PC v15.12.3 Mon Sep 25 12:51:19 2017

Tools Copyright (c) 1996-2015 Texas Instruments Incorporated
C:\Users\wmj\AppData\Local\Temp\0412810                              PAGE    3

     111              $C$DW$17        .dwtag  DW_TAG_formal_parameter
     112                      .dwattr $C$DW$17, DW_AT_type(*$C$DW$T$50)
     113              
     114              $C$DW$18        .dwtag  DW_TAG_formal_parameter
     115                      .dwattr $C$DW$18, DW_AT_type(*$C$DW$T$244)
     116              
     117                      .dwendtag $C$DW$16
     118              
     119              
     120              $C$DW$19        .dwtag  DW_TAG_subprogram
     121                      .dwattr $C$DW$19, DW_AT_name("EST_setIq_ref_pu")
     122                      .dwattr $C$DW$19, DW_AT_TI_symbol_name("_EST_setIq_ref_pu")
     123                      .dwattr $C$DW$19, DW_AT_declaration
     124                      .dwattr $C$DW$19, DW_AT_external
     125              $C$DW$20        .dwtag  DW_TAG_formal_parameter
     126                      .dwattr $C$DW$20, DW_AT_type(*$C$DW$T$50)
     127              
     128              $C$DW$21        .dwtag  DW_TAG_formal_parameter
     129                      .dwattr $C$DW$21, DW_AT_type(*$C$DW$T$244)
     130              
     131                      .dwendtag $C$DW$19
     132              
     133              
     134              $C$DW$22        .dwtag  DW_TAG_subprogram
     135                      .dwattr $C$DW$22, DW_AT_name("EST_updateId_ref_pu")
     136                      .dwattr $C$DW$22, DW_AT_TI_symbol_name("_EST_updateId_ref_pu")
     137                      .dwattr $C$DW$22, DW_AT_declaration
     138                      .dwattr $C$DW$22, DW_AT_external
     139              $C$DW$23        .dwtag  DW_TAG_formal_parameter
     140                      .dwattr $C$DW$23, DW_AT_type(*$C$DW$T$50)
     141              
     142              $C$DW$24        .dwtag  DW_TAG_formal_parameter
     143                      .dwattr $C$DW$24, DW_AT_type(*$C$DW$T$251)
     144              
     145                      .dwendtag $C$DW$22
     146              
     147              
     148              $C$DW$25        .dwtag  DW_TAG_subprogram
     149                      .dwattr $C$DW$25, DW_AT_name("EST_setIdle")
     150                      .dwattr $C$DW$25, DW_AT_TI_symbol_name("_EST_setIdle")
     151                      .dwattr $C$DW$25, DW_AT_declaration
     152                      .dwattr $C$DW$25, DW_AT_external
     153              $C$DW$26        .dwtag  DW_TAG_formal_parameter
     154                      .dwattr $C$DW$26, DW_AT_type(*$C$DW$T$50)
     155              
     156                      .dwendtag $C$DW$25
     157              
     158              
     159              $C$DW$27        .dwtag  DW_TAG_subprogram
     160                      .dwattr $C$DW$27, DW_AT_name("EST_run")
     161                      .dwattr $C$DW$27, DW_AT_TI_symbol_name("_EST_run")
     162                      .dwattr $C$DW$27, DW_AT_declaration
     163                      .dwattr $C$DW$27, DW_AT_external
     164              $C$DW$28        .dwtag  DW_TAG_formal_parameter
     165                      .dwattr $C$DW$28, DW_AT_type(*$C$DW$T$50)
TMS320C2000 Assembler PC v15.12.3 Mon Sep 25 12:51:19 2017

Tools Copyright (c) 1996-2015 Texas Instruments Incorporated
C:\Users\wmj\AppData\Local\Temp\0412810                              PAGE    4

     166              
     167              $C$DW$29        .dwtag  DW_TAG_formal_parameter
     168                      .dwattr $C$DW$29, DW_AT_type(*$C$DW$T$214)
     169              
     170              $C$DW$30        .dwtag  DW_TAG_formal_parameter
     171                      .dwattr $C$DW$30, DW_AT_type(*$C$DW$T$214)
     172              
     173              $C$DW$31        .dwtag  DW_TAG_formal_parameter
     174                      .dwattr $C$DW$31, DW_AT_type(*$C$DW$T$244)
     175              
     176              $C$DW$32        .dwtag  DW_TAG_formal_parameter
     177                      .dwattr $C$DW$32, DW_AT_type(*$C$DW$T$244)
     178              
     179                      .dwendtag $C$DW$27
     180              
     181              
     182              $C$DW$33        .dwtag  DW_TAG_subprogram
     183                      .dwattr $C$DW$33, DW_AT_name("EST_setId_ref_pu")
     184                      .dwattr $C$DW$33, DW_AT_TI_symbol_name("_EST_setId_ref_pu")
     185                      .dwattr $C$DW$33, DW_AT_declaration
     186                      .dwattr $C$DW$33, DW_AT_external
     187              $C$DW$34        .dwtag  DW_TAG_formal_parameter
     188                      .dwattr $C$DW$34, DW_AT_type(*$C$DW$T$50)
     189              
     190              $C$DW$35        .dwtag  DW_TAG_formal_parameter
     191                      .dwattr $C$DW$35, DW_AT_type(*$C$DW$T$244)
     192              
     193                      .dwendtag $C$DW$33
     194              
     195              
     196              $C$DW$36        .dwtag  DW_TAG_subprogram
     197                      .dwattr $C$DW$36, DW_AT_name("EST_setIdle_all")
     198                      .dwattr $C$DW$36, DW_AT_TI_symbol_name("_EST_setIdle_all")
     199                      .dwattr $C$DW$36, DW_AT_declaration
     200                      .dwattr $C$DW$36, DW_AT_external
     201              $C$DW$37        .dwtag  DW_TAG_formal_parameter
     202                      .dwattr $C$DW$37, DW_AT_type(*$C$DW$T$50)
     203              
     204                      .dwendtag $C$DW$36
     205              
     206              
     207              $C$DW$38        .dwtag  DW_TAG_subprogram
     208                      .dwattr $C$DW$38, DW_AT_name("EST_useZeroIq_ref")
     209                      .dwattr $C$DW$38, DW_AT_TI_symbol_name("_EST_useZeroIq_ref")
     210                      .dwattr $C$DW$38, DW_AT_type(*$C$DW$T$34)
     211                      .dwattr $C$DW$38, DW_AT_declaration
     212                      .dwattr $C$DW$38, DW_AT_external
     213              $C$DW$39        .dwtag  DW_TAG_formal_parameter
     214                      .dwattr $C$DW$39, DW_AT_type(*$C$DW$T$50)
     215              
     216                      .dwendtag $C$DW$38
     217              
     218              
     219              $C$DW$40        .dwtag  DW_TAG_subprogram
     220                      .dwattr $C$DW$40, DW_AT_name("EST_updateState")
TMS320C2000 Assembler PC v15.12.3 Mon Sep 25 12:51:19 2017

Tools Copyright (c) 1996-2015 Texas Instruments Incorporated
C:\Users\wmj\AppData\Local\Temp\0412810                              PAGE    5

     221                      .dwattr $C$DW$40, DW_AT_TI_symbol_name("_EST_updateState")
     222                      .dwattr $C$DW$40, DW_AT_type(*$C$DW$T$34)
     223                      .dwattr $C$DW$40, DW_AT_declaration
     224                      .dwattr $C$DW$40, DW_AT_external
     225              $C$DW$41        .dwtag  DW_TAG_formal_parameter
     226                      .dwattr $C$DW$41, DW_AT_type(*$C$DW$T$50)
     227              
     228              $C$DW$42        .dwtag  DW_TAG_formal_parameter
     229                      .dwattr $C$DW$42, DW_AT_type(*$C$DW$T$244)
     230              
     231                      .dwendtag $C$DW$40
     232              
     233              
     234              $C$DW$43        .dwtag  DW_TAG_subprogram
     235                      .dwattr $C$DW$43, DW_AT_name("EST_doCurrentCtrl")
     236                      .dwattr $C$DW$43, DW_AT_TI_symbol_name("_EST_doCurrentCtrl")
     237                      .dwattr $C$DW$43, DW_AT_type(*$C$DW$T$34)
     238                      .dwattr $C$DW$43, DW_AT_declaration
     239                      .dwattr $C$DW$43, DW_AT_external
     240              $C$DW$44        .dwtag  DW_TAG_formal_parameter
     241                      .dwattr $C$DW$44, DW_AT_type(*$C$DW$T$50)
     242              
     243                      .dwendtag $C$DW$43
     244              
     245              
     246              $C$DW$45        .dwtag  DW_TAG_subprogram
     247                      .dwattr $C$DW$45, DW_AT_name("EST_doSpeedCtrl")
     248                      .dwattr $C$DW$45, DW_AT_TI_symbol_name("_EST_doSpeedCtrl")
     249                      .dwattr $C$DW$45, DW_AT_type(*$C$DW$T$34)
     250                      .dwattr $C$DW$45, DW_AT_declaration
     251                      .dwattr $C$DW$45, DW_AT_external
     252              $C$DW$46        .dwtag  DW_TAG_formal_parameter
     253                      .dwattr $C$DW$46, DW_AT_type(*$C$DW$T$50)
     254              
     255                      .dwendtag $C$DW$45
     256              
     257              
     258              $C$DW$47        .dwtag  DW_TAG_subprogram
     259                      .dwattr $C$DW$47, DW_AT_name("EST_isMotorIdentified")
     260                      .dwattr $C$DW$47, DW_AT_TI_symbol_name("_EST_isMotorIdentified")
     261                      .dwattr $C$DW$47, DW_AT_type(*$C$DW$T$34)
     262                      .dwattr $C$DW$47, DW_AT_declaration
     263                      .dwattr $C$DW$47, DW_AT_external
     264              $C$DW$48        .dwtag  DW_TAG_formal_parameter
     265                      .dwattr $C$DW$48, DW_AT_type(*$C$DW$T$50)
     266              
     267                      .dwendtag $C$DW$47
     268              
     269              
     270              $C$DW$49        .dwtag  DW_TAG_subprogram
     271                      .dwattr $C$DW$49, DW_AT_name("EST_isOnLine")
     272                      .dwattr $C$DW$49, DW_AT_TI_symbol_name("_EST_isOnLine")
     273                      .dwattr $C$DW$49, DW_AT_type(*$C$DW$T$34)
     274                      .dwattr $C$DW$49, DW_AT_declaration
     275                      .dwattr $C$DW$49, DW_AT_external
TMS320C2000 Assembler PC v15.12.3 Mon Sep 25 12:51:19 2017

Tools Copyright (c) 1996-2015 Texas Instruments Incorporated
C:\Users\wmj\AppData\Local\Temp\0412810                              PAGE    6

     276              $C$DW$50        .dwtag  DW_TAG_formal_parameter
     277                      .dwattr $C$DW$50, DW_AT_type(*$C$DW$T$50)
     278              
     279                      .dwendtag $C$DW$49
     280              
     281              
     282              $C$DW$51        .dwtag  DW_TAG_subprogram
     283                      .dwattr $C$DW$51, DW_AT_name("EST_isLockRotor")
     284                      .dwattr $C$DW$51, DW_AT_TI_symbol_name("_EST_isLockRotor")
     285                      .dwattr $C$DW$51, DW_AT_type(*$C$DW$T$34)
     286                      .dwattr $C$DW$51, DW_AT_declaration
     287                      .dwattr $C$DW$51, DW_AT_external
     288              $C$DW$52        .dwtag  DW_TAG_formal_parameter
     289                      .dwattr $C$DW$52, DW_AT_type(*$C$DW$T$50)
     290              
     291                      .dwendtag $C$DW$51
     292              
     293              
     294              $C$DW$53        .dwtag  DW_TAG_subprogram
     295                      .dwattr $C$DW$53, DW_AT_name("EST_isError")
     296                      .dwattr $C$DW$53, DW_AT_TI_symbol_name("_EST_isError")
     297                      .dwattr $C$DW$53, DW_AT_type(*$C$DW$T$34)
     298                      .dwattr $C$DW$53, DW_AT_declaration
     299                      .dwattr $C$DW$53, DW_AT_external
     300              $C$DW$54        .dwtag  DW_TAG_formal_parameter
     301                      .dwattr $C$DW$54, DW_AT_type(*$C$DW$T$50)
     302              
     303                      .dwendtag $C$DW$53
     304              
     305              
     306              $C$DW$55        .dwtag  DW_TAG_subprogram
     307                      .dwattr $C$DW$55, DW_AT_name("EST_isIdle")
     308                      .dwattr $C$DW$55, DW_AT_TI_symbol_name("_EST_isIdle")
     309                      .dwattr $C$DW$55, DW_AT_type(*$C$DW$T$34)
     310                      .dwattr $C$DW$55, DW_AT_declaration
     311                      .dwattr $C$DW$55, DW_AT_external
     312              $C$DW$56        .dwtag  DW_TAG_formal_parameter
     313                      .dwattr $C$DW$56, DW_AT_type(*$C$DW$T$50)
     314              
     315                      .dwendtag $C$DW$55
     316              
     317              
     318              $C$DW$57        .dwtag  DW_TAG_subprogram
     319                      .dwattr $C$DW$57, DW_AT_name("EST_getState")
     320                      .dwattr $C$DW$57, DW_AT_TI_symbol_name("_EST_getState")
     321                      .dwattr $C$DW$57, DW_AT_type(*$C$DW$T$178)
     322                      .dwattr $C$DW$57, DW_AT_declaration
     323                      .dwattr $C$DW$57, DW_AT_external
     324              $C$DW$58        .dwtag  DW_TAG_formal_parameter
     325                      .dwattr $C$DW$58, DW_AT_type(*$C$DW$T$50)
     326              
     327                      .dwendtag $C$DW$57
     328              
     329              
     330              $C$DW$59        .dwtag  DW_TAG_subprogram
TMS320C2000 Assembler PC v15.12.3 Mon Sep 25 12:51:19 2017

Tools Copyright (c) 1996-2015 Texas Instruments Incorporated
C:\Users\wmj\AppData\Local\Temp\0412810                              PAGE    7

     331                      .dwattr $C$DW$59, DW_AT_name("_IQ24sinPU")
     332                      .dwattr $C$DW$59, DW_AT_TI_symbol_name("__IQ24sinPU")
     333                      .dwattr $C$DW$59, DW_AT_type(*$C$DW$T$12)
     334                      .dwattr $C$DW$59, DW_AT_declaration
     335                      .dwattr $C$DW$59, DW_AT_external
     336              $C$DW$60        .dwtag  DW_TAG_formal_parameter
     337                      .dwattr $C$DW$60, DW_AT_type(*$C$DW$T$12)
     338              
     339                      .dwendtag $C$DW$59
     340              
     341              
     342              $C$DW$61        .dwtag  DW_TAG_subprogram
     343                      .dwattr $C$DW$61, DW_AT_name("_IQ24cosPU")
     344                      .dwattr $C$DW$61, DW_AT_TI_symbol_name("__IQ24cosPU")
     345                      .dwattr $C$DW$61, DW_AT_type(*$C$DW$T$12)
     346                      .dwattr $C$DW$61, DW_AT_declaration
     347                      .dwattr $C$DW$61, DW_AT_external
     348              $C$DW$62        .dwtag  DW_TAG_formal_parameter
     349                      .dwattr $C$DW$62, DW_AT_type(*$C$DW$T$12)
     350              
     351                      .dwendtag $C$DW$61
     352              
     353              
     354              $C$DW$63        .dwtag  DW_TAG_subprogram
     355                      .dwattr $C$DW$63, DW_AT_name("__IQsat")
     356                      .dwattr $C$DW$63, DW_AT_TI_symbol_name("___IQsat")
     357                      .dwattr $C$DW$63, DW_AT_type(*$C$DW$T$12)
     358                      .dwattr $C$DW$63, DW_AT_declaration
     359                      .dwattr $C$DW$63, DW_AT_external
     360              $C$DW$64        .dwtag  DW_TAG_formal_parameter
     361                      .dwattr $C$DW$64, DW_AT_type(*$C$DW$T$12)
     362              
     363              $C$DW$65        .dwtag  DW_TAG_formal_parameter
     364                      .dwattr $C$DW$65, DW_AT_type(*$C$DW$T$12)
     365              
     366              $C$DW$66        .dwtag  DW_TAG_formal_parameter
     367                      .dwattr $C$DW$66, DW_AT_type(*$C$DW$T$12)
     368              
     369                      .dwendtag $C$DW$63
     370              
     371              
     372              $C$DW$67        .dwtag  DW_TAG_subprogram
     373                      .dwattr $C$DW$67, DW_AT_name("labs")
     374                      .dwattr $C$DW$67, DW_AT_TI_symbol_name("_labs")
     375                      .dwattr $C$DW$67, DW_AT_type(*$C$DW$T$12)
     376                      .dwattr $C$DW$67, DW_AT_declaration
     377                      .dwattr $C$DW$67, DW_AT_external
     378              $C$DW$68        .dwtag  DW_TAG_formal_parameter
     379                      .dwattr $C$DW$68, DW_AT_type(*$C$DW$T$12)
     380              
     381                      .dwendtag $C$DW$67
     382              
     383              
     384              $C$DW$69        .dwtag  DW_TAG_subprogram
     385                      .dwattr $C$DW$69, DW_AT_name("__IQmpy")
TMS320C2000 Assembler PC v15.12.3 Mon Sep 25 12:51:19 2017

Tools Copyright (c) 1996-2015 Texas Instruments Incorporated
C:\Users\wmj\AppData\Local\Temp\0412810                              PAGE    8

     386                      .dwattr $C$DW$69, DW_AT_TI_symbol_name("___IQmpy")
     387                      .dwattr $C$DW$69, DW_AT_type(*$C$DW$T$12)
     388                      .dwattr $C$DW$69, DW_AT_declaration
     389                      .dwattr $C$DW$69, DW_AT_external
     390              $C$DW$70        .dwtag  DW_TAG_formal_parameter
     391                      .dwattr $C$DW$70, DW_AT_type(*$C$DW$T$12)
     392              
     393              $C$DW$71        .dwtag  DW_TAG_formal_parameter
     394                      .dwattr $C$DW$71, DW_AT_type(*$C$DW$T$12)
     395              
     396              $C$DW$72        .dwtag  DW_TAG_formal_parameter
     397                      .dwattr $C$DW$72, DW_AT_type(*$C$DW$T$10)
     398              
     399                      .dwendtag $C$DW$69
     400              
     401              
     402              $C$DW$73        .dwtag  DW_TAG_subprogram
     403                      .dwattr $C$DW$73, DW_AT_name("_IQ24sqrt")
     404                      .dwattr $C$DW$73, DW_AT_TI_symbol_name("__IQ24sqrt")
     405                      .dwattr $C$DW$73, DW_AT_type(*$C$DW$T$12)
     406                      .dwattr $C$DW$73, DW_AT_declaration
     407                      .dwattr $C$DW$73, DW_AT_external
     408              $C$DW$74        .dwtag  DW_TAG_formal_parameter
     409                      .dwattr $C$DW$74, DW_AT_type(*$C$DW$T$12)
     410              
     411                      .dwendtag $C$DW$73
     412              
     413              
     414              $C$DW$75        .dwtag  DW_TAG_subprogram
     415                      .dwattr $C$DW$75, DW_AT_name("Brake_init")
     416                      .dwattr $C$DW$75, DW_AT_TI_symbol_name("_Brake_init")
     417                      .dwattr $C$DW$75, DW_AT_type(*$C$DW$T$73)
     418                      .dwattr $C$DW$75, DW_AT_declaration
     419                      .dwattr $C$DW$75, DW_AT_external
     420              $C$DW$76        .dwtag  DW_TAG_formal_parameter
     421                      .dwattr $C$DW$76, DW_AT_type(*$C$DW$T$3)
     422              
     423              $C$DW$77        .dwtag  DW_TAG_formal_parameter
     424                      .dwattr $C$DW$77, DW_AT_type(*$C$DW$T$186)
     425              
     426                      .dwendtag $C$DW$75
     427              
     428              
     429              $C$DW$78        .dwtag  DW_TAG_subprogram
     430                      .dwattr $C$DW$78, DW_AT_name("EST_get_krpm_to_pu_sf")
     431                      .dwattr $C$DW$78, DW_AT_TI_symbol_name("_EST_get_krpm_to_pu_sf")
     432                      .dwattr $C$DW$78, DW_AT_type(*$C$DW$T$32)
     433                      .dwattr $C$DW$78, DW_AT_declaration
     434                      .dwattr $C$DW$78, DW_AT_external
     435              $C$DW$79        .dwtag  DW_TAG_formal_parameter
     436                      .dwattr $C$DW$79, DW_AT_type(*$C$DW$T$50)
     437              
     438                      .dwendtag $C$DW$78
     439              
     440              
TMS320C2000 Assembler PC v15.12.3 Mon Sep 25 12:51:19 2017

Tools Copyright (c) 1996-2015 Texas Instruments Incorporated
C:\Users\wmj\AppData\Local\Temp\0412810                              PAGE    9

     441              $C$DW$80        .dwtag  DW_TAG_subprogram
     442                      .dwattr $C$DW$80, DW_AT_name("EST_getOneOverDcBus_pu")
     443                      .dwattr $C$DW$80, DW_AT_TI_symbol_name("_EST_getOneOverDcBus_pu")
     444                      .dwattr $C$DW$80, DW_AT_type(*$C$DW$T$32)
     445                      .dwattr $C$DW$80, DW_AT_declaration
     446                      .dwattr $C$DW$80, DW_AT_external
     447              $C$DW$81        .dwtag  DW_TAG_formal_parameter
     448                      .dwattr $C$DW$81, DW_AT_type(*$C$DW$T$50)
     449              
     450                      .dwendtag $C$DW$80
     451              
     452              
     453              $C$DW$82        .dwtag  DW_TAG_subprogram
     454                      .dwattr $C$DW$82, DW_AT_name("EST_getFm_pu")
     455                      .dwattr $C$DW$82, DW_AT_TI_symbol_name("_EST_getFm_pu")
     456                      .dwattr $C$DW$82, DW_AT_type(*$C$DW$T$32)
     457                      .dwattr $C$DW$82, DW_AT_declaration
     458                      .dwattr $C$DW$82, DW_AT_external
     459              $C$DW$83        .dwtag  DW_TAG_formal_parameter
     460                      .dwattr $C$DW$83, DW_AT_type(*$C$DW$T$50)
     461              
     462                      .dwendtag $C$DW$82
     463              
     464              
     465              $C$DW$84        .dwtag  DW_TAG_subprogram
     466                      .dwattr $C$DW$84, DW_AT_name("EST_getAngle_pu")
     467                      .dwattr $C$DW$84, DW_AT_TI_symbol_name("_EST_getAngle_pu")
     468                      .dwattr $C$DW$84, DW_AT_type(*$C$DW$T$32)
     469                      .dwattr $C$DW$84, DW_AT_declaration
     470                      .dwattr $C$DW$84, DW_AT_external
     471              $C$DW$85        .dwtag  DW_TAG_formal_parameter
     472                      .dwattr $C$DW$85, DW_AT_type(*$C$DW$T$50)
     473              
     474                      .dwendtag $C$DW$84
     475              
     476 00000000               .sect   ".econst:_$P$T4$5"
     477                      .clink
     478                      .align  2
     479 00000000       _$P$T4$5:
     480 00000000 0000          .bits   0,32                    ; _$P$T4$5._value[0] @ 0
         00000001 0000 
     481 00000002 0000          .bits   0,32                    ; _$P$T4$5._value[1] @ 32
         00000003 0000 
     482              
     483              $C$DW$86        .dwtag  DW_TAG_variable
     484                      .dwattr $C$DW$86, DW_AT_name("$P$T4$5")
     485                      .dwattr $C$DW$86, DW_AT_TI_symbol_name("_$P$T4$5")
     486                      .dwattr $C$DW$86, DW_AT_type(*$C$DW$T$213)
     487                      .dwattr $C$DW$86, DW_AT_location[DW_OP_addr _$P$T4$5]
     488              
     489 00000000               .sect   ".econst:_$P$T5$6"
     490                      .clink
     491                      .align  2
     492 00000000       _$P$T5$6:
     493 00000000 0000          .bits   0,32                    ; _$P$T5$6._value[0] @ 0
TMS320C2000 Assembler PC v15.12.3 Mon Sep 25 12:51:19 2017

Tools Copyright (c) 1996-2015 Texas Instruments Incorporated
C:\Users\wmj\AppData\Local\Temp\0412810                              PAGE   10

         00000001 0000 
     494 00000002 0000          .bits   0,32                    ; _$P$T5$6._value[1] @ 32
         00000003 0000 
     495              
     496              $C$DW$87        .dwtag  DW_TAG_variable
     497                      .dwattr $C$DW$87, DW_AT_name("$P$T5$6")
     498                      .dwattr $C$DW$87, DW_AT_TI_symbol_name("_$P$T5$6")
     499                      .dwattr $C$DW$87, DW_AT_type(*$C$DW$T$213)
     500                      .dwattr $C$DW$87, DW_AT_location[DW_OP_addr _$P$T5$6]
     501              
     502 00000000               .sect   ".econst:_$P$T3$4"
     503                      .clink
     504                      .align  2
     505 00000000       _$P$T3$4:
     506 00000000 0000          .bits   0,32                    ; _$P$T3$4._value[0] @ 0
         00000001 0000 
     507 00000002 0000          .bits   0,32                    ; _$P$T3$4._value[1] @ 32
         00000003 0000 
     508              
     509              $C$DW$88        .dwtag  DW_TAG_variable
     510                      .dwattr $C$DW$88, DW_AT_name("$P$T3$4")
     511                      .dwattr $C$DW$88, DW_AT_TI_symbol_name("_$P$T3$4")
     512                      .dwattr $C$DW$88, DW_AT_type(*$C$DW$T$213)
     513                      .dwattr $C$DW$88, DW_AT_location[DW_OP_addr _$P$T3$4]
     514              
     515 00000000               .sect   ".econst:_$P$T1$2"
     516                      .clink
     517                      .align  2
     518 00000000       _$P$T1$2:
     519 00000000 0000          .bits   0,32                    ; _$P$T1$2._value[0] @ 0
         00000001 0000 
     520 00000002 0000          .bits   0,32                    ; _$P$T1$2._value[1] @ 32
         00000003 0000 
     521              
     522              $C$DW$89        .dwtag  DW_TAG_variable
     523                      .dwattr $C$DW$89, DW_AT_name("$P$T1$2")
     524                      .dwattr $C$DW$89, DW_AT_TI_symbol_name("_$P$T1$2")
     525                      .dwattr $C$DW$89, DW_AT_type(*$C$DW$T$213)
     526                      .dwattr $C$DW$89, DW_AT_location[DW_OP_addr _$P$T1$2]
     527              
     528 00000000               .sect   ".econst:_$P$T2$3"
     529                      .clink
     530                      .align  2
     531 00000000       _$P$T2$3:
     532 00000000 0000          .bits   0,32                    ; _$P$T2$3._value[0] @ 0
         00000001 0000 
     533 00000002 0000          .bits   0,32                    ; _$P$T2$3._value[1] @ 32
         00000003 0000 
     534              
     535              $C$DW$90        .dwtag  DW_TAG_variable
     536                      .dwattr $C$DW$90, DW_AT_name("$P$T2$3")
     537                      .dwattr $C$DW$90, DW_AT_TI_symbol_name("_$P$T2$3")
     538                      .dwattr $C$DW$90, DW_AT_type(*$C$DW$T$213)
     539                      .dwattr $C$DW$90, DW_AT_location[DW_OP_addr _$P$T2$3]
     540              
TMS320C2000 Assembler PC v15.12.3 Mon Sep 25 12:51:19 2017

Tools Copyright (c) 1996-2015 Texas Instruments Incorporated
C:\Users\wmj\AppData\Local\Temp\0412810                              PAGE   11

     541 00000000               .sect   ".econst:_$P$T0$1"
     542                      .clink
     543                      .align  2
     544 00000000       _$P$T0$1:
     545 00000000 0000          .bits   0,32                    ; _$P$T0$1._value[0] @ 0
         00000001 0000 
     546 00000002 0000          .bits   0,32                    ; _$P$T0$1._value[1] @ 32
         00000003 0000 
     547              
     548              $C$DW$91        .dwtag  DW_TAG_variable
     549                      .dwattr $C$DW$91, DW_AT_name("$P$T0$1")
     550                      .dwattr $C$DW$91, DW_AT_TI_symbol_name("_$P$T0$1")
     551                      .dwattr $C$DW$91, DW_AT_type(*$C$DW$T$213)
     552                      .dwattr $C$DW$91, DW_AT_location[DW_OP_addr _$P$T0$1]
     553              
     554              ;       C:\ti\ccsv6\tools\compiler\c2000_15.12.3.LTS\bin\opt2000.exe C:\\Users\\wmj\\AppData\\Local\\Temp\\04
     555              ;       C:\ti\ccsv6\tools\compiler\c2000_15.12.3.LTS\bin\ac2000.exe -@C:\\Users\\wmj\\AppData\\Local\\Temp\\0
     556 00000000               .sect   ".text"
     557                      .clink
     558                      .global _CTRL_updateState
     559              
     560              $C$DW$92        .dwtag  DW_TAG_subprogram
     561                      .dwattr $C$DW$92, DW_AT_name("CTRL_updateState")
     562                      .dwattr $C$DW$92, DW_AT_low_pc(_CTRL_updateState)
     563                      .dwattr $C$DW$92, DW_AT_high_pc(0x00)
     564                      .dwattr $C$DW$92, DW_AT_TI_symbol_name("_CTRL_updateState")
     565                      .dwattr $C$DW$92, DW_AT_external
     566                      .dwattr $C$DW$92, DW_AT_type(*$C$DW$T$34)
     567                      .dwattr $C$DW$92, DW_AT_TI_begin_file("D:/BM1000/sw/modules/ctrl/src/32b/ctrl.c")
     568                      .dwattr $C$DW$92, DW_AT_TI_begin_line(0x291)
     569                      .dwattr $C$DW$92, DW_AT_TI_begin_column(0x06)
     570                      .dwattr $C$DW$92, DW_AT_TI_max_frame_size(-12)
     571                      .dwpsn  file "D:/BM1000/sw/modules/ctrl/src/32b/ctrl.c",line 658,column 1,is_stmt,address _CTRL_updat
     572              
     573                      .dwfde $C$DW$CIE, _CTRL_updateState
     574              $C$DW$93        .dwtag  DW_TAG_formal_parameter
     575                      .dwattr $C$DW$93, DW_AT_name("handle")
     576                      .dwattr $C$DW$93, DW_AT_TI_symbol_name("_handle")
     577                      .dwattr $C$DW$93, DW_AT_type(*$C$DW$T$173)
     578                      .dwattr $C$DW$93, DW_AT_location[DW_OP_reg12]
     579              
     580              
     581              ;***************************************************************
     582              ;* FNAME: _CTRL_updateState             FR SIZE:  10           *
     583              ;*                                                             *
     584              ;* FUNCTION ENVIRONMENT                                        *
     585              ;*                                                             *
     586              ;* FUNCTION PROPERTIES                                         *
     587              ;*                            0 Parameter,  4 Auto,  6 SOE     *
     588              ;***************************************************************
     589              
     590              _CTRL_updateState:
     591              ;* AR3   assigned to _counter_ctrlState
     592              $C$DW$94        .dwtag  DW_TAG_variable
     593                      .dwattr $C$DW$94, DW_AT_name("counter_ctrlState")
TMS320C2000 Assembler PC v15.12.3 Mon Sep 25 12:51:19 2017

Tools Copyright (c) 1996-2015 Texas Instruments Incorporated
C:\Users\wmj\AppData\Local\Temp\0412810                              PAGE   12

     594                      .dwattr $C$DW$94, DW_AT_TI_symbol_name("_counter_ctrlState")
     595                      .dwattr $C$DW$94, DW_AT_type(*$C$DW$T$68)
     596                      .dwattr $C$DW$94, DW_AT_location[DW_OP_reg10]
     597              
     598              $C$DW$95        .dwtag  DW_TAG_variable
     599                      .dwattr $C$DW$95, DW_AT_name("waitTime")
     600                      .dwattr $C$DW$95, DW_AT_TI_symbol_name("_waitTime")
     601                      .dwattr $C$DW$95, DW_AT_type(*$C$DW$T$68)
     602                      .dwattr $C$DW$95, DW_AT_location[DW_OP_breg20 -4]
     603              
     604              ;* AR1   assigned to _stateChanged
     605              $C$DW$96        .dwtag  DW_TAG_variable
     606                      .dwattr $C$DW$96, DW_AT_name("stateChanged")
     607                      .dwattr $C$DW$96, DW_AT_TI_symbol_name("_stateChanged")
     608                      .dwattr $C$DW$96, DW_AT_type(*$C$DW$T$34)
     609                      .dwattr $C$DW$96, DW_AT_location[DW_OP_reg6]
     610              
     611              $C$DW$97        .dwtag  DW_TAG_variable
     612                      .dwattr $C$DW$97, DW_AT_name("ctrlState")
     613                      .dwattr $C$DW$97, DW_AT_TI_symbol_name("_ctrlState")
     614                      .dwattr $C$DW$97, DW_AT_type(*$C$DW$T$43)
     615                      .dwattr $C$DW$97, DW_AT_location[DW_OP_breg20 -1]
     616              
     617              ;* AR2   assigned to _handle
     618              $C$DW$98        .dwtag  DW_TAG_variable
     619                      .dwattr $C$DW$98, DW_AT_name("handle")
     620                      .dwattr $C$DW$98, DW_AT_TI_symbol_name("_handle")
     621                      .dwattr $C$DW$98, DW_AT_type(*$C$DW$T$192)
     622                      .dwattr $C$DW$98, DW_AT_location[DW_OP_reg8]
     623              
     624                      .dwcfi  cfa_offset, -2
     625                      .dwcfi  save_reg_to_mem, 26, 0
     626 00000000 B2BD          MOVL      *SP++,XAR1            ; [CPU_] 
     627                      .dwcfi  save_reg_to_mem, 7, 2
     628                      .dwcfi  cfa_offset, -4
     629 00000001 AABD          MOVL      *SP++,XAR2            ; [CPU_] 
     630                      .dwcfi  save_reg_to_mem, 9, 4
     631                      .dwcfi  cfa_offset, -6
     632 00000002 A2BD          MOVL      *SP++,XAR3            ; [CPU_] 
     633                      .dwcfi  save_reg_to_mem, 11, 6
     634                      .dwcfi  cfa_offset, -8
     635 00000003 FE04          ADDB      SP,#4                 ; [CPU_U] 
     636                      .dwcfi  cfa_offset, -12
     637 00000004 86A4          MOVL      XAR2,XAR4             ; [CPU_] |658| 
     638                      .dwpsn  file "D:/BM1000/sw/modules/ctrl/src/32b/ctrl.c",line 664,column 3,is_stmt,isa 0
     639 00000005 D0F0          MOVB      XAR0,#240             ; [CPU_] |664| 
     640                      .dwpsn  file "D:/BM1000/sw/modules/ctrl/src/32b/ctrl.c",line 661,column 21,is_stmt,isa 0
     641 00000006 D100          MOVB      XAR1,#0               ; [CPU_] |661| 
     642                      .dwpsn  file "D:/BM1000/sw/modules/ctrl/src/32b/ctrl.h",line 771,column 3,is_stmt,isa 0
     643 00000007 92E2          MOV       AL,*+XAR2[4]          ; [CPU_] |771| 
     644 00000008 9641          MOV       *-SP[1],AL            ; [CPU_] |771| 
     645                      .dwpsn  file "D:/BM1000/sw/modules/ctrl/src/32b/ctrl.c",line 664,column 3,is_stmt,isa 0
     646 00000009 9292          MOV       AL,*+XAR2[AR0]        ; [CPU_] |664| 
     647 0000000a 6022          B         $C$L2,NEQ             ; [CPU_] |664| 
     648                      ; branchcc occurs ; [] |664| 
TMS320C2000 Assembler PC v15.12.3 Mon Sep 25 12:51:19 2017

Tools Copyright (c) 1996-2015 Texas Instruments Incorporated
C:\Users\wmj\AppData\Local\Temp\0412810                              PAGE   13

     649 0000000b 9241          MOV       AL,*-SP[1]            ; [CPU_] 
     650                      .dwpsn  file "D:/BM1000/sw/modules/ctrl/src/32b/ctrl.c",line 769,column 7,is_stmt,isa 0
     651 0000000c D018          MOVB      XAR0,#24              ; [CPU_] |769| 
     652                      .dwpsn  file "D:/BM1000/sw/modules/ctrl/src/32b/ctrl.h",line 1778,column 3,is_stmt,isa 0
     653 0000000d 96EA          MOV       *+XAR2[5],AL          ; [CPU_] |1778| 
     654                      .dwpsn  file "D:/BM1000/sw/modules/ctrl/src/32b/ctrl.h",line 1779,column 3,is_stmt,isa 0
     655 0000000e 56BF          MOVB      *+XAR2[4],#1,UNC      ; [CPU_] |1779| 
         0000000f 01E2 
     656                      .dwpsn  file "D:/BM1000/sw/modules/ctrl/src/32b/ctrl.c",line 769,column 7,is_stmt,isa 0
     657 00000010 8A92          MOVL      XAR4,*+XAR2[AR0]      ; [CPU_] |769| 
     658              $C$DW$99        .dwtag  DW_TAG_TI_branch
     659                      .dwattr $C$DW$99, DW_AT_low_pc(0x00)
     660                      .dwattr $C$DW$99, DW_AT_name("_EST_isLockRotor")
     661                      .dwattr $C$DW$99, DW_AT_TI_call
     662              
     663 00000011 7640!         LCR       #_EST_isLockRotor     ; [CPU_] |769| 
         00000012 0000 
     664                      ; call occurs [#_EST_isLockRotor] ; [] |769| 
     665 00000013 5200          CMPB      AL,#0                 ; [CPU_] |769| 
     666 00000014 FFE0          B         $C$L12,NEQ            ; [CPU_] |769| 
         00000015 0094 
     667                      ; branchcc occurs ; [] |769| 
     668                      .dwpsn  file "D:/BM1000/sw/modules/ctrl/src/32b/ctrl.c",line 771,column 11,is_stmt,isa 0
     669 00000016 D018          MOVB      XAR0,#24              ; [CPU_] |771| 
     670 00000017 8A92          MOVL      XAR4,*+XAR2[AR0]      ; [CPU_] |771| 
     671              $C$DW$100       .dwtag  DW_TAG_TI_branch
     672                      .dwattr $C$DW$100, DW_AT_low_pc(0x00)
     673                      .dwattr $C$DW$100, DW_AT_name("_EST_isMotorIdentified")
     674                      .dwattr $C$DW$100, DW_AT_TI_call
     675              
     676 00000018 7640!         LCR       #_EST_isMotorIdentified ; [CPU_] |771| 
         00000019 0000 
     677                      ; call occurs [#_EST_isMotorIdentified] ; [] |771| 
     678 0000001a 5200          CMPB      AL,#0                 ; [CPU_] |771| 
     679 0000001b 600C          B         $C$L1,NEQ             ; [CPU_] |771| 
     680                      ; branchcc occurs ; [] |771| 
     681                      .dwpsn  file "D:/BM1000/sw/modules/ctrl/src/32b/ctrl.c",line 777,column 15,is_stmt,isa 0
     682 0000001c D018          MOVB      XAR0,#24              ; [CPU_] |777| 
     683 0000001d 8A92          MOVL      XAR4,*+XAR2[AR0]      ; [CPU_] |777| 
     684              $C$DW$101       .dwtag  DW_TAG_TI_branch
     685                      .dwattr $C$DW$101, DW_AT_low_pc(0x00)
     686                      .dwattr $C$DW$101, DW_AT_name("_EST_setIdle_all")
     687                      .dwattr $C$DW$101, DW_AT_TI_call
     688              
     689 0000001e 7640!         LCR       #_EST_setIdle_all     ; [CPU_] |777| 
         0000001f 0000 
     690                      ; call occurs [#_EST_setIdle_all] ; [] |777| 
     691                      .dwpsn  file "D:/BM1000/sw/modules/ctrl/src/32b/ctrl.c",line 779,column 15,is_stmt,isa 0
     692 00000020 D018          MOVB      XAR0,#24              ; [CPU_] |779| 
     693 00000021 0200          MOVB      ACC,#0                ; [CPU_] |779| 
     694 00000022 8A92          MOVL      XAR4,*+XAR2[AR0]      ; [CPU_] |779| 
     695              $C$DW$102       .dwtag  DW_TAG_TI_branch
     696                      .dwattr $C$DW$102, DW_AT_low_pc(0x00)
     697                      .dwattr $C$DW$102, DW_AT_name("_EST_setRs_pu")
     698                      .dwattr $C$DW$102, DW_AT_TI_call
TMS320C2000 Assembler PC v15.12.3 Mon Sep 25 12:51:19 2017

Tools Copyright (c) 1996-2015 Texas Instruments Incorporated
C:\Users\wmj\AppData\Local\Temp\0412810                              PAGE   14

     699              
     700 00000023 7640!         LCR       #_EST_setRs_pu        ; [CPU_] |779| 
         00000024 0000 
     701                      ; call occurs [#_EST_setRs_pu] ; [] |779| 
     702 00000025 FFEF          B         $C$L12,UNC            ; [CPU_] |779| 
         00000026 0083 
     703                      ; branch occurs ; [] |779| 
     704 00000027       $C$L1:    
     705                      .dwpsn  file "D:/BM1000/sw/modules/ctrl/src/32b/ctrl.c",line 773,column 15,is_stmt,isa 0
     706 00000027 D018          MOVB      XAR0,#24              ; [CPU_] |773| 
     707 00000028 8A92          MOVL      XAR4,*+XAR2[AR0]      ; [CPU_] |773| 
     708              $C$DW$103       .dwtag  DW_TAG_TI_branch
     709                      .dwattr $C$DW$103, DW_AT_low_pc(0x00)
     710                      .dwattr $C$DW$103, DW_AT_name("_EST_setIdle")
     711                      .dwattr $C$DW$103, DW_AT_TI_call
     712              
     713 00000029 7640!         LCR       #_EST_setIdle         ; [CPU_] |773| 
         0000002a 0000 
     714                      ; call occurs [#_EST_setIdle] ; [] |773| 
     715                      .dwpsn  file "D:/BM1000/sw/modules/ctrl/src/32b/ctrl.c",line 774,column 13,is_stmt,isa 0
     716 0000002b 6F7D          B         $C$L12,UNC            ; [CPU_] |774| 
     717                      ; branch occurs ; [] |774| 
     718 0000002c       $C$L2:    
     719 0000002c 9241          MOV       AL,*-SP[1]            ; [CPU_] 
     720 0000002d 2901          CLRC      SXM                   ; [CPU_] 
     721                      .dwpsn  file "D:/BM1000/sw/modules/ctrl/src/32b/ctrl.h",line 937,column 3,is_stmt,isa 0
     722 0000002e 5603          MOV       ACC,AL << 1           ; [CPU_] |937| 
         0000002f 01A9 
     723 00000030 07A2          ADDL      ACC,XAR2              ; [CPU_] |937| 
     724 00000031 8AA9          MOVL      XAR4,ACC              ; [CPU_] |937| 
     725 00000032 D092          MOVB      XAR0,#146             ; [CPU_] |937| 
     726 00000033 0694          MOVL      ACC,*+XAR4[AR0]       ; [CPU_] |937| 
     727                      .dwpsn  file "D:/BM1000/sw/modules/ctrl/src/32b/ctrl.h",line 132,column 3,is_stmt,isa 0
     728 00000034 D09A          MOVB      XAR0,#154             ; [CPU_] |132| 
     729                      .dwpsn  file "D:/BM1000/sw/modules/ctrl/src/32b/ctrl.h",line 937,column 3,is_stmt,isa 0
     730 00000035 1E44          MOVL      *-SP[4],ACC           ; [CPU_] |937| 
     731                      .dwpsn  file "D:/BM1000/sw/modules/ctrl/src/32b/ctrl.h",line 132,column 3,is_stmt,isa 0
     732 00000036 8292          MOVL      XAR3,*+XAR2[AR0]      ; [CPU_] |132| 
     733                      .dwpsn  file "D:/BM1000/sw/modules/ctrl/src/32b/ctrl.h",line 1989,column 3,is_stmt,isa 0
     734 00000037 D018          MOVB      XAR0,#24              ; [CPU_] |1989| 
     735 00000038 8A92          MOVL      XAR4,*+XAR2[AR0]      ; [CPU_] |1989| 
     736              $C$DW$104       .dwtag  DW_TAG_TI_branch
     737                      .dwattr $C$DW$104, DW_AT_low_pc(0x00)
     738                      .dwattr $C$DW$104, DW_AT_name("_EST_isError")
     739                      .dwattr $C$DW$104, DW_AT_TI_call
     740              
     741 00000039 7640!         LCR       #_EST_isError         ; [CPU_] |1989| 
         0000003a 0000 
     742                      ; call occurs [#_EST_isError] ; [] |1989| 
     743 0000003b 5200          CMPB      AL,#0                 ; [CPU_] |1989| 
     744 0000003c 6106          B         $C$L3,EQ              ; [CPU_] |1989| 
     745                      ; branchcc occurs ; [] |1989| 
     746                      .dwpsn  file "D:/BM1000/sw/modules/ctrl/src/32b/ctrl.h",line 1778,column 3,is_stmt,isa 0
     747 0000003d 92E2          MOV       AL,*+XAR2[4]          ; [CPU_] |1778| 
     748 0000003e 96EA          MOV       *+XAR2[5],AL          ; [CPU_] |1778| 
TMS320C2000 Assembler PC v15.12.3 Mon Sep 25 12:51:19 2017

Tools Copyright (c) 1996-2015 Texas Instruments Incorporated
C:\Users\wmj\AppData\Local\Temp\0412810                              PAGE   15

     749                      .dwpsn  file "D:/BM1000/sw/modules/ctrl/src/32b/ctrl.h",line 1779,column 3,is_stmt,isa 0
     750 0000003f 2BE2          MOV       *+XAR2[4],#0          ; [CPU_] |1779| 
     751                      .dwpsn  file "D:/BM1000/sw/modules/ctrl/src/32b/ctrl.h",line 1193,column 3,is_stmt,isa 0
     752 00000040 56BF          MOVB      *+XAR2[6],#2,UNC      ; [CPU_] |1193| 
         00000041 02F2 
     753 00000042       $C$L3:    
     754 00000042 0644          MOVL      ACC,*-SP[4]           ; [CPU_] 
     755                      .dwpsn  file "D:/BM1000/sw/modules/ctrl/src/32b/ctrl.c",line 674,column 7,is_stmt,isa 0
     756 00000043 0FA3          CMPL      ACC,XAR3              ; [CPU_] |674| 
     757 00000044 6664          B         $C$L12,HI             ; [CPU_] |674| 
     758                      ; branchcc occurs ; [] |674| 
     759                      .dwpsn  file "D:/BM1000/sw/modules/ctrl/src/32b/ctrl.h",line 1111,column 3,is_stmt,isa 0
     760 00000045 D09A          MOVB      XAR0,#154             ; [CPU_] |1111| 
     761 00000046 0200          MOVB      ACC,#0                ; [CPU_] |1111| 
     762 00000047 1E92          MOVL      *+XAR2[AR0],ACC       ; [CPU_] |1111| 
     763 00000048 9241          MOV       AL,*-SP[1]            ; [CPU_] |1111| 
     764                      .dwpsn  file "D:/BM1000/sw/modules/ctrl/src/32b/ctrl.c",line 680,column 11,is_stmt,isa 0
     765 00000049 5203          CMPB      AL,#3                 ; [CPU_] |680| 
     766 0000004a 612E          B         $C$L8,EQ              ; [CPU_] |680| 
     767                      ; branchcc occurs ; [] |680| 
     768                      .dwpsn  file "D:/BM1000/sw/modules/ctrl/src/32b/ctrl.c",line 713,column 16,is_stmt,isa 0
     769 0000004b 5202          CMPB      AL,#2                 ; [CPU_] |713| 
     770 0000004c 6127          B         $C$L7,EQ              ; [CPU_] |713| 
     771                      ; branchcc occurs ; [] |713| 
     772                      .dwpsn  file "D:/BM1000/sw/modules/ctrl/src/32b/ctrl.c",line 718,column 16,is_stmt,isa 0
     773 0000004d 5201          CMPB      AL,#1                 ; [CPU_] |718| 
     774 0000004e 605A          B         $C$L12,NEQ            ; [CPU_] |718| 
     775                      ; branchcc occurs ; [] |718| 
     776                      .dwpsn  file "D:/BM1000/sw/modules/ctrl/src/32b/ctrl.c",line 723,column 15,is_stmt,isa 0
     777 0000004f D0F5          MOVB      XAR0,#245             ; [CPU_] |723| 
     778 00000050 9292          MOV       AL,*+XAR2[AR0]        ; [CPU_] |723| 
     779 00000051 6104          B         $C$L4,EQ              ; [CPU_] |723| 
     780                      ; branchcc occurs ; [] |723| 
     781                      .dwpsn  file "D:/BM1000/sw/modules/ctrl/src/32b/ctrl.c",line 726,column 19,is_stmt,isa 0
     782 00000052 8AA2          MOVL      XAR4,XAR2             ; [CPU_] |726| 
     783              $C$DW$105       .dwtag  DW_TAG_TI_branch
     784                      .dwattr $C$DW$105, DW_AT_low_pc(0x00)
     785                      .dwattr $C$DW$105, DW_AT_name("_CTRL_setUserMotorParams")
     786                      .dwattr $C$DW$105, DW_AT_TI_call
     787              
     788 00000053 7640!         LCR       #_CTRL_setUserMotorParams ; [CPU_] |726| 
         00000054 0000 
     789                      ; call occurs [#_CTRL_setUserMotorParams] ; [] |726| 
     790 00000055       $C$L4:    
     791                      .dwpsn  file "D:/BM1000/sw/modules/ctrl/src/32b/ctrl.c",line 729,column 15,is_stmt,isa 0
     792 00000055 D018          MOVB      XAR0,#24              ; [CPU_] |729| 
     793 00000056 8A92          MOVL      XAR4,*+XAR2[AR0]      ; [CPU_] |729| 
     794              $C$DW$106       .dwtag  DW_TAG_TI_branch
     795                      .dwattr $C$DW$106, DW_AT_low_pc(0x00)
     796                      .dwattr $C$DW$106, DW_AT_name("_EST_isIdle")
     797                      .dwattr $C$DW$106, DW_AT_TI_call
     798              
     799 00000057 7640!         LCR       #_EST_isIdle          ; [CPU_] |729| 
         00000058 0000 
     800                      ; call occurs [#_EST_isIdle] ; [] |729| 
TMS320C2000 Assembler PC v15.12.3 Mon Sep 25 12:51:19 2017

Tools Copyright (c) 1996-2015 Texas Instruments Incorporated
C:\Users\wmj\AppData\Local\Temp\0412810                              PAGE   16

     801 00000059 5200          CMPB      AL,#0                 ; [CPU_] |729| 
     802 0000005a 6008          B         $C$L5,NEQ             ; [CPU_] |729| 
     803                      ; branchcc occurs ; [] |729| 
     804                      .dwpsn  file "D:/BM1000/sw/modules/ctrl/src/32b/ctrl.c",line 753,column 20,is_stmt,isa 0
     805 0000005b D018          MOVB      XAR0,#24              ; [CPU_] |753| 
     806 0000005c 8A92          MOVL      XAR4,*+XAR2[AR0]      ; [CPU_] |753| 
     807              $C$DW$107       .dwtag  DW_TAG_TI_branch
     808                      .dwattr $C$DW$107, DW_AT_low_pc(0x00)
     809                      .dwattr $C$DW$107, DW_AT_name("_EST_isLockRotor")
     810                      .dwattr $C$DW$107, DW_AT_TI_call
     811              
     812 0000005d 7640!         LCR       #_EST_isLockRotor     ; [CPU_] |753| 
         0000005e 0000 
     813                      ; call occurs [#_EST_isLockRotor] ; [] |753| 
     814 0000005f 5200          CMPB      AL,#0                 ; [CPU_] |753| 
     815 00000060 6013          B         $C$L7,NEQ             ; [CPU_] |753| 
     816                      ; branchcc occurs ; [] |753| 
     817 00000061 6F47          B         $C$L12,UNC            ; [CPU_] |753| 
     818                      ; branch occurs ; [] |753| 
     819 00000062       $C$L5:    
     820                      .dwpsn  file "D:/BM1000/sw/modules/ctrl/src/32b/ctrl.c",line 732,column 19,is_stmt,isa 0
     821 00000062 8AA2          MOVL      XAR4,XAR2             ; [CPU_] |732| 
     822              $C$DW$108       .dwtag  DW_TAG_TI_branch
     823                      .dwattr $C$DW$108, DW_AT_low_pc(0x00)
     824                      .dwattr $C$DW$108, DW_AT_name("_CTRL_setupEstIdleState")
     825                      .dwattr $C$DW$108, DW_AT_TI_call
     826              
     827 00000063 7640!         LCR       #_CTRL_setupEstIdleState ; [CPU_] |732| 
         00000064 0000 
     828                      ; call occurs [#_CTRL_setupEstIdleState] ; [] |732| 
     829                      .dwpsn  file "D:/BM1000/sw/modules/ctrl/src/32b/ctrl.c",line 734,column 19,is_stmt,isa 0
     830 00000065 D018          MOVB      XAR0,#24              ; [CPU_] |734| 
     831 00000066 8A92          MOVL      XAR4,*+XAR2[AR0]      ; [CPU_] |734| 
     832              $C$DW$109       .dwtag  DW_TAG_TI_branch
     833                      .dwattr $C$DW$109, DW_AT_low_pc(0x00)
     834                      .dwattr $C$DW$109, DW_AT_name("_EST_isMotorIdentified")
     835                      .dwattr $C$DW$109, DW_AT_TI_call
     836              
     837 00000067 7640!         LCR       #_EST_isMotorIdentified ; [CPU_] |734| 
         00000068 0000 
     838                      ; call occurs [#_EST_isMotorIdentified] ; [] |734| 
     839 00000069 5200          CMPB      AL,#0                 ; [CPU_] |734| 
     840 0000006a 6104          B         $C$L6,EQ              ; [CPU_] |734| 
     841                      ; branchcc occurs ; [] |734| 
     842 0000006b D0F3          MOVB      XAR0,#243             ; [CPU_] |734| 
     843 0000006c 9292          MOV       AL,*+XAR2[AR0]        ; [CPU_] |734| 
     844 0000006d 6106          B         $C$L7,EQ              ; [CPU_] |734| 
     845                      ; branchcc occurs ; [] |734| 
     846 0000006e       $C$L6:    
     847                      .dwpsn  file "D:/BM1000/sw/modules/ctrl/src/32b/ctrl.h",line 1778,column 3,is_stmt,isa 0
     848 0000006e 92E2          MOV       AL,*+XAR2[4]          ; [CPU_] |1778| 
     849 0000006f 96EA          MOV       *+XAR2[5],AL          ; [CPU_] |1778| 
     850                      .dwpsn  file "D:/BM1000/sw/modules/ctrl/src/32b/ctrl.h",line 1779,column 3,is_stmt,isa 0
     851 00000070 56BF          MOVB      *+XAR2[4],#2,UNC      ; [CPU_] |1779| 
         00000071 02E2 
TMS320C2000 Assembler PC v15.12.3 Mon Sep 25 12:51:19 2017

Tools Copyright (c) 1996-2015 Texas Instruments Incorporated
C:\Users\wmj\AppData\Local\Temp\0412810                              PAGE   17

     852                      .dwpsn  file "D:/BM1000/sw/modules/ctrl/src/32b/ctrl.h",line 1781,column 3,is_stmt,isa 0
     853 00000072 6F36          B         $C$L12,UNC            ; [CPU_] |1781| 
     854                      ; branch occurs ; [] |1781| 
     855 00000073       $C$L7:    
     856                      .dwpsn  file "D:/BM1000/sw/modules/ctrl/src/32b/ctrl.h",line 1778,column 3,is_stmt,isa 0
     857 00000073 92E2          MOV       AL,*+XAR2[4]          ; [CPU_] |1778| 
     858 00000074 96EA          MOV       *+XAR2[5],AL          ; [CPU_] |1778| 
     859                      .dwpsn  file "D:/BM1000/sw/modules/ctrl/src/32b/ctrl.h",line 1779,column 3,is_stmt,isa 0
     860 00000075 56BF          MOVB      *+XAR2[4],#3,UNC      ; [CPU_] |1779| 
         00000076 03E2 
     861                      .dwpsn  file "D:/BM1000/sw/modules/ctrl/src/32b/ctrl.h",line 1781,column 3,is_stmt,isa 0
     862 00000077 6F31          B         $C$L12,UNC            ; [CPU_] |1781| 
     863                      ; branch occurs ; [] |1781| 
     864 00000078       $C$L8:    
     865                      .dwpsn  file "D:/BM1000/sw/modules/ctrl/src/32b/ctrl.c",line 686,column 41,is_stmt,isa 0
     866 00000078 D018          MOVB      XAR0,#24              ; [CPU_] |686| 
     867 00000079 8A92          MOVL      XAR4,*+XAR2[AR0]      ; [CPU_] |686| 
     868 0000007a D060          MOVB      XAR0,#96              ; [CPU_] |686| 
     869 0000007b 8392          MOVL      XAR5,*+XAR2[AR0]      ; [CPU_] |686| 
     870 0000007c 06C5          MOVL      ACC,*+XAR5[0]         ; [CPU_] |686| 
     871              $C$DW$110       .dwtag  DW_TAG_TI_branch
     872                      .dwattr $C$DW$110, DW_AT_low_pc(0x00)
     873                      .dwattr $C$DW$110, DW_AT_name("_EST_updateState")
     874                      .dwattr $C$DW$110, DW_AT_TI_call
     875              
     876 0000007d 7640!         LCR       #_EST_updateState     ; [CPU_] |686| 
         0000007e 0000 
     877                      ; call occurs [#_EST_updateState] ; [] |686| 
     878 0000007f 5200          CMPB      AL,#0                 ; [CPU_] |686| 
     879 00000080 6107          B         $C$L9,EQ              ; [CPU_] |686| 
     880                      ; branchcc occurs ; [] |686| 
     881                      .dwpsn  file "D:/BM1000/sw/modules/ctrl/src/32b/ctrl.c",line 691,column 19,is_stmt,isa 0
     882 00000081 8AA2          MOVL      XAR4,XAR2             ; [CPU_] |691| 
     883              $C$DW$111       .dwtag  DW_TAG_TI_branch
     884                      .dwattr $C$DW$111, DW_AT_low_pc(0x00)
     885                      .dwattr $C$DW$111, DW_AT_name("_CTRL_setupCtrl")
     886                      .dwattr $C$DW$111, DW_AT_TI_call
     887              
     888 00000082 7640!         LCR       #_CTRL_setupCtrl      ; [CPU_] |691| 
         00000083 0000 
     889                      ; call occurs [#_CTRL_setupCtrl] ; [] |691| 
     890                      .dwpsn  file "D:/BM1000/sw/modules/ctrl/src/32b/ctrl.c",line 694,column 19,is_stmt,isa 0
     891 00000084 8AA2          MOVL      XAR4,XAR2             ; [CPU_] |694| 
     892              $C$DW$112       .dwtag  DW_TAG_TI_branch
     893                      .dwattr $C$DW$112, DW_AT_low_pc(0x00)
     894                      .dwattr $C$DW$112, DW_AT_name("_CTRL_setupTraj")
     895                      .dwattr $C$DW$112, DW_AT_TI_call
     896              
     897 00000085 7640!         LCR       #_CTRL_setupTraj      ; [CPU_] |694| 
         00000086 0000 
     898                      ; call occurs [#_CTRL_setupTraj] ; [] |694| 
     899 00000087       $C$L9:    
     900                      .dwpsn  file "D:/BM1000/sw/modules/ctrl/src/32b/ctrl.c",line 697,column 15,is_stmt,isa 0
     901 00000087 D018          MOVB      XAR0,#24              ; [CPU_] |697| 
     902 00000088 8A92          MOVL      XAR4,*+XAR2[AR0]      ; [CPU_] |697| 
TMS320C2000 Assembler PC v15.12.3 Mon Sep 25 12:51:19 2017

Tools Copyright (c) 1996-2015 Texas Instruments Incorporated
C:\Users\wmj\AppData\Local\Temp\0412810                              PAGE   18

     903              $C$DW$113       .dwtag  DW_TAG_TI_branch
     904                      .dwattr $C$DW$113, DW_AT_low_pc(0x00)
     905                      .dwattr $C$DW$113, DW_AT_name("_EST_isOnLine")
     906                      .dwattr $C$DW$113, DW_AT_TI_call
     907              
     908 00000089 7640!         LCR       #_EST_isOnLine        ; [CPU_] |697| 
         0000008a 0000 
     909                      ; call occurs [#_EST_isOnLine] ; [] |697| 
     910 0000008b 5200          CMPB      AL,#0                 ; [CPU_] |697| 
     911 0000008c 6104          B         $C$L10,EQ             ; [CPU_] |697| 
     912                      ; branchcc occurs ; [] |697| 
     913                      .dwpsn  file "D:/BM1000/sw/modules/ctrl/src/32b/ctrl.c",line 700,column 19,is_stmt,isa 0
     914 0000008d 8AA2          MOVL      XAR4,XAR2             ; [CPU_] |700| 
     915              $C$DW$114       .dwtag  DW_TAG_TI_branch
     916                      .dwattr $C$DW$114, DW_AT_low_pc(0x00)
     917                      .dwattr $C$DW$114, DW_AT_name("_CTRL_setupEstOnLineState")
     918                      .dwattr $C$DW$114, DW_AT_TI_call
     919              
     920 0000008e 7640!         LCR       #_CTRL_setupEstOnLineState ; [CPU_] |700| 
         0000008f 0000 
     921                      ; call occurs [#_CTRL_setupEstOnLineState] ; [] |700| 
     922 00000090       $C$L10:    
     923                      .dwpsn  file "D:/BM1000/sw/modules/ctrl/src/32b/ctrl.c",line 703,column 15,is_stmt,isa 0
     924 00000090 D018          MOVB      XAR0,#24              ; [CPU_] |703| 
     925 00000091 8A92          MOVL      XAR4,*+XAR2[AR0]      ; [CPU_] |703| 
     926              $C$DW$115       .dwtag  DW_TAG_TI_branch
     927                      .dwattr $C$DW$115, DW_AT_low_pc(0x00)
     928                      .dwattr $C$DW$115, DW_AT_name("_EST_isLockRotor")
     929                      .dwattr $C$DW$115, DW_AT_TI_call
     930              
     931 00000092 7640!         LCR       #_EST_isLockRotor     ; [CPU_] |703| 
         00000093 0000 
     932                      ; call occurs [#_EST_isLockRotor] ; [] |703| 
     933 00000094 5200          CMPB      AL,#0                 ; [CPU_] |703| 
     934 00000095 600D          B         $C$L11,NEQ            ; [CPU_] |703| 
     935                      ; branchcc occurs ; [] |703| 
     936 00000096 D018          MOVB      XAR0,#24              ; [CPU_] |703| 
     937 00000097 8A92          MOVL      XAR4,*+XAR2[AR0]      ; [CPU_] |703| 
     938              $C$DW$116       .dwtag  DW_TAG_TI_branch
     939                      .dwattr $C$DW$116, DW_AT_low_pc(0x00)
     940                      .dwattr $C$DW$116, DW_AT_name("_EST_isIdle")
     941                      .dwattr $C$DW$116, DW_AT_TI_call
     942              
     943 00000098 7640!         LCR       #_EST_isIdle          ; [CPU_] |703| 
         00000099 0000 
     944                      ; call occurs [#_EST_isIdle] ; [] |703| 
     945 0000009a 5200          CMPB      AL,#0                 ; [CPU_] |703| 
     946 0000009b 610D          B         $C$L12,EQ             ; [CPU_] |703| 
     947                      ; branchcc occurs ; [] |703| 
     948 0000009c D018          MOVB      XAR0,#24              ; [CPU_] |703| 
     949 0000009d 8A92          MOVL      XAR4,*+XAR2[AR0]      ; [CPU_] |703| 
     950              $C$DW$117       .dwtag  DW_TAG_TI_branch
     951                      .dwattr $C$DW$117, DW_AT_low_pc(0x00)
     952                      .dwattr $C$DW$117, DW_AT_name("_EST_isMotorIdentified")
     953                      .dwattr $C$DW$117, DW_AT_TI_call
TMS320C2000 Assembler PC v15.12.3 Mon Sep 25 12:51:19 2017

Tools Copyright (c) 1996-2015 Texas Instruments Incorporated
C:\Users\wmj\AppData\Local\Temp\0412810                              PAGE   19

     954              
     955 0000009e 7640!         LCR       #_EST_isMotorIdentified ; [CPU_] |703| 
         0000009f 0000 
     956                      ; call occurs [#_EST_isMotorIdentified] ; [] |703| 
     957 000000a0 5200          CMPB      AL,#0                 ; [CPU_] |703| 
     958 000000a1 6107          B         $C$L12,EQ             ; [CPU_] |703| 
     959                      ; branchcc occurs ; [] |703| 
     960 000000a2       $C$L11:    
     961                      .dwpsn  file "D:/BM1000/sw/modules/ctrl/src/32b/ctrl.h",line 1218,column 3,is_stmt,isa 0
     962 000000a2 D0F0          MOVB      XAR0,#240             ; [CPU_] |1218| 
     963 000000a3 2B92          MOV       *+XAR2[AR0],#0        ; [CPU_] |1218| 
     964                      .dwpsn  file "D:/BM1000/sw/modules/ctrl/src/32b/ctrl.h",line 1778,column 3,is_stmt,isa 0
     965 000000a4 92E2          MOV       AL,*+XAR2[4]          ; [CPU_] |1778| 
     966 000000a5 96EA          MOV       *+XAR2[5],AL          ; [CPU_] |1778| 
     967                      .dwpsn  file "D:/BM1000/sw/modules/ctrl/src/32b/ctrl.h",line 1779,column 3,is_stmt,isa 0
     968 000000a6 56BF          MOVB      *+XAR2[4],#1,UNC      ; [CPU_] |1779| 
         000000a7 01E2 
     969 000000a8       $C$L12:    
     970                      .dwpsn  file "D:/BM1000/sw/modules/ctrl/src/32b/ctrl.c",line 786,column 3,is_stmt,isa 0
     971 000000a8 8841          MOVZ      AR6,*-SP[1]           ; [CPU_] |786| 
     972 000000a9 0EE2          MOVU      ACC,*+XAR2[4]         ; [CPU_] |786| 
     973 000000aa 0FA6          CMPL      ACC,XAR6              ; [CPU_] |786| 
     974                      .dwpsn  file "D:/BM1000/sw/modules/ctrl/src/32b/ctrl.c",line 788,column 7,is_stmt,isa 0
     975 000000ab 56B0          MOVB      XAR1,#1,NEQ           ; [CPU_] |788| 
         000000ac 01A1 
     976 000000ad FE84          SUBB      SP,#4                 ; [CPU_U] 
     977                      .dwcfi  cfa_offset, -8
     978                      .dwpsn  file "D:/BM1000/sw/modules/ctrl/src/32b/ctrl.c",line 791,column 3,is_stmt,isa 0
     979 000000ae 92A1          MOV       AL,AR1                ; [CPU_] |791| 
     980 000000af 82BE          MOVL      XAR3,*--SP            ; [CPU_] 
     981                      .dwcfi  cfa_offset, -6
     982                      .dwcfi  restore_reg, 11
     983 000000b0 86BE          MOVL      XAR2,*--SP            ; [CPU_] 
     984                      .dwcfi  cfa_offset, -4
     985                      .dwcfi  restore_reg, 9
     986 000000b1 8BBE          MOVL      XAR1,*--SP            ; [CPU_] 
     987                      .dwcfi  cfa_offset, -2
     988                      .dwcfi  restore_reg, 7
     989              $C$DW$118       .dwtag  DW_TAG_TI_branch
     990                      .dwattr $C$DW$118, DW_AT_low_pc(0x00)
     991                      .dwattr $C$DW$118, DW_AT_TI_return
     992              
     993 000000b2 0006          LRETR     ; [CPU_] 
     994                      ; return occurs ; [] 
     995                      .dwattr $C$DW$92, DW_AT_TI_end_file("D:/BM1000/sw/modules/ctrl/src/32b/ctrl.c")
     996                      .dwattr $C$DW$92, DW_AT_TI_end_line(0x318)
     997                      .dwattr $C$DW$92, DW_AT_TI_end_column(0x01)
     998                      .dwendentry
     999                      .dwendtag $C$DW$92
    1000              
    1001 000000b3               .sect   ".text"
    1002                      .clink
    1003                      .global _CTRL_setup_user
    1004              
    1005              $C$DW$119       .dwtag  DW_TAG_subprogram
TMS320C2000 Assembler PC v15.12.3 Mon Sep 25 12:51:19 2017

Tools Copyright (c) 1996-2015 Texas Instruments Incorporated
C:\Users\wmj\AppData\Local\Temp\0412810                              PAGE   20

    1006                      .dwattr $C$DW$119, DW_AT_name("CTRL_setup_user")
    1007                      .dwattr $C$DW$119, DW_AT_low_pc(_CTRL_setup_user)
    1008                      .dwattr $C$DW$119, DW_AT_high_pc(0x00)
    1009                      .dwattr $C$DW$119, DW_AT_TI_symbol_name("_CTRL_setup_user")
    1010                      .dwattr $C$DW$119, DW_AT_external
    1011                      .dwattr $C$DW$119, DW_AT_TI_begin_file("D:/BM1000/sw/modules/ctrl/src/32b/ctrl.c")
    1012                      .dwattr $C$DW$119, DW_AT_TI_begin_line(0x241)
    1013                      .dwattr $C$DW$119, DW_AT_TI_begin_column(0x06)
    1014                      .dwattr $C$DW$119, DW_AT_TI_max_frame_size(-18)
    1015                      .dwpsn  file "D:/BM1000/sw/modules/ctrl/src/32b/ctrl.c",line 586,column 1,is_stmt,address _CTRL_setup
    1016              
    1017                      .dwfde $C$DW$CIE, _CTRL_setup_user
    1018              $C$DW$120       .dwtag  DW_TAG_formal_parameter
    1019                      .dwattr $C$DW$120, DW_AT_name("handle")
    1020                      .dwattr $C$DW$120, DW_AT_TI_symbol_name("_handle")
    1021                      .dwattr $C$DW$120, DW_AT_type(*$C$DW$T$173)
    1022                      .dwattr $C$DW$120, DW_AT_location[DW_OP_reg12]
    1023              
    1024              $C$DW$121       .dwtag  DW_TAG_formal_parameter
    1025                      .dwattr $C$DW$121, DW_AT_name("angle_pu")
    1026                      .dwattr $C$DW$121, DW_AT_TI_symbol_name("_angle_pu")
    1027                      .dwattr $C$DW$121, DW_AT_type(*$C$DW$T$244)
    1028                      .dwattr $C$DW$121, DW_AT_location[DW_OP_reg0]
    1029              
    1030              $C$DW$122       .dwtag  DW_TAG_formal_parameter
    1031                      .dwattr $C$DW$122, DW_AT_name("speed_ref_pu")
    1032                      .dwattr $C$DW$122, DW_AT_TI_symbol_name("_speed_ref_pu")
    1033                      .dwattr $C$DW$122, DW_AT_type(*$C$DW$T$244)
    1034                      .dwattr $C$DW$122, DW_AT_location[DW_OP_breg20 -20]
    1035              
    1036              $C$DW$123       .dwtag  DW_TAG_formal_parameter
    1037                      .dwattr $C$DW$123, DW_AT_name("speed_fb_pu")
    1038                      .dwattr $C$DW$123, DW_AT_TI_symbol_name("_speed_fb_pu")
    1039                      .dwattr $C$DW$123, DW_AT_type(*$C$DW$T$244)
    1040                      .dwattr $C$DW$123, DW_AT_location[DW_OP_breg20 -22]
    1041              
    1042              $C$DW$124       .dwtag  DW_TAG_formal_parameter
    1043                      .dwattr $C$DW$124, DW_AT_name("speed_outMax_pu")
    1044                      .dwattr $C$DW$124, DW_AT_TI_symbol_name("_speed_outMax_pu")
    1045                      .dwattr $C$DW$124, DW_AT_type(*$C$DW$T$244)
    1046                      .dwattr $C$DW$124, DW_AT_location[DW_OP_breg20 -24]
    1047              
    1048              $C$DW$125       .dwtag  DW_TAG_formal_parameter
    1049                      .dwattr $C$DW$125, DW_AT_name("pIdq_offset_pu")
    1050                      .dwattr $C$DW$125, DW_AT_TI_symbol_name("_pIdq_offset_pu")
    1051                      .dwattr $C$DW$125, DW_AT_type(*$C$DW$T$214)
    1052                      .dwattr $C$DW$125, DW_AT_location[DW_OP_reg14]
    1053              
    1054              $C$DW$126       .dwtag  DW_TAG_formal_parameter
    1055                      .dwattr $C$DW$126, DW_AT_name("pVdq_offset_pu")
    1056                      .dwattr $C$DW$126, DW_AT_TI_symbol_name("_pVdq_offset_pu")
    1057                      .dwattr $C$DW$126, DW_AT_type(*$C$DW$T$214)
    1058                      .dwattr $C$DW$126, DW_AT_location[DW_OP_breg20 -26]
    1059              
    1060              $C$DW$127       .dwtag  DW_TAG_formal_parameter
TMS320C2000 Assembler PC v15.12.3 Mon Sep 25 12:51:19 2017

Tools Copyright (c) 1996-2015 Texas Instruments Incorporated
C:\Users\wmj\AppData\Local\Temp\0412810                              PAGE   21

    1061                      .dwattr $C$DW$127, DW_AT_name("flag_enableSpeedCtrl")
    1062                      .dwattr $C$DW$127, DW_AT_TI_symbol_name("_flag_enableSpeedCtrl")
    1063                      .dwattr $C$DW$127, DW_AT_type(*$C$DW$T$268)
    1064                      .dwattr $C$DW$127, DW_AT_location[DW_OP_breg20 -27]
    1065              
    1066              $C$DW$128       .dwtag  DW_TAG_formal_parameter
    1067                      .dwattr $C$DW$128, DW_AT_name("flag_enableCurrentCtrl")
    1068                      .dwattr $C$DW$128, DW_AT_TI_symbol_name("_flag_enableCurrentCtrl")
    1069                      .dwattr $C$DW$128, DW_AT_type(*$C$DW$T$268)
    1070                      .dwattr $C$DW$128, DW_AT_location[DW_OP_breg20 -28]
    1071              
    1072              
    1073              ;***************************************************************
    1074              ;* FNAME: _CTRL_setup_user              FR SIZE:  16           *
    1075              ;*                                                             *
    1076              ;* FUNCTION ENVIRONMENT                                        *
    1077              ;*                                                             *
    1078              ;* FUNCTION PROPERTIES                                         *
    1079              ;*                            0 Parameter, 10 Auto,  6 SOE     *
    1080              ;***************************************************************
    1081              
    1082              _CTRL_setup_user:
    1083              ;* AR7   assigned to _numCtrlTicksPerTrajTick
    1084              $C$DW$129       .dwtag  DW_TAG_variable
    1085                      .dwattr $C$DW$129, DW_AT_name("numCtrlTicksPerTrajTick")
    1086                      .dwattr $C$DW$129, DW_AT_TI_symbol_name("_numCtrlTicksPerTrajTick")
    1087                      .dwattr $C$DW$129, DW_AT_type(*$C$DW$T$70)
    1088                      .dwattr $C$DW$129, DW_AT_location[DW_OP_reg18]
    1089              
    1090              ;* PL    assigned to _count_traj
    1091              $C$DW$130       .dwtag  DW_TAG_variable
    1092                      .dwattr $C$DW$130, DW_AT_name("count_traj")
    1093                      .dwattr $C$DW$130, DW_AT_TI_symbol_name("_count_traj")
    1094                      .dwattr $C$DW$130, DW_AT_type(*$C$DW$T$70)
    1095                      .dwattr $C$DW$130, DW_AT_location[DW_OP_reg2]
    1096              
    1097              ;* AR6   assigned to _ctrlState
    1098              $C$DW$131       .dwtag  DW_TAG_variable
    1099                      .dwattr $C$DW$131, DW_AT_name("ctrlState")
    1100                      .dwattr $C$DW$131, DW_AT_TI_symbol_name("_ctrlState")
    1101                      .dwattr $C$DW$131, DW_AT_type(*$C$DW$T$43)
    1102                      .dwattr $C$DW$131, DW_AT_location[DW_OP_reg16]
    1103              
    1104              $C$DW$132       .dwtag  DW_TAG_variable
    1105                      .dwattr $C$DW$132, DW_AT_name("flag_enableCurrentCtrl")
    1106                      .dwattr $C$DW$132, DW_AT_TI_symbol_name("_flag_enableCurrentCtrl")
    1107                      .dwattr $C$DW$132, DW_AT_type(*$C$DW$T$268)
    1108                      .dwattr $C$DW$132, DW_AT_location[DW_OP_breg20 -1]
    1109              
    1110              $C$DW$133       .dwtag  DW_TAG_variable
    1111                      .dwattr $C$DW$133, DW_AT_name("flag_enableSpeedCtrl")
    1112                      .dwattr $C$DW$133, DW_AT_TI_symbol_name("_flag_enableSpeedCtrl")
    1113                      .dwattr $C$DW$133, DW_AT_type(*$C$DW$T$268)
    1114                      .dwattr $C$DW$133, DW_AT_location[DW_OP_breg20 -2]
    1115              
TMS320C2000 Assembler PC v15.12.3 Mon Sep 25 12:51:19 2017

Tools Copyright (c) 1996-2015 Texas Instruments Incorporated
C:\Users\wmj\AppData\Local\Temp\0412810                              PAGE   22

    1116              $C$DW$134       .dwtag  DW_TAG_variable
    1117                      .dwattr $C$DW$134, DW_AT_name("pVdq_offset_pu")
    1118                      .dwattr $C$DW$134, DW_AT_TI_symbol_name("_pVdq_offset_pu")
    1119                      .dwattr $C$DW$134, DW_AT_type(*$C$DW$T$215)
    1120                      .dwattr $C$DW$134, DW_AT_location[DW_OP_breg20 -4]
    1121              
    1122              ;* AR3   assigned to _pIdq_offset_pu
    1123              $C$DW$135       .dwtag  DW_TAG_variable
    1124                      .dwattr $C$DW$135, DW_AT_name("pIdq_offset_pu")
    1125                      .dwattr $C$DW$135, DW_AT_TI_symbol_name("_pIdq_offset_pu")
    1126                      .dwattr $C$DW$135, DW_AT_type(*$C$DW$T$215)
    1127                      .dwattr $C$DW$135, DW_AT_location[DW_OP_reg10]
    1128              
    1129              $C$DW$136       .dwtag  DW_TAG_variable
    1130                      .dwattr $C$DW$136, DW_AT_name("speed_outMax_pu")
    1131                      .dwattr $C$DW$136, DW_AT_TI_symbol_name("_speed_outMax_pu")
    1132                      .dwattr $C$DW$136, DW_AT_type(*$C$DW$T$244)
    1133                      .dwattr $C$DW$136, DW_AT_location[DW_OP_breg20 -6]
    1134              
    1135              $C$DW$137       .dwtag  DW_TAG_variable
    1136                      .dwattr $C$DW$137, DW_AT_name("speed_fb_pu")
    1137                      .dwattr $C$DW$137, DW_AT_TI_symbol_name("_speed_fb_pu")
    1138                      .dwattr $C$DW$137, DW_AT_type(*$C$DW$T$244)
    1139                      .dwattr $C$DW$137, DW_AT_location[DW_OP_breg20 -8]
    1140              
    1141              ;* AR2   assigned to _speed_ref_pu
    1142              $C$DW$138       .dwtag  DW_TAG_variable
    1143                      .dwattr $C$DW$138, DW_AT_name("speed_ref_pu")
    1144                      .dwattr $C$DW$138, DW_AT_TI_symbol_name("_speed_ref_pu")
    1145                      .dwattr $C$DW$138, DW_AT_type(*$C$DW$T$244)
    1146                      .dwattr $C$DW$138, DW_AT_location[DW_OP_reg8]
    1147              
    1148              $C$DW$139       .dwtag  DW_TAG_variable
    1149                      .dwattr $C$DW$139, DW_AT_name("angle_pu")
    1150                      .dwattr $C$DW$139, DW_AT_TI_symbol_name("_angle_pu")
    1151                      .dwattr $C$DW$139, DW_AT_type(*$C$DW$T$244)
    1152                      .dwattr $C$DW$139, DW_AT_location[DW_OP_breg20 -10]
    1153              
    1154              ;* AR1   assigned to _handle
    1155              $C$DW$140       .dwtag  DW_TAG_variable
    1156                      .dwattr $C$DW$140, DW_AT_name("handle")
    1157                      .dwattr $C$DW$140, DW_AT_TI_symbol_name("_handle")
    1158                      .dwattr $C$DW$140, DW_AT_type(*$C$DW$T$192)
    1159                      .dwattr $C$DW$140, DW_AT_location[DW_OP_reg6]
    1160              
    1161                      .dwcfi  cfa_offset, -2
    1162                      .dwcfi  save_reg_to_mem, 26, 0
    1163 000000b3 B2BD          MOVL      *SP++,XAR1            ; [CPU_] 
    1164                      .dwcfi  save_reg_to_mem, 7, 2
    1165                      .dwcfi  cfa_offset, -4
    1166 000000b4 AABD          MOVL      *SP++,XAR2            ; [CPU_] 
    1167                      .dwcfi  save_reg_to_mem, 9, 4
    1168                      .dwcfi  cfa_offset, -6
    1169 000000b5 A2BD          MOVL      *SP++,XAR3            ; [CPU_] 
    1170                      .dwcfi  save_reg_to_mem, 11, 6
TMS320C2000 Assembler PC v15.12.3 Mon Sep 25 12:51:19 2017

Tools Copyright (c) 1996-2015 Texas Instruments Incorporated
C:\Users\wmj\AppData\Local\Temp\0412810                              PAGE   23

    1171                      .dwcfi  cfa_offset, -8
    1172 000000b6 FE0A          ADDB      SP,#10                ; [CPU_U] 
    1173                      .dwcfi  cfa_offset, -18
    1174 000000b7 1E4A          MOVL      *-SP[10],ACC          ; [CPU_] |586| 
    1175                      .dwpsn  file "D:/BM1000/sw/modules/ctrl/src/32b/ctrl.h",line 143,column 3,is_stmt,isa 0
    1176 000000b8 D0EF          MOVB      XAR0,#239             ; [CPU_] |143| 
    1177                      .dwpsn  file "D:/BM1000/sw/modules/ctrl/src/32b/ctrl.c",line 586,column 1,is_stmt,isa 0
    1178 000000b9 8BA4          MOVL      XAR1,XAR4             ; [CPU_] |586| 
    1179 000000ba 925C          MOV       AL,*-SP[28]           ; [CPU_] |586| 
    1180 000000bb 8654          MOVL      XAR2,*-SP[20]         ; [CPU_] |586| 
    1181 000000bc 9641          MOV       *-SP[1],AL            ; [CPU_] |586| 
    1182 000000bd 925B          MOV       AL,*-SP[27]           ; [CPU_] |586| 
    1183 000000be 9642          MOV       *-SP[2],AL            ; [CPU_] |586| 
    1184 000000bf 065A          MOVL      ACC,*-SP[26]          ; [CPU_] |586| 
    1185 000000c0 1E44          MOVL      *-SP[4],ACC           ; [CPU_] |586| 
    1186 000000c1 0658          MOVL      ACC,*-SP[24]          ; [CPU_] |586| 
    1187 000000c2 1E46          MOVL      *-SP[6],ACC           ; [CPU_] |586| 
    1188 000000c3 0656          MOVL      ACC,*-SP[22]          ; [CPU_] |586| 
    1189 000000c4 1E48          MOVL      *-SP[8],ACC           ; [CPU_] |586| 
    1190 000000c5 A8A9          MOVL      ACC,XAR4              ; [CPU_] |586| 
    1191                      .dwpsn  file "D:/BM1000/sw/modules/ctrl/src/32b/ctrl.h",line 1013,column 3,is_stmt,isa 0
    1192 000000c6 099A          ADDB      ACC,#154              ; [CPU_] |1013| 
    1193 000000c7 8AA9          MOVL      XAR4,ACC              ; [CPU_] |1013| 
    1194                      .dwpsn  file "D:/BM1000/sw/modules/ctrl/src/32b/ctrl.h",line 143,column 3,is_stmt,isa 0
    1195 000000c8 2791          MOV       PL,*+XAR1[AR0]        ; [CPU_] |143| 
    1196                      .dwpsn  file "D:/BM1000/sw/modules/ctrl/src/32b/ctrl.h",line 771,column 3,is_stmt,isa 0
    1197 000000c9 88E1          MOVZ      AR6,*+XAR1[4]         ; [CPU_] |771| 
    1198                      .dwpsn  file "D:/BM1000/sw/modules/ctrl/src/32b/ctrl.h",line 606,column 3,is_stmt,isa 0
    1199 000000ca D09F          MOVB      XAR0,#159             ; [CPU_] |606| 
    1200                      .dwpsn  file "D:/BM1000/sw/modules/ctrl/src/32b/ctrl.h",line 1013,column 3,is_stmt,isa 0
    1201 000000cb 0201          MOVB      ACC,#1                ; [CPU_] |1013| 
    1202                      .dwpsn  file "D:/BM1000/sw/modules/ctrl/src/32b/ctrl.h",line 606,column 3,is_stmt,isa 0
    1203 000000cc 8091          MOVZ      AR7,*+XAR1[AR0]       ; [CPU_] |606| 
    1204                      .dwpsn  file "D:/BM1000/sw/modules/ctrl/src/32b/ctrl.h",line 1013,column 3,is_stmt,isa 0
    1205 000000cd 5601          ADDL      *+XAR4[0],ACC         ; [CPU_] |1013| 
         000000ce 00C4 
    1206                      .dwpsn  file "D:/BM1000/sw/modules/ctrl/src/32b/ctrl.h",line 1031,column 3,is_stmt,isa 0
    1207 000000cf B2A9          MOVL      ACC,XAR1              ; [CPU_] |1031| 
    1208 000000d0 09EF          ADDB      ACC,#239              ; [CPU_] |1031| 
    1209 000000d1 8AA9          MOVL      XAR4,ACC              ; [CPU_] |1031| 
    1210                      .dwpsn  file "D:/BM1000/sw/modules/ctrl/src/32b/ctrl.c",line 586,column 1,is_stmt,isa 0
    1211 000000d2 82A5          MOVL      XAR3,XAR5             ; [CPU_] |586| 
    1212                      .dwpsn  file "D:/BM1000/sw/modules/ctrl/src/32b/ctrl.h",line 1031,column 3,is_stmt,isa 0
    1213 000000d3 92A6          MOV       AL,AR6                ; [CPU_] |1031| 
    1214 000000d4 0AC4          INC       *+XAR4[0]             ; [CPU_] |1031| 
    1215                      .dwpsn  file "D:/BM1000/sw/modules/ctrl/src/32b/ctrl.c",line 599,column 3,is_stmt,isa 0
    1216 000000d5 5203          CMPB      AL,#3                 ; [CPU_] |599| 
    1217 000000d6 6009          B         $C$L13,NEQ            ; [CPU_] |599| 
    1218                      ; branchcc occurs ; [] |599| 
    1219                      .dwpsn  file "D:/BM1000/sw/modules/ctrl/src/32b/ctrl.h",line 959,column 3,is_stmt,isa 0
    1220 000000d7 B2A9          MOVL      ACC,XAR1              ; [CPU_] |959| 
    1221 000000d8 09EC          ADDB      ACC,#236              ; [CPU_] |959| 
    1222 000000d9 8AA9          MOVL      XAR4,ACC              ; [CPU_] |959| 
    1223                      .dwpsn  file "D:/BM1000/sw/modules/ctrl/src/32b/ctrl.h",line 995,column 3,is_stmt,isa 0
    1224 000000da B2A9          MOVL      ACC,XAR1              ; [CPU_] |995| 
TMS320C2000 Assembler PC v15.12.3 Mon Sep 25 12:51:19 2017

Tools Copyright (c) 1996-2015 Texas Instruments Incorporated
C:\Users\wmj\AppData\Local\Temp\0412810                              PAGE   24

    1225                      .dwpsn  file "D:/BM1000/sw/modules/ctrl/src/32b/ctrl.h",line 959,column 3,is_stmt,isa 0
    1226 000000db 0AC4          INC       *+XAR4[0]             ; [CPU_] |959| 
    1227                      .dwpsn  file "D:/BM1000/sw/modules/ctrl/src/32b/ctrl.h",line 995,column 3,is_stmt,isa 0
    1228 000000dc 09EE          ADDB      ACC,#238              ; [CPU_] |995| 
    1229 000000dd 8AA9          MOVL      XAR4,ACC              ; [CPU_] |995| 
    1230 000000de 0AC4          INC       *+XAR4[0]             ; [CPU_] |995| 
    1231 000000df       $C$L13:    
    1232 000000df 92A7          MOV       AL,AR7                ; [CPU_] 
    1233                      .dwpsn  file "D:/BM1000/sw/modules/ctrl/src/32b/ctrl.c",line 609,column 3,is_stmt,isa 0
    1234 000000e0 54AB          CMP       AL,PL                 ; [CPU_] |609| 
    1235 000000e1 6606          B         $C$L14,HI             ; [CPU_] |609| 
    1236                      ; branchcc occurs ; [] |609| 
    1237                      .dwpsn  file "D:/BM1000/sw/modules/ctrl/src/32b/ctrl.h",line 1123,column 3,is_stmt,isa 0
    1238 000000e2 D0EF          MOVB      XAR0,#239             ; [CPU_] |1123| 
    1239                      .dwpsn  file "D:/BM1000/sw/modules/ctrl/src/32b/ctrl.c",line 615,column 5,is_stmt,isa 0
    1240 000000e3 8AA1          MOVL      XAR4,XAR1             ; [CPU_] |615| 
    1241                      .dwpsn  file "D:/BM1000/sw/modules/ctrl/src/32b/ctrl.h",line 1123,column 3,is_stmt,isa 0
    1242 000000e4 2B91          MOV       *+XAR1[AR0],#0        ; [CPU_] |1123| 
    1243                      .dwpsn  file "D:/BM1000/sw/modules/ctrl/src/32b/ctrl.c",line 615,column 5,is_stmt,isa 0
    1244              $C$DW$141       .dwtag  DW_TAG_TI_branch
    1245                      .dwattr $C$DW$141, DW_AT_low_pc(0x00)
    1246                      .dwattr $C$DW$141, DW_AT_name("_CTRL_runTraj")
    1247                      .dwattr $C$DW$141, DW_AT_TI_call
    1248              
    1249 000000e5 7640!         LCR       #_CTRL_runTraj        ; [CPU_] |615| 
         000000e6 0000 
    1250                      ; call occurs [#_CTRL_runTraj] ; [] |615| 
    1251 000000e7       $C$L14:    
    1252                      .dwpsn  file "D:/BM1000/sw/modules/ctrl/src/32b/ctrl.h",line 1154,column 3,is_stmt,isa 0
    1253 000000e7 D0FE          MOVB      XAR0,#254             ; [CPU_] |1154| 
    1254 000000e8 064A          MOVL      ACC,*-SP[10]          ; [CPU_] |1154| 
    1255 000000e9 1E91          MOVL      *+XAR1[AR0],ACC       ; [CPU_] |1154| 
    1256                      .dwpsn  file "D:/BM1000/sw/modules/ctrl/src/32b/ctrl.h",line 1753,column 3,is_stmt,isa 0
    1257 000000ea B2A9          MOVL      ACC,XAR1              ; [CPU_] |1753| 
    1258 000000eb FF18          ADD       ACC,#1 << 8           ; [CPU_] |1753| 
         000000ec 0001 
    1259 000000ed 8AA9          MOVL      XAR4,ACC              ; [CPU_] |1753| 
    1260                      .dwpsn  file "D:/BM1000/sw/modules/ctrl/src/32b/ctrl.h",line 1701,column 3,is_stmt,isa 0
    1261 000000ee B2A9          MOVL      ACC,XAR1              ; [CPU_] |1701| 
    1262                      .dwpsn  file "D:/BM1000/sw/modules/ctrl/src/32b/ctrl.h",line 1753,column 3,is_stmt,isa 0
    1263 000000ef AAC4          MOVL      *+XAR4[0],XAR2        ; [CPU_] |1753| 
    1264                      .dwpsn  file "D:/BM1000/sw/modules/ctrl/src/32b/ctrl.h",line 1701,column 3,is_stmt,isa 0
    1265 000000f0 FF11          ADD       ACC,#129 << 1         ; [CPU_] |1701| 
         000000f1 0081 
    1266 000000f2 8AA9          MOVL      XAR4,ACC              ; [CPU_] |1701| 
    1267 000000f3 0648          MOVL      ACC,*-SP[8]           ; [CPU_] |1701| 
    1268 000000f4 1EC4          MOVL      *+XAR4[0],ACC         ; [CPU_] |1701| 
    1269                      .dwpsn  file "D:/BM1000/sw/modules/ctrl/src/32b/ctrl.h",line 1740,column 3,is_stmt,isa 0
    1270 000000f5 B2A9          MOVL      ACC,XAR1              ; [CPU_] |1740| 
    1271 000000f6 FF12          ADD       ACC,#65 << 2          ; [CPU_] |1740| 
         000000f7 0041 
    1272 000000f8 8AA9          MOVL      XAR4,ACC              ; [CPU_] |1740| 
    1273                      .dwpsn  file "D:/BM1000/sw/modules/ctrl/src/32b/ctrl.h",line 1374,column 3,is_stmt,isa 0
    1274 000000f9 D0F6          MOVB      XAR0,#246             ; [CPU_] |1374| 
    1275                      .dwpsn  file "D:/BM1000/sw/modules/ctrl/src/32b/ctrl.h",line 1740,column 3,is_stmt,isa 0
TMS320C2000 Assembler PC v15.12.3 Mon Sep 25 12:51:19 2017

Tools Copyright (c) 1996-2015 Texas Instruments Incorporated
C:\Users\wmj\AppData\Local\Temp\0412810                              PAGE   25

    1276 000000fa 0646          MOVL      ACC,*-SP[6]           ; [CPU_] |1740| 
    1277 000000fb 1EC4          MOVL      *+XAR4[0],ACC         ; [CPU_] |1740| 
    1278                      .dwpsn  file "D:/BM1000/sw/modules/ctrl/src/32b/ctrl.h",line 1374,column 3,is_stmt,isa 0
    1279 000000fc 06C3          MOVL      ACC,*+XAR3[0]         ; [CPU_] |1374| 
    1280 000000fd 1E91          MOVL      *+XAR1[AR0],ACC       ; [CPU_] |1374| 
    1281                      .dwpsn  file "D:/BM1000/sw/modules/ctrl/src/32b/ctrl.h",line 1375,column 3,is_stmt,isa 0
    1282 000000fe D0F8          MOVB      XAR0,#248             ; [CPU_] |1375| 
    1283 000000ff 06D3          MOVL      ACC,*+XAR3[2]         ; [CPU_] |1375| 
    1284 00000100 1E91          MOVL      *+XAR1[AR0],ACC       ; [CPU_] |1375| 
    1285                      .dwpsn  file "D:/BM1000/sw/modules/ctrl/src/32b/ctrl.h",line 1916,column 3,is_stmt,isa 0
    1286 00000101 8A44          MOVL      XAR4,*-SP[4]          ; [CPU_] |1916| 
    1287 00000102 D0FA          MOVB      XAR0,#250             ; [CPU_] |1916| 
    1288 00000103 06C4          MOVL      ACC,*+XAR4[0]         ; [CPU_] |1916| 
    1289 00000104 1E91          MOVL      *+XAR1[AR0],ACC       ; [CPU_] |1916| 
    1290                      .dwpsn  file "D:/BM1000/sw/modules/ctrl/src/32b/ctrl.h",line 1917,column 3,is_stmt,isa 0
    1291 00000105 D0FC          MOVB      XAR0,#252             ; [CPU_] |1917| 
    1292 00000106 06D4          MOVL      ACC,*+XAR4[2]         ; [CPU_] |1917| 
    1293 00000107 1E91          MOVL      *+XAR1[AR0],ACC       ; [CPU_] |1917| 
    1294                      .dwpsn  file "D:/BM1000/sw/modules/ctrl/src/32b/ctrl.h",line 1288,column 3,is_stmt,isa 0
    1295 00000108 D0F4          MOVB      XAR0,#244             ; [CPU_] |1288| 
    1296 00000109 9242          MOV       AL,*-SP[2]            ; [CPU_] |1288| 
    1297 0000010a 9691          MOV       *+XAR1[AR0],AL        ; [CPU_] |1288| 
    1298                      .dwpsn  file "D:/BM1000/sw/modules/ctrl/src/32b/ctrl.h",line 1231,column 3,is_stmt,isa 0
    1299 0000010b B2A9          MOVL      ACC,XAR1              ; [CPU_] |1231| 
    1300 0000010c FF11          ADD       ACC,#131 << 1         ; [CPU_] |1231| 
         0000010d 0083 
    1301 0000010e 8AA9          MOVL      XAR4,ACC              ; [CPU_] |1231| 
    1302 0000010f 9241          MOV       AL,*-SP[1]            ; [CPU_] |1231| 
    1303 00000110 96C4          MOV       *+XAR4[0],AL          ; [CPU_] |1231| 
    1304 00000111 FE8A          SUBB      SP,#10                ; [CPU_U] 
    1305                      .dwcfi  cfa_offset, -8
    1306 00000112 82BE          MOVL      XAR3,*--SP            ; [CPU_] 
    1307                      .dwcfi  cfa_offset, -6
    1308                      .dwcfi  restore_reg, 11
    1309 00000113 86BE          MOVL      XAR2,*--SP            ; [CPU_] 
    1310                      .dwcfi  cfa_offset, -4
    1311                      .dwcfi  restore_reg, 9
    1312 00000114 8BBE          MOVL      XAR1,*--SP            ; [CPU_] 
    1313                      .dwcfi  cfa_offset, -2
    1314                      .dwcfi  restore_reg, 7
    1315              $C$DW$142       .dwtag  DW_TAG_TI_branch
    1316                      .dwattr $C$DW$142, DW_AT_low_pc(0x00)
    1317                      .dwattr $C$DW$142, DW_AT_TI_return
    1318              
    1319 00000115 0006          LRETR     ; [CPU_] 
    1320                      ; return occurs ; [] 
    1321                      .dwattr $C$DW$119, DW_AT_TI_end_file("D:/BM1000/sw/modules/ctrl/src/32b/ctrl.c")
    1322                      .dwattr $C$DW$119, DW_AT_TI_end_line(0x278)
    1323                      .dwattr $C$DW$119, DW_AT_TI_end_column(0x01)
    1324                      .dwendentry
    1325                      .dwendtag $C$DW$119
    1326              
    1327 00000116               .sect   ".text"
    1328                      .clink
    1329                      .global _CTRL_setupClarke_V
TMS320C2000 Assembler PC v15.12.3 Mon Sep 25 12:51:19 2017

Tools Copyright (c) 1996-2015 Texas Instruments Incorporated
C:\Users\wmj\AppData\Local\Temp\0412810                              PAGE   26

    1330              
    1331              $C$DW$143       .dwtag  DW_TAG_subprogram
    1332                      .dwattr $C$DW$143, DW_AT_name("CTRL_setupClarke_V")
    1333                      .dwattr $C$DW$143, DW_AT_low_pc(_CTRL_setupClarke_V)
    1334                      .dwattr $C$DW$143, DW_AT_high_pc(0x00)
    1335                      .dwattr $C$DW$143, DW_AT_TI_symbol_name("_CTRL_setupClarke_V")
    1336                      .dwattr $C$DW$143, DW_AT_external
    1337                      .dwattr $C$DW$143, DW_AT_TI_begin_file("D:/BM1000/sw/modules/ctrl/src/32b/ctrl.c")
    1338                      .dwattr $C$DW$143, DW_AT_TI_begin_line(0x227)
    1339                      .dwattr $C$DW$143, DW_AT_TI_begin_column(0x06)
    1340                      .dwattr $C$DW$143, DW_AT_TI_max_frame_size(-2)
    1341                      .dwpsn  file "D:/BM1000/sw/modules/ctrl/src/32b/ctrl.c",line 552,column 1,is_stmt,address _CTRL_setup
    1342              
    1343                      .dwfde $C$DW$CIE, _CTRL_setupClarke_V
    1344              $C$DW$144       .dwtag  DW_TAG_formal_parameter
    1345                      .dwattr $C$DW$144, DW_AT_name("handle")
    1346                      .dwattr $C$DW$144, DW_AT_TI_symbol_name("_handle")
    1347                      .dwattr $C$DW$144, DW_AT_type(*$C$DW$T$173)
    1348                      .dwattr $C$DW$144, DW_AT_location[DW_OP_reg12]
    1349              
    1350              $C$DW$145       .dwtag  DW_TAG_formal_parameter
    1351                      .dwattr $C$DW$145, DW_AT_name("numVoltageSensors")
    1352                      .dwattr $C$DW$145, DW_AT_TI_symbol_name("_numVoltageSensors")
    1353                      .dwattr $C$DW$145, DW_AT_type(*$C$DW$T$36)
    1354                      .dwattr $C$DW$145, DW_AT_location[DW_OP_reg0]
    1355              
    1356              
    1357              ;***************************************************************
    1358              ;* FNAME: _CTRL_setupClarke_V           FR SIZE:   0           *
    1359              ;*                                                             *
    1360              ;* FUNCTION ENVIRONMENT                                        *
    1361              ;*                                                             *
    1362              ;* FUNCTION PROPERTIES                                         *
    1363              ;*                            0 Parameter,  0 Auto,  0 SOE     *
    1364              ;***************************************************************
    1365              
    1366              _CTRL_setupClarke_V:
    1367              ;* AR5   assigned to _obj
    1368              $C$DW$146       .dwtag  DW_TAG_variable
    1369                      .dwattr $C$DW$146, DW_AT_name("obj")
    1370                      .dwattr $C$DW$146, DW_AT_TI_symbol_name("_obj")
    1371                      .dwattr $C$DW$146, DW_AT_type(*$C$DW$T$190)
    1372                      .dwattr $C$DW$146, DW_AT_location[DW_OP_reg14]
    1373              
    1374              ;* PL    assigned to _beta_sf
    1375              $C$DW$147       .dwtag  DW_TAG_variable
    1376                      .dwattr $C$DW$147, DW_AT_name("beta_sf")
    1377                      .dwattr $C$DW$147, DW_AT_TI_symbol_name("_beta_sf")
    1378                      .dwattr $C$DW$147, DW_AT_type(*$C$DW$T$32)
    1379                      .dwattr $C$DW$147, DW_AT_location[DW_OP_reg2]
    1380              
    1381              ;* AR6   assigned to _alpha_sf
    1382              $C$DW$148       .dwtag  DW_TAG_variable
    1383                      .dwattr $C$DW$148, DW_AT_name("alpha_sf")
    1384                      .dwattr $C$DW$148, DW_AT_TI_symbol_name("_alpha_sf")
TMS320C2000 Assembler PC v15.12.3 Mon Sep 25 12:51:19 2017

Tools Copyright (c) 1996-2015 Texas Instruments Incorporated
C:\Users\wmj\AppData\Local\Temp\0412810                              PAGE   27

    1385                      .dwattr $C$DW$148, DW_AT_type(*$C$DW$T$32)
    1386                      .dwattr $C$DW$148, DW_AT_location[DW_OP_reg16]
    1387              
    1388              ;* AL    assigned to _numVoltageSensors
    1389              $C$DW$149       .dwtag  DW_TAG_variable
    1390                      .dwattr $C$DW$149, DW_AT_name("numVoltageSensors")
    1391                      .dwattr $C$DW$149, DW_AT_TI_symbol_name("_numVoltageSensors")
    1392                      .dwattr $C$DW$149, DW_AT_type(*$C$DW$T$242)
    1393                      .dwattr $C$DW$149, DW_AT_location[DW_OP_reg0]
    1394              
    1395              ;* AR4   assigned to _handle
    1396              $C$DW$150       .dwtag  DW_TAG_variable
    1397                      .dwattr $C$DW$150, DW_AT_name("handle")
    1398                      .dwattr $C$DW$150, DW_AT_TI_symbol_name("_handle")
    1399                      .dwattr $C$DW$150, DW_AT_type(*$C$DW$T$192)
    1400                      .dwattr $C$DW$150, DW_AT_location[DW_OP_reg12]
    1401              
    1402                      .dwcfi  cfa_offset, -2
    1403                      .dwcfi  save_reg_to_mem, 26, 0
    1404                      .dwpsn  file "D:/BM1000/sw/modules/ctrl/src/32b/ctrl.c",line 558,column 3,is_stmt,isa 0
    1405 00000116 5203          CMPB      AL,#3                 ; [CPU_] |558| 
    1406 00000117 6104          B         $C$L15,EQ             ; [CPU_] |558| 
    1407                      ; branchcc occurs ; [] |558| 
    1408                      .dwpsn  file "D:/BM1000/sw/modules/ctrl/src/32b/ctrl.c",line 565,column 7,is_stmt,isa 0
    1409 00000118 BE00          MOVB      XAR6,#0               ; [CPU_] |565| 
    1410                      .dwpsn  file "D:/BM1000/sw/modules/ctrl/src/32b/ctrl.c",line 566,column 7,is_stmt,isa 0
    1411 00000119 3100          MOV       P,#0                  ; [CPU_] |566| 
    1412 0000011a 6F0A          B         $C$L16,UNC            ; [CPU_] |566| 
    1413                      ; branch occurs ; [] |566| 
    1414 0000011b       $C$L15:    
    1415                      .dwpsn  file "D:/BM1000/sw/modules/ctrl/src/32b/ctrl.c",line 560,column 7,is_stmt,isa 0
    1416 0000011b 28AB          MOV       PL,#21845             ; [CPU_] |560| 
         0000011c 5555 
    1417 0000011d 28AA          MOV       PH,#85                ; [CPU_] |560| 
         0000011e 0055 
    1418 0000011f A9A6          MOVL      XAR6,P                ; [CPU_] |560| 
    1419                      .dwpsn  file "D:/BM1000/sw/modules/ctrl/src/32b/ctrl.c",line 561,column 7,is_stmt,isa 0
    1420 00000120 28AB          MOV       PL,#52538             ; [CPU_] |561| 
         00000121 CD3A 
    1421 00000122 28AA          MOV       PH,#147               ; [CPU_] |561| 
         00000123 0093 
    1422 00000124       $C$L16:    
    1423                      .dwpsn  file "D:/BM1000/sw/modules/clarke/src/32b/clarke.h",line 182,column 19,is_stmt,isa 0
    1424 00000124 D010          MOVB      XAR0,#16              ; [CPU_] |182| 
    1425 00000125 8394          MOVL      XAR5,*+XAR4[AR0]      ; [CPU_] |182| 
    1426                      .dwpsn  file "D:/BM1000/sw/modules/clarke/src/32b/clarke.h",line 170,column 3,is_stmt,isa 0
    1427 00000126 D010          MOVB      XAR0,#16              ; [CPU_] |170| 
    1428                      .dwpsn  file "D:/BM1000/sw/modules/clarke/src/32b/clarke.h",line 185,column 3,is_stmt,isa 0
    1429 00000127 C2C5          MOVL      *+XAR5[0],XAR6        ; [CPU_] |185| 
    1430                      .dwpsn  file "D:/BM1000/sw/modules/clarke/src/32b/clarke.h",line 186,column 3,is_stmt,isa 0
    1431 00000128 A9D5          MOVL      *+XAR5[2],P           ; [CPU_] |186| 
    1432                      .dwpsn  file "D:/BM1000/sw/modules/clarke/src/32b/clarke.h",line 170,column 3,is_stmt,isa 0
    1433 00000129 8A94          MOVL      XAR4,*+XAR4[AR0]      ; [CPU_] |170| 
    1434 0000012a 96E4          MOV       *+XAR4[4],AL          ; [CPU_] |170| 
    1435              $C$DW$151       .dwtag  DW_TAG_TI_branch
TMS320C2000 Assembler PC v15.12.3 Mon Sep 25 12:51:19 2017

Tools Copyright (c) 1996-2015 Texas Instruments Incorporated
C:\Users\wmj\AppData\Local\Temp\0412810                              PAGE   28

    1436                      .dwattr $C$DW$151, DW_AT_low_pc(0x00)
    1437                      .dwattr $C$DW$151, DW_AT_TI_return
    1438              
    1439 0000012b 0006          LRETR     ; [CPU_] 
    1440                      ; return occurs ; [] 
    1441                      .dwattr $C$DW$143, DW_AT_TI_end_file("D:/BM1000/sw/modules/ctrl/src/32b/ctrl.c")
    1442                      .dwattr $C$DW$143, DW_AT_TI_end_line(0x23e)
    1443                      .dwattr $C$DW$143, DW_AT_TI_end_column(0x01)
    1444                      .dwendentry
    1445                      .dwendtag $C$DW$143
    1446              
    1447 0000012c               .sect   ".text"
    1448                      .clink
    1449                      .global _CTRL_setupClarke_I
    1450              
    1451              $C$DW$152       .dwtag  DW_TAG_subprogram
    1452                      .dwattr $C$DW$152, DW_AT_name("CTRL_setupClarke_I")
    1453                      .dwattr $C$DW$152, DW_AT_low_pc(_CTRL_setupClarke_I)
    1454                      .dwattr $C$DW$152, DW_AT_high_pc(0x00)
    1455                      .dwattr $C$DW$152, DW_AT_TI_symbol_name("_CTRL_setupClarke_I")
    1456                      .dwattr $C$DW$152, DW_AT_external
    1457                      .dwattr $C$DW$152, DW_AT_TI_begin_file("D:/BM1000/sw/modules/ctrl/src/32b/ctrl.c")
    1458                      .dwattr $C$DW$152, DW_AT_TI_begin_line(0x208)
    1459                      .dwattr $C$DW$152, DW_AT_TI_begin_column(0x06)
    1460                      .dwattr $C$DW$152, DW_AT_TI_max_frame_size(-2)
    1461                      .dwpsn  file "D:/BM1000/sw/modules/ctrl/src/32b/ctrl.c",line 521,column 1,is_stmt,address _CTRL_setup
    1462              
    1463                      .dwfde $C$DW$CIE, _CTRL_setupClarke_I
    1464              $C$DW$153       .dwtag  DW_TAG_formal_parameter
    1465                      .dwattr $C$DW$153, DW_AT_name("handle")
    1466                      .dwattr $C$DW$153, DW_AT_TI_symbol_name("_handle")
    1467                      .dwattr $C$DW$153, DW_AT_type(*$C$DW$T$173)
    1468                      .dwattr $C$DW$153, DW_AT_location[DW_OP_reg12]
    1469              
    1470              $C$DW$154       .dwtag  DW_TAG_formal_parameter
    1471                      .dwattr $C$DW$154, DW_AT_name("numCurrentSensors")
    1472                      .dwattr $C$DW$154, DW_AT_TI_symbol_name("_numCurrentSensors")
    1473                      .dwattr $C$DW$154, DW_AT_type(*$C$DW$T$36)
    1474                      .dwattr $C$DW$154, DW_AT_location[DW_OP_reg0]
    1475              
    1476              
    1477              ;***************************************************************
    1478              ;* FNAME: _CTRL_setupClarke_I           FR SIZE:   0           *
    1479              ;*                                                             *
    1480              ;* FUNCTION ENVIRONMENT                                        *
    1481              ;*                                                             *
    1482              ;* FUNCTION PROPERTIES                                         *
    1483              ;*                            0 Parameter,  0 Auto,  0 SOE     *
    1484              ;***************************************************************
    1485              
    1486              _CTRL_setupClarke_I:
    1487              ;* AR5   assigned to _obj
    1488              $C$DW$155       .dwtag  DW_TAG_variable
    1489                      .dwattr $C$DW$155, DW_AT_name("obj")
    1490                      .dwattr $C$DW$155, DW_AT_TI_symbol_name("_obj")
TMS320C2000 Assembler PC v15.12.3 Mon Sep 25 12:51:19 2017

Tools Copyright (c) 1996-2015 Texas Instruments Incorporated
C:\Users\wmj\AppData\Local\Temp\0412810                              PAGE   29

    1491                      .dwattr $C$DW$155, DW_AT_type(*$C$DW$T$190)
    1492                      .dwattr $C$DW$155, DW_AT_location[DW_OP_reg14]
    1493              
    1494              ;* PL    assigned to _beta_sf
    1495              $C$DW$156       .dwtag  DW_TAG_variable
    1496                      .dwattr $C$DW$156, DW_AT_name("beta_sf")
    1497                      .dwattr $C$DW$156, DW_AT_TI_symbol_name("_beta_sf")
    1498                      .dwattr $C$DW$156, DW_AT_type(*$C$DW$T$32)
    1499                      .dwattr $C$DW$156, DW_AT_location[DW_OP_reg2]
    1500              
    1501              ;* AR6   assigned to _alpha_sf
    1502              $C$DW$157       .dwtag  DW_TAG_variable
    1503                      .dwattr $C$DW$157, DW_AT_name("alpha_sf")
    1504                      .dwattr $C$DW$157, DW_AT_TI_symbol_name("_alpha_sf")
    1505                      .dwattr $C$DW$157, DW_AT_type(*$C$DW$T$32)
    1506                      .dwattr $C$DW$157, DW_AT_location[DW_OP_reg16]
    1507              
    1508              ;* AL    assigned to _numCurrentSensors
    1509              $C$DW$158       .dwtag  DW_TAG_variable
    1510                      .dwattr $C$DW$158, DW_AT_name("numCurrentSensors")
    1511                      .dwattr $C$DW$158, DW_AT_TI_symbol_name("_numCurrentSensors")
    1512                      .dwattr $C$DW$158, DW_AT_type(*$C$DW$T$242)
    1513                      .dwattr $C$DW$158, DW_AT_location[DW_OP_reg0]
    1514              
    1515              ;* AR4   assigned to _handle
    1516              $C$DW$159       .dwtag  DW_TAG_variable
    1517                      .dwattr $C$DW$159, DW_AT_name("handle")
    1518                      .dwattr $C$DW$159, DW_AT_TI_symbol_name("_handle")
    1519                      .dwattr $C$DW$159, DW_AT_type(*$C$DW$T$192)
    1520                      .dwattr $C$DW$159, DW_AT_location[DW_OP_reg12]
    1521              
    1522                      .dwcfi  cfa_offset, -2
    1523                      .dwcfi  save_reg_to_mem, 26, 0
    1524                      .dwpsn  file "D:/BM1000/sw/modules/ctrl/src/32b/ctrl.c",line 527,column 3,is_stmt,isa 0
    1525 0000012c 5203          CMPB      AL,#3                 ; [CPU_] |527| 
    1526 0000012d 610A          B         $C$L18,EQ             ; [CPU_] |527| 
    1527                      ; branchcc occurs ; [] |527| 
    1528                      .dwpsn  file "D:/BM1000/sw/modules/ctrl/src/32b/ctrl.c",line 532,column 8,is_stmt,isa 0
    1529 0000012e 5202          CMPB      AL,#2                 ; [CPU_] |532| 
    1530 0000012f 6104          B         $C$L17,EQ             ; [CPU_] |532| 
    1531                      ; branchcc occurs ; [] |532| 
    1532                      .dwpsn  file "D:/BM1000/sw/modules/ctrl/src/32b/ctrl.c",line 539,column 7,is_stmt,isa 0
    1533 00000130 BE00          MOVB      XAR6,#0               ; [CPU_] |539| 
    1534                      .dwpsn  file "D:/BM1000/sw/modules/ctrl/src/32b/ctrl.c",line 540,column 7,is_stmt,isa 0
    1535 00000131 3100          MOV       P,#0                  ; [CPU_] |540| 
    1536 00000132 6F0E          B         $C$L20,UNC            ; [CPU_] |540| 
    1537                      ; branch occurs ; [] |540| 
    1538 00000133       $C$L17:    
    1539                      .dwpsn  file "D:/BM1000/sw/modules/ctrl/src/32b/ctrl.c",line 534,column 7,is_stmt,isa 0
    1540 00000133 2BAB          MOV       PL,#0                 ; [CPU_] |534| 
    1541 00000134 28AA          MOV       PH,#256               ; [CPU_] |534| 
         00000135 0100 
    1542                      .dwpsn  file "D:/BM1000/sw/modules/ctrl/src/32b/ctrl.c",line 536,column 5,is_stmt,isa 0
    1543 00000136 6F05          B         $C$L19,UNC            ; [CPU_] |536| 
    1544                      ; branch occurs ; [] |536| 
TMS320C2000 Assembler PC v15.12.3 Mon Sep 25 12:51:19 2017

Tools Copyright (c) 1996-2015 Texas Instruments Incorporated
C:\Users\wmj\AppData\Local\Temp\0412810                              PAGE   30

    1545 00000137       $C$L18:    
    1546                      .dwpsn  file "D:/BM1000/sw/modules/ctrl/src/32b/ctrl.c",line 529,column 7,is_stmt,isa 0
    1547 00000137 28AB          MOV       PL,#21845             ; [CPU_] |529| 
         00000138 5555 
    1548 00000139 28AA          MOV       PH,#85                ; [CPU_] |529| 
         0000013a 0055 
    1549 0000013b       $C$L19:    
    1550 0000013b A9A6          MOVL      XAR6,P                ; [CPU_] |529| 
    1551                      .dwpsn  file "D:/BM1000/sw/modules/ctrl/src/32b/ctrl.c",line 530,column 7,is_stmt,isa 0
    1552 0000013c 28AB          MOV       PL,#52538             ; [CPU_] |530| 
         0000013d CD3A 
    1553 0000013e 28AA          MOV       PH,#147               ; [CPU_] |530| 
         0000013f 0093 
    1554 00000140       $C$L20:    
    1555                      .dwpsn  file "D:/BM1000/sw/modules/clarke/src/32b/clarke.h",line 182,column 19,is_stmt,isa 0
    1556 00000140 D008          MOVB      XAR0,#8               ; [CPU_] |182| 
    1557 00000141 8394          MOVL      XAR5,*+XAR4[AR0]      ; [CPU_] |182| 
    1558                      .dwpsn  file "D:/BM1000/sw/modules/clarke/src/32b/clarke.h",line 170,column 3,is_stmt,isa 0
    1559 00000142 D008          MOVB      XAR0,#8               ; [CPU_] |170| 
    1560                      .dwpsn  file "D:/BM1000/sw/modules/clarke/src/32b/clarke.h",line 185,column 3,is_stmt,isa 0
    1561 00000143 C2C5          MOVL      *+XAR5[0],XAR6        ; [CPU_] |185| 
    1562                      .dwpsn  file "D:/BM1000/sw/modules/clarke/src/32b/clarke.h",line 186,column 3,is_stmt,isa 0
    1563 00000144 A9D5          MOVL      *+XAR5[2],P           ; [CPU_] |186| 
    1564                      .dwpsn  file "D:/BM1000/sw/modules/clarke/src/32b/clarke.h",line 170,column 3,is_stmt,isa 0
    1565 00000145 8A94          MOVL      XAR4,*+XAR4[AR0]      ; [CPU_] |170| 
    1566 00000146 96E4          MOV       *+XAR4[4],AL          ; [CPU_] |170| 
    1567              $C$DW$160       .dwtag  DW_TAG_TI_branch
    1568                      .dwattr $C$DW$160, DW_AT_low_pc(0x00)
    1569                      .dwattr $C$DW$160, DW_AT_TI_return
    1570              
    1571 00000147 0006          LRETR     ; [CPU_] 
    1572                      ; return occurs ; [] 
    1573                      .dwattr $C$DW$152, DW_AT_TI_end_file("D:/BM1000/sw/modules/ctrl/src/32b/ctrl.c")
    1574                      .dwattr $C$DW$152, DW_AT_TI_end_line(0x224)
    1575                      .dwattr $C$DW$152, DW_AT_TI_end_column(0x01)
    1576                      .dwendentry
    1577                      .dwendtag $C$DW$152
    1578              
    1579 00000000               .sect   "ramfuncs"
    1580                      .clink
    1581                      .global _CTRL_setup
    1582              
    1583              $C$DW$161       .dwtag  DW_TAG_subprogram
    1584                      .dwattr $C$DW$161, DW_AT_name("CTRL_setup")
    1585                      .dwattr $C$DW$161, DW_AT_low_pc(_CTRL_setup)
    1586                      .dwattr $C$DW$161, DW_AT_high_pc(0x00)
    1587                      .dwattr $C$DW$161, DW_AT_TI_symbol_name("_CTRL_setup")
    1588                      .dwattr $C$DW$161, DW_AT_external
    1589                      .dwattr $C$DW$161, DW_AT_TI_begin_file("D:/BM1000/sw/modules/ctrl/src/32b/ctrl.c")
    1590                      .dwattr $C$DW$161, DW_AT_TI_begin_line(0x1f0)
    1591                      .dwattr $C$DW$161, DW_AT_TI_begin_column(0x06)
    1592                      .dwattr $C$DW$161, DW_AT_TI_max_frame_size(-2)
    1593                      .dwpsn  file "D:/BM1000/sw/modules/ctrl/src/32b/ctrl.c",line 497,column 1,is_stmt,address _CTRL_setup
    1594              
    1595                      .dwfde $C$DW$CIE, _CTRL_setup
TMS320C2000 Assembler PC v15.12.3 Mon Sep 25 12:51:19 2017

Tools Copyright (c) 1996-2015 Texas Instruments Incorporated
C:\Users\wmj\AppData\Local\Temp\0412810                              PAGE   31

    1596              $C$DW$162       .dwtag  DW_TAG_formal_parameter
    1597                      .dwattr $C$DW$162, DW_AT_name("handle")
    1598                      .dwattr $C$DW$162, DW_AT_TI_symbol_name("_handle")
    1599                      .dwattr $C$DW$162, DW_AT_type(*$C$DW$T$173)
    1600                      .dwattr $C$DW$162, DW_AT_location[DW_OP_reg12]
    1601              
    1602              
    1603              ;***************************************************************
    1604              ;* FNAME: _CTRL_setup                   FR SIZE:   0           *
    1605              ;*                                                             *
    1606              ;* FUNCTION ENVIRONMENT                                        *
    1607              ;*                                                             *
    1608              ;* FUNCTION PROPERTIES                                         *
    1609              ;*                            0 Parameter,  0 Auto,  0 SOE     *
    1610              ;***************************************************************
    1611              
    1612              _CTRL_setup:
    1613              ;* AR4   assigned to _handle
    1614              $C$DW$163       .dwtag  DW_TAG_variable
    1615                      .dwattr $C$DW$163, DW_AT_name("handle")
    1616                      .dwattr $C$DW$163, DW_AT_TI_symbol_name("_handle")
    1617                      .dwattr $C$DW$163, DW_AT_type(*$C$DW$T$192)
    1618                      .dwattr $C$DW$163, DW_AT_location[DW_OP_reg12]
    1619              
    1620                      .dwcfi  cfa_offset, -2
    1621                      .dwcfi  save_reg_to_mem, 26, 0
    1622                      .dwpsn  file "D:/BM1000/sw/modules/ctrl/src/32b/ctrl.c",line 505,column 3,is_stmt,isa 0
    1623 00000000 D09F          MOVB      XAR0,#159             ; [CPU_] |505| 
    1624 00000001 9294          MOV       AL,*+XAR4[AR0]        ; [CPU_] |505| 
    1625 00000002 D0EF          MOVB      XAR0,#239             ; [CPU_] |505| 
    1626 00000003 5494          CMP       AL,*+XAR4[AR0]        ; [CPU_] |505| 
    1627 00000004 6605          B         $C$L21,HI             ; [CPU_] |505| 
    1628                      ; branchcc occurs ; [] |505| 
    1629                      .dwpsn  file "D:/BM1000/sw/modules/ctrl/src/32b/ctrl.h",line 1123,column 3,is_stmt,isa 0
    1630 00000005 D0EF          MOVB      XAR0,#239             ; [CPU_] |1123| 
    1631 00000006 2B94          MOV       *+XAR4[AR0],#0        ; [CPU_] |1123| 
    1632                      .dwpsn  file "D:/BM1000/sw/modules/ctrl/src/32b/ctrl.c",line 513,column 7,is_stmt,isa 0
    1633              $C$DW$164       .dwtag  DW_TAG_TI_branch
    1634                      .dwattr $C$DW$164, DW_AT_low_pc(0x00)
    1635                      .dwattr $C$DW$164, DW_AT_name("_CTRL_runTraj")
    1636                      .dwattr $C$DW$164, DW_AT_TI_call
    1637              
    1638 00000007 7640!         LCR       #_CTRL_runTraj        ; [CPU_] |513| 
         00000008 0000 
    1639                      ; call occurs [#_CTRL_runTraj] ; [] |513| 
    1640              $C$L21:    
    1641              $C$DW$165       .dwtag  DW_TAG_TI_branch
    1642                      .dwattr $C$DW$165, DW_AT_low_pc(0x00)
    1643                      .dwattr $C$DW$165, DW_AT_TI_return
    1644              
    1645 00000009 0006          LRETR     ; [CPU_] 
    1646                      ; return occurs ; [] 
    1647                      .dwattr $C$DW$161, DW_AT_TI_end_file("D:/BM1000/sw/modules/ctrl/src/32b/ctrl.c")
    1648                      .dwattr $C$DW$161, DW_AT_TI_end_line(0x205)
    1649                      .dwattr $C$DW$161, DW_AT_TI_end_column(0x01)
TMS320C2000 Assembler PC v15.12.3 Mon Sep 25 12:51:19 2017

Tools Copyright (c) 1996-2015 Texas Instruments Incorporated
C:\Users\wmj\AppData\Local\Temp\0412810                              PAGE   32

    1650                      .dwendentry
    1651                      .dwendtag $C$DW$161
    1652              
    1653 00000148               .sect   ".text"
    1654                      .clink
    1655                      .global _CTRL_setWaitTimes
    1656              
    1657              $C$DW$166       .dwtag  DW_TAG_subprogram
    1658                      .dwattr $C$DW$166, DW_AT_name("CTRL_setWaitTimes")
    1659                      .dwattr $C$DW$166, DW_AT_low_pc(_CTRL_setWaitTimes)
    1660                      .dwattr $C$DW$166, DW_AT_high_pc(0x00)
    1661                      .dwattr $C$DW$166, DW_AT_TI_symbol_name("_CTRL_setWaitTimes")
    1662                      .dwattr $C$DW$166, DW_AT_external
    1663                      .dwattr $C$DW$166, DW_AT_TI_begin_file("D:/BM1000/sw/modules/ctrl/src/32b/ctrl.c")
    1664                      .dwattr $C$DW$166, DW_AT_TI_begin_line(0x27b)
    1665                      .dwattr $C$DW$166, DW_AT_TI_begin_column(0x06)
    1666                      .dwattr $C$DW$166, DW_AT_TI_max_frame_size(-2)
    1667                      .dwpsn  file "D:/BM1000/sw/modules/ctrl/src/32b/ctrl.c",line 636,column 1,is_stmt,address _CTRL_setWa
    1668              
    1669                      .dwfde $C$DW$CIE, _CTRL_setWaitTimes
    1670              $C$DW$167       .dwtag  DW_TAG_formal_parameter
    1671                      .dwattr $C$DW$167, DW_AT_name("handle")
    1672                      .dwattr $C$DW$167, DW_AT_TI_symbol_name("_handle")
    1673                      .dwattr $C$DW$167, DW_AT_type(*$C$DW$T$173)
    1674                      .dwattr $C$DW$167, DW_AT_location[DW_OP_reg12]
    1675              
    1676              $C$DW$168       .dwtag  DW_TAG_formal_parameter
    1677                      .dwattr $C$DW$168, DW_AT_name("pWaitTimes")
    1678                      .dwattr $C$DW$168, DW_AT_TI_symbol_name("_pWaitTimes")
    1679                      .dwattr $C$DW$168, DW_AT_type(*$C$DW$T$302)
    1680                      .dwattr $C$DW$168, DW_AT_location[DW_OP_reg14]
    1681              
    1682              
    1683              ;***************************************************************
    1684              ;* FNAME: _CTRL_setWaitTimes            FR SIZE:   0           *
    1685              ;*                                                             *
    1686              ;* FUNCTION ENVIRONMENT                                        *
    1687              ;*                                                             *
    1688              ;* FUNCTION PROPERTIES                                         *
    1689              ;*                            0 Parameter,  0 Auto,  0 SOE     *
    1690              ;***************************************************************
    1691              
    1692              _CTRL_setWaitTimes:
    1693              ;* AR4   assigned to _handle
    1694              $C$DW$169       .dwtag  DW_TAG_variable
    1695                      .dwattr $C$DW$169, DW_AT_name("handle")
    1696                      .dwattr $C$DW$169, DW_AT_TI_symbol_name("_handle")
    1697                      .dwattr $C$DW$169, DW_AT_type(*$C$DW$T$192)
    1698                      .dwattr $C$DW$169, DW_AT_location[DW_OP_reg12]
    1699              
    1700              ;* AR4   assigned to $O$U11
    1701              ;* AR5   assigned to $O$U7
    1702                      .dwcfi  cfa_offset, -2
    1703                      .dwcfi  save_reg_to_mem, 26, 0
    1704 00000148 A8A9          MOVL      ACC,XAR4              ; [CPU_] 
TMS320C2000 Assembler PC v15.12.3 Mon Sep 25 12:51:19 2017

Tools Copyright (c) 1996-2015 Texas Instruments Incorporated
C:\Users\wmj\AppData\Local\Temp\0412810                              PAGE   33

    1705 00000149 0992          ADDB      ACC,#146              ; [CPU_] 
    1706 0000014a 8AA9          MOVL      XAR4,ACC              ; [CPU_] 
    1707 0000014b BE03          MOVB      XAR6,#3               ; [CPU_] 
    1708 0000014c       $C$L22:    
    1709                      .dwpsn  file "D:/BM1000/sw/modules/ctrl/src/32b/ctrl.c",line 642,column 7,is_stmt,isa 0
    1710 0000014c 0685          MOVL      ACC,*XAR5++           ; [CPU_] |642| 
    1711 0000014d 1E84          MOVL      *XAR4++,ACC           ; [CPU_] |642| 
    1712                      .dwpsn  file "D:/BM1000/sw/modules/ctrl/src/32b/ctrl.c",line 640,column 18,is_stmt,isa 0
    1713 0000014e 000E          BANZ      $C$L22,AR6--          ; [CPU_] |640| 
         0000014f FFFE 
    1714                      ; branchcc occurs ; [] |640| 
    1715              $C$DW$170       .dwtag  DW_TAG_TI_branch
    1716                      .dwattr $C$DW$170, DW_AT_low_pc(0x00)
    1717                      .dwattr $C$DW$170, DW_AT_TI_return
    1718              
    1719 00000150 0006          LRETR     ; [CPU_] 
    1720                      ; return occurs ; [] 
    1721                      .dwattr $C$DW$166, DW_AT_TI_end_file("D:/BM1000/sw/modules/ctrl/src/32b/ctrl.c")
    1722                      .dwattr $C$DW$166, DW_AT_TI_end_line(0x286)
    1723                      .dwattr $C$DW$166, DW_AT_TI_end_column(0x01)
    1724                      .dwendentry
    1725                      .dwendtag $C$DW$166
    1726              
    1727 00000151               .sect   ".text"
    1728                      .clink
    1729                      .global _CTRL_setSpd_ref_pu
    1730              
    1731              $C$DW$171       .dwtag  DW_TAG_subprogram
    1732                      .dwattr $C$DW$171, DW_AT_name("CTRL_setSpd_ref_pu")
    1733                      .dwattr $C$DW$171, DW_AT_low_pc(_CTRL_setSpd_ref_pu)
    1734                      .dwattr $C$DW$171, DW_AT_high_pc(0x00)
    1735                      .dwattr $C$DW$171, DW_AT_TI_symbol_name("_CTRL_setSpd_ref_pu")
    1736                      .dwattr $C$DW$171, DW_AT_external
    1737                      .dwattr $C$DW$171, DW_AT_TI_begin_file("D:/BM1000/sw/modules/ctrl/src/32b/ctrl.c")
    1738                      .dwattr $C$DW$171, DW_AT_TI_begin_line(0x1d8)
    1739                      .dwattr $C$DW$171, DW_AT_TI_begin_column(0x06)
    1740                      .dwattr $C$DW$171, DW_AT_TI_max_frame_size(-2)
    1741                      .dwpsn  file "D:/BM1000/sw/modules/ctrl/src/32b/ctrl.c",line 473,column 1,is_stmt,address _CTRL_setSp
    1742              
    1743                      .dwfde $C$DW$CIE, _CTRL_setSpd_ref_pu
    1744              $C$DW$172       .dwtag  DW_TAG_formal_parameter
    1745                      .dwattr $C$DW$172, DW_AT_name("handle")
    1746                      .dwattr $C$DW$172, DW_AT_TI_symbol_name("_handle")
    1747                      .dwattr $C$DW$172, DW_AT_type(*$C$DW$T$173)
    1748                      .dwattr $C$DW$172, DW_AT_location[DW_OP_reg12]
    1749              
    1750              $C$DW$173       .dwtag  DW_TAG_formal_parameter
    1751                      .dwattr $C$DW$173, DW_AT_name("spd_ref_pu")
    1752                      .dwattr $C$DW$173, DW_AT_TI_symbol_name("_spd_ref_pu")
    1753                      .dwattr $C$DW$173, DW_AT_type(*$C$DW$T$244)
    1754                      .dwattr $C$DW$173, DW_AT_location[DW_OP_reg0]
    1755              
    1756              
    1757              ;***************************************************************
    1758              ;* FNAME: _CTRL_setSpd_ref_pu           FR SIZE:   0           *
TMS320C2000 Assembler PC v15.12.3 Mon Sep 25 12:51:19 2017

Tools Copyright (c) 1996-2015 Texas Instruments Incorporated
C:\Users\wmj\AppData\Local\Temp\0412810                              PAGE   34

    1759              ;*                                                             *
    1760              ;* FUNCTION ENVIRONMENT                                        *
    1761              ;*                                                             *
    1762              ;* FUNCTION PROPERTIES                                         *
    1763              ;*                            0 Parameter,  0 Auto,  0 SOE     *
    1764              ;***************************************************************
    1765              
    1766              _CTRL_setSpd_ref_pu:
    1767              ;* AR4   assigned to _handle
    1768              $C$DW$174       .dwtag  DW_TAG_variable
    1769                      .dwattr $C$DW$174, DW_AT_name("handle")
    1770                      .dwattr $C$DW$174, DW_AT_TI_symbol_name("_handle")
    1771                      .dwattr $C$DW$174, DW_AT_type(*$C$DW$T$192)
    1772                      .dwattr $C$DW$174, DW_AT_location[DW_OP_reg12]
    1773              
    1774              ;* AL    assigned to _spd_ref_pu
    1775              $C$DW$175       .dwtag  DW_TAG_variable
    1776                      .dwattr $C$DW$175, DW_AT_name("spd_ref_pu")
    1777                      .dwattr $C$DW$175, DW_AT_TI_symbol_name("_spd_ref_pu")
    1778                      .dwattr $C$DW$175, DW_AT_type(*$C$DW$T$244)
    1779                      .dwattr $C$DW$175, DW_AT_location[DW_OP_reg0]
    1780              
    1781                      .dwcfi  cfa_offset, -2
    1782                      .dwcfi  save_reg_to_mem, 26, 0
    1783                      .dwpsn  file "D:/BM1000/sw/modules/ctrl/src/32b/ctrl.c",line 476,column 3,is_stmt,isa 0
    1784 00000151 D0E8          MOVB      XAR0,#232             ; [CPU_] |476| 
    1785 00000152 1E94          MOVL      *+XAR4[AR0],ACC       ; [CPU_] |476| 
    1786              $C$DW$176       .dwtag  DW_TAG_TI_branch
    1787                      .dwattr $C$DW$176, DW_AT_low_pc(0x00)
    1788                      .dwattr $C$DW$176, DW_AT_TI_return
    1789              
    1790 00000153 0006          LRETR     ; [CPU_] 
    1791                      ; return occurs ; [] 
    1792                      .dwattr $C$DW$171, DW_AT_TI_end_file("D:/BM1000/sw/modules/ctrl/src/32b/ctrl.c")
    1793                      .dwattr $C$DW$171, DW_AT_TI_end_line(0x1df)
    1794                      .dwattr $C$DW$171, DW_AT_TI_end_column(0x01)
    1795                      .dwendentry
    1796                      .dwendtag $C$DW$171
    1797              
    1798 00000154               .sect   ".text"
    1799                      .clink
    1800                      .global _CTRL_setSpd_ref_krpm
    1801              
    1802              $C$DW$177       .dwtag  DW_TAG_subprogram
    1803                      .dwattr $C$DW$177, DW_AT_name("CTRL_setSpd_ref_krpm")
    1804                      .dwattr $C$DW$177, DW_AT_low_pc(_CTRL_setSpd_ref_krpm)
    1805                      .dwattr $C$DW$177, DW_AT_high_pc(0x00)
    1806                      .dwattr $C$DW$177, DW_AT_TI_symbol_name("_CTRL_setSpd_ref_krpm")
    1807                      .dwattr $C$DW$177, DW_AT_external
    1808                      .dwattr $C$DW$177, DW_AT_TI_begin_file("D:/BM1000/sw/modules/ctrl/src/32b/ctrl.c")
    1809                      .dwattr $C$DW$177, DW_AT_TI_begin_line(0x1e2)
    1810                      .dwattr $C$DW$177, DW_AT_TI_begin_column(0x06)
    1811                      .dwattr $C$DW$177, DW_AT_TI_max_frame_size(-6)
    1812                      .dwpsn  file "D:/BM1000/sw/modules/ctrl/src/32b/ctrl.c",line 483,column 1,is_stmt,address _CTRL_setSp
    1813              
TMS320C2000 Assembler PC v15.12.3 Mon Sep 25 12:51:19 2017

Tools Copyright (c) 1996-2015 Texas Instruments Incorporated
C:\Users\wmj\AppData\Local\Temp\0412810                              PAGE   35

    1814                      .dwfde $C$DW$CIE, _CTRL_setSpd_ref_krpm
    1815              $C$DW$178       .dwtag  DW_TAG_formal_parameter
    1816                      .dwattr $C$DW$178, DW_AT_name("handle")
    1817                      .dwattr $C$DW$178, DW_AT_TI_symbol_name("_handle")
    1818                      .dwattr $C$DW$178, DW_AT_type(*$C$DW$T$173)
    1819                      .dwattr $C$DW$178, DW_AT_location[DW_OP_reg12]
    1820              
    1821              $C$DW$179       .dwtag  DW_TAG_formal_parameter
    1822                      .dwattr $C$DW$179, DW_AT_name("spd_ref_krpm")
    1823                      .dwattr $C$DW$179, DW_AT_TI_symbol_name("_spd_ref_krpm")
    1824                      .dwattr $C$DW$179, DW_AT_type(*$C$DW$T$244)
    1825                      .dwattr $C$DW$179, DW_AT_location[DW_OP_reg0]
    1826              
    1827              
    1828              ;***************************************************************
    1829              ;* FNAME: _CTRL_setSpd_ref_krpm         FR SIZE:   4           *
    1830              ;*                                                             *
    1831              ;* FUNCTION ENVIRONMENT                                        *
    1832              ;*                                                             *
    1833              ;* FUNCTION PROPERTIES                                         *
    1834              ;*                            0 Parameter,  0 Auto,  4 SOE     *
    1835              ;***************************************************************
    1836              
    1837              _CTRL_setSpd_ref_krpm:
    1838              ;* AR2   assigned to _handle
    1839              $C$DW$180       .dwtag  DW_TAG_variable
    1840                      .dwattr $C$DW$180, DW_AT_name("handle")
    1841                      .dwattr $C$DW$180, DW_AT_TI_symbol_name("_handle")
    1842                      .dwattr $C$DW$180, DW_AT_type(*$C$DW$T$192)
    1843                      .dwattr $C$DW$180, DW_AT_location[DW_OP_reg8]
    1844              
    1845              ;* XT    assigned to _spd_ref_krpm
    1846              $C$DW$181       .dwtag  DW_TAG_variable
    1847                      .dwattr $C$DW$181, DW_AT_name("spd_ref_krpm")
    1848                      .dwattr $C$DW$181, DW_AT_TI_symbol_name("_spd_ref_krpm")
    1849                      .dwattr $C$DW$181, DW_AT_type(*$C$DW$T$244)
    1850                      .dwattr $C$DW$181, DW_AT_location[DW_OP_reg21]
    1851              
    1852              ;* AL    assigned to _krpm_to_pu_sf
    1853              $C$DW$182       .dwtag  DW_TAG_variable
    1854                      .dwattr $C$DW$182, DW_AT_name("krpm_to_pu_sf")
    1855                      .dwattr $C$DW$182, DW_AT_TI_symbol_name("_krpm_to_pu_sf")
    1856                      .dwattr $C$DW$182, DW_AT_type(*$C$DW$T$32)
    1857                      .dwattr $C$DW$182, DW_AT_location[DW_OP_reg0]
    1858              
    1859                      .dwcfi  cfa_offset, -2
    1860                      .dwcfi  save_reg_to_mem, 26, 0
    1861 00000154 B2BD          MOVL      *SP++,XAR1            ; [CPU_] 
    1862                      .dwcfi  save_reg_to_mem, 7, 2
    1863                      .dwcfi  cfa_offset, -4
    1864 00000155 AABD          MOVL      *SP++,XAR2            ; [CPU_] 
    1865                      .dwcfi  save_reg_to_mem, 9, 4
    1866                      .dwcfi  cfa_offset, -6
    1867 00000156 86A4          MOVL      XAR2,XAR4             ; [CPU_] |483| 
    1868                      .dwpsn  file "D:/BM1000/sw/modules/ctrl/src/32b/ctrl.c",line 486,column 21,is_stmt,isa 0
TMS320C2000 Assembler PC v15.12.3 Mon Sep 25 12:51:19 2017

Tools Copyright (c) 1996-2015 Texas Instruments Incorporated
C:\Users\wmj\AppData\Local\Temp\0412810                              PAGE   36

    1869 00000157 D018          MOVB      XAR0,#24              ; [CPU_] |486| 
    1870                      .dwpsn  file "D:/BM1000/sw/modules/ctrl/src/32b/ctrl.c",line 483,column 1,is_stmt,isa 0
    1871 00000158 8BA9          MOVL      XAR1,ACC              ; [CPU_] |483| 
    1872                      .dwpsn  file "D:/BM1000/sw/modules/ctrl/src/32b/ctrl.c",line 486,column 21,is_stmt,isa 0
    1873 00000159 8A92          MOVL      XAR4,*+XAR2[AR0]      ; [CPU_] |486| 
    1874              $C$DW$183       .dwtag  DW_TAG_TI_branch
    1875                      .dwattr $C$DW$183, DW_AT_low_pc(0x00)
    1876                      .dwattr $C$DW$183, DW_AT_name("_EST_get_krpm_to_pu_sf")
    1877                      .dwattr $C$DW$183, DW_AT_TI_call
    1878              
    1879 0000015a 7640!         LCR       #_EST_get_krpm_to_pu_sf ; [CPU_] |486| 
         0000015b 0000 
    1880                      ; call occurs [#_EST_get_krpm_to_pu_sf] ; [] |486| 
    1881                      .dwpsn  file "D:/BM1000/sw/modules/ctrl/src/32b/ctrl.c",line 490,column 3,is_stmt,isa 0
    1882 0000015c D0E8          MOVB      XAR0,#232             ; [CPU_] |490| 
    1883                      .dwpsn  file "D:/BM1000/sw/modules/ctrl/src/32b/ctrl.c",line 486,column 21,is_stmt,isa 0
    1884 0000015d B2AC          MOVL      XT,XAR1               ; [CPU_] |486| 
    1885                      .dwpsn  file "D:/BM1000/sw/modules/ctrl/src/32b/ctrl.c",line 490,column 3,is_stmt,isa 0
    1886 0000015e 5605          IMPYL     P,XT,ACC              ; [CPU_] |490| 
         0000015f 00A9 
    1887 00000160 5663          QMPYL     ACC,XT,ACC            ; [CPU_] |490| 
         00000161 00A9 
    1888 00000162 56A7          LSL64     ACC:P,#8              ; [CPU_] |490| 
    1889 00000163 1E92          MOVL      *+XAR2[AR0],ACC       ; [CPU_] |490| 
    1890 00000164 86BE          MOVL      XAR2,*--SP            ; [CPU_] 
    1891                      .dwcfi  cfa_offset, -4
    1892                      .dwcfi  restore_reg, 9
    1893 00000165 8BBE          MOVL      XAR1,*--SP            ; [CPU_] 
    1894                      .dwcfi  cfa_offset, -2
    1895                      .dwcfi  restore_reg, 7
    1896              $C$DW$184       .dwtag  DW_TAG_TI_branch
    1897                      .dwattr $C$DW$184, DW_AT_low_pc(0x00)
    1898                      .dwattr $C$DW$184, DW_AT_TI_return
    1899              
    1900 00000166 0006          LRETR     ; [CPU_] 
    1901                      ; return occurs ; [] 
    1902                      .dwattr $C$DW$177, DW_AT_TI_end_file("D:/BM1000/sw/modules/ctrl/src/32b/ctrl.c")
    1903                      .dwattr $C$DW$177, DW_AT_TI_end_line(0x1ed)
    1904                      .dwattr $C$DW$177, DW_AT_TI_end_column(0x01)
    1905                      .dwendentry
    1906                      .dwendtag $C$DW$177
    1907              
    1908 00000167               .sect   ".text"
    1909                      .clink
    1910                      .global _CTRL_setBrake
    1911              
    1912              $C$DW$185       .dwtag  DW_TAG_subprogram
    1913                      .dwattr $C$DW$185, DW_AT_name("CTRL_setBrake")
    1914                      .dwattr $C$DW$185, DW_AT_low_pc(_CTRL_setBrake)
    1915                      .dwattr $C$DW$185, DW_AT_high_pc(0x00)
    1916                      .dwattr $C$DW$185, DW_AT_TI_symbol_name("_CTRL_setBrake")
    1917                      .dwattr $C$DW$185, DW_AT_external
    1918                      .dwattr $C$DW$185, DW_AT_TI_begin_file("D:/BM1000/sw/modules/ctrl/src/32b/ctrl.c")
    1919                      .dwattr $C$DW$185, DW_AT_TI_begin_line(0x288)
    1920                      .dwattr $C$DW$185, DW_AT_TI_begin_column(0x06)
TMS320C2000 Assembler PC v15.12.3 Mon Sep 25 12:51:19 2017

Tools Copyright (c) 1996-2015 Texas Instruments Incorporated
C:\Users\wmj\AppData\Local\Temp\0412810                              PAGE   37

    1921                      .dwattr $C$DW$185, DW_AT_TI_max_frame_size(-4)
    1922                      .dwpsn  file "D:/BM1000/sw/modules/ctrl/src/32b/ctrl.c",line 649,column 1,is_stmt,address _CTRL_setBr
    1923              
    1924                      .dwfde $C$DW$CIE, _CTRL_setBrake
    1925              $C$DW$186       .dwtag  DW_TAG_formal_parameter
    1926                      .dwattr $C$DW$186, DW_AT_name("handle")
    1927                      .dwattr $C$DW$186, DW_AT_TI_symbol_name("_handle")
    1928                      .dwattr $C$DW$186, DW_AT_type(*$C$DW$T$173)
    1929                      .dwattr $C$DW$186, DW_AT_location[DW_OP_reg12]
    1930              
    1931              
    1932              ;***************************************************************
    1933              ;* FNAME: _CTRL_setBrake                FR SIZE:   2           *
    1934              ;*                                                             *
    1935              ;* FUNCTION ENVIRONMENT                                        *
    1936              ;*                                                             *
    1937              ;* FUNCTION PROPERTIES                                         *
    1938              ;*                            0 Parameter,  0 Auto,  2 SOE     *
    1939              ;***************************************************************
    1940              
    1941              _CTRL_setBrake:
    1942              ;* AR1   assigned to _handle
    1943              $C$DW$187       .dwtag  DW_TAG_variable
    1944                      .dwattr $C$DW$187, DW_AT_name("handle")
    1945                      .dwattr $C$DW$187, DW_AT_TI_symbol_name("_handle")
    1946                      .dwattr $C$DW$187, DW_AT_type(*$C$DW$T$192)
    1947                      .dwattr $C$DW$187, DW_AT_location[DW_OP_reg6]
    1948              
    1949                      .dwcfi  cfa_offset, -2
    1950                      .dwcfi  save_reg_to_mem, 26, 0
    1951 00000167 B2BD          MOVL      *SP++,XAR1            ; [CPU_] 
    1952                      .dwcfi  save_reg_to_mem, 7, 2
    1953                      .dwcfi  cfa_offset, -4
    1954 00000168 A8A9          MOVL      ACC,XAR4              ; [CPU_] |649| 
    1955 00000169 8BA4          MOVL      XAR1,XAR4             ; [CPU_] |649| 
    1956                      .dwpsn  file "D:/BM1000/sw/modules/ctrl/src/32b/ctrl.c",line 652,column 3,is_stmt,isa 0
    1957 0000016a FF11          ADD       ACC,#133 << 1         ; [CPU_] |652| 
         0000016b 0085 
    1958 0000016c 8AA9          MOVL      XAR4,ACC              ; [CPU_] |652| 
    1959 0000016d 0208          MOVB      ACC,#8                ; [CPU_] |652| 
    1960              $C$DW$188       .dwtag  DW_TAG_TI_branch
    1961                      .dwattr $C$DW$188, DW_AT_low_pc(0x00)
    1962                      .dwattr $C$DW$188, DW_AT_name("_Brake_init")
    1963                      .dwattr $C$DW$188, DW_AT_TI_call
    1964              
    1965 0000016e 7640!         LCR       #_Brake_init          ; [CPU_] |652| 
         0000016f 0000 
    1966                      ; call occurs [#_Brake_init] ; [] |652| 
    1967 00000170 B2A9          MOVL      ACC,XAR1              ; [CPU_] |652| 
    1968 00000171 FF13          ADD       ACC,#33 << 3          ; [CPU_] |652| 
         00000172 0021 
    1969 00000173 83A9          MOVL      XAR5,ACC              ; [CPU_] |652| 
    1970 00000174 A8C5          MOVL      *+XAR5[0],XAR4        ; [CPU_] |652| 
    1971 00000175 8BBE          MOVL      XAR1,*--SP            ; [CPU_] 
    1972                      .dwcfi  cfa_offset, -2
TMS320C2000 Assembler PC v15.12.3 Mon Sep 25 12:51:19 2017

Tools Copyright (c) 1996-2015 Texas Instruments Incorporated
C:\Users\wmj\AppData\Local\Temp\0412810                              PAGE   38

    1973                      .dwcfi  restore_reg, 7
    1974              $C$DW$189       .dwtag  DW_TAG_TI_branch
    1975                      .dwattr $C$DW$189, DW_AT_low_pc(0x00)
    1976                      .dwattr $C$DW$189, DW_AT_TI_return
    1977              
    1978 00000176 0006          LRETR     ; [CPU_] 
    1979                      ; return occurs ; [] 
    1980                      .dwattr $C$DW$185, DW_AT_TI_end_file("D:/BM1000/sw/modules/ctrl/src/32b/ctrl.c")
    1981                      .dwattr $C$DW$185, DW_AT_TI_end_line(0x28f)
    1982                      .dwattr $C$DW$185, DW_AT_TI_end_column(0x01)
    1983                      .dwendentry
    1984                      .dwendtag $C$DW$185
    1985              
    1986 00000177               .sect   ".text"
    1987                      .clink
    1988                      .global _CTRL_setGains
    1989              
    1990              $C$DW$190       .dwtag  DW_TAG_subprogram
    1991                      .dwattr $C$DW$190, DW_AT_name("CTRL_setGains")
    1992                      .dwattr $C$DW$190, DW_AT_low_pc(_CTRL_setGains)
    1993                      .dwattr $C$DW$190, DW_AT_high_pc(0x00)
    1994                      .dwattr $C$DW$190, DW_AT_TI_symbol_name("_CTRL_setGains")
    1995                      .dwattr $C$DW$190, DW_AT_external
    1996                      .dwattr $C$DW$190, DW_AT_TI_begin_file("D:/BM1000/sw/modules/ctrl/src/32b/ctrl.c")
    1997                      .dwattr $C$DW$190, DW_AT_TI_begin_line(0x106)
    1998                      .dwattr $C$DW$190, DW_AT_TI_begin_column(0x06)
    1999                      .dwattr $C$DW$190, DW_AT_TI_max_frame_size(-2)
    2000                      .dwpsn  file "D:/BM1000/sw/modules/ctrl/src/32b/ctrl.c",line 264,column 1,is_stmt,address _CTRL_setGa
    2001              
    2002                      .dwfde $C$DW$CIE, _CTRL_setGains
    2003              $C$DW$191       .dwtag  DW_TAG_formal_parameter
    2004                      .dwattr $C$DW$191, DW_AT_name("handle")
    2005                      .dwattr $C$DW$191, DW_AT_TI_symbol_name("_handle")
    2006                      .dwattr $C$DW$191, DW_AT_type(*$C$DW$T$173)
    2007                      .dwattr $C$DW$191, DW_AT_location[DW_OP_reg12]
    2008              
    2009              $C$DW$192       .dwtag  DW_TAG_formal_parameter
    2010                      .dwattr $C$DW$192, DW_AT_name("ctrlType")
    2011                      .dwattr $C$DW$192, DW_AT_TI_symbol_name("_ctrlType")
    2012                      .dwattr $C$DW$192, DW_AT_type(*$C$DW$T$184)
    2013                      .dwattr $C$DW$192, DW_AT_location[DW_OP_reg14]
    2014              
    2015              $C$DW$193       .dwtag  DW_TAG_formal_parameter
    2016                      .dwattr $C$DW$193, DW_AT_name("Kp")
    2017                      .dwattr $C$DW$193, DW_AT_TI_symbol_name("_Kp")
    2018                      .dwattr $C$DW$193, DW_AT_type(*$C$DW$T$244)
    2019                      .dwattr $C$DW$193, DW_AT_location[DW_OP_reg0]
    2020              
    2021              $C$DW$194       .dwtag  DW_TAG_formal_parameter
    2022                      .dwattr $C$DW$194, DW_AT_name("Ki")
    2023                      .dwattr $C$DW$194, DW_AT_TI_symbol_name("_Ki")
    2024                      .dwattr $C$DW$194, DW_AT_type(*$C$DW$T$244)
    2025                      .dwattr $C$DW$194, DW_AT_location[DW_OP_breg20 -4]
    2026              
    2027              $C$DW$195       .dwtag  DW_TAG_formal_parameter
TMS320C2000 Assembler PC v15.12.3 Mon Sep 25 12:51:19 2017

Tools Copyright (c) 1996-2015 Texas Instruments Incorporated
C:\Users\wmj\AppData\Local\Temp\0412810                              PAGE   39

    2028                      .dwattr $C$DW$195, DW_AT_name("Kd")
    2029                      .dwattr $C$DW$195, DW_AT_TI_symbol_name("_Kd")
    2030                      .dwattr $C$DW$195, DW_AT_type(*$C$DW$T$244)
    2031                      .dwattr $C$DW$195, DW_AT_location[DW_OP_breg20 -6]
    2032              
    2033              
    2034              ;***************************************************************
    2035              ;* FNAME: _CTRL_setGains                FR SIZE:   0           *
    2036              ;*                                                             *
    2037              ;* FUNCTION ENVIRONMENT                                        *
    2038              ;*                                                             *
    2039              ;* FUNCTION PROPERTIES                                         *
    2040              ;*                            0 Parameter,  0 Auto,  0 SOE     *
    2041              ;***************************************************************
    2042              
    2043              _CTRL_setGains:
    2044              ;* AR7   assigned to _Kd
    2045              $C$DW$196       .dwtag  DW_TAG_variable
    2046                      .dwattr $C$DW$196, DW_AT_name("Kd")
    2047                      .dwattr $C$DW$196, DW_AT_TI_symbol_name("_Kd")
    2048                      .dwattr $C$DW$196, DW_AT_type(*$C$DW$T$244)
    2049                      .dwattr $C$DW$196, DW_AT_location[DW_OP_reg18]
    2050              
    2051              ;* PL    assigned to _Ki
    2052              $C$DW$197       .dwtag  DW_TAG_variable
    2053                      .dwattr $C$DW$197, DW_AT_name("Ki")
    2054                      .dwattr $C$DW$197, DW_AT_TI_symbol_name("_Ki")
    2055                      .dwattr $C$DW$197, DW_AT_type(*$C$DW$T$244)
    2056                      .dwattr $C$DW$197, DW_AT_location[DW_OP_reg2]
    2057              
    2058              ;* AR6   assigned to _Kp
    2059              $C$DW$198       .dwtag  DW_TAG_variable
    2060                      .dwattr $C$DW$198, DW_AT_name("Kp")
    2061                      .dwattr $C$DW$198, DW_AT_TI_symbol_name("_Kp")
    2062                      .dwattr $C$DW$198, DW_AT_type(*$C$DW$T$244)
    2063                      .dwattr $C$DW$198, DW_AT_location[DW_OP_reg16]
    2064              
    2065              ;* AL    assigned to _ctrlType
    2066              $C$DW$199       .dwtag  DW_TAG_variable
    2067                      .dwattr $C$DW$199, DW_AT_name("ctrlType")
    2068                      .dwattr $C$DW$199, DW_AT_TI_symbol_name("_ctrlType")
    2069                      .dwattr $C$DW$199, DW_AT_type(*$C$DW$T$184)
    2070                      .dwattr $C$DW$199, DW_AT_location[DW_OP_reg0]
    2071              
    2072              ;* AR4   assigned to _handle
    2073              $C$DW$200       .dwtag  DW_TAG_variable
    2074                      .dwattr $C$DW$200, DW_AT_name("handle")
    2075                      .dwattr $C$DW$200, DW_AT_TI_symbol_name("_handle")
    2076                      .dwattr $C$DW$200, DW_AT_type(*$C$DW$T$192)
    2077                      .dwattr $C$DW$200, DW_AT_location[DW_OP_reg12]
    2078              
    2079                      .dwcfi  cfa_offset, -2
    2080                      .dwcfi  save_reg_to_mem, 26, 0
    2081 00000177 1EA6          MOVL      XAR6,ACC              ; [CPU_] |264| 
    2082 00000178 92A5          MOV       AL,AR5                ; [CPU_] |264| 
TMS320C2000 Assembler PC v15.12.3 Mon Sep 25 12:51:19 2017

Tools Copyright (c) 1996-2015 Texas Instruments Incorporated
C:\Users\wmj\AppData\Local\Temp\0412810                              PAGE   40

    2083 00000179 C546          MOVL      XAR7,*-SP[6]          ; [CPU_] |264| 
    2084 0000017a A344          MOVL      P,*-SP[4]             ; [CPU_] |264| 
    2085                      .dwpsn  file "D:/BM1000/sw/modules/ctrl/src/32b/ctrl.h",line 1503,column 3,is_stmt,isa 0
    2086 0000017b 6109          B         $C$L24,EQ             ; [CPU_] |1503| 
    2087                      ; branchcc occurs ; [] |1503| 
    2088                      .dwpsn  file "D:/BM1000/sw/modules/ctrl/src/32b/ctrl.h",line 1507,column 8,is_stmt,isa 0
    2089 0000017c 5201          CMPB      AL,#1                 ; [CPU_] |1507| 
    2090 0000017d 6105          B         $C$L23,EQ             ; [CPU_] |1507| 
    2091                      ; branchcc occurs ; [] |1507| 
    2092                      .dwpsn  file "D:/BM1000/sw/modules/ctrl/src/32b/ctrl.h",line 1511,column 8,is_stmt,isa 0
    2093 0000017e 5202          CMPB      AL,#2                 ; [CPU_] |1511| 
    2094 0000017f 6007          B         $C$L26,NEQ            ; [CPU_] |1511| 
    2095                      ; branchcc occurs ; [] |1511| 
    2096                      .dwpsn  file "D:/BM1000/sw/modules/ctrl/src/32b/ctrl.h",line 1513,column 7,is_stmt,isa 0
    2097 00000180 D0CC          MOVB      XAR0,#204             ; [CPU_] |1513| 
    2098 00000181 6F04          B         $C$L25,UNC            ; [CPU_] |1513| 
    2099                      ; branch occurs ; [] |1513| 
    2100 00000182       $C$L23:    
    2101                      .dwpsn  file "D:/BM1000/sw/modules/ctrl/src/32b/ctrl.h",line 1509,column 7,is_stmt,isa 0
    2102 00000182 D0CA          MOVB      XAR0,#202             ; [CPU_] |1509| 
    2103                      .dwpsn  file "D:/BM1000/sw/modules/ctrl/src/32b/ctrl.h",line 1510,column 5,is_stmt,isa 0
    2104 00000183 6F02          B         $C$L25,UNC            ; [CPU_] |1510| 
    2105                      ; branch occurs ; [] |1510| 
    2106 00000184       $C$L24:    
    2107                      .dwpsn  file "D:/BM1000/sw/modules/ctrl/src/32b/ctrl.h",line 1505,column 7,is_stmt,isa 0
    2108 00000184 D0CE          MOVB      XAR0,#206             ; [CPU_] |1505| 
    2109 00000185       $C$L25:    
    2110 00000185 C294          MOVL      *+XAR4[AR0],XAR6      ; [CPU_] |1505| 
    2111 00000186       $C$L26:    
    2112                      .dwpsn  file "D:/BM1000/sw/modules/ctrl/src/32b/ctrl.h",line 1478,column 3,is_stmt,isa 0
    2113 00000186 5200          CMPB      AL,#0                 ; [CPU_] |1478| 
    2114 00000187 6109          B         $C$L28,EQ             ; [CPU_] |1478| 
    2115                      ; branchcc occurs ; [] |1478| 
    2116                      .dwpsn  file "D:/BM1000/sw/modules/ctrl/src/32b/ctrl.h",line 1482,column 8,is_stmt,isa 0
    2117 00000188 5201          CMPB      AL,#1                 ; [CPU_] |1482| 
    2118 00000189 6105          B         $C$L27,EQ             ; [CPU_] |1482| 
    2119                      ; branchcc occurs ; [] |1482| 
    2120                      .dwpsn  file "D:/BM1000/sw/modules/ctrl/src/32b/ctrl.h",line 1486,column 8,is_stmt,isa 0
    2121 0000018a 5202          CMPB      AL,#2                 ; [CPU_] |1486| 
    2122 0000018b 6007          B         $C$L30,NEQ            ; [CPU_] |1486| 
    2123                      ; branchcc occurs ; [] |1486| 
    2124                      .dwpsn  file "D:/BM1000/sw/modules/ctrl/src/32b/ctrl.h",line 1488,column 7,is_stmt,isa 0
    2125 0000018c D0D2          MOVB      XAR0,#210             ; [CPU_] |1488| 
    2126 0000018d 6F04          B         $C$L29,UNC            ; [CPU_] |1488| 
    2127                      ; branch occurs ; [] |1488| 
    2128 0000018e       $C$L27:    
    2129                      .dwpsn  file "D:/BM1000/sw/modules/ctrl/src/32b/ctrl.h",line 1484,column 7,is_stmt,isa 0
    2130 0000018e D0D0          MOVB      XAR0,#208             ; [CPU_] |1484| 
    2131                      .dwpsn  file "D:/BM1000/sw/modules/ctrl/src/32b/ctrl.h",line 1485,column 5,is_stmt,isa 0
    2132 0000018f 6F02          B         $C$L29,UNC            ; [CPU_] |1485| 
    2133                      ; branch occurs ; [] |1485| 
    2134 00000190       $C$L28:    
    2135                      .dwpsn  file "D:/BM1000/sw/modules/ctrl/src/32b/ctrl.h",line 1480,column 7,is_stmt,isa 0
    2136 00000190 D0D4          MOVB      XAR0,#212             ; [CPU_] |1480| 
    2137 00000191       $C$L29:    
TMS320C2000 Assembler PC v15.12.3 Mon Sep 25 12:51:19 2017

Tools Copyright (c) 1996-2015 Texas Instruments Incorporated
C:\Users\wmj\AppData\Local\Temp\0412810                              PAGE   41

    2138 00000191 A994          MOVL      *+XAR4[AR0],P         ; [CPU_] |1480| 
    2139 00000192       $C$L30:    
    2140                      .dwpsn  file "D:/BM1000/sw/modules/ctrl/src/32b/ctrl.h",line 1453,column 3,is_stmt,isa 0
    2141 00000192 5200          CMPB      AL,#0                 ; [CPU_] |1453| 
    2142 00000193 6109          B         $C$L32,EQ             ; [CPU_] |1453| 
    2143                      ; branchcc occurs ; [] |1453| 
    2144                      .dwpsn  file "D:/BM1000/sw/modules/ctrl/src/32b/ctrl.h",line 1457,column 8,is_stmt,isa 0
    2145 00000194 5201          CMPB      AL,#1                 ; [CPU_] |1457| 
    2146 00000195 6105          B         $C$L31,EQ             ; [CPU_] |1457| 
    2147                      ; branchcc occurs ; [] |1457| 
    2148                      .dwpsn  file "D:/BM1000/sw/modules/ctrl/src/32b/ctrl.h",line 1461,column 8,is_stmt,isa 0
    2149 00000196 5202          CMPB      AL,#2                 ; [CPU_] |1461| 
    2150 00000197 6007          B         $C$L34,NEQ            ; [CPU_] |1461| 
    2151                      ; branchcc occurs ; [] |1461| 
    2152                      .dwpsn  file "D:/BM1000/sw/modules/ctrl/src/32b/ctrl.h",line 1463,column 7,is_stmt,isa 0
    2153 00000198 D0D8          MOVB      XAR0,#216             ; [CPU_] |1463| 
    2154 00000199 6F04          B         $C$L33,UNC            ; [CPU_] |1463| 
    2155                      ; branch occurs ; [] |1463| 
    2156 0000019a       $C$L31:    
    2157                      .dwpsn  file "D:/BM1000/sw/modules/ctrl/src/32b/ctrl.h",line 1459,column 7,is_stmt,isa 0
    2158 0000019a D0D6          MOVB      XAR0,#214             ; [CPU_] |1459| 
    2159                      .dwpsn  file "D:/BM1000/sw/modules/ctrl/src/32b/ctrl.h",line 1460,column 5,is_stmt,isa 0
    2160 0000019b 6F02          B         $C$L33,UNC            ; [CPU_] |1460| 
    2161                      ; branch occurs ; [] |1460| 
    2162 0000019c       $C$L32:    
    2163                      .dwpsn  file "D:/BM1000/sw/modules/ctrl/src/32b/ctrl.h",line 1455,column 7,is_stmt,isa 0
    2164 0000019c D0DA          MOVB      XAR0,#218             ; [CPU_] |1455| 
    2165 0000019d       $C$L33:    
    2166 0000019d C394          MOVL      *+XAR4[AR0],XAR7      ; [CPU_] |1455| 
    2167              $C$L34:    
    2168              $C$DW$201       .dwtag  DW_TAG_TI_branch
    2169                      .dwattr $C$DW$201, DW_AT_low_pc(0x00)
    2170                      .dwattr $C$DW$201, DW_AT_TI_return
    2171              
    2172 0000019e 0006          LRETR     ; [CPU_] 
    2173                      ; return occurs ; [] 
    2174                      .dwattr $C$DW$190, DW_AT_TI_end_file("D:/BM1000/sw/modules/ctrl/src/32b/ctrl.c")
    2175                      .dwattr $C$DW$190, DW_AT_TI_end_line(0x10f)
    2176                      .dwattr $C$DW$190, DW_AT_TI_end_column(0x01)
    2177                      .dwendentry
    2178                      .dwendtag $C$DW$190
    2179              
    2180 0000019f               .sect   ".text"
    2181                      .clink
    2182                      .global _CTRL_setParams
    2183              
    2184              $C$DW$202       .dwtag  DW_TAG_subprogram
    2185                      .dwattr $C$DW$202, DW_AT_name("CTRL_setParams")
    2186                      .dwattr $C$DW$202, DW_AT_low_pc(_CTRL_setParams)
    2187                      .dwattr $C$DW$202, DW_AT_high_pc(0x00)
    2188                      .dwattr $C$DW$202, DW_AT_TI_symbol_name("_CTRL_setParams")
    2189                      .dwattr $C$DW$202, DW_AT_external
    2190                      .dwattr $C$DW$202, DW_AT_TI_begin_file("D:/BM1000/sw/modules/ctrl/src/32b/ctrl.c")
    2191                      .dwattr $C$DW$202, DW_AT_TI_begin_line(0x124)
    2192                      .dwattr $C$DW$202, DW_AT_TI_begin_column(0x06)
TMS320C2000 Assembler PC v15.12.3 Mon Sep 25 12:51:19 2017

Tools Copyright (c) 1996-2015 Texas Instruments Incorporated
C:\Users\wmj\AppData\Local\Temp\0412810                              PAGE   42

    2193                      .dwattr $C$DW$202, DW_AT_TI_max_frame_size(-50)
    2194                      .dwpsn  file "D:/BM1000/sw/modules/ctrl/src/32b/ctrl.c",line 293,column 1,is_stmt,address _CTRL_setPa
    2195              
    2196                      .dwfde $C$DW$CIE, _CTRL_setParams
    2197              $C$DW$203       .dwtag  DW_TAG_formal_parameter
    2198                      .dwattr $C$DW$203, DW_AT_name("handle")
    2199                      .dwattr $C$DW$203, DW_AT_TI_symbol_name("_handle")
    2200                      .dwattr $C$DW$203, DW_AT_type(*$C$DW$T$173)
    2201                      .dwattr $C$DW$203, DW_AT_location[DW_OP_reg12]
    2202              
    2203              $C$DW$204       .dwtag  DW_TAG_formal_parameter
    2204                      .dwattr $C$DW$204, DW_AT_name("pUserParams")
    2205                      .dwattr $C$DW$204, DW_AT_TI_symbol_name("_pUserParams")
    2206                      .dwattr $C$DW$204, DW_AT_type(*$C$DW$T$237)
    2207                      .dwattr $C$DW$204, DW_AT_location[DW_OP_reg14]
    2208              
    2209              
    2210              ;***************************************************************
    2211              ;* FNAME: _CTRL_setParams               FR SIZE:  48           *
    2212              ;*                                                             *
    2213              ;* FUNCTION ENVIRONMENT                                        *
    2214              ;*                                                             *
    2215              ;* FUNCTION PROPERTIES                                         *
    2216              ;*                            4 Parameter, 38 Auto,  6 SOE     *
    2217              ;***************************************************************
    2218              
    2219              _CTRL_setParams:
    2220              ;* AR3   assigned to $O$C1
    2221              ;* AR2   assigned to $O$C2
    2222              ;* AH    assigned to _numPolePairs
    2223              $C$DW$205       .dwtag  DW_TAG_variable
    2224                      .dwattr $C$DW$205, DW_AT_name("numPolePairs")
    2225                      .dwattr $C$DW$205, DW_AT_TI_symbol_name("_numPolePairs")
    2226                      .dwattr $C$DW$205, DW_AT_type(*$C$DW$T$70)
    2227                      .dwattr $C$DW$205, DW_AT_location[DW_OP_reg1]
    2228              
    2229              ;* XT    assigned to _ratedFlux
    2230              $C$DW$206       .dwtag  DW_TAG_variable
    2231                      .dwattr $C$DW$206, DW_AT_name("ratedFlux")
    2232                      .dwattr $C$DW$206, DW_AT_TI_symbol_name("_ratedFlux")
    2233                      .dwattr $C$DW$206, DW_AT_type(*$C$DW$T$71)
    2234                      .dwattr $C$DW$206, DW_AT_location[DW_OP_reg21]
    2235              
    2236              ;* AR5   assigned to _Ls_d
    2237              $C$DW$207       .dwtag  DW_TAG_variable
    2238                      .dwattr $C$DW$207, DW_AT_name("Ls_d")
    2239                      .dwattr $C$DW$207, DW_AT_TI_symbol_name("_Ls_d")
    2240                      .dwattr $C$DW$207, DW_AT_type(*$C$DW$T$71)
    2241                      .dwattr $C$DW$207, DW_AT_location[DW_OP_reg14]
    2242              
    2243              ;* PL    assigned to _Ls_q
    2244              $C$DW$208       .dwtag  DW_TAG_variable
    2245                      .dwattr $C$DW$208, DW_AT_name("Ls_q")
    2246                      .dwattr $C$DW$208, DW_AT_TI_symbol_name("_Ls_q")
    2247                      .dwattr $C$DW$208, DW_AT_type(*$C$DW$T$71)
TMS320C2000 Assembler PC v15.12.3 Mon Sep 25 12:51:19 2017

Tools Copyright (c) 1996-2015 Texas Instruments Incorporated
C:\Users\wmj\AppData\Local\Temp\0412810                              PAGE   43

    2248                      .dwattr $C$DW$208, DW_AT_location[DW_OP_reg2]
    2249              
    2250              ;* AR6   assigned to _Rr
    2251              $C$DW$209       .dwtag  DW_TAG_variable
    2252                      .dwattr $C$DW$209, DW_AT_name("Rr")
    2253                      .dwattr $C$DW$209, DW_AT_TI_symbol_name("_Rr")
    2254                      .dwattr $C$DW$209, DW_AT_type(*$C$DW$T$71)
    2255                      .dwattr $C$DW$209, DW_AT_location[DW_OP_reg16]
    2256              
    2257              ;* AR4   assigned to _Rs
    2258              $C$DW$210       .dwtag  DW_TAG_variable
    2259                      .dwattr $C$DW$210, DW_AT_name("Rs")
    2260                      .dwattr $C$DW$210, DW_AT_TI_symbol_name("_Rs")
    2261                      .dwattr $C$DW$210, DW_AT_type(*$C$DW$T$71)
    2262                      .dwattr $C$DW$210, DW_AT_location[DW_OP_reg12]
    2263              
    2264              ;* AR6   assigned to _Ki
    2265              $C$DW$211       .dwtag  DW_TAG_variable
    2266                      .dwattr $C$DW$211, DW_AT_name("Ki")
    2267                      .dwattr $C$DW$211, DW_AT_TI_symbol_name("_Ki")
    2268                      .dwattr $C$DW$211, DW_AT_type(*$C$DW$T$32)
    2269                      .dwattr $C$DW$211, DW_AT_location[DW_OP_reg16]
    2270              
    2271              ;* AR4   assigned to _obj
    2272              $C$DW$212       .dwtag  DW_TAG_variable
    2273                      .dwattr $C$DW$212, DW_AT_name("obj")
    2274                      .dwattr $C$DW$212, DW_AT_TI_symbol_name("_obj")
    2275                      .dwattr $C$DW$212, DW_AT_type(*$C$DW$T$235)
    2276                      .dwattr $C$DW$212, DW_AT_location[DW_OP_reg12]
    2277              
    2278              ;* AR4   assigned to _obj
    2279              $C$DW$213       .dwtag  DW_TAG_variable
    2280                      .dwattr $C$DW$213, DW_AT_name("obj")
    2281                      .dwattr $C$DW$213, DW_AT_TI_symbol_name("_obj")
    2282                      .dwattr $C$DW$213, DW_AT_type(*$C$DW$T$235)
    2283                      .dwattr $C$DW$213, DW_AT_location[DW_OP_reg12]
    2284              
    2285              ;* AR6   assigned to _Ki
    2286              $C$DW$214       .dwtag  DW_TAG_variable
    2287                      .dwattr $C$DW$214, DW_AT_name("Ki")
    2288                      .dwattr $C$DW$214, DW_AT_TI_symbol_name("_Ki")
    2289                      .dwattr $C$DW$214, DW_AT_type(*$C$DW$T$32)
    2290                      .dwattr $C$DW$214, DW_AT_location[DW_OP_reg16]
    2291              
    2292              ;* AR4   assigned to _obj
    2293              $C$DW$215       .dwtag  DW_TAG_variable
    2294                      .dwattr $C$DW$215, DW_AT_name("obj")
    2295                      .dwattr $C$DW$215, DW_AT_TI_symbol_name("_obj")
    2296                      .dwattr $C$DW$215, DW_AT_type(*$C$DW$T$235)
    2297                      .dwattr $C$DW$215, DW_AT_location[DW_OP_reg12]
    2298              
    2299              ;* AR4   assigned to _obj
    2300              $C$DW$216       .dwtag  DW_TAG_variable
    2301                      .dwattr $C$DW$216, DW_AT_name("obj")
    2302                      .dwattr $C$DW$216, DW_AT_TI_symbol_name("_obj")
TMS320C2000 Assembler PC v15.12.3 Mon Sep 25 12:51:19 2017

Tools Copyright (c) 1996-2015 Texas Instruments Incorporated
C:\Users\wmj\AppData\Local\Temp\0412810                              PAGE   44

    2303                      .dwattr $C$DW$216, DW_AT_type(*$C$DW$T$235)
    2304                      .dwattr $C$DW$216, DW_AT_location[DW_OP_reg12]
    2305              
    2306              ;* AR6   assigned to _Ki
    2307              $C$DW$217       .dwtag  DW_TAG_variable
    2308                      .dwattr $C$DW$217, DW_AT_name("Ki")
    2309                      .dwattr $C$DW$217, DW_AT_TI_symbol_name("_Ki")
    2310                      .dwattr $C$DW$217, DW_AT_type(*$C$DW$T$32)
    2311                      .dwattr $C$DW$217, DW_AT_location[DW_OP_reg16]
    2312              
    2313              ;* AR4   assigned to _obj
    2314              $C$DW$218       .dwtag  DW_TAG_variable
    2315                      .dwattr $C$DW$218, DW_AT_name("obj")
    2316                      .dwattr $C$DW$218, DW_AT_TI_symbol_name("_obj")
    2317                      .dwattr $C$DW$218, DW_AT_type(*$C$DW$T$235)
    2318                      .dwattr $C$DW$218, DW_AT_location[DW_OP_reg12]
    2319              
    2320              ;* AR4   assigned to _obj
    2321              $C$DW$219       .dwtag  DW_TAG_variable
    2322                      .dwattr $C$DW$219, DW_AT_name("obj")
    2323                      .dwattr $C$DW$219, DW_AT_TI_symbol_name("_obj")
    2324                      .dwattr $C$DW$219, DW_AT_type(*$C$DW$T$235)
    2325                      .dwattr $C$DW$219, DW_AT_location[DW_OP_reg12]
    2326              
    2327              $C$DW$220       .dwtag  DW_TAG_variable
    2328                      .dwattr $C$DW$220, DW_AT_name("Kp")
    2329                      .dwattr $C$DW$220, DW_AT_TI_symbol_name("_Kp")
    2330                      .dwattr $C$DW$220, DW_AT_type(*$C$DW$T$32)
    2331                      .dwattr $C$DW$220, DW_AT_location[DW_OP_breg20 -40]
    2332              
    2333              $C$DW$221       .dwtag  DW_TAG_variable
    2334                      .dwattr $C$DW$221, DW_AT_name("pUserParams")
    2335                      .dwattr $C$DW$221, DW_AT_TI_symbol_name("_pUserParams")
    2336                      .dwattr $C$DW$221, DW_AT_type(*$C$DW$T$238)
    2337                      .dwattr $C$DW$221, DW_AT_location[DW_OP_breg20 -42]
    2338              
    2339              ;* AR1   assigned to _handle
    2340              $C$DW$222       .dwtag  DW_TAG_variable
    2341                      .dwattr $C$DW$222, DW_AT_name("handle")
    2342                      .dwattr $C$DW$222, DW_AT_TI_symbol_name("_handle")
    2343                      .dwattr $C$DW$222, DW_AT_type(*$C$DW$T$192)
    2344                      .dwattr $C$DW$222, DW_AT_location[DW_OP_reg6]
    2345              
    2346              $C$DW$223       .dwtag  DW_TAG_variable
    2347                      .dwattr $C$DW$223, DW_AT_name("Iab_out_pu")
    2348                      .dwattr $C$DW$223, DW_AT_TI_symbol_name("_Iab_out_pu")
    2349                      .dwattr $C$DW$223, DW_AT_type(*$C$DW$T$33)
    2350                      .dwattr $C$DW$223, DW_AT_location[DW_OP_breg20 -8]
    2351              
    2352              $C$DW$224       .dwtag  DW_TAG_variable
    2353                      .dwattr $C$DW$224, DW_AT_name("Idq_out_pu")
    2354                      .dwattr $C$DW$224, DW_AT_TI_symbol_name("_Idq_out_pu")
    2355                      .dwattr $C$DW$224, DW_AT_type(*$C$DW$T$33)
    2356                      .dwattr $C$DW$224, DW_AT_location[DW_OP_breg20 -12]
    2357              
TMS320C2000 Assembler PC v15.12.3 Mon Sep 25 12:51:19 2017

Tools Copyright (c) 1996-2015 Texas Instruments Incorporated
C:\Users\wmj\AppData\Local\Temp\0412810                              PAGE   45

    2358              $C$DW$225       .dwtag  DW_TAG_variable
    2359                      .dwattr $C$DW$225, DW_AT_name("Idq_ref_pu")
    2360                      .dwattr $C$DW$225, DW_AT_TI_symbol_name("_Idq_ref_pu")
    2361                      .dwattr $C$DW$225, DW_AT_type(*$C$DW$T$33)
    2362                      .dwattr $C$DW$225, DW_AT_location[DW_OP_breg20 -16]
    2363              
    2364              $C$DW$226       .dwtag  DW_TAG_variable
    2365                      .dwattr $C$DW$226, DW_AT_name("Vab_in_pu")
    2366                      .dwattr $C$DW$226, DW_AT_TI_symbol_name("_Vab_in_pu")
    2367                      .dwattr $C$DW$226, DW_AT_type(*$C$DW$T$33)
    2368                      .dwattr $C$DW$226, DW_AT_location[DW_OP_breg20 -20]
    2369              
    2370              $C$DW$227       .dwtag  DW_TAG_variable
    2371                      .dwattr $C$DW$227, DW_AT_name("Vab_out_pu")
    2372                      .dwattr $C$DW$227, DW_AT_TI_symbol_name("_Vab_out_pu")
    2373                      .dwattr $C$DW$227, DW_AT_type(*$C$DW$T$33)
    2374                      .dwattr $C$DW$227, DW_AT_location[DW_OP_breg20 -24]
    2375              
    2376              $C$DW$228       .dwtag  DW_TAG_variable
    2377                      .dwattr $C$DW$228, DW_AT_name("Vdq_out_pu")
    2378                      .dwattr $C$DW$228, DW_AT_TI_symbol_name("_Vdq_out_pu")
    2379                      .dwattr $C$DW$228, DW_AT_type(*$C$DW$T$33)
    2380                      .dwattr $C$DW$228, DW_AT_location[DW_OP_breg20 -28]
    2381              
    2382                      .dwcfi  cfa_offset, -2
    2383                      .dwcfi  save_reg_to_mem, 26, 0
    2384 0000019f B2BD          MOVL      *SP++,XAR1            ; [CPU_] 
    2385                      .dwcfi  save_reg_to_mem, 7, 2
    2386                      .dwcfi  cfa_offset, -4
    2387 000001a0 AABD          MOVL      *SP++,XAR2            ; [CPU_] 
    2388                      .dwcfi  save_reg_to_mem, 9, 4
    2389                      .dwcfi  cfa_offset, -6
    2390 000001a1 A2BD          MOVL      *SP++,XAR3            ; [CPU_] 
    2391                      .dwcfi  save_reg_to_mem, 11, 6
    2392                      .dwcfi  cfa_offset, -8
    2393 000001a2 FE2A          ADDB      SP,#42                ; [CPU_U] 
    2394                      .dwcfi  cfa_offset, -50
    2395 000001a3 8BA4          MOVL      XAR1,XAR4             ; [CPU_] |293| 
    2396                      .dwpsn  file "D:/BM1000/sw/modules/ctrl/src/32b/ctrl.c",line 300,column 13,is_stmt,isa 0
    2397 000001a4 5CAD          MOVZ      AR4,SP                ; [CPU_] |300| 
    2398                      .dwpsn  file "D:/BM1000/sw/modules/ctrl/src/32b/ctrl.c",line 293,column 1,is_stmt,isa 0
    2399 000001a5 A06A          MOVL      *-SP[42],XAR5         ; [CPU_] |293| 
    2400                      .dwpsn  file "D:/BM1000/sw/modules/ctrl/src/32b/ctrl.c",line 300,column 13,is_stmt,isa 0
    2401 000001a6 DC88          SUBB      XAR4,#8               ; [CPU_U] |300| 
    2402 000001a7 5CA4          MOVZ      AR4,AR4               ; [CPU_] |300| 
    2403 000001a8 76C0+         MOVL      XAR7,#_$P$T0$1        ; [CPU_U] |300| 
         000001a9 0000 
    2404 000001aa F603          RPT       #3
    2405 000001ab 2484  ||     PREAD     *XAR4++,*XAR7         ; [CPU_] |300| 
    2406                      .dwpsn  file "D:/BM1000/sw/modules/ctrl/src/32b/ctrl.c",line 301,column 13,is_stmt,isa 0
    2407 000001ac 5CAD          MOVZ      AR4,SP                ; [CPU_] |301| 
    2408 000001ad DC8C          SUBB      XAR4,#12              ; [CPU_U] |301| 
    2409 000001ae 5CA4          MOVZ      AR4,AR4               ; [CPU_] |301| 
    2410 000001af 76C0+         MOVL      XAR7,#_$P$T1$2        ; [CPU_U] |301| 
         000001b0 0000 
TMS320C2000 Assembler PC v15.12.3 Mon Sep 25 12:51:19 2017

Tools Copyright (c) 1996-2015 Texas Instruments Incorporated
C:\Users\wmj\AppData\Local\Temp\0412810                              PAGE   46

    2411 000001b1 F603          RPT       #3
    2412 000001b2 2484  ||     PREAD     *XAR4++,*XAR7         ; [CPU_] |301| 
    2413                      .dwpsn  file "D:/BM1000/sw/modules/ctrl/src/32b/ctrl.c",line 302,column 13,is_stmt,isa 0
    2414 000001b3 5CAD          MOVZ      AR4,SP                ; [CPU_] |302| 
    2415 000001b4 DC90          SUBB      XAR4,#16              ; [CPU_U] |302| 
    2416 000001b5 5CA4          MOVZ      AR4,AR4               ; [CPU_] |302| 
    2417 000001b6 76C0+         MOVL      XAR7,#_$P$T2$3        ; [CPU_U] |302| 
         000001b7 0000 
    2418 000001b8 F603          RPT       #3
    2419 000001b9 2484  ||     PREAD     *XAR4++,*XAR7         ; [CPU_] |302| 
    2420                      .dwpsn  file "D:/BM1000/sw/modules/ctrl/src/32b/ctrl.c",line 303,column 13,is_stmt,isa 0
    2421 000001ba 5CAD          MOVZ      AR4,SP                ; [CPU_] |303| 
    2422 000001bb DC94          SUBB      XAR4,#20              ; [CPU_U] |303| 
    2423 000001bc 5CA4          MOVZ      AR4,AR4               ; [CPU_] |303| 
    2424 000001bd 76C0+         MOVL      XAR7,#_$P$T3$4        ; [CPU_U] |303| 
         000001be 0000 
    2425 000001bf F603          RPT       #3
    2426 000001c0 2484  ||     PREAD     *XAR4++,*XAR7         ; [CPU_] |303| 
    2427                      .dwpsn  file "D:/BM1000/sw/modules/ctrl/src/32b/ctrl.c",line 304,column 13,is_stmt,isa 0
    2428 000001c1 5CAD          MOVZ      AR4,SP                ; [CPU_] |304| 
    2429 000001c2 DC98          SUBB      XAR4,#24              ; [CPU_U] |304| 
    2430 000001c3 5CA4          MOVZ      AR4,AR4               ; [CPU_] |304| 
    2431 000001c4 76C0+         MOVL      XAR7,#_$P$T4$5        ; [CPU_U] |304| 
         000001c5 0000 
    2432 000001c6 F603          RPT       #3
    2433 000001c7 2484  ||     PREAD     *XAR4++,*XAR7         ; [CPU_] |304| 
    2434                      .dwpsn  file "D:/BM1000/sw/modules/ctrl/src/32b/ctrl.c",line 305,column 13,is_stmt,isa 0
    2435 000001c8 5CAD          MOVZ      AR4,SP                ; [CPU_] |305| 
    2436 000001c9 DC9C          SUBB      XAR4,#28              ; [CPU_U] |305| 
    2437 000001ca 5CA4          MOVZ      AR4,AR4               ; [CPU_] |305| 
    2438 000001cb 76C0+         MOVL      XAR7,#_$P$T5$6        ; [CPU_U] |305| 
         000001cc 0000 
    2439 000001cd F603          RPT       #3
    2440 000001ce 2484  ||     PREAD     *XAR4++,*XAR7         ; [CPU_] |305| 
    2441                      .dwpsn  file "D:/BM1000/sw/modules/ctrl/src/32b/ctrl.h",line 1592,column 3,is_stmt,isa 0
    2442 000001cf C56A          MOVL      XAR7,*-SP[42]         ; [CPU_] |1592| 
    2443                      .dwpsn  file "D:/BM1000/sw/modules/ctrl/src/32b/ctrl.c",line 309,column 3,is_stmt,isa 0
    2444 000001d0 8A6A          MOVL      XAR4,*-SP[42]         ; [CPU_] |309| 
    2445 000001d1 D035          MOVB      XAR0,#53              ; [CPU_] |309| 
    2446                      .dwpsn  file "D:/BM1000/sw/modules/ctrl/src/32b/ctrl.h",line 1592,column 3,is_stmt,isa 0
    2447 000001d2 DF34          ADDB      XAR7,#52              ; [CPU_] |1592| 
    2448                      .dwpsn  file "D:/BM1000/sw/modules/ctrl/src/32b/ctrl.c",line 309,column 3,is_stmt,isa 0
    2449 000001d3 9394          MOV       AH,*+XAR4[AR0]        ; [CPU_] |309| 
    2450 000001d4 D036          MOVB      XAR0,#54              ; [CPU_] |309| 
    2451                      .dwpsn  file "D:/BM1000/sw/modules/ctrl/src/32b/ctrl.h",line 1592,column 3,is_stmt,isa 0
    2452 000001d5 92C7          MOV       AL,*XAR7              ; [CPU_] |1592| 
    2453                      .dwpsn  file "D:/BM1000/sw/modules/ctrl/src/32b/ctrl.c",line 309,column 3,is_stmt,isa 0
    2454 000001d6 8794          MOVL      XT,*+XAR4[AR0]        ; [CPU_] |309| 
    2455 000001d7 D03C          MOVB      XAR0,#60              ; [CPU_] |309| 
    2456 000001d8 8394          MOVL      XAR5,*+XAR4[AR0]      ; [CPU_] |309| 
    2457 000001d9 D03E          MOVB      XAR0,#62              ; [CPU_] |309| 
    2458 000001da A394          MOVL      P,*+XAR4[AR0]         ; [CPU_] |309| 
    2459 000001db D038          MOVB      XAR0,#56              ; [CPU_] |309| 
    2460 000001dc C494          MOVL      XAR6,*+XAR4[AR0]      ; [CPU_] |309| 
    2461 000001dd D03A          MOVB      XAR0,#58              ; [CPU_] |309| 
TMS320C2000 Assembler PC v15.12.3 Mon Sep 25 12:51:19 2017

Tools Copyright (c) 1996-2015 Texas Instruments Incorporated
C:\Users\wmj\AppData\Local\Temp\0412810                              PAGE   47

    2462 000001de 8A94          MOVL      XAR4,*+XAR4[AR0]      ; [CPU_] |309| 
    2463                      .dwpsn  file "D:/BM1000/sw/modules/ctrl/src/32b/ctrl.h",line 1592,column 3,is_stmt,isa 0
    2464 000001df D084          MOVB      XAR0,#132             ; [CPU_] |1592| 
    2465 000001e0 9691          MOV       *+XAR1[AR0],AL        ; [CPU_] |1592| 
    2466                      .dwpsn  file "D:/BM1000/sw/modules/ctrl/src/32b/ctrl.h",line 1593,column 3,is_stmt,isa 0
    2467 000001e1 D085          MOVB      XAR0,#133             ; [CPU_] |1593| 
    2468 000001e2 9791          MOV       *+XAR1[AR0],AH        ; [CPU_] |1593| 
    2469                      .dwpsn  file "D:/BM1000/sw/modules/ctrl/src/32b/ctrl.h",line 1594,column 3,is_stmt,isa 0
    2470 000001e3 D090          MOVB      XAR0,#144             ; [CPU_] |1594| 
    2471 000001e4 AB91          MOVL      *+XAR1[AR0],XT        ; [CPU_] |1594| 
    2472                      .dwpsn  file "D:/BM1000/sw/modules/ctrl/src/32b/ctrl.h",line 1595,column 3,is_stmt,isa 0
    2473 000001e5 D088          MOVB      XAR0,#136             ; [CPU_] |1595| 
    2474 000001e6 A091          MOVL      *+XAR1[AR0],XAR5      ; [CPU_] |1595| 
    2475                      .dwpsn  file "D:/BM1000/sw/modules/ctrl/src/32b/ctrl.h",line 1596,column 3,is_stmt,isa 0
    2476 000001e7 D08A          MOVB      XAR0,#138             ; [CPU_] |1596| 
    2477 000001e8 A991          MOVL      *+XAR1[AR0],P         ; [CPU_] |1596| 
    2478                      .dwpsn  file "D:/BM1000/sw/modules/ctrl/src/32b/ctrl.h",line 1597,column 3,is_stmt,isa 0
    2479 000001e9 D08C          MOVB      XAR0,#140             ; [CPU_] |1597| 
    2480 000001ea C291          MOVL      *+XAR1[AR0],XAR6      ; [CPU_] |1597| 
    2481                      .dwpsn  file "D:/BM1000/sw/modules/ctrl/src/32b/ctrl.h",line 1598,column 3,is_stmt,isa 0
    2482 000001eb D08E          MOVB      XAR0,#142             ; [CPU_] |1598| 
    2483 000001ec A891          MOVL      *+XAR1[AR0],XAR4      ; [CPU_] |1598| 
    2484                      .dwpsn  file "D:/BM1000/sw/modules/ctrl/src/32b/ctrl.h",line 1662,column 3,is_stmt,isa 0
    2485 000001ed 8A6A          MOVL      XAR4,*-SP[42]         ; [CPU_] |1662| 
    2486 000001ee D09C          MOVB      XAR0,#156             ; [CPU_] |1662| 
    2487 000001ef 92F4          MOV       AL,*+XAR4[6]          ; [CPU_] |1662| 
    2488 000001f0 9691          MOV       *+XAR1[AR0],AL        ; [CPU_] |1662| 
    2489                      .dwpsn  file "D:/BM1000/sw/modules/ctrl/src/32b/ctrl.h",line 1620,column 3,is_stmt,isa 0
    2490 000001f1 D09D          MOVB      XAR0,#157             ; [CPU_] |1620| 
    2491 000001f2 92FC          MOV       AL,*+XAR4[7]          ; [CPU_] |1620| 
    2492 000001f3 9691          MOV       *+XAR1[AR0],AL        ; [CPU_] |1620| 
    2493                      .dwpsn  file "D:/BM1000/sw/modules/ctrl/src/32b/ctrl.h",line 1634,column 3,is_stmt,isa 0
    2494 000001f4 C56A          MOVL      XAR7,*-SP[42]         ; [CPU_] |1634| 
    2495 000001f5 D09E          MOVB      XAR0,#158             ; [CPU_] |1634| 
    2496 000001f6 DF09          ADDB      XAR7,#9               ; [CPU_] |1634| 
    2497 000001f7 92C7          MOV       AL,*XAR7              ; [CPU_] |1634| 
    2498 000001f8 9691          MOV       *+XAR1[AR0],AL        ; [CPU_] |1634| 
    2499                      .dwpsn  file "D:/BM1000/sw/modules/ctrl/src/32b/ctrl.h",line 1648,column 3,is_stmt,isa 0
    2500 000001f9 C56A          MOVL      XAR7,*-SP[42]         ; [CPU_] |1648| 
    2501 000001fa D09F          MOVB      XAR0,#159             ; [CPU_] |1648| 
    2502 000001fb DF0A          ADDB      XAR7,#10              ; [CPU_] |1648| 
    2503 000001fc 92C7          MOV       AL,*XAR7              ; [CPU_] |1648| 
    2504 000001fd 9691          MOV       *+XAR1[AR0],AL        ; [CPU_] |1648| 
    2505                      .dwpsn  file "D:/BM1000/sw/modules/ctrl/src/32b/ctrl.h",line 1167,column 3,is_stmt,isa 0
    2506 000001fe D09E          MOVB      XAR0,#158             ; [CPU_] |1167| 
    2507 000001ff 0694          MOVL      ACC,*+XAR4[AR0]       ; [CPU_] |1167| 
    2508 00000200 D0A0          MOVB      XAR0,#160             ; [CPU_] |1167| 
    2509 00000201 1E91          MOVL      *+XAR1[AR0],ACC       ; [CPU_] |1167| 
    2510                      .dwpsn  file "D:/BM1000/sw/modules/ctrl/src/32b/ctrl.h",line 1792,column 3,is_stmt,isa 0
    2511 00000202 D0A4          MOVB      XAR0,#164             ; [CPU_] |1792| 
    2512 00000203 0694          MOVL      ACC,*+XAR4[AR0]       ; [CPU_] |1792| 
    2513 00000204 D0A2          MOVB      XAR0,#162             ; [CPU_] |1792| 
    2514 00000205 1E91          MOVL      *+XAR1[AR0],ACC       ; [CPU_] |1792| 
    2515                      .dwpsn  file "D:/BM1000/sw/modules/ctrl/src/32b/ctrl.h",line 1805,column 3,is_stmt,isa 0
    2516 00000206 D0A4          MOVB      XAR0,#164             ; [CPU_] |1805| 
TMS320C2000 Assembler PC v15.12.3 Mon Sep 25 12:51:19 2017

Tools Copyright (c) 1996-2015 Texas Instruments Incorporated
C:\Users\wmj\AppData\Local\Temp\0412810                              PAGE   48

    2517 00000207 0694          MOVL      ACC,*+XAR4[AR0]       ; [CPU_] |1805| 
    2518              $C$DW$229       .dwtag  DW_TAG_TI_branch
    2519                      .dwattr $C$DW$229, DW_AT_low_pc(0x00)
    2520                      .dwattr $C$DW$229, DW_AT_name("UL$$TOFS")
    2521                      .dwattr $C$DW$229, DW_AT_TI_call
    2522              
    2523 00000208 7640!         LCR       #UL$$TOFS             ; [CPU_] |1805| 
         00000209 0000 
    2524                      ; call occurs [#UL$$TOFS] ; [] |1805| 
    2525 0000020a 1E42          MOVL      *-SP[2],ACC           ; [CPU_] |1805| 
    2526 0000020b FF2F          MOV       ACC,#32512 << 15      ; [CPU_] |1805| 
         0000020c 7F00 
    2527              $C$DW$230       .dwtag  DW_TAG_TI_branch
    2528                      .dwattr $C$DW$230, DW_AT_low_pc(0x00)
    2529                      .dwattr $C$DW$230, DW_AT_name("FS$$DIV")
    2530                      .dwattr $C$DW$230, DW_AT_TI_call
    2531              
    2532 0000020d 7640!         LCR       #FS$$DIV              ; [CPU_] |1805| 
         0000020e 0000 
    2533                      ; call occurs [#FS$$DIV] ; [] |1805| 
    2534 0000020f 5CAD          MOVZ      AR4,SP                ; [CPU_] |1805| 
    2535 00000210 DCA4          SUBB      XAR4,#36              ; [CPU_U] |1805| 
    2536 00000211 88A4          MOVZ      AR6,AR4               ; [CPU_] |1805| 
    2537              $C$DW$231       .dwtag  DW_TAG_TI_branch
    2538                      .dwattr $C$DW$231, DW_AT_low_pc(0x00)
    2539                      .dwattr $C$DW$231, DW_AT_name("FS$$TOFD")
    2540                      .dwattr $C$DW$231, DW_AT_TI_call
    2541              
    2542 00000212 7640!         LCR       #FS$$TOFD             ; [CPU_] |1805| 
         00000213 0000 
    2543                      ; call occurs [#FS$$TOFD] ; [] |1805| 
    2544 00000214 5DAD          MOVZ      AR5,SP                ; [CPU_] |1805| 
    2545 00000215 5CAD          MOVZ      AR4,SP                ; [CPU_] |1805| 
    2546 00000216 DDA0          SUBB      XAR5,#32              ; [CPU_U] |1805| 
    2547 00000217 DCA4          SUBB      XAR4,#36              ; [CPU_U] |1805| 
    2548 00000218 88A5          MOVZ      AR6,AR5               ; [CPU_] |1805| 
    2549 00000219 5CA4          MOVZ      AR4,AR4               ; [CPU_] |1805| 
    2550 0000021a 8F40+         MOVL      XAR5,#$C$FL1          ; [CPU_U] |1805| 
         0000021b 0000 
    2551              $C$DW$232       .dwtag  DW_TAG_TI_branch
    2552                      .dwattr $C$DW$232, DW_AT_low_pc(0x00)
    2553                      .dwattr $C$DW$232, DW_AT_name("FD$$MPY")
    2554                      .dwattr $C$DW$232, DW_AT_TI_call
    2555              
    2556 0000021c 7640!         LCR       #FD$$MPY              ; [CPU_] |1805| 
         0000021d 0000 
    2557                      ; call occurs [#FD$$MPY] ; [] |1805| 
    2558 0000021e 5CAD          MOVZ      AR4,SP                ; [CPU_] |1805| 
    2559 0000021f DCA0          SUBB      XAR4,#32              ; [CPU_U] |1805| 
    2560 00000220 5CA4          MOVZ      AR4,AR4               ; [CPU_] |1805| 
    2561              $C$DW$233       .dwtag  DW_TAG_TI_branch
    2562                      .dwattr $C$DW$233, DW_AT_low_pc(0x00)
    2563                      .dwattr $C$DW$233, DW_AT_name("FD$$TOL")
    2564                      .dwattr $C$DW$233, DW_AT_TI_call
    2565              
TMS320C2000 Assembler PC v15.12.3 Mon Sep 25 12:51:19 2017

Tools Copyright (c) 1996-2015 Texas Instruments Incorporated
C:\Users\wmj\AppData\Local\Temp\0412810                              PAGE   49

    2566 00000221 7640!         LCR       #FD$$TOL              ; [CPU_] |1805| 
         00000222 0000 
    2567                      ; call occurs [#FD$$TOL] ; [] |1805| 
    2568 00000223 D0A4          MOVB      XAR0,#164             ; [CPU_] |1805| 
    2569 00000224 1E91          MOVL      *+XAR1[AR0],ACC       ; [CPU_] |1805| 
    2570                      .dwpsn  file "D:/BM1000/sw/modules/ctrl/src/32b/ctrl.h",line 1180,column 3,is_stmt,isa 0
    2571 00000225 8A6A          MOVL      XAR4,*-SP[42]         ; [CPU_] |1180| 
    2572 00000226 D0A6          MOVB      XAR0,#166             ; [CPU_] |1180| 
    2573 00000227 0694          MOVL      ACC,*+XAR4[AR0]       ; [CPU_] |1180| 
    2574 00000228 D0A6          MOVB      XAR0,#166             ; [CPU_] |1180| 
    2575 00000229 1E91          MOVL      *+XAR1[AR0],ACC       ; [CPU_] |1180| 
    2576                      .dwpsn  file "D:/BM1000/sw/modules/ctrl/src/32b/ctrl.h",line 1546,column 3,is_stmt,isa 0
    2577 0000022a D030          MOVB      XAR0,#48              ; [CPU_] |1546| 
    2578 0000022b 0694          MOVL      ACC,*+XAR4[AR0]       ; [CPU_] |1546| 
    2579 0000022c 5CAD          MOVZ      AR4,SP                ; [CPU_] |1546| 
    2580 0000022d DCA4          SUBB      XAR4,#36              ; [CPU_U] |1546| 
    2581 0000022e 88A4          MOVZ      AR6,AR4               ; [CPU_] |1546| 
    2582              $C$DW$234       .dwtag  DW_TAG_TI_branch
    2583                      .dwattr $C$DW$234, DW_AT_low_pc(0x00)
    2584                      .dwattr $C$DW$234, DW_AT_name("FS$$TOFD")
    2585                      .dwattr $C$DW$234, DW_AT_TI_call
    2586              
    2587 0000022f 7640!         LCR       #FS$$TOFD             ; [CPU_] |1546| 
         00000230 0000 
    2588                      ; call occurs [#FS$$TOFD] ; [] |1546| 
    2589 00000231 5DAD          MOVZ      AR5,SP                ; [CPU_] |1546| 
    2590 00000232 5CAD          MOVZ      AR4,SP                ; [CPU_] |1546| 
    2591 00000233 DDA0          SUBB      XAR5,#32              ; [CPU_U] |1546| 
    2592 00000234 DCA4          SUBB      XAR4,#36              ; [CPU_U] |1546| 
    2593 00000235 88A5          MOVZ      AR6,AR5               ; [CPU_] |1546| 
    2594 00000236 5CA4          MOVZ      AR4,AR4               ; [CPU_] |1546| 
    2595 00000237 8F40+         MOVL      XAR5,#$C$FL1          ; [CPU_U] |1546| 
         00000238 0000 
    2596              $C$DW$235       .dwtag  DW_TAG_TI_branch
    2597                      .dwattr $C$DW$235, DW_AT_low_pc(0x00)
    2598                      .dwattr $C$DW$235, DW_AT_name("FD$$MPY")
    2599                      .dwattr $C$DW$235, DW_AT_TI_call
    2600              
    2601 00000239 7640!         LCR       #FD$$MPY              ; [CPU_] |1546| 
         0000023a 0000 
    2602                      ; call occurs [#FD$$MPY] ; [] |1546| 
    2603 0000023b 5CAD          MOVZ      AR4,SP                ; [CPU_] |1546| 
    2604 0000023c DCA0          SUBB      XAR4,#32              ; [CPU_U] |1546| 
    2605 0000023d 5CA4          MOVZ      AR4,AR4               ; [CPU_] |1546| 
    2606              $C$DW$236       .dwtag  DW_TAG_TI_branch
    2607                      .dwattr $C$DW$236, DW_AT_low_pc(0x00)
    2608                      .dwattr $C$DW$236, DW_AT_name("FD$$TOL")
    2609                      .dwattr $C$DW$236, DW_AT_TI_call
    2610              
    2611 0000023e 7640!         LCR       #FD$$TOL              ; [CPU_] |1546| 
         0000023f 0000 
    2612                      ; call occurs [#FD$$TOL] ; [] |1546| 
    2613 00000240 D0A8          MOVB      XAR0,#168             ; [CPU_] |1546| 
    2614 00000241 1E91          MOVL      *+XAR1[AR0],ACC       ; [CPU_] |1546| 
    2615                      .dwpsn  file "D:/BM1000/sw/modules/ctrl/src/32b/ctrl.h",line 1327,column 3,is_stmt,isa 0
TMS320C2000 Assembler PC v15.12.3 Mon Sep 25 12:51:19 2017

Tools Copyright (c) 1996-2015 Texas Instruments Incorporated
C:\Users\wmj\AppData\Local\Temp\0412810                              PAGE   50

    2616 00000242 D0AA          MOVB      XAR0,#170             ; [CPU_] |1327| 
    2617 00000243 0648          MOVL      ACC,*-SP[8]           ; [CPU_] |1327| 
    2618                      .dwpsn  file "D:/BM1000/sw/modules/ctrl/src/32b/ctrl.c",line 336,column 3,is_stmt,isa 0
    2619 00000244 8AA1          MOVL      XAR4,XAR1             ; [CPU_] |336| 
    2620                      .dwpsn  file "D:/BM1000/sw/modules/ctrl/src/32b/ctrl.h",line 1327,column 3,is_stmt,isa 0
    2621 00000245 1E91          MOVL      *+XAR1[AR0],ACC       ; [CPU_] |1327| 
    2622                      .dwpsn  file "D:/BM1000/sw/modules/ctrl/src/32b/ctrl.h",line 1328,column 3,is_stmt,isa 0
    2623 00000246 D0AC          MOVB      XAR0,#172             ; [CPU_] |1328| 
    2624 00000247 0646          MOVL      ACC,*-SP[6]           ; [CPU_] |1328| 
    2625 00000248 1E91          MOVL      *+XAR1[AR0],ACC       ; [CPU_] |1328| 
    2626                      .dwpsn  file "D:/BM1000/sw/modules/ctrl/src/32b/ctrl.h",line 1360,column 3,is_stmt,isa 0
    2627 00000249 D0B2          MOVB      XAR0,#178             ; [CPU_] |1360| 
    2628 0000024a 064C          MOVL      ACC,*-SP[12]          ; [CPU_] |1360| 
    2629 0000024b 1E91          MOVL      *+XAR1[AR0],ACC       ; [CPU_] |1360| 
    2630                      .dwpsn  file "D:/BM1000/sw/modules/ctrl/src/32b/ctrl.h",line 1361,column 3,is_stmt,isa 0
    2631 0000024c D0B4          MOVB      XAR0,#180             ; [CPU_] |1361| 
    2632 0000024d 064A          MOVL      ACC,*-SP[10]          ; [CPU_] |1361| 
    2633 0000024e 1E91          MOVL      *+XAR1[AR0],ACC       ; [CPU_] |1361| 
    2634                      .dwpsn  file "D:/BM1000/sw/modules/ctrl/src/32b/ctrl.h",line 1388,column 3,is_stmt,isa 0
    2635 0000024f D0E2          MOVB      XAR0,#226             ; [CPU_] |1388| 
    2636 00000250 0650          MOVL      ACC,*-SP[16]          ; [CPU_] |1388| 
    2637 00000251 1E91          MOVL      *+XAR1[AR0],ACC       ; [CPU_] |1388| 
    2638                      .dwpsn  file "D:/BM1000/sw/modules/ctrl/src/32b/ctrl.h",line 1389,column 3,is_stmt,isa 0
    2639 00000252 D0E4          MOVB      XAR0,#228             ; [CPU_] |1389| 
    2640 00000253 064E          MOVL      ACC,*-SP[14]          ; [CPU_] |1389| 
    2641 00000254 1E91          MOVL      *+XAR1[AR0],ACC       ; [CPU_] |1389| 
    2642                      .dwpsn  file "D:/BM1000/sw/modules/ctrl/src/32b/ctrl.c",line 336,column 3,is_stmt,isa 0
    2643              $C$DW$237       .dwtag  DW_TAG_TI_branch
    2644                      .dwattr $C$DW$237, DW_AT_low_pc(0x00)
    2645                      .dwattr $C$DW$237, DW_AT_name("_CTRL_setBrake")
    2646                      .dwattr $C$DW$237, DW_AT_TI_call
    2647              
    2648 00000255 7640'         LCR       #_CTRL_setBrake       ; [CPU_] |336| 
         00000256 0167 
    2649                      ; call occurs [#_CTRL_setBrake] ; [] |336| 
    2650                      .dwpsn  file "D:/BM1000/sw/drivers/drvic/brake.h",line 71,column 3,is_stmt,isa 0
    2651 00000257 B2A9          MOVL      ACC,XAR1              ; [CPU_] |71| 
    2652 00000258 FF13          ADD       ACC,#33 << 3          ; [CPU_] |71| 
         00000259 0021 
    2653 0000025a 8AA9          MOVL      XAR4,ACC              ; [CPU_] |71| 
    2654 0000025b BE00          MOVB      XAR6,#0               ; [CPU_] |71| 
    2655 0000025c 8AC4          MOVL      XAR4,*+XAR4[0]        ; [CPU_] |71| 
    2656                      .dwpsn  file "D:/BM1000/sw/drivers/drvic/brake.h",line 81,column 3,is_stmt,isa 0
    2657 0000025d B2A9          MOVL      ACC,XAR1              ; [CPU_] |81| 
    2658 0000025e FF13          ADD       ACC,#33 << 3          ; [CPU_] |81| 
         0000025f 0021 
    2659                      .dwpsn  file "D:/BM1000/sw/drivers/drvic/brake.h",line 71,column 3,is_stmt,isa 0
    2660 00000260 C2D4          MOVL      *+XAR4[2],XAR6        ; [CPU_] |71| 
    2661                      .dwpsn  file "D:/BM1000/sw/drivers/drvic/brake.h",line 81,column 3,is_stmt,isa 0
    2662 00000261 8AA9          MOVL      XAR4,ACC              ; [CPU_] |81| 
    2663 00000262 8AC4          MOVL      XAR4,*+XAR4[0]        ; [CPU_] |81| 
    2664                      .dwpsn  file "D:/BM1000/sw/drivers/drvic/brake.h",line 97,column 3,is_stmt,isa 0
    2665 00000263 B2A9          MOVL      ACC,XAR1              ; [CPU_] |97| 
    2666                      .dwpsn  file "D:/BM1000/sw/drivers/drvic/brake.h",line 81,column 3,is_stmt,isa 0
    2667 00000264 8F59          MOVL      XAR5,#1677721         ; [CPU_U] |81| 
TMS320C2000 Assembler PC v15.12.3 Mon Sep 25 12:51:19 2017

Tools Copyright (c) 1996-2015 Texas Instruments Incorporated
C:\Users\wmj\AppData\Local\Temp\0412810                              PAGE   51

         00000265 9999 
    2668                      .dwpsn  file "D:/BM1000/sw/drivers/drvic/brake.h",line 97,column 3,is_stmt,isa 0
    2669 00000266 FF13          ADD       ACC,#33 << 3          ; [CPU_] |97| 
         00000267 0021 
    2670                      .dwpsn  file "D:/BM1000/sw/drivers/drvic/brake.h",line 81,column 3,is_stmt,isa 0
    2671 00000268 A0E4          MOVL      *+XAR4[4],XAR5        ; [CPU_] |81| 
    2672                      .dwpsn  file "D:/BM1000/sw/drivers/drvic/brake.h",line 97,column 3,is_stmt,isa 0
    2673 00000269 8AA9          MOVL      XAR4,ACC              ; [CPU_] |97| 
    2674 0000026a 8AC4          MOVL      XAR4,*+XAR4[0]        ; [CPU_] |97| 
    2675 0000026b 2BF4          MOV       *+XAR4[6],#0          ; [CPU_] |97| 
    2676 0000026c 8A6A          MOVL      XAR4,*-SP[42]         ; [CPU_] |97| 
    2677                      .dwpsn  file "D:/BM1000/sw/modules/ctrl/src/32b/ctrl.h",line 1402,column 3,is_stmt,isa 0
    2678 0000026d D04A          MOVB      XAR0,#74              ; [CPU_] |1402| 
    2679 0000026e 06C4          MOVL      ACC,*+XAR4[0]         ; [CPU_] |1402| 
    2680 0000026f 1E42          MOVL      *-SP[2],ACC           ; [CPU_] |1402| 
    2681 00000270 0694          MOVL      ACC,*+XAR4[AR0]       ; [CPU_] |1402| 
    2682              $C$DW$238       .dwtag  DW_TAG_TI_branch
    2683                      .dwattr $C$DW$238, DW_AT_low_pc(0x00)
    2684                      .dwattr $C$DW$238, DW_AT_name("FS$$DIV")
    2685                      .dwattr $C$DW$238, DW_AT_TI_call
    2686              
    2687 00000271 7640!         LCR       #FS$$DIV              ; [CPU_] |1402| 
         00000272 0000 
    2688                      ; call occurs [#FS$$DIV] ; [] |1402| 
    2689 00000273 5CAD          MOVZ      AR4,SP                ; [CPU_] |1402| 
    2690 00000274 DCA4          SUBB      XAR4,#36              ; [CPU_U] |1402| 
    2691 00000275 88A4          MOVZ      AR6,AR4               ; [CPU_] |1402| 
    2692              $C$DW$239       .dwtag  DW_TAG_TI_branch
    2693                      .dwattr $C$DW$239, DW_AT_low_pc(0x00)
    2694                      .dwattr $C$DW$239, DW_AT_name("FS$$TOFD")
    2695                      .dwattr $C$DW$239, DW_AT_TI_call
    2696              
    2697 00000276 7640!         LCR       #FS$$TOFD             ; [CPU_] |1402| 
         00000277 0000 
    2698                      ; call occurs [#FS$$TOFD] ; [] |1402| 
    2699 00000278 5DAD          MOVZ      AR5,SP                ; [CPU_] |1402| 
    2700 00000279 5CAD          MOVZ      AR4,SP                ; [CPU_] |1402| 
    2701 0000027a DDA0          SUBB      XAR5,#32              ; [CPU_U] |1402| 
    2702 0000027b DCA4          SUBB      XAR4,#36              ; [CPU_U] |1402| 
    2703 0000027c 88A5          MOVZ      AR6,AR5               ; [CPU_] |1402| 
    2704 0000027d 5CA4          MOVZ      AR4,AR4               ; [CPU_] |1402| 
    2705 0000027e 8F40+         MOVL      XAR5,#$C$FL1          ; [CPU_U] |1402| 
         0000027f 0000 
    2706              $C$DW$240       .dwtag  DW_TAG_TI_branch
    2707                      .dwattr $C$DW$240, DW_AT_low_pc(0x00)
    2708                      .dwattr $C$DW$240, DW_AT_name("FD$$MPY")
    2709                      .dwattr $C$DW$240, DW_AT_TI_call
    2710              
    2711 00000280 7640!         LCR       #FD$$MPY              ; [CPU_] |1402| 
         00000281 0000 
    2712                      ; call occurs [#FD$$MPY] ; [] |1402| 
    2713 00000282 5CAD          MOVZ      AR4,SP                ; [CPU_] |1402| 
    2714 00000283 DCA0          SUBB      XAR4,#32              ; [CPU_U] |1402| 
    2715 00000284 5CA4          MOVZ      AR4,AR4               ; [CPU_] |1402| 
    2716              $C$DW$241       .dwtag  DW_TAG_TI_branch
TMS320C2000 Assembler PC v15.12.3 Mon Sep 25 12:51:19 2017

Tools Copyright (c) 1996-2015 Texas Instruments Incorporated
C:\Users\wmj\AppData\Local\Temp\0412810                              PAGE   52

    2717                      .dwattr $C$DW$241, DW_AT_low_pc(0x00)
    2718                      .dwattr $C$DW$241, DW_AT_name("FD$$TOL")
    2719                      .dwattr $C$DW$241, DW_AT_TI_call
    2720              
    2721 00000285 7640!         LCR       #FD$$TOL              ; [CPU_] |1402| 
         00000286 0000 
    2722                      ; call occurs [#FD$$TOL] ; [] |1402| 
    2723 00000287 D0E6          MOVB      XAR0,#230             ; [CPU_] |1402| 
    2724 00000288 1E91          MOVL      *+XAR1[AR0],ACC       ; [CPU_] |1402| 
    2725                      .dwpsn  file "D:/BM1000/sw/modules/ctrl/src/32b/ctrl.h",line 1888,column 3,is_stmt,isa 0
    2726 00000289 D0B6          MOVB      XAR0,#182             ; [CPU_] |1888| 
    2727 0000028a 0654          MOVL      ACC,*-SP[20]          ; [CPU_] |1888| 
    2728 0000028b 1E91          MOVL      *+XAR1[AR0],ACC       ; [CPU_] |1888| 
    2729                      .dwpsn  file "D:/BM1000/sw/modules/ctrl/src/32b/ctrl.h",line 1889,column 3,is_stmt,isa 0
    2730 0000028c D0B8          MOVB      XAR0,#184             ; [CPU_] |1889| 
    2731 0000028d 0652          MOVL      ACC,*-SP[18]          ; [CPU_] |1889| 
    2732 0000028e 1E91          MOVL      *+XAR1[AR0],ACC       ; [CPU_] |1889| 
    2733                      .dwpsn  file "D:/BM1000/sw/modules/ctrl/src/32b/ctrl.h",line 1902,column 3,is_stmt,isa 0
    2734 0000028f D0BC          MOVB      XAR0,#188             ; [CPU_] |1902| 
    2735 00000290 0658          MOVL      ACC,*-SP[24]          ; [CPU_] |1902| 
    2736 00000291 1E91          MOVL      *+XAR1[AR0],ACC       ; [CPU_] |1902| 
    2737                      .dwpsn  file "D:/BM1000/sw/modules/ctrl/src/32b/ctrl.h",line 1903,column 3,is_stmt,isa 0
    2738 00000292 D0BE          MOVB      XAR0,#190             ; [CPU_] |1903| 
    2739 00000293 0656          MOVL      ACC,*-SP[22]          ; [CPU_] |1903| 
    2740 00000294 1E91          MOVL      *+XAR1[AR0],ACC       ; [CPU_] |1903| 
    2741                      .dwpsn  file "D:/BM1000/sw/modules/ctrl/src/32b/ctrl.h",line 1930,column 3,is_stmt,isa 0
    2742 00000295 D0C0          MOVB      XAR0,#192             ; [CPU_] |1930| 
    2743 00000296 065C          MOVL      ACC,*-SP[28]          ; [CPU_] |1930| 
    2744 00000297 1E91          MOVL      *+XAR1[AR0],ACC       ; [CPU_] |1930| 
    2745                      .dwpsn  file "D:/BM1000/sw/modules/ctrl/src/32b/ctrl.h",line 1931,column 3,is_stmt,isa 0
    2746 00000298 D0C2          MOVB      XAR0,#194             ; [CPU_] |1931| 
    2747 00000299 065A          MOVL      ACC,*-SP[26]          ; [CPU_] |1931| 
    2748 0000029a 1E91          MOVL      *+XAR1[AR0],ACC       ; [CPU_] |1931| 
    2749                      .dwpsn  file "D:/BM1000/sw/modules/ctrl/src/32b/ctrl.h",line 1727,column 3,is_stmt,isa 0
    2750 0000029b D0BA          MOVB      XAR0,#186             ; [CPU_] |1727| 
    2751 0000029c 0200          MOVB      ACC,#0                ; [CPU_] |1727| 
    2752 0000029d 1E91          MOVL      *+XAR1[AR0],ACC       ; [CPU_] |1727| 
    2753                      .dwpsn  file "D:/BM1000/sw/modules/ctrl/src/32b/ctrl.h",line 1675,column 3,is_stmt,isa 0
    2754 0000029e D0C4          MOVB      XAR0,#196             ; [CPU_] |1675| 
    2755 0000029f 9A00          MOV       AL,#0                 ; [CPU_] |1675| 
    2756 000002a0 9B00          MOV       AH,#0                 ; [CPU_] |1675| 
    2757 000002a1 1E91          MOVL      *+XAR1[AR0],ACC       ; [CPU_] |1675| 
    2758                      .dwpsn  file "D:/BM1000/sw/modules/ctrl/src/32b/ctrl.h",line 1527,column 3,is_stmt,isa 0
    2759 000002a2 D0C6          MOVB      XAR0,#198             ; [CPU_] |1527| 
    2760 000002a3 1E91          MOVL      *+XAR1[AR0],ACC       ; [CPU_] |1527| 
    2761                      .dwpsn  file "D:/BM1000/sw/modules/ctrl/src/32b/ctrl.h",line 1688,column 3,is_stmt,isa 0
    2762 000002a4 D0C8          MOVB      XAR0,#200             ; [CPU_] |1688| 
    2763 000002a5 1E91          MOVL      *+XAR1[AR0],ACC       ; [CPU_] |1688| 
    2764                      .dwpsn  file "D:/BM1000/sw/modules/ctrl/src/32b/ctrl.h",line 1075,column 3,is_stmt,isa 0
    2765 000002a6 D0EC          MOVB      XAR0,#236             ; [CPU_] |1075| 
    2766                      .dwpsn  file "D:/BM1000/sw/modules/ctrl/src/32b/ctrl.h",line 1111,column 3,is_stmt,isa 0
    2767 000002a7 0200          MOVB      ACC,#0                ; [CPU_] |1111| 
    2768                      .dwpsn  file "D:/BM1000/sw/modules/ctrl/src/32b/ctrl.h",line 1075,column 3,is_stmt,isa 0
    2769 000002a8 2B91          MOV       *+XAR1[AR0],#0        ; [CPU_] |1075| 
    2770                      .dwpsn  file "D:/BM1000/sw/modules/ctrl/src/32b/ctrl.h",line 1087,column 3,is_stmt,isa 0
TMS320C2000 Assembler PC v15.12.3 Mon Sep 25 12:51:19 2017

Tools Copyright (c) 1996-2015 Texas Instruments Incorporated
C:\Users\wmj\AppData\Local\Temp\0412810                              PAGE   53

    2771 000002a9 D0ED          MOVB      XAR0,#237             ; [CPU_] |1087| 
    2772 000002aa 56BF          MOVB      *+XAR1[AR0],#1,UNC    ; [CPU_] |1087| 
         000002ab 0191 
    2773                      .dwpsn  file "D:/BM1000/sw/modules/ctrl/src/32b/ctrl.h",line 1099,column 3,is_stmt,isa 0
    2774 000002ac D0EE          MOVB      XAR0,#238             ; [CPU_] |1099| 
    2775 000002ad 2B91          MOV       *+XAR1[AR0],#0        ; [CPU_] |1099| 
    2776                      .dwpsn  file "D:/BM1000/sw/modules/ctrl/src/32b/ctrl.h",line 1111,column 3,is_stmt,isa 0
    2777 000002ae D09A          MOVB      XAR0,#154             ; [CPU_] |1111| 
    2778 000002af 1E91          MOVL      *+XAR1[AR0],ACC       ; [CPU_] |1111| 
    2779                      .dwpsn  file "D:/BM1000/sw/modules/ctrl/src/32b/ctrl.h",line 1123,column 3,is_stmt,isa 0
    2780 000002b0 D0EF          MOVB      XAR0,#239             ; [CPU_] |1123| 
    2781 000002b1 2B91          MOV       *+XAR1[AR0],#0        ; [CPU_] |1123| 
    2782 000002b2 836A          MOVL      XAR5,*-SP[42]         ; [CPU_] |1123| 
    2783                      .dwpsn  file "D:/BM1000/sw/modules/ctrl/src/32b/ctrl.c",line 363,column 3,is_stmt,isa 0
    2784 000002b3 8AA1          MOVL      XAR4,XAR1             ; [CPU_] |363| 
    2785 000002b4 DD54          ADDB      XAR5,#84              ; [CPU_] |363| 
    2786              $C$DW$242       .dwtag  DW_TAG_TI_branch
    2787                      .dwattr $C$DW$242, DW_AT_low_pc(0x00)
    2788                      .dwattr $C$DW$242, DW_AT_name("_CTRL_setWaitTimes")
    2789                      .dwattr $C$DW$242, DW_AT_TI_call
    2790              
    2791 000002b5 7640'         LCR       #_CTRL_setWaitTimes   ; [CPU_] |363| 
         000002b6 0148 
    2792                      ; call occurs [#_CTRL_setWaitTimes] ; [] |363| 
    2793                      .dwpsn  file "D:/BM1000/sw/modules/ctrl/src/32b/ctrl.h",line 1262,column 3,is_stmt,isa 0
    2794 000002b7 D0F2          MOVB      XAR0,#242             ; [CPU_] |1262| 
    2795 000002b8 2B91          MOV       *+XAR1[AR0],#0        ; [CPU_] |1262| 
    2796                      .dwpsn  file "D:/BM1000/sw/modules/ctrl/src/32b/ctrl.h",line 1231,column 3,is_stmt,isa 0
    2797 000002b9 B2A9          MOVL      ACC,XAR1              ; [CPU_] |1231| 
    2798                      .dwpsn  file "D:/BM1000/sw/modules/ctrl/src/32b/ctrl.h",line 1218,column 3,is_stmt,isa 0
    2799 000002ba D0F0          MOVB      XAR0,#240             ; [CPU_] |1218| 
    2800 000002bb 2B91          MOV       *+XAR1[AR0],#0        ; [CPU_] |1218| 
    2801                      .dwpsn  file "D:/BM1000/sw/modules/ctrl/src/32b/ctrl.h",line 1231,column 3,is_stmt,isa 0
    2802 000002bc FF11          ADD       ACC,#131 << 1         ; [CPU_] |1231| 
         000002bd 0083 
    2803                      .dwpsn  file "D:/BM1000/sw/modules/ctrl/src/32b/ctrl.h",line 1275,column 3,is_stmt,isa 0
    2804 000002be D0F3          MOVB      XAR0,#243             ; [CPU_] |1275| 
    2805 000002bf 56BF          MOVB      *+XAR1[AR0],#1,UNC    ; [CPU_] |1275| 
         000002c0 0191 
    2806                      .dwpsn  file "D:/BM1000/sw/modules/ctrl/src/32b/ctrl.h",line 1231,column 3,is_stmt,isa 0
    2807 000002c1 8AA9          MOVL      XAR4,ACC              ; [CPU_] |1231| 
    2808                      .dwpsn  file "D:/BM1000/sw/modules/ctrl/src/32b/ctrl.h",line 1288,column 3,is_stmt,isa 0
    2809 000002c2 D0F4          MOVB      XAR0,#244             ; [CPU_] |1288| 
    2810 000002c3 56BF          MOVB      *+XAR1[AR0],#1,UNC    ; [CPU_] |1288| 
         000002c4 0191 
    2811                      .dwpsn  file "D:/BM1000/sw/modules/ctrl/src/32b/ctrl.h",line 1304,column 3,is_stmt,isa 0
    2812 000002c5 D0F5          MOVB      XAR0,#245             ; [CPU_] |1304| 
    2813 000002c6 2B91          MOV       *+XAR1[AR0],#0        ; [CPU_] |1304| 
    2814                      .dwpsn  file "D:/BM1000/sw/modules/ctrl/src/32b/ctrl.h",line 1246,column 3,is_stmt,isa 0
    2815 000002c7 D0F1          MOVB      XAR0,#241             ; [CPU_] |1246| 
    2816 000002c8 56BF          MOVB      *+XAR1[AR0],#1,UNC    ; [CPU_] |1246| 
         000002c9 0191 
    2817                      .dwpsn  file "D:/BM1000/sw/modules/ctrl/src/32b/ctrl.h",line 1231,column 3,is_stmt,isa 0
    2818 000002ca 56BF          MOVB      *+XAR4[0],#1,UNC      ; [CPU_] |1231| 
         000002cb 01C4 
TMS320C2000 Assembler PC v15.12.3 Mon Sep 25 12:51:19 2017

Tools Copyright (c) 1996-2015 Texas Instruments Incorporated
C:\Users\wmj\AppData\Local\Temp\0412810                              PAGE   54

    2819                      .dwpsn  file "D:/BM1000/sw/modules/ctrl/src/32b/ctrl.h",line 1193,column 3,is_stmt,isa 0
    2820 000002cc 2BF1          MOV       *+XAR1[6],#0          ; [CPU_] |1193| 
    2821                      .dwpsn  file "D:/BM1000/sw/modules/ctrl/src/32b/ctrl.h",line 1778,column 3,is_stmt,isa 0
    2822 000002cd 92E1          MOV       AL,*+XAR1[4]          ; [CPU_] |1778| 
    2823 000002ce 96E9          MOV       *+XAR1[5],AL          ; [CPU_] |1778| 
    2824                      .dwpsn  file "D:/BM1000/sw/modules/ctrl/src/32b/ctrl.h",line 1779,column 3,is_stmt,isa 0
    2825 000002cf 56BF          MOVB      *+XAR1[4],#1,UNC      ; [CPU_] |1779| 
         000002d0 01E1 
    2826                      .dwpsn  file "D:/BM1000/sw/modules/ctrl/src/32b/ctrl.c",line 386,column 3,is_stmt,isa 0
    2827 000002d1 8A6A          MOVL      XAR4,*-SP[42]         ; [CPU_] |386| 
    2828 000002d2 D00B          MOVB      XAR0,#11              ; [CPU_] |386| 
    2829 000002d3 9294          MOV       AL,*+XAR4[AR0]        ; [CPU_] |386| 
    2830 000002d4 8AA1          MOVL      XAR4,XAR1             ; [CPU_] |386| 
    2831              $C$DW$243       .dwtag  DW_TAG_TI_branch
    2832                      .dwattr $C$DW$243, DW_AT_low_pc(0x00)
    2833                      .dwattr $C$DW$243, DW_AT_name("_CTRL_setupClarke_I")
    2834                      .dwattr $C$DW$243, DW_AT_TI_call
    2835              
    2836 000002d5 7640'         LCR       #_CTRL_setupClarke_I  ; [CPU_] |386| 
         000002d6 012C 
    2837                      ; call occurs [#_CTRL_setupClarke_I] ; [] |386| 
    2838                      .dwpsn  file "D:/BM1000/sw/modules/ctrl/src/32b/ctrl.c",line 390,column 3,is_stmt,isa 0
    2839 000002d7 8A6A          MOVL      XAR4,*-SP[42]         ; [CPU_] |390| 
    2840 000002d8 D00C          MOVB      XAR0,#12              ; [CPU_] |390| 
    2841 000002d9 9294          MOV       AL,*+XAR4[AR0]        ; [CPU_] |390| 
    2842 000002da 8AA1          MOVL      XAR4,XAR1             ; [CPU_] |390| 
    2843              $C$DW$244       .dwtag  DW_TAG_TI_branch
    2844                      .dwattr $C$DW$244, DW_AT_low_pc(0x00)
    2845                      .dwattr $C$DW$244, DW_AT_name("_CTRL_setupClarke_V")
    2846                      .dwattr $C$DW$244, DW_AT_TI_call
    2847              
    2848 000002db 7640'         LCR       #_CTRL_setupClarke_V  ; [CPU_] |390| 
         000002dc 0116 
    2849                      ; call occurs [#_CTRL_setupClarke_V] ; [] |390| 
    2850                      .dwpsn  file "D:/BM1000/sw/modules/ctrl/src/32b/ctrl.c",line 395,column 3,is_stmt,isa 0
    2851 000002dd 28A9          MOV       AL,#4719              ; [CPU_] |395| 
         000002de 126F 
    2852 000002df 8A6A          MOVL      XAR4,*-SP[42]         ; [CPU_] |395| 
    2853 000002e0 28A8          MOV       AH,#15235             ; [CPU_] |395| 
         000002e1 3B83 
    2854 000002e2 D0A6          MOVB      XAR0,#166             ; [CPU_] |395| 
    2855 000002e3 1E42          MOVL      *-SP[2],ACC           ; [CPU_] |395| 
    2856 000002e4 0694          MOVL      ACC,*+XAR4[AR0]       ; [CPU_] |395| 
    2857              $C$DW$245       .dwtag  DW_TAG_TI_branch
    2858                      .dwattr $C$DW$245, DW_AT_low_pc(0x00)
    2859                      .dwattr $C$DW$245, DW_AT_name("FS$$DIV")
    2860                      .dwattr $C$DW$245, DW_AT_TI_call
    2861              
    2862 000002e5 7640!         LCR       #FS$$DIV              ; [CPU_] |395| 
         000002e6 0000 
    2863                      ; call occurs [#FS$$DIV] ; [] |395| 
    2864 000002e7 5CAD          MOVZ      AR4,SP                ; [CPU_] |395| 
    2865 000002e8 DCA4          SUBB      XAR4,#36              ; [CPU_U] |395| 
    2866 000002e9 88A4          MOVZ      AR6,AR4               ; [CPU_] |395| 
    2867              $C$DW$246       .dwtag  DW_TAG_TI_branch
TMS320C2000 Assembler PC v15.12.3 Mon Sep 25 12:51:19 2017

Tools Copyright (c) 1996-2015 Texas Instruments Incorporated
C:\Users\wmj\AppData\Local\Temp\0412810                              PAGE   55

    2868                      .dwattr $C$DW$246, DW_AT_low_pc(0x00)
    2869                      .dwattr $C$DW$246, DW_AT_name("FS$$TOFD")
    2870                      .dwattr $C$DW$246, DW_AT_TI_call
    2871              
    2872 000002ea 7640!         LCR       #FS$$TOFD             ; [CPU_] |395| 
         000002eb 0000 
    2873                      ; call occurs [#FS$$TOFD] ; [] |395| 
    2874 000002ec 5DAD          MOVZ      AR5,SP                ; [CPU_] |395| 
    2875 000002ed 5CAD          MOVZ      AR4,SP                ; [CPU_] |395| 
    2876 000002ee DDA0          SUBB      XAR5,#32              ; [CPU_U] |395| 
    2877 000002ef DCA4          SUBB      XAR4,#36              ; [CPU_U] |395| 
    2878 000002f0 88A5          MOVZ      AR6,AR5               ; [CPU_] |395| 
    2879 000002f1 5CA4          MOVZ      AR4,AR4               ; [CPU_] |395| 
    2880 000002f2 8F40+         MOVL      XAR5,#$C$FL1          ; [CPU_U] |395| 
         000002f3 0000 
    2881              $C$DW$247       .dwtag  DW_TAG_TI_branch
    2882                      .dwattr $C$DW$247, DW_AT_low_pc(0x00)
    2883                      .dwattr $C$DW$247, DW_AT_name("FD$$MPY")
    2884                      .dwattr $C$DW$247, DW_AT_TI_call
    2885              
    2886 000002f4 7640!         LCR       #FD$$MPY              ; [CPU_] |395| 
         000002f5 0000 
    2887                      ; call occurs [#FD$$MPY] ; [] |395| 
    2888 000002f6 5CAD          MOVZ      AR4,SP                ; [CPU_] |395| 
    2889 000002f7 DCA0          SUBB      XAR4,#32              ; [CPU_U] |395| 
    2890 000002f8 5CA4          MOVZ      AR4,AR4               ; [CPU_] |395| 
    2891              $C$DW$248       .dwtag  DW_TAG_TI_branch
    2892                      .dwattr $C$DW$248, DW_AT_low_pc(0x00)
    2893                      .dwattr $C$DW$248, DW_AT_name("FD$$TOL")
    2894                      .dwattr $C$DW$248, DW_AT_TI_call
    2895              
    2896 000002f9 7640!         LCR       #FD$$TOL              ; [CPU_] |395| 
         000002fa 0000 
    2897                      ; call occurs [#FD$$TOL] ; [] |395| 
    2898                      .dwpsn  file "D:/BM1000/sw/modules/pid/src/32b/pid.h",line 303,column 16,is_stmt,isa 0
    2899 000002fb D020          MOVB      XAR0,#32              ; [CPU_] |303| 
    2900 000002fc 8A91          MOVL      XAR4,*+XAR1[AR0]      ; [CPU_] |303| 
    2901                      .dwpsn  file "D:/BM1000/sw/modules/pid/src/32b/pid.h",line 305,column 3,is_stmt,isa 0
    2902 000002fd 8F59          MOVL      XAR5,#1677721         ; [CPU_U] |305| 
         000002fe 9999 
    2903                      .dwpsn  file "D:/BM1000/sw/modules/ctrl/src/32b/ctrl.c",line 395,column 3,is_stmt,isa 0
    2904 000002ff 1EA6          MOVL      XAR6,ACC              ; [CPU_] |395| 
    2905                      .dwpsn  file "D:/BM1000/sw/modules/pid/src/32b/pid.h",line 413,column 3,is_stmt,isa 0
    2906 00000300 D020          MOVB      XAR0,#32              ; [CPU_] |413| 
    2907                      .dwpsn  file "D:/BM1000/sw/modules/pid/src/32b/pid.h",line 305,column 3,is_stmt,isa 0
    2908 00000301 A0C4          MOVL      *+XAR4[0],XAR5        ; [CPU_] |305| 
    2909                      .dwpsn  file "D:/BM1000/sw/modules/pid/src/32b/pid.h",line 306,column 3,is_stmt,isa 0
    2910 00000302 1ED4          MOVL      *+XAR4[2],ACC         ; [CPU_] |306| 
    2911                      .dwpsn  file "D:/BM1000/sw/modules/pid/src/32b/pid.h",line 307,column 3,is_stmt,isa 0
    2912 00000303 0200          MOVB      ACC,#0                ; [CPU_] |307| 
    2913 00000304 1EE4          MOVL      *+XAR4[4],ACC         ; [CPU_] |307| 
    2914                      .dwpsn  file "D:/BM1000/sw/modules/pid/src/32b/pid.h",line 413,column 3,is_stmt,isa 0
    2915 00000305 8A91          MOVL      XAR4,*+XAR1[AR0]      ; [CPU_] |413| 
    2916                      .dwpsn  file "D:/BM1000/sw/modules/pid/src/32b/pid.h",line 358,column 16,is_stmt,isa 0
    2917 00000306 D020          MOVB      XAR0,#32              ; [CPU_] |358| 
TMS320C2000 Assembler PC v15.12.3 Mon Sep 25 12:51:19 2017

Tools Copyright (c) 1996-2015 Texas Instruments Incorporated
C:\Users\wmj\AppData\Local\Temp\0412810                              PAGE   56

    2918                      .dwpsn  file "D:/BM1000/sw/modules/pid/src/32b/pid.h",line 413,column 3,is_stmt,isa 0
    2919 00000307 1EF4          MOVL      *+XAR4[6],ACC         ; [CPU_] |413| 
    2920                      .dwpsn  file "D:/BM1000/sw/modules/pid/src/32b/pid.h",line 360,column 3,is_stmt,isa 0
    2921 00000308 28A9          MOV       AL,#52429             ; [CPU_] |360| 
         00000309 CCCD 
    2922                      .dwpsn  file "D:/BM1000/sw/modules/pid/src/32b/pid.h",line 358,column 16,is_stmt,isa 0
    2923 0000030a 8A91          MOVL      XAR4,*+XAR1[AR0]      ; [CPU_] |358| 
    2924                      .dwpsn  file "D:/BM1000/sw/modules/pid/src/32b/pid.h",line 360,column 3,is_stmt,isa 0
    2925 0000030b 28A8          MOV       AH,#65292             ; [CPU_] |360| 
         0000030c FF0C 
    2926                      .dwpsn  file "D:/BM1000/sw/modules/ctrl/src/32b/ctrl.c",line 403,column 3,is_stmt,isa 0
    2927 0000030d D501          MOVB      XAR5,#1               ; [CPU_] |403| 
    2928                      .dwpsn  file "D:/BM1000/sw/modules/pid/src/32b/pid.h",line 360,column 3,is_stmt,isa 0
    2929 0000030e D00C          MOVB      XAR0,#12              ; [CPU_] |360| 
    2930 0000030f 1E94          MOVL      *+XAR4[AR0],ACC       ; [CPU_] |360| 
    2931                      .dwpsn  file "D:/BM1000/sw/modules/pid/src/32b/pid.h",line 361,column 3,is_stmt,isa 0
    2932 00000310 D00E          MOVB      XAR0,#14              ; [CPU_] |361| 
    2933 00000311 28A9          MOV       AL,#13107             ; [CPU_] |361| 
         00000312 3333 
    2934 00000313 9BF3          MOV       AH,#243               ; [CPU_] |361| 
    2935 00000314 1E94          MOVL      *+XAR4[AR0],ACC       ; [CPU_] |361| 
    2936                      .dwpsn  file "D:/BM1000/sw/modules/ctrl/src/32b/ctrl.c",line 403,column 3,is_stmt,isa 0
    2937 00000315 0200          MOVB      ACC,#0                ; [CPU_] |403| 
    2938 00000316 8AA1          MOVL      XAR4,XAR1             ; [CPU_] |403| 
    2939 00000317 C242          MOVL      *-SP[2],XAR6          ; [CPU_] |403| 
    2940 00000318 7699          MOVL      XAR6,#1677721         ; [CPU_U] |403| 
         00000319 9999 
    2941 0000031a 1E44          MOVL      *-SP[4],ACC           ; [CPU_] |403| 
    2942 0000031b 06A6          MOVL      ACC,XAR6              ; [CPU_] |403| 
    2943              $C$DW$249       .dwtag  DW_TAG_TI_branch
    2944                      .dwattr $C$DW$249, DW_AT_low_pc(0x00)
    2945                      .dwattr $C$DW$249, DW_AT_name("_CTRL_setGains")
    2946                      .dwattr $C$DW$249, DW_AT_TI_call
    2947              
    2948 0000031c 7640'         LCR       #_CTRL_setGains       ; [CPU_] |403| 
         0000031d 0177 
    2949                      ; call occurs [#_CTRL_setGains] ; [] |403| 
    2950                      .dwpsn  file "D:/BM1000/sw/modules/ctrl/src/32b/ctrl.c",line 408,column 3,is_stmt,isa 0
    2951 0000031e 28A9          MOV       AL,#4719              ; [CPU_] |408| 
         0000031f 126F 
    2952 00000320 8A6A          MOVL      XAR4,*-SP[42]         ; [CPU_] |408| 
    2953 00000321 28A8          MOV       AH,#15235             ; [CPU_] |408| 
         00000322 3B83 
    2954 00000323 D0A6          MOVB      XAR0,#166             ; [CPU_] |408| 
    2955 00000324 1E42          MOVL      *-SP[2],ACC           ; [CPU_] |408| 
    2956 00000325 0694          MOVL      ACC,*+XAR4[AR0]       ; [CPU_] |408| 
    2957              $C$DW$250       .dwtag  DW_TAG_TI_branch
    2958                      .dwattr $C$DW$250, DW_AT_low_pc(0x00)
    2959                      .dwattr $C$DW$250, DW_AT_name("FS$$DIV")
    2960                      .dwattr $C$DW$250, DW_AT_TI_call
    2961              
    2962 00000326 7640!         LCR       #FS$$DIV              ; [CPU_] |408| 
         00000327 0000 
    2963                      ; call occurs [#FS$$DIV] ; [] |408| 
    2964 00000328 5CAD          MOVZ      AR4,SP                ; [CPU_] |408| 
TMS320C2000 Assembler PC v15.12.3 Mon Sep 25 12:51:19 2017

Tools Copyright (c) 1996-2015 Texas Instruments Incorporated
C:\Users\wmj\AppData\Local\Temp\0412810                              PAGE   57

    2965 00000329 DCA4          SUBB      XAR4,#36              ; [CPU_U] |408| 
    2966 0000032a 88A4          MOVZ      AR6,AR4               ; [CPU_] |408| 
    2967              $C$DW$251       .dwtag  DW_TAG_TI_branch
    2968                      .dwattr $C$DW$251, DW_AT_low_pc(0x00)
    2969                      .dwattr $C$DW$251, DW_AT_name("FS$$TOFD")
    2970                      .dwattr $C$DW$251, DW_AT_TI_call
    2971              
    2972 0000032b 7640!         LCR       #FS$$TOFD             ; [CPU_] |408| 
         0000032c 0000 
    2973                      ; call occurs [#FS$$TOFD] ; [] |408| 
    2974 0000032d 5DAD          MOVZ      AR5,SP                ; [CPU_] |408| 
    2975 0000032e 5CAD          MOVZ      AR4,SP                ; [CPU_] |408| 
    2976 0000032f DDA0          SUBB      XAR5,#32              ; [CPU_U] |408| 
    2977 00000330 DCA4          SUBB      XAR4,#36              ; [CPU_U] |408| 
    2978 00000331 88A5          MOVZ      AR6,AR5               ; [CPU_] |408| 
    2979 00000332 5CA4          MOVZ      AR4,AR4               ; [CPU_] |408| 
    2980 00000333 8F40+         MOVL      XAR5,#$C$FL1          ; [CPU_U] |408| 
         00000334 0000 
    2981              $C$DW$252       .dwtag  DW_TAG_TI_branch
    2982                      .dwattr $C$DW$252, DW_AT_low_pc(0x00)
    2983                      .dwattr $C$DW$252, DW_AT_name("FD$$MPY")
    2984                      .dwattr $C$DW$252, DW_AT_TI_call
    2985              
    2986 00000335 7640!         LCR       #FD$$MPY              ; [CPU_] |408| 
         00000336 0000 
    2987                      ; call occurs [#FD$$MPY] ; [] |408| 
    2988 00000337 5CAD          MOVZ      AR4,SP                ; [CPU_] |408| 
    2989 00000338 DCA0          SUBB      XAR4,#32              ; [CPU_U] |408| 
    2990 00000339 5CA4          MOVZ      AR4,AR4               ; [CPU_] |408| 
    2991              $C$DW$253       .dwtag  DW_TAG_TI_branch
    2992                      .dwattr $C$DW$253, DW_AT_low_pc(0x00)
    2993                      .dwattr $C$DW$253, DW_AT_name("FD$$TOL")
    2994                      .dwattr $C$DW$253, DW_AT_TI_call
    2995              
    2996 0000033a 7640!         LCR       #FD$$TOL              ; [CPU_] |408| 
         0000033b 0000 
    2997                      ; call occurs [#FD$$TOL] ; [] |408| 
    2998                      .dwpsn  file "D:/BM1000/sw/modules/pid/src/32b/pid.h",line 303,column 16,is_stmt,isa 0
    2999 0000033c D032          MOVB      XAR0,#50              ; [CPU_] |303| 
    3000 0000033d 8A91          MOVL      XAR4,*+XAR1[AR0]      ; [CPU_] |303| 
    3001                      .dwpsn  file "D:/BM1000/sw/modules/pid/src/32b/pid.h",line 305,column 3,is_stmt,isa 0
    3002 0000033e 8F59          MOVL      XAR5,#1677721         ; [CPU_U] |305| 
         0000033f 9999 
    3003                      .dwpsn  file "D:/BM1000/sw/modules/ctrl/src/32b/ctrl.c",line 408,column 3,is_stmt,isa 0
    3004 00000340 1EA6          MOVL      XAR6,ACC              ; [CPU_] |408| 
    3005                      .dwpsn  file "D:/BM1000/sw/modules/pid/src/32b/pid.h",line 413,column 3,is_stmt,isa 0
    3006 00000341 D032          MOVB      XAR0,#50              ; [CPU_] |413| 
    3007                      .dwpsn  file "D:/BM1000/sw/modules/pid/src/32b/pid.h",line 305,column 3,is_stmt,isa 0
    3008 00000342 A0C4          MOVL      *+XAR4[0],XAR5        ; [CPU_] |305| 
    3009                      .dwpsn  file "D:/BM1000/sw/modules/pid/src/32b/pid.h",line 306,column 3,is_stmt,isa 0
    3010 00000343 1ED4          MOVL      *+XAR4[2],ACC         ; [CPU_] |306| 
    3011                      .dwpsn  file "D:/BM1000/sw/modules/pid/src/32b/pid.h",line 307,column 3,is_stmt,isa 0
    3012 00000344 0200          MOVB      ACC,#0                ; [CPU_] |307| 
    3013 00000345 1EE4          MOVL      *+XAR4[4],ACC         ; [CPU_] |307| 
    3014                      .dwpsn  file "D:/BM1000/sw/modules/pid/src/32b/pid.h",line 413,column 3,is_stmt,isa 0
TMS320C2000 Assembler PC v15.12.3 Mon Sep 25 12:51:19 2017

Tools Copyright (c) 1996-2015 Texas Instruments Incorporated
C:\Users\wmj\AppData\Local\Temp\0412810                              PAGE   58

    3015 00000346 8A91          MOVL      XAR4,*+XAR1[AR0]      ; [CPU_] |413| 
    3016                      .dwpsn  file "D:/BM1000/sw/modules/pid/src/32b/pid.h",line 358,column 16,is_stmt,isa 0
    3017 00000347 D032          MOVB      XAR0,#50              ; [CPU_] |358| 
    3018                      .dwpsn  file "D:/BM1000/sw/modules/pid/src/32b/pid.h",line 413,column 3,is_stmt,isa 0
    3019 00000348 1EF4          MOVL      *+XAR4[6],ACC         ; [CPU_] |413| 
    3020                      .dwpsn  file "D:/BM1000/sw/modules/pid/src/32b/pid.h",line 360,column 3,is_stmt,isa 0
    3021 00000349 28A9          MOV       AL,#52429             ; [CPU_] |360| 
         0000034a CCCD 
    3022                      .dwpsn  file "D:/BM1000/sw/modules/pid/src/32b/pid.h",line 358,column 16,is_stmt,isa 0
    3023 0000034b 8A91          MOVL      XAR4,*+XAR1[AR0]      ; [CPU_] |358| 
    3024                      .dwpsn  file "D:/BM1000/sw/modules/pid/src/32b/pid.h",line 360,column 3,is_stmt,isa 0
    3025 0000034c 28A8          MOV       AH,#65292             ; [CPU_] |360| 
         0000034d FF0C 
    3026                      .dwpsn  file "D:/BM1000/sw/modules/ctrl/src/32b/ctrl.c",line 416,column 3,is_stmt,isa 0
    3027 0000034e D502          MOVB      XAR5,#2               ; [CPU_] |416| 
    3028                      .dwpsn  file "D:/BM1000/sw/modules/pid/src/32b/pid.h",line 360,column 3,is_stmt,isa 0
    3029 0000034f D00C          MOVB      XAR0,#12              ; [CPU_] |360| 
    3030 00000350 1E94          MOVL      *+XAR4[AR0],ACC       ; [CPU_] |360| 
    3031                      .dwpsn  file "D:/BM1000/sw/modules/pid/src/32b/pid.h",line 361,column 3,is_stmt,isa 0
    3032 00000351 D00E          MOVB      XAR0,#14              ; [CPU_] |361| 
    3033 00000352 28A9          MOV       AL,#13107             ; [CPU_] |361| 
         00000353 3333 
    3034 00000354 9BF3          MOV       AH,#243               ; [CPU_] |361| 
    3035 00000355 1E94          MOVL      *+XAR4[AR0],ACC       ; [CPU_] |361| 
    3036                      .dwpsn  file "D:/BM1000/sw/modules/ctrl/src/32b/ctrl.c",line 416,column 3,is_stmt,isa 0
    3037 00000356 0200          MOVB      ACC,#0                ; [CPU_] |416| 
    3038 00000357 8AA1          MOVL      XAR4,XAR1             ; [CPU_] |416| 
    3039 00000358 C242          MOVL      *-SP[2],XAR6          ; [CPU_] |416| 
    3040 00000359 7699          MOVL      XAR6,#1677721         ; [CPU_U] |416| 
         0000035a 9999 
    3041 0000035b 1E44          MOVL      *-SP[4],ACC           ; [CPU_] |416| 
    3042 0000035c 06A6          MOVL      ACC,XAR6              ; [CPU_] |416| 
    3043              $C$DW$254       .dwtag  DW_TAG_TI_branch
    3044                      .dwattr $C$DW$254, DW_AT_low_pc(0x00)
    3045                      .dwattr $C$DW$254, DW_AT_name("_CTRL_setGains")
    3046                      .dwattr $C$DW$254, DW_AT_TI_call
    3047              
    3048 0000035d 7640'         LCR       #_CTRL_setGains       ; [CPU_] |416| 
         0000035e 0177 
    3049                      ; call occurs [#_CTRL_setGains] ; [] |416| 
    3050 0000035f 8A6A          MOVL      XAR4,*-SP[42]         ; [CPU_] |416| 
    3051                      .dwpsn  file "D:/BM1000/sw/modules/ctrl/src/32b/ctrl.c",line 420,column 3,is_stmt,isa 0
    3052 00000360 D040          MOVB      XAR0,#64              ; [CPU_] |420| 
    3053 00000361 06C4          MOVL      ACC,*+XAR4[0]         ; [CPU_] |420| 
    3054 00000362 1E66          MOVL      *-SP[38],ACC          ; [CPU_] |420| 
    3055 00000363 28A9          MOV       AL,#55050             ; [CPU_] |420| 
         00000364 D70A 
    3056 00000365 8294          MOVL      XAR3,*+XAR4[AR0]      ; [CPU_] |420| 
    3057 00000366 28A8          MOV       AH,#15523             ; [CPU_] |420| 
         00000367 3CA3 
    3058 00000368 86E4          MOVL      XAR2,*+XAR4[4]        ; [CPU_] |420| 
    3059 00000369 1E42          MOVL      *-SP[2],ACC           ; [CPU_] |420| 
    3060 0000036a A2A9          MOVL      ACC,XAR3              ; [CPU_] |420| 
    3061              $C$DW$255       .dwtag  DW_TAG_TI_branch
    3062                      .dwattr $C$DW$255, DW_AT_low_pc(0x00)
TMS320C2000 Assembler PC v15.12.3 Mon Sep 25 12:51:19 2017

Tools Copyright (c) 1996-2015 Texas Instruments Incorporated
C:\Users\wmj\AppData\Local\Temp\0412810                              PAGE   59

    3063                      .dwattr $C$DW$255, DW_AT_name("FS$$MPY")
    3064                      .dwattr $C$DW$255, DW_AT_TI_call
    3065              
    3066 0000036b 7640!         LCR       #FS$$MPY              ; [CPU_] |420| 
         0000036c 0000 
    3067                      ; call occurs [#FS$$MPY] ; [] |420| 
    3068 0000036d AA42          MOVL      *-SP[2],XAR2          ; [CPU_] |420| 
    3069              $C$DW$256       .dwtag  DW_TAG_TI_branch
    3070                      .dwattr $C$DW$256, DW_AT_low_pc(0x00)
    3071                      .dwattr $C$DW$256, DW_AT_name("FS$$MPY")
    3072                      .dwattr $C$DW$256, DW_AT_TI_call
    3073              
    3074 0000036e 7640!         LCR       #FS$$MPY              ; [CPU_] |420| 
         0000036f 0000 
    3075                      ; call occurs [#FS$$MPY] ; [] |420| 
    3076 00000370 C466          MOVL      XAR6,*-SP[38]         ; [CPU_] |420| 
    3077 00000371 C242          MOVL      *-SP[2],XAR6          ; [CPU_] |420| 
    3078              $C$DW$257       .dwtag  DW_TAG_TI_branch
    3079                      .dwattr $C$DW$257, DW_AT_low_pc(0x00)
    3080                      .dwattr $C$DW$257, DW_AT_name("FS$$DIV")
    3081                      .dwattr $C$DW$257, DW_AT_TI_call
    3082              
    3083 00000372 7640!         LCR       #FS$$DIV              ; [CPU_] |420| 
         00000373 0000 
    3084                      ; call occurs [#FS$$DIV] ; [] |420| 
    3085 00000374 5CAD          MOVZ      AR4,SP                ; [CPU_] |420| 
    3086 00000375 DCA4          SUBB      XAR4,#36              ; [CPU_U] |420| 
    3087 00000376 88A4          MOVZ      AR6,AR4               ; [CPU_] |420| 
    3088              $C$DW$258       .dwtag  DW_TAG_TI_branch
    3089                      .dwattr $C$DW$258, DW_AT_low_pc(0x00)
    3090                      .dwattr $C$DW$258, DW_AT_name("FS$$TOFD")
    3091                      .dwattr $C$DW$258, DW_AT_TI_call
    3092              
    3093 00000377 7640!         LCR       #FS$$TOFD             ; [CPU_] |420| 
         00000378 0000 
    3094                      ; call occurs [#FS$$TOFD] ; [] |420| 
    3095 00000379 5DAD          MOVZ      AR5,SP                ; [CPU_] |420| 
    3096 0000037a 5CAD          MOVZ      AR4,SP                ; [CPU_] |420| 
    3097 0000037b DDA0          SUBB      XAR5,#32              ; [CPU_U] |420| 
    3098 0000037c DCA4          SUBB      XAR4,#36              ; [CPU_U] |420| 
    3099 0000037d 88A5          MOVZ      AR6,AR5               ; [CPU_] |420| 
    3100 0000037e 5CA4          MOVZ      AR4,AR4               ; [CPU_] |420| 
    3101 0000037f 8F40+         MOVL      XAR5,#$C$FL1          ; [CPU_U] |420| 
         00000380 0000 
    3102              $C$DW$259       .dwtag  DW_TAG_TI_branch
    3103                      .dwattr $C$DW$259, DW_AT_low_pc(0x00)
    3104                      .dwattr $C$DW$259, DW_AT_name("FD$$MPY")
    3105                      .dwattr $C$DW$259, DW_AT_TI_call
    3106              
    3107 00000381 7640!         LCR       #FD$$MPY              ; [CPU_] |420| 
         00000382 0000 
    3108                      ; call occurs [#FD$$MPY] ; [] |420| 
    3109 00000383 5CAD          MOVZ      AR4,SP                ; [CPU_] |420| 
    3110 00000384 DCA0          SUBB      XAR4,#32              ; [CPU_U] |420| 
    3111 00000385 5CA4          MOVZ      AR4,AR4               ; [CPU_] |420| 
TMS320C2000 Assembler PC v15.12.3 Mon Sep 25 12:51:19 2017

Tools Copyright (c) 1996-2015 Texas Instruments Incorporated
C:\Users\wmj\AppData\Local\Temp\0412810                              PAGE   60

    3112              $C$DW$260       .dwtag  DW_TAG_TI_branch
    3113                      .dwattr $C$DW$260, DW_AT_low_pc(0x00)
    3114                      .dwattr $C$DW$260, DW_AT_name("FD$$TOL")
    3115                      .dwattr $C$DW$260, DW_AT_TI_call
    3116              
    3117 00000386 7640!         LCR       #FD$$TOL              ; [CPU_] |420| 
         00000387 0000 
    3118                      ; call occurs [#FD$$TOL] ; [] |420| 
    3119 00000388 1E68          MOVL      *-SP[40],ACC          ; [CPU_] |420| 
    3120                      .dwpsn  file "D:/BM1000/sw/modules/ctrl/src/32b/ctrl.c",line 421,column 3,is_stmt,isa 0
    3121 00000389 A242          MOVL      *-SP[2],XAR3          ; [CPU_] |421| 
    3122 0000038a A2A9          MOVL      ACC,XAR3              ; [CPU_] |421| 
    3123              $C$DW$261       .dwtag  DW_TAG_TI_branch
    3124                      .dwattr $C$DW$261, DW_AT_low_pc(0x00)
    3125                      .dwattr $C$DW$261, DW_AT_name("FS$$ADD")
    3126                      .dwattr $C$DW$261, DW_AT_TI_call
    3127              
    3128 0000038b 7640!         LCR       #FS$$ADD              ; [CPU_] |421| 
         0000038c 0000 
    3129                      ; call occurs [#FS$$ADD] ; [] |421| 
    3130 0000038d AA42          MOVL      *-SP[2],XAR2          ; [CPU_] |421| 
    3131              $C$DW$262       .dwtag  DW_TAG_TI_branch
    3132                      .dwattr $C$DW$262, DW_AT_low_pc(0x00)
    3133                      .dwattr $C$DW$262, DW_AT_name("FS$$MPY")
    3134                      .dwattr $C$DW$262, DW_AT_TI_call
    3135              
    3136 0000038e 7640!         LCR       #FS$$MPY              ; [CPU_] |421| 
         0000038f 0000 
    3137                      ; call occurs [#FS$$MPY] ; [] |421| 
    3138 00000390 8A6A          MOVL      XAR4,*-SP[42]         ; [CPU_] |421| 
    3139 00000391 D0A6          MOVB      XAR0,#166             ; [CPU_] |421| 
    3140 00000392 C494          MOVL      XAR6,*+XAR4[AR0]      ; [CPU_] |421| 
    3141 00000393 C242          MOVL      *-SP[2],XAR6          ; [CPU_] |421| 
    3142              $C$DW$263       .dwtag  DW_TAG_TI_branch
    3143                      .dwattr $C$DW$263, DW_AT_low_pc(0x00)
    3144                      .dwattr $C$DW$263, DW_AT_name("FS$$MPY")
    3145                      .dwattr $C$DW$263, DW_AT_TI_call
    3146              
    3147 00000394 7640!         LCR       #FS$$MPY              ; [CPU_] |421| 
         00000395 0000 
    3148                      ; call occurs [#FS$$MPY] ; [] |421| 
    3149 00000396 C466          MOVL      XAR6,*-SP[38]         ; [CPU_] |421| 
    3150 00000397 C242          MOVL      *-SP[2],XAR6          ; [CPU_] |421| 
    3151              $C$DW$264       .dwtag  DW_TAG_TI_branch
    3152                      .dwattr $C$DW$264, DW_AT_low_pc(0x00)
    3153                      .dwattr $C$DW$264, DW_AT_name("FS$$DIV")
    3154                      .dwattr $C$DW$264, DW_AT_TI_call
    3155              
    3156 00000398 7640!         LCR       #FS$$DIV              ; [CPU_] |421| 
         00000399 0000 
    3157                      ; call occurs [#FS$$DIV] ; [] |421| 
    3158 0000039a 5CAD          MOVZ      AR4,SP                ; [CPU_] |421| 
    3159 0000039b DCA4          SUBB      XAR4,#36              ; [CPU_U] |421| 
    3160 0000039c 88A4          MOVZ      AR6,AR4               ; [CPU_] |421| 
    3161              $C$DW$265       .dwtag  DW_TAG_TI_branch
TMS320C2000 Assembler PC v15.12.3 Mon Sep 25 12:51:19 2017

Tools Copyright (c) 1996-2015 Texas Instruments Incorporated
C:\Users\wmj\AppData\Local\Temp\0412810                              PAGE   61

    3162                      .dwattr $C$DW$265, DW_AT_low_pc(0x00)
    3163                      .dwattr $C$DW$265, DW_AT_name("FS$$TOFD")
    3164                      .dwattr $C$DW$265, DW_AT_TI_call
    3165              
    3166 0000039d 7640!         LCR       #FS$$TOFD             ; [CPU_] |421| 
         0000039e 0000 
    3167                      ; call occurs [#FS$$TOFD] ; [] |421| 
    3168 0000039f 5DAD          MOVZ      AR5,SP                ; [CPU_] |421| 
    3169 000003a0 5CAD          MOVZ      AR4,SP                ; [CPU_] |421| 
    3170 000003a1 DDA0          SUBB      XAR5,#32              ; [CPU_U] |421| 
    3171 000003a2 DCA4          SUBB      XAR4,#36              ; [CPU_U] |421| 
    3172 000003a3 88A5          MOVZ      AR6,AR5               ; [CPU_] |421| 
    3173 000003a4 5CA4          MOVZ      AR4,AR4               ; [CPU_] |421| 
    3174 000003a5 8F40+         MOVL      XAR5,#$C$FL1          ; [CPU_U] |421| 
         000003a6 0000 
    3175              $C$DW$266       .dwtag  DW_TAG_TI_branch
    3176                      .dwattr $C$DW$266, DW_AT_low_pc(0x00)
    3177                      .dwattr $C$DW$266, DW_AT_name("FD$$MPY")
    3178                      .dwattr $C$DW$266, DW_AT_TI_call
    3179              
    3180 000003a7 7640!         LCR       #FD$$MPY              ; [CPU_] |421| 
         000003a8 0000 
    3181                      ; call occurs [#FD$$MPY] ; [] |421| 
    3182 000003a9 5CAD          MOVZ      AR4,SP                ; [CPU_] |421| 
    3183 000003aa DCA0          SUBB      XAR4,#32              ; [CPU_U] |421| 
    3184 000003ab 5CA4          MOVZ      AR4,AR4               ; [CPU_] |421| 
    3185              $C$DW$267       .dwtag  DW_TAG_TI_branch
    3186                      .dwattr $C$DW$267, DW_AT_low_pc(0x00)
    3187                      .dwattr $C$DW$267, DW_AT_name("FD$$TOL")
    3188                      .dwattr $C$DW$267, DW_AT_TI_call
    3189              
    3190 000003ac 7640!         LCR       #FD$$TOL              ; [CPU_] |421| 
         000003ad 0000 
    3191                      ; call occurs [#FD$$TOL] ; [] |421| 
    3192                      .dwpsn  file "D:/BM1000/sw/modules/pid/src/32b/pid.h",line 303,column 16,is_stmt,isa 0
    3193 000003ae D044          MOVB      XAR0,#68              ; [CPU_] |303| 
    3194 000003af 8A91          MOVL      XAR4,*+XAR1[AR0]      ; [CPU_] |303| 
    3195                      .dwpsn  file "D:/BM1000/sw/modules/ctrl/src/32b/ctrl.c",line 421,column 3,is_stmt,isa 0
    3196 000003b0 1EA6          MOVL      XAR6,ACC              ; [CPU_] |421| 
    3197                      .dwpsn  file "D:/BM1000/sw/modules/pid/src/32b/pid.h",line 303,column 16,is_stmt,isa 0
    3198 000003b1 0668          MOVL      ACC,*-SP[40]          ; [CPU_] |303| 
    3199                      .dwpsn  file "D:/BM1000/sw/modules/pid/src/32b/pid.h",line 413,column 3,is_stmt,isa 0
    3200 000003b2 D044          MOVB      XAR0,#68              ; [CPU_] |413| 
    3201                      .dwpsn  file "D:/BM1000/sw/modules/pid/src/32b/pid.h",line 305,column 3,is_stmt,isa 0
    3202 000003b3 1EC4          MOVL      *+XAR4[0],ACC         ; [CPU_] |305| 
    3203                      .dwpsn  file "D:/BM1000/sw/modules/pid/src/32b/pid.h",line 307,column 3,is_stmt,isa 0
    3204 000003b4 0200          MOVB      ACC,#0                ; [CPU_] |307| 
    3205                      .dwpsn  file "D:/BM1000/sw/modules/pid/src/32b/pid.h",line 306,column 3,is_stmt,isa 0
    3206 000003b5 C2D4          MOVL      *+XAR4[2],XAR6        ; [CPU_] |306| 
    3207                      .dwpsn  file "D:/BM1000/sw/modules/pid/src/32b/pid.h",line 307,column 3,is_stmt,isa 0
    3208 000003b6 1EE4          MOVL      *+XAR4[4],ACC         ; [CPU_] |307| 
    3209                      .dwpsn  file "D:/BM1000/sw/modules/pid/src/32b/pid.h",line 413,column 3,is_stmt,isa 0
    3210 000003b7 8A91          MOVL      XAR4,*+XAR1[AR0]      ; [CPU_] |413| 
    3211 000003b8 3B01          SETC      SXM                   ; [CPU_] 
    3212                      .dwpsn  file "D:/BM1000/sw/modules/pid/src/32b/pid.h",line 358,column 16,is_stmt,isa 0
TMS320C2000 Assembler PC v15.12.3 Mon Sep 25 12:51:19 2017

Tools Copyright (c) 1996-2015 Texas Instruments Incorporated
C:\Users\wmj\AppData\Local\Temp\0412810                              PAGE   62

    3213 000003b9 D044          MOVB      XAR0,#68              ; [CPU_] |358| 
    3214                      .dwpsn  file "D:/BM1000/sw/modules/pid/src/32b/pid.h",line 413,column 3,is_stmt,isa 0
    3215 000003ba 1EF4          MOVL      *+XAR4[6],ACC         ; [CPU_] |413| 
    3216                      .dwpsn  file "D:/BM1000/sw/modules/pid/src/32b/pid.h",line 358,column 16,is_stmt,isa 0
    3217 000003bb 8A91          MOVL      XAR4,*+XAR1[AR0]      ; [CPU_] |358| 
    3218                      .dwpsn  file "D:/BM1000/sw/modules/pid/src/32b/pid.h",line 360,column 3,is_stmt,isa 0
    3219 000003bc FF2F          MOV       ACC,#-512 << 15       ; [CPU_] |360| 
         000003bd FE00 
    3220                      .dwpsn  file "D:/BM1000/sw/modules/ctrl/src/32b/ctrl.c",line 429,column 3,is_stmt,isa 0
    3221 000003be D500          MOVB      XAR5,#0               ; [CPU_] |429| 
    3222                      .dwpsn  file "D:/BM1000/sw/modules/pid/src/32b/pid.h",line 360,column 3,is_stmt,isa 0
    3223 000003bf D00C          MOVB      XAR0,#12              ; [CPU_] |360| 
    3224 000003c0 1E94          MOVL      *+XAR4[AR0],ACC       ; [CPU_] |360| 
    3225                      .dwpsn  file "D:/BM1000/sw/modules/pid/src/32b/pid.h",line 361,column 3,is_stmt,isa 0
    3226 000003c1 D00E          MOVB      XAR0,#14              ; [CPU_] |361| 
    3227 000003c2 FF2F          MOV       ACC,#512 << 15        ; [CPU_] |361| 
         000003c3 0200 
    3228 000003c4 1E94          MOVL      *+XAR4[AR0],ACC       ; [CPU_] |361| 
