TMS320C2000 Assembler PC v6.2.5 Tue Aug 29 10:13:49 2017

Tools Copyright (c) 1996-2014 Texas Instruments Incorporated
C:\Users\wmj\AppData\Local\Temp\0884811                              PAGE    1

       1              ;***************************************************************
       2              ;* TMS320C2000 C/C++ Codegen                         PC v6.2.5 *
       3              ;* Date/Time created: Tue Aug 29 10:13:49 2017                 *
       4              ;***************************************************************
       5                      .compiler_opts --float_support=softlib --hll_source=on --mem_model:code=flat --mem_model:data=large -
       6        0002  FP      .set    XAR2
       7              
       8              $C$DW$CU        .dwtag  DW_TAG_compile_unit
       9                      .dwattr $C$DW$CU, DW_AT_name("D:/FOC_27/sw/drivers/drvic/process_ctrl.c")
      10                      .dwattr $C$DW$CU, DW_AT_producer("TMS320C2000 C/C++ Codegen PC v6.2.5 Copyright (c) 1996-2014 Texas I
      11                      .dwattr $C$DW$CU, DW_AT_TI_version(0x01)
      12                      .dwattr $C$DW$CU, DW_AT_comp_dir("D:\FOC_27\sw\solutions\instaspin_foc\boards\hvkit_rev1p1\f28x\f2802
      13              
      14              $C$DW$1 .dwtag  DW_TAG_subprogram, DW_AT_name("PCA955x_WriteCommand")
      15                      .dwattr $C$DW$1, DW_AT_TI_symbol_name("_PCA955x_WriteCommand")
      16                      .dwattr $C$DW$1, DW_AT_declaration
      17                      .dwattr $C$DW$1, DW_AT_external
      18              $C$DW$2 .dwtag  DW_TAG_formal_parameter
      19                      .dwattr $C$DW$2, DW_AT_type(*$C$DW$T$168)
      20              $C$DW$3 .dwtag  DW_TAG_formal_parameter
      21                      .dwattr $C$DW$3, DW_AT_type(*$C$DW$T$196)
      22              $C$DW$4 .dwtag  DW_TAG_formal_parameter
      23                      .dwattr $C$DW$4, DW_AT_type(*$C$DW$T$23)
      24                      .dwendtag $C$DW$1
      25              
      26              
      27              $C$DW$5 .dwtag  DW_TAG_subprogram, DW_AT_name("PCA955x_Configure")
      28                      .dwattr $C$DW$5, DW_AT_TI_symbol_name("_PCA955x_Configure")
      29                      .dwattr $C$DW$5, DW_AT_declaration
      30                      .dwattr $C$DW$5, DW_AT_external
      31              $C$DW$6 .dwtag  DW_TAG_formal_parameter
      32                      .dwattr $C$DW$6, DW_AT_type(*$C$DW$T$168)
      33              $C$DW$7 .dwtag  DW_TAG_formal_parameter
      34                      .dwattr $C$DW$7, DW_AT_type(*$C$DW$T$196)
      35              $C$DW$8 .dwtag  DW_TAG_formal_parameter
      36                      .dwattr $C$DW$8, DW_AT_type(*$C$DW$T$23)
      37                      .dwendtag $C$DW$5
      38              
      39              
      40              $C$DW$9 .dwtag  DW_TAG_subprogram, DW_AT_name("DECODER_setSpiHandle")
      41                      .dwattr $C$DW$9, DW_AT_TI_symbol_name("_DECODER_setSpiHandle")
      42                      .dwattr $C$DW$9, DW_AT_declaration
      43                      .dwattr $C$DW$9, DW_AT_external
      44              $C$DW$10        .dwtag  DW_TAG_formal_parameter
      45                      .dwattr $C$DW$10, DW_AT_type(*$C$DW$T$177)
      46              $C$DW$11        .dwtag  DW_TAG_formal_parameter
      47                      .dwattr $C$DW$11, DW_AT_type(*$C$DW$T$50)
      48                      .dwendtag $C$DW$9
      49              
      50              
      51              $C$DW$12        .dwtag  DW_TAG_subprogram, DW_AT_name("PCA955x_setI2cHandle")
      52                      .dwattr $C$DW$12, DW_AT_TI_symbol_name("_PCA955x_setI2cHandle")
      53                      .dwattr $C$DW$12, DW_AT_declaration
      54                      .dwattr $C$DW$12, DW_AT_external
      55              $C$DW$13        .dwtag  DW_TAG_formal_parameter
TMS320C2000 Assembler PC v6.2.5 Tue Aug 29 10:13:49 2017

Tools Copyright (c) 1996-2014 Texas Instruments Incorporated
C:\Users\wmj\AppData\Local\Temp\0884811                              PAGE    2

      56                      .dwattr $C$DW$13, DW_AT_type(*$C$DW$T$168)
      57              $C$DW$14        .dwtag  DW_TAG_formal_parameter
      58                      .dwattr $C$DW$14, DW_AT_type(*$C$DW$T$94)
      59                      .dwendtag $C$DW$12
      60              
      61              
      62              $C$DW$15        .dwtag  DW_TAG_subprogram, DW_AT_name("DECODER_Init")
      63                      .dwattr $C$DW$15, DW_AT_TI_symbol_name("_DECODER_Init")
      64                      .dwattr $C$DW$15, DW_AT_type(*$C$DW$T$177)
      65                      .dwattr $C$DW$15, DW_AT_declaration
      66                      .dwattr $C$DW$15, DW_AT_external
      67              $C$DW$16        .dwtag  DW_TAG_formal_parameter
      68                      .dwattr $C$DW$16, DW_AT_type(*$C$DW$T$3)
      69              $C$DW$17        .dwtag  DW_TAG_formal_parameter
      70                      .dwattr $C$DW$17, DW_AT_type(*$C$DW$T$198)
      71                      .dwendtag $C$DW$15
      72              
      73              
      74              $C$DW$18        .dwtag  DW_TAG_subprogram, DW_AT_name("PCA955x_Init")
      75                      .dwattr $C$DW$18, DW_AT_TI_symbol_name("_PCA955x_Init")
      76                      .dwattr $C$DW$18, DW_AT_type(*$C$DW$T$168)
      77                      .dwattr $C$DW$18, DW_AT_declaration
      78                      .dwattr $C$DW$18, DW_AT_external
      79              $C$DW$19        .dwtag  DW_TAG_formal_parameter
      80                      .dwattr $C$DW$19, DW_AT_type(*$C$DW$T$3)
      81              $C$DW$20        .dwtag  DW_TAG_formal_parameter
      82                      .dwattr $C$DW$20, DW_AT_type(*$C$DW$T$198)
      83                      .dwendtag $C$DW$18
      84              
      85              ;       C:\ti\ccsv6\tools\compiler\c2000_6.2.5\bin\opt2000.exe C:\\Users\\wmj\\AppData\\Local\\Temp\\088483 C
      86              ;       C:\ti\ccsv6\tools\compiler\c2000_6.2.5\bin\ac2000.exe -@C:\\Users\\wmj\\AppData\\Local\\Temp\\0884817
      87 00000000               .sect   ".text"
      88                      .clink
      89                      .global _PROCTRL_setParams
      90              
      91              $C$DW$21        .dwtag  DW_TAG_subprogram, DW_AT_name("PROCTRL_setParams")
      92                      .dwattr $C$DW$21, DW_AT_low_pc(_PROCTRL_setParams)
      93                      .dwattr $C$DW$21, DW_AT_high_pc(0x00)
      94                      .dwattr $C$DW$21, DW_AT_TI_symbol_name("_PROCTRL_setParams")
      95                      .dwattr $C$DW$21, DW_AT_external
      96                      .dwattr $C$DW$21, DW_AT_TI_begin_file("D:/FOC_27/sw/drivers/drvic/process_ctrl.c")
      97                      .dwattr $C$DW$21, DW_AT_TI_begin_line(0x27)
      98                      .dwattr $C$DW$21, DW_AT_TI_begin_column(0x06)
      99                      .dwattr $C$DW$21, DW_AT_TI_max_frame_size(-4)
     100                      .dwpsn  file "D:/FOC_27/sw/drivers/drvic/process_ctrl.c",line 40,column 1,is_stmt,address _PROCTRL_se
     101              
     102                      .dwfde $C$DW$CIE, _PROCTRL_setParams
     103              $C$DW$22        .dwtag  DW_TAG_formal_parameter, DW_AT_name("handle")
     104                      .dwattr $C$DW$22, DW_AT_TI_symbol_name("_handle")
     105                      .dwattr $C$DW$22, DW_AT_type(*$C$DW$T$209)
     106                      .dwattr $C$DW$22, DW_AT_location[DW_OP_reg12]
     107              
     108              ;***************************************************************
     109              ;* FNAME: _PROCTRL_setParams            FR SIZE:   2           *
     110              ;*                                                             *
TMS320C2000 Assembler PC v6.2.5 Tue Aug 29 10:13:49 2017

Tools Copyright (c) 1996-2014 Texas Instruments Incorporated
C:\Users\wmj\AppData\Local\Temp\0884811                              PAGE    3

     111              ;* FUNCTION ENVIRONMENT                                        *
     112              ;*                                                             *
     113              ;* FUNCTION PROPERTIES                                         *
     114              ;*                            0 Parameter,  0 Auto,  2 SOE     *
     115              ;***************************************************************
     116              
     117              _PROCTRL_setParams:
     118              ;* AR1   assigned to _handle
     119              $C$DW$23        .dwtag  DW_TAG_variable, DW_AT_name("handle")
     120                      .dwattr $C$DW$23, DW_AT_TI_symbol_name("_handle")
     121                      .dwattr $C$DW$23, DW_AT_type(*$C$DW$T$210)
     122                      .dwattr $C$DW$23, DW_AT_location[DW_OP_reg6]
     123                      .dwcfi  cfa_offset, -2
     124                      .dwcfi  save_reg_to_mem, 26, 0
     125                      .dwcfi  save_reg_to_reg, 78, 26
     126 00000000 B2BD          MOVL      *SP++,XAR1            ; [CPU_] 
     127                      .dwcfi  save_reg_to_mem, 7, 2
     128                      .dwcfi  cfa_offset, -4
     129 00000001 8BA4          MOVL      XAR1,XAR4             ; [CPU_] |40| 
     130                      .dwpsn  file "D:/FOC_27/sw/drivers/drvic/process_ctrl.c",line 44,column 3,is_stmt
     131 00000002 0204          MOVB      ACC,#4                ; [CPU_] |44| 
     132 00000003 DC04          ADDB      XAR4,#4               ; [CPU_] |44| 
     133              $C$DW$24        .dwtag  DW_TAG_TI_branch
     134                      .dwattr $C$DW$24, DW_AT_low_pc(0x00)
     135                      .dwattr $C$DW$24, DW_AT_name("_PCA955x_Init")
     136                      .dwattr $C$DW$24, DW_AT_TI_call
     137 00000004 7640!         LCR       #_PCA955x_Init        ; [CPU_] |44| 
         00000005 0000 
     138                      ; call occurs [#_PCA955x_Init] ; [] |44| 
     139 00000006 A8D1          MOVL      *+XAR1[2],XAR4        ; [CPU_] |44| 
     140                      .dwpsn  file "D:/FOC_27/sw/drivers/drvic/process_ctrl.c",line 45,column 3,is_stmt
     141 00000007 83C1          MOVL      XAR5,*+XAR1[0]        ; [CPU_] |45| 
     142 00000008 D090          MOVB      XAR0,#144             ; [CPU_] |45| 
     143 00000009 8AD1          MOVL      XAR4,*+XAR1[2]        ; [CPU_] |45| 
     144 0000000a 8395          MOVL      XAR5,*+XAR5[AR0]      ; [CPU_] |45| 
     145              $C$DW$25        .dwtag  DW_TAG_TI_branch
     146                      .dwattr $C$DW$25, DW_AT_low_pc(0x00)
     147                      .dwattr $C$DW$25, DW_AT_name("_PCA955x_setI2cHandle")
     148                      .dwattr $C$DW$25, DW_AT_TI_call
     149 0000000b 7640!         LCR       #_PCA955x_setI2cHandle ; [CPU_] |45| 
         0000000c 0000 
     150                      ; call occurs [#_PCA955x_setI2cHandle] ; [] |45| 
     151                      .dwpsn  file "D:/FOC_27/sw/drivers/drvic/process_ctrl.c",line 94,column 3,is_stmt
     152 0000000d 02AA          MOVB      ACC,#170              ; [CPU_] |94| 
     153 0000000e 07A1          ADDL      ACC,XAR1              ; [CPU_] |94| 
     154 0000000f 8AA9          MOVL      XAR4,ACC              ; [CPU_] |94| 
     155 00000010 0206          MOVB      ACC,#6                ; [CPU_] |94| 
     156              $C$DW$26        .dwtag  DW_TAG_TI_branch
     157                      .dwattr $C$DW$26, DW_AT_low_pc(0x00)
     158                      .dwattr $C$DW$26, DW_AT_name("_DECODER_Init")
     159                      .dwattr $C$DW$26, DW_AT_TI_call
     160 00000011 7640!         LCR       #_DECODER_Init        ; [CPU_] |94| 
         00000012 0000 
     161                      ; call occurs [#_DECODER_Init] ; [] |94| 
     162 00000013 D0A8          MOVB      XAR0,#168             ; [CPU_] |94| 
TMS320C2000 Assembler PC v6.2.5 Tue Aug 29 10:13:49 2017

Tools Copyright (c) 1996-2014 Texas Instruments Incorporated
C:\Users\wmj\AppData\Local\Temp\0884811                              PAGE    4

     163 00000014 A891          MOVL      *+XAR1[AR0],XAR4      ; [CPU_] |94| 
     164                      .dwpsn  file "D:/FOC_27/sw/drivers/drvic/process_ctrl.c",line 95,column 3,is_stmt
     165 00000015 83C1          MOVL      XAR5,*+XAR1[0]        ; [CPU_] |95| 
     166 00000016 D0A8          MOVB      XAR0,#168             ; [CPU_] |95| 
     167 00000017 8A91          MOVL      XAR4,*+XAR1[AR0]      ; [CPU_] |95| 
     168 00000018 D092          MOVB      XAR0,#146             ; [CPU_] |95| 
     169 00000019 8395          MOVL      XAR5,*+XAR5[AR0]      ; [CPU_] |95| 
     170              $C$DW$27        .dwtag  DW_TAG_TI_branch
     171                      .dwattr $C$DW$27, DW_AT_low_pc(0x00)
     172                      .dwattr $C$DW$27, DW_AT_name("_DECODER_setSpiHandle")
     173                      .dwattr $C$DW$27, DW_AT_TI_call
     174 0000001a 7640!         LCR       #_DECODER_setSpiHandle ; [CPU_] |95| 
         0000001b 0000 
     175                      ; call occurs [#_DECODER_setSpiHandle] ; [] |95| 
     176                      .dwpsn  file "D:/FOC_27/sw/drivers/drvic/process_ctrl.c",line 98,column 3,is_stmt
     177 0000001c 9A00          MOVB      AL,#0                 ; [CPU_] |98| 
     178 0000001d 9B00          MOVB      AH,#0                 ; [CPU_] |98| 
     179 0000001e 8AD1          MOVL      XAR4,*+XAR1[2]        ; [CPU_] |98| 
     180              $C$DW$28        .dwtag  DW_TAG_TI_branch
     181                      .dwattr $C$DW$28, DW_AT_low_pc(0x00)
     182                      .dwattr $C$DW$28, DW_AT_name("_PCA955x_Configure")
     183                      .dwattr $C$DW$28, DW_AT_TI_call
     184 0000001f 7640!         LCR       #_PCA955x_Configure   ; [CPU_] |98| 
         00000020 0000 
     185                      ; call occurs [#_PCA955x_Configure] ; [] |98| 
     186                      .dwpsn  file "D:/FOC_27/sw/drivers/drvic/process_ctrl.c",line 99,column 3,is_stmt
     187 00000021 9A01          MOVB      AL,#1                 ; [CPU_] |99| 
     188 00000022 9BFF          MOVB      AH,#255               ; [CPU_] |99| 
     189 00000023 8AD1          MOVL      XAR4,*+XAR1[2]        ; [CPU_] |99| 
     190              $C$DW$29        .dwtag  DW_TAG_TI_branch
     191                      .dwattr $C$DW$29, DW_AT_low_pc(0x00)
     192                      .dwattr $C$DW$29, DW_AT_name("_PCA955x_Configure")
     193                      .dwattr $C$DW$29, DW_AT_TI_call
     194 00000024 7640!         LCR       #_PCA955x_Configure   ; [CPU_] |99| 
         00000025 0000 
     195                      ; call occurs [#_PCA955x_Configure] ; [] |99| 
     196                      .dwpsn  file "D:/FOC_27/sw/drivers/drvic/process_ctrl.c",line 100,column 3,is_stmt
     197 00000026 9A00          MOVB      AL,#0                 ; [CPU_] |100| 
     198 00000027 9B50          MOVB      AH,#80                ; [CPU_] |100| 
     199 00000028 8AD1          MOVL      XAR4,*+XAR1[2]        ; [CPU_] |100| 
     200              $C$DW$30        .dwtag  DW_TAG_TI_branch
     201                      .dwattr $C$DW$30, DW_AT_low_pc(0x00)
     202                      .dwattr $C$DW$30, DW_AT_name("_PCA955x_WriteCommand")
     203                      .dwattr $C$DW$30, DW_AT_TI_call
     204 00000029 7640!         LCR       #_PCA955x_WriteCommand ; [CPU_] |100| 
         0000002a 0000 
     205                      ; call occurs [#_PCA955x_WriteCommand] ; [] |100| 
     206                      .dwpsn  file "D:/FOC_27/sw/drivers/drvic/process_ctrl.c",line 101,column 3,is_stmt
     207 0000002b 9A00          MOVB      AL,#0                 ; [CPU_] |101| 
     208 0000002c 9B5C          MOVB      AH,#92                ; [CPU_] |101| 
     209 0000002d 8AD1          MOVL      XAR4,*+XAR1[2]        ; [CPU_] |101| 
     210              $C$DW$31        .dwtag  DW_TAG_TI_branch
     211                      .dwattr $C$DW$31, DW_AT_low_pc(0x00)
     212                      .dwattr $C$DW$31, DW_AT_name("_PCA955x_WriteCommand")
     213                      .dwattr $C$DW$31, DW_AT_TI_call
TMS320C2000 Assembler PC v6.2.5 Tue Aug 29 10:13:49 2017

Tools Copyright (c) 1996-2014 Texas Instruments Incorporated
C:\Users\wmj\AppData\Local\Temp\0884811                              PAGE    5

     214 0000002e 7640!         LCR       #_PCA955x_WriteCommand ; [CPU_] |101| 
         0000002f 0000 
     215                      ; call occurs [#_PCA955x_WriteCommand] ; [] |101| 
     216 00000030 8BBE          MOVL      XAR1,*--SP            ; [CPU_] 
     217                      .dwcfi  cfa_offset, -2
     218                      .dwcfi  restore_reg, 7
     219              $C$DW$32        .dwtag  DW_TAG_TI_branch
     220                      .dwattr $C$DW$32, DW_AT_low_pc(0x00)
     221                      .dwattr $C$DW$32, DW_AT_TI_return
     222 00000031 0006          LRETR     ; [CPU_] 
     223                      ; return occurs ; [] 
     224                      .dwattr $C$DW$21, DW_AT_TI_end_file("D:/FOC_27/sw/drivers/drvic/process_ctrl.c")
     225                      .dwattr $C$DW$21, DW_AT_TI_end_line(0x75)
     226                      .dwattr $C$DW$21, DW_AT_TI_end_column(0x01)
     227                      .dwendentry
     228                      .dwendtag $C$DW$21
     229              
     230 00000032               .sect   ".text"
     231                      .clink
     232                      .global _PROCTRL_setHalHandle
     233              
     234              $C$DW$33        .dwtag  DW_TAG_subprogram, DW_AT_name("PROCTRL_setHalHandle")
     235                      .dwattr $C$DW$33, DW_AT_low_pc(_PROCTRL_setHalHandle)
     236                      .dwattr $C$DW$33, DW_AT_high_pc(0x00)
     237                      .dwattr $C$DW$33, DW_AT_TI_symbol_name("_PROCTRL_setHalHandle")
     238                      .dwattr $C$DW$33, DW_AT_external
     239                      .dwattr $C$DW$33, DW_AT_TI_begin_file("D:/FOC_27/sw/drivers/drvic/process_ctrl.c")
     240                      .dwattr $C$DW$33, DW_AT_TI_begin_line(0x1c)
     241                      .dwattr $C$DW$33, DW_AT_TI_begin_column(0x06)
     242                      .dwattr $C$DW$33, DW_AT_TI_max_frame_size(-2)
     243                      .dwpsn  file "D:/FOC_27/sw/drivers/drvic/process_ctrl.c",line 29,column 1,is_stmt,address _PROCTRL_se
     244              
     245                      .dwfde $C$DW$CIE, _PROCTRL_setHalHandle
     246              $C$DW$34        .dwtag  DW_TAG_formal_parameter, DW_AT_name("handle")
     247                      .dwattr $C$DW$34, DW_AT_TI_symbol_name("_handle")
     248                      .dwattr $C$DW$34, DW_AT_type(*$C$DW$T$209)
     249                      .dwattr $C$DW$34, DW_AT_location[DW_OP_reg12]
     250              $C$DW$35        .dwtag  DW_TAG_formal_parameter, DW_AT_name("halHandle")
     251                      .dwattr $C$DW$35, DW_AT_TI_symbol_name("_halHandle")
     252                      .dwattr $C$DW$35, DW_AT_type(*$C$DW$T$166)
     253                      .dwattr $C$DW$35, DW_AT_location[DW_OP_reg14]
     254              
     255              ;***************************************************************
     256              ;* FNAME: _PROCTRL_setHalHandle         FR SIZE:   0           *
     257              ;*                                                             *
     258              ;* FUNCTION ENVIRONMENT                                        *
     259              ;*                                                             *
     260              ;* FUNCTION PROPERTIES                                         *
     261              ;*                            0 Parameter,  0 Auto,  0 SOE     *
     262              ;***************************************************************
     263              
     264              _PROCTRL_setHalHandle:
     265              ;* AR4   assigned to _handle
     266              $C$DW$36        .dwtag  DW_TAG_variable, DW_AT_name("handle")
     267                      .dwattr $C$DW$36, DW_AT_TI_symbol_name("_handle")
TMS320C2000 Assembler PC v6.2.5 Tue Aug 29 10:13:49 2017

Tools Copyright (c) 1996-2014 Texas Instruments Incorporated
C:\Users\wmj\AppData\Local\Temp\0884811                              PAGE    6

     268                      .dwattr $C$DW$36, DW_AT_type(*$C$DW$T$210)
     269                      .dwattr $C$DW$36, DW_AT_location[DW_OP_reg12]
     270              ;* AR5   assigned to _halHandle
     271              $C$DW$37        .dwtag  DW_TAG_variable, DW_AT_name("halHandle")
     272                      .dwattr $C$DW$37, DW_AT_TI_symbol_name("_halHandle")
     273                      .dwattr $C$DW$37, DW_AT_type(*$C$DW$T$202)
     274                      .dwattr $C$DW$37, DW_AT_location[DW_OP_reg14]
     275                      .dwcfi  cfa_offset, -2
     276                      .dwcfi  save_reg_to_mem, 26, 0
     277                      .dwcfi  save_reg_to_reg, 78, 26
     278                      .dwpsn  file "D:/FOC_27/sw/drivers/drvic/process_ctrl.c",line 32,column 3,is_stmt
     279 00000032 A0C4          MOVL      *+XAR4[0],XAR5        ; [CPU_] |32| 
     280              $C$DW$38        .dwtag  DW_TAG_TI_branch
     281                      .dwattr $C$DW$38, DW_AT_low_pc(0x00)
     282                      .dwattr $C$DW$38, DW_AT_TI_return
     283 00000033 0006          LRETR     ; [CPU_] 
     284                      ; return occurs ; [] 
     285                      .dwattr $C$DW$33, DW_AT_TI_end_file("D:/FOC_27/sw/drivers/drvic/process_ctrl.c")
     286                      .dwattr $C$DW$33, DW_AT_TI_end_line(0x23)
     287                      .dwattr $C$DW$33, DW_AT_TI_end_column(0x01)
     288                      .dwendentry
     289                      .dwendtag $C$DW$33
     290              
     291 00000034               .sect   ".text"
     292                      .clink
     293                      .global _PROCTRL_init
     294              
     295              $C$DW$39        .dwtag  DW_TAG_subprogram, DW_AT_name("PROCTRL_init")
     296                      .dwattr $C$DW$39, DW_AT_low_pc(_PROCTRL_init)
     297                      .dwattr $C$DW$39, DW_AT_high_pc(0x00)
     298                      .dwattr $C$DW$39, DW_AT_TI_symbol_name("_PROCTRL_init")
     299                      .dwattr $C$DW$39, DW_AT_external
     300                      .dwattr $C$DW$39, DW_AT_type(*$C$DW$T$209)
     301                      .dwattr $C$DW$39, DW_AT_TI_begin_file("D:/FOC_27/sw/drivers/drvic/process_ctrl.c")
     302                      .dwattr $C$DW$39, DW_AT_TI_begin_line(0x0e)
     303                      .dwattr $C$DW$39, DW_AT_TI_begin_column(0x10)
     304                      .dwattr $C$DW$39, DW_AT_TI_max_frame_size(-2)
     305                      .dwpsn  file "D:/FOC_27/sw/drivers/drvic/process_ctrl.c",line 15,column 1,is_stmt,address _PROCTRL_in
     306              
     307                      .dwfde $C$DW$CIE, _PROCTRL_init
     308              $C$DW$40        .dwtag  DW_TAG_formal_parameter, DW_AT_name("pMemory")
     309                      .dwattr $C$DW$40, DW_AT_TI_symbol_name("_pMemory")
     310                      .dwattr $C$DW$40, DW_AT_type(*$C$DW$T$3)
     311                      .dwattr $C$DW$40, DW_AT_location[DW_OP_reg12]
     312              $C$DW$41        .dwtag  DW_TAG_formal_parameter, DW_AT_name("numBytes")
     313                      .dwattr $C$DW$41, DW_AT_TI_symbol_name("_numBytes")
     314                      .dwattr $C$DW$41, DW_AT_type(*$C$DW$T$198)
     315                      .dwattr $C$DW$41, DW_AT_location[DW_OP_reg0]
     316              
     317              ;***************************************************************
     318              ;* FNAME: _PROCTRL_init                 FR SIZE:   0           *
     319              ;*                                                             *
     320              ;* FUNCTION ENVIRONMENT                                        *
     321              ;*                                                             *
     322              ;* FUNCTION PROPERTIES                                         *
TMS320C2000 Assembler PC v6.2.5 Tue Aug 29 10:13:49 2017

Tools Copyright (c) 1996-2014 Texas Instruments Incorporated
C:\Users\wmj\AppData\Local\Temp\0884811                              PAGE    7

     323              ;*                            0 Parameter,  0 Auto,  0 SOE     *
     324              ;***************************************************************
     325              
     326              _PROCTRL_init:
     327              ;* AR6   assigned to _numBytes
     328              $C$DW$42        .dwtag  DW_TAG_variable, DW_AT_name("numBytes")
     329                      .dwattr $C$DW$42, DW_AT_TI_symbol_name("_numBytes")
     330                      .dwattr $C$DW$42, DW_AT_type(*$C$DW$T$198)
     331                      .dwattr $C$DW$42, DW_AT_location[DW_OP_reg16]
     332              ;* AR4   assigned to _pMemory
     333              $C$DW$43        .dwtag  DW_TAG_variable, DW_AT_name("pMemory")
     334                      .dwattr $C$DW$43, DW_AT_TI_symbol_name("_pMemory")
     335                      .dwattr $C$DW$43, DW_AT_type(*$C$DW$T$214)
     336                      .dwattr $C$DW$43, DW_AT_location[DW_OP_reg12]
     337                      .dwcfi  cfa_offset, -2
     338                      .dwcfi  save_reg_to_mem, 26, 0
     339                      .dwcfi  save_reg_to_reg, 78, 26
     340 00000034 1EA6          MOVL      XAR6,ACC              ; [CPU_] |15| 
     341                      .dwpsn  file "D:/FOC_27/sw/drivers/drvic/process_ctrl.c",line 20,column 6,is_stmt
     342 00000035 FF20          MOV       ACC,#260              ; [CPU_] |20| 
         00000036 0104 
     343 00000037 0FA6          CMPL      ACC,XAR6              ; [CPU_] |20| 
     344 00000038 6902          B         $C$L1,LOS             ; [CPU_] |20| 
     345                      ; branchcc occurs ; [] |20| 
     346 00000039 D400          MOVB      XAR4,#0               ; [CPU_] |20| 
     347              $C$L1:    
     348              $C$DW$44        .dwtag  DW_TAG_TI_branch
     349                      .dwattr $C$DW$44, DW_AT_low_pc(0x00)
     350                      .dwattr $C$DW$44, DW_AT_TI_return
     351 0000003a 0006          LRETR     ; [CPU_] 
     352                      ; return occurs ; [] 
     353                      .dwattr $C$DW$39, DW_AT_TI_end_file("D:/FOC_27/sw/drivers/drvic/process_ctrl.c")
     354                      .dwattr $C$DW$39, DW_AT_TI_end_line(0x1a)
     355                      .dwattr $C$DW$39, DW_AT_TI_end_column(0x01)
     356                      .dwendentry
     357                      .dwendtag $C$DW$39
     358              
     359              ;**************************************************************
     360              ;* UNDEFINED EXTERNAL REFERENCES                              *
     361              ;**************************************************************
     362                      .global _PCA955x_WriteCommand
     363                      .global _PCA955x_Configure
     364                      .global _DECODER_setSpiHandle
     365                      .global _PCA955x_setI2cHandle
     366                      .global _DECODER_Init
     367                      .global _PCA955x_Init
     368              
     369              ;***************************************************************
     370              ;* TYPE INFORMATION                                            *
     371              ;***************************************************************
     372              
     373              $C$DW$T$32      .dwtag  DW_TAG_enumeration_type
     374                      .dwattr $C$DW$T$32, DW_AT_byte_size(0x01)
     375              $C$DW$45        .dwtag  DW_TAG_enumerator, DW_AT_name("BRAKE_State_Error"), DW_AT_const_value(0x00)
     376              $C$DW$46        .dwtag  DW_TAG_enumerator, DW_AT_name("BRAKE_State_Idle"), DW_AT_const_value(0x01)
TMS320C2000 Assembler PC v6.2.5 Tue Aug 29 10:13:49 2017

Tools Copyright (c) 1996-2014 Texas Instruments Incorporated
C:\Users\wmj\AppData\Local\Temp\0884811                              PAGE    8

     377              $C$DW$47        .dwtag  DW_TAG_enumerator, DW_AT_name("BRAKE_State_OffLine"), DW_AT_const_value(0x02)
     378              $C$DW$48        .dwtag  DW_TAG_enumerator, DW_AT_name("BRAKE_State_OnLine"), DW_AT_const_value(0x03)
     379              $C$DW$49        .dwtag  DW_TAG_enumerator, DW_AT_name("BRAKE_numStates"), DW_AT_const_value(0x04)
     380                      .dwendtag $C$DW$T$32
     381              
     382              $C$DW$T$33      .dwtag  DW_TAG_typedef, DW_AT_name("BRAKE_State_e")
     383                      .dwattr $C$DW$T$33, DW_AT_type(*$C$DW$T$32)
     384                      .dwattr $C$DW$T$33, DW_AT_language(DW_LANG_C)
     385              
     386              $C$DW$T$39      .dwtag  DW_TAG_enumeration_type
     387                      .dwattr $C$DW$T$39, DW_AT_byte_size(0x01)
     388              $C$DW$50        .dwtag  DW_TAG_enumerator, DW_AT_name("BRAKE_Type_Current"), DW_AT_const_value(0x00)
     389              $C$DW$51        .dwtag  DW_TAG_enumerator, DW_AT_name("BRAKE_Type_voltage"), DW_AT_const_value(0x01)
     390                      .dwendtag $C$DW$T$39
     391              
     392              $C$DW$T$40      .dwtag  DW_TAG_typedef, DW_AT_name("BRAKE_Type_e")
     393                      .dwattr $C$DW$T$40, DW_AT_type(*$C$DW$T$39)
     394                      .dwattr $C$DW$T$40, DW_AT_language(DW_LANG_C)
     395              
     396              $C$DW$T$53      .dwtag  DW_TAG_enumeration_type
     397                      .dwattr $C$DW$T$53, DW_AT_byte_size(0x01)
     398              $C$DW$52        .dwtag  DW_TAG_enumerator, DW_AT_name("GPIO_Number_0"), DW_AT_const_value(0x00)
     399              $C$DW$53        .dwtag  DW_TAG_enumerator, DW_AT_name("GPIO_Number_1"), DW_AT_const_value(0x01)
     400              $C$DW$54        .dwtag  DW_TAG_enumerator, DW_AT_name("GPIO_Number_2"), DW_AT_const_value(0x02)
     401              $C$DW$55        .dwtag  DW_TAG_enumerator, DW_AT_name("GPIO_Number_3"), DW_AT_const_value(0x03)
     402              $C$DW$56        .dwtag  DW_TAG_enumerator, DW_AT_name("GPIO_Number_4"), DW_AT_const_value(0x04)
     403              $C$DW$57        .dwtag  DW_TAG_enumerator, DW_AT_name("GPIO_Number_5"), DW_AT_const_value(0x05)
     404              $C$DW$58        .dwtag  DW_TAG_enumerator, DW_AT_name("GPIO_Number_6"), DW_AT_const_value(0x06)
     405              $C$DW$59        .dwtag  DW_TAG_enumerator, DW_AT_name("GPIO_Number_7"), DW_AT_const_value(0x07)
     406              $C$DW$60        .dwtag  DW_TAG_enumerator, DW_AT_name("GPIO_Rsvd_8"), DW_AT_const_value(0x08)
     407              $C$DW$61        .dwtag  DW_TAG_enumerator, DW_AT_name("GPIO_Rsvd_9"), DW_AT_const_value(0x09)
     408              $C$DW$62        .dwtag  DW_TAG_enumerator, DW_AT_name("GPIO_Rsvd_10"), DW_AT_const_value(0x0a)
     409              $C$DW$63        .dwtag  DW_TAG_enumerator, DW_AT_name("GPIO_Rsvd_11"), DW_AT_const_value(0x0b)
     410              $C$DW$64        .dwtag  DW_TAG_enumerator, DW_AT_name("GPIO_Number_12"), DW_AT_const_value(0x0c)
     411              $C$DW$65        .dwtag  DW_TAG_enumerator, DW_AT_name("GPIO_Rsvd_13"), DW_AT_const_value(0x0d)
     412              $C$DW$66        .dwtag  DW_TAG_enumerator, DW_AT_name("GPIO_Rsvd_14"), DW_AT_const_value(0x0e)
     413              $C$DW$67        .dwtag  DW_TAG_enumerator, DW_AT_name("GPIO_Rsvd_15"), DW_AT_const_value(0x0f)
     414              $C$DW$68        .dwtag  DW_TAG_enumerator, DW_AT_name("GPIO_Number_16"), DW_AT_const_value(0x10)
     415              $C$DW$69        .dwtag  DW_TAG_enumerator, DW_AT_name("GPIO_Number_17"), DW_AT_const_value(0x11)
     416              $C$DW$70        .dwtag  DW_TAG_enumerator, DW_AT_name("GPIO_Number_18"), DW_AT_const_value(0x12)
     417              $C$DW$71        .dwtag  DW_TAG_enumerator, DW_AT_name("GPIO_Number_19"), DW_AT_const_value(0x13)
     418              $C$DW$72        .dwtag  DW_TAG_enumerator, DW_AT_name("GPIO_Rsvd_20"), DW_AT_const_value(0x14)
     419              $C$DW$73        .dwtag  DW_TAG_enumerator, DW_AT_name("GPIO_Rsvd_21"), DW_AT_const_value(0x15)
     420              $C$DW$74        .dwtag  DW_TAG_enumerator, DW_AT_name("GPIO_Rsvd_22"), DW_AT_const_value(0x16)
     421              $C$DW$75        .dwtag  DW_TAG_enumerator, DW_AT_name("GPIO_Rsvd_23"), DW_AT_const_value(0x17)
     422              $C$DW$76        .dwtag  DW_TAG_enumerator, DW_AT_name("GPIO_Rsvd_24"), DW_AT_const_value(0x18)
     423              $C$DW$77        .dwtag  DW_TAG_enumerator, DW_AT_name("GPIO_Rsvd_25"), DW_AT_const_value(0x19)
     424              $C$DW$78        .dwtag  DW_TAG_enumerator, DW_AT_name("GPIO_Rsvd_26"), DW_AT_const_value(0x1a)
     425              $C$DW$79        .dwtag  DW_TAG_enumerator, DW_AT_name("GPIO_Rsvd_27"), DW_AT_const_value(0x1b)
     426              $C$DW$80        .dwtag  DW_TAG_enumerator, DW_AT_name("GPIO_Number_28"), DW_AT_const_value(0x1c)
     427              $C$DW$81        .dwtag  DW_TAG_enumerator, DW_AT_name("GPIO_Number_29"), DW_AT_const_value(0x1d)
     428              $C$DW$82        .dwtag  DW_TAG_enumerator, DW_AT_name("GPIO_Rsvd_30"), DW_AT_const_value(0x1e)
     429              $C$DW$83        .dwtag  DW_TAG_enumerator, DW_AT_name("GPIO_Rsvd_31"), DW_AT_const_value(0x1f)
     430              $C$DW$84        .dwtag  DW_TAG_enumerator, DW_AT_name("GPIO_Number_32"), DW_AT_const_value(0x20)
     431              $C$DW$85        .dwtag  DW_TAG_enumerator, DW_AT_name("GPIO_Number_33"), DW_AT_const_value(0x21)
TMS320C2000 Assembler PC v6.2.5 Tue Aug 29 10:13:49 2017

Tools Copyright (c) 1996-2014 Texas Instruments Incorporated
C:\Users\wmj\AppData\Local\Temp\0884811                              PAGE    9

     432              $C$DW$86        .dwtag  DW_TAG_enumerator, DW_AT_name("GPIO_Number_34"), DW_AT_const_value(0x22)
     433              $C$DW$87        .dwtag  DW_TAG_enumerator, DW_AT_name("GPIO_Number_35"), DW_AT_const_value(0x23)
     434              $C$DW$88        .dwtag  DW_TAG_enumerator, DW_AT_name("GPIO_Number_36"), DW_AT_const_value(0x24)
     435              $C$DW$89        .dwtag  DW_TAG_enumerator, DW_AT_name("GPIO_Number_37"), DW_AT_const_value(0x25)
     436              $C$DW$90        .dwtag  DW_TAG_enumerator, DW_AT_name("GPIO_Number_38"), DW_AT_const_value(0x26)
     437              $C$DW$91        .dwtag  DW_TAG_enumerator, DW_AT_name("GPIO_numGpios"), DW_AT_const_value(0x27)
     438                      .dwendtag $C$DW$T$53
     439              
     440              $C$DW$T$54      .dwtag  DW_TAG_typedef, DW_AT_name("GPIO_Number_e")
     441                      .dwattr $C$DW$T$54, DW_AT_type(*$C$DW$T$53)
     442                      .dwattr $C$DW$T$54, DW_AT_language(DW_LANG_C)
     443              
     444              $C$DW$T$124     .dwtag  DW_TAG_enumeration_type
     445                      .dwattr $C$DW$T$124, DW_AT_byte_size(0x01)
     446              $C$DW$92        .dwtag  DW_TAG_enumerator, DW_AT_name("LDC_Type_1612"), DW_AT_const_value(0x00)
     447              $C$DW$93        .dwtag  DW_TAG_enumerator, DW_AT_name("LDC_Type_1614"), DW_AT_const_value(0x01)
     448                      .dwendtag $C$DW$T$124
     449              
     450              $C$DW$T$125     .dwtag  DW_TAG_typedef, DW_AT_name("LDC_SensorType_e")
     451                      .dwattr $C$DW$T$125, DW_AT_type(*$C$DW$T$124)
     452                      .dwattr $C$DW$T$125, DW_AT_language(DW_LANG_C)
     453              
     454              $C$DW$T$126     .dwtag  DW_TAG_enumeration_type
     455                      .dwattr $C$DW$T$126, DW_AT_byte_size(0x01)
     456              $C$DW$94        .dwtag  DW_TAG_enumerator, DW_AT_name("LDC161x_Slave_Addr0"), DW_AT_const_value(0x2a)
     457              $C$DW$95        .dwtag  DW_TAG_enumerator, DW_AT_name("LDC161x_Slave_Addr1"), DW_AT_const_value(0x2b)
     458                      .dwendtag $C$DW$T$126
     459              
     460              $C$DW$T$127     .dwtag  DW_TAG_typedef, DW_AT_name("LDC_SensorSerial_e")
     461                      .dwattr $C$DW$T$127, DW_AT_type(*$C$DW$T$126)
     462                      .dwattr $C$DW$T$127, DW_AT_language(DW_LANG_C)
     463              
     464              $C$DW$T$144     .dwtag  DW_TAG_enumeration_type
     465                      .dwattr $C$DW$T$144, DW_AT_byte_size(0x01)
     466              $C$DW$96        .dwtag  DW_TAG_enumerator, DW_AT_name("OLED_CMD"), DW_AT_const_value(0x00)
     467              $C$DW$97        .dwtag  DW_TAG_enumerator, DW_AT_name("OLED_DATA"), DW_AT_const_value(0x01)
     468                      .dwendtag $C$DW$T$144
     469              
     470              $C$DW$T$145     .dwtag  DW_TAG_typedef, DW_AT_name("OLED_TxType_e")
     471                      .dwattr $C$DW$T$145, DW_AT_type(*$C$DW$T$144)
     472                      .dwattr $C$DW$T$145, DW_AT_language(DW_LANG_C)
     473              
     474              $C$DW$T$182     .dwtag  DW_TAG_enumeration_type
     475                      .dwattr $C$DW$T$182, DW_AT_byte_size(0x01)
     476              $C$DW$98        .dwtag  DW_TAG_enumerator, DW_AT_name("PROCTRL_State_IDLE"), DW_AT_const_value(0x00)
     477              $C$DW$99        .dwtag  DW_TAG_enumerator, DW_AT_name("PROCTRL_State_EditLow"), DW_AT_const_value(0x01)
     478              $C$DW$100       .dwtag  DW_TAG_enumerator, DW_AT_name("PROCTRL_State_EditHigh"), DW_AT_const_value(0x02)
     479              $C$DW$101       .dwtag  DW_TAG_enumerator, DW_AT_name("PROCTRL_State_EditReturn"), DW_AT_const_value(0x03)
     480              $C$DW$102       .dwtag  DW_TAG_enumerator, DW_AT_name("PROCTRL_State_NormalLow"), DW_AT_const_value(0x04)
     481              $C$DW$103       .dwtag  DW_TAG_enumerator, DW_AT_name("PROCTRL_State_NormHiSped"), DW_AT_const_value(0x05)
     482              $C$DW$104       .dwtag  DW_TAG_enumerator, DW_AT_name("PROCTRL_State_NormDecle"), DW_AT_const_value(0x06)
     483              $C$DW$105       .dwtag  DW_TAG_enumerator, DW_AT_name("PROCTRL_State_NormDecle1"), DW_AT_const_value(0x07)
     484              $C$DW$106       .dwtag  DW_TAG_enumerator, DW_AT_name("PROCTRL_State_NormSlow"), DW_AT_const_value(0x08)
     485              $C$DW$107       .dwtag  DW_TAG_enumerator, DW_AT_name("PROCTRL_State_NormAccele"), DW_AT_const_value(0x09)
     486              $C$DW$108       .dwtag  DW_TAG_enumerator, DW_AT_name("PROCTRL_State_NormSate"), DW_AT_const_value(0x0a)
TMS320C2000 Assembler PC v6.2.5 Tue Aug 29 10:13:49 2017

Tools Copyright (c) 1996-2014 Texas Instruments Incorporated
C:\Users\wmj\AppData\Local\Temp\0884811                              PAGE   10

     487              $C$DW$109       .dwtag  DW_TAG_enumerator, DW_AT_name("PROCTRL_State_NormReturn"), DW_AT_const_value(0x0b)
     488              $C$DW$110       .dwtag  DW_TAG_enumerator, DW_AT_name("PROCTRL_State_NormSlow2"), DW_AT_const_value(0x0c)
     489              $C$DW$111       .dwtag  DW_TAG_enumerator, DW_AT_name("PROCTRL_State_NormStop"), DW_AT_const_value(0x0d)
     490              $C$DW$112       .dwtag  DW_TAG_enumerator, DW_AT_name("PROCTRL_State_NormRegulate"), DW_AT_const_value(0x0e)
     491              $C$DW$113       .dwtag  DW_TAG_enumerator, DW_AT_name("PROCTRL_State_ReturnStop"), DW_AT_const_value(0x0f)
     492                      .dwendtag $C$DW$T$182
     493              
     494              $C$DW$T$183     .dwtag  DW_TAG_typedef, DW_AT_name("PROCTRL_State_e")
     495                      .dwattr $C$DW$T$183, DW_AT_type(*$C$DW$T$182)
     496                      .dwattr $C$DW$T$183, DW_AT_language(DW_LANG_C)
     497              
     498              $C$DW$T$195     .dwtag  DW_TAG_enumeration_type
     499                      .dwattr $C$DW$T$195, DW_AT_byte_size(0x01)
     500              $C$DW$114       .dwtag  DW_TAG_enumerator, DW_AT_name("PCA955x_PortNum_Port0"), DW_AT_const_value(0x00)
     501              $C$DW$115       .dwtag  DW_TAG_enumerator, DW_AT_name("PCA955x_PortNum_Port1"), DW_AT_const_value(0x01)
     502                      .dwendtag $C$DW$T$195
     503              
     504              $C$DW$T$196     .dwtag  DW_TAG_typedef, DW_AT_name("PCA955x_PortNum_e")
     505                      .dwattr $C$DW$T$196, DW_AT_type(*$C$DW$T$195)
     506                      .dwattr $C$DW$T$196, DW_AT_language(DW_LANG_C)
     507              
     508              $C$DW$T$19      .dwtag  DW_TAG_structure_type
     509                      .dwattr $C$DW$T$19, DW_AT_name("I2C_Obj")
     510                      .dwattr $C$DW$T$19, DW_AT_declaration
     511                      .dwendtag $C$DW$T$19
     512              
     513              $C$DW$T$93      .dwtag  DW_TAG_pointer_type
     514                      .dwattr $C$DW$T$93, DW_AT_type(*$C$DW$T$19)
     515                      .dwattr $C$DW$T$93, DW_AT_address_class(0x16)
     516              $C$DW$T$94      .dwtag  DW_TAG_typedef, DW_AT_name("I2C_Handle")
     517                      .dwattr $C$DW$T$94, DW_AT_type(*$C$DW$T$93)
     518                      .dwattr $C$DW$T$94, DW_AT_language(DW_LANG_C)
     519              
     520              $C$DW$T$20      .dwtag  DW_TAG_structure_type
     521                      .dwattr $C$DW$T$20, DW_AT_name("LDC161x_REG_Obj")
     522                      .dwattr $C$DW$T$20, DW_AT_declaration
     523                      .dwendtag $C$DW$T$20
     524              
     525              $C$DW$T$108     .dwtag  DW_TAG_pointer_type
     526                      .dwattr $C$DW$T$108, DW_AT_type(*$C$DW$T$20)
     527                      .dwattr $C$DW$T$108, DW_AT_address_class(0x16)
     528              $C$DW$T$109     .dwtag  DW_TAG_typedef, DW_AT_name("LDC_Handle")
     529                      .dwattr $C$DW$T$109, DW_AT_type(*$C$DW$T$108)
     530                      .dwattr $C$DW$T$109, DW_AT_language(DW_LANG_C)
     531              
     532              $C$DW$T$31      .dwtag  DW_TAG_structure_type
     533                      .dwattr $C$DW$T$31, DW_AT_name("_ADC_Obj_")
     534                      .dwattr $C$DW$T$31, DW_AT_byte_size(0x6650)
     535              $C$DW$116       .dwtag  DW_TAG_member
     536                      .dwattr $C$DW$116, DW_AT_type(*$C$DW$T$25)
     537                      .dwattr $C$DW$116, DW_AT_name("ADCRESULT")
     538                      .dwattr $C$DW$116, DW_AT_TI_symbol_name("_ADCRESULT")
     539                      .dwattr $C$DW$116, DW_AT_data_member_location[DW_OP_plus_uconst 0x0]
     540                      .dwattr $C$DW$116, DW_AT_accessibility(DW_ACCESS_public)
     541              $C$DW$117       .dwtag  DW_TAG_member
TMS320C2000 Assembler PC v6.2.5 Tue Aug 29 10:13:49 2017

Tools Copyright (c) 1996-2014 Texas Instruments Incorporated
C:\Users\wmj\AppData\Local\Temp\0884811                              PAGE   11

     542                      .dwattr $C$DW$117, DW_AT_type(*$C$DW$T$26)
     543                      .dwattr $C$DW$117, DW_AT_name("resvd_1")
     544                      .dwattr $C$DW$117, DW_AT_TI_symbol_name("_resvd_1")
     545                      .dwattr $C$DW$117, DW_AT_data_member_location[DW_OP_plus_uconst 0x10]
     546                      .dwattr $C$DW$117, DW_AT_accessibility(DW_ACCESS_public)
     547              $C$DW$118       .dwtag  DW_TAG_member
     548                      .dwattr $C$DW$118, DW_AT_type(*$C$DW$T$24)
     549                      .dwattr $C$DW$118, DW_AT_name("ADCCTL1")
     550                      .dwattr $C$DW$118, DW_AT_TI_symbol_name("_ADCCTL1")
     551                      .dwattr $C$DW$118, DW_AT_data_member_location[DW_OP_plus_uconst 0x6600]
     552                      .dwattr $C$DW$118, DW_AT_accessibility(DW_ACCESS_public)
     553              $C$DW$119       .dwtag  DW_TAG_member
     554                      .dwattr $C$DW$119, DW_AT_type(*$C$DW$T$24)
     555                      .dwattr $C$DW$119, DW_AT_name("ADCCTL2")
     556                      .dwattr $C$DW$119, DW_AT_TI_symbol_name("_ADCCTL2")
     557                      .dwattr $C$DW$119, DW_AT_data_member_location[DW_OP_plus_uconst 0x6601]
     558                      .dwattr $C$DW$119, DW_AT_accessibility(DW_ACCESS_public)
     559              $C$DW$120       .dwtag  DW_TAG_member
     560                      .dwattr $C$DW$120, DW_AT_type(*$C$DW$T$27)
     561                      .dwattr $C$DW$120, DW_AT_name("rsvd_2")
     562                      .dwattr $C$DW$120, DW_AT_TI_symbol_name("_rsvd_2")
     563                      .dwattr $C$DW$120, DW_AT_data_member_location[DW_OP_plus_uconst 0x6602]
     564                      .dwattr $C$DW$120, DW_AT_accessibility(DW_ACCESS_public)
     565              $C$DW$121       .dwtag  DW_TAG_member
     566                      .dwattr $C$DW$121, DW_AT_type(*$C$DW$T$24)
     567                      .dwattr $C$DW$121, DW_AT_name("ADCINTFLG")
     568                      .dwattr $C$DW$121, DW_AT_TI_symbol_name("_ADCINTFLG")
     569                      .dwattr $C$DW$121, DW_AT_data_member_location[DW_OP_plus_uconst 0x6604]
     570                      .dwattr $C$DW$121, DW_AT_accessibility(DW_ACCESS_public)
     571              $C$DW$122       .dwtag  DW_TAG_member
     572                      .dwattr $C$DW$122, DW_AT_type(*$C$DW$T$24)
     573                      .dwattr $C$DW$122, DW_AT_name("ADCINTFLGCLR")
     574                      .dwattr $C$DW$122, DW_AT_TI_symbol_name("_ADCINTFLGCLR")
     575                      .dwattr $C$DW$122, DW_AT_data_member_location[DW_OP_plus_uconst 0x6605]
     576                      .dwattr $C$DW$122, DW_AT_accessibility(DW_ACCESS_public)
     577              $C$DW$123       .dwtag  DW_TAG_member
     578                      .dwattr $C$DW$123, DW_AT_type(*$C$DW$T$24)
     579                      .dwattr $C$DW$123, DW_AT_name("ADCINTOVF")
     580                      .dwattr $C$DW$123, DW_AT_TI_symbol_name("_ADCINTOVF")
     581                      .dwattr $C$DW$123, DW_AT_data_member_location[DW_OP_plus_uconst 0x6606]
     582                      .dwattr $C$DW$123, DW_AT_accessibility(DW_ACCESS_public)
     583              $C$DW$124       .dwtag  DW_TAG_member
     584                      .dwattr $C$DW$124, DW_AT_type(*$C$DW$T$24)
     585                      .dwattr $C$DW$124, DW_AT_name("ADCINTOVFCLR")
     586                      .dwattr $C$DW$124, DW_AT_TI_symbol_name("_ADCINTOVFCLR")
     587                      .dwattr $C$DW$124, DW_AT_data_member_location[DW_OP_plus_uconst 0x6607]
     588                      .dwattr $C$DW$124, DW_AT_accessibility(DW_ACCESS_public)
     589              $C$DW$125       .dwtag  DW_TAG_member
     590                      .dwattr $C$DW$125, DW_AT_type(*$C$DW$T$28)
     591                      .dwattr $C$DW$125, DW_AT_name("INTSELxNy")
     592                      .dwattr $C$DW$125, DW_AT_TI_symbol_name("_INTSELxNy")
     593                      .dwattr $C$DW$125, DW_AT_data_member_location[DW_OP_plus_uconst 0x6608]
     594                      .dwattr $C$DW$125, DW_AT_accessibility(DW_ACCESS_public)
     595              $C$DW$126       .dwtag  DW_TAG_member
     596                      .dwattr $C$DW$126, DW_AT_type(*$C$DW$T$29)
TMS320C2000 Assembler PC v6.2.5 Tue Aug 29 10:13:49 2017

Tools Copyright (c) 1996-2014 Texas Instruments Incorporated
C:\Users\wmj\AppData\Local\Temp\0884811                              PAGE   12

     597                      .dwattr $C$DW$126, DW_AT_name("rsvd_3")
     598                      .dwattr $C$DW$126, DW_AT_TI_symbol_name("_rsvd_3")
     599                      .dwattr $C$DW$126, DW_AT_data_member_location[DW_OP_plus_uconst 0x660d]
     600                      .dwattr $C$DW$126, DW_AT_accessibility(DW_ACCESS_public)
     601              $C$DW$127       .dwtag  DW_TAG_member
     602                      .dwattr $C$DW$127, DW_AT_type(*$C$DW$T$24)
     603                      .dwattr $C$DW$127, DW_AT_name("SOCPRICTRL")
     604                      .dwattr $C$DW$127, DW_AT_TI_symbol_name("_SOCPRICTRL")
     605                      .dwattr $C$DW$127, DW_AT_data_member_location[DW_OP_plus_uconst 0x6610]
     606                      .dwattr $C$DW$127, DW_AT_accessibility(DW_ACCESS_public)
     607              $C$DW$128       .dwtag  DW_TAG_member
     608                      .dwattr $C$DW$128, DW_AT_type(*$C$DW$T$24)
     609                      .dwattr $C$DW$128, DW_AT_name("rsvd_4")
     610                      .dwattr $C$DW$128, DW_AT_TI_symbol_name("_rsvd_4")
     611                      .dwattr $C$DW$128, DW_AT_data_member_location[DW_OP_plus_uconst 0x6611]
     612                      .dwattr $C$DW$128, DW_AT_accessibility(DW_ACCESS_public)
     613              $C$DW$129       .dwtag  DW_TAG_member
     614                      .dwattr $C$DW$129, DW_AT_type(*$C$DW$T$24)
     615                      .dwattr $C$DW$129, DW_AT_name("ADCSAMPLEMODE")
     616                      .dwattr $C$DW$129, DW_AT_TI_symbol_name("_ADCSAMPLEMODE")
     617                      .dwattr $C$DW$129, DW_AT_data_member_location[DW_OP_plus_uconst 0x6612]
     618                      .dwattr $C$DW$129, DW_AT_accessibility(DW_ACCESS_public)
     619              $C$DW$130       .dwtag  DW_TAG_member
     620                      .dwattr $C$DW$130, DW_AT_type(*$C$DW$T$24)
     621                      .dwattr $C$DW$130, DW_AT_name("rsvd_5")
     622                      .dwattr $C$DW$130, DW_AT_TI_symbol_name("_rsvd_5")
     623                      .dwattr $C$DW$130, DW_AT_data_member_location[DW_OP_plus_uconst 0x6613]
     624                      .dwattr $C$DW$130, DW_AT_accessibility(DW_ACCESS_public)
     625              $C$DW$131       .dwtag  DW_TAG_member
     626                      .dwattr $C$DW$131, DW_AT_type(*$C$DW$T$24)
     627                      .dwattr $C$DW$131, DW_AT_name("ADCINTSOCSEL1")
     628                      .dwattr $C$DW$131, DW_AT_TI_symbol_name("_ADCINTSOCSEL1")
     629                      .dwattr $C$DW$131, DW_AT_data_member_location[DW_OP_plus_uconst 0x6614]
     630                      .dwattr $C$DW$131, DW_AT_accessibility(DW_ACCESS_public)
     631              $C$DW$132       .dwtag  DW_TAG_member
     632                      .dwattr $C$DW$132, DW_AT_type(*$C$DW$T$24)
     633                      .dwattr $C$DW$132, DW_AT_name("ADCINTSOCSEL2")
     634                      .dwattr $C$DW$132, DW_AT_TI_symbol_name("_ADCINTSOCSEL2")
     635                      .dwattr $C$DW$132, DW_AT_data_member_location[DW_OP_plus_uconst 0x6615]
     636                      .dwattr $C$DW$132, DW_AT_accessibility(DW_ACCESS_public)
     637              $C$DW$133       .dwtag  DW_TAG_member
     638                      .dwattr $C$DW$133, DW_AT_type(*$C$DW$T$27)
     639                      .dwattr $C$DW$133, DW_AT_name("rsvd_6")
     640                      .dwattr $C$DW$133, DW_AT_TI_symbol_name("_rsvd_6")
     641                      .dwattr $C$DW$133, DW_AT_data_member_location[DW_OP_plus_uconst 0x6616]
     642                      .dwattr $C$DW$133, DW_AT_accessibility(DW_ACCESS_public)
     643              $C$DW$134       .dwtag  DW_TAG_member
     644                      .dwattr $C$DW$134, DW_AT_type(*$C$DW$T$24)
     645                      .dwattr $C$DW$134, DW_AT_name("ADCSOCFLG1")
     646                      .dwattr $C$DW$134, DW_AT_TI_symbol_name("_ADCSOCFLG1")
     647                      .dwattr $C$DW$134, DW_AT_data_member_location[DW_OP_plus_uconst 0x6618]
     648                      .dwattr $C$DW$134, DW_AT_accessibility(DW_ACCESS_public)
     649              $C$DW$135       .dwtag  DW_TAG_member
     650                      .dwattr $C$DW$135, DW_AT_type(*$C$DW$T$24)
     651                      .dwattr $C$DW$135, DW_AT_name("rsvd_7")
TMS320C2000 Assembler PC v6.2.5 Tue Aug 29 10:13:49 2017

Tools Copyright (c) 1996-2014 Texas Instruments Incorporated
C:\Users\wmj\AppData\Local\Temp\0884811                              PAGE   13

     652                      .dwattr $C$DW$135, DW_AT_TI_symbol_name("_rsvd_7")
     653                      .dwattr $C$DW$135, DW_AT_data_member_location[DW_OP_plus_uconst 0x6619]
     654                      .dwattr $C$DW$135, DW_AT_accessibility(DW_ACCESS_public)
     655              $C$DW$136       .dwtag  DW_TAG_member
     656                      .dwattr $C$DW$136, DW_AT_type(*$C$DW$T$24)
     657                      .dwattr $C$DW$136, DW_AT_name("ADCSOCFRC1")
     658                      .dwattr $C$DW$136, DW_AT_TI_symbol_name("_ADCSOCFRC1")
     659                      .dwattr $C$DW$136, DW_AT_data_member_location[DW_OP_plus_uconst 0x661a]
     660                      .dwattr $C$DW$136, DW_AT_accessibility(DW_ACCESS_public)
     661              $C$DW$137       .dwtag  DW_TAG_member
     662                      .dwattr $C$DW$137, DW_AT_type(*$C$DW$T$24)
     663                      .dwattr $C$DW$137, DW_AT_name("rsvd_8")
     664                      .dwattr $C$DW$137, DW_AT_TI_symbol_name("_rsvd_8")
     665                      .dwattr $C$DW$137, DW_AT_data_member_location[DW_OP_plus_uconst 0x661b]
     666                      .dwattr $C$DW$137, DW_AT_accessibility(DW_ACCESS_public)
     667              $C$DW$138       .dwtag  DW_TAG_member
     668                      .dwattr $C$DW$138, DW_AT_type(*$C$DW$T$24)
     669                      .dwattr $C$DW$138, DW_AT_name("ADCSOCOVF1")
     670                      .dwattr $C$DW$138, DW_AT_TI_symbol_name("_ADCSOCOVF1")
     671                      .dwattr $C$DW$138, DW_AT_data_member_location[DW_OP_plus_uconst 0x661c]
     672                      .dwattr $C$DW$138, DW_AT_accessibility(DW_ACCESS_public)
     673              $C$DW$139       .dwtag  DW_TAG_member
     674                      .dwattr $C$DW$139, DW_AT_type(*$C$DW$T$24)
     675                      .dwattr $C$DW$139, DW_AT_name("rsvd_9")
     676                      .dwattr $C$DW$139, DW_AT_TI_symbol_name("_rsvd_9")
     677                      .dwattr $C$DW$139, DW_AT_data_member_location[DW_OP_plus_uconst 0x661d]
     678                      .dwattr $C$DW$139, DW_AT_accessibility(DW_ACCESS_public)
     679              $C$DW$140       .dwtag  DW_TAG_member
     680                      .dwattr $C$DW$140, DW_AT_type(*$C$DW$T$24)
     681                      .dwattr $C$DW$140, DW_AT_name("ADCSOCOVFCLR1")
     682                      .dwattr $C$DW$140, DW_AT_TI_symbol_name("_ADCSOCOVFCLR1")
     683                      .dwattr $C$DW$140, DW_AT_data_member_location[DW_OP_plus_uconst 0x661e]
     684                      .dwattr $C$DW$140, DW_AT_accessibility(DW_ACCESS_public)
     685              $C$DW$141       .dwtag  DW_TAG_member
     686                      .dwattr $C$DW$141, DW_AT_type(*$C$DW$T$24)
     687                      .dwattr $C$DW$141, DW_AT_name("rsvd_10")
     688                      .dwattr $C$DW$141, DW_AT_TI_symbol_name("_rsvd_10")
     689                      .dwattr $C$DW$141, DW_AT_data_member_location[DW_OP_plus_uconst 0x661f]
     690                      .dwattr $C$DW$141, DW_AT_accessibility(DW_ACCESS_public)
     691              $C$DW$142       .dwtag  DW_TAG_member
     692                      .dwattr $C$DW$142, DW_AT_type(*$C$DW$T$25)
     693                      .dwattr $C$DW$142, DW_AT_name("ADCSOCxCTL")
     694                      .dwattr $C$DW$142, DW_AT_TI_symbol_name("_ADCSOCxCTL")
     695                      .dwattr $C$DW$142, DW_AT_data_member_location[DW_OP_plus_uconst 0x6620]
     696                      .dwattr $C$DW$142, DW_AT_accessibility(DW_ACCESS_public)
     697              $C$DW$143       .dwtag  DW_TAG_member
     698                      .dwattr $C$DW$143, DW_AT_type(*$C$DW$T$25)
     699                      .dwattr $C$DW$143, DW_AT_name("rsvd_11")
     700                      .dwattr $C$DW$143, DW_AT_TI_symbol_name("_rsvd_11")
     701                      .dwattr $C$DW$143, DW_AT_data_member_location[DW_OP_plus_uconst 0x6630]
     702                      .dwattr $C$DW$143, DW_AT_accessibility(DW_ACCESS_public)
     703              $C$DW$144       .dwtag  DW_TAG_member
     704                      .dwattr $C$DW$144, DW_AT_type(*$C$DW$T$24)
     705                      .dwattr $C$DW$144, DW_AT_name("ADCREFTRIM")
     706                      .dwattr $C$DW$144, DW_AT_TI_symbol_name("_ADCREFTRIM")
TMS320C2000 Assembler PC v6.2.5 Tue Aug 29 10:13:49 2017

Tools Copyright (c) 1996-2014 Texas Instruments Incorporated
C:\Users\wmj\AppData\Local\Temp\0884811                              PAGE   14

     707                      .dwattr $C$DW$144, DW_AT_data_member_location[DW_OP_plus_uconst 0x6640]
     708                      .dwattr $C$DW$144, DW_AT_accessibility(DW_ACCESS_public)
     709              $C$DW$145       .dwtag  DW_TAG_member
     710                      .dwattr $C$DW$145, DW_AT_type(*$C$DW$T$24)
     711                      .dwattr $C$DW$145, DW_AT_name("ADCOFFTRIM")
     712                      .dwattr $C$DW$145, DW_AT_TI_symbol_name("_ADCOFFTRIM")
     713                      .dwattr $C$DW$145, DW_AT_data_member_location[DW_OP_plus_uconst 0x6641]
     714                      .dwattr $C$DW$145, DW_AT_accessibility(DW_ACCESS_public)
     715              $C$DW$146       .dwtag  DW_TAG_member
     716                      .dwattr $C$DW$146, DW_AT_type(*$C$DW$T$30)
     717                      .dwattr $C$DW$146, DW_AT_name("resvd_12")
     718                      .dwattr $C$DW$146, DW_AT_TI_symbol_name("_resvd_12")
     719                      .dwattr $C$DW$146, DW_AT_data_member_location[DW_OP_plus_uconst 0x6642]
     720                      .dwattr $C$DW$146, DW_AT_accessibility(DW_ACCESS_public)
     721              $C$DW$147       .dwtag  DW_TAG_member
     722                      .dwattr $C$DW$147, DW_AT_type(*$C$DW$T$24)
     723                      .dwattr $C$DW$147, DW_AT_name("ADCREV")
     724                      .dwattr $C$DW$147, DW_AT_TI_symbol_name("_ADCREV")
     725                      .dwattr $C$DW$147, DW_AT_data_member_location[DW_OP_plus_uconst 0x664f]
     726                      .dwattr $C$DW$147, DW_AT_accessibility(DW_ACCESS_public)
     727                      .dwendtag $C$DW$T$31
     728              
     729              $C$DW$T$66      .dwtag  DW_TAG_pointer_type
     730                      .dwattr $C$DW$T$66, DW_AT_type(*$C$DW$T$31)
     731                      .dwattr $C$DW$T$66, DW_AT_address_class(0x16)
     732              $C$DW$T$67      .dwtag  DW_TAG_typedef, DW_AT_name("ADC_Handle")
     733                      .dwattr $C$DW$T$67, DW_AT_type(*$C$DW$T$66)
     734                      .dwattr $C$DW$T$67, DW_AT_language(DW_LANG_C)
     735              
     736              $C$DW$T$43      .dwtag  DW_TAG_structure_type
     737                      .dwattr $C$DW$T$43, DW_AT_name("_BRAKE_Obj_")
     738                      .dwattr $C$DW$T$43, DW_AT_byte_size(0x2c)
     739              $C$DW$148       .dwtag  DW_TAG_member
     740                      .dwattr $C$DW$148, DW_AT_type(*$C$DW$T$33)
     741                      .dwattr $C$DW$148, DW_AT_name("state")
     742                      .dwattr $C$DW$148, DW_AT_TI_symbol_name("_state")
     743                      .dwattr $C$DW$148, DW_AT_data_member_location[DW_OP_plus_uconst 0x0]
     744                      .dwattr $C$DW$148, DW_AT_accessibility(DW_ACCESS_public)
     745              $C$DW$149       .dwtag  DW_TAG_member
     746                      .dwattr $C$DW$149, DW_AT_type(*$C$DW$T$35)
     747                      .dwattr $C$DW$149, DW_AT_name("pidHandle_Ibrake")
     748                      .dwattr $C$DW$149, DW_AT_TI_symbol_name("_pidHandle_Ibrake")
     749                      .dwattr $C$DW$149, DW_AT_data_member_location[DW_OP_plus_uconst 0x2]
     750                      .dwattr $C$DW$149, DW_AT_accessibility(DW_ACCESS_public)
     751              $C$DW$150       .dwtag  DW_TAG_member
     752                      .dwattr $C$DW$150, DW_AT_type(*$C$DW$T$36)
     753                      .dwattr $C$DW$150, DW_AT_name("pid_Ibrake")
     754                      .dwattr $C$DW$150, DW_AT_TI_symbol_name("_pid_Ibrake")
     755                      .dwattr $C$DW$150, DW_AT_data_member_location[DW_OP_plus_uconst 0x4]
     756                      .dwattr $C$DW$150, DW_AT_accessibility(DW_ACCESS_public)
     757              $C$DW$151       .dwtag  DW_TAG_member
     758                      .dwattr $C$DW$151, DW_AT_type(*$C$DW$T$37)
     759                      .dwattr $C$DW$151, DW_AT_name("Kp_Ibrake")
     760                      .dwattr $C$DW$151, DW_AT_TI_symbol_name("_Kp_Ibrake")
     761                      .dwattr $C$DW$151, DW_AT_data_member_location[DW_OP_plus_uconst 0x14]
TMS320C2000 Assembler PC v6.2.5 Tue Aug 29 10:13:49 2017

Tools Copyright (c) 1996-2014 Texas Instruments Incorporated
C:\Users\wmj\AppData\Local\Temp\0884811                              PAGE   15

     762                      .dwattr $C$DW$151, DW_AT_accessibility(DW_ACCESS_public)
     763              $C$DW$152       .dwtag  DW_TAG_member
     764                      .dwattr $C$DW$152, DW_AT_type(*$C$DW$T$37)
     765                      .dwattr $C$DW$152, DW_AT_name("Ki_Ibrake")
     766                      .dwattr $C$DW$152, DW_AT_TI_symbol_name("_Ki_Ibrake")
     767                      .dwattr $C$DW$152, DW_AT_data_member_location[DW_OP_plus_uconst 0x16]
     768                      .dwattr $C$DW$152, DW_AT_accessibility(DW_ACCESS_public)
     769              $C$DW$153       .dwtag  DW_TAG_member
     770                      .dwattr $C$DW$153, DW_AT_type(*$C$DW$T$37)
     771                      .dwattr $C$DW$153, DW_AT_name("Kd_Ibrake")
     772                      .dwattr $C$DW$153, DW_AT_TI_symbol_name("_Kd_Ibrake")
     773                      .dwattr $C$DW$153, DW_AT_data_member_location[DW_OP_plus_uconst 0x18]
     774                      .dwattr $C$DW$153, DW_AT_accessibility(DW_ACCESS_public)
     775              $C$DW$154       .dwtag  DW_TAG_member
     776                      .dwattr $C$DW$154, DW_AT_type(*$C$DW$T$37)
     777                      .dwattr $C$DW$154, DW_AT_name("Ibrake_ref")
     778                      .dwattr $C$DW$154, DW_AT_TI_symbol_name("_Ibrake_ref")
     779                      .dwattr $C$DW$154, DW_AT_data_member_location[DW_OP_plus_uconst 0x1a]
     780                      .dwattr $C$DW$154, DW_AT_accessibility(DW_ACCESS_public)
     781              $C$DW$155       .dwtag  DW_TAG_member
     782                      .dwattr $C$DW$155, DW_AT_type(*$C$DW$T$37)
     783                      .dwattr $C$DW$155, DW_AT_name("Ibrake_fbk")
     784                      .dwattr $C$DW$155, DW_AT_TI_symbol_name("_Ibrake_fbk")
     785                      .dwattr $C$DW$155, DW_AT_data_member_location[DW_OP_plus_uconst 0x1c]
     786                      .dwattr $C$DW$155, DW_AT_accessibility(DW_ACCESS_public)
     787              $C$DW$156       .dwtag  DW_TAG_member
     788                      .dwattr $C$DW$156, DW_AT_type(*$C$DW$T$38)
     789                      .dwattr $C$DW$156, DW_AT_name("AdcValue_I")
     790                      .dwattr $C$DW$156, DW_AT_TI_symbol_name("_AdcValue_I")
     791                      .dwattr $C$DW$156, DW_AT_data_member_location[DW_OP_plus_uconst 0x1e]
     792                      .dwattr $C$DW$156, DW_AT_accessibility(DW_ACCESS_public)
     793              $C$DW$157       .dwtag  DW_TAG_member
     794                      .dwattr $C$DW$157, DW_AT_type(*$C$DW$T$37)
     795                      .dwattr $C$DW$157, DW_AT_name("Ibrake_out")
     796                      .dwattr $C$DW$157, DW_AT_TI_symbol_name("_Ibrake_out")
     797                      .dwattr $C$DW$157, DW_AT_data_member_location[DW_OP_plus_uconst 0x22]
     798                      .dwattr $C$DW$157, DW_AT_accessibility(DW_ACCESS_public)
     799              $C$DW$158       .dwtag  DW_TAG_member
     800                      .dwattr $C$DW$158, DW_AT_type(*$C$DW$T$37)
     801                      .dwattr $C$DW$158, DW_AT_name("Irated")
     802                      .dwattr $C$DW$158, DW_AT_TI_symbol_name("_Irated")
     803                      .dwattr $C$DW$158, DW_AT_data_member_location[DW_OP_plus_uconst 0x24]
     804                      .dwattr $C$DW$158, DW_AT_accessibility(DW_ACCESS_public)
     805              $C$DW$159       .dwtag  DW_TAG_member
     806                      .dwattr $C$DW$159, DW_AT_type(*$C$DW$T$37)
     807                      .dwattr $C$DW$159, DW_AT_name("current_rate")
     808                      .dwattr $C$DW$159, DW_AT_TI_symbol_name("_current_rate")
     809                      .dwattr $C$DW$159, DW_AT_data_member_location[DW_OP_plus_uconst 0x26]
     810                      .dwattr $C$DW$159, DW_AT_accessibility(DW_ACCESS_public)
     811              $C$DW$160       .dwtag  DW_TAG_member
     812                      .dwattr $C$DW$160, DW_AT_type(*$C$DW$T$40)
     813                      .dwattr $C$DW$160, DW_AT_name("brake_type")
     814                      .dwattr $C$DW$160, DW_AT_TI_symbol_name("_brake_type")
     815                      .dwattr $C$DW$160, DW_AT_data_member_location[DW_OP_plus_uconst 0x28]
     816                      .dwattr $C$DW$160, DW_AT_accessibility(DW_ACCESS_public)
TMS320C2000 Assembler PC v6.2.5 Tue Aug 29 10:13:49 2017

Tools Copyright (c) 1996-2014 Texas Instruments Incorporated
C:\Users\wmj\AppData\Local\Temp\0884811                              PAGE   16

     817              $C$DW$161       .dwtag  DW_TAG_member
     818                      .dwattr $C$DW$161, DW_AT_type(*$C$DW$T$41)
     819                      .dwattr $C$DW$161, DW_AT_name("counter_current")
     820                      .dwattr $C$DW$161, DW_AT_TI_symbol_name("_counter_current")
     821                      .dwattr $C$DW$161, DW_AT_data_member_location[DW_OP_plus_uconst 0x29]
     822                      .dwattr $C$DW$161, DW_AT_accessibility(DW_ACCESS_public)
     823              $C$DW$162       .dwtag  DW_TAG_member
     824                      .dwattr $C$DW$162, DW_AT_type(*$C$DW$T$42)
     825                      .dwattr $C$DW$162, DW_AT_name("flag_enableBrake")
     826                      .dwattr $C$DW$162, DW_AT_TI_symbol_name("_flag_enableBrake")
     827                      .dwattr $C$DW$162, DW_AT_data_member_location[DW_OP_plus_uconst 0x2a]
     828                      .dwattr $C$DW$162, DW_AT_accessibility(DW_ACCESS_public)
     829              $C$DW$163       .dwtag  DW_TAG_member
     830                      .dwattr $C$DW$163, DW_AT_type(*$C$DW$T$42)
     831                      .dwattr $C$DW$163, DW_AT_name("flag_enableOffset")
     832                      .dwattr $C$DW$163, DW_AT_TI_symbol_name("_flag_enableOffset")
     833                      .dwattr $C$DW$163, DW_AT_data_member_location[DW_OP_plus_uconst 0x2b]
     834                      .dwattr $C$DW$163, DW_AT_accessibility(DW_ACCESS_public)
     835                      .dwendtag $C$DW$T$43
     836              
     837              $C$DW$T$181     .dwtag  DW_TAG_typedef, DW_AT_name("BRAKE_Obj")
     838                      .dwattr $C$DW$T$181, DW_AT_type(*$C$DW$T$43)
     839                      .dwattr $C$DW$T$181, DW_AT_language(DW_LANG_C)
     840              $C$DW$T$179     .dwtag  DW_TAG_pointer_type
     841                      .dwattr $C$DW$T$179, DW_AT_type(*$C$DW$T$43)
     842                      .dwattr $C$DW$T$179, DW_AT_address_class(0x16)
     843              $C$DW$T$180     .dwtag  DW_TAG_typedef, DW_AT_name("BRAKE_Handle")
     844                      .dwattr $C$DW$T$180, DW_AT_type(*$C$DW$T$179)
     845                      .dwattr $C$DW$T$180, DW_AT_language(DW_LANG_C)
     846              
     847              $C$DW$T$44      .dwtag  DW_TAG_structure_type
     848                      .dwattr $C$DW$T$44, DW_AT_name("_CLK_DIV_t_")
     849                      .dwattr $C$DW$T$44, DW_AT_byte_size(0x02)
     850              $C$DW$164       .dwtag  DW_TAG_member
     851                      .dwattr $C$DW$164, DW_AT_type(*$C$DW$T$23)
     852                      .dwattr $C$DW$164, DW_AT_name("FREF_DIVIDER")
     853                      .dwattr $C$DW$164, DW_AT_TI_symbol_name("_FREF_DIVIDER")
     854                      .dwattr $C$DW$164, DW_AT_data_member_location[DW_OP_plus_uconst 0x0]
     855                      .dwattr $C$DW$164, DW_AT_accessibility(DW_ACCESS_public)
     856              $C$DW$165       .dwtag  DW_TAG_member
     857                      .dwattr $C$DW$165, DW_AT_type(*$C$DW$T$23)
     858                      .dwattr $C$DW$165, DW_AT_name("FIN_DIVIDER")
     859                      .dwattr $C$DW$165, DW_AT_TI_symbol_name("_FIN_DIVIDER")
     860                      .dwattr $C$DW$165, DW_AT_data_member_location[DW_OP_plus_uconst 0x1]
     861                      .dwattr $C$DW$165, DW_AT_accessibility(DW_ACCESS_public)
     862                      .dwendtag $C$DW$T$44
     863              
     864              $C$DW$T$102     .dwtag  DW_TAG_typedef, DW_AT_name("CLK_DIV_t_")
     865                      .dwattr $C$DW$T$102, DW_AT_type(*$C$DW$T$44)
     866                      .dwattr $C$DW$T$102, DW_AT_language(DW_LANG_C)
     867              
     868              $C$DW$T$46      .dwtag  DW_TAG_structure_type
     869                      .dwattr $C$DW$T$46, DW_AT_name("_CLK_Obj_")
     870                      .dwattr $C$DW$T$46, DW_AT_byte_size(0x11)
     871              $C$DW$166       .dwtag  DW_TAG_member
TMS320C2000 Assembler PC v6.2.5 Tue Aug 29 10:13:49 2017

Tools Copyright (c) 1996-2014 Texas Instruments Incorporated
C:\Users\wmj\AppData\Local\Temp\0884811                              PAGE   17

     872                      .dwattr $C$DW$166, DW_AT_type(*$C$DW$T$24)
     873                      .dwattr $C$DW$166, DW_AT_name("XCLK")
     874                      .dwattr $C$DW$166, DW_AT_TI_symbol_name("_XCLK")
     875                      .dwattr $C$DW$166, DW_AT_data_member_location[DW_OP_plus_uconst 0x0]
     876                      .dwattr $C$DW$166, DW_AT_accessibility(DW_ACCESS_public)
     877              $C$DW$167       .dwtag  DW_TAG_member
     878                      .dwattr $C$DW$167, DW_AT_type(*$C$DW$T$24)
     879                      .dwattr $C$DW$167, DW_AT_name("rsvd_1")
     880                      .dwattr $C$DW$167, DW_AT_TI_symbol_name("_rsvd_1")
     881                      .dwattr $C$DW$167, DW_AT_data_member_location[DW_OP_plus_uconst 0x1]
     882                      .dwattr $C$DW$167, DW_AT_accessibility(DW_ACCESS_public)
     883              $C$DW$168       .dwtag  DW_TAG_member
     884                      .dwattr $C$DW$168, DW_AT_type(*$C$DW$T$24)
     885                      .dwattr $C$DW$168, DW_AT_name("CLKCTL")
     886                      .dwattr $C$DW$168, DW_AT_TI_symbol_name("_CLKCTL")
     887                      .dwattr $C$DW$168, DW_AT_data_member_location[DW_OP_plus_uconst 0x2]
     888                      .dwattr $C$DW$168, DW_AT_accessibility(DW_ACCESS_public)
     889              $C$DW$169       .dwtag  DW_TAG_member
     890                      .dwattr $C$DW$169, DW_AT_type(*$C$DW$T$45)
     891                      .dwattr $C$DW$169, DW_AT_name("rsvd_2")
     892                      .dwattr $C$DW$169, DW_AT_TI_symbol_name("_rsvd_2")
     893                      .dwattr $C$DW$169, DW_AT_data_member_location[DW_OP_plus_uconst 0x3]
     894                      .dwattr $C$DW$169, DW_AT_accessibility(DW_ACCESS_public)
     895              $C$DW$170       .dwtag  DW_TAG_member
     896                      .dwattr $C$DW$170, DW_AT_type(*$C$DW$T$24)
     897                      .dwattr $C$DW$170, DW_AT_name("LOSPCP")
     898                      .dwattr $C$DW$170, DW_AT_TI_symbol_name("_LOSPCP")
     899                      .dwattr $C$DW$170, DW_AT_data_member_location[DW_OP_plus_uconst 0xb]
     900                      .dwattr $C$DW$170, DW_AT_accessibility(DW_ACCESS_public)
     901              $C$DW$171       .dwtag  DW_TAG_member
     902                      .dwattr $C$DW$171, DW_AT_type(*$C$DW$T$24)
     903                      .dwattr $C$DW$171, DW_AT_name("PCLKCR0")
     904                      .dwattr $C$DW$171, DW_AT_TI_symbol_name("_PCLKCR0")
     905                      .dwattr $C$DW$171, DW_AT_data_member_location[DW_OP_plus_uconst 0xc]
     906                      .dwattr $C$DW$171, DW_AT_accessibility(DW_ACCESS_public)
     907              $C$DW$172       .dwtag  DW_TAG_member
     908                      .dwattr $C$DW$172, DW_AT_type(*$C$DW$T$24)
     909                      .dwattr $C$DW$172, DW_AT_name("PCLKCR1")
     910                      .dwattr $C$DW$172, DW_AT_TI_symbol_name("_PCLKCR1")
     911                      .dwattr $C$DW$172, DW_AT_data_member_location[DW_OP_plus_uconst 0xd]
     912                      .dwattr $C$DW$172, DW_AT_accessibility(DW_ACCESS_public)
     913              $C$DW$173       .dwtag  DW_TAG_member
     914                      .dwattr $C$DW$173, DW_AT_type(*$C$DW$T$27)
     915                      .dwattr $C$DW$173, DW_AT_name("rsvd_3")
     916                      .dwattr $C$DW$173, DW_AT_TI_symbol_name("_rsvd_3")
     917                      .dwattr $C$DW$173, DW_AT_data_member_location[DW_OP_plus_uconst 0xe]
     918                      .dwattr $C$DW$173, DW_AT_accessibility(DW_ACCESS_public)
     919              $C$DW$174       .dwtag  DW_TAG_member
     920                      .dwattr $C$DW$174, DW_AT_type(*$C$DW$T$24)
     921                      .dwattr $C$DW$174, DW_AT_name("PCLKCR3")
     922                      .dwattr $C$DW$174, DW_AT_TI_symbol_name("_PCLKCR3")
     923                      .dwattr $C$DW$174, DW_AT_data_member_location[DW_OP_plus_uconst 0x10]
     924                      .dwattr $C$DW$174, DW_AT_accessibility(DW_ACCESS_public)
     925                      .dwendtag $C$DW$T$46
     926              
TMS320C2000 Assembler PC v6.2.5 Tue Aug 29 10:13:49 2017

Tools Copyright (c) 1996-2014 Texas Instruments Incorporated
C:\Users\wmj\AppData\Local\Temp\0884811                              PAGE   18

     927              $C$DW$T$68      .dwtag  DW_TAG_pointer_type
     928                      .dwattr $C$DW$T$68, DW_AT_type(*$C$DW$T$46)
     929                      .dwattr $C$DW$T$68, DW_AT_address_class(0x16)
     930              $C$DW$T$69      .dwtag  DW_TAG_typedef, DW_AT_name("CLK_Handle")
     931                      .dwattr $C$DW$T$69, DW_AT_type(*$C$DW$T$68)
     932                      .dwattr $C$DW$T$69, DW_AT_language(DW_LANG_C)
     933              
     934              $C$DW$T$48      .dwtag  DW_TAG_structure_type
     935                      .dwattr $C$DW$T$48, DW_AT_name("_CPU_Obj_")
     936                      .dwattr $C$DW$T$48, DW_AT_byte_size(0x01)
     937              $C$DW$175       .dwtag  DW_TAG_member
     938                      .dwattr $C$DW$175, DW_AT_type(*$C$DW$T$47)
     939                      .dwattr $C$DW$175, DW_AT_name("tmp")
     940                      .dwattr $C$DW$175, DW_AT_TI_symbol_name("_tmp")
     941                      .dwattr $C$DW$175, DW_AT_data_member_location[DW_OP_plus_uconst 0x0]
     942                      .dwattr $C$DW$175, DW_AT_accessibility(DW_ACCESS_public)
     943                      .dwendtag $C$DW$T$48
     944              
     945              $C$DW$T$70      .dwtag  DW_TAG_pointer_type
     946                      .dwattr $C$DW$T$70, DW_AT_type(*$C$DW$T$48)
     947                      .dwattr $C$DW$T$70, DW_AT_address_class(0x16)
     948              $C$DW$T$71      .dwtag  DW_TAG_typedef, DW_AT_name("CPU_Handle")
     949                      .dwattr $C$DW$T$71, DW_AT_type(*$C$DW$T$70)
     950                      .dwattr $C$DW$T$71, DW_AT_language(DW_LANG_C)
     951              
     952              $C$DW$T$55      .dwtag  DW_TAG_structure_type
     953                      .dwattr $C$DW$T$55, DW_AT_name("_DECODER_Obj_")
     954                      .dwattr $C$DW$T$55, DW_AT_byte_size(0x06)
     955              $C$DW$176       .dwtag  DW_TAG_member
     956                      .dwattr $C$DW$176, DW_AT_type(*$C$DW$T$50)
     957                      .dwattr $C$DW$176, DW_AT_name("spiHandle")
     958                      .dwattr $C$DW$176, DW_AT_TI_symbol_name("_spiHandle")
     959                      .dwattr $C$DW$176, DW_AT_data_member_location[DW_OP_plus_uconst 0x0]
     960                      .dwattr $C$DW$176, DW_AT_accessibility(DW_ACCESS_public)
     961              $C$DW$177       .dwtag  DW_TAG_member
     962                      .dwattr $C$DW$177, DW_AT_type(*$C$DW$T$52)
     963                      .dwattr $C$DW$177, DW_AT_name("gpioHandle")
     964                      .dwattr $C$DW$177, DW_AT_TI_symbol_name("_gpioHandle")
     965                      .dwattr $C$DW$177, DW_AT_data_member_location[DW_OP_plus_uconst 0x2]
     966                      .dwattr $C$DW$177, DW_AT_accessibility(DW_ACCESS_public)
     967              $C$DW$178       .dwtag  DW_TAG_member
     968                      .dwattr $C$DW$178, DW_AT_type(*$C$DW$T$54)
     969                      .dwattr $C$DW$178, DW_AT_name("gpioNumber")
     970                      .dwattr $C$DW$178, DW_AT_TI_symbol_name("_gpioNumber")
     971                      .dwattr $C$DW$178, DW_AT_data_member_location[DW_OP_plus_uconst 0x4]
     972                      .dwattr $C$DW$178, DW_AT_accessibility(DW_ACCESS_public)
     973              $C$DW$179       .dwtag  DW_TAG_member
     974                      .dwattr $C$DW$179, DW_AT_type(*$C$DW$T$42)
     975                      .dwattr $C$DW$179, DW_AT_name("RxTimeOut")
     976                      .dwattr $C$DW$179, DW_AT_TI_symbol_name("_RxTimeOut")
     977                      .dwattr $C$DW$179, DW_AT_data_member_location[DW_OP_plus_uconst 0x5]
     978                      .dwattr $C$DW$179, DW_AT_accessibility(DW_ACCESS_public)
     979                      .dwendtag $C$DW$T$55
     980              
     981              $C$DW$T$178     .dwtag  DW_TAG_typedef, DW_AT_name("DECODER_Obj")
TMS320C2000 Assembler PC v6.2.5 Tue Aug 29 10:13:49 2017

Tools Copyright (c) 1996-2014 Texas Instruments Incorporated
C:\Users\wmj\AppData\Local\Temp\0884811                              PAGE   19

     982                      .dwattr $C$DW$T$178, DW_AT_type(*$C$DW$T$55)
     983                      .dwattr $C$DW$T$178, DW_AT_language(DW_LANG_C)
     984              $C$DW$T$176     .dwtag  DW_TAG_pointer_type
     985                      .dwattr $C$DW$T$176, DW_AT_type(*$C$DW$T$55)
     986                      .dwattr $C$DW$T$176, DW_AT_address_class(0x16)
     987              $C$DW$T$177     .dwtag  DW_TAG_typedef, DW_AT_name("DECODER_Handle")
     988                      .dwattr $C$DW$T$177, DW_AT_type(*$C$DW$T$176)
     989                      .dwattr $C$DW$T$177, DW_AT_language(DW_LANG_C)
     990              
     991              $C$DW$T$56      .dwtag  DW_TAG_structure_type
     992                      .dwattr $C$DW$T$56, DW_AT_name("_DRIVE_CURRENT_t_")
     993                      .dwattr $C$DW$T$56, DW_AT_byte_size(0x02)
     994              $C$DW$180       .dwtag  DW_TAG_member
     995                      .dwattr $C$DW$180, DW_AT_type(*$C$DW$T$23)
     996                      .dwattr $C$DW$180, DW_AT_name("IDRIVE")
     997                      .dwattr $C$DW$180, DW_AT_TI_symbol_name("_IDRIVE")
     998                      .dwattr $C$DW$180, DW_AT_data_member_location[DW_OP_plus_uconst 0x0]
     999                      .dwattr $C$DW$180, DW_AT_accessibility(DW_ACCESS_public)
    1000              $C$DW$181       .dwtag  DW_TAG_member
    1001                      .dwattr $C$DW$181, DW_AT_type(*$C$DW$T$23)
    1002                      .dwattr $C$DW$181, DW_AT_name("INIT_IDRIVE")
    1003                      .dwattr $C$DW$181, DW_AT_TI_symbol_name("_INIT_IDRIVE")
    1004                      .dwattr $C$DW$181, DW_AT_data_member_location[DW_OP_plus_uconst 0x1]
    1005                      .dwattr $C$DW$181, DW_AT_accessibility(DW_ACCESS_public)
    1006                      .dwendtag $C$DW$T$56
    1007              
    1008              $C$DW$T$122     .dwtag  DW_TAG_typedef, DW_AT_name("DRIVE_CURRENT_t_")
    1009                      .dwattr $C$DW$T$122, DW_AT_type(*$C$DW$T$56)
    1010                      .dwattr $C$DW$T$122, DW_AT_language(DW_LANG_C)
    1011              
    1012              $C$DW$T$57      .dwtag  DW_TAG_structure_type
    1013                      .dwattr $C$DW$T$57, DW_AT_name("_FILTER_FO_")
    1014                      .dwattr $C$DW$T$57, DW_AT_byte_size(0x0a)
    1015              $C$DW$182       .dwtag  DW_TAG_member
    1016                      .dwattr $C$DW$182, DW_AT_type(*$C$DW$T$37)
    1017                      .dwattr $C$DW$182, DW_AT_name("a1")
    1018                      .dwattr $C$DW$182, DW_AT_TI_symbol_name("_a1")
    1019                      .dwattr $C$DW$182, DW_AT_data_member_location[DW_OP_plus_uconst 0x0]
    1020                      .dwattr $C$DW$182, DW_AT_accessibility(DW_ACCESS_public)
    1021              $C$DW$183       .dwtag  DW_TAG_member
    1022                      .dwattr $C$DW$183, DW_AT_type(*$C$DW$T$37)
    1023                      .dwattr $C$DW$183, DW_AT_name("b0")
    1024                      .dwattr $C$DW$183, DW_AT_TI_symbol_name("_b0")
    1025                      .dwattr $C$DW$183, DW_AT_data_member_location[DW_OP_plus_uconst 0x2]
    1026                      .dwattr $C$DW$183, DW_AT_accessibility(DW_ACCESS_public)
    1027              $C$DW$184       .dwtag  DW_TAG_member
    1028                      .dwattr $C$DW$184, DW_AT_type(*$C$DW$T$37)
    1029                      .dwattr $C$DW$184, DW_AT_name("b1")
    1030                      .dwattr $C$DW$184, DW_AT_TI_symbol_name("_b1")
    1031                      .dwattr $C$DW$184, DW_AT_data_member_location[DW_OP_plus_uconst 0x4]
    1032                      .dwattr $C$DW$184, DW_AT_accessibility(DW_ACCESS_public)
    1033              $C$DW$185       .dwtag  DW_TAG_member
    1034                      .dwattr $C$DW$185, DW_AT_type(*$C$DW$T$37)
    1035                      .dwattr $C$DW$185, DW_AT_name("x1")
    1036                      .dwattr $C$DW$185, DW_AT_TI_symbol_name("_x1")
TMS320C2000 Assembler PC v6.2.5 Tue Aug 29 10:13:49 2017

Tools Copyright (c) 1996-2014 Texas Instruments Incorporated
C:\Users\wmj\AppData\Local\Temp\0884811                              PAGE   20

    1037                      .dwattr $C$DW$185, DW_AT_data_member_location[DW_OP_plus_uconst 0x6]
    1038                      .dwattr $C$DW$185, DW_AT_accessibility(DW_ACCESS_public)
    1039              $C$DW$186       .dwtag  DW_TAG_member
    1040                      .dwattr $C$DW$186, DW_AT_type(*$C$DW$T$37)
    1041                      .dwattr $C$DW$186, DW_AT_name("y1")
    1042                      .dwattr $C$DW$186, DW_AT_TI_symbol_name("_y1")
    1043                      .dwattr $C$DW$186, DW_AT_data_member_location[DW_OP_plus_uconst 0x8]
    1044                      .dwattr $C$DW$186, DW_AT_accessibility(DW_ACCESS_public)
    1045                      .dwendtag $C$DW$T$57
    1046              
    1047              $C$DW$T$140     .dwtag  DW_TAG_typedef, DW_AT_name("FILTER_FO_Obj")
    1048                      .dwattr $C$DW$T$140, DW_AT_type(*$C$DW$T$57)
    1049                      .dwattr $C$DW$T$140, DW_AT_language(DW_LANG_C)
    1050              
    1051              $C$DW$T$21      .dwtag  DW_TAG_structure_type
    1052                      .dwattr $C$DW$T$21, DW_AT_name("_FILTER_FO_Obj_")
    1053                      .dwattr $C$DW$T$21, DW_AT_declaration
    1054                      .dwendtag $C$DW$T$21
    1055              
    1056              $C$DW$T$141     .dwtag  DW_TAG_pointer_type
    1057                      .dwattr $C$DW$T$141, DW_AT_type(*$C$DW$T$21)
    1058                      .dwattr $C$DW$T$141, DW_AT_address_class(0x16)
    1059              $C$DW$T$142     .dwtag  DW_TAG_typedef, DW_AT_name("FILTER_FO_Handle")
    1060                      .dwattr $C$DW$T$142, DW_AT_type(*$C$DW$T$141)
    1061                      .dwattr $C$DW$T$142, DW_AT_language(DW_LANG_C)
    1062              
    1063              $C$DW$T$58      .dwtag  DW_TAG_structure_type
    1064                      .dwattr $C$DW$T$58, DW_AT_name("_FLASH_Obj_")
    1065                      .dwattr $C$DW$T$58, DW_AT_byte_size(0x08)
    1066              $C$DW$187       .dwtag  DW_TAG_member
    1067                      .dwattr $C$DW$187, DW_AT_type(*$C$DW$T$24)
    1068                      .dwattr $C$DW$187, DW_AT_name("FOPT")
    1069                      .dwattr $C$DW$187, DW_AT_TI_symbol_name("_FOPT")
    1070                      .dwattr $C$DW$187, DW_AT_data_member_location[DW_OP_plus_uconst 0x0]
    1071                      .dwattr $C$DW$187, DW_AT_accessibility(DW_ACCESS_public)
    1072              $C$DW$188       .dwtag  DW_TAG_member
    1073                      .dwattr $C$DW$188, DW_AT_type(*$C$DW$T$24)
    1074                      .dwattr $C$DW$188, DW_AT_name("rsvd_1")
    1075                      .dwattr $C$DW$188, DW_AT_TI_symbol_name("_rsvd_1")
    1076                      .dwattr $C$DW$188, DW_AT_data_member_location[DW_OP_plus_uconst 0x1]
    1077                      .dwattr $C$DW$188, DW_AT_accessibility(DW_ACCESS_public)
    1078              $C$DW$189       .dwtag  DW_TAG_member
    1079                      .dwattr $C$DW$189, DW_AT_type(*$C$DW$T$24)
    1080                      .dwattr $C$DW$189, DW_AT_name("FPWR")
    1081                      .dwattr $C$DW$189, DW_AT_TI_symbol_name("_FPWR")
    1082                      .dwattr $C$DW$189, DW_AT_data_member_location[DW_OP_plus_uconst 0x2]
    1083                      .dwattr $C$DW$189, DW_AT_accessibility(DW_ACCESS_public)
    1084              $C$DW$190       .dwtag  DW_TAG_member
    1085                      .dwattr $C$DW$190, DW_AT_type(*$C$DW$T$24)
    1086                      .dwattr $C$DW$190, DW_AT_name("FSTATUS")
    1087                      .dwattr $C$DW$190, DW_AT_TI_symbol_name("_FSTATUS")
    1088                      .dwattr $C$DW$190, DW_AT_data_member_location[DW_OP_plus_uconst 0x3]
    1089                      .dwattr $C$DW$190, DW_AT_accessibility(DW_ACCESS_public)
    1090              $C$DW$191       .dwtag  DW_TAG_member
    1091                      .dwattr $C$DW$191, DW_AT_type(*$C$DW$T$24)
TMS320C2000 Assembler PC v6.2.5 Tue Aug 29 10:13:49 2017

Tools Copyright (c) 1996-2014 Texas Instruments Incorporated
C:\Users\wmj\AppData\Local\Temp\0884811                              PAGE   21

    1092                      .dwattr $C$DW$191, DW_AT_name("FSTDBYWAIT")
    1093                      .dwattr $C$DW$191, DW_AT_TI_symbol_name("_FSTDBYWAIT")
    1094                      .dwattr $C$DW$191, DW_AT_data_member_location[DW_OP_plus_uconst 0x4]
    1095                      .dwattr $C$DW$191, DW_AT_accessibility(DW_ACCESS_public)
    1096              $C$DW$192       .dwtag  DW_TAG_member
    1097                      .dwattr $C$DW$192, DW_AT_type(*$C$DW$T$24)
    1098                      .dwattr $C$DW$192, DW_AT_name("FACTIVEWAIT")
    1099                      .dwattr $C$DW$192, DW_AT_TI_symbol_name("_FACTIVEWAIT")
    1100                      .dwattr $C$DW$192, DW_AT_data_member_location[DW_OP_plus_uconst 0x5]
    1101                      .dwattr $C$DW$192, DW_AT_accessibility(DW_ACCESS_public)
    1102              $C$DW$193       .dwtag  DW_TAG_member
    1103                      .dwattr $C$DW$193, DW_AT_type(*$C$DW$T$24)
    1104                      .dwattr $C$DW$193, DW_AT_name("FBANKWAIT")
    1105                      .dwattr $C$DW$193, DW_AT_TI_symbol_name("_FBANKWAIT")
    1106                      .dwattr $C$DW$193, DW_AT_data_member_location[DW_OP_plus_uconst 0x6]
    1107                      .dwattr $C$DW$193, DW_AT_accessibility(DW_ACCESS_public)
    1108              $C$DW$194       .dwtag  DW_TAG_member
    1109                      .dwattr $C$DW$194, DW_AT_type(*$C$DW$T$24)
    1110                      .dwattr $C$DW$194, DW_AT_name("FOTPWAIT")
    1111                      .dwattr $C$DW$194, DW_AT_TI_symbol_name("_FOTPWAIT")
    1112                      .dwattr $C$DW$194, DW_AT_data_member_location[DW_OP_plus_uconst 0x7]
    1113                      .dwattr $C$DW$194, DW_AT_accessibility(DW_ACCESS_public)
    1114                      .dwendtag $C$DW$T$58
    1115              
    1116              $C$DW$T$72      .dwtag  DW_TAG_pointer_type
    1117                      .dwattr $C$DW$T$72, DW_AT_type(*$C$DW$T$58)
    1118                      .dwattr $C$DW$T$72, DW_AT_address_class(0x16)
    1119              $C$DW$T$73      .dwtag  DW_TAG_typedef, DW_AT_name("FLASH_Handle")
    1120                      .dwattr $C$DW$T$73, DW_AT_type(*$C$DW$T$72)
    1121                      .dwattr $C$DW$T$73, DW_AT_language(DW_LANG_C)
    1122              
    1123              $C$DW$T$63      .dwtag  DW_TAG_structure_type
    1124                      .dwattr $C$DW$T$63, DW_AT_name("_GPIO_Obj_")
    1125                      .dwattr $C$DW$T$63, DW_AT_byte_size(0x6a)
    1126              $C$DW$195       .dwtag  DW_TAG_member
    1127                      .dwattr $C$DW$195, DW_AT_type(*$C$DW$T$60)
    1128                      .dwattr $C$DW$195, DW_AT_name("GPACTRL")
    1129                      .dwattr $C$DW$195, DW_AT_TI_symbol_name("_GPACTRL")
    1130                      .dwattr $C$DW$195, DW_AT_data_member_location[DW_OP_plus_uconst 0x0]
    1131                      .dwattr $C$DW$195, DW_AT_accessibility(DW_ACCESS_public)
    1132              $C$DW$196       .dwtag  DW_TAG_member
    1133                      .dwattr $C$DW$196, DW_AT_type(*$C$DW$T$60)
    1134                      .dwattr $C$DW$196, DW_AT_name("GPAQSEL1")
    1135                      .dwattr $C$DW$196, DW_AT_TI_symbol_name("_GPAQSEL1")
    1136                      .dwattr $C$DW$196, DW_AT_data_member_location[DW_OP_plus_uconst 0x2]
    1137                      .dwattr $C$DW$196, DW_AT_accessibility(DW_ACCESS_public)
    1138              $C$DW$197       .dwtag  DW_TAG_member
    1139                      .dwattr $C$DW$197, DW_AT_type(*$C$DW$T$60)
    1140                      .dwattr $C$DW$197, DW_AT_name("GPAQSEL2")
    1141                      .dwattr $C$DW$197, DW_AT_TI_symbol_name("_GPAQSEL2")
    1142                      .dwattr $C$DW$197, DW_AT_data_member_location[DW_OP_plus_uconst 0x4]
    1143                      .dwattr $C$DW$197, DW_AT_accessibility(DW_ACCESS_public)
    1144              $C$DW$198       .dwtag  DW_TAG_member
    1145                      .dwattr $C$DW$198, DW_AT_type(*$C$DW$T$60)
    1146                      .dwattr $C$DW$198, DW_AT_name("GPAMUX1")
TMS320C2000 Assembler PC v6.2.5 Tue Aug 29 10:13:49 2017

Tools Copyright (c) 1996-2014 Texas Instruments Incorporated
C:\Users\wmj\AppData\Local\Temp\0884811                              PAGE   22

    1147                      .dwattr $C$DW$198, DW_AT_TI_symbol_name("_GPAMUX1")
    1148                      .dwattr $C$DW$198, DW_AT_data_member_location[DW_OP_plus_uconst 0x6]
    1149                      .dwattr $C$DW$198, DW_AT_accessibility(DW_ACCESS_public)
    1150              $C$DW$199       .dwtag  DW_TAG_member
    1151                      .dwattr $C$DW$199, DW_AT_type(*$C$DW$T$60)
    1152                      .dwattr $C$DW$199, DW_AT_name("GPAMUX2")
    1153                      .dwattr $C$DW$199, DW_AT_TI_symbol_name("_GPAMUX2")
    1154                      .dwattr $C$DW$199, DW_AT_data_member_location[DW_OP_plus_uconst 0x8]
    1155                      .dwattr $C$DW$199, DW_AT_accessibility(DW_ACCESS_public)
    1156              $C$DW$200       .dwtag  DW_TAG_member
    1157                      .dwattr $C$DW$200, DW_AT_type(*$C$DW$T$60)
    1158                      .dwattr $C$DW$200, DW_AT_name("GPADIR")
    1159                      .dwattr $C$DW$200, DW_AT_TI_symbol_name("_GPADIR")
    1160                      .dwattr $C$DW$200, DW_AT_data_member_location[DW_OP_plus_uconst 0xa]
    1161                      .dwattr $C$DW$200, DW_AT_accessibility(DW_ACCESS_public)
    1162              $C$DW$201       .dwtag  DW_TAG_member
    1163                      .dwattr $C$DW$201, DW_AT_type(*$C$DW$T$60)
    1164                      .dwattr $C$DW$201, DW_AT_name("GPAPUD")
    1165                      .dwattr $C$DW$201, DW_AT_TI_symbol_name("_GPAPUD")
    1166                      .dwattr $C$DW$201, DW_AT_data_member_location[DW_OP_plus_uconst 0xc]
    1167                      .dwattr $C$DW$201, DW_AT_accessibility(DW_ACCESS_public)
    1168              $C$DW$202       .dwtag  DW_TAG_member
    1169                      .dwattr $C$DW$202, DW_AT_type(*$C$DW$T$27)
    1170                      .dwattr $C$DW$202, DW_AT_name("rsvd_1")
    1171                      .dwattr $C$DW$202, DW_AT_TI_symbol_name("_rsvd_1")
    1172                      .dwattr $C$DW$202, DW_AT_data_member_location[DW_OP_plus_uconst 0xe]
    1173                      .dwattr $C$DW$202, DW_AT_accessibility(DW_ACCESS_public)
    1174              $C$DW$203       .dwtag  DW_TAG_member
    1175                      .dwattr $C$DW$203, DW_AT_type(*$C$DW$T$60)
    1176                      .dwattr $C$DW$203, DW_AT_name("GPBCTRL")
    1177                      .dwattr $C$DW$203, DW_AT_TI_symbol_name("_GPBCTRL")
    1178                      .dwattr $C$DW$203, DW_AT_data_member_location[DW_OP_plus_uconst 0x10]
    1179                      .dwattr $C$DW$203, DW_AT_accessibility(DW_ACCESS_public)
    1180              $C$DW$204       .dwtag  DW_TAG_member
    1181                      .dwattr $C$DW$204, DW_AT_type(*$C$DW$T$60)
    1182                      .dwattr $C$DW$204, DW_AT_name("GPBQSEL1")
    1183                      .dwattr $C$DW$204, DW_AT_TI_symbol_name("_GPBQSEL1")
    1184                      .dwattr $C$DW$204, DW_AT_data_member_location[DW_OP_plus_uconst 0x12]
    1185                      .dwattr $C$DW$204, DW_AT_accessibility(DW_ACCESS_public)
    1186              $C$DW$205       .dwtag  DW_TAG_member
    1187                      .dwattr $C$DW$205, DW_AT_type(*$C$DW$T$27)
    1188                      .dwattr $C$DW$205, DW_AT_name("rsvd_2")
    1189                      .dwattr $C$DW$205, DW_AT_TI_symbol_name("_rsvd_2")
    1190                      .dwattr $C$DW$205, DW_AT_data_member_location[DW_OP_plus_uconst 0x14]
    1191                      .dwattr $C$DW$205, DW_AT_accessibility(DW_ACCESS_public)
    1192              $C$DW$206       .dwtag  DW_TAG_member
    1193                      .dwattr $C$DW$206, DW_AT_type(*$C$DW$T$60)
    1194                      .dwattr $C$DW$206, DW_AT_name("GPBMUX1")
    1195                      .dwattr $C$DW$206, DW_AT_TI_symbol_name("_GPBMUX1")
    1196                      .dwattr $C$DW$206, DW_AT_data_member_location[DW_OP_plus_uconst 0x16]
    1197                      .dwattr $C$DW$206, DW_AT_accessibility(DW_ACCESS_public)
    1198              $C$DW$207       .dwtag  DW_TAG_member
    1199                      .dwattr $C$DW$207, DW_AT_type(*$C$DW$T$27)
    1200                      .dwattr $C$DW$207, DW_AT_name("rsvd_3")
    1201                      .dwattr $C$DW$207, DW_AT_TI_symbol_name("_rsvd_3")
TMS320C2000 Assembler PC v6.2.5 Tue Aug 29 10:13:49 2017

Tools Copyright (c) 1996-2014 Texas Instruments Incorporated
C:\Users\wmj\AppData\Local\Temp\0884811                              PAGE   23

    1202                      .dwattr $C$DW$207, DW_AT_data_member_location[DW_OP_plus_uconst 0x18]
    1203                      .dwattr $C$DW$207, DW_AT_accessibility(DW_ACCESS_public)
    1204              $C$DW$208       .dwtag  DW_TAG_member
    1205                      .dwattr $C$DW$208, DW_AT_type(*$C$DW$T$60)
    1206                      .dwattr $C$DW$208, DW_AT_name("GPBDIR")
    1207                      .dwattr $C$DW$208, DW_AT_TI_symbol_name("_GPBDIR")
    1208                      .dwattr $C$DW$208, DW_AT_data_member_location[DW_OP_plus_uconst 0x1a]
    1209                      .dwattr $C$DW$208, DW_AT_accessibility(DW_ACCESS_public)
    1210              $C$DW$209       .dwtag  DW_TAG_member
    1211                      .dwattr $C$DW$209, DW_AT_type(*$C$DW$T$60)
    1212                      .dwattr $C$DW$209, DW_AT_name("GPBPUD")
    1213                      .dwattr $C$DW$209, DW_AT_TI_symbol_name("_GPBPUD")
    1214                      .dwattr $C$DW$209, DW_AT_data_member_location[DW_OP_plus_uconst 0x1c]
    1215                      .dwattr $C$DW$209, DW_AT_accessibility(DW_ACCESS_public)
    1216              $C$DW$210       .dwtag  DW_TAG_member
    1217                      .dwattr $C$DW$210, DW_AT_type(*$C$DW$T$61)
    1218                      .dwattr $C$DW$210, DW_AT_name("rsvd_4")
    1219                      .dwattr $C$DW$210, DW_AT_TI_symbol_name("_rsvd_4")
    1220                      .dwattr $C$DW$210, DW_AT_data_member_location[DW_OP_plus_uconst 0x1e]
    1221                      .dwattr $C$DW$210, DW_AT_accessibility(DW_ACCESS_public)
    1222              $C$DW$211       .dwtag  DW_TAG_member
    1223                      .dwattr $C$DW$211, DW_AT_type(*$C$DW$T$60)
    1224                      .dwattr $C$DW$211, DW_AT_name("AIOMUX1")
    1225                      .dwattr $C$DW$211, DW_AT_TI_symbol_name("_AIOMUX1")
    1226                      .dwattr $C$DW$211, DW_AT_data_member_location[DW_OP_plus_uconst 0x36]
    1227                      .dwattr $C$DW$211, DW_AT_accessibility(DW_ACCESS_public)
    1228              $C$DW$212       .dwtag  DW_TAG_member
    1229                      .dwattr $C$DW$212, DW_AT_type(*$C$DW$T$27)
    1230                      .dwattr $C$DW$212, DW_AT_name("rsvd_5")
    1231                      .dwattr $C$DW$212, DW_AT_TI_symbol_name("_rsvd_5")
    1232                      .dwattr $C$DW$212, DW_AT_data_member_location[DW_OP_plus_uconst 0x38]
    1233                      .dwattr $C$DW$212, DW_AT_accessibility(DW_ACCESS_public)
    1234              $C$DW$213       .dwtag  DW_TAG_member
    1235                      .dwattr $C$DW$213, DW_AT_type(*$C$DW$T$60)
    1236                      .dwattr $C$DW$213, DW_AT_name("AIODIR")
    1237                      .dwattr $C$DW$213, DW_AT_TI_symbol_name("_AIODIR")
    1238                      .dwattr $C$DW$213, DW_AT_data_member_location[DW_OP_plus_uconst 0x3a]
    1239                      .dwattr $C$DW$213, DW_AT_accessibility(DW_ACCESS_public)
    1240              $C$DW$214       .dwtag  DW_TAG_member
    1241                      .dwattr $C$DW$214, DW_AT_type(*$C$DW$T$62)
    1242                      .dwattr $C$DW$214, DW_AT_name("rsvd_6")
    1243                      .dwattr $C$DW$214, DW_AT_TI_symbol_name("_rsvd_6")
    1244                      .dwattr $C$DW$214, DW_AT_data_member_location[DW_OP_plus_uconst 0x3c]
    1245                      .dwattr $C$DW$214, DW_AT_accessibility(DW_ACCESS_public)
    1246              $C$DW$215       .dwtag  DW_TAG_member
    1247                      .dwattr $C$DW$215, DW_AT_type(*$C$DW$T$60)
    1248                      .dwattr $C$DW$215, DW_AT_name("GPADAT")
    1249                      .dwattr $C$DW$215, DW_AT_TI_symbol_name("_GPADAT")
    1250                      .dwattr $C$DW$215, DW_AT_data_member_location[DW_OP_plus_uconst 0x40]
    1251                      .dwattr $C$DW$215, DW_AT_accessibility(DW_ACCESS_public)
    1252              $C$DW$216       .dwtag  DW_TAG_member
    1253                      .dwattr $C$DW$216, DW_AT_type(*$C$DW$T$60)
    1254                      .dwattr $C$DW$216, DW_AT_name("GPASET")
    1255                      .dwattr $C$DW$216, DW_AT_TI_symbol_name("_GPASET")
    1256                      .dwattr $C$DW$216, DW_AT_data_member_location[DW_OP_plus_uconst 0x42]
TMS320C2000 Assembler PC v6.2.5 Tue Aug 29 10:13:49 2017

Tools Copyright (c) 1996-2014 Texas Instruments Incorporated
C:\Users\wmj\AppData\Local\Temp\0884811                              PAGE   24

    1257                      .dwattr $C$DW$216, DW_AT_accessibility(DW_ACCESS_public)
    1258              $C$DW$217       .dwtag  DW_TAG_member
    1259                      .dwattr $C$DW$217, DW_AT_type(*$C$DW$T$60)
    1260                      .dwattr $C$DW$217, DW_AT_name("GPACLEAR")
    1261                      .dwattr $C$DW$217, DW_AT_TI_symbol_name("_GPACLEAR")
    1262                      .dwattr $C$DW$217, DW_AT_data_member_location[DW_OP_plus_uconst 0x44]
    1263                      .dwattr $C$DW$217, DW_AT_accessibility(DW_ACCESS_public)
    1264              $C$DW$218       .dwtag  DW_TAG_member
    1265                      .dwattr $C$DW$218, DW_AT_type(*$C$DW$T$60)
    1266                      .dwattr $C$DW$218, DW_AT_name("GPATOGGLE")
    1267                      .dwattr $C$DW$218, DW_AT_TI_symbol_name("_GPATOGGLE")
    1268                      .dwattr $C$DW$218, DW_AT_data_member_location[DW_OP_plus_uconst 0x46]
    1269                      .dwattr $C$DW$218, DW_AT_accessibility(DW_ACCESS_public)
    1270              $C$DW$219       .dwtag  DW_TAG_member
    1271                      .dwattr $C$DW$219, DW_AT_type(*$C$DW$T$60)
    1272                      .dwattr $C$DW$219, DW_AT_name("GPBDAT")
    1273                      .dwattr $C$DW$219, DW_AT_TI_symbol_name("_GPBDAT")
    1274                      .dwattr $C$DW$219, DW_AT_data_member_location[DW_OP_plus_uconst 0x48]
    1275                      .dwattr $C$DW$219, DW_AT_accessibility(DW_ACCESS_public)
    1276              $C$DW$220       .dwtag  DW_TAG_member
    1277                      .dwattr $C$DW$220, DW_AT_type(*$C$DW$T$60)
    1278                      .dwattr $C$DW$220, DW_AT_name("GPBSET")
    1279                      .dwattr $C$DW$220, DW_AT_TI_symbol_name("_GPBSET")
    1280                      .dwattr $C$DW$220, DW_AT_data_member_location[DW_OP_plus_uconst 0x4a]
    1281                      .dwattr $C$DW$220, DW_AT_accessibility(DW_ACCESS_public)
    1282              $C$DW$221       .dwtag  DW_TAG_member
    1283                      .dwattr $C$DW$221, DW_AT_type(*$C$DW$T$60)
    1284                      .dwattr $C$DW$221, DW_AT_name("GPBCLEAR")
    1285                      .dwattr $C$DW$221, DW_AT_TI_symbol_name("_GPBCLEAR")
    1286                      .dwattr $C$DW$221, DW_AT_data_member_location[DW_OP_plus_uconst 0x4c]
    1287                      .dwattr $C$DW$221, DW_AT_accessibility(DW_ACCESS_public)
    1288              $C$DW$222       .dwtag  DW_TAG_member
    1289                      .dwattr $C$DW$222, DW_AT_type(*$C$DW$T$60)
    1290                      .dwattr $C$DW$222, DW_AT_name("GPBTOGGLE")
    1291                      .dwattr $C$DW$222, DW_AT_TI_symbol_name("_GPBTOGGLE")
    1292                      .dwattr $C$DW$222, DW_AT_data_member_location[DW_OP_plus_uconst 0x4e]
    1293                      .dwattr $C$DW$222, DW_AT_accessibility(DW_ACCESS_public)
    1294              $C$DW$223       .dwtag  DW_TAG_member
    1295                      .dwattr $C$DW$223, DW_AT_type(*$C$DW$T$45)
    1296                      .dwattr $C$DW$223, DW_AT_name("rsvd_7")
    1297                      .dwattr $C$DW$223, DW_AT_TI_symbol_name("_rsvd_7")
    1298                      .dwattr $C$DW$223, DW_AT_data_member_location[DW_OP_plus_uconst 0x50]
    1299                      .dwattr $C$DW$223, DW_AT_accessibility(DW_ACCESS_public)
    1300              $C$DW$224       .dwtag  DW_TAG_member
    1301                      .dwattr $C$DW$224, DW_AT_type(*$C$DW$T$60)
    1302                      .dwattr $C$DW$224, DW_AT_name("AIODAT")
    1303                      .dwattr $C$DW$224, DW_AT_TI_symbol_name("_AIODAT")
    1304                      .dwattr $C$DW$224, DW_AT_data_member_location[DW_OP_plus_uconst 0x58]
    1305                      .dwattr $C$DW$224, DW_AT_accessibility(DW_ACCESS_public)
    1306              $C$DW$225       .dwtag  DW_TAG_member
    1307                      .dwattr $C$DW$225, DW_AT_type(*$C$DW$T$60)
    1308                      .dwattr $C$DW$225, DW_AT_name("AIOSET")
    1309                      .dwattr $C$DW$225, DW_AT_TI_symbol_name("_AIOSET")
    1310                      .dwattr $C$DW$225, DW_AT_data_member_location[DW_OP_plus_uconst 0x5a]
    1311                      .dwattr $C$DW$225, DW_AT_accessibility(DW_ACCESS_public)
TMS320C2000 Assembler PC v6.2.5 Tue Aug 29 10:13:49 2017

Tools Copyright (c) 1996-2014 Texas Instruments Incorporated
C:\Users\wmj\AppData\Local\Temp\0884811                              PAGE   25

    1312              $C$DW$226       .dwtag  DW_TAG_member
    1313                      .dwattr $C$DW$226, DW_AT_type(*$C$DW$T$60)
    1314                      .dwattr $C$DW$226, DW_AT_name("AIOCLEAR")
    1315                      .dwattr $C$DW$226, DW_AT_TI_symbol_name("_AIOCLEAR")
    1316                      .dwattr $C$DW$226, DW_AT_data_member_location[DW_OP_plus_uconst 0x5c]
    1317                      .dwattr $C$DW$226, DW_AT_accessibility(DW_ACCESS_public)
    1318              $C$DW$227       .dwtag  DW_TAG_member
    1319                      .dwattr $C$DW$227, DW_AT_type(*$C$DW$T$60)
    1320                      .dwattr $C$DW$227, DW_AT_name("AIOTOGGLE")
    1321                      .dwattr $C$DW$227, DW_AT_TI_symbol_name("_AIOTOGGLE")
    1322                      .dwattr $C$DW$227, DW_AT_data_member_location[DW_OP_plus_uconst 0x5e]
    1323                      .dwattr $C$DW$227, DW_AT_accessibility(DW_ACCESS_public)
    1324              $C$DW$228       .dwtag  DW_TAG_member
    1325                      .dwattr $C$DW$228, DW_AT_type(*$C$DW$T$29)
    1326                      .dwattr $C$DW$228, DW_AT_name("GPIOXINTnSEL")
    1327                      .dwattr $C$DW$228, DW_AT_TI_symbol_name("_GPIOXINTnSEL")
    1328                      .dwattr $C$DW$228, DW_AT_data_member_location[DW_OP_plus_uconst 0x60]
    1329                      .dwattr $C$DW$228, DW_AT_accessibility(DW_ACCESS_public)
    1330              $C$DW$229       .dwtag  DW_TAG_member
    1331                      .dwattr $C$DW$229, DW_AT_type(*$C$DW$T$28)
    1332                      .dwattr $C$DW$229, DW_AT_name("rsvd_8")
    1333                      .dwattr $C$DW$229, DW_AT_TI_symbol_name("_rsvd_8")
    1334                      .dwattr $C$DW$229, DW_AT_data_member_location[DW_OP_plus_uconst 0x63]
    1335                      .dwattr $C$DW$229, DW_AT_accessibility(DW_ACCESS_public)
    1336              $C$DW$230       .dwtag  DW_TAG_member
    1337                      .dwattr $C$DW$230, DW_AT_type(*$C$DW$T$60)
    1338                      .dwattr $C$DW$230, DW_AT_name("GPIOLPMSEL")
    1339                      .dwattr $C$DW$230, DW_AT_TI_symbol_name("_GPIOLPMSEL")
    1340                      .dwattr $C$DW$230, DW_AT_data_member_location[DW_OP_plus_uconst 0x68]
    1341                      .dwattr $C$DW$230, DW_AT_accessibility(DW_ACCESS_public)
    1342                      .dwendtag $C$DW$T$63
    1343              
    1344              $C$DW$T$51      .dwtag  DW_TAG_pointer_type
    1345                      .dwattr $C$DW$T$51, DW_AT_type(*$C$DW$T$63)
    1346                      .dwattr $C$DW$T$51, DW_AT_address_class(0x16)
    1347              $C$DW$T$52      .dwtag  DW_TAG_typedef, DW_AT_name("GPIO_Handle")
    1348                      .dwattr $C$DW$T$52, DW_AT_type(*$C$DW$T$51)
    1349                      .dwattr $C$DW$T$52, DW_AT_language(DW_LANG_C)
    1350              
    1351              $C$DW$T$65      .dwtag  DW_TAG_structure_type
    1352                      .dwattr $C$DW$T$65, DW_AT_name("_HAL_AdcData_t_")
    1353                      .dwattr $C$DW$T$65, DW_AT_byte_size(0x16)
    1354              $C$DW$231       .dwtag  DW_TAG_member
    1355                      .dwattr $C$DW$231, DW_AT_type(*$C$DW$T$64)
    1356                      .dwattr $C$DW$231, DW_AT_name("I")
    1357                      .dwattr $C$DW$231, DW_AT_TI_symbol_name("_I")
    1358                      .dwattr $C$DW$231, DW_AT_data_member_location[DW_OP_plus_uconst 0x0]
    1359                      .dwattr $C$DW$231, DW_AT_accessibility(DW_ACCESS_public)
    1360              $C$DW$232       .dwtag  DW_TAG_member
    1361                      .dwattr $C$DW$232, DW_AT_type(*$C$DW$T$64)
    1362                      .dwattr $C$DW$232, DW_AT_name("V")
    1363                      .dwattr $C$DW$232, DW_AT_TI_symbol_name("_V")
    1364                      .dwattr $C$DW$232, DW_AT_data_member_location[DW_OP_plus_uconst 0x6]
    1365                      .dwattr $C$DW$232, DW_AT_accessibility(DW_ACCESS_public)
    1366              $C$DW$233       .dwtag  DW_TAG_member
TMS320C2000 Assembler PC v6.2.5 Tue Aug 29 10:13:49 2017

Tools Copyright (c) 1996-2014 Texas Instruments Incorporated
C:\Users\wmj\AppData\Local\Temp\0884811                              PAGE   26

    1367                      .dwattr $C$DW$233, DW_AT_type(*$C$DW$T$37)
    1368                      .dwattr $C$DW$233, DW_AT_name("dcBus")
    1369                      .dwattr $C$DW$233, DW_AT_TI_symbol_name("_dcBus")
    1370                      .dwattr $C$DW$233, DW_AT_data_member_location[DW_OP_plus_uconst 0xc]
    1371                      .dwattr $C$DW$233, DW_AT_accessibility(DW_ACCESS_public)
    1372              $C$DW$234       .dwtag  DW_TAG_member
    1373                      .dwattr $C$DW$234, DW_AT_type(*$C$DW$T$37)
    1374                      .dwattr $C$DW$234, DW_AT_name("analogSensor1")
    1375                      .dwattr $C$DW$234, DW_AT_TI_symbol_name("_analogSensor1")
    1376                      .dwattr $C$DW$234, DW_AT_data_member_location[DW_OP_plus_uconst 0xe]
    1377                      .dwattr $C$DW$234, DW_AT_accessibility(DW_ACCESS_public)
    1378              $C$DW$235       .dwtag  DW_TAG_member
    1379                      .dwattr $C$DW$235, DW_AT_type(*$C$DW$T$37)
    1380                      .dwattr $C$DW$235, DW_AT_name("analogSensor2")
    1381                      .dwattr $C$DW$235, DW_AT_TI_symbol_name("_analogSensor2")
    1382                      .dwattr $C$DW$235, DW_AT_data_member_location[DW_OP_plus_uconst 0x10]
    1383                      .dwattr $C$DW$235, DW_AT_accessibility(DW_ACCESS_public)
    1384              $C$DW$236       .dwtag  DW_TAG_member
    1385                      .dwattr $C$DW$236, DW_AT_type(*$C$DW$T$37)
    1386                      .dwattr $C$DW$236, DW_AT_name("igbtNTC")
    1387                      .dwattr $C$DW$236, DW_AT_TI_symbol_name("_igbtNTC")
    1388                      .dwattr $C$DW$236, DW_AT_data_member_location[DW_OP_plus_uconst 0x12]
    1389                      .dwattr $C$DW$236, DW_AT_accessibility(DW_ACCESS_public)
    1390              $C$DW$237       .dwtag  DW_TAG_member
    1391                      .dwattr $C$DW$237, DW_AT_type(*$C$DW$T$37)
    1392                      .dwattr $C$DW$237, DW_AT_name("boardAddr")
    1393                      .dwattr $C$DW$237, DW_AT_TI_symbol_name("_boardAddr")
    1394                      .dwattr $C$DW$237, DW_AT_data_member_location[DW_OP_plus_uconst 0x14]
    1395                      .dwattr $C$DW$237, DW_AT_accessibility(DW_ACCESS_public)
    1396                      .dwendtag $C$DW$T$65
    1397              
    1398              $C$DW$T$99      .dwtag  DW_TAG_typedef, DW_AT_name("HAL_AdcData_t")
    1399                      .dwattr $C$DW$T$99, DW_AT_type(*$C$DW$T$65)
    1400                      .dwattr $C$DW$T$99, DW_AT_language(DW_LANG_C)
    1401              
    1402              $C$DW$T$100     .dwtag  DW_TAG_structure_type
    1403                      .dwattr $C$DW$T$100, DW_AT_name("_HAL_Obj_")
    1404                      .dwattr $C$DW$T$100, DW_AT_byte_size(0xb4)
    1405              $C$DW$238       .dwtag  DW_TAG_member
    1406                      .dwattr $C$DW$238, DW_AT_type(*$C$DW$T$67)
    1407                      .dwattr $C$DW$238, DW_AT_name("adcHandle")
    1408                      .dwattr $C$DW$238, DW_AT_TI_symbol_name("_adcHandle")
    1409                      .dwattr $C$DW$238, DW_AT_data_member_location[DW_OP_plus_uconst 0x0]
    1410                      .dwattr $C$DW$238, DW_AT_accessibility(DW_ACCESS_public)
    1411              $C$DW$239       .dwtag  DW_TAG_member
    1412                      .dwattr $C$DW$239, DW_AT_type(*$C$DW$T$69)
    1413                      .dwattr $C$DW$239, DW_AT_name("clkHandle")
    1414                      .dwattr $C$DW$239, DW_AT_TI_symbol_name("_clkHandle")
    1415                      .dwattr $C$DW$239, DW_AT_data_member_location[DW_OP_plus_uconst 0x2]
    1416                      .dwattr $C$DW$239, DW_AT_accessibility(DW_ACCESS_public)
    1417              $C$DW$240       .dwtag  DW_TAG_member
    1418                      .dwattr $C$DW$240, DW_AT_type(*$C$DW$T$71)
    1419                      .dwattr $C$DW$240, DW_AT_name("cpuHandle")
    1420                      .dwattr $C$DW$240, DW_AT_TI_symbol_name("_cpuHandle")
    1421                      .dwattr $C$DW$240, DW_AT_data_member_location[DW_OP_plus_uconst 0x4]
TMS320C2000 Assembler PC v6.2.5 Tue Aug 29 10:13:49 2017

Tools Copyright (c) 1996-2014 Texas Instruments Incorporated
C:\Users\wmj\AppData\Local\Temp\0884811                              PAGE   27

    1422                      .dwattr $C$DW$240, DW_AT_accessibility(DW_ACCESS_public)
    1423              $C$DW$241       .dwtag  DW_TAG_member
    1424                      .dwattr $C$DW$241, DW_AT_type(*$C$DW$T$73)
    1425                      .dwattr $C$DW$241, DW_AT_name("flashHandle")
    1426                      .dwattr $C$DW$241, DW_AT_TI_symbol_name("_flashHandle")
    1427                      .dwattr $C$DW$241, DW_AT_data_member_location[DW_OP_plus_uconst 0x6]
    1428                      .dwattr $C$DW$241, DW_AT_accessibility(DW_ACCESS_public)
    1429              $C$DW$242       .dwtag  DW_TAG_member
    1430                      .dwattr $C$DW$242, DW_AT_type(*$C$DW$T$52)
    1431                      .dwattr $C$DW$242, DW_AT_name("gpioHandle")
    1432                      .dwattr $C$DW$242, DW_AT_TI_symbol_name("_gpioHandle")
    1433                      .dwattr $C$DW$242, DW_AT_data_member_location[DW_OP_plus_uconst 0x8]
    1434                      .dwattr $C$DW$242, DW_AT_accessibility(DW_ACCESS_public)
    1435              $C$DW$243       .dwtag  DW_TAG_member
    1436                      .dwattr $C$DW$243, DW_AT_type(*$C$DW$T$76)
    1437                      .dwattr $C$DW$243, DW_AT_name("offsetHandle_I")
    1438                      .dwattr $C$DW$243, DW_AT_TI_symbol_name("_offsetHandle_I")
    1439                      .dwattr $C$DW$243, DW_AT_data_member_location[DW_OP_plus_uconst 0xa]
    1440                      .dwattr $C$DW$243, DW_AT_accessibility(DW_ACCESS_public)
    1441              $C$DW$244       .dwtag  DW_TAG_member
    1442                      .dwattr $C$DW$244, DW_AT_type(*$C$DW$T$78)
    1443                      .dwattr $C$DW$244, DW_AT_name("offset_I")
    1444                      .dwattr $C$DW$244, DW_AT_TI_symbol_name("_offset_I")
    1445                      .dwattr $C$DW$244, DW_AT_data_member_location[DW_OP_plus_uconst 0x10]
    1446                      .dwattr $C$DW$244, DW_AT_accessibility(DW_ACCESS_public)
    1447              $C$DW$245       .dwtag  DW_TAG_member
    1448                      .dwattr $C$DW$245, DW_AT_type(*$C$DW$T$76)
    1449                      .dwattr $C$DW$245, DW_AT_name("offsetHandle_V")
    1450                      .dwattr $C$DW$245, DW_AT_TI_symbol_name("_offsetHandle_V")
    1451                      .dwattr $C$DW$245, DW_AT_data_member_location[DW_OP_plus_uconst 0x40]
    1452                      .dwattr $C$DW$245, DW_AT_accessibility(DW_ACCESS_public)
    1453              $C$DW$246       .dwtag  DW_TAG_member
    1454                      .dwattr $C$DW$246, DW_AT_type(*$C$DW$T$78)
    1455                      .dwattr $C$DW$246, DW_AT_name("offset_V")
    1456                      .dwattr $C$DW$246, DW_AT_TI_symbol_name("_offset_V")
    1457                      .dwattr $C$DW$246, DW_AT_data_member_location[DW_OP_plus_uconst 0x46]
    1458                      .dwattr $C$DW$246, DW_AT_accessibility(DW_ACCESS_public)
    1459              $C$DW$247       .dwtag  DW_TAG_member
    1460                      .dwattr $C$DW$247, DW_AT_type(*$C$DW$T$80)
    1461                      .dwattr $C$DW$247, DW_AT_name("oscHandle")
    1462                      .dwattr $C$DW$247, DW_AT_TI_symbol_name("_oscHandle")
    1463                      .dwattr $C$DW$247, DW_AT_data_member_location[DW_OP_plus_uconst 0x76]
    1464                      .dwattr $C$DW$247, DW_AT_accessibility(DW_ACCESS_public)
    1465              $C$DW$248       .dwtag  DW_TAG_member
    1466                      .dwattr $C$DW$248, DW_AT_type(*$C$DW$T$82)
    1467                      .dwattr $C$DW$248, DW_AT_name("pieHandle")
    1468                      .dwattr $C$DW$248, DW_AT_TI_symbol_name("_pieHandle")
    1469                      .dwattr $C$DW$248, DW_AT_data_member_location[DW_OP_plus_uconst 0x78]
    1470                      .dwattr $C$DW$248, DW_AT_accessibility(DW_ACCESS_public)
    1471              $C$DW$249       .dwtag  DW_TAG_member
    1472                      .dwattr $C$DW$249, DW_AT_type(*$C$DW$T$84)
    1473                      .dwattr $C$DW$249, DW_AT_name("pllHandle")
    1474                      .dwattr $C$DW$249, DW_AT_TI_symbol_name("_pllHandle")
    1475                      .dwattr $C$DW$249, DW_AT_data_member_location[DW_OP_plus_uconst 0x7a]
    1476                      .dwattr $C$DW$249, DW_AT_accessibility(DW_ACCESS_public)
TMS320C2000 Assembler PC v6.2.5 Tue Aug 29 10:13:49 2017

Tools Copyright (c) 1996-2014 Texas Instruments Incorporated
C:\Users\wmj\AppData\Local\Temp\0884811                              PAGE   28

    1477              $C$DW$250       .dwtag  DW_TAG_member
    1478                      .dwattr $C$DW$250, DW_AT_type(*$C$DW$T$87)
    1479                      .dwattr $C$DW$250, DW_AT_name("pwmHandle")
    1480                      .dwattr $C$DW$250, DW_AT_TI_symbol_name("_pwmHandle")
    1481                      .dwattr $C$DW$250, DW_AT_data_member_location[DW_OP_plus_uconst 0x7c]
    1482                      .dwattr $C$DW$250, DW_AT_accessibility(DW_ACCESS_public)
    1483              $C$DW$251       .dwtag  DW_TAG_member
    1484                      .dwattr $C$DW$251, DW_AT_type(*$C$DW$T$87)
    1485                      .dwattr $C$DW$251, DW_AT_name("pwmDacHandle")
    1486                      .dwattr $C$DW$251, DW_AT_TI_symbol_name("_pwmDacHandle")
    1487                      .dwattr $C$DW$251, DW_AT_data_member_location[DW_OP_plus_uconst 0x82]
    1488                      .dwattr $C$DW$251, DW_AT_accessibility(DW_ACCESS_public)
    1489              $C$DW$252       .dwtag  DW_TAG_member
    1490                      .dwattr $C$DW$252, DW_AT_type(*$C$DW$T$89)
    1491                      .dwattr $C$DW$252, DW_AT_name("pwrHandle")
    1492                      .dwattr $C$DW$252, DW_AT_TI_symbol_name("_pwrHandle")
    1493                      .dwattr $C$DW$252, DW_AT_data_member_location[DW_OP_plus_uconst 0x88]
    1494                      .dwattr $C$DW$252, DW_AT_accessibility(DW_ACCESS_public)
    1495              $C$DW$253       .dwtag  DW_TAG_member
    1496                      .dwattr $C$DW$253, DW_AT_type(*$C$DW$T$92)
    1497                      .dwattr $C$DW$253, DW_AT_name("timerHandle")
    1498                      .dwattr $C$DW$253, DW_AT_TI_symbol_name("_timerHandle")
    1499                      .dwattr $C$DW$253, DW_AT_data_member_location[DW_OP_plus_uconst 0x8a]
    1500                      .dwattr $C$DW$253, DW_AT_accessibility(DW_ACCESS_public)
    1501              $C$DW$254       .dwtag  DW_TAG_member
    1502                      .dwattr $C$DW$254, DW_AT_type(*$C$DW$T$94)
    1503                      .dwattr $C$DW$254, DW_AT_name("i2cHandle")
    1504                      .dwattr $C$DW$254, DW_AT_TI_symbol_name("_i2cHandle")
    1505                      .dwattr $C$DW$254, DW_AT_data_member_location[DW_OP_plus_uconst 0x90]
    1506                      .dwattr $C$DW$254, DW_AT_accessibility(DW_ACCESS_public)
    1507              $C$DW$255       .dwtag  DW_TAG_member
    1508                      .dwattr $C$DW$255, DW_AT_type(*$C$DW$T$50)
    1509                      .dwattr $C$DW$255, DW_AT_name("spiAHandle")
    1510                      .dwattr $C$DW$255, DW_AT_TI_symbol_name("_spiAHandle")
    1511                      .dwattr $C$DW$255, DW_AT_data_member_location[DW_OP_plus_uconst 0x92]
    1512                      .dwattr $C$DW$255, DW_AT_accessibility(DW_ACCESS_public)
    1513              $C$DW$256       .dwtag  DW_TAG_member
    1514                      .dwattr $C$DW$256, DW_AT_type(*$C$DW$T$96)
    1515                      .dwattr $C$DW$256, DW_AT_name("wdogHandle")
    1516                      .dwattr $C$DW$256, DW_AT_TI_symbol_name("_wdogHandle")
    1517                      .dwattr $C$DW$256, DW_AT_data_member_location[DW_OP_plus_uconst 0x94]
    1518                      .dwattr $C$DW$256, DW_AT_accessibility(DW_ACCESS_public)
    1519              $C$DW$257       .dwtag  DW_TAG_member
    1520                      .dwattr $C$DW$257, DW_AT_type(*$C$DW$T$98)
    1521                      .dwattr $C$DW$257, DW_AT_name("sciHandle")
    1522                      .dwattr $C$DW$257, DW_AT_TI_symbol_name("_sciHandle")
    1523                      .dwattr $C$DW$257, DW_AT_data_member_location[DW_OP_plus_uconst 0x96]
    1524                      .dwattr $C$DW$257, DW_AT_accessibility(DW_ACCESS_public)
    1525              $C$DW$258       .dwtag  DW_TAG_member
    1526                      .dwattr $C$DW$258, DW_AT_type(*$C$DW$T$99)
    1527                      .dwattr $C$DW$258, DW_AT_name("adcBias")
    1528                      .dwattr $C$DW$258, DW_AT_TI_symbol_name("_adcBias")
    1529                      .dwattr $C$DW$258, DW_AT_data_member_location[DW_OP_plus_uconst 0x98]
    1530                      .dwattr $C$DW$258, DW_AT_accessibility(DW_ACCESS_public)
    1531              $C$DW$259       .dwtag  DW_TAG_member
TMS320C2000 Assembler PC v6.2.5 Tue Aug 29 10:13:49 2017

Tools Copyright (c) 1996-2014 Texas Instruments Incorporated
C:\Users\wmj\AppData\Local\Temp\0884811                              PAGE   29

    1532                      .dwattr $C$DW$259, DW_AT_type(*$C$DW$T$37)
    1533                      .dwattr $C$DW$259, DW_AT_name("current_sf")
    1534                      .dwattr $C$DW$259, DW_AT_TI_symbol_name("_current_sf")
    1535                      .dwattr $C$DW$259, DW_AT_data_member_location[DW_OP_plus_uconst 0xae]
    1536                      .dwattr $C$DW$259, DW_AT_accessibility(DW_ACCESS_public)
    1537              $C$DW$260       .dwtag  DW_TAG_member
    1538                      .dwattr $C$DW$260, DW_AT_type(*$C$DW$T$37)
    1539                      .dwattr $C$DW$260, DW_AT_name("voltage_sf")
    1540                      .dwattr $C$DW$260, DW_AT_TI_symbol_name("_voltage_sf")
    1541                      .dwattr $C$DW$260, DW_AT_data_member_location[DW_OP_plus_uconst 0xb0]
    1542                      .dwattr $C$DW$260, DW_AT_accessibility(DW_ACCESS_public)
    1543              $C$DW$261       .dwtag  DW_TAG_member
    1544                      .dwattr $C$DW$261, DW_AT_type(*$C$DW$T$47)
    1545                      .dwattr $C$DW$261, DW_AT_name("numCurrentSensors")
    1546                      .dwattr $C$DW$261, DW_AT_TI_symbol_name("_numCurrentSensors")
    1547                      .dwattr $C$DW$261, DW_AT_data_member_location[DW_OP_plus_uconst 0xb2]
    1548                      .dwattr $C$DW$261, DW_AT_accessibility(DW_ACCESS_public)
    1549              $C$DW$262       .dwtag  DW_TAG_member
    1550                      .dwattr $C$DW$262, DW_AT_type(*$C$DW$T$47)
    1551                      .dwattr $C$DW$262, DW_AT_name("numVoltageSensors")
    1552                      .dwattr $C$DW$262, DW_AT_TI_symbol_name("_numVoltageSensors")
    1553                      .dwattr $C$DW$262, DW_AT_data_member_location[DW_OP_plus_uconst 0xb3]
    1554                      .dwattr $C$DW$262, DW_AT_accessibility(DW_ACCESS_public)
    1555                      .dwendtag $C$DW$T$100
    1556              
    1557              $C$DW$T$165     .dwtag  DW_TAG_pointer_type
    1558                      .dwattr $C$DW$T$165, DW_AT_type(*$C$DW$T$100)
    1559                      .dwattr $C$DW$T$165, DW_AT_address_class(0x16)
    1560              $C$DW$T$166     .dwtag  DW_TAG_typedef, DW_AT_name("HAL_Handle")
    1561                      .dwattr $C$DW$T$166, DW_AT_type(*$C$DW$T$165)
    1562                      .dwattr $C$DW$T$166, DW_AT_language(DW_LANG_C)
    1563              $C$DW$263       .dwtag  DW_TAG_TI_far_type
    1564                      .dwattr $C$DW$263, DW_AT_type(*$C$DW$T$166)
    1565              $C$DW$T$202     .dwtag  DW_TAG_const_type
    1566                      .dwattr $C$DW$T$202, DW_AT_type(*$C$DW$263)
    1567              
    1568              $C$DW$T$101     .dwtag  DW_TAG_structure_type
    1569                      .dwattr $C$DW$T$101, DW_AT_name("_LDC1612_CONFIG_t_")
    1570                      .dwattr $C$DW$T$101, DW_AT_byte_size(0x09)
    1571              $C$DW$264       .dwtag  DW_TAG_member
    1572                      .dwattr $C$DW$264, DW_AT_type(*$C$DW$T$42)
    1573                      .dwattr $C$DW$264, DW_AT_name("ACTIVE_CHAN_0")
    1574                      .dwattr $C$DW$264, DW_AT_TI_symbol_name("_ACTIVE_CHAN_0")
    1575                      .dwattr $C$DW$264, DW_AT_data_member_location[DW_OP_plus_uconst 0x0]
    1576                      .dwattr $C$DW$264, DW_AT_accessibility(DW_ACCESS_public)
    1577              $C$DW$265       .dwtag  DW_TAG_member
    1578                      .dwattr $C$DW$265, DW_AT_type(*$C$DW$T$42)
    1579                      .dwattr $C$DW$265, DW_AT_name("ACTIVE_CHAN_1")
    1580                      .dwattr $C$DW$265, DW_AT_TI_symbol_name("_ACTIVE_CHAN_1")
    1581                      .dwattr $C$DW$265, DW_AT_data_member_location[DW_OP_plus_uconst 0x1]
    1582                      .dwattr $C$DW$265, DW_AT_accessibility(DW_ACCESS_public)
    1583              $C$DW$266       .dwtag  DW_TAG_member
    1584                      .dwattr $C$DW$266, DW_AT_type(*$C$DW$T$42)
    1585                      .dwattr $C$DW$266, DW_AT_name("SLEEP_MODE_EN")
    1586                      .dwattr $C$DW$266, DW_AT_TI_symbol_name("_SLEEP_MODE_EN")
TMS320C2000 Assembler PC v6.2.5 Tue Aug 29 10:13:49 2017

Tools Copyright (c) 1996-2014 Texas Instruments Incorporated
C:\Users\wmj\AppData\Local\Temp\0884811                              PAGE   30

    1587                      .dwattr $C$DW$266, DW_AT_data_member_location[DW_OP_plus_uconst 0x2]
    1588                      .dwattr $C$DW$266, DW_AT_accessibility(DW_ACCESS_public)
    1589              $C$DW$267       .dwtag  DW_TAG_member
    1590                      .dwattr $C$DW$267, DW_AT_type(*$C$DW$T$42)
    1591                      .dwattr $C$DW$267, DW_AT_name("RP_OVERRIDE_EN")
    1592                      .dwattr $C$DW$267, DW_AT_TI_symbol_name("_RP_OVERRIDE_EN")
    1593                      .dwattr $C$DW$267, DW_AT_data_member_location[DW_OP_plus_uconst 0x3]
    1594                      .dwattr $C$DW$267, DW_AT_accessibility(DW_ACCESS_public)
    1595              $C$DW$268       .dwtag  DW_TAG_member
    1596                      .dwattr $C$DW$268, DW_AT_type(*$C$DW$T$42)
    1597                      .dwattr $C$DW$268, DW_AT_name("SENSOR_ACTV_SEL")
    1598                      .dwattr $C$DW$268, DW_AT_TI_symbol_name("_SENSOR_ACTV_SEL")
    1599                      .dwattr $C$DW$268, DW_AT_data_member_location[DW_OP_plus_uconst 0x4]
    1600                      .dwattr $C$DW$268, DW_AT_accessibility(DW_ACCESS_public)
    1601              $C$DW$269       .dwtag  DW_TAG_member
    1602                      .dwattr $C$DW$269, DW_AT_type(*$C$DW$T$42)
    1603                      .dwattr $C$DW$269, DW_AT_name("AUTO_AMP_DIS")
    1604                      .dwattr $C$DW$269, DW_AT_TI_symbol_name("_AUTO_AMP_DIS")
    1605                      .dwattr $C$DW$269, DW_AT_data_member_location[DW_OP_plus_uconst 0x5]
    1606                      .dwattr $C$DW$269, DW_AT_accessibility(DW_ACCESS_public)
    1607              $C$DW$270       .dwtag  DW_TAG_member
    1608                      .dwattr $C$DW$270, DW_AT_type(*$C$DW$T$42)
    1609                      .dwattr $C$DW$270, DW_AT_name("REF_CLK_SRC")
    1610                      .dwattr $C$DW$270, DW_AT_TI_symbol_name("_REF_CLK_SRC")
    1611                      .dwattr $C$DW$270, DW_AT_data_member_location[DW_OP_plus_uconst 0x6]
    1612                      .dwattr $C$DW$270, DW_AT_accessibility(DW_ACCESS_public)
    1613              $C$DW$271       .dwtag  DW_TAG_member
    1614                      .dwattr $C$DW$271, DW_AT_type(*$C$DW$T$42)
    1615                      .dwattr $C$DW$271, DW_AT_name("INTB_DIS")
    1616                      .dwattr $C$DW$271, DW_AT_TI_symbol_name("_INTB_DIS")
    1617                      .dwattr $C$DW$271, DW_AT_data_member_location[DW_OP_plus_uconst 0x7]
    1618                      .dwattr $C$DW$271, DW_AT_accessibility(DW_ACCESS_public)
    1619              $C$DW$272       .dwtag  DW_TAG_member
    1620                      .dwattr $C$DW$272, DW_AT_type(*$C$DW$T$42)
    1621                      .dwattr $C$DW$272, DW_AT_name("HIGH_CURRENT_DRV")
    1622                      .dwattr $C$DW$272, DW_AT_TI_symbol_name("_HIGH_CURRENT_DRV")
    1623                      .dwattr $C$DW$272, DW_AT_data_member_location[DW_OP_plus_uconst 0x8]
    1624                      .dwattr $C$DW$272, DW_AT_accessibility(DW_ACCESS_public)
    1625                      .dwendtag $C$DW$T$101
    1626              
    1627              $C$DW$T$120     .dwtag  DW_TAG_typedef, DW_AT_name("LDC1612_CONFIG_t_")
    1628                      .dwattr $C$DW$T$120, DW_AT_type(*$C$DW$T$101)
    1629                      .dwattr $C$DW$T$120, DW_AT_language(DW_LANG_C)
    1630              
    1631              $C$DW$T$103     .dwtag  DW_TAG_structure_type
    1632                      .dwattr $C$DW$T$103, DW_AT_name("_LDC161x_CLK_DIVS_t_")
    1633                      .dwattr $C$DW$T$103, DW_AT_byte_size(0x02)
    1634              $C$DW$273       .dwtag  DW_TAG_member
    1635                      .dwattr $C$DW$273, DW_AT_type(*$C$DW$T$102)
    1636                      .dwattr $C$DW$273, DW_AT_name("CLK_DIVS_CH0")
    1637                      .dwattr $C$DW$273, DW_AT_TI_symbol_name("_CLK_DIVS_CH0")
    1638                      .dwattr $C$DW$273, DW_AT_data_member_location[DW_OP_plus_uconst 0x0]
    1639                      .dwattr $C$DW$273, DW_AT_accessibility(DW_ACCESS_public)
    1640                      .dwendtag $C$DW$T$103
    1641              
TMS320C2000 Assembler PC v6.2.5 Tue Aug 29 10:13:49 2017

Tools Copyright (c) 1996-2014 Texas Instruments Incorporated
C:\Users\wmj\AppData\Local\Temp\0884811                              PAGE   31

    1642              $C$DW$T$117     .dwtag  DW_TAG_typedef, DW_AT_name("LDC161x_CLK_DIVS_t_")
    1643                      .dwattr $C$DW$T$117, DW_AT_type(*$C$DW$T$103)
    1644                      .dwattr $C$DW$T$117, DW_AT_language(DW_LANG_C)
    1645              
    1646              $C$DW$T$104     .dwtag  DW_TAG_structure_type
    1647                      .dwattr $C$DW$T$104, DW_AT_name("_LDC161x_ERROR_CONFIG_t_")
    1648                      .dwattr $C$DW$T$104, DW_AT_byte_size(0x0c)
    1649              $C$DW$274       .dwtag  DW_TAG_member
    1650                      .dwattr $C$DW$274, DW_AT_type(*$C$DW$T$42)
    1651                      .dwattr $C$DW$274, DW_AT_name("UR_ERR2OUT")
    1652                      .dwattr $C$DW$274, DW_AT_TI_symbol_name("_UR_ERR2OUT")
    1653                      .dwattr $C$DW$274, DW_AT_data_member_location[DW_OP_plus_uconst 0x0]
    1654                      .dwattr $C$DW$274, DW_AT_accessibility(DW_ACCESS_public)
    1655              $C$DW$275       .dwtag  DW_TAG_member
    1656                      .dwattr $C$DW$275, DW_AT_type(*$C$DW$T$42)
    1657                      .dwattr $C$DW$275, DW_AT_name("OR_ERR2OUT")
    1658                      .dwattr $C$DW$275, DW_AT_TI_symbol_name("_OR_ERR2OUT")
    1659                      .dwattr $C$DW$275, DW_AT_data_member_location[DW_OP_plus_uconst 0x1]
    1660                      .dwattr $C$DW$275, DW_AT_accessibility(DW_ACCESS_public)
    1661              $C$DW$276       .dwtag  DW_TAG_member
    1662                      .dwattr $C$DW$276, DW_AT_type(*$C$DW$T$42)
    1663                      .dwattr $C$DW$276, DW_AT_name("WD_ERR2OUT")
    1664                      .dwattr $C$DW$276, DW_AT_TI_symbol_name("_WD_ERR2OUT")
    1665                      .dwattr $C$DW$276, DW_AT_data_member_location[DW_OP_plus_uconst 0x2]
    1666                      .dwattr $C$DW$276, DW_AT_accessibility(DW_ACCESS_public)
    1667              $C$DW$277       .dwtag  DW_TAG_member
    1668                      .dwattr $C$DW$277, DW_AT_type(*$C$DW$T$42)
    1669                      .dwattr $C$DW$277, DW_AT_name("AH_ERR2OUT")
    1670                      .dwattr $C$DW$277, DW_AT_TI_symbol_name("_AH_ERR2OUT")
    1671                      .dwattr $C$DW$277, DW_AT_data_member_location[DW_OP_plus_uconst 0x3]
    1672                      .dwattr $C$DW$277, DW_AT_accessibility(DW_ACCESS_public)
    1673              $C$DW$278       .dwtag  DW_TAG_member
    1674                      .dwattr $C$DW$278, DW_AT_type(*$C$DW$T$42)
    1675                      .dwattr $C$DW$278, DW_AT_name("AL_ERR2OUT")
    1676                      .dwattr $C$DW$278, DW_AT_TI_symbol_name("_AL_ERR2OUT")
    1677                      .dwattr $C$DW$278, DW_AT_data_member_location[DW_OP_plus_uconst 0x4]
    1678                      .dwattr $C$DW$278, DW_AT_accessibility(DW_ACCESS_public)
    1679              $C$DW$279       .dwtag  DW_TAG_member
    1680                      .dwattr $C$DW$279, DW_AT_type(*$C$DW$T$42)
    1681                      .dwattr $C$DW$279, DW_AT_name("UR_ERR2INT")
    1682                      .dwattr $C$DW$279, DW_AT_TI_symbol_name("_UR_ERR2INT")
    1683                      .dwattr $C$DW$279, DW_AT_data_member_location[DW_OP_plus_uconst 0x5]
    1684                      .dwattr $C$DW$279, DW_AT_accessibility(DW_ACCESS_public)
    1685              $C$DW$280       .dwtag  DW_TAG_member
    1686                      .dwattr $C$DW$280, DW_AT_type(*$C$DW$T$42)
    1687                      .dwattr $C$DW$280, DW_AT_name("OR_ERR2INT")
    1688                      .dwattr $C$DW$280, DW_AT_TI_symbol_name("_OR_ERR2INT")
    1689                      .dwattr $C$DW$280, DW_AT_data_member_location[DW_OP_plus_uconst 0x6]
    1690                      .dwattr $C$DW$280, DW_AT_accessibility(DW_ACCESS_public)
    1691              $C$DW$281       .dwtag  DW_TAG_member
    1692                      .dwattr $C$DW$281, DW_AT_type(*$C$DW$T$42)
    1693                      .dwattr $C$DW$281, DW_AT_name("WD_ERR2INT")
    1694                      .dwattr $C$DW$281, DW_AT_TI_symbol_name("_WD_ERR2INT")
    1695                      .dwattr $C$DW$281, DW_AT_data_member_location[DW_OP_plus_uconst 0x7]
    1696                      .dwattr $C$DW$281, DW_AT_accessibility(DW_ACCESS_public)
TMS320C2000 Assembler PC v6.2.5 Tue Aug 29 10:13:49 2017

Tools Copyright (c) 1996-2014 Texas Instruments Incorporated
C:\Users\wmj\AppData\Local\Temp\0884811                              PAGE   32

    1697              $C$DW$282       .dwtag  DW_TAG_member
    1698                      .dwattr $C$DW$282, DW_AT_type(*$C$DW$T$42)
    1699                      .dwattr $C$DW$282, DW_AT_name("AH_ERR2INT")
    1700                      .dwattr $C$DW$282, DW_AT_TI_symbol_name("_AH_ERR2INT")
    1701                      .dwattr $C$DW$282, DW_AT_data_member_location[DW_OP_plus_uconst 0x8]
    1702                      .dwattr $C$DW$282, DW_AT_accessibility(DW_ACCESS_public)
    1703              $C$DW$283       .dwtag  DW_TAG_member
    1704                      .dwattr $C$DW$283, DW_AT_type(*$C$DW$T$42)
    1705                      .dwattr $C$DW$283, DW_AT_name("AL_ERR2INT")
    1706                      .dwattr $C$DW$283, DW_AT_TI_symbol_name("_AL_ERR2INT")
    1707                      .dwattr $C$DW$283, DW_AT_data_member_location[DW_OP_plus_uconst 0x9]
    1708                      .dwattr $C$DW$283, DW_AT_accessibility(DW_ACCESS_public)
    1709              $C$DW$284       .dwtag  DW_TAG_member
    1710                      .dwattr $C$DW$284, DW_AT_type(*$C$DW$T$42)
    1711                      .dwattr $C$DW$284, DW_AT_name("ZC_ERR2INT")
    1712                      .dwattr $C$DW$284, DW_AT_TI_symbol_name("_ZC_ERR2INT")
    1713                      .dwattr $C$DW$284, DW_AT_data_member_location[DW_OP_plus_uconst 0xa]
    1714                      .dwattr $C$DW$284, DW_AT_accessibility(DW_ACCESS_public)
    1715              $C$DW$285       .dwtag  DW_TAG_member
    1716                      .dwattr $C$DW$285, DW_AT_type(*$C$DW$T$42)
    1717                      .dwattr $C$DW$285, DW_AT_name("DRDY_2INT")
    1718                      .dwattr $C$DW$285, DW_AT_TI_symbol_name("_DRDY_2INT")
    1719                      .dwattr $C$DW$285, DW_AT_data_member_location[DW_OP_plus_uconst 0xb]
    1720                      .dwattr $C$DW$285, DW_AT_accessibility(DW_ACCESS_public)
    1721                      .dwendtag $C$DW$T$104
    1722              
    1723              $C$DW$T$119     .dwtag  DW_TAG_typedef, DW_AT_name("LDC161x_ERROR_CONFIG_t_")
    1724                      .dwattr $C$DW$T$119, DW_AT_type(*$C$DW$T$104)
    1725                      .dwattr $C$DW$T$119, DW_AT_language(DW_LANG_C)
    1726              
    1727              $C$DW$T$105     .dwtag  DW_TAG_structure_type
    1728                      .dwattr $C$DW$T$105, DW_AT_name("_LDC161x_Kalman_t_")
    1729                      .dwattr $C$DW$T$105, DW_AT_byte_size(0x0a)
    1730              $C$DW$286       .dwtag  DW_TAG_member
    1731                      .dwattr $C$DW$286, DW_AT_type(*$C$DW$T$59)
    1732                      .dwattr $C$DW$286, DW_AT_name("x_Last")
    1733                      .dwattr $C$DW$286, DW_AT_TI_symbol_name("_x_Last")
    1734                      .dwattr $C$DW$286, DW_AT_data_member_location[DW_OP_plus_uconst 0x0]
    1735                      .dwattr $C$DW$286, DW_AT_accessibility(DW_ACCESS_public)
    1736              $C$DW$287       .dwtag  DW_TAG_member
    1737                      .dwattr $C$DW$287, DW_AT_type(*$C$DW$T$59)
    1738                      .dwattr $C$DW$287, DW_AT_name("p_Last")
    1739                      .dwattr $C$DW$287, DW_AT_TI_symbol_name("_p_Last")
    1740                      .dwattr $C$DW$287, DW_AT_data_member_location[DW_OP_plus_uconst 0x2]
    1741                      .dwattr $C$DW$287, DW_AT_accessibility(DW_ACCESS_public)
    1742              $C$DW$288       .dwtag  DW_TAG_member
    1743                      .dwattr $C$DW$288, DW_AT_type(*$C$DW$T$59)
    1744                      .dwattr $C$DW$288, DW_AT_name("data_Last")
    1745                      .dwattr $C$DW$288, DW_AT_TI_symbol_name("_data_Last")
    1746                      .dwattr $C$DW$288, DW_AT_data_member_location[DW_OP_plus_uconst 0x4]
    1747                      .dwattr $C$DW$288, DW_AT_accessibility(DW_ACCESS_public)
    1748              $C$DW$289       .dwtag  DW_TAG_member
    1749                      .dwattr $C$DW$289, DW_AT_type(*$C$DW$T$59)
    1750                      .dwattr $C$DW$289, DW_AT_name("Ldc_Kalman_R")
    1751                      .dwattr $C$DW$289, DW_AT_TI_symbol_name("_Ldc_Kalman_R")
TMS320C2000 Assembler PC v6.2.5 Tue Aug 29 10:13:49 2017

Tools Copyright (c) 1996-2014 Texas Instruments Incorporated
C:\Users\wmj\AppData\Local\Temp\0884811                              PAGE   33

    1752                      .dwattr $C$DW$289, DW_AT_data_member_location[DW_OP_plus_uconst 0x6]
    1753                      .dwattr $C$DW$289, DW_AT_accessibility(DW_ACCESS_public)
    1754              $C$DW$290       .dwtag  DW_TAG_member
    1755                      .dwattr $C$DW$290, DW_AT_type(*$C$DW$T$59)
    1756                      .dwattr $C$DW$290, DW_AT_name("Ldc_Kalman_Q")
    1757                      .dwattr $C$DW$290, DW_AT_TI_symbol_name("_Ldc_Kalman_Q")
    1758                      .dwattr $C$DW$290, DW_AT_data_member_location[DW_OP_plus_uconst 0x8]
    1759                      .dwattr $C$DW$290, DW_AT_accessibility(DW_ACCESS_public)
    1760                      .dwendtag $C$DW$T$105
    1761              
    1762              $C$DW$T$123     .dwtag  DW_TAG_typedef, DW_AT_name("LDC161x_Kalman_t_")
    1763                      .dwattr $C$DW$T$123, DW_AT_type(*$C$DW$T$105)
    1764                      .dwattr $C$DW$T$123, DW_AT_language(DW_LANG_C)
    1765              
    1766              $C$DW$T$106     .dwtag  DW_TAG_structure_type
    1767                      .dwattr $C$DW$T$106, DW_AT_name("_LDC161x_MUX_CONFIG_t_")
    1768                      .dwattr $C$DW$T$106, DW_AT_byte_size(0x06)
    1769              $C$DW$291       .dwtag  DW_TAG_member
    1770                      .dwattr $C$DW$291, DW_AT_type(*$C$DW$T$42)
    1771                      .dwattr $C$DW$291, DW_AT_name("AUTOSCAN_EN")
    1772                      .dwattr $C$DW$291, DW_AT_TI_symbol_name("_AUTOSCAN_EN")
    1773                      .dwattr $C$DW$291, DW_AT_data_member_location[DW_OP_plus_uconst 0x0]
    1774                      .dwattr $C$DW$291, DW_AT_accessibility(DW_ACCESS_public)
    1775              $C$DW$292       .dwtag  DW_TAG_member
    1776                      .dwattr $C$DW$292, DW_AT_type(*$C$DW$T$42)
    1777                      .dwattr $C$DW$292, DW_AT_name("RR_SEQUENCE_0")
    1778                      .dwattr $C$DW$292, DW_AT_TI_symbol_name("_RR_SEQUENCE_0")
    1779                      .dwattr $C$DW$292, DW_AT_data_member_location[DW_OP_plus_uconst 0x1]
    1780                      .dwattr $C$DW$292, DW_AT_accessibility(DW_ACCESS_public)
    1781              $C$DW$293       .dwtag  DW_TAG_member
    1782                      .dwattr $C$DW$293, DW_AT_type(*$C$DW$T$42)
    1783                      .dwattr $C$DW$293, DW_AT_name("RR_SEQUENCE_1")
    1784                      .dwattr $C$DW$293, DW_AT_TI_symbol_name("_RR_SEQUENCE_1")
    1785                      .dwattr $C$DW$293, DW_AT_data_member_location[DW_OP_plus_uconst 0x2]
    1786                      .dwattr $C$DW$293, DW_AT_accessibility(DW_ACCESS_public)
    1787              $C$DW$294       .dwtag  DW_TAG_member
    1788                      .dwattr $C$DW$294, DW_AT_type(*$C$DW$T$42)
    1789                      .dwattr $C$DW$294, DW_AT_name("DEGLITCH_0")
    1790                      .dwattr $C$DW$294, DW_AT_TI_symbol_name("_DEGLITCH_0")
    1791                      .dwattr $C$DW$294, DW_AT_data_member_location[DW_OP_plus_uconst 0x3]
    1792                      .dwattr $C$DW$294, DW_AT_accessibility(DW_ACCESS_public)
    1793              $C$DW$295       .dwtag  DW_TAG_member
    1794                      .dwattr $C$DW$295, DW_AT_type(*$C$DW$T$42)
    1795                      .dwattr $C$DW$295, DW_AT_name("DEGLITCH_1")
    1796                      .dwattr $C$DW$295, DW_AT_TI_symbol_name("_DEGLITCH_1")
    1797                      .dwattr $C$DW$295, DW_AT_data_member_location[DW_OP_plus_uconst 0x4]
    1798                      .dwattr $C$DW$295, DW_AT_accessibility(DW_ACCESS_public)
    1799              $C$DW$296       .dwtag  DW_TAG_member
    1800                      .dwattr $C$DW$296, DW_AT_type(*$C$DW$T$42)
    1801                      .dwattr $C$DW$296, DW_AT_name("DEGLITCH_2")
    1802                      .dwattr $C$DW$296, DW_AT_TI_symbol_name("_DEGLITCH_2")
    1803                      .dwattr $C$DW$296, DW_AT_data_member_location[DW_OP_plus_uconst 0x5]
    1804                      .dwattr $C$DW$296, DW_AT_accessibility(DW_ACCESS_public)
    1805                      .dwendtag $C$DW$T$106
    1806              
TMS320C2000 Assembler PC v6.2.5 Tue Aug 29 10:13:49 2017

Tools Copyright (c) 1996-2014 Texas Instruments Incorporated
C:\Users\wmj\AppData\Local\Temp\0884811                              PAGE   34

    1807              $C$DW$T$121     .dwtag  DW_TAG_typedef, DW_AT_name("LDC161x_MUX_CONFIG_t_")
    1808                      .dwattr $C$DW$T$121, DW_AT_type(*$C$DW$T$106)
    1809                      .dwattr $C$DW$T$121, DW_AT_language(DW_LANG_C)
    1810              
    1811              $C$DW$T$107     .dwtag  DW_TAG_structure_type
    1812                      .dwattr $C$DW$T$107, DW_AT_name("_LDC161x_OFFSET_t_")
    1813                      .dwattr $C$DW$T$107, DW_AT_byte_size(0x01)
    1814              $C$DW$297       .dwtag  DW_TAG_member
    1815                      .dwattr $C$DW$297, DW_AT_type(*$C$DW$T$23)
    1816                      .dwattr $C$DW$297, DW_AT_name("OFFSET_CH0")
    1817                      .dwattr $C$DW$297, DW_AT_TI_symbol_name("_OFFSET_CH0")
    1818                      .dwattr $C$DW$297, DW_AT_data_member_location[DW_OP_plus_uconst 0x0]
    1819                      .dwattr $C$DW$297, DW_AT_accessibility(DW_ACCESS_public)
    1820                      .dwendtag $C$DW$T$107
    1821              
    1822              $C$DW$T$115     .dwtag  DW_TAG_typedef, DW_AT_name("LDC161x_OFFSET_t_")
    1823                      .dwattr $C$DW$T$115, DW_AT_type(*$C$DW$T$107)
    1824                      .dwattr $C$DW$T$115, DW_AT_language(DW_LANG_C)
    1825              
    1826              $C$DW$T$111     .dwtag  DW_TAG_structure_type
    1827                      .dwattr $C$DW$T$111, DW_AT_name("_LDC161x_Obj_")
    1828                      .dwattr $C$DW$T$111, DW_AT_byte_size(0x4a)
    1829              $C$DW$298       .dwtag  DW_TAG_member
    1830                      .dwattr $C$DW$298, DW_AT_type(*$C$DW$T$94)
    1831                      .dwattr $C$DW$298, DW_AT_name("i2cHandle")
    1832                      .dwattr $C$DW$298, DW_AT_TI_symbol_name("_i2cHandle")
    1833                      .dwattr $C$DW$298, DW_AT_data_member_location[DW_OP_plus_uconst 0x0]
    1834                      .dwattr $C$DW$298, DW_AT_accessibility(DW_ACCESS_public)
    1835              $C$DW$299       .dwtag  DW_TAG_member
    1836                      .dwattr $C$DW$299, DW_AT_type(*$C$DW$T$52)
    1837                      .dwattr $C$DW$299, DW_AT_name("gpioHandle")
    1838                      .dwattr $C$DW$299, DW_AT_TI_symbol_name("_gpioHandle")
    1839                      .dwattr $C$DW$299, DW_AT_data_member_location[DW_OP_plus_uconst 0x2]
    1840                      .dwattr $C$DW$299, DW_AT_accessibility(DW_ACCESS_public)
    1841              $C$DW$300       .dwtag  DW_TAG_member
    1842                      .dwattr $C$DW$300, DW_AT_type(*$C$DW$T$109)
    1843                      .dwattr $C$DW$300, DW_AT_name("ldcHandle")
    1844                      .dwattr $C$DW$300, DW_AT_TI_symbol_name("_ldcHandle")
    1845                      .dwattr $C$DW$300, DW_AT_data_member_location[DW_OP_plus_uconst 0x4]
    1846                      .dwattr $C$DW$300, DW_AT_accessibility(DW_ACCESS_public)
    1847              $C$DW$301       .dwtag  DW_TAG_member
    1848                      .dwattr $C$DW$301, DW_AT_type(*$C$DW$T$110)
    1849                      .dwattr $C$DW$301, DW_AT_name("ldc161x")
    1850                      .dwattr $C$DW$301, DW_AT_TI_symbol_name("_ldc161x")
    1851                      .dwattr $C$DW$301, DW_AT_data_member_location[DW_OP_plus_uconst 0x6]
    1852                      .dwattr $C$DW$301, DW_AT_accessibility(DW_ACCESS_public)
    1853              $C$DW$302       .dwtag  DW_TAG_member
    1854                      .dwattr $C$DW$302, DW_AT_type(*$C$DW$T$42)
    1855                      .dwattr $C$DW$302, DW_AT_name("RxTimeOut")
    1856                      .dwattr $C$DW$302, DW_AT_TI_symbol_name("_RxTimeOut")
    1857                      .dwattr $C$DW$302, DW_AT_data_member_location[DW_OP_plus_uconst 0x48]
    1858                      .dwattr $C$DW$302, DW_AT_accessibility(DW_ACCESS_public)
    1859              $C$DW$303       .dwtag  DW_TAG_member
    1860                      .dwattr $C$DW$303, DW_AT_type(*$C$DW$T$42)
    1861                      .dwattr $C$DW$303, DW_AT_name("TxTimeOut")
TMS320C2000 Assembler PC v6.2.5 Tue Aug 29 10:13:49 2017

Tools Copyright (c) 1996-2014 Texas Instruments Incorporated
C:\Users\wmj\AppData\Local\Temp\0884811                              PAGE   35

    1862                      .dwattr $C$DW$303, DW_AT_TI_symbol_name("_TxTimeOut")
    1863                      .dwattr $C$DW$303, DW_AT_data_member_location[DW_OP_plus_uconst 0x49]
    1864                      .dwattr $C$DW$303, DW_AT_accessibility(DW_ACCESS_public)
    1865                      .dwendtag $C$DW$T$111
    1866              
    1867              $C$DW$T$172     .dwtag  DW_TAG_typedef, DW_AT_name("LDC161x_Obj")
    1868                      .dwattr $C$DW$T$172, DW_AT_type(*$C$DW$T$111)
    1869                      .dwattr $C$DW$T$172, DW_AT_language(DW_LANG_C)
    1870              $C$DW$T$170     .dwtag  DW_TAG_pointer_type
    1871                      .dwattr $C$DW$T$170, DW_AT_type(*$C$DW$T$111)
    1872                      .dwattr $C$DW$T$170, DW_AT_address_class(0x16)
    1873              $C$DW$T$171     .dwtag  DW_TAG_typedef, DW_AT_name("LDC161x_Handle")
    1874                      .dwattr $C$DW$T$171, DW_AT_type(*$C$DW$T$170)
    1875                      .dwattr $C$DW$T$171, DW_AT_language(DW_LANG_C)
    1876              
    1877              $C$DW$T$112     .dwtag  DW_TAG_structure_type
    1878                      .dwattr $C$DW$T$112, DW_AT_name("_LDC161x_RCOUNT_t_")
    1879                      .dwattr $C$DW$T$112, DW_AT_byte_size(0x01)
    1880              $C$DW$304       .dwtag  DW_TAG_member
    1881                      .dwattr $C$DW$304, DW_AT_type(*$C$DW$T$23)
    1882                      .dwattr $C$DW$304, DW_AT_name("RCOUNT_CH0")
    1883                      .dwattr $C$DW$304, DW_AT_TI_symbol_name("_RCOUNT_CH0")
    1884                      .dwattr $C$DW$304, DW_AT_data_member_location[DW_OP_plus_uconst 0x0]
    1885                      .dwattr $C$DW$304, DW_AT_accessibility(DW_ACCESS_public)
    1886                      .dwendtag $C$DW$T$112
    1887              
    1888              $C$DW$T$114     .dwtag  DW_TAG_typedef, DW_AT_name("LDC161x_RCOUNT_t_")
    1889                      .dwattr $C$DW$T$114, DW_AT_type(*$C$DW$T$112)
    1890                      .dwattr $C$DW$T$114, DW_AT_language(DW_LANG_C)
    1891              
    1892              $C$DW$T$128     .dwtag  DW_TAG_structure_type
    1893                      .dwattr $C$DW$T$128, DW_AT_name("_LDC161x_REG_Obj_")
    1894                      .dwattr $C$DW$T$128, DW_AT_byte_size(0x42)
    1895              $C$DW$305       .dwtag  DW_TAG_member
    1896                      .dwattr $C$DW$305, DW_AT_type(*$C$DW$T$113)
    1897                      .dwattr $C$DW$305, DW_AT_name("LdcChData")
    1898                      .dwattr $C$DW$305, DW_AT_TI_symbol_name("_LdcChData")
    1899                      .dwattr $C$DW$305, DW_AT_data_member_location[DW_OP_plus_uconst 0x0]
    1900                      .dwattr $C$DW$305, DW_AT_accessibility(DW_ACCESS_public)
    1901              $C$DW$306       .dwtag  DW_TAG_member
    1902                      .dwattr $C$DW$306, DW_AT_type(*$C$DW$T$114)
    1903                      .dwattr $C$DW$306, DW_AT_name("LdcRcount")
    1904                      .dwattr $C$DW$306, DW_AT_TI_symbol_name("_LdcRcount")
    1905                      .dwattr $C$DW$306, DW_AT_data_member_location[DW_OP_plus_uconst 0x6]
    1906                      .dwattr $C$DW$306, DW_AT_accessibility(DW_ACCESS_public)
    1907              $C$DW$307       .dwtag  DW_TAG_member
    1908                      .dwattr $C$DW$307, DW_AT_type(*$C$DW$T$115)
    1909                      .dwattr $C$DW$307, DW_AT_name("LdcOffset")
    1910                      .dwattr $C$DW$307, DW_AT_TI_symbol_name("_LdcOffset")
    1911                      .dwattr $C$DW$307, DW_AT_data_member_location[DW_OP_plus_uconst 0x7]
    1912                      .dwattr $C$DW$307, DW_AT_accessibility(DW_ACCESS_public)
    1913              $C$DW$308       .dwtag  DW_TAG_member
    1914                      .dwattr $C$DW$308, DW_AT_type(*$C$DW$T$116)
    1915                      .dwattr $C$DW$308, DW_AT_name("LdcSettleCnt")
    1916                      .dwattr $C$DW$308, DW_AT_TI_symbol_name("_LdcSettleCnt")
TMS320C2000 Assembler PC v6.2.5 Tue Aug 29 10:13:49 2017

Tools Copyright (c) 1996-2014 Texas Instruments Incorporated
C:\Users\wmj\AppData\Local\Temp\0884811                              PAGE   36

    1917                      .dwattr $C$DW$308, DW_AT_data_member_location[DW_OP_plus_uconst 0x8]
    1918                      .dwattr $C$DW$308, DW_AT_accessibility(DW_ACCESS_public)
    1919              $C$DW$309       .dwtag  DW_TAG_member
    1920                      .dwattr $C$DW$309, DW_AT_type(*$C$DW$T$117)
    1921                      .dwattr $C$DW$309, DW_AT_name("LdcClkDiv")
    1922                      .dwattr $C$DW$309, DW_AT_TI_symbol_name("_LdcClkDiv")
    1923                      .dwattr $C$DW$309, DW_AT_data_member_location[DW_OP_plus_uconst 0x9]
    1924                      .dwattr $C$DW$309, DW_AT_accessibility(DW_ACCESS_public)
    1925              $C$DW$310       .dwtag  DW_TAG_member
    1926                      .dwattr $C$DW$310, DW_AT_type(*$C$DW$T$118)
    1927                      .dwattr $C$DW$310, DW_AT_name("LdcStatus")
    1928                      .dwattr $C$DW$310, DW_AT_TI_symbol_name("_LdcStatus")
    1929                      .dwattr $C$DW$310, DW_AT_data_member_location[DW_OP_plus_uconst 0xb]
    1930                      .dwattr $C$DW$310, DW_AT_accessibility(DW_ACCESS_public)
    1931              $C$DW$311       .dwtag  DW_TAG_member
    1932                      .dwattr $C$DW$311, DW_AT_type(*$C$DW$T$119)
    1933                      .dwattr $C$DW$311, DW_AT_name("LdcError")
    1934                      .dwattr $C$DW$311, DW_AT_TI_symbol_name("_LdcError")
    1935                      .dwattr $C$DW$311, DW_AT_data_member_location[DW_OP_plus_uconst 0x18]
    1936                      .dwattr $C$DW$311, DW_AT_accessibility(DW_ACCESS_public)
    1937              $C$DW$312       .dwtag  DW_TAG_member
    1938                      .dwattr $C$DW$312, DW_AT_type(*$C$DW$T$120)
    1939                      .dwattr $C$DW$312, DW_AT_name("LdcConfig")
    1940                      .dwattr $C$DW$312, DW_AT_TI_symbol_name("_LdcConfig")
    1941                      .dwattr $C$DW$312, DW_AT_data_member_location[DW_OP_plus_uconst 0x24]
    1942                      .dwattr $C$DW$312, DW_AT_accessibility(DW_ACCESS_public)
    1943              $C$DW$313       .dwtag  DW_TAG_member
    1944                      .dwattr $C$DW$313, DW_AT_type(*$C$DW$T$121)
    1945                      .dwattr $C$DW$313, DW_AT_name("LdcMuxConf")
    1946                      .dwattr $C$DW$313, DW_AT_TI_symbol_name("_LdcMuxConf")
    1947                      .dwattr $C$DW$313, DW_AT_data_member_location[DW_OP_plus_uconst 0x2d]
    1948                      .dwattr $C$DW$313, DW_AT_accessibility(DW_ACCESS_public)
    1949              $C$DW$314       .dwtag  DW_TAG_member
    1950                      .dwattr $C$DW$314, DW_AT_type(*$C$DW$T$122)
    1951                      .dwattr $C$DW$314, DW_AT_name("LdcDriveCurrent")
    1952                      .dwattr $C$DW$314, DW_AT_TI_symbol_name("_LdcDriveCurrent")
    1953                      .dwattr $C$DW$314, DW_AT_data_member_location[DW_OP_plus_uconst 0x33]
    1954                      .dwattr $C$DW$314, DW_AT_accessibility(DW_ACCESS_public)
    1955              $C$DW$315       .dwtag  DW_TAG_member
    1956                      .dwattr $C$DW$315, DW_AT_type(*$C$DW$T$123)
    1957                      .dwattr $C$DW$315, DW_AT_name("LdcKalman")
    1958                      .dwattr $C$DW$315, DW_AT_TI_symbol_name("_LdcKalman")
    1959                      .dwattr $C$DW$315, DW_AT_data_member_location[DW_OP_plus_uconst 0x36]
    1960                      .dwattr $C$DW$315, DW_AT_accessibility(DW_ACCESS_public)
    1961              $C$DW$316       .dwtag  DW_TAG_member
    1962                      .dwattr $C$DW$316, DW_AT_type(*$C$DW$T$125)
    1963                      .dwattr $C$DW$316, DW_AT_name("LdcType")
    1964                      .dwattr $C$DW$316, DW_AT_TI_symbol_name("_LdcType")
    1965                      .dwattr $C$DW$316, DW_AT_data_member_location[DW_OP_plus_uconst 0x40]
    1966                      .dwattr $C$DW$316, DW_AT_accessibility(DW_ACCESS_public)
    1967              $C$DW$317       .dwtag  DW_TAG_member
    1968                      .dwattr $C$DW$317, DW_AT_type(*$C$DW$T$127)
    1969                      .dwattr $C$DW$317, DW_AT_name("LdcSerial")
    1970                      .dwattr $C$DW$317, DW_AT_TI_symbol_name("_LdcSerial")
    1971                      .dwattr $C$DW$317, DW_AT_data_member_location[DW_OP_plus_uconst 0x41]
TMS320C2000 Assembler PC v6.2.5 Tue Aug 29 10:13:49 2017

Tools Copyright (c) 1996-2014 Texas Instruments Incorporated
C:\Users\wmj\AppData\Local\Temp\0884811                              PAGE   37

    1972                      .dwattr $C$DW$317, DW_AT_accessibility(DW_ACCESS_public)
    1973                      .dwendtag $C$DW$T$128
    1974              
    1975              $C$DW$T$110     .dwtag  DW_TAG_typedef, DW_AT_name("LDC161x_REG_Obj")
    1976                      .dwattr $C$DW$T$110, DW_AT_type(*$C$DW$T$128)
    1977                      .dwattr $C$DW$T$110, DW_AT_language(DW_LANG_C)
    1978              
    1979              $C$DW$T$129     .dwtag  DW_TAG_structure_type
    1980                      .dwattr $C$DW$T$129, DW_AT_name("_LDC161x_SETTLECOUNT_t_")
    1981                      .dwattr $C$DW$T$129, DW_AT_byte_size(0x01)
    1982              $C$DW$318       .dwtag  DW_TAG_member
    1983                      .dwattr $C$DW$318, DW_AT_type(*$C$DW$T$23)
    1984                      .dwattr $C$DW$318, DW_AT_name("SETTLECOUNT_CH0")
    1985                      .dwattr $C$DW$318, DW_AT_TI_symbol_name("_SETTLECOUNT_CH0")
    1986                      .dwattr $C$DW$318, DW_AT_data_member_location[DW_OP_plus_uconst 0x0]
    1987                      .dwattr $C$DW$318, DW_AT_accessibility(DW_ACCESS_public)
    1988                      .dwendtag $C$DW$T$129
    1989              
    1990              $C$DW$T$116     .dwtag  DW_TAG_typedef, DW_AT_name("LDC161x_SETTLECOUNT_t_")
    1991                      .dwattr $C$DW$T$116, DW_AT_type(*$C$DW$T$129)
    1992                      .dwattr $C$DW$T$116, DW_AT_language(DW_LANG_C)
    1993              
    1994              $C$DW$T$130     .dwtag  DW_TAG_structure_type
    1995                      .dwattr $C$DW$T$130, DW_AT_name("_LDC161x_STATUS_t_")
    1996                      .dwattr $C$DW$T$130, DW_AT_byte_size(0x0d)
    1997              $C$DW$319       .dwtag  DW_TAG_member
    1998                      .dwattr $C$DW$319, DW_AT_type(*$C$DW$T$42)
    1999                      .dwattr $C$DW$319, DW_AT_name("UNRDCONV_CH3")
    2000                      .dwattr $C$DW$319, DW_AT_TI_symbol_name("_UNRDCONV_CH3")
    2001                      .dwattr $C$DW$319, DW_AT_data_member_location[DW_OP_plus_uconst 0x0]
    2002                      .dwattr $C$DW$319, DW_AT_accessibility(DW_ACCESS_public)
    2003              $C$DW$320       .dwtag  DW_TAG_member
    2004                      .dwattr $C$DW$320, DW_AT_type(*$C$DW$T$42)
    2005                      .dwattr $C$DW$320, DW_AT_name("UNRDCONV_CH2")
    2006                      .dwattr $C$DW$320, DW_AT_TI_symbol_name("_UNRDCONV_CH2")
    2007                      .dwattr $C$DW$320, DW_AT_data_member_location[DW_OP_plus_uconst 0x1]
    2008                      .dwattr $C$DW$320, DW_AT_accessibility(DW_ACCESS_public)
    2009              $C$DW$321       .dwtag  DW_TAG_member
    2010                      .dwattr $C$DW$321, DW_AT_type(*$C$DW$T$42)
    2011                      .dwattr $C$DW$321, DW_AT_name("UNRDCONV_CH1")
    2012                      .dwattr $C$DW$321, DW_AT_TI_symbol_name("_UNRDCONV_CH1")
    2013                      .dwattr $C$DW$321, DW_AT_data_member_location[DW_OP_plus_uconst 0x2]
    2014                      .dwattr $C$DW$321, DW_AT_accessibility(DW_ACCESS_public)
    2015              $C$DW$322       .dwtag  DW_TAG_member
    2016                      .dwattr $C$DW$322, DW_AT_type(*$C$DW$T$42)
    2017                      .dwattr $C$DW$322, DW_AT_name("UNRDCONV_CH0")
    2018                      .dwattr $C$DW$322, DW_AT_TI_symbol_name("_UNRDCONV_CH0")
    2019                      .dwattr $C$DW$322, DW_AT_data_member_location[DW_OP_plus_uconst 0x3]
    2020                      .dwattr $C$DW$322, DW_AT_accessibility(DW_ACCESS_public)
    2021              $C$DW$323       .dwtag  DW_TAG_member
    2022                      .dwattr $C$DW$323, DW_AT_type(*$C$DW$T$42)
    2023                      .dwattr $C$DW$323, DW_AT_name("DRDY")
    2024                      .dwattr $C$DW$323, DW_AT_TI_symbol_name("_DRDY")
    2025                      .dwattr $C$DW$323, DW_AT_data_member_location[DW_OP_plus_uconst 0x4]
    2026                      .dwattr $C$DW$323, DW_AT_accessibility(DW_ACCESS_public)
TMS320C2000 Assembler PC v6.2.5 Tue Aug 29 10:13:49 2017

Tools Copyright (c) 1996-2014 Texas Instruments Incorporated
C:\Users\wmj\AppData\Local\Temp\0884811                              PAGE   38

    2027              $C$DW$324       .dwtag  DW_TAG_member
    2028                      .dwattr $C$DW$324, DW_AT_type(*$C$DW$T$42)
    2029                      .dwattr $C$DW$324, DW_AT_name("ERR_ZC")
    2030                      .dwattr $C$DW$324, DW_AT_TI_symbol_name("_ERR_ZC")
    2031                      .dwattr $C$DW$324, DW_AT_data_member_location[DW_OP_plus_uconst 0x5]
    2032                      .dwattr $C$DW$324, DW_AT_accessibility(DW_ACCESS_public)
    2033              $C$DW$325       .dwtag  DW_TAG_member
    2034                      .dwattr $C$DW$325, DW_AT_type(*$C$DW$T$42)
    2035                      .dwattr $C$DW$325, DW_AT_name("ERR_ALE")
    2036                      .dwattr $C$DW$325, DW_AT_TI_symbol_name("_ERR_ALE")
    2037                      .dwattr $C$DW$325, DW_AT_data_member_location[DW_OP_plus_uconst 0x6]
    2038                      .dwattr $C$DW$325, DW_AT_accessibility(DW_ACCESS_public)
    2039              $C$DW$326       .dwtag  DW_TAG_member
    2040                      .dwattr $C$DW$326, DW_AT_type(*$C$DW$T$42)
    2041                      .dwattr $C$DW$326, DW_AT_name("ERR_AHE")
    2042                      .dwattr $C$DW$326, DW_AT_TI_symbol_name("_ERR_AHE")
    2043                      .dwattr $C$DW$326, DW_AT_data_member_location[DW_OP_plus_uconst 0x7]
    2044                      .dwattr $C$DW$326, DW_AT_accessibility(DW_ACCESS_public)
    2045              $C$DW$327       .dwtag  DW_TAG_member
    2046                      .dwattr $C$DW$327, DW_AT_type(*$C$DW$T$42)
    2047                      .dwattr $C$DW$327, DW_AT_name("ERR_WD")
    2048                      .dwattr $C$DW$327, DW_AT_TI_symbol_name("_ERR_WD")
    2049                      .dwattr $C$DW$327, DW_AT_data_member_location[DW_OP_plus_uconst 0x8]
    2050                      .dwattr $C$DW$327, DW_AT_accessibility(DW_ACCESS_public)
    2051              $C$DW$328       .dwtag  DW_TAG_member
    2052                      .dwattr $C$DW$328, DW_AT_type(*$C$DW$T$42)
    2053                      .dwattr $C$DW$328, DW_AT_name("ERR_OR")
    2054                      .dwattr $C$DW$328, DW_AT_TI_symbol_name("_ERR_OR")
    2055                      .dwattr $C$DW$328, DW_AT_data_member_location[DW_OP_plus_uconst 0x9]
    2056                      .dwattr $C$DW$328, DW_AT_accessibility(DW_ACCESS_public)
    2057              $C$DW$329       .dwtag  DW_TAG_member
    2058                      .dwattr $C$DW$329, DW_AT_type(*$C$DW$T$42)
    2059                      .dwattr $C$DW$329, DW_AT_name("ERR_UR")
    2060                      .dwattr $C$DW$329, DW_AT_TI_symbol_name("_ERR_UR")
    2061                      .dwattr $C$DW$329, DW_AT_data_member_location[DW_OP_plus_uconst 0xa]
    2062                      .dwattr $C$DW$329, DW_AT_accessibility(DW_ACCESS_public)
    2063              $C$DW$330       .dwtag  DW_TAG_member
    2064                      .dwattr $C$DW$330, DW_AT_type(*$C$DW$T$42)
    2065                      .dwattr $C$DW$330, DW_AT_name("ERR_CHAN_0")
    2066                      .dwattr $C$DW$330, DW_AT_TI_symbol_name("_ERR_CHAN_0")
    2067                      .dwattr $C$DW$330, DW_AT_data_member_location[DW_OP_plus_uconst 0xb]
    2068                      .dwattr $C$DW$330, DW_AT_accessibility(DW_ACCESS_public)
    2069              $C$DW$331       .dwtag  DW_TAG_member
    2070                      .dwattr $C$DW$331, DW_AT_type(*$C$DW$T$42)
    2071                      .dwattr $C$DW$331, DW_AT_name("ERR_CHAN_1")
    2072                      .dwattr $C$DW$331, DW_AT_TI_symbol_name("_ERR_CHAN_1")
    2073                      .dwattr $C$DW$331, DW_AT_data_member_location[DW_OP_plus_uconst 0xc]
    2074                      .dwattr $C$DW$331, DW_AT_accessibility(DW_ACCESS_public)
    2075                      .dwendtag $C$DW$T$130
    2076              
    2077              $C$DW$T$118     .dwtag  DW_TAG_typedef, DW_AT_name("LDC161x_STATUS_t_")
    2078                      .dwattr $C$DW$T$118, DW_AT_type(*$C$DW$T$130)
    2079                      .dwattr $C$DW$T$118, DW_AT_language(DW_LANG_C)
    2080              
    2081              $C$DW$T$131     .dwtag  DW_TAG_structure_type
TMS320C2000 Assembler PC v6.2.5 Tue Aug 29 10:13:49 2017

Tools Copyright (c) 1996-2014 Texas Instruments Incorporated
C:\Users\wmj\AppData\Local\Temp\0884811                              PAGE   39

    2082                      .dwattr $C$DW$T$131, DW_AT_name("_LDC_161x_CHDATA_MSB_t_")
    2083                      .dwattr $C$DW$T$131, DW_AT_byte_size(0x05)
    2084              $C$DW$332       .dwtag  DW_TAG_member
    2085                      .dwattr $C$DW$332, DW_AT_type(*$C$DW$T$42)
    2086                      .dwattr $C$DW$332, DW_AT_name("ERR_UR")
    2087                      .dwattr $C$DW$332, DW_AT_TI_symbol_name("_ERR_UR")
    2088                      .dwattr $C$DW$332, DW_AT_data_member_location[DW_OP_plus_uconst 0x0]
    2089                      .dwattr $C$DW$332, DW_AT_accessibility(DW_ACCESS_public)
    2090              $C$DW$333       .dwtag  DW_TAG_member
    2091                      .dwattr $C$DW$333, DW_AT_type(*$C$DW$T$42)
    2092                      .dwattr $C$DW$333, DW_AT_name("ERR_OR")
    2093                      .dwattr $C$DW$333, DW_AT_TI_symbol_name("_ERR_OR")
    2094                      .dwattr $C$DW$333, DW_AT_data_member_location[DW_OP_plus_uconst 0x1]
    2095                      .dwattr $C$DW$333, DW_AT_accessibility(DW_ACCESS_public)
    2096              $C$DW$334       .dwtag  DW_TAG_member
    2097                      .dwattr $C$DW$334, DW_AT_type(*$C$DW$T$42)
    2098                      .dwattr $C$DW$334, DW_AT_name("ERR_WD")
    2099                      .dwattr $C$DW$334, DW_AT_TI_symbol_name("_ERR_WD")
    2100                      .dwattr $C$DW$334, DW_AT_data_member_location[DW_OP_plus_uconst 0x2]
    2101                      .dwattr $C$DW$334, DW_AT_accessibility(DW_ACCESS_public)
    2102              $C$DW$335       .dwtag  DW_TAG_member
    2103                      .dwattr $C$DW$335, DW_AT_type(*$C$DW$T$42)
    2104                      .dwattr $C$DW$335, DW_AT_name("ERR_AE")
    2105                      .dwattr $C$DW$335, DW_AT_TI_symbol_name("_ERR_AE")
    2106                      .dwattr $C$DW$335, DW_AT_data_member_location[DW_OP_plus_uconst 0x3]
    2107                      .dwattr $C$DW$335, DW_AT_accessibility(DW_ACCESS_public)
    2108              $C$DW$336       .dwtag  DW_TAG_member
    2109                      .dwattr $C$DW$336, DW_AT_type(*$C$DW$T$23)
    2110                      .dwattr $C$DW$336, DW_AT_name("DAT_MB")
    2111                      .dwattr $C$DW$336, DW_AT_TI_symbol_name("_DAT_MB")
    2112                      .dwattr $C$DW$336, DW_AT_data_member_location[DW_OP_plus_uconst 0x4]
    2113                      .dwattr $C$DW$336, DW_AT_accessibility(DW_ACCESS_public)
    2114                      .dwendtag $C$DW$T$131
    2115              
    2116              $C$DW$T$132     .dwtag  DW_TAG_typedef, DW_AT_name("LDC_161x_CHDATA_MSB_t_")
    2117                      .dwattr $C$DW$T$132, DW_AT_type(*$C$DW$T$131)
    2118                      .dwattr $C$DW$T$132, DW_AT_language(DW_LANG_C)
    2119              
    2120              $C$DW$T$133     .dwtag  DW_TAG_structure_type
    2121                      .dwattr $C$DW$T$133, DW_AT_name("_LDC_161x_CHDATA_t_")
    2122                      .dwattr $C$DW$T$133, DW_AT_byte_size(0x06)
    2123              $C$DW$337       .dwtag  DW_TAG_member
    2124                      .dwattr $C$DW$337, DW_AT_type(*$C$DW$T$132)
    2125                      .dwattr $C$DW$337, DW_AT_name("MSB")
    2126                      .dwattr $C$DW$337, DW_AT_TI_symbol_name("_MSB")
    2127                      .dwattr $C$DW$337, DW_AT_data_member_location[DW_OP_plus_uconst 0x0]
    2128                      .dwattr $C$DW$337, DW_AT_accessibility(DW_ACCESS_public)
    2129              $C$DW$338       .dwtag  DW_TAG_member
    2130                      .dwattr $C$DW$338, DW_AT_type(*$C$DW$T$23)
    2131                      .dwattr $C$DW$338, DW_AT_name("LSB")
    2132                      .dwattr $C$DW$338, DW_AT_TI_symbol_name("_LSB")
    2133                      .dwattr $C$DW$338, DW_AT_data_member_location[DW_OP_plus_uconst 0x5]
    2134                      .dwattr $C$DW$338, DW_AT_accessibility(DW_ACCESS_public)
    2135                      .dwendtag $C$DW$T$133
    2136              
TMS320C2000 Assembler PC v6.2.5 Tue Aug 29 10:13:49 2017

Tools Copyright (c) 1996-2014 Texas Instruments Incorporated
C:\Users\wmj\AppData\Local\Temp\0884811                              PAGE   40

    2137              $C$DW$T$134     .dwtag  DW_TAG_typedef, DW_AT_name("LDC_161x_CHDATA_t_")
    2138                      .dwattr $C$DW$T$134, DW_AT_type(*$C$DW$T$133)
    2139                      .dwattr $C$DW$T$134, DW_AT_language(DW_LANG_C)
    2140              
    2141              $C$DW$T$135     .dwtag  DW_TAG_structure_type
    2142                      .dwattr $C$DW$T$135, DW_AT_name("_LDC_161x_DATA_t_")
    2143                      .dwattr $C$DW$T$135, DW_AT_byte_size(0x06)
    2144              $C$DW$339       .dwtag  DW_TAG_member
    2145                      .dwattr $C$DW$339, DW_AT_type(*$C$DW$T$134)
    2146                      .dwattr $C$DW$339, DW_AT_name("CH0_DATA")
    2147                      .dwattr $C$DW$339, DW_AT_TI_symbol_name("_CH0_DATA")
    2148                      .dwattr $C$DW$339, DW_AT_data_member_location[DW_OP_plus_uconst 0x0]
    2149                      .dwattr $C$DW$339, DW_AT_accessibility(DW_ACCESS_public)
    2150                      .dwendtag $C$DW$T$135
    2151              
    2152              $C$DW$T$113     .dwtag  DW_TAG_typedef, DW_AT_name("LDC_161x_DATA_t_")
    2153                      .dwattr $C$DW$T$113, DW_AT_type(*$C$DW$T$135)
    2154                      .dwattr $C$DW$T$113, DW_AT_language(DW_LANG_C)
    2155              
    2156              $C$DW$T$137     .dwtag  DW_TAG_structure_type
    2157                      .dwattr $C$DW$T$137, DW_AT_name("_MATH_vec2_")
    2158                      .dwattr $C$DW$T$137, DW_AT_byte_size(0x04)
    2159              $C$DW$340       .dwtag  DW_TAG_member
    2160                      .dwattr $C$DW$340, DW_AT_type(*$C$DW$T$136)
    2161                      .dwattr $C$DW$340, DW_AT_name("value")
    2162                      .dwattr $C$DW$340, DW_AT_TI_symbol_name("_value")
    2163                      .dwattr $C$DW$340, DW_AT_data_member_location[DW_OP_plus_uconst 0x0]
    2164                      .dwattr $C$DW$340, DW_AT_accessibility(DW_ACCESS_public)
    2165                      .dwendtag $C$DW$T$137
    2166              
    2167              $C$DW$T$38      .dwtag  DW_TAG_typedef, DW_AT_name("MATH_vec2")
    2168                      .dwattr $C$DW$T$38, DW_AT_type(*$C$DW$T$137)
    2169                      .dwattr $C$DW$T$38, DW_AT_language(DW_LANG_C)
    2170              
    2171              $C$DW$T$139     .dwtag  DW_TAG_structure_type
    2172                      .dwattr $C$DW$T$139, DW_AT_name("_MATH_vec3_")
    2173                      .dwattr $C$DW$T$139, DW_AT_byte_size(0x06)
    2174              $C$DW$341       .dwtag  DW_TAG_member
    2175                      .dwattr $C$DW$341, DW_AT_type(*$C$DW$T$138)
    2176                      .dwattr $C$DW$341, DW_AT_name("value")
    2177                      .dwattr $C$DW$341, DW_AT_TI_symbol_name("_value")
    2178                      .dwattr $C$DW$341, DW_AT_data_member_location[DW_OP_plus_uconst 0x0]
    2179                      .dwattr $C$DW$341, DW_AT_accessibility(DW_ACCESS_public)
    2180                      .dwendtag $C$DW$T$139
    2181              
    2182              $C$DW$T$64      .dwtag  DW_TAG_typedef, DW_AT_name("MATH_vec3")
    2183                      .dwattr $C$DW$T$64, DW_AT_type(*$C$DW$T$139)
    2184                      .dwattr $C$DW$T$64, DW_AT_language(DW_LANG_C)
    2185              
    2186              $C$DW$T$143     .dwtag  DW_TAG_structure_type
    2187                      .dwattr $C$DW$T$143, DW_AT_name("_OFFSET_")
    2188                      .dwattr $C$DW$T$143, DW_AT_byte_size(0x10)
    2189              $C$DW$342       .dwtag  DW_TAG_member
    2190                      .dwattr $C$DW$342, DW_AT_type(*$C$DW$T$37)
    2191                      .dwattr $C$DW$342, DW_AT_name("value")
TMS320C2000 Assembler PC v6.2.5 Tue Aug 29 10:13:49 2017

Tools Copyright (c) 1996-2014 Texas Instruments Incorporated
C:\Users\wmj\AppData\Local\Temp\0884811                              PAGE   41

    2192                      .dwattr $C$DW$342, DW_AT_TI_symbol_name("_value")
    2193                      .dwattr $C$DW$342, DW_AT_data_member_location[DW_OP_plus_uconst 0x0]
    2194                      .dwattr $C$DW$342, DW_AT_accessibility(DW_ACCESS_public)
    2195              $C$DW$343       .dwtag  DW_TAG_member
    2196                      .dwattr $C$DW$343, DW_AT_type(*$C$DW$T$37)
    2197                      .dwattr $C$DW$343, DW_AT_name("bias")
    2198                      .dwattr $C$DW$343, DW_AT_TI_symbol_name("_bias")
    2199                      .dwattr $C$DW$343, DW_AT_data_member_location[DW_OP_plus_uconst 0x2]
    2200                      .dwattr $C$DW$343, DW_AT_accessibility(DW_ACCESS_public)
    2201              $C$DW$344       .dwtag  DW_TAG_member
    2202                      .dwattr $C$DW$344, DW_AT_type(*$C$DW$T$140)
    2203                      .dwattr $C$DW$344, DW_AT_name("filter")
    2204                      .dwattr $C$DW$344, DW_AT_TI_symbol_name("_filter")
    2205                      .dwattr $C$DW$344, DW_AT_data_member_location[DW_OP_plus_uconst 0x4]
    2206                      .dwattr $C$DW$344, DW_AT_accessibility(DW_ACCESS_public)
    2207              $C$DW$345       .dwtag  DW_TAG_member
    2208                      .dwattr $C$DW$345, DW_AT_type(*$C$DW$T$142)
    2209                      .dwattr $C$DW$345, DW_AT_name("filterHandle")
    2210                      .dwattr $C$DW$345, DW_AT_TI_symbol_name("_filterHandle")
    2211                      .dwattr $C$DW$345, DW_AT_data_member_location[DW_OP_plus_uconst 0xe]
    2212                      .dwattr $C$DW$345, DW_AT_accessibility(DW_ACCESS_public)
    2213                      .dwendtag $C$DW$T$143
    2214              
    2215              $C$DW$T$77      .dwtag  DW_TAG_typedef, DW_AT_name("OFFSET_Obj")
    2216                      .dwattr $C$DW$T$77, DW_AT_type(*$C$DW$T$143)
    2217                      .dwattr $C$DW$T$77, DW_AT_language(DW_LANG_C)
    2218              
    2219              $C$DW$T$78      .dwtag  DW_TAG_array_type
    2220                      .dwattr $C$DW$T$78, DW_AT_type(*$C$DW$T$77)
    2221                      .dwattr $C$DW$T$78, DW_AT_language(DW_LANG_C)
    2222                      .dwattr $C$DW$T$78, DW_AT_byte_size(0x30)
    2223              $C$DW$346       .dwtag  DW_TAG_subrange_type
    2224                      .dwattr $C$DW$346, DW_AT_upper_bound(0x02)
    2225                      .dwendtag $C$DW$T$78
    2226              
    2227              
    2228              $C$DW$T$22      .dwtag  DW_TAG_structure_type
    2229                      .dwattr $C$DW$T$22, DW_AT_name("_OFFSET_Obj_")
    2230                      .dwattr $C$DW$T$22, DW_AT_declaration
    2231                      .dwendtag $C$DW$T$22
    2232              
    2233              $C$DW$T$74      .dwtag  DW_TAG_pointer_type
    2234                      .dwattr $C$DW$T$74, DW_AT_type(*$C$DW$T$22)
    2235                      .dwattr $C$DW$T$74, DW_AT_address_class(0x16)
    2236              $C$DW$T$75      .dwtag  DW_TAG_typedef, DW_AT_name("OFFSET_Handle")
    2237                      .dwattr $C$DW$T$75, DW_AT_type(*$C$DW$T$74)
    2238                      .dwattr $C$DW$T$75, DW_AT_language(DW_LANG_C)
    2239              
    2240              $C$DW$T$76      .dwtag  DW_TAG_array_type
    2241                      .dwattr $C$DW$T$76, DW_AT_type(*$C$DW$T$75)
    2242                      .dwattr $C$DW$T$76, DW_AT_language(DW_LANG_C)
    2243                      .dwattr $C$DW$T$76, DW_AT_byte_size(0x06)
    2244              $C$DW$347       .dwtag  DW_TAG_subrange_type
    2245                      .dwattr $C$DW$347, DW_AT_upper_bound(0x02)
    2246                      .dwendtag $C$DW$T$76
TMS320C2000 Assembler PC v6.2.5 Tue Aug 29 10:13:49 2017

Tools Copyright (c) 1996-2014 Texas Instruments Incorporated
C:\Users\wmj\AppData\Local\Temp\0884811                              PAGE   42

    2247              
    2248              
    2249              $C$DW$T$147     .dwtag  DW_TAG_structure_type
    2250                      .dwattr $C$DW$T$147, DW_AT_name("_OLED_Obj_")
    2251                      .dwattr $C$DW$T$147, DW_AT_byte_size(0x06)
    2252              $C$DW$348       .dwtag  DW_TAG_member
    2253                      .dwattr $C$DW$348, DW_AT_type(*$C$DW$T$94)
    2254                      .dwattr $C$DW$348, DW_AT_name("i2cHandle")
    2255                      .dwattr $C$DW$348, DW_AT_TI_symbol_name("_i2cHandle")
    2256                      .dwattr $C$DW$348, DW_AT_data_member_location[DW_OP_plus_uconst 0x0]
    2257                      .dwattr $C$DW$348, DW_AT_accessibility(DW_ACCESS_public)
    2258              $C$DW$349       .dwtag  DW_TAG_member
    2259                      .dwattr $C$DW$349, DW_AT_type(*$C$DW$T$145)
    2260                      .dwattr $C$DW$349, DW_AT_name("TxType")
    2261                      .dwattr $C$DW$349, DW_AT_TI_symbol_name("_TxType")
    2262                      .dwattr $C$DW$349, DW_AT_data_member_location[DW_OP_plus_uconst 0x2]
    2263                      .dwattr $C$DW$349, DW_AT_accessibility(DW_ACCESS_public)
    2264              $C$DW$350       .dwtag  DW_TAG_member
    2265                      .dwattr $C$DW$350, DW_AT_type(*$C$DW$T$146)
    2266                      .dwattr $C$DW$350, DW_AT_name("OledPos")
    2267                      .dwattr $C$DW$350, DW_AT_TI_symbol_name("_OledPos")
    2268                      .dwattr $C$DW$350, DW_AT_data_member_location[DW_OP_plus_uconst 0x3]
    2269                      .dwattr $C$DW$350, DW_AT_accessibility(DW_ACCESS_public)
    2270              $C$DW$351       .dwtag  DW_TAG_member
    2271                      .dwattr $C$DW$351, DW_AT_type(*$C$DW$T$42)
    2272                      .dwattr $C$DW$351, DW_AT_name("TxTimeOut")
    2273                      .dwattr $C$DW$351, DW_AT_TI_symbol_name("_TxTimeOut")
    2274                      .dwattr $C$DW$351, DW_AT_data_member_location[DW_OP_plus_uconst 0x4]
    2275                      .dwattr $C$DW$351, DW_AT_accessibility(DW_ACCESS_public)
    2276                      .dwendtag $C$DW$T$147
    2277              
    2278              $C$DW$T$175     .dwtag  DW_TAG_typedef, DW_AT_name("OLED_Obj")
    2279                      .dwattr $C$DW$T$175, DW_AT_type(*$C$DW$T$147)
    2280                      .dwattr $C$DW$T$175, DW_AT_language(DW_LANG_C)
    2281              $C$DW$T$173     .dwtag  DW_TAG_pointer_type
    2282                      .dwattr $C$DW$T$173, DW_AT_type(*$C$DW$T$147)
    2283                      .dwattr $C$DW$T$173, DW_AT_address_class(0x16)
    2284              $C$DW$T$174     .dwtag  DW_TAG_typedef, DW_AT_name("OLED_Handle")
    2285                      .dwattr $C$DW$T$174, DW_AT_type(*$C$DW$T$173)
    2286                      .dwattr $C$DW$T$174, DW_AT_language(DW_LANG_C)
    2287              
    2288              $C$DW$T$148     .dwtag  DW_TAG_structure_type
    2289                      .dwattr $C$DW$T$148, DW_AT_name("_OLED_Pos_t")
    2290                      .dwattr $C$DW$T$148, DW_AT_byte_size(0x01)
    2291              $C$DW$352       .dwtag  DW_TAG_member
    2292                      .dwattr $C$DW$352, DW_AT_type(*$C$DW$T$23)
    2293                      .dwattr $C$DW$352, DW_AT_name("Xpos")
    2294                      .dwattr $C$DW$352, DW_AT_TI_symbol_name("_Xpos")
    2295                      .dwattr $C$DW$352, DW_AT_bit_offset(0x08), DW_AT_bit_size(0x08)
    2296                      .dwattr $C$DW$352, DW_AT_data_member_location[DW_OP_plus_uconst 0x0]
    2297                      .dwattr $C$DW$352, DW_AT_accessibility(DW_ACCESS_public)
    2298              $C$DW$353       .dwtag  DW_TAG_member
    2299                      .dwattr $C$DW$353, DW_AT_type(*$C$DW$T$23)
    2300                      .dwattr $C$DW$353, DW_AT_name("Ypos")
    2301                      .dwattr $C$DW$353, DW_AT_TI_symbol_name("_Ypos")
TMS320C2000 Assembler PC v6.2.5 Tue Aug 29 10:13:49 2017

Tools Copyright (c) 1996-2014 Texas Instruments Incorporated
C:\Users\wmj\AppData\Local\Temp\0884811                              PAGE   43

    2302                      .dwattr $C$DW$353, DW_AT_bit_offset(0x00), DW_AT_bit_size(0x08)
    2303                      .dwattr $C$DW$353, DW_AT_data_member_location[DW_OP_plus_uconst 0x0]
    2304                      .dwattr $C$DW$353, DW_AT_accessibility(DW_ACCESS_public)
    2305                      .dwendtag $C$DW$T$148
    2306              
    2307              $C$DW$T$146     .dwtag  DW_TAG_typedef, DW_AT_name("OLED_Pos_t")
    2308                      .dwattr $C$DW$T$146, DW_AT_type(*$C$DW$T$148)
    2309                      .dwattr $C$DW$T$146, DW_AT_language(DW_LANG_C)
    2310              
    2311              $C$DW$T$149     .dwtag  DW_TAG_structure_type
    2312                      .dwattr $C$DW$T$149, DW_AT_name("_OSC_Obj_")
    2313                      .dwattr $C$DW$T$149, DW_AT_byte_size(0x03)
    2314              $C$DW$354       .dwtag  DW_TAG_member
    2315                      .dwattr $C$DW$354, DW_AT_type(*$C$DW$T$24)
    2316                      .dwattr $C$DW$354, DW_AT_name("INTOSC1TRIM")
    2317                      .dwattr $C$DW$354, DW_AT_TI_symbol_name("_INTOSC1TRIM")
    2318                      .dwattr $C$DW$354, DW_AT_data_member_location[DW_OP_plus_uconst 0x0]
    2319                      .dwattr $C$DW$354, DW_AT_accessibility(DW_ACCESS_public)
    2320              $C$DW$355       .dwtag  DW_TAG_member
    2321                      .dwattr $C$DW$355, DW_AT_type(*$C$DW$T$24)
    2322                      .dwattr $C$DW$355, DW_AT_name("rsvd_1")
    2323                      .dwattr $C$DW$355, DW_AT_TI_symbol_name("_rsvd_1")
    2324                      .dwattr $C$DW$355, DW_AT_data_member_location[DW_OP_plus_uconst 0x1]
    2325                      .dwattr $C$DW$355, DW_AT_accessibility(DW_ACCESS_public)
    2326              $C$DW$356       .dwtag  DW_TAG_member
    2327                      .dwattr $C$DW$356, DW_AT_type(*$C$DW$T$24)
    2328                      .dwattr $C$DW$356, DW_AT_name("INTOSC2TRIM")
    2329                      .dwattr $C$DW$356, DW_AT_TI_symbol_name("_INTOSC2TRIM")
    2330                      .dwattr $C$DW$356, DW_AT_data_member_location[DW_OP_plus_uconst 0x2]
    2331                      .dwattr $C$DW$356, DW_AT_accessibility(DW_ACCESS_public)
    2332                      .dwendtag $C$DW$T$149
    2333              
    2334              $C$DW$T$79      .dwtag  DW_TAG_pointer_type
    2335                      .dwattr $C$DW$T$79, DW_AT_type(*$C$DW$T$149)
    2336                      .dwattr $C$DW$T$79, DW_AT_address_class(0x16)
    2337              $C$DW$T$80      .dwtag  DW_TAG_typedef, DW_AT_name("OSC_Handle")
    2338                      .dwattr $C$DW$T$80, DW_AT_type(*$C$DW$T$79)
    2339                      .dwattr $C$DW$T$80, DW_AT_language(DW_LANG_C)
    2340              
    2341              $C$DW$T$150     .dwtag  DW_TAG_structure_type
    2342                      .dwattr $C$DW$T$150, DW_AT_name("_PCA955x_Obj_")
    2343                      .dwattr $C$DW$T$150, DW_AT_byte_size(0x04)
    2344              $C$DW$357       .dwtag  DW_TAG_member
    2345                      .dwattr $C$DW$357, DW_AT_type(*$C$DW$T$94)
    2346                      .dwattr $C$DW$357, DW_AT_name("i2cHandle")
    2347                      .dwattr $C$DW$357, DW_AT_TI_symbol_name("_i2cHandle")
    2348                      .dwattr $C$DW$357, DW_AT_data_member_location[DW_OP_plus_uconst 0x0]
    2349                      .dwattr $C$DW$357, DW_AT_accessibility(DW_ACCESS_public)
    2350              $C$DW$358       .dwtag  DW_TAG_member
    2351                      .dwattr $C$DW$358, DW_AT_type(*$C$DW$T$42)
    2352                      .dwattr $C$DW$358, DW_AT_name("RxTimeOut")
    2353                      .dwattr $C$DW$358, DW_AT_TI_symbol_name("_RxTimeOut")
    2354                      .dwattr $C$DW$358, DW_AT_data_member_location[DW_OP_plus_uconst 0x2]
    2355                      .dwattr $C$DW$358, DW_AT_accessibility(DW_ACCESS_public)
    2356              $C$DW$359       .dwtag  DW_TAG_member
TMS320C2000 Assembler PC v6.2.5 Tue Aug 29 10:13:49 2017

Tools Copyright (c) 1996-2014 Texas Instruments Incorporated
C:\Users\wmj\AppData\Local\Temp\0884811                              PAGE   44

    2357                      .dwattr $C$DW$359, DW_AT_type(*$C$DW$T$42)
    2358                      .dwattr $C$DW$359, DW_AT_name("TxTimeOut")
    2359                      .dwattr $C$DW$359, DW_AT_TI_symbol_name("_TxTimeOut")
    2360                      .dwattr $C$DW$359, DW_AT_data_member_location[DW_OP_plus_uconst 0x3]
    2361                      .dwattr $C$DW$359, DW_AT_accessibility(DW_ACCESS_public)
    2362                      .dwendtag $C$DW$T$150
    2363              
    2364              $C$DW$T$169     .dwtag  DW_TAG_typedef, DW_AT_name("PCA955x_Obj")
    2365                      .dwattr $C$DW$T$169, DW_AT_type(*$C$DW$T$150)
    2366                      .dwattr $C$DW$T$169, DW_AT_language(DW_LANG_C)
    2367              $C$DW$T$167     .dwtag  DW_TAG_pointer_type
    2368                      .dwattr $C$DW$T$167, DW_AT_type(*$C$DW$T$150)
    2369                      .dwattr $C$DW$T$167, DW_AT_address_class(0x16)
    2370              $C$DW$T$168     .dwtag  DW_TAG_typedef, DW_AT_name("PCA955x_Handle")
    2371                      .dwattr $C$DW$T$168, DW_AT_type(*$C$DW$T$167)
    2372                      .dwattr $C$DW$T$168, DW_AT_language(DW_LANG_C)
    2373              
    2374              $C$DW$T$151     .dwtag  DW_TAG_structure_type
    2375                      .dwattr $C$DW$T$151, DW_AT_name("_PID_Obj_")
    2376                      .dwattr $C$DW$T$151, DW_AT_byte_size(0x10)
    2377              $C$DW$360       .dwtag  DW_TAG_member
    2378                      .dwattr $C$DW$360, DW_AT_type(*$C$DW$T$37)
    2379                      .dwattr $C$DW$360, DW_AT_name("Kp")
    2380                      .dwattr $C$DW$360, DW_AT_TI_symbol_name("_Kp")
    2381                      .dwattr $C$DW$360, DW_AT_data_member_location[DW_OP_plus_uconst 0x0]
    2382                      .dwattr $C$DW$360, DW_AT_accessibility(DW_ACCESS_public)
    2383              $C$DW$361       .dwtag  DW_TAG_member
    2384                      .dwattr $C$DW$361, DW_AT_type(*$C$DW$T$37)
    2385                      .dwattr $C$DW$361, DW_AT_name("Ki")
    2386                      .dwattr $C$DW$361, DW_AT_TI_symbol_name("_Ki")
    2387                      .dwattr $C$DW$361, DW_AT_data_member_location[DW_OP_plus_uconst 0x2]
    2388                      .dwattr $C$DW$361, DW_AT_accessibility(DW_ACCESS_public)
    2389              $C$DW$362       .dwtag  DW_TAG_member
    2390                      .dwattr $C$DW$362, DW_AT_type(*$C$DW$T$37)
    2391                      .dwattr $C$DW$362, DW_AT_name("Kd")
    2392                      .dwattr $C$DW$362, DW_AT_TI_symbol_name("_Kd")
    2393                      .dwattr $C$DW$362, DW_AT_data_member_location[DW_OP_plus_uconst 0x4]
    2394                      .dwattr $C$DW$362, DW_AT_accessibility(DW_ACCESS_public)
    2395              $C$DW$363       .dwtag  DW_TAG_member
    2396                      .dwattr $C$DW$363, DW_AT_type(*$C$DW$T$37)
    2397                      .dwattr $C$DW$363, DW_AT_name("Ui")
    2398                      .dwattr $C$DW$363, DW_AT_TI_symbol_name("_Ui")
    2399                      .dwattr $C$DW$363, DW_AT_data_member_location[DW_OP_plus_uconst 0x6]
    2400                      .dwattr $C$DW$363, DW_AT_accessibility(DW_ACCESS_public)
    2401              $C$DW$364       .dwtag  DW_TAG_member
    2402                      .dwattr $C$DW$364, DW_AT_type(*$C$DW$T$37)
    2403                      .dwattr $C$DW$364, DW_AT_name("refValue")
    2404                      .dwattr $C$DW$364, DW_AT_TI_symbol_name("_refValue")
    2405                      .dwattr $C$DW$364, DW_AT_data_member_location[DW_OP_plus_uconst 0x8]
    2406                      .dwattr $C$DW$364, DW_AT_accessibility(DW_ACCESS_public)
    2407              $C$DW$365       .dwtag  DW_TAG_member
    2408                      .dwattr $C$DW$365, DW_AT_type(*$C$DW$T$37)
    2409                      .dwattr $C$DW$365, DW_AT_name("fbackValue")
    2410                      .dwattr $C$DW$365, DW_AT_TI_symbol_name("_fbackValue")
    2411                      .dwattr $C$DW$365, DW_AT_data_member_location[DW_OP_plus_uconst 0xa]
TMS320C2000 Assembler PC v6.2.5 Tue Aug 29 10:13:49 2017

Tools Copyright (c) 1996-2014 Texas Instruments Incorporated
C:\Users\wmj\AppData\Local\Temp\0884811                              PAGE   45

    2412                      .dwattr $C$DW$365, DW_AT_accessibility(DW_ACCESS_public)
    2413              $C$DW$366       .dwtag  DW_TAG_member
    2414                      .dwattr $C$DW$366, DW_AT_type(*$C$DW$T$37)
    2415                      .dwattr $C$DW$366, DW_AT_name("outMin")
    2416                      .dwattr $C$DW$366, DW_AT_TI_symbol_name("_outMin")
    2417                      .dwattr $C$DW$366, DW_AT_data_member_location[DW_OP_plus_uconst 0xc]
    2418                      .dwattr $C$DW$366, DW_AT_accessibility(DW_ACCESS_public)
    2419              $C$DW$367       .dwtag  DW_TAG_member
    2420                      .dwattr $C$DW$367, DW_AT_type(*$C$DW$T$37)
    2421                      .dwattr $C$DW$367, DW_AT_name("outMax")
    2422                      .dwattr $C$DW$367, DW_AT_TI_symbol_name("_outMax")
    2423                      .dwattr $C$DW$367, DW_AT_data_member_location[DW_OP_plus_uconst 0xe]
    2424                      .dwattr $C$DW$367, DW_AT_accessibility(DW_ACCESS_public)
    2425                      .dwendtag $C$DW$T$151
    2426              
    2427              $C$DW$T$36      .dwtag  DW_TAG_typedef, DW_AT_name("PID_Obj")
    2428                      .dwattr $C$DW$T$36, DW_AT_type(*$C$DW$T$151)
    2429                      .dwattr $C$DW$T$36, DW_AT_language(DW_LANG_C)
    2430              $C$DW$T$34      .dwtag  DW_TAG_pointer_type
    2431                      .dwattr $C$DW$T$34, DW_AT_type(*$C$DW$T$151)
    2432                      .dwattr $C$DW$T$34, DW_AT_address_class(0x16)
    2433              $C$DW$T$35      .dwtag  DW_TAG_typedef, DW_AT_name("PID_Handle")
    2434                      .dwattr $C$DW$T$35, DW_AT_type(*$C$DW$T$34)
    2435                      .dwattr $C$DW$T$35, DW_AT_language(DW_LANG_C)
    2436              
    2437              $C$DW$T$152     .dwtag  DW_TAG_structure_type
    2438                      .dwattr $C$DW$T$152, DW_AT_name("_PIE_IERIFR_t")
    2439                      .dwattr $C$DW$T$152, DW_AT_byte_size(0x02)
    2440              $C$DW$368       .dwtag  DW_TAG_member
    2441                      .dwattr $C$DW$368, DW_AT_type(*$C$DW$T$24)
    2442                      .dwattr $C$DW$368, DW_AT_name("IER")
    2443                      .dwattr $C$DW$368, DW_AT_TI_symbol_name("_IER")
    2444                      .dwattr $C$DW$368, DW_AT_data_member_location[DW_OP_plus_uconst 0x0]
    2445                      .dwattr $C$DW$368, DW_AT_accessibility(DW_ACCESS_public)
    2446              $C$DW$369       .dwtag  DW_TAG_member
    2447                      .dwattr $C$DW$369, DW_AT_type(*$C$DW$T$24)
    2448                      .dwattr $C$DW$369, DW_AT_name("IFR")
    2449                      .dwattr $C$DW$369, DW_AT_TI_symbol_name("_IFR")
    2450                      .dwattr $C$DW$369, DW_AT_data_member_location[DW_OP_plus_uconst 0x1]
    2451                      .dwattr $C$DW$369, DW_AT_accessibility(DW_ACCESS_public)
    2452                      .dwendtag $C$DW$T$152
    2453              
    2454              $C$DW$T$153     .dwtag  DW_TAG_typedef, DW_AT_name("PIE_IERIFR_t")
    2455                      .dwattr $C$DW$T$153, DW_AT_type(*$C$DW$T$152)
    2456                      .dwattr $C$DW$T$153, DW_AT_language(DW_LANG_C)
    2457              $C$DW$370       .dwtag  DW_TAG_TI_far_type
    2458                      .dwattr $C$DW$370, DW_AT_type(*$C$DW$T$153)
    2459              $C$DW$T$154     .dwtag  DW_TAG_volatile_type
    2460                      .dwattr $C$DW$T$154, DW_AT_type(*$C$DW$370)
    2461              
    2462              $C$DW$T$155     .dwtag  DW_TAG_array_type
    2463                      .dwattr $C$DW$T$155, DW_AT_type(*$C$DW$T$154)
    2464                      .dwattr $C$DW$T$155, DW_AT_language(DW_LANG_C)
    2465                      .dwattr $C$DW$T$155, DW_AT_byte_size(0x18)
    2466              $C$DW$371       .dwtag  DW_TAG_subrange_type
TMS320C2000 Assembler PC v6.2.5 Tue Aug 29 10:13:49 2017

Tools Copyright (c) 1996-2014 Texas Instruments Incorporated
C:\Users\wmj\AppData\Local\Temp\0884811                              PAGE   46

    2467                      .dwattr $C$DW$371, DW_AT_upper_bound(0x0b)
    2468                      .dwendtag $C$DW$T$155
    2469              
    2470              
    2471              $C$DW$T$162     .dwtag  DW_TAG_structure_type
    2472                      .dwattr $C$DW$T$162, DW_AT_name("_PIE_Obj_")
    2473                      .dwattr $C$DW$T$162, DW_AT_byte_size(0x639c)
    2474              $C$DW$372       .dwtag  DW_TAG_member
    2475                      .dwattr $C$DW$372, DW_AT_type(*$C$DW$T$24)
    2476                      .dwattr $C$DW$372, DW_AT_name("PIECTRL")
    2477                      .dwattr $C$DW$372, DW_AT_TI_symbol_name("_PIECTRL")
    2478                      .dwattr $C$DW$372, DW_AT_data_member_location[DW_OP_plus_uconst 0x0]
    2479                      .dwattr $C$DW$372, DW_AT_accessibility(DW_ACCESS_public)
    2480              $C$DW$373       .dwtag  DW_TAG_member
    2481                      .dwattr $C$DW$373, DW_AT_type(*$C$DW$T$24)
    2482                      .dwattr $C$DW$373, DW_AT_name("PIEACK")
    2483                      .dwattr $C$DW$373, DW_AT_TI_symbol_name("_PIEACK")
    2484                      .dwattr $C$DW$373, DW_AT_data_member_location[DW_OP_plus_uconst 0x1]
    2485                      .dwattr $C$DW$373, DW_AT_accessibility(DW_ACCESS_public)
    2486              $C$DW$374       .dwtag  DW_TAG_member
    2487                      .dwattr $C$DW$374, DW_AT_type(*$C$DW$T$155)
    2488                      .dwattr $C$DW$374, DW_AT_name("PIEIER_PIEIFR")
    2489                      .dwattr $C$DW$374, DW_AT_TI_symbol_name("_PIEIER_PIEIFR")
    2490                      .dwattr $C$DW$374, DW_AT_data_member_location[DW_OP_plus_uconst 0x2]
    2491                      .dwattr $C$DW$374, DW_AT_accessibility(DW_ACCESS_public)
    2492              $C$DW$375       .dwtag  DW_TAG_member
    2493                      .dwattr $C$DW$375, DW_AT_type(*$C$DW$T$156)
    2494                      .dwattr $C$DW$375, DW_AT_name("rsvd_1")
    2495                      .dwattr $C$DW$375, DW_AT_TI_symbol_name("_rsvd_1")
    2496                      .dwattr $C$DW$375, DW_AT_data_member_location[DW_OP_plus_uconst 0x1a]
    2497                      .dwattr $C$DW$375, DW_AT_accessibility(DW_ACCESS_public)
    2498              $C$DW$376       .dwtag  DW_TAG_member
    2499                      .dwattr $C$DW$376, DW_AT_type(*$C$DW$T$160)
    2500                      .dwattr $C$DW$376, DW_AT_name("Reset")
    2501                      .dwattr $C$DW$376, DW_AT_TI_symbol_name("_Reset")
    2502                      .dwattr $C$DW$376, DW_AT_data_member_location[DW_OP_plus_uconst 0x20]
    2503                      .dwattr $C$DW$376, DW_AT_accessibility(DW_ACCESS_public)
    2504              $C$DW$377       .dwtag  DW_TAG_member
    2505                      .dwattr $C$DW$377, DW_AT_type(*$C$DW$T$160)
    2506                      .dwattr $C$DW$377, DW_AT_name("INT1")
    2507                      .dwattr $C$DW$377, DW_AT_TI_symbol_name("_INT1")
    2508                      .dwattr $C$DW$377, DW_AT_data_member_location[DW_OP_plus_uconst 0x22]
    2509                      .dwattr $C$DW$377, DW_AT_accessibility(DW_ACCESS_public)
    2510              $C$DW$378       .dwtag  DW_TAG_member
    2511                      .dwattr $C$DW$378, DW_AT_type(*$C$DW$T$160)
    2512                      .dwattr $C$DW$378, DW_AT_name("INT2")
    2513                      .dwattr $C$DW$378, DW_AT_TI_symbol_name("_INT2")
    2514                      .dwattr $C$DW$378, DW_AT_data_member_location[DW_OP_plus_uconst 0x24]
    2515                      .dwattr $C$DW$378, DW_AT_accessibility(DW_ACCESS_public)
    2516              $C$DW$379       .dwtag  DW_TAG_member
    2517                      .dwattr $C$DW$379, DW_AT_type(*$C$DW$T$160)
    2518                      .dwattr $C$DW$379, DW_AT_name("INT3")
    2519                      .dwattr $C$DW$379, DW_AT_TI_symbol_name("_INT3")
    2520                      .dwattr $C$DW$379, DW_AT_data_member_location[DW_OP_plus_uconst 0x26]
    2521                      .dwattr $C$DW$379, DW_AT_accessibility(DW_ACCESS_public)
TMS320C2000 Assembler PC v6.2.5 Tue Aug 29 10:13:49 2017

Tools Copyright (c) 1996-2014 Texas Instruments Incorporated
C:\Users\wmj\AppData\Local\Temp\0884811                              PAGE   47

    2522              $C$DW$380       .dwtag  DW_TAG_member
    2523                      .dwattr $C$DW$380, DW_AT_type(*$C$DW$T$160)
    2524                      .dwattr $C$DW$380, DW_AT_name("INT4")
    2525                      .dwattr $C$DW$380, DW_AT_TI_symbol_name("_INT4")
    2526                      .dwattr $C$DW$380, DW_AT_data_member_location[DW_OP_plus_uconst 0x28]
    2527                      .dwattr $C$DW$380, DW_AT_accessibility(DW_ACCESS_public)
    2528              $C$DW$381       .dwtag  DW_TAG_member
    2529                      .dwattr $C$DW$381, DW_AT_type(*$C$DW$T$160)
    2530                      .dwattr $C$DW$381, DW_AT_name("INT5")
    2531                      .dwattr $C$DW$381, DW_AT_TI_symbol_name("_INT5")
    2532                      .dwattr $C$DW$381, DW_AT_data_member_location[DW_OP_plus_uconst 0x2a]
    2533                      .dwattr $C$DW$381, DW_AT_accessibility(DW_ACCESS_public)
    2534              $C$DW$382       .dwtag  DW_TAG_member
    2535                      .dwattr $C$DW$382, DW_AT_type(*$C$DW$T$160)
    2536                      .dwattr $C$DW$382, DW_AT_name("INT6")
    2537                      .dwattr $C$DW$382, DW_AT_TI_symbol_name("_INT6")
    2538                      .dwattr $C$DW$382, DW_AT_data_member_location[DW_OP_plus_uconst 0x2c]
    2539                      .dwattr $C$DW$382, DW_AT_accessibility(DW_ACCESS_public)
    2540              $C$DW$383       .dwtag  DW_TAG_member
    2541                      .dwattr $C$DW$383, DW_AT_type(*$C$DW$T$160)
    2542                      .dwattr $C$DW$383, DW_AT_name("INT7")
    2543                      .dwattr $C$DW$383, DW_AT_TI_symbol_name("_INT7")
    2544                      .dwattr $C$DW$383, DW_AT_data_member_location[DW_OP_plus_uconst 0x2e]
    2545                      .dwattr $C$DW$383, DW_AT_accessibility(DW_ACCESS_public)
    2546              $C$DW$384       .dwtag  DW_TAG_member
    2547                      .dwattr $C$DW$384, DW_AT_type(*$C$DW$T$160)
    2548                      .dwattr $C$DW$384, DW_AT_name("INT8")
    2549                      .dwattr $C$DW$384, DW_AT_TI_symbol_name("_INT8")
    2550                      .dwattr $C$DW$384, DW_AT_data_member_location[DW_OP_plus_uconst 0x30]
    2551                      .dwattr $C$DW$384, DW_AT_accessibility(DW_ACCESS_public)
    2552              $C$DW$385       .dwtag  DW_TAG_member
    2553                      .dwattr $C$DW$385, DW_AT_type(*$C$DW$T$160)
    2554                      .dwattr $C$DW$385, DW_AT_name("INT9")
    2555                      .dwattr $C$DW$385, DW_AT_TI_symbol_name("_INT9")
    2556                      .dwattr $C$DW$385, DW_AT_data_member_location[DW_OP_plus_uconst 0x32]
    2557                      .dwattr $C$DW$385, DW_AT_accessibility(DW_ACCESS_public)
    2558              $C$DW$386       .dwtag  DW_TAG_member
    2559                      .dwattr $C$DW$386, DW_AT_type(*$C$DW$T$160)
    2560                      .dwattr $C$DW$386, DW_AT_name("INT10")
    2561                      .dwattr $C$DW$386, DW_AT_TI_symbol_name("_INT10")
    2562                      .dwattr $C$DW$386, DW_AT_data_member_location[DW_OP_plus_uconst 0x34]
    2563                      .dwattr $C$DW$386, DW_AT_accessibility(DW_ACCESS_public)
    2564              $C$DW$387       .dwtag  DW_TAG_member
    2565                      .dwattr $C$DW$387, DW_AT_type(*$C$DW$T$160)
    2566                      .dwattr $C$DW$387, DW_AT_name("INT11")
    2567                      .dwattr $C$DW$387, DW_AT_TI_symbol_name("_INT11")
    2568                      .dwattr $C$DW$387, DW_AT_data_member_location[DW_OP_plus_uconst 0x36]
    2569                      .dwattr $C$DW$387, DW_AT_accessibility(DW_ACCESS_public)
    2570              $C$DW$388       .dwtag  DW_TAG_member
    2571                      .dwattr $C$DW$388, DW_AT_type(*$C$DW$T$160)
    2572                      .dwattr $C$DW$388, DW_AT_name("INT12")
    2573                      .dwattr $C$DW$388, DW_AT_TI_symbol_name("_INT12")
    2574                      .dwattr $C$DW$388, DW_AT_data_member_location[DW_OP_plus_uconst 0x38]
    2575                      .dwattr $C$DW$388, DW_AT_accessibility(DW_ACCESS_public)
    2576              $C$DW$389       .dwtag  DW_TAG_member
TMS320C2000 Assembler PC v6.2.5 Tue Aug 29 10:13:49 2017

Tools Copyright (c) 1996-2014 Texas Instruments Incorporated
C:\Users\wmj\AppData\Local\Temp\0884811                              PAGE   48

    2577                      .dwattr $C$DW$389, DW_AT_type(*$C$DW$T$160)
    2578                      .dwattr $C$DW$389, DW_AT_name("TINT1")
    2579                      .dwattr $C$DW$389, DW_AT_TI_symbol_name("_TINT1")
    2580                      .dwattr $C$DW$389, DW_AT_data_member_location[DW_OP_plus_uconst 0x3a]
    2581                      .dwattr $C$DW$389, DW_AT_accessibility(DW_ACCESS_public)
    2582              $C$DW$390       .dwtag  DW_TAG_member
    2583                      .dwattr $C$DW$390, DW_AT_type(*$C$DW$T$160)
    2584                      .dwattr $C$DW$390, DW_AT_name("TINT2")
    2585                      .dwattr $C$DW$390, DW_AT_TI_symbol_name("_TINT2")
    2586                      .dwattr $C$DW$390, DW_AT_data_member_location[DW_OP_plus_uconst 0x3c]
    2587                      .dwattr $C$DW$390, DW_AT_accessibility(DW_ACCESS_public)
    2588              $C$DW$391       .dwtag  DW_TAG_member
    2589                      .dwattr $C$DW$391, DW_AT_type(*$C$DW$T$160)
    2590                      .dwattr $C$DW$391, DW_AT_name("DATALOG")
    2591                      .dwattr $C$DW$391, DW_AT_TI_symbol_name("_DATALOG")
    2592                      .dwattr $C$DW$391, DW_AT_data_member_location[DW_OP_plus_uconst 0x3e]
    2593                      .dwattr $C$DW$391, DW_AT_accessibility(DW_ACCESS_public)
    2594              $C$DW$392       .dwtag  DW_TAG_member
    2595                      .dwattr $C$DW$392, DW_AT_type(*$C$DW$T$160)
    2596                      .dwattr $C$DW$392, DW_AT_name("RTOSINT")
    2597                      .dwattr $C$DW$392, DW_AT_TI_symbol_name("_RTOSINT")
    2598                      .dwattr $C$DW$392, DW_AT_data_member_location[DW_OP_plus_uconst 0x40]
    2599                      .dwattr $C$DW$392, DW_AT_accessibility(DW_ACCESS_public)
    2600              $C$DW$393       .dwtag  DW_TAG_member
    2601                      .dwattr $C$DW$393, DW_AT_type(*$C$DW$T$160)
    2602                      .dwattr $C$DW$393, DW_AT_name("EMUINT")
    2603                      .dwattr $C$DW$393, DW_AT_TI_symbol_name("_EMUINT")
    2604                      .dwattr $C$DW$393, DW_AT_data_member_location[DW_OP_plus_uconst 0x42]
    2605                      .dwattr $C$DW$393, DW_AT_accessibility(DW_ACCESS_public)
    2606              $C$DW$394       .dwtag  DW_TAG_member
    2607                      .dwattr $C$DW$394, DW_AT_type(*$C$DW$T$160)
    2608                      .dwattr $C$DW$394, DW_AT_name("NMI")
    2609                      .dwattr $C$DW$394, DW_AT_TI_symbol_name("_NMI")
    2610                      .dwattr $C$DW$394, DW_AT_data_member_location[DW_OP_plus_uconst 0x44]
    2611                      .dwattr $C$DW$394, DW_AT_accessibility(DW_ACCESS_public)
    2612              $C$DW$395       .dwtag  DW_TAG_member
    2613                      .dwattr $C$DW$395, DW_AT_type(*$C$DW$T$160)
    2614                      .dwattr $C$DW$395, DW_AT_name("ILLEGAL")
    2615                      .dwattr $C$DW$395, DW_AT_TI_symbol_name("_ILLEGAL")
    2616                      .dwattr $C$DW$395, DW_AT_data_member_location[DW_OP_plus_uconst 0x46]
    2617                      .dwattr $C$DW$395, DW_AT_accessibility(DW_ACCESS_public)
    2618              $C$DW$396       .dwtag  DW_TAG_member
    2619                      .dwattr $C$DW$396, DW_AT_type(*$C$DW$T$160)
    2620                      .dwattr $C$DW$396, DW_AT_name("USER1")
    2621                      .dwattr $C$DW$396, DW_AT_TI_symbol_name("_USER1")
    2622                      .dwattr $C$DW$396, DW_AT_data_member_location[DW_OP_plus_uconst 0x48]
    2623                      .dwattr $C$DW$396, DW_AT_accessibility(DW_ACCESS_public)
    2624              $C$DW$397       .dwtag  DW_TAG_member
    2625                      .dwattr $C$DW$397, DW_AT_type(*$C$DW$T$160)
    2626                      .dwattr $C$DW$397, DW_AT_name("USER2")
    2627                      .dwattr $C$DW$397, DW_AT_TI_symbol_name("_USER2")
    2628                      .dwattr $C$DW$397, DW_AT_data_member_location[DW_OP_plus_uconst 0x4a]
    2629                      .dwattr $C$DW$397, DW_AT_accessibility(DW_ACCESS_public)
    2630              $C$DW$398       .dwtag  DW_TAG_member
    2631                      .dwattr $C$DW$398, DW_AT_type(*$C$DW$T$160)
TMS320C2000 Assembler PC v6.2.5 Tue Aug 29 10:13:49 2017

Tools Copyright (c) 1996-2014 Texas Instruments Incorporated
C:\Users\wmj\AppData\Local\Temp\0884811                              PAGE   49

    2632                      .dwattr $C$DW$398, DW_AT_name("USER3")
    2633                      .dwattr $C$DW$398, DW_AT_TI_symbol_name("_USER3")
    2634                      .dwattr $C$DW$398, DW_AT_data_member_location[DW_OP_plus_uconst 0x4c]
    2635                      .dwattr $C$DW$398, DW_AT_accessibility(DW_ACCESS_public)
    2636              $C$DW$399       .dwtag  DW_TAG_member
    2637                      .dwattr $C$DW$399, DW_AT_type(*$C$DW$T$160)
    2638                      .dwattr $C$DW$399, DW_AT_name("USER4")
    2639                      .dwattr $C$DW$399, DW_AT_TI_symbol_name("_USER4")
    2640                      .dwattr $C$DW$399, DW_AT_data_member_location[DW_OP_plus_uconst 0x4e]
    2641                      .dwattr $C$DW$399, DW_AT_accessibility(DW_ACCESS_public)
    2642              $C$DW$400       .dwtag  DW_TAG_member
    2643                      .dwattr $C$DW$400, DW_AT_type(*$C$DW$T$160)
    2644                      .dwattr $C$DW$400, DW_AT_name("USER5")
    2645                      .dwattr $C$DW$400, DW_AT_TI_symbol_name("_USER5")
    2646                      .dwattr $C$DW$400, DW_AT_data_member_location[DW_OP_plus_uconst 0x50]
    2647                      .dwattr $C$DW$400, DW_AT_accessibility(DW_ACCESS_public)
    2648              $C$DW$401       .dwtag  DW_TAG_member
    2649                      .dwattr $C$DW$401, DW_AT_type(*$C$DW$T$160)
    2650                      .dwattr $C$DW$401, DW_AT_name("USER6")
    2651                      .dwattr $C$DW$401, DW_AT_TI_symbol_name("_USER6")
    2652                      .dwattr $C$DW$401, DW_AT_data_member_location[DW_OP_plus_uconst 0x52]
    2653                      .dwattr $C$DW$401, DW_AT_accessibility(DW_ACCESS_public)
    2654              $C$DW$402       .dwtag  DW_TAG_member
    2655                      .dwattr $C$DW$402, DW_AT_type(*$C$DW$T$160)
    2656                      .dwattr $C$DW$402, DW_AT_name("USER7")
    2657                      .dwattr $C$DW$402, DW_AT_TI_symbol_name("_USER7")
    2658                      .dwattr $C$DW$402, DW_AT_data_member_location[DW_OP_plus_uconst 0x54]
    2659                      .dwattr $C$DW$402, DW_AT_accessibility(DW_ACCESS_public)
    2660              $C$DW$403       .dwtag  DW_TAG_member
    2661                      .dwattr $C$DW$403, DW_AT_type(*$C$DW$T$160)
    2662                      .dwattr $C$DW$403, DW_AT_name("USER8")
    2663                      .dwattr $C$DW$403, DW_AT_TI_symbol_name("_USER8")
    2664                      .dwattr $C$DW$403, DW_AT_data_member_location[DW_OP_plus_uconst 0x56]
    2665                      .dwattr $C$DW$403, DW_AT_accessibility(DW_ACCESS_public)
    2666              $C$DW$404       .dwtag  DW_TAG_member
    2667                      .dwattr $C$DW$404, DW_AT_type(*$C$DW$T$160)
    2668                      .dwattr $C$DW$404, DW_AT_name("USER9")
    2669                      .dwattr $C$DW$404, DW_AT_TI_symbol_name("_USER9")
    2670                      .dwattr $C$DW$404, DW_AT_data_member_location[DW_OP_plus_uconst 0x58]
    2671                      .dwattr $C$DW$404, DW_AT_accessibility(DW_ACCESS_public)
    2672              $C$DW$405       .dwtag  DW_TAG_member
    2673                      .dwattr $C$DW$405, DW_AT_type(*$C$DW$T$160)
    2674                      .dwattr $C$DW$405, DW_AT_name("USER10")
    2675                      .dwattr $C$DW$405, DW_AT_TI_symbol_name("_USER10")
    2676                      .dwattr $C$DW$405, DW_AT_data_member_location[DW_OP_plus_uconst 0x5a]
    2677                      .dwattr $C$DW$405, DW_AT_accessibility(DW_ACCESS_public)
    2678              $C$DW$406       .dwtag  DW_TAG_member
    2679                      .dwattr $C$DW$406, DW_AT_type(*$C$DW$T$160)
    2680                      .dwattr $C$DW$406, DW_AT_name("USER11")
    2681                      .dwattr $C$DW$406, DW_AT_TI_symbol_name("_USER11")
    2682                      .dwattr $C$DW$406, DW_AT_data_member_location[DW_OP_plus_uconst 0x5c]
    2683                      .dwattr $C$DW$406, DW_AT_accessibility(DW_ACCESS_public)
    2684              $C$DW$407       .dwtag  DW_TAG_member
    2685                      .dwattr $C$DW$407, DW_AT_type(*$C$DW$T$160)
    2686                      .dwattr $C$DW$407, DW_AT_name("USER12")
TMS320C2000 Assembler PC v6.2.5 Tue Aug 29 10:13:49 2017

Tools Copyright (c) 1996-2014 Texas Instruments Incorporated
C:\Users\wmj\AppData\Local\Temp\0884811                              PAGE   50

    2687                      .dwattr $C$DW$407, DW_AT_TI_symbol_name("_USER12")
    2688                      .dwattr $C$DW$407, DW_AT_data_member_location[DW_OP_plus_uconst 0x5e]
    2689                      .dwattr $C$DW$407, DW_AT_accessibility(DW_ACCESS_public)
    2690              $C$DW$408       .dwtag  DW_TAG_member
    2691                      .dwattr $C$DW$408, DW_AT_type(*$C$DW$T$160)
    2692                      .dwattr $C$DW$408, DW_AT_name("ADCINT1_HP")
    2693                      .dwattr $C$DW$408, DW_AT_TI_symbol_name("_ADCINT1_HP")
    2694                      .dwattr $C$DW$408, DW_AT_data_member_location[DW_OP_plus_uconst 0x60]
    2695                      .dwattr $C$DW$408, DW_AT_accessibility(DW_ACCESS_public)
    2696              $C$DW$409       .dwtag  DW_TAG_member
    2697                      .dwattr $C$DW$409, DW_AT_type(*$C$DW$T$160)
    2698                      .dwattr $C$DW$409, DW_AT_name("ADCINT2_HP")
    2699                      .dwattr $C$DW$409, DW_AT_TI_symbol_name("_ADCINT2_HP")
    2700                      .dwattr $C$DW$409, DW_AT_data_member_location[DW_OP_plus_uconst 0x62]
    2701                      .dwattr $C$DW$409, DW_AT_accessibility(DW_ACCESS_public)
    2702              $C$DW$410       .dwtag  DW_TAG_member
    2703                      .dwattr $C$DW$410, DW_AT_type(*$C$DW$T$160)
    2704                      .dwattr $C$DW$410, DW_AT_name("rsvd1_3")
    2705                      .dwattr $C$DW$410, DW_AT_TI_symbol_name("_rsvd1_3")
    2706                      .dwattr $C$DW$410, DW_AT_data_member_location[DW_OP_plus_uconst 0x64]
    2707                      .dwattr $C$DW$410, DW_AT_accessibility(DW_ACCESS_public)
    2708              $C$DW$411       .dwtag  DW_TAG_member
    2709                      .dwattr $C$DW$411, DW_AT_type(*$C$DW$T$160)
    2710                      .dwattr $C$DW$411, DW_AT_name("XINT1")
    2711                      .dwattr $C$DW$411, DW_AT_TI_symbol_name("_XINT1")
    2712                      .dwattr $C$DW$411, DW_AT_data_member_location[DW_OP_plus_uconst 0x66]
    2713                      .dwattr $C$DW$411, DW_AT_accessibility(DW_ACCESS_public)
    2714              $C$DW$412       .dwtag  DW_TAG_member
    2715                      .dwattr $C$DW$412, DW_AT_type(*$C$DW$T$160)
    2716                      .dwattr $C$DW$412, DW_AT_name("XINT2")
    2717                      .dwattr $C$DW$412, DW_AT_TI_symbol_name("_XINT2")
    2718                      .dwattr $C$DW$412, DW_AT_data_member_location[DW_OP_plus_uconst 0x68]
    2719                      .dwattr $C$DW$412, DW_AT_accessibility(DW_ACCESS_public)
    2720              $C$DW$413       .dwtag  DW_TAG_member
    2721                      .dwattr $C$DW$413, DW_AT_type(*$C$DW$T$160)
    2722                      .dwattr $C$DW$413, DW_AT_name("ADCINT9")
    2723                      .dwattr $C$DW$413, DW_AT_TI_symbol_name("_ADCINT9")
    2724                      .dwattr $C$DW$413, DW_AT_data_member_location[DW_OP_plus_uconst 0x6a]
    2725                      .dwattr $C$DW$413, DW_AT_accessibility(DW_ACCESS_public)
    2726              $C$DW$414       .dwtag  DW_TAG_member
    2727                      .dwattr $C$DW$414, DW_AT_type(*$C$DW$T$160)
    2728                      .dwattr $C$DW$414, DW_AT_name("TINT0")
    2729                      .dwattr $C$DW$414, DW_AT_TI_symbol_name("_TINT0")
    2730                      .dwattr $C$DW$414, DW_AT_data_member_location[DW_OP_plus_uconst 0x6c]
    2731                      .dwattr $C$DW$414, DW_AT_accessibility(DW_ACCESS_public)
    2732              $C$DW$415       .dwtag  DW_TAG_member
    2733                      .dwattr $C$DW$415, DW_AT_type(*$C$DW$T$160)
    2734                      .dwattr $C$DW$415, DW_AT_name("WAKEINT")
    2735                      .dwattr $C$DW$415, DW_AT_TI_symbol_name("_WAKEINT")
    2736                      .dwattr $C$DW$415, DW_AT_data_member_location[DW_OP_plus_uconst 0x6e]
    2737                      .dwattr $C$DW$415, DW_AT_accessibility(DW_ACCESS_public)
    2738              $C$DW$416       .dwtag  DW_TAG_member
    2739                      .dwattr $C$DW$416, DW_AT_type(*$C$DW$T$160)
    2740                      .dwattr $C$DW$416, DW_AT_name("EPWM1_TZINT")
    2741                      .dwattr $C$DW$416, DW_AT_TI_symbol_name("_EPWM1_TZINT")
TMS320C2000 Assembler PC v6.2.5 Tue Aug 29 10:13:49 2017

Tools Copyright (c) 1996-2014 Texas Instruments Incorporated
C:\Users\wmj\AppData\Local\Temp\0884811                              PAGE   51

    2742                      .dwattr $C$DW$416, DW_AT_data_member_location[DW_OP_plus_uconst 0x70]
    2743                      .dwattr $C$DW$416, DW_AT_accessibility(DW_ACCESS_public)
    2744              $C$DW$417       .dwtag  DW_TAG_member
    2745                      .dwattr $C$DW$417, DW_AT_type(*$C$DW$T$160)
    2746                      .dwattr $C$DW$417, DW_AT_name("EPWM2_TZINT")
    2747                      .dwattr $C$DW$417, DW_AT_TI_symbol_name("_EPWM2_TZINT")
    2748                      .dwattr $C$DW$417, DW_AT_data_member_location[DW_OP_plus_uconst 0x72]
    2749                      .dwattr $C$DW$417, DW_AT_accessibility(DW_ACCESS_public)
    2750              $C$DW$418       .dwtag  DW_TAG_member
    2751                      .dwattr $C$DW$418, DW_AT_type(*$C$DW$T$160)
    2752                      .dwattr $C$DW$418, DW_AT_name("EPWM3_TZINT")
    2753                      .dwattr $C$DW$418, DW_AT_TI_symbol_name("_EPWM3_TZINT")
    2754                      .dwattr $C$DW$418, DW_AT_data_member_location[DW_OP_plus_uconst 0x74]
    2755                      .dwattr $C$DW$418, DW_AT_accessibility(DW_ACCESS_public)
    2756              $C$DW$419       .dwtag  DW_TAG_member
    2757                      .dwattr $C$DW$419, DW_AT_type(*$C$DW$T$160)
    2758                      .dwattr $C$DW$419, DW_AT_name("EPWM4_TZINT")
    2759                      .dwattr $C$DW$419, DW_AT_TI_symbol_name("_EPWM4_TZINT")
    2760                      .dwattr $C$DW$419, DW_AT_data_member_location[DW_OP_plus_uconst 0x76]
    2761                      .dwattr $C$DW$419, DW_AT_accessibility(DW_ACCESS_public)
    2762              $C$DW$420       .dwtag  DW_TAG_member
    2763                      .dwattr $C$DW$420, DW_AT_type(*$C$DW$T$160)
    2764                      .dwattr $C$DW$420, DW_AT_name("rsvd2_5")
    2765                      .dwattr $C$DW$420, DW_AT_TI_symbol_name("_rsvd2_5")
    2766                      .dwattr $C$DW$420, DW_AT_data_member_location[DW_OP_plus_uconst 0x78]
    2767                      .dwattr $C$DW$420, DW_AT_accessibility(DW_ACCESS_public)
    2768              $C$DW$421       .dwtag  DW_TAG_member
    2769                      .dwattr $C$DW$421, DW_AT_type(*$C$DW$T$160)
    2770                      .dwattr $C$DW$421, DW_AT_name("rsvd2_6")
    2771                      .dwattr $C$DW$421, DW_AT_TI_symbol_name("_rsvd2_6")
    2772                      .dwattr $C$DW$421, DW_AT_data_member_location[DW_OP_plus_uconst 0x7a]
    2773                      .dwattr $C$DW$421, DW_AT_accessibility(DW_ACCESS_public)
    2774              $C$DW$422       .dwtag  DW_TAG_member
    2775                      .dwattr $C$DW$422, DW_AT_type(*$C$DW$T$160)
    2776                      .dwattr $C$DW$422, DW_AT_name("rsvd2_7")
    2777                      .dwattr $C$DW$422, DW_AT_TI_symbol_name("_rsvd2_7")
    2778                      .dwattr $C$DW$422, DW_AT_data_member_location[DW_OP_plus_uconst 0x7c]
    2779                      .dwattr $C$DW$422, DW_AT_accessibility(DW_ACCESS_public)
    2780              $C$DW$423       .dwtag  DW_TAG_member
    2781                      .dwattr $C$DW$423, DW_AT_type(*$C$DW$T$160)
    2782                      .dwattr $C$DW$423, DW_AT_name("rsvd2_8")
    2783                      .dwattr $C$DW$423, DW_AT_TI_symbol_name("_rsvd2_8")
    2784                      .dwattr $C$DW$423, DW_AT_data_member_location[DW_OP_plus_uconst 0x7e]
    2785                      .dwattr $C$DW$423, DW_AT_accessibility(DW_ACCESS_public)
    2786              $C$DW$424       .dwtag  DW_TAG_member
    2787                      .dwattr $C$DW$424, DW_AT_type(*$C$DW$T$160)
    2788                      .dwattr $C$DW$424, DW_AT_name("EPWM1_INT")
    2789                      .dwattr $C$DW$424, DW_AT_TI_symbol_name("_EPWM1_INT")
    2790                      .dwattr $C$DW$424, DW_AT_data_member_location[DW_OP_plus_uconst 0x80]
    2791                      .dwattr $C$DW$424, DW_AT_accessibility(DW_ACCESS_public)
    2792              $C$DW$425       .dwtag  DW_TAG_member
    2793                      .dwattr $C$DW$425, DW_AT_type(*$C$DW$T$160)
    2794                      .dwattr $C$DW$425, DW_AT_name("EPWM2_INT")
    2795                      .dwattr $C$DW$425, DW_AT_TI_symbol_name("_EPWM2_INT")
    2796                      .dwattr $C$DW$425, DW_AT_data_member_location[DW_OP_plus_uconst 0x82]
TMS320C2000 Assembler PC v6.2.5 Tue Aug 29 10:13:49 2017

Tools Copyright (c) 1996-2014 Texas Instruments Incorporated
C:\Users\wmj\AppData\Local\Temp\0884811                              PAGE   52

    2797                      .dwattr $C$DW$425, DW_AT_accessibility(DW_ACCESS_public)
    2798              $C$DW$426       .dwtag  DW_TAG_member
    2799                      .dwattr $C$DW$426, DW_AT_type(*$C$DW$T$160)
    2800                      .dwattr $C$DW$426, DW_AT_name("EPWM3_INT")
    2801                      .dwattr $C$DW$426, DW_AT_TI_symbol_name("_EPWM3_INT")
    2802                      .dwattr $C$DW$426, DW_AT_data_member_location[DW_OP_plus_uconst 0x84]
    2803                      .dwattr $C$DW$426, DW_AT_accessibility(DW_ACCESS_public)
    2804              $C$DW$427       .dwtag  DW_TAG_member
    2805                      .dwattr $C$DW$427, DW_AT_type(*$C$DW$T$160)
    2806                      .dwattr $C$DW$427, DW_AT_name("EPWM4_INT")
    2807                      .dwattr $C$DW$427, DW_AT_TI_symbol_name("_EPWM4_INT")
    2808                      .dwattr $C$DW$427, DW_AT_data_member_location[DW_OP_plus_uconst 0x86]
    2809                      .dwattr $C$DW$427, DW_AT_accessibility(DW_ACCESS_public)
    2810              $C$DW$428       .dwtag  DW_TAG_member
    2811                      .dwattr $C$DW$428, DW_AT_type(*$C$DW$T$160)
    2812                      .dwattr $C$DW$428, DW_AT_name("rsvd3_5")
    2813                      .dwattr $C$DW$428, DW_AT_TI_symbol_name("_rsvd3_5")
    2814                      .dwattr $C$DW$428, DW_AT_data_member_location[DW_OP_plus_uconst 0x88]
    2815                      .dwattr $C$DW$428, DW_AT_accessibility(DW_ACCESS_public)
    2816              $C$DW$429       .dwtag  DW_TAG_member
    2817                      .dwattr $C$DW$429, DW_AT_type(*$C$DW$T$160)
    2818                      .dwattr $C$DW$429, DW_AT_name("rsvd3_6")
    2819                      .dwattr $C$DW$429, DW_AT_TI_symbol_name("_rsvd3_6")
    2820                      .dwattr $C$DW$429, DW_AT_data_member_location[DW_OP_plus_uconst 0x8a]
    2821                      .dwattr $C$DW$429, DW_AT_accessibility(DW_ACCESS_public)
    2822              $C$DW$430       .dwtag  DW_TAG_member
    2823                      .dwattr $C$DW$430, DW_AT_type(*$C$DW$T$160)
    2824                      .dwattr $C$DW$430, DW_AT_name("rsvd3_7")
    2825                      .dwattr $C$DW$430, DW_AT_TI_symbol_name("_rsvd3_7")
    2826                      .dwattr $C$DW$430, DW_AT_data_member_location[DW_OP_plus_uconst 0x8c]
    2827                      .dwattr $C$DW$430, DW_AT_accessibility(DW_ACCESS_public)
    2828              $C$DW$431       .dwtag  DW_TAG_member
    2829                      .dwattr $C$DW$431, DW_AT_type(*$C$DW$T$160)
    2830                      .dwattr $C$DW$431, DW_AT_name("rsvd3_8")
    2831                      .dwattr $C$DW$431, DW_AT_TI_symbol_name("_rsvd3_8")
    2832                      .dwattr $C$DW$431, DW_AT_data_member_location[DW_OP_plus_uconst 0x8e]
    2833                      .dwattr $C$DW$431, DW_AT_accessibility(DW_ACCESS_public)
    2834              $C$DW$432       .dwtag  DW_TAG_member
    2835                      .dwattr $C$DW$432, DW_AT_type(*$C$DW$T$160)
    2836                      .dwattr $C$DW$432, DW_AT_name("ECAP1_INT")
    2837                      .dwattr $C$DW$432, DW_AT_TI_symbol_name("_ECAP1_INT")
    2838                      .dwattr $C$DW$432, DW_AT_data_member_location[DW_OP_plus_uconst 0x90]
    2839                      .dwattr $C$DW$432, DW_AT_accessibility(DW_ACCESS_public)
    2840              $C$DW$433       .dwtag  DW_TAG_member
    2841                      .dwattr $C$DW$433, DW_AT_type(*$C$DW$T$160)
    2842                      .dwattr $C$DW$433, DW_AT_name("rsvd4_2")
    2843                      .dwattr $C$DW$433, DW_AT_TI_symbol_name("_rsvd4_2")
    2844                      .dwattr $C$DW$433, DW_AT_data_member_location[DW_OP_plus_uconst 0x92]
    2845                      .dwattr $C$DW$433, DW_AT_accessibility(DW_ACCESS_public)
    2846              $C$DW$434       .dwtag  DW_TAG_member
    2847                      .dwattr $C$DW$434, DW_AT_type(*$C$DW$T$160)
    2848                      .dwattr $C$DW$434, DW_AT_name("rsvd4_3")
    2849                      .dwattr $C$DW$434, DW_AT_TI_symbol_name("_rsvd4_3")
    2850                      .dwattr $C$DW$434, DW_AT_data_member_location[DW_OP_plus_uconst 0x94]
    2851                      .dwattr $C$DW$434, DW_AT_accessibility(DW_ACCESS_public)
TMS320C2000 Assembler PC v6.2.5 Tue Aug 29 10:13:49 2017

Tools Copyright (c) 1996-2014 Texas Instruments Incorporated
C:\Users\wmj\AppData\Local\Temp\0884811                              PAGE   53

    2852              $C$DW$435       .dwtag  DW_TAG_member
    2853                      .dwattr $C$DW$435, DW_AT_type(*$C$DW$T$160)
    2854                      .dwattr $C$DW$435, DW_AT_name("rsvd4_4")
    2855                      .dwattr $C$DW$435, DW_AT_TI_symbol_name("_rsvd4_4")
    2856                      .dwattr $C$DW$435, DW_AT_data_member_location[DW_OP_plus_uconst 0x96]
    2857                      .dwattr $C$DW$435, DW_AT_accessibility(DW_ACCESS_public)
    2858              $C$DW$436       .dwtag  DW_TAG_member
    2859                      .dwattr $C$DW$436, DW_AT_type(*$C$DW$T$160)
    2860                      .dwattr $C$DW$436, DW_AT_name("rsvd4_5")
    2861                      .dwattr $C$DW$436, DW_AT_TI_symbol_name("_rsvd4_5")
    2862                      .dwattr $C$DW$436, DW_AT_data_member_location[DW_OP_plus_uconst 0x98]
    2863                      .dwattr $C$DW$436, DW_AT_accessibility(DW_ACCESS_public)
    2864              $C$DW$437       .dwtag  DW_TAG_member
    2865                      .dwattr $C$DW$437, DW_AT_type(*$C$DW$T$160)
    2866                      .dwattr $C$DW$437, DW_AT_name("rsvd4_6")
    2867                      .dwattr $C$DW$437, DW_AT_TI_symbol_name("_rsvd4_6")
    2868                      .dwattr $C$DW$437, DW_AT_data_member_location[DW_OP_plus_uconst 0x9a]
    2869                      .dwattr $C$DW$437, DW_AT_accessibility(DW_ACCESS_public)
    2870              $C$DW$438       .dwtag  DW_TAG_member
    2871                      .dwattr $C$DW$438, DW_AT_type(*$C$DW$T$160)
    2872                      .dwattr $C$DW$438, DW_AT_name("rsvd4_7")
    2873                      .dwattr $C$DW$438, DW_AT_TI_symbol_name("_rsvd4_7")
    2874                      .dwattr $C$DW$438, DW_AT_data_member_location[DW_OP_plus_uconst 0x9c]
    2875                      .dwattr $C$DW$438, DW_AT_accessibility(DW_ACCESS_public)
    2876              $C$DW$439       .dwtag  DW_TAG_member
    2877                      .dwattr $C$DW$439, DW_AT_type(*$C$DW$T$160)
    2878                      .dwattr $C$DW$439, DW_AT_name("rsvd4_8")
    2879                      .dwattr $C$DW$439, DW_AT_TI_symbol_name("_rsvd4_8")
    2880                      .dwattr $C$DW$439, DW_AT_data_member_location[DW_OP_plus_uconst 0x9e]
    2881                      .dwattr $C$DW$439, DW_AT_accessibility(DW_ACCESS_public)
    2882              $C$DW$440       .dwtag  DW_TAG_member
    2883                      .dwattr $C$DW$440, DW_AT_type(*$C$DW$T$160)
    2884                      .dwattr $C$DW$440, DW_AT_name("rsvd5_1")
    2885                      .dwattr $C$DW$440, DW_AT_TI_symbol_name("_rsvd5_1")
    2886                      .dwattr $C$DW$440, DW_AT_data_member_location[DW_OP_plus_uconst 0xa0]
    2887                      .dwattr $C$DW$440, DW_AT_accessibility(DW_ACCESS_public)
    2888              $C$DW$441       .dwtag  DW_TAG_member
    2889                      .dwattr $C$DW$441, DW_AT_type(*$C$DW$T$160)
    2890                      .dwattr $C$DW$441, DW_AT_name("rsvd5_2")
    2891                      .dwattr $C$DW$441, DW_AT_TI_symbol_name("_rsvd5_2")
    2892                      .dwattr $C$DW$441, DW_AT_data_member_location[DW_OP_plus_uconst 0xa2]
    2893                      .dwattr $C$DW$441, DW_AT_accessibility(DW_ACCESS_public)
    2894              $C$DW$442       .dwtag  DW_TAG_member
    2895                      .dwattr $C$DW$442, DW_AT_type(*$C$DW$T$160)
    2896                      .dwattr $C$DW$442, DW_AT_name("rsvd5_3")
    2897                      .dwattr $C$DW$442, DW_AT_TI_symbol_name("_rsvd5_3")
    2898                      .dwattr $C$DW$442, DW_AT_data_member_location[DW_OP_plus_uconst 0xa4]
    2899                      .dwattr $C$DW$442, DW_AT_accessibility(DW_ACCESS_public)
    2900              $C$DW$443       .dwtag  DW_TAG_member
    2901                      .dwattr $C$DW$443, DW_AT_type(*$C$DW$T$160)
    2902                      .dwattr $C$DW$443, DW_AT_name("rsvd5_4")
    2903                      .dwattr $C$DW$443, DW_AT_TI_symbol_name("_rsvd5_4")
    2904                      .dwattr $C$DW$443, DW_AT_data_member_location[DW_OP_plus_uconst 0xa6]
    2905                      .dwattr $C$DW$443, DW_AT_accessibility(DW_ACCESS_public)
    2906              $C$DW$444       .dwtag  DW_TAG_member
TMS320C2000 Assembler PC v6.2.5 Tue Aug 29 10:13:49 2017

Tools Copyright (c) 1996-2014 Texas Instruments Incorporated
C:\Users\wmj\AppData\Local\Temp\0884811                              PAGE   54

    2907                      .dwattr $C$DW$444, DW_AT_type(*$C$DW$T$160)
    2908                      .dwattr $C$DW$444, DW_AT_name("rsvd5_5")
    2909                      .dwattr $C$DW$444, DW_AT_TI_symbol_name("_rsvd5_5")
    2910                      .dwattr $C$DW$444, DW_AT_data_member_location[DW_OP_plus_uconst 0xa8]
    2911                      .dwattr $C$DW$444, DW_AT_accessibility(DW_ACCESS_public)
    2912              $C$DW$445       .dwtag  DW_TAG_member
    2913                      .dwattr $C$DW$445, DW_AT_type(*$C$DW$T$160)
    2914                      .dwattr $C$DW$445, DW_AT_name("rsvd5_6")
    2915                      .dwattr $C$DW$445, DW_AT_TI_symbol_name("_rsvd5_6")
    2916                      .dwattr $C$DW$445, DW_AT_data_member_location[DW_OP_plus_uconst 0xaa]
    2917                      .dwattr $C$DW$445, DW_AT_accessibility(DW_ACCESS_public)
    2918              $C$DW$446       .dwtag  DW_TAG_member
    2919                      .dwattr $C$DW$446, DW_AT_type(*$C$DW$T$160)
    2920                      .dwattr $C$DW$446, DW_AT_name("rsvd5_7")
    2921                      .dwattr $C$DW$446, DW_AT_TI_symbol_name("_rsvd5_7")
    2922                      .dwattr $C$DW$446, DW_AT_data_member_location[DW_OP_plus_uconst 0xac]
    2923                      .dwattr $C$DW$446, DW_AT_accessibility(DW_ACCESS_public)
    2924              $C$DW$447       .dwtag  DW_TAG_member
    2925                      .dwattr $C$DW$447, DW_AT_type(*$C$DW$T$160)
    2926                      .dwattr $C$DW$447, DW_AT_name("rsvd5_8")
    2927                      .dwattr $C$DW$447, DW_AT_TI_symbol_name("_rsvd5_8")
    2928                      .dwattr $C$DW$447, DW_AT_data_member_location[DW_OP_plus_uconst 0xae]
    2929                      .dwattr $C$DW$447, DW_AT_accessibility(DW_ACCESS_public)
    2930              $C$DW$448       .dwtag  DW_TAG_member
    2931                      .dwattr $C$DW$448, DW_AT_type(*$C$DW$T$160)
    2932                      .dwattr $C$DW$448, DW_AT_name("SPIRXINTA")
    2933                      .dwattr $C$DW$448, DW_AT_TI_symbol_name("_SPIRXINTA")
    2934                      .dwattr $C$DW$448, DW_AT_data_member_location[DW_OP_plus_uconst 0xb0]
    2935                      .dwattr $C$DW$448, DW_AT_accessibility(DW_ACCESS_public)
    2936              $C$DW$449       .dwtag  DW_TAG_member
    2937                      .dwattr $C$DW$449, DW_AT_type(*$C$DW$T$160)
    2938                      .dwattr $C$DW$449, DW_AT_name("SPITXINTA")
    2939                      .dwattr $C$DW$449, DW_AT_TI_symbol_name("_SPITXINTA")
    2940                      .dwattr $C$DW$449, DW_AT_data_member_location[DW_OP_plus_uconst 0xb2]
    2941                      .dwattr $C$DW$449, DW_AT_accessibility(DW_ACCESS_public)
    2942              $C$DW$450       .dwtag  DW_TAG_member
    2943                      .dwattr $C$DW$450, DW_AT_type(*$C$DW$T$160)
    2944                      .dwattr $C$DW$450, DW_AT_name("rsvd6_3")
    2945                      .dwattr $C$DW$450, DW_AT_TI_symbol_name("_rsvd6_3")
    2946                      .dwattr $C$DW$450, DW_AT_data_member_location[DW_OP_plus_uconst 0xb4]
    2947                      .dwattr $C$DW$450, DW_AT_accessibility(DW_ACCESS_public)
    2948              $C$DW$451       .dwtag  DW_TAG_member
    2949                      .dwattr $C$DW$451, DW_AT_type(*$C$DW$T$160)
    2950                      .dwattr $C$DW$451, DW_AT_name("rsvd6_4")
    2951                      .dwattr $C$DW$451, DW_AT_TI_symbol_name("_rsvd6_4")
    2952                      .dwattr $C$DW$451, DW_AT_data_member_location[DW_OP_plus_uconst 0xb6]
    2953                      .dwattr $C$DW$451, DW_AT_accessibility(DW_ACCESS_public)
    2954              $C$DW$452       .dwtag  DW_TAG_member
    2955                      .dwattr $C$DW$452, DW_AT_type(*$C$DW$T$160)
    2956                      .dwattr $C$DW$452, DW_AT_name("rsvd6_5")
    2957                      .dwattr $C$DW$452, DW_AT_TI_symbol_name("_rsvd6_5")
    2958                      .dwattr $C$DW$452, DW_AT_data_member_location[DW_OP_plus_uconst 0xb8]
    2959                      .dwattr $C$DW$452, DW_AT_accessibility(DW_ACCESS_public)
    2960              $C$DW$453       .dwtag  DW_TAG_member
    2961                      .dwattr $C$DW$453, DW_AT_type(*$C$DW$T$160)
TMS320C2000 Assembler PC v6.2.5 Tue Aug 29 10:13:49 2017

Tools Copyright (c) 1996-2014 Texas Instruments Incorporated
C:\Users\wmj\AppData\Local\Temp\0884811                              PAGE   55

    2962                      .dwattr $C$DW$453, DW_AT_name("rsvd6_6")
    2963                      .dwattr $C$DW$453, DW_AT_TI_symbol_name("_rsvd6_6")
    2964                      .dwattr $C$DW$453, DW_AT_data_member_location[DW_OP_plus_uconst 0xba]
    2965                      .dwattr $C$DW$453, DW_AT_accessibility(DW_ACCESS_public)
    2966              $C$DW$454       .dwtag  DW_TAG_member
    2967                      .dwattr $C$DW$454, DW_AT_type(*$C$DW$T$160)
    2968                      .dwattr $C$DW$454, DW_AT_name("rsvd6_7")
    2969                      .dwattr $C$DW$454, DW_AT_TI_symbol_name("_rsvd6_7")
    2970                      .dwattr $C$DW$454, DW_AT_data_member_location[DW_OP_plus_uconst 0xbc]
    2971                      .dwattr $C$DW$454, DW_AT_accessibility(DW_ACCESS_public)
    2972              $C$DW$455       .dwtag  DW_TAG_member
    2973                      .dwattr $C$DW$455, DW_AT_type(*$C$DW$T$160)
    2974                      .dwattr $C$DW$455, DW_AT_name("rsvd6_8")
    2975                      .dwattr $C$DW$455, DW_AT_TI_symbol_name("_rsvd6_8")
    2976                      .dwattr $C$DW$455, DW_AT_data_member_location[DW_OP_plus_uconst 0xbe]
    2977                      .dwattr $C$DW$455, DW_AT_accessibility(DW_ACCESS_public)
    2978              $C$DW$456       .dwtag  DW_TAG_member
    2979                      .dwattr $C$DW$456, DW_AT_type(*$C$DW$T$160)
    2980                      .dwattr $C$DW$456, DW_AT_name("rsvd7_1")
    2981                      .dwattr $C$DW$456, DW_AT_TI_symbol_name("_rsvd7_1")
    2982                      .dwattr $C$DW$456, DW_AT_data_member_location[DW_OP_plus_uconst 0xc0]
    2983                      .dwattr $C$DW$456, DW_AT_accessibility(DW_ACCESS_public)
    2984              $C$DW$457       .dwtag  DW_TAG_member
    2985                      .dwattr $C$DW$457, DW_AT_type(*$C$DW$T$160)
    2986                      .dwattr $C$DW$457, DW_AT_name("rsvd7_2")
    2987                      .dwattr $C$DW$457, DW_AT_TI_symbol_name("_rsvd7_2")
    2988                      .dwattr $C$DW$457, DW_AT_data_member_location[DW_OP_plus_uconst 0xc2]
    2989                      .dwattr $C$DW$457, DW_AT_accessibility(DW_ACCESS_public)
    2990              $C$DW$458       .dwtag  DW_TAG_member
    2991                      .dwattr $C$DW$458, DW_AT_type(*$C$DW$T$160)
    2992                      .dwattr $C$DW$458, DW_AT_name("rsvd7_3")
    2993                      .dwattr $C$DW$458, DW_AT_TI_symbol_name("_rsvd7_3")
    2994                      .dwattr $C$DW$458, DW_AT_data_member_location[DW_OP_plus_uconst 0xc4]
    2995                      .dwattr $C$DW$458, DW_AT_accessibility(DW_ACCESS_public)
    2996              $C$DW$459       .dwtag  DW_TAG_member
    2997                      .dwattr $C$DW$459, DW_AT_type(*$C$DW$T$160)
    2998                      .dwattr $C$DW$459, DW_AT_name("rsvd7_4")
    2999                      .dwattr $C$DW$459, DW_AT_TI_symbol_name("_rsvd7_4")
    3000                      .dwattr $C$DW$459, DW_AT_data_member_location[DW_OP_plus_uconst 0xc6]
    3001                      .dwattr $C$DW$459, DW_AT_accessibility(DW_ACCESS_public)
    3002              $C$DW$460       .dwtag  DW_TAG_member
    3003                      .dwattr $C$DW$460, DW_AT_type(*$C$DW$T$160)
    3004                      .dwattr $C$DW$460, DW_AT_name("rsvd7_5")
    3005                      .dwattr $C$DW$460, DW_AT_TI_symbol_name("_rsvd7_5")
    3006                      .dwattr $C$DW$460, DW_AT_data_member_location[DW_OP_plus_uconst 0xc8]
    3007                      .dwattr $C$DW$460, DW_AT_accessibility(DW_ACCESS_public)
    3008              $C$DW$461       .dwtag  DW_TAG_member
    3009                      .dwattr $C$DW$461, DW_AT_type(*$C$DW$T$160)
    3010                      .dwattr $C$DW$461, DW_AT_name("rsvd7_6")
    3011                      .dwattr $C$DW$461, DW_AT_TI_symbol_name("_rsvd7_6")
    3012                      .dwattr $C$DW$461, DW_AT_data_member_location[DW_OP_plus_uconst 0xca]
    3013                      .dwattr $C$DW$461, DW_AT_accessibility(DW_ACCESS_public)
    3014              $C$DW$462       .dwtag  DW_TAG_member
    3015                      .dwattr $C$DW$462, DW_AT_type(*$C$DW$T$160)
    3016                      .dwattr $C$DW$462, DW_AT_name("rsvd7_7")
TMS320C2000 Assembler PC v6.2.5 Tue Aug 29 10:13:49 2017

Tools Copyright (c) 1996-2014 Texas Instruments Incorporated
C:\Users\wmj\AppData\Local\Temp\0884811                              PAGE   56

    3017                      .dwattr $C$DW$462, DW_AT_TI_symbol_name("_rsvd7_7")
    3018                      .dwattr $C$DW$462, DW_AT_data_member_location[DW_OP_plus_uconst 0xcc]
    3019                      .dwattr $C$DW$462, DW_AT_accessibility(DW_ACCESS_public)
    3020              $C$DW$463       .dwtag  DW_TAG_member
    3021                      .dwattr $C$DW$463, DW_AT_type(*$C$DW$T$160)
    3022                      .dwattr $C$DW$463, DW_AT_name("rsvd7_8")
    3023                      .dwattr $C$DW$463, DW_AT_TI_symbol_name("_rsvd7_8")
    3024                      .dwattr $C$DW$463, DW_AT_data_member_location[DW_OP_plus_uconst 0xce]
    3025                      .dwattr $C$DW$463, DW_AT_accessibility(DW_ACCESS_public)
    3026              $C$DW$464       .dwtag  DW_TAG_member
    3027                      .dwattr $C$DW$464, DW_AT_type(*$C$DW$T$160)
    3028                      .dwattr $C$DW$464, DW_AT_name("I2CINT1A")
    3029                      .dwattr $C$DW$464, DW_AT_TI_symbol_name("_I2CINT1A")
    3030                      .dwattr $C$DW$464, DW_AT_data_member_location[DW_OP_plus_uconst 0xd0]
    3031                      .dwattr $C$DW$464, DW_AT_accessibility(DW_ACCESS_public)
    3032              $C$DW$465       .dwtag  DW_TAG_member
    3033                      .dwattr $C$DW$465, DW_AT_type(*$C$DW$T$160)
    3034                      .dwattr $C$DW$465, DW_AT_name("I2CINT2A")
    3035                      .dwattr $C$DW$465, DW_AT_TI_symbol_name("_I2CINT2A")
    3036                      .dwattr $C$DW$465, DW_AT_data_member_location[DW_OP_plus_uconst 0xd2]
    3037                      .dwattr $C$DW$465, DW_AT_accessibility(DW_ACCESS_public)
    3038              $C$DW$466       .dwtag  DW_TAG_member
    3039                      .dwattr $C$DW$466, DW_AT_type(*$C$DW$T$160)
    3040                      .dwattr $C$DW$466, DW_AT_name("rsvd8_3")
    3041                      .dwattr $C$DW$466, DW_AT_TI_symbol_name("_rsvd8_3")
    3042                      .dwattr $C$DW$466, DW_AT_data_member_location[DW_OP_plus_uconst 0xd4]
    3043                      .dwattr $C$DW$466, DW_AT_accessibility(DW_ACCESS_public)
    3044              $C$DW$467       .dwtag  DW_TAG_member
    3045                      .dwattr $C$DW$467, DW_AT_type(*$C$DW$T$160)
    3046                      .dwattr $C$DW$467, DW_AT_name("rsvd8_4")
    3047                      .dwattr $C$DW$467, DW_AT_TI_symbol_name("_rsvd8_4")
    3048                      .dwattr $C$DW$467, DW_AT_data_member_location[DW_OP_plus_uconst 0xd6]
    3049                      .dwattr $C$DW$467, DW_AT_accessibility(DW_ACCESS_public)
    3050              $C$DW$468       .dwtag  DW_TAG_member
    3051                      .dwattr $C$DW$468, DW_AT_type(*$C$DW$T$160)
    3052                      .dwattr $C$DW$468, DW_AT_name("rsvd8_5")
    3053                      .dwattr $C$DW$468, DW_AT_TI_symbol_name("_rsvd8_5")
    3054                      .dwattr $C$DW$468, DW_AT_data_member_location[DW_OP_plus_uconst 0xd8]
    3055                      .dwattr $C$DW$468, DW_AT_accessibility(DW_ACCESS_public)
    3056              $C$DW$469       .dwtag  DW_TAG_member
    3057                      .dwattr $C$DW$469, DW_AT_type(*$C$DW$T$160)
    3058                      .dwattr $C$DW$469, DW_AT_name("rsvd8_6")
    3059                      .dwattr $C$DW$469, DW_AT_TI_symbol_name("_rsvd8_6")
    3060                      .dwattr $C$DW$469, DW_AT_data_member_location[DW_OP_plus_uconst 0xda]
    3061                      .dwattr $C$DW$469, DW_AT_accessibility(DW_ACCESS_public)
    3062              $C$DW$470       .dwtag  DW_TAG_member
    3063                      .dwattr $C$DW$470, DW_AT_type(*$C$DW$T$160)
    3064                      .dwattr $C$DW$470, DW_AT_name("rsvd8_7")
    3065                      .dwattr $C$DW$470, DW_AT_TI_symbol_name("_rsvd8_7")
    3066                      .dwattr $C$DW$470, DW_AT_data_member_location[DW_OP_plus_uconst 0xdc]
    3067                      .dwattr $C$DW$470, DW_AT_accessibility(DW_ACCESS_public)
    3068              $C$DW$471       .dwtag  DW_TAG_member
    3069                      .dwattr $C$DW$471, DW_AT_type(*$C$DW$T$160)
    3070                      .dwattr $C$DW$471, DW_AT_name("rsvd8_8")
    3071                      .dwattr $C$DW$471, DW_AT_TI_symbol_name("_rsvd8_8")
TMS320C2000 Assembler PC v6.2.5 Tue Aug 29 10:13:49 2017

Tools Copyright (c) 1996-2014 Texas Instruments Incorporated
C:\Users\wmj\AppData\Local\Temp\0884811                              PAGE   57

    3072                      .dwattr $C$DW$471, DW_AT_data_member_location[DW_OP_plus_uconst 0xde]
    3073                      .dwattr $C$DW$471, DW_AT_accessibility(DW_ACCESS_public)
    3074              $C$DW$472       .dwtag  DW_TAG_member
    3075                      .dwattr $C$DW$472, DW_AT_type(*$C$DW$T$160)
    3076                      .dwattr $C$DW$472, DW_AT_name("SCIRXINTA")
    3077                      .dwattr $C$DW$472, DW_AT_TI_symbol_name("_SCIRXINTA")
    3078                      .dwattr $C$DW$472, DW_AT_data_member_location[DW_OP_plus_uconst 0xe0]
    3079                      .dwattr $C$DW$472, DW_AT_accessibility(DW_ACCESS_public)
    3080              $C$DW$473       .dwtag  DW_TAG_member
    3081                      .dwattr $C$DW$473, DW_AT_type(*$C$DW$T$160)
    3082                      .dwattr $C$DW$473, DW_AT_name("SCITXINTA")
    3083                      .dwattr $C$DW$473, DW_AT_TI_symbol_name("_SCITXINTA")
    3084                      .dwattr $C$DW$473, DW_AT_data_member_location[DW_OP_plus_uconst 0xe2]
    3085                      .dwattr $C$DW$473, DW_AT_accessibility(DW_ACCESS_public)
    3086              $C$DW$474       .dwtag  DW_TAG_member
    3087                      .dwattr $C$DW$474, DW_AT_type(*$C$DW$T$160)
    3088                      .dwattr $C$DW$474, DW_AT_name("rsvd9_3")
    3089                      .dwattr $C$DW$474, DW_AT_TI_symbol_name("_rsvd9_3")
    3090                      .dwattr $C$DW$474, DW_AT_data_member_location[DW_OP_plus_uconst 0xe4]
    3091                      .dwattr $C$DW$474, DW_AT_accessibility(DW_ACCESS_public)
    3092              $C$DW$475       .dwtag  DW_TAG_member
    3093                      .dwattr $C$DW$475, DW_AT_type(*$C$DW$T$160)
    3094                      .dwattr $C$DW$475, DW_AT_name("rsvd9_4")
    3095                      .dwattr $C$DW$475, DW_AT_TI_symbol_name("_rsvd9_4")
    3096                      .dwattr $C$DW$475, DW_AT_data_member_location[DW_OP_plus_uconst 0xe6]
    3097                      .dwattr $C$DW$475, DW_AT_accessibility(DW_ACCESS_public)
    3098              $C$DW$476       .dwtag  DW_TAG_member
    3099                      .dwattr $C$DW$476, DW_AT_type(*$C$DW$T$160)
    3100                      .dwattr $C$DW$476, DW_AT_name("rsvd9_5")
    3101                      .dwattr $C$DW$476, DW_AT_TI_symbol_name("_rsvd9_5")
    3102                      .dwattr $C$DW$476, DW_AT_data_member_location[DW_OP_plus_uconst 0xe8]
    3103                      .dwattr $C$DW$476, DW_AT_accessibility(DW_ACCESS_public)
    3104              $C$DW$477       .dwtag  DW_TAG_member
    3105                      .dwattr $C$DW$477, DW_AT_type(*$C$DW$T$160)
    3106                      .dwattr $C$DW$477, DW_AT_name("rsvd9_6")
    3107                      .dwattr $C$DW$477, DW_AT_TI_symbol_name("_rsvd9_6")
    3108                      .dwattr $C$DW$477, DW_AT_data_member_location[DW_OP_plus_uconst 0xea]
    3109                      .dwattr $C$DW$477, DW_AT_accessibility(DW_ACCESS_public)
    3110              $C$DW$478       .dwtag  DW_TAG_member
    3111                      .dwattr $C$DW$478, DW_AT_type(*$C$DW$T$160)
    3112                      .dwattr $C$DW$478, DW_AT_name("rsvd9_7")
    3113                      .dwattr $C$DW$478, DW_AT_TI_symbol_name("_rsvd9_7")
