TMS320C2000 Assembler PC v6.2.5 Sat Sep 16 15:41:34 2017

Tools Copyright (c) 1996-2014 Texas Instruments Incorporated
C:\Users\wmj\AppData\Local\Temp\1144410                              PAGE    1

       1              ;***************************************************************
       2              ;* TMS320C2000 C/C++ Codegen                         PC v6.2.5 *
       3              ;* Date/Time created: Sat Sep 16 15:41:33 2017                 *
       4              ;***************************************************************
       5                      .compiler_opts --float_support=softlib --hll_source=on --mem_model:code=flat --mem_model:data=large -
       6        0002  FP      .set    XAR2
       7              
       8              $C$DW$CU        .dwtag  DW_TAG_compile_unit
       9                      .dwattr $C$DW$CU, DW_AT_name("D:/BM1000/sw/solutions/instaspin_foc/src/proj_lab02b.c")
      10                      .dwattr $C$DW$CU, DW_AT_producer("TMS320C2000 C/C++ Codegen PC v6.2.5 Copyright (c) 1996-2014 Texas I
      11                      .dwattr $C$DW$CU, DW_AT_TI_version(0x01)
      12                      .dwattr $C$DW$CU, DW_AT_comp_dir("D:\BM1000\sw\solutions\instaspin_foc\boards\hvkit_rev1p1\f28x\f2802
      13              ;**************************************************************
      14              ;* CINIT RECORDS                                              *
      15              ;**************************************************************
      16 00000000               .sect   ".cinit"
      17                      .align  1
      18 00000000 FFFF          .field          -1,16
      19 00000001 0000-         .field          _Flag_Latch_softwareUpdate+0,32
         00000002 0000 
      20 00000003 0001          .bits   1,16                    ; _Flag_Latch_softwareUpdate @ 0
      21              
      22 00000004               .sect   ".cinit"
      23                      .align  1
      24 00000004 FFFF          .field          -1,16
      25 00000005 0001-         .field          _gCounter_updateGlobals+0,32
         00000006 0000 
      26 00000007 0000          .bits   0,16                    ; _gCounter_updateGlobals @ 0
      27              
      28 00000008               .sect   ".cinit"
      29                      .align  1
      30 00000008 FFFF          .field          -1,16
      31 00000009 0002-         .field          _gLEDcnt+0,32
         0000000a 0000 
      32 0000000b 0000          .bits   0,16                    ; _gLEDcnt @ 0
      33              
      34 0000000c               .sect   ".cinit"
      35                      .align  1
      36 0000000c FFFE          .field          -2,16
      37 0000000d 0004-         .field          _gMaxCurrentSlope+0,32
         0000000e 0000 
      38 0000000f 0000          .bits   0,32                    ; _gMaxCurrentSlope @ 0
         00000010 0000 
      39              
      40 00000011               .sect   ".cinit"
      41                      .align  1
      42 00000011 FFFA          .field          -$C$IR_1,16
      43 00000012 0010-         .field          _gPwmData+0,32
         00000013 0000 
      44 00000014 0000          .bits   0,32                    ; _gPwmData._Tabc._value[0] @ 0
         00000015 0000 
      45 00000016 0000          .bits   0,32                    ; _gPwmData._Tabc._value[1] @ 32
         00000017 0000 
      46 00000018 0000          .bits   0,32                    ; _gPwmData._Tabc._value[2] @ 64
         00000019 0000 
TMS320C2000 Assembler PC v6.2.5 Sat Sep 16 15:41:34 2017

Tools Copyright (c) 1996-2014 Texas Instruments Incorporated
C:\Users\wmj\AppData\Local\Temp\1144410                              PAGE    2

      47        0006  $C$IR_1:        .set    6
      48              
      49 0000001a               .sect   ".cinit"
      50                      .align  1
      51 0000001a FF80          .field          -$C$IR_2,16
      52 0000001b 0040-         .field          _gMotorVars+0,32
         0000001c 0000 
      53 0000001d 0000          .bits   0,16                    ; _gMotorVars._Flag_enableSys @ 0
      54 0000001e 0000          .bits   0,16                    ; _gMotorVars._Flag_Run_Identify @ 16
      55 0000001f 0000          .bits   0,16                    ; _gMotorVars._Flag_MotorIdentified @ 32
      56 00000020 0001          .bits   1,16                    ; _gMotorVars._Flag_enableForceAngle @ 48
      57 00000021 0000          .bits   0,16                    ; _gMotorVars._Flag_enableFieldWeakening @ 64
      58 00000022 0000          .bits   0,16                    ; _gMotorVars._Flag_enableRsRecalc @ 80
      59 00000023 0001          .bits   1,16                    ; _gMotorVars._Flag_enableUserParams @ 96
      60 00000024 0001          .bits   1,16                    ; _gMotorVars._Flag_enableOffsetcalc @ 112
      61 00000025 0000          .bits   0,16                    ; _gMotorVars._Flag_enablePowerWarp @ 128
      62 00000026 0000          .bits   0,16                    ; _gMotorVars._Flag_enableSpeedCtrl @ 144
      63 00000027 0000          .bits   0,16                    ; _gMotorVars._Flag_enableRun @ 160
      64 00000028 0000          .bits   0,16                    ; _gMotorVars._Flag_RunState @ 176
      65 00000029 0000          .bits   0,16                    ; _gMotorVars._Flag_enableFlyingStart @ 192
      66 0000002a 0001          .bits   1,16                    ; _gMotorVars._CtrlState @ 208
      67 0000002b 0001          .bits   1,16                    ; _gMotorVars._EstState @ 224
      68 0000002c 0000          .bits   0,16                    ; _gMotorVars._UserErrorCode @ 240
      69 0000002d 0000          .bits   0,16                    ; _gMotorVars._CtrlVersion._rsvd @ 256
      70 0000002e 0004          .bits   4,16                    ; _gMotorVars._CtrlVersion._targetProc @ 272
      71 0000002f 0000          .bits   0,16                    ; _gMotorVars._CtrlVersion._major @ 288
      72 00000030 0000          .bits   0,16                    ; _gMotorVars._CtrlVersion._minor @ 304
      73 00000031 0000          .bits   0,32                    ; _gMotorVars._IdRef_A @ 320
         00000032 0000 
      74 00000033 0000          .bits   0,32                    ; _gMotorVars._IqRef_A @ 352
         00000034 0000 
      75 00000035 0000          .bits   0,32                    ; _gMotorVars._SpeedRef_pu @ 384
         00000036 0000 
      76 00000037 9999          .bits   1677721,32                      ; _gMotorVars._SpeedRef_krpm @ 416
         00000038 0019 
      77 00000039 0000          .bits   0,32                    ; _gMotorVars._SpeedTraj_krpm @ 448
         0000003a 0000 
      78 0000003b 3333          .bits   3355443,32                      ; _gMotorVars._MaxAccel_krpmps @ 480
         0000003c 0033 
      79 0000003d 0000          .bits   0,32                    ; _gMotorVars._Speed_krpm @ 512
         0000003e 0000 
      80 0000003f 0000          .bits   8388608,32                      ; _gMotorVars._OverModulation @ 544
         00000040 0080 
      81 00000041 3333          .bits   3355443,32                      ; _gMotorVars._RsOnLineCurrent_A @ 576
         00000042 0033 
      82 00000043 0190          .bits   400,32                  ; _gMotorVars._SvgenMaxModulation_ticks @ 608
         00000044 0000 
      83 00000045 0000          .bits   0,32                    ; _gMotorVars._Flux_Wb @ 640
         00000046 0000 
      84 00000047 0000          .bits   0,32                    ; _gMotorVars._Torque_Nm @ 672
         00000048 0000 
      85 00000049 0000          .xfloat $strtod("0x0p+0")               ; _gMotorVars._MagnCurr_A @ 704
         0000004a 0000 
      86 0000004b 0000          .xfloat $strtod("0x0p+0")               ; _gMotorVars._Rr_Ohm @ 736
         0000004c 0000 
TMS320C2000 Assembler PC v6.2.5 Sat Sep 16 15:41:34 2017

Tools Copyright (c) 1996-2014 Texas Instruments Incorporated
C:\Users\wmj\AppData\Local\Temp\1144410                              PAGE    3

      87 0000004d 0000          .xfloat $strtod("0x0p+0")               ; _gMotorVars._Rs_Ohm @ 768
         0000004e 0000 
      88 0000004f 0000          .xfloat $strtod("0x0p+0")               ; _gMotorVars._RsOnLine_Ohm @ 800
         00000050 0000 
      89 00000051 0000          .xfloat $strtod("0x0p+0")               ; _gMotorVars._Lsd_H @ 832
         00000052 0000 
      90 00000053 0000          .xfloat $strtod("0x0p+0")               ; _gMotorVars._Lsq_H @ 864
         00000054 0000 
      91 00000055 0000          .xfloat $strtod("0x0p+0")               ; _gMotorVars._Flux_VpHz @ 896
         00000056 0000 
      92 00000057 0000          .xfloat $strtod("0x0p+0")               ; _gMotorVars._ipd_excFreq_Hz @ 928
         00000058 0000 
      93 00000059 0000          .bits   0,32                    ; _gMotorVars._ipd_Kspd @ 960
         0000005a 0000 
      94 0000005b 0000          .bits   0,32                    ; _gMotorVars._ipd_excMag_coarse_pu @ 992
         0000005c 0000 
      95 0000005d 0000          .bits   0,32                    ; _gMotorVars._ipd_excMag_fine_pu @ 1024
         0000005e 0000 
      96 0000005f 0000          .xfloat $strtod("0x0p+0")               ; _gMotorVars._ipd_waitTime_coarse_sec @ 1056
         00000060 0000 
      97 00000061 0000          .xfloat $strtod("0x0p+0")               ; _gMotorVars._ipd_waitTime_fine_sec @ 1088
         00000062 0000 
      98 00000063 0000          .bits   0,32                    ; _gMotorVars._Kp_spd @ 1120
         00000064 0000 
      99 00000065 0000          .bits   0,32                    ; _gMotorVars._Ki_spd @ 1152
         00000066 0000 
     100 00000067 0000          .bits   0,32                    ; _gMotorVars._Kp_Idq @ 1184
         00000068 0000 
     101 00000069 0000          .bits   0,32                    ; _gMotorVars._Ki_Idq @ 1216
         0000006a 0000 
     102 0000006b 0000          .bits   0,32                    ; _gMotorVars._Vd @ 1248
         0000006c 0000 
     103 0000006d 0000          .bits   0,32                    ; _gMotorVars._Vq @ 1280
         0000006e 0000 
     104 0000006f 0000          .bits   0,32                    ; _gMotorVars._Vs @ 1312
         00000070 0000 
     105 00000071 6666          .bits   6710886,32                      ; _gMotorVars._VsRef @ 1344
         00000072 0066 
     106 00000073 0000          .bits   0,32                    ; _gMotorVars._VdcBus_kV @ 1376
         00000074 0000 
     107 00000075 0000          .bits   0,32                    ; _gMotorVars._Id_A @ 1408
         00000076 0000 
     108 00000077 0000          .bits   0,32                    ; _gMotorVars._Iq_A @ 1440
         00000078 0000 
     109 00000079 0000          .bits   0,32                    ; _gMotorVars._Is_A @ 1472
         0000007a 0000 
     110 0000007b 0000          .bits   0,32                    ; _gMotorVars._I_bias._value[0] @ 1504
         0000007c 0000 
     111 0000007d 0000          .bits   0,32                    ; _gMotorVars._I_bias._value[1] @ 1536
         0000007e 0000 
     112 0000007f 0000          .bits   0,32                    ; _gMotorVars._I_bias._value[2] @ 1568
         00000080 0000 
     113 00000081 0000          .bits   0,32                    ; _gMotorVars._V_bias._value[0] @ 1600
         00000082 0000 
     114 00000083 0000          .bits   0,32                    ; _gMotorVars._V_bias._value[1] @ 1632
TMS320C2000 Assembler PC v6.2.5 Sat Sep 16 15:41:34 2017

Tools Copyright (c) 1996-2014 Texas Instruments Incorporated
C:\Users\wmj\AppData\Local\Temp\1144410                              PAGE    4

         00000084 0000 
     115 00000085 0000          .bits   0,32                    ; _gMotorVars._V_bias._value[2] @ 1664
         00000086 0000 
     116 00000087 999A          .bits   10066330,32                     ; _gMotorVars._SpeedSet_krpm @ 1696
         00000088 0099 
     117 00000089 0000          .bits   0,32                    ; _gMotorVars._angle_sen_pu @ 1728
         0000008a 0000 
     118 0000008b 0000          .bits   0,32                    ; _gMotorVars._angle_est_pu @ 1760
         0000008c 0000 
     119 0000008d 0000          .bits   0,32                    ; _gMotorVars._speed_sen_pu @ 1792
         0000008e 0000 
     120 0000008f 0000          .bits   0,32                    ; _gMotorVars._speed_est_pu @ 1824
         00000090 0000 
     121 00000091 0000          .bits   0,32                    ; _gMotorVars._speedHigh_hall2fast_pu @ 1856
         00000092 0000 
     122 00000093 0000          .bits   0,32                    ; _gMotorVars._speedLow_hall2fast_pu @ 1888
         00000094 0000 
     123 00000095 0000          .bits   0,32                    ; _gMotorVars._IdSet_A @ 1920
         00000096 0000 
     124 00000097 0000          .bits   0,32                    ; _gMotorVars._IqSet_A @ 1952
         00000098 0000 
     125 00000099 0000          .bits   0,32                    ; _gMotorVars._IdRef_pu @ 1984
         0000009a 0000 
     126 0000009b 0000          .bits   0,32                    ; _gMotorVars._IqRef_pu @ 2016
         0000009c 0000 
     127        0080  $C$IR_2:        .set    128
     128              
     129              
     130              $C$DW$1 .dwtag  DW_TAG_subprogram, DW_AT_name("CTRL_setup")
     131                      .dwattr $C$DW$1, DW_AT_TI_symbol_name("_CTRL_setup")
     132                      .dwattr $C$DW$1, DW_AT_declaration
     133                      .dwattr $C$DW$1, DW_AT_external
     134              $C$DW$2 .dwtag  DW_TAG_formal_parameter
     135                      .dwattr $C$DW$2, DW_AT_type(*$C$DW$T$241)
     136                      .dwendtag $C$DW$1
     137              
     138              
     139              $C$DW$3 .dwtag  DW_TAG_subprogram, DW_AT_name("CTRL_setSpd_ref_krpm")
     140                      .dwattr $C$DW$3, DW_AT_TI_symbol_name("_CTRL_setSpd_ref_krpm")
     141                      .dwattr $C$DW$3, DW_AT_declaration
     142                      .dwattr $C$DW$3, DW_AT_external
     143              $C$DW$4 .dwtag  DW_TAG_formal_parameter
     144                      .dwattr $C$DW$4, DW_AT_type(*$C$DW$T$241)
     145              $C$DW$5 .dwtag  DW_TAG_formal_parameter
     146                      .dwattr $C$DW$5, DW_AT_type(*$C$DW$T$322)
     147                      .dwendtag $C$DW$3
     148              
     149              
     150              $C$DW$6 .dwtag  DW_TAG_subprogram, DW_AT_name("CTRL_setParams")
     151                      .dwattr $C$DW$6, DW_AT_TI_symbol_name("_CTRL_setParams")
     152                      .dwattr $C$DW$6, DW_AT_declaration
     153                      .dwattr $C$DW$6, DW_AT_external
     154              $C$DW$7 .dwtag  DW_TAG_formal_parameter
     155                      .dwattr $C$DW$7, DW_AT_type(*$C$DW$T$241)
     156              $C$DW$8 .dwtag  DW_TAG_formal_parameter
TMS320C2000 Assembler PC v6.2.5 Sat Sep 16 15:41:34 2017

Tools Copyright (c) 1996-2014 Texas Instruments Incorporated
C:\Users\wmj\AppData\Local\Temp\1144410                              PAGE    5

     157                      .dwattr $C$DW$8, DW_AT_type(*$C$DW$T$248)
     158                      .dwendtag $C$DW$6
     159              
     160              
     161              $C$DW$9 .dwtag  DW_TAG_subprogram, DW_AT_name("HAL_enableGlobalInts")
     162                      .dwattr $C$DW$9, DW_AT_TI_symbol_name("_HAL_enableGlobalInts")
     163                      .dwattr $C$DW$9, DW_AT_declaration
     164                      .dwattr $C$DW$9, DW_AT_external
     165              $C$DW$10        .dwtag  DW_TAG_formal_parameter
     166                      .dwattr $C$DW$10, DW_AT_type(*$C$DW$T$208)
     167                      .dwendtag $C$DW$9
     168              
     169              
     170              $C$DW$11        .dwtag  DW_TAG_subprogram, DW_AT_name("HAL_enableAdcInts")
     171                      .dwattr $C$DW$11, DW_AT_TI_symbol_name("_HAL_enableAdcInts")
     172                      .dwattr $C$DW$11, DW_AT_declaration
     173                      .dwattr $C$DW$11, DW_AT_external
     174              $C$DW$12        .dwtag  DW_TAG_formal_parameter
     175                      .dwattr $C$DW$12, DW_AT_type(*$C$DW$T$208)
     176                      .dwendtag $C$DW$11
     177              
     178              
     179              $C$DW$13        .dwtag  DW_TAG_subprogram, DW_AT_name("HAL_enableDebugInt")
     180                      .dwattr $C$DW$13, DW_AT_TI_symbol_name("_HAL_enableDebugInt")
     181                      .dwattr $C$DW$13, DW_AT_declaration
     182                      .dwattr $C$DW$13, DW_AT_external
     183              $C$DW$14        .dwtag  DW_TAG_formal_parameter
     184                      .dwattr $C$DW$14, DW_AT_type(*$C$DW$T$208)
     185                      .dwendtag $C$DW$13
     186              
     187              
     188              $C$DW$15        .dwtag  DW_TAG_subprogram, DW_AT_name("CTRL_run")
     189                      .dwattr $C$DW$15, DW_AT_TI_symbol_name("_CTRL_run")
     190                      .dwattr $C$DW$15, DW_AT_declaration
     191                      .dwattr $C$DW$15, DW_AT_external
     192              $C$DW$16        .dwtag  DW_TAG_formal_parameter
     193                      .dwattr $C$DW$16, DW_AT_type(*$C$DW$T$241)
     194              $C$DW$17        .dwtag  DW_TAG_formal_parameter
     195                      .dwattr $C$DW$17, DW_AT_type(*$C$DW$T$208)
     196              $C$DW$18        .dwtag  DW_TAG_formal_parameter
     197                      .dwattr $C$DW$18, DW_AT_type(*$C$DW$T$282)
     198              $C$DW$19        .dwtag  DW_TAG_formal_parameter
     199                      .dwattr $C$DW$19, DW_AT_type(*$C$DW$T$291)
     200                      .dwendtag $C$DW$15
     201              
     202              
     203              $C$DW$20        .dwtag  DW_TAG_subprogram, DW_AT_name("USER_calcPIgains")
     204                      .dwattr $C$DW$20, DW_AT_TI_symbol_name("_USER_calcPIgains")
     205                      .dwattr $C$DW$20, DW_AT_declaration
     206                      .dwattr $C$DW$20, DW_AT_external
     207              $C$DW$21        .dwtag  DW_TAG_formal_parameter
     208                      .dwattr $C$DW$21, DW_AT_type(*$C$DW$T$241)
     209                      .dwendtag $C$DW$20
     210              
     211              
TMS320C2000 Assembler PC v6.2.5 Sat Sep 16 15:41:34 2017

Tools Copyright (c) 1996-2014 Texas Instruments Incorporated
C:\Users\wmj\AppData\Local\Temp\1144410                              PAGE    6

     212              $C$DW$22        .dwtag  DW_TAG_subprogram, DW_AT_name("CTRL_getVersion")
     213                      .dwattr $C$DW$22, DW_AT_TI_symbol_name("_CTRL_getVersion")
     214                      .dwattr $C$DW$22, DW_AT_declaration
     215                      .dwattr $C$DW$22, DW_AT_external
     216              $C$DW$23        .dwtag  DW_TAG_formal_parameter
     217                      .dwattr $C$DW$23, DW_AT_type(*$C$DW$T$241)
     218              $C$DW$24        .dwtag  DW_TAG_formal_parameter
     219                      .dwattr $C$DW$24, DW_AT_type(*$C$DW$T$278)
     220                      .dwendtag $C$DW$22
     221              
     222              
     223              $C$DW$25        .dwtag  DW_TAG_subprogram, DW_AT_name("USER_softwareUpdate1p6")
     224                      .dwattr $C$DW$25, DW_AT_TI_symbol_name("_USER_softwareUpdate1p6")
     225                      .dwattr $C$DW$25, DW_AT_declaration
     226                      .dwattr $C$DW$25, DW_AT_external
     227              $C$DW$26        .dwtag  DW_TAG_formal_parameter
     228                      .dwattr $C$DW$26, DW_AT_type(*$C$DW$T$241)
     229                      .dwendtag $C$DW$25
     230              
     231              
     232              $C$DW$27        .dwtag  DW_TAG_subprogram, DW_AT_name("PROCTRL_setParams")
     233                      .dwattr $C$DW$27, DW_AT_TI_symbol_name("_PROCTRL_setParams")
     234                      .dwattr $C$DW$27, DW_AT_declaration
     235                      .dwattr $C$DW$27, DW_AT_external
     236              $C$DW$28        .dwtag  DW_TAG_formal_parameter
     237                      .dwattr $C$DW$28, DW_AT_type(*$C$DW$T$303)
     238                      .dwendtag $C$DW$27
     239              
     240              
     241              $C$DW$29        .dwtag  DW_TAG_subprogram, DW_AT_name("HAL_setParams")
     242                      .dwattr $C$DW$29, DW_AT_TI_symbol_name("_HAL_setParams")
     243                      .dwattr $C$DW$29, DW_AT_declaration
     244                      .dwattr $C$DW$29, DW_AT_external
     245              $C$DW$30        .dwtag  DW_TAG_formal_parameter
     246                      .dwattr $C$DW$30, DW_AT_type(*$C$DW$T$208)
     247              $C$DW$31        .dwtag  DW_TAG_formal_parameter
     248                      .dwattr $C$DW$31, DW_AT_type(*$C$DW$T$312)
     249                      .dwendtag $C$DW$29
     250              
     251              
     252              $C$DW$32        .dwtag  DW_TAG_subprogram, DW_AT_name("HAL_setupFaults")
     253                      .dwattr $C$DW$32, DW_AT_TI_symbol_name("_HAL_setupFaults")
     254                      .dwattr $C$DW$32, DW_AT_declaration
     255                      .dwattr $C$DW$32, DW_AT_external
     256              $C$DW$33        .dwtag  DW_TAG_formal_parameter
     257                      .dwattr $C$DW$33, DW_AT_type(*$C$DW$T$208)
     258                      .dwendtag $C$DW$32
     259              
     260              
     261              $C$DW$34        .dwtag  DW_TAG_subprogram, DW_AT_name("HAL_enableTimer1Int")
     262                      .dwattr $C$DW$34, DW_AT_TI_symbol_name("_HAL_enableTimer1Int")
     263                      .dwattr $C$DW$34, DW_AT_declaration
     264                      .dwattr $C$DW$34, DW_AT_external
     265              $C$DW$35        .dwtag  DW_TAG_formal_parameter
     266                      .dwattr $C$DW$35, DW_AT_type(*$C$DW$T$208)
TMS320C2000 Assembler PC v6.2.5 Sat Sep 16 15:41:34 2017

Tools Copyright (c) 1996-2014 Texas Instruments Incorporated
C:\Users\wmj\AppData\Local\Temp\1144410                              PAGE    7

     267              $C$DW$36        .dwtag  DW_TAG_formal_parameter
     268                      .dwattr $C$DW$36, DW_AT_type(*$C$DW$T$314)
     269                      .dwendtag $C$DW$34
     270              
     271              
     272              $C$DW$37        .dwtag  DW_TAG_subprogram, DW_AT_name("PROCTRL_setHalHandle")
     273                      .dwattr $C$DW$37, DW_AT_TI_symbol_name("_PROCTRL_setHalHandle")
     274                      .dwattr $C$DW$37, DW_AT_declaration
     275                      .dwattr $C$DW$37, DW_AT_external
     276              $C$DW$38        .dwtag  DW_TAG_formal_parameter
     277                      .dwattr $C$DW$38, DW_AT_type(*$C$DW$T$303)
     278              $C$DW$39        .dwtag  DW_TAG_formal_parameter
     279                      .dwattr $C$DW$39, DW_AT_type(*$C$DW$T$208)
     280                      .dwendtag $C$DW$37
     281              
     282              
     283              $C$DW$40        .dwtag  DW_TAG_subprogram, DW_AT_name("HAL_enableSciaInt")
     284                      .dwattr $C$DW$40, DW_AT_TI_symbol_name("_HAL_enableSciaInt")
     285                      .dwattr $C$DW$40, DW_AT_declaration
     286                      .dwattr $C$DW$40, DW_AT_external
     287              $C$DW$41        .dwtag  DW_TAG_formal_parameter
     288                      .dwattr $C$DW$41, DW_AT_type(*$C$DW$T$208)
     289                      .dwendtag $C$DW$40
     290              
     291              
     292              $C$DW$42        .dwtag  DW_TAG_subprogram, DW_AT_name("SCI_clearRxFifoOvf")
     293                      .dwattr $C$DW$42, DW_AT_TI_symbol_name("_SCI_clearRxFifoOvf")
     294                      .dwattr $C$DW$42, DW_AT_declaration
     295                      .dwattr $C$DW$42, DW_AT_external
     296              $C$DW$43        .dwtag  DW_TAG_formal_parameter
     297                      .dwattr $C$DW$43, DW_AT_type(*$C$DW$T$125)
     298                      .dwendtag $C$DW$42
     299              
     300              
     301              $C$DW$44        .dwtag  DW_TAG_subprogram, DW_AT_name("SCI_clearRxFifoInt")
     302                      .dwattr $C$DW$44, DW_AT_TI_symbol_name("_SCI_clearRxFifoInt")
     303                      .dwattr $C$DW$44, DW_AT_declaration
     304                      .dwattr $C$DW$44, DW_AT_external
     305              $C$DW$45        .dwtag  DW_TAG_formal_parameter
     306                      .dwattr $C$DW$45, DW_AT_type(*$C$DW$T$125)
     307                      .dwendtag $C$DW$44
     308              
     309              
     310              $C$DW$46        .dwtag  DW_TAG_subprogram, DW_AT_name("TIMER_clearFlag")
     311                      .dwattr $C$DW$46, DW_AT_TI_symbol_name("_TIMER_clearFlag")
     312                      .dwattr $C$DW$46, DW_AT_declaration
     313                      .dwattr $C$DW$46, DW_AT_external
     314              $C$DW$47        .dwtag  DW_TAG_formal_parameter
     315                      .dwattr $C$DW$47, DW_AT_type(*$C$DW$T$118)
     316                      .dwendtag $C$DW$46
     317              
     318              
     319              $C$DW$48        .dwtag  DW_TAG_subprogram, DW_AT_name("EST_setMaxCurrentSlope_pu")
     320                      .dwattr $C$DW$48, DW_AT_TI_symbol_name("_EST_setMaxCurrentSlope_pu")
     321                      .dwattr $C$DW$48, DW_AT_declaration
TMS320C2000 Assembler PC v6.2.5 Sat Sep 16 15:41:34 2017

Tools Copyright (c) 1996-2014 Texas Instruments Incorporated
C:\Users\wmj\AppData\Local\Temp\1144410                              PAGE    8

     322                      .dwattr $C$DW$48, DW_AT_external
     323              $C$DW$49        .dwtag  DW_TAG_formal_parameter
     324                      .dwattr $C$DW$49, DW_AT_type(*$C$DW$T$49)
     325              $C$DW$50        .dwtag  DW_TAG_formal_parameter
     326                      .dwattr $C$DW$50, DW_AT_type(*$C$DW$T$322)
     327                      .dwendtag $C$DW$48
     328              
     329              
     330              $C$DW$51        .dwtag  DW_TAG_subprogram, DW_AT_name("EST_setDir_qFmt")
     331                      .dwattr $C$DW$51, DW_AT_TI_symbol_name("_EST_setDir_qFmt")
     332                      .dwattr $C$DW$51, DW_AT_declaration
     333                      .dwattr $C$DW$51, DW_AT_external
     334              $C$DW$52        .dwtag  DW_TAG_formal_parameter
     335                      .dwattr $C$DW$52, DW_AT_type(*$C$DW$T$49)
     336              $C$DW$53        .dwtag  DW_TAG_formal_parameter
     337                      .dwattr $C$DW$53, DW_AT_type(*$C$DW$T$271)
     338                      .dwendtag $C$DW$51
     339              
     340              
     341              $C$DW$54        .dwtag  DW_TAG_subprogram, DW_AT_name("memCopy")
     342                      .dwattr $C$DW$54, DW_AT_TI_symbol_name("_memCopy")
     343                      .dwattr $C$DW$54, DW_AT_declaration
     344                      .dwattr $C$DW$54, DW_AT_external
     345              $C$DW$55        .dwtag  DW_TAG_formal_parameter
     346                      .dwattr $C$DW$55, DW_AT_type(*$C$DW$T$316)
     347              $C$DW$56        .dwtag  DW_TAG_formal_parameter
     348                      .dwattr $C$DW$56, DW_AT_type(*$C$DW$T$316)
     349              $C$DW$57        .dwtag  DW_TAG_formal_parameter
     350                      .dwattr $C$DW$57, DW_AT_type(*$C$DW$T$316)
     351                      .dwendtag $C$DW$54
     352              
     353              
     354              $C$DW$58        .dwtag  DW_TAG_subprogram, DW_AT_name("EST_setFlag_enableForceAngle")
     355                      .dwattr $C$DW$58, DW_AT_TI_symbol_name("_EST_setFlag_enableForceAngle")
     356                      .dwattr $C$DW$58, DW_AT_declaration
     357                      .dwattr $C$DW$58, DW_AT_external
     358              $C$DW$59        .dwtag  DW_TAG_formal_parameter
     359                      .dwattr $C$DW$59, DW_AT_type(*$C$DW$T$49)
     360              $C$DW$60        .dwtag  DW_TAG_formal_parameter
     361                      .dwattr $C$DW$60, DW_AT_type(*$C$DW$T$319)
     362                      .dwendtag $C$DW$58
     363              
     364              
     365              $C$DW$61        .dwtag  DW_TAG_subprogram, DW_AT_name("EST_setFe_neg_max_pu")
     366                      .dwattr $C$DW$61, DW_AT_TI_symbol_name("_EST_setFe_neg_max_pu")
     367                      .dwattr $C$DW$61, DW_AT_declaration
     368                      .dwattr $C$DW$61, DW_AT_external
     369              $C$DW$62        .dwtag  DW_TAG_formal_parameter
     370                      .dwattr $C$DW$62, DW_AT_type(*$C$DW$T$49)
     371              $C$DW$63        .dwtag  DW_TAG_formal_parameter
     372                      .dwattr $C$DW$63, DW_AT_type(*$C$DW$T$322)
     373                      .dwendtag $C$DW$61
     374              
     375              
     376              $C$DW$64        .dwtag  DW_TAG_subprogram, DW_AT_name("EST_setFe_pos_min_pu")
TMS320C2000 Assembler PC v6.2.5 Sat Sep 16 15:41:34 2017

Tools Copyright (c) 1996-2014 Texas Instruments Incorporated
C:\Users\wmj\AppData\Local\Temp\1144410                              PAGE    9

     377                      .dwattr $C$DW$64, DW_AT_TI_symbol_name("_EST_setFe_pos_min_pu")
     378                      .dwattr $C$DW$64, DW_AT_declaration
     379                      .dwattr $C$DW$64, DW_AT_external
     380              $C$DW$65        .dwtag  DW_TAG_formal_parameter
     381                      .dwattr $C$DW$65, DW_AT_type(*$C$DW$T$49)
     382              $C$DW$66        .dwtag  DW_TAG_formal_parameter
     383                      .dwattr $C$DW$66, DW_AT_type(*$C$DW$T$322)
     384                      .dwendtag $C$DW$64
     385              
     386              
     387              $C$DW$67        .dwtag  DW_TAG_subprogram, DW_AT_name("USER_checkDefErrors")
     388                      .dwattr $C$DW$67, DW_AT_TI_symbol_name("_USER_checkDefErrors")
     389                      .dwattr $C$DW$67, DW_AT_declaration
     390                      .dwattr $C$DW$67, DW_AT_external
     391              $C$DW$68        .dwtag  DW_TAG_formal_parameter
     392                      .dwattr $C$DW$68, DW_AT_type(*$C$DW$T$248)
     393                      .dwendtag $C$DW$67
     394              
     395              
     396              $C$DW$69        .dwtag  DW_TAG_subprogram, DW_AT_name("USER_checkForErrors")
     397                      .dwattr $C$DW$69, DW_AT_TI_symbol_name("_USER_checkForErrors")
     398                      .dwattr $C$DW$69, DW_AT_declaration
     399                      .dwattr $C$DW$69, DW_AT_external
     400              $C$DW$70        .dwtag  DW_TAG_formal_parameter
     401                      .dwattr $C$DW$70, DW_AT_type(*$C$DW$T$248)
     402                      .dwendtag $C$DW$69
     403              
     404              
     405              $C$DW$71        .dwtag  DW_TAG_subprogram, DW_AT_name("USER_setMotorIDs")
     406                      .dwattr $C$DW$71, DW_AT_TI_symbol_name("_USER_setMotorIDs")
     407                      .dwattr $C$DW$71, DW_AT_declaration
     408                      .dwattr $C$DW$71, DW_AT_external
     409              $C$DW$72        .dwtag  DW_TAG_formal_parameter
     410                      .dwattr $C$DW$72, DW_AT_type(*$C$DW$T$248)
     411              $C$DW$73        .dwtag  DW_TAG_formal_parameter
     412                      .dwattr $C$DW$73, DW_AT_type(*$C$DW$T$271)
     413                      .dwendtag $C$DW$71
     414              
     415              
     416              $C$DW$74        .dwtag  DW_TAG_subprogram, DW_AT_name("USER_setMotorParams")
     417                      .dwattr $C$DW$74, DW_AT_TI_symbol_name("_USER_setMotorParams")
     418                      .dwattr $C$DW$74, DW_AT_declaration
     419                      .dwattr $C$DW$74, DW_AT_external
     420              $C$DW$75        .dwtag  DW_TAG_formal_parameter
     421                      .dwattr $C$DW$75, DW_AT_type(*$C$DW$T$248)
     422                      .dwendtag $C$DW$74
     423              
     424              
     425              $C$DW$76        .dwtag  DW_TAG_subprogram, DW_AT_name("USER_setWaitTimeParams")
     426                      .dwattr $C$DW$76, DW_AT_TI_symbol_name("_USER_setWaitTimeParams")
     427                      .dwattr $C$DW$76, DW_AT_declaration
     428                      .dwattr $C$DW$76, DW_AT_external
     429              $C$DW$77        .dwtag  DW_TAG_formal_parameter
     430                      .dwattr $C$DW$77, DW_AT_type(*$C$DW$T$248)
     431                      .dwendtag $C$DW$76
TMS320C2000 Assembler PC v6.2.5 Sat Sep 16 15:41:34 2017

Tools Copyright (c) 1996-2014 Texas Instruments Incorporated
C:\Users\wmj\AppData\Local\Temp\1144410                              PAGE   10

     432              
     433              
     434              $C$DW$78        .dwtag  DW_TAG_subprogram, DW_AT_name("USER_setParams")
     435                      .dwattr $C$DW$78, DW_AT_TI_symbol_name("_USER_setParams")
     436                      .dwattr $C$DW$78, DW_AT_declaration
     437                      .dwattr $C$DW$78, DW_AT_external
     438              $C$DW$79        .dwtag  DW_TAG_formal_parameter
     439                      .dwattr $C$DW$79, DW_AT_type(*$C$DW$T$248)
     440                      .dwendtag $C$DW$78
     441              
     442              
     443              $C$DW$80        .dwtag  DW_TAG_subprogram, DW_AT_name("SCI_clearTxFifoInt")
     444                      .dwattr $C$DW$80, DW_AT_TI_symbol_name("_SCI_clearTxFifoInt")
     445                      .dwattr $C$DW$80, DW_AT_declaration
     446                      .dwattr $C$DW$80, DW_AT_external
     447              $C$DW$81        .dwtag  DW_TAG_formal_parameter
     448                      .dwattr $C$DW$81, DW_AT_type(*$C$DW$T$125)
     449                      .dwendtag $C$DW$80
     450              
     451              
     452              $C$DW$82        .dwtag  DW_TAG_subprogram, DW_AT_name("EST_computeDirection_qFmt")
     453                      .dwattr $C$DW$82, DW_AT_TI_symbol_name("_EST_computeDirection_qFmt")
     454                      .dwattr $C$DW$82, DW_AT_type(*$C$DW$T$34)
     455                      .dwattr $C$DW$82, DW_AT_declaration
     456                      .dwattr $C$DW$82, DW_AT_external
     457              $C$DW$83        .dwtag  DW_TAG_formal_parameter
     458                      .dwattr $C$DW$83, DW_AT_type(*$C$DW$T$49)
     459              $C$DW$84        .dwtag  DW_TAG_formal_parameter
     460                      .dwattr $C$DW$84, DW_AT_type(*$C$DW$T$353)
     461                      .dwendtag $C$DW$82
     462              
     463              
     464              $C$DW$85        .dwtag  DW_TAG_subprogram, DW_AT_name("EST_getState")
     465                      .dwattr $C$DW$85, DW_AT_TI_symbol_name("_EST_getState")
     466                      .dwattr $C$DW$85, DW_AT_type(*$C$DW$T$175)
     467                      .dwattr $C$DW$85, DW_AT_declaration
     468                      .dwattr $C$DW$85, DW_AT_external
     469              $C$DW$86        .dwtag  DW_TAG_formal_parameter
     470                      .dwattr $C$DW$86, DW_AT_type(*$C$DW$T$49)
     471                      .dwendtag $C$DW$85
     472              
     473                      .global _Flag_Latch_softwareUpdate
     474 00000000       _Flag_Latch_softwareUpdate:     .usect  ".ebss",1,1,0
     475              $C$DW$87        .dwtag  DW_TAG_variable, DW_AT_name("Flag_Latch_softwareUpdate")
     476                      .dwattr $C$DW$87, DW_AT_TI_symbol_name("_Flag_Latch_softwareUpdate")
     477                      .dwattr $C$DW$87, DW_AT_location[DW_OP_addr _Flag_Latch_softwareUpdate]
     478                      .dwattr $C$DW$87, DW_AT_type(*$C$DW$T$72)
     479                      .dwattr $C$DW$87, DW_AT_external
     480              
     481              $C$DW$88        .dwtag  DW_TAG_subprogram, DW_AT_name("CTRL_updateState")
     482                      .dwattr $C$DW$88, DW_AT_TI_symbol_name("_CTRL_updateState")
     483                      .dwattr $C$DW$88, DW_AT_type(*$C$DW$T$72)
     484                      .dwattr $C$DW$88, DW_AT_declaration
     485                      .dwattr $C$DW$88, DW_AT_external
     486              $C$DW$89        .dwtag  DW_TAG_formal_parameter
TMS320C2000 Assembler PC v6.2.5 Sat Sep 16 15:41:34 2017

Tools Copyright (c) 1996-2014 Texas Instruments Incorporated
C:\Users\wmj\AppData\Local\Temp\1144410                              PAGE   11

     487                      .dwattr $C$DW$89, DW_AT_type(*$C$DW$T$241)
     488                      .dwendtag $C$DW$88
     489              
     490              
     491              $C$DW$90        .dwtag  DW_TAG_subprogram, DW_AT_name("USER_getErrorCode")
     492                      .dwattr $C$DW$90, DW_AT_TI_symbol_name("_USER_getErrorCode")
     493                      .dwattr $C$DW$90, DW_AT_type(*$C$DW$T$177)
     494                      .dwattr $C$DW$90, DW_AT_declaration
     495                      .dwattr $C$DW$90, DW_AT_external
     496              $C$DW$91        .dwtag  DW_TAG_formal_parameter
     497                      .dwattr $C$DW$91, DW_AT_type(*$C$DW$T$248)
     498                      .dwendtag $C$DW$90
     499              
     500                      .global _gCounter_updateGlobals
     501 00000001       _gCounter_updateGlobals:        .usect  ".ebss",1,1,0
     502              $C$DW$92        .dwtag  DW_TAG_variable, DW_AT_name("gCounter_updateGlobals")
     503                      .dwattr $C$DW$92, DW_AT_TI_symbol_name("_gCounter_updateGlobals")
     504                      .dwattr $C$DW$92, DW_AT_location[DW_OP_addr _gCounter_updateGlobals]
     505                      .dwattr $C$DW$92, DW_AT_type(*$C$DW$T$69)
     506                      .dwattr $C$DW$92, DW_AT_external
     507              
     508              $C$DW$93        .dwtag  DW_TAG_subprogram, DW_AT_name("EST_isMotorIdentified")
     509                      .dwattr $C$DW$93, DW_AT_TI_symbol_name("_EST_isMotorIdentified")
     510                      .dwattr $C$DW$93, DW_AT_type(*$C$DW$T$72)
     511                      .dwattr $C$DW$93, DW_AT_declaration
     512                      .dwattr $C$DW$93, DW_AT_external
     513              $C$DW$94        .dwtag  DW_TAG_formal_parameter
     514                      .dwattr $C$DW$94, DW_AT_type(*$C$DW$T$49)
     515                      .dwendtag $C$DW$93
     516              
     517                      .global _gLEDcnt
     518 00000002       _gLEDcnt:       .usect  ".ebss",1,1,0
     519              $C$DW$95        .dwtag  DW_TAG_variable, DW_AT_name("gLEDcnt")
     520                      .dwattr $C$DW$95, DW_AT_TI_symbol_name("_gLEDcnt")
     521                      .dwattr $C$DW$95, DW_AT_location[DW_OP_addr _gLEDcnt]
     522                      .dwattr $C$DW$95, DW_AT_type(*$C$DW$T$24)
     523                      .dwattr $C$DW$95, DW_AT_external
     524              
     525              $C$DW$96        .dwtag  DW_TAG_subprogram, DW_AT_name("EST_getFlux_VpHz")
     526                      .dwattr $C$DW$96, DW_AT_TI_symbol_name("_EST_getFlux_VpHz")
     527                      .dwattr $C$DW$96, DW_AT_type(*$C$DW$T$70)
     528                      .dwattr $C$DW$96, DW_AT_declaration
     529                      .dwattr $C$DW$96, DW_AT_external
     530              $C$DW$97        .dwtag  DW_TAG_formal_parameter
     531                      .dwattr $C$DW$97, DW_AT_type(*$C$DW$T$49)
     532                      .dwendtag $C$DW$96
     533              
     534              
     535              $C$DW$98        .dwtag  DW_TAG_subprogram, DW_AT_name("EST_getIdRated")
     536                      .dwattr $C$DW$98, DW_AT_TI_symbol_name("_EST_getIdRated")
     537                      .dwattr $C$DW$98, DW_AT_type(*$C$DW$T$70)
     538                      .dwattr $C$DW$98, DW_AT_declaration
     539                      .dwattr $C$DW$98, DW_AT_external
     540              $C$DW$99        .dwtag  DW_TAG_formal_parameter
     541                      .dwattr $C$DW$99, DW_AT_type(*$C$DW$T$49)
TMS320C2000 Assembler PC v6.2.5 Sat Sep 16 15:41:34 2017

Tools Copyright (c) 1996-2014 Texas Instruments Incorporated
C:\Users\wmj\AppData\Local\Temp\1144410                              PAGE   12

     542                      .dwendtag $C$DW$98
     543              
     544              
     545              $C$DW$100       .dwtag  DW_TAG_subprogram, DW_AT_name("__IQsat")
     546                      .dwattr $C$DW$100, DW_AT_TI_symbol_name("___IQsat")
     547                      .dwattr $C$DW$100, DW_AT_type(*$C$DW$T$12)
     548                      .dwattr $C$DW$100, DW_AT_declaration
     549                      .dwattr $C$DW$100, DW_AT_external
     550              $C$DW$101       .dwtag  DW_TAG_formal_parameter
     551                      .dwattr $C$DW$101, DW_AT_type(*$C$DW$T$12)
     552              $C$DW$102       .dwtag  DW_TAG_formal_parameter
     553                      .dwattr $C$DW$102, DW_AT_type(*$C$DW$T$12)
     554              $C$DW$103       .dwtag  DW_TAG_formal_parameter
     555                      .dwattr $C$DW$103, DW_AT_type(*$C$DW$T$12)
     556                      .dwendtag $C$DW$100
     557              
     558              
     559              $C$DW$104       .dwtag  DW_TAG_subprogram, DW_AT_name("EST_get_pu_to_krpm_sf")
     560                      .dwattr $C$DW$104, DW_AT_TI_symbol_name("_EST_get_pu_to_krpm_sf")
     561                      .dwattr $C$DW$104, DW_AT_type(*$C$DW$T$33)
     562                      .dwattr $C$DW$104, DW_AT_declaration
     563                      .dwattr $C$DW$104, DW_AT_external
     564              $C$DW$105       .dwtag  DW_TAG_formal_parameter
     565                      .dwattr $C$DW$105, DW_AT_type(*$C$DW$T$49)
     566                      .dwendtag $C$DW$104
     567              
     568              
     569              $C$DW$106       .dwtag  DW_TAG_subprogram, DW_AT_name("__IQmpy")
     570                      .dwattr $C$DW$106, DW_AT_TI_symbol_name("___IQmpy")
     571                      .dwattr $C$DW$106, DW_AT_type(*$C$DW$T$12)
     572                      .dwattr $C$DW$106, DW_AT_declaration
     573                      .dwattr $C$DW$106, DW_AT_external
     574              $C$DW$107       .dwtag  DW_TAG_formal_parameter
     575                      .dwattr $C$DW$107, DW_AT_type(*$C$DW$T$12)
     576              $C$DW$108       .dwtag  DW_TAG_formal_parameter
     577                      .dwattr $C$DW$108, DW_AT_type(*$C$DW$T$12)
     578              $C$DW$109       .dwtag  DW_TAG_formal_parameter
     579                      .dwattr $C$DW$109, DW_AT_type(*$C$DW$T$10)
     580                      .dwendtag $C$DW$106
     581              
     582                      .global _gMaxCurrentSlope
     583 00000004       _gMaxCurrentSlope:      .usect  ".ebss",2,1,1
     584              $C$DW$110       .dwtag  DW_TAG_variable, DW_AT_name("gMaxCurrentSlope")
     585                      .dwattr $C$DW$110, DW_AT_TI_symbol_name("_gMaxCurrentSlope")
     586                      .dwattr $C$DW$110, DW_AT_location[DW_OP_addr _gMaxCurrentSlope]
     587                      .dwattr $C$DW$110, DW_AT_type(*$C$DW$T$33)
     588                      .dwattr $C$DW$110, DW_AT_external
     589                      .global _rdataA
     590 00000006       _rdataA:        .usect  ".ebss",2,1,0
     591              $C$DW$111       .dwtag  DW_TAG_variable, DW_AT_name("rdataA")
     592                      .dwattr $C$DW$111, DW_AT_TI_symbol_name("_rdataA")
     593                      .dwattr $C$DW$111, DW_AT_location[DW_OP_addr _rdataA]
     594                      .dwattr $C$DW$111, DW_AT_type(*$C$DW$T$406)
     595                      .dwattr $C$DW$111, DW_AT_external
     596              $C$DW$112       .dwtag  DW_TAG_variable, DW_AT_name("RamfuncsLoadEnd")
TMS320C2000 Assembler PC v6.2.5 Sat Sep 16 15:41:34 2017

Tools Copyright (c) 1996-2014 Texas Instruments Incorporated
C:\Users\wmj\AppData\Local\Temp\1144410                              PAGE   13

     597                      .dwattr $C$DW$112, DW_AT_TI_symbol_name("_RamfuncsLoadEnd")
     598                      .dwattr $C$DW$112, DW_AT_type(*$C$DW$T$316)
     599                      .dwattr $C$DW$112, DW_AT_declaration
     600                      .dwattr $C$DW$112, DW_AT_external
     601              $C$DW$113       .dwtag  DW_TAG_variable, DW_AT_name("RamfuncsLoadStart")
     602                      .dwattr $C$DW$113, DW_AT_TI_symbol_name("_RamfuncsLoadStart")
     603                      .dwattr $C$DW$113, DW_AT_type(*$C$DW$T$316)
     604                      .dwattr $C$DW$113, DW_AT_declaration
     605                      .dwattr $C$DW$113, DW_AT_external
     606                      .global _halHandle
     607 00000008       _halHandle:     .usect  ".ebss",2,1,1
     608              $C$DW$114       .dwtag  DW_TAG_variable, DW_AT_name("halHandle")
     609                      .dwattr $C$DW$114, DW_AT_TI_symbol_name("_halHandle")
     610                      .dwattr $C$DW$114, DW_AT_location[DW_OP_addr _halHandle]
     611                      .dwattr $C$DW$114, DW_AT_type(*$C$DW$T$208)
     612                      .dwattr $C$DW$114, DW_AT_external
     613                      .global _ctrlHandle
     614 0000000a       _ctrlHandle:    .usect  ".ebss",2,1,1
     615              $C$DW$115       .dwtag  DW_TAG_variable, DW_AT_name("ctrlHandle")
     616                      .dwattr $C$DW$115, DW_AT_TI_symbol_name("_ctrlHandle")
     617                      .dwattr $C$DW$115, DW_AT_location[DW_OP_addr _ctrlHandle]
     618                      .dwattr $C$DW$115, DW_AT_type(*$C$DW$T$241)
     619                      .dwattr $C$DW$115, DW_AT_external
     620                      .global _sdataA
     621 0000000c       _sdataA:        .usect  ".ebss",2,1,0
     622              $C$DW$116       .dwtag  DW_TAG_variable, DW_AT_name("sdataA")
     623                      .dwattr $C$DW$116, DW_AT_TI_symbol_name("_sdataA")
     624                      .dwattr $C$DW$116, DW_AT_location[DW_OP_addr _sdataA]
     625                      .dwattr $C$DW$116, DW_AT_type(*$C$DW$T$372)
     626                      .dwattr $C$DW$116, DW_AT_external
     627                      .global _proctrlHandle
     628 0000000e       _proctrlHandle: .usect  ".ebss",2,1,1
     629              $C$DW$117       .dwtag  DW_TAG_variable, DW_AT_name("proctrlHandle")
     630                      .dwattr $C$DW$117, DW_AT_TI_symbol_name("_proctrlHandle")
     631                      .dwattr $C$DW$117, DW_AT_location[DW_OP_addr _proctrlHandle]
     632                      .dwattr $C$DW$117, DW_AT_type(*$C$DW$T$303)
     633                      .dwattr $C$DW$117, DW_AT_external
     634              
     635              $C$DW$118       .dwtag  DW_TAG_subprogram, DW_AT_name("HAL_init")
     636                      .dwattr $C$DW$118, DW_AT_TI_symbol_name("_HAL_init")
     637                      .dwattr $C$DW$118, DW_AT_type(*$C$DW$T$208)
     638                      .dwattr $C$DW$118, DW_AT_declaration
     639                      .dwattr $C$DW$118, DW_AT_external
     640              $C$DW$119       .dwtag  DW_TAG_formal_parameter
     641                      .dwattr $C$DW$119, DW_AT_type(*$C$DW$T$3)
     642              $C$DW$120       .dwtag  DW_TAG_formal_parameter
     643                      .dwattr $C$DW$120, DW_AT_type(*$C$DW$T$273)
     644                      .dwendtag $C$DW$118
     645              
     646              
     647              $C$DW$121       .dwtag  DW_TAG_subprogram, DW_AT_name("CTRL_initCtrl")
     648                      .dwattr $C$DW$121, DW_AT_TI_symbol_name("_CTRL_initCtrl")
     649                      .dwattr $C$DW$121, DW_AT_type(*$C$DW$T$241)
     650                      .dwattr $C$DW$121, DW_AT_declaration
     651                      .dwattr $C$DW$121, DW_AT_external
TMS320C2000 Assembler PC v6.2.5 Sat Sep 16 15:41:34 2017

Tools Copyright (c) 1996-2014 Texas Instruments Incorporated
C:\Users\wmj\AppData\Local\Temp\1144410                              PAGE   14

     652              $C$DW$122       .dwtag  DW_TAG_formal_parameter
     653                      .dwattr $C$DW$122, DW_AT_type(*$C$DW$T$271)
     654              $C$DW$123       .dwtag  DW_TAG_formal_parameter
     655                      .dwattr $C$DW$123, DW_AT_type(*$C$DW$T$3)
     656              $C$DW$124       .dwtag  DW_TAG_formal_parameter
     657                      .dwattr $C$DW$124, DW_AT_type(*$C$DW$T$273)
     658                      .dwendtag $C$DW$121
     659              
     660              
     661              $C$DW$125       .dwtag  DW_TAG_subprogram, DW_AT_name("EST_getRs_Ohm")
     662                      .dwattr $C$DW$125, DW_AT_TI_symbol_name("_EST_getRs_Ohm")
     663                      .dwattr $C$DW$125, DW_AT_type(*$C$DW$T$70)
     664                      .dwattr $C$DW$125, DW_AT_declaration
     665                      .dwattr $C$DW$125, DW_AT_external
     666              $C$DW$126       .dwtag  DW_TAG_formal_parameter
     667                      .dwattr $C$DW$126, DW_AT_type(*$C$DW$T$49)
     668                      .dwendtag $C$DW$125
     669              
     670              
     671              $C$DW$127       .dwtag  DW_TAG_subprogram, DW_AT_name("EST_getLs_d_H")
     672                      .dwattr $C$DW$127, DW_AT_TI_symbol_name("_EST_getLs_d_H")
     673                      .dwattr $C$DW$127, DW_AT_type(*$C$DW$T$70)
     674                      .dwattr $C$DW$127, DW_AT_declaration
     675                      .dwattr $C$DW$127, DW_AT_external
     676              $C$DW$128       .dwtag  DW_TAG_formal_parameter
     677                      .dwattr $C$DW$128, DW_AT_type(*$C$DW$T$49)
     678                      .dwendtag $C$DW$127
     679              
     680              
     681              $C$DW$129       .dwtag  DW_TAG_subprogram, DW_AT_name("EST_getMaxCurrentSlope_pu")
     682                      .dwattr $C$DW$129, DW_AT_TI_symbol_name("_EST_getMaxCurrentSlope_pu")
     683                      .dwattr $C$DW$129, DW_AT_type(*$C$DW$T$33)
     684                      .dwattr $C$DW$129, DW_AT_declaration
     685                      .dwattr $C$DW$129, DW_AT_external
     686              $C$DW$130       .dwtag  DW_TAG_formal_parameter
     687                      .dwattr $C$DW$130, DW_AT_type(*$C$DW$T$49)
     688                      .dwendtag $C$DW$129
     689              
     690              
     691              $C$DW$131       .dwtag  DW_TAG_subprogram, DW_AT_name("EST_getLs_q_H")
     692                      .dwattr $C$DW$131, DW_AT_TI_symbol_name("_EST_getLs_q_H")
     693                      .dwattr $C$DW$131, DW_AT_type(*$C$DW$T$70)
     694                      .dwattr $C$DW$131, DW_AT_declaration
     695                      .dwattr $C$DW$131, DW_AT_external
     696              $C$DW$132       .dwtag  DW_TAG_formal_parameter
     697                      .dwattr $C$DW$132, DW_AT_type(*$C$DW$T$49)
     698                      .dwendtag $C$DW$131
     699              
     700              
     701              $C$DW$133       .dwtag  DW_TAG_subprogram, DW_AT_name("EST_getSpeed_krpm")
     702                      .dwattr $C$DW$133, DW_AT_TI_symbol_name("_EST_getSpeed_krpm")
     703                      .dwattr $C$DW$133, DW_AT_type(*$C$DW$T$33)
     704                      .dwattr $C$DW$133, DW_AT_declaration
     705                      .dwattr $C$DW$133, DW_AT_external
     706              $C$DW$134       .dwtag  DW_TAG_formal_parameter
TMS320C2000 Assembler PC v6.2.5 Sat Sep 16 15:41:34 2017

Tools Copyright (c) 1996-2014 Texas Instruments Incorporated
C:\Users\wmj\AppData\Local\Temp\1144410                              PAGE   15

     707                      .dwattr $C$DW$134, DW_AT_type(*$C$DW$T$49)
     708                      .dwendtag $C$DW$133
     709              
     710              
     711              $C$DW$135       .dwtag  DW_TAG_subprogram, DW_AT_name("PROCTRL_init")
     712                      .dwattr $C$DW$135, DW_AT_TI_symbol_name("_PROCTRL_init")
     713                      .dwattr $C$DW$135, DW_AT_type(*$C$DW$T$303)
     714                      .dwattr $C$DW$135, DW_AT_declaration
     715                      .dwattr $C$DW$135, DW_AT_external
     716              $C$DW$136       .dwtag  DW_TAG_formal_parameter
     717                      .dwattr $C$DW$136, DW_AT_type(*$C$DW$T$3)
     718              $C$DW$137       .dwtag  DW_TAG_formal_parameter
     719                      .dwattr $C$DW$137, DW_AT_type(*$C$DW$T$273)
     720                      .dwendtag $C$DW$135
     721              
     722              $C$DW$138       .dwtag  DW_TAG_variable, DW_AT_name("RamfuncsRunStart")
     723                      .dwattr $C$DW$138, DW_AT_TI_symbol_name("_RamfuncsRunStart")
     724                      .dwattr $C$DW$138, DW_AT_type(*$C$DW$T$316)
     725                      .dwattr $C$DW$138, DW_AT_declaration
     726                      .dwattr $C$DW$138, DW_AT_external
     727              
     728              $C$DW$139       .dwtag  DW_TAG_subprogram, DW_AT_name("EST_getRr_Ohm")
     729                      .dwattr $C$DW$139, DW_AT_TI_symbol_name("_EST_getRr_Ohm")
     730                      .dwattr $C$DW$139, DW_AT_type(*$C$DW$T$70)
     731                      .dwattr $C$DW$139, DW_AT_declaration
     732                      .dwattr $C$DW$139, DW_AT_external
     733              $C$DW$140       .dwtag  DW_TAG_formal_parameter
     734                      .dwattr $C$DW$140, DW_AT_type(*$C$DW$T$49)
     735                      .dwendtag $C$DW$139
     736              
     737                      .global _gPwmData
     738 00000010       _gPwmData:      .usect  ".ebss",6,1,1
     739              $C$DW$141       .dwtag  DW_TAG_variable, DW_AT_name("gPwmData")
     740                      .dwattr $C$DW$141, DW_AT_TI_symbol_name("_gPwmData")
     741                      .dwattr $C$DW$141, DW_AT_location[DW_OP_addr _gPwmData]
     742                      .dwattr $C$DW$141, DW_AT_type(*$C$DW$T$290)
     743                      .dwattr $C$DW$141, DW_AT_external
     744                      .global _gAdcData
     745 00000016       _gAdcData:      .usect  ".ebss",22,1,1
     746              $C$DW$142       .dwtag  DW_TAG_variable, DW_AT_name("gAdcData")
     747                      .dwattr $C$DW$142, DW_AT_TI_symbol_name("_gAdcData")
     748                      .dwattr $C$DW$142, DW_AT_location[DW_OP_addr _gAdcData]
     749                      .dwattr $C$DW$142, DW_AT_type(*$C$DW$T$126)
     750                      .dwattr $C$DW$142, DW_AT_external
     751                      .global _gMotorVars
     752 00000040       _gMotorVars:    .usect  ".ebss",128,1,1
     753              $C$DW$143       .dwtag  DW_TAG_variable, DW_AT_name("gMotorVars")
     754                      .dwattr $C$DW$143, DW_AT_TI_symbol_name("_gMotorVars")
     755                      .dwattr $C$DW$143, DW_AT_location[DW_OP_addr _gMotorVars]
     756                      .dwattr $C$DW$143, DW_AT_type(*$C$DW$T$294)
     757                      .dwattr $C$DW$143, DW_AT_external
     758                      .global _gUserParams
     759 000000c0       _gUserParams:   .usect  ".ebss",172,1,1
     760              $C$DW$144       .dwtag  DW_TAG_variable, DW_AT_name("gUserParams")
     761                      .dwattr $C$DW$144, DW_AT_TI_symbol_name("_gUserParams")
TMS320C2000 Assembler PC v6.2.5 Sat Sep 16 15:41:34 2017

Tools Copyright (c) 1996-2014 Texas Instruments Incorporated
C:\Users\wmj\AppData\Local\Temp\1144410                              PAGE   16

     762                      .dwattr $C$DW$144, DW_AT_location[DW_OP_addr _gUserParams]
     763                      .dwattr $C$DW$144, DW_AT_type(*$C$DW$T$247)
     764                      .dwattr $C$DW$144, DW_AT_external
     765              $C$DW$145       .dwtag  DW_TAG_variable, DW_AT_name("hal")
     766                      .dwattr $C$DW$145, DW_AT_TI_symbol_name("_hal")
     767                      .dwattr $C$DW$145, DW_AT_type(*$C$DW$T$285)
     768                      .dwattr $C$DW$145, DW_AT_declaration
     769                      .dwattr $C$DW$145, DW_AT_external
     770                      .global _MyProcessCtrl
     771 00000180       _MyProcessCtrl: .usect  ".ebss",228,1,1
     772              $C$DW$146       .dwtag  DW_TAG_variable, DW_AT_name("MyProcessCtrl")
     773                      .dwattr $C$DW$146, DW_AT_TI_symbol_name("_MyProcessCtrl")
     774                      .dwattr $C$DW$146, DW_AT_location[DW_OP_addr _MyProcessCtrl]
     775                      .dwattr $C$DW$146, DW_AT_type(*$C$DW$T$301)
     776                      .dwattr $C$DW$146, DW_AT_external
     777                      .global _ctrl
     778 00000280       _ctrl:  .usect  ".ebss",264,1,1
     779              $C$DW$147       .dwtag  DW_TAG_variable, DW_AT_name("ctrl")
     780                      .dwattr $C$DW$147, DW_AT_TI_symbol_name("_ctrl")
     781                      .dwattr $C$DW$147, DW_AT_location[DW_OP_addr _ctrl]
     782                      .dwattr $C$DW$147, DW_AT_type(*$C$DW$T$268)
     783                      .dwattr $C$DW$147, DW_AT_external
     784              ;       C:\ti\ccsv6\tools\compiler\c2000_6.2.5\bin\opt2000.exe C:\\Users\\wmj\\AppData\\Local\\Temp\\114442 C
     785              ;       C:\ti\ccsv6\tools\compiler\c2000_6.2.5\bin\ac2000.exe -@C:\\Users\\wmj\\AppData\\Local\\Temp\\1144416
     786 00000000               .sect   ".text"
     787                      .clink
     788                      .global _updateGlobalVariables_motor
     789              
     790              $C$DW$148       .dwtag  DW_TAG_subprogram, DW_AT_name("updateGlobalVariables_motor")
     791                      .dwattr $C$DW$148, DW_AT_low_pc(_updateGlobalVariables_motor)
     792                      .dwattr $C$DW$148, DW_AT_high_pc(0x00)
     793                      .dwattr $C$DW$148, DW_AT_TI_symbol_name("_updateGlobalVariables_motor")
     794                      .dwattr $C$DW$148, DW_AT_external
     795                      .dwattr $C$DW$148, DW_AT_TI_begin_file("D:/BM1000/sw/solutions/instaspin_foc/src/proj_lab02b.c")
     796                      .dwattr $C$DW$148, DW_AT_TI_begin_line(0x1e1)
     797                      .dwattr $C$DW$148, DW_AT_TI_begin_column(0x06)
     798                      .dwattr $C$DW$148, DW_AT_TI_max_frame_size(-6)
     799                      .dwpsn  file "D:/BM1000/sw/solutions/instaspin_foc/src/proj_lab02b.c",line 482,column 1,is_stmt,addre
     800              
     801                      .dwfde $C$DW$CIE, _updateGlobalVariables_motor
     802              $C$DW$149       .dwtag  DW_TAG_formal_parameter, DW_AT_name("handle")
     803                      .dwattr $C$DW$149, DW_AT_TI_symbol_name("_handle")
     804                      .dwattr $C$DW$149, DW_AT_type(*$C$DW$T$241)
     805                      .dwattr $C$DW$149, DW_AT_location[DW_OP_reg12]
     806              
     807              ;***************************************************************
     808              ;* FNAME: _updateGlobalVariables_motor  FR SIZE:   4           *
     809              ;*                                                             *
     810              ;* FUNCTION ENVIRONMENT                                        *
     811              ;*                                                             *
     812              ;* FUNCTION PROPERTIES                                         *
     813              ;*                            0 Parameter,  0 Auto,  4 SOE     *
     814              ;***************************************************************
     815              
     816              _updateGlobalVariables_motor:
TMS320C2000 Assembler PC v6.2.5 Sat Sep 16 15:41:34 2017

Tools Copyright (c) 1996-2014 Texas Instruments Incorporated
C:\Users\wmj\AppData\Local\Temp\1144410                              PAGE   17

     817              ;* XT    assigned to $O$R2
     818              ;* AR2   assigned to _handle
     819              $C$DW$150       .dwtag  DW_TAG_variable, DW_AT_name("handle")
     820                      .dwattr $C$DW$150, DW_AT_TI_symbol_name("_handle")
     821                      .dwattr $C$DW$150, DW_AT_type(*$C$DW$T$270)
     822                      .dwattr $C$DW$150, DW_AT_location[DW_OP_reg8]
     823                      .dwcfi  cfa_offset, -2
     824                      .dwcfi  save_reg_to_mem, 26, 0
     825                      .dwcfi  save_reg_to_reg, 78, 26
     826 00000000 B2BD          MOVL      *SP++,XAR1            ; [CPU_] 
     827                      .dwcfi  save_reg_to_mem, 7, 2
     828                      .dwcfi  cfa_offset, -4
     829                      .dwpsn  file "D:/BM1000/sw/solutions/instaspin_foc/src/proj_lab02b.c",line 486,column 3,is_stmt
     830 00000001 D018          MOVB      XAR0,#24              ; [CPU_] |486| 
     831 00000002 AABD          MOVL      *SP++,XAR2            ; [CPU_] 
     832                      .dwcfi  save_reg_to_mem, 9, 4
     833                      .dwcfi  cfa_offset, -6
     834                      .dwpsn  file "D:/BM1000/sw/solutions/instaspin_foc/src/proj_lab02b.c",line 482,column 1,is_stmt
     835 00000003 86A4          MOVL      XAR2,XAR4             ; [CPU_] |482| 
     836                      .dwpsn  file "D:/BM1000/sw/solutions/instaspin_foc/src/proj_lab02b.c",line 486,column 3,is_stmt
     837 00000004 8A92          MOVL      XAR4,*+XAR2[AR0]      ; [CPU_] |486| 
     838              $C$DW$151       .dwtag  DW_TAG_TI_branch
     839                      .dwattr $C$DW$151, DW_AT_low_pc(0x00)
     840                      .dwattr $C$DW$151, DW_AT_name("_EST_getSpeed_krpm")
     841                      .dwattr $C$DW$151, DW_AT_TI_call
     842 00000005 7640!         LCR       #_EST_getSpeed_krpm   ; [CPU_] |486| 
         00000006 0000 
     843                      ; call occurs [#_EST_getSpeed_krpm] ; [] |486| 
     844 00000007 761F-         MOVW      DP,#_gMotorVars+32    ; [CPU_U] 
         00000008 0001 
     845                      .dwpsn  file "D:/BM1000/sw/modules/traj/src/32b/traj.h",line 96,column 3,is_stmt
     846 00000009 D06C          MOVB      XAR0,#108             ; [CPU_] |96| 
     847                      .dwpsn  file "D:/BM1000/sw/solutions/instaspin_foc/src/proj_lab02b.c",line 486,column 3,is_stmt
     848 0000000a 1E20-         MOVL      @_gMotorVars+32,ACC   ; [CPU_] |486| 
     849                      .dwpsn  file "D:/BM1000/sw/modules/traj/src/32b/traj.h",line 96,column 3,is_stmt
     850 0000000b 8A92          MOVL      XAR4,*+XAR2[AR0]      ; [CPU_] |96| 
     851                      .dwpsn  file "D:/BM1000/sw/solutions/instaspin_foc/src/proj_lab02b.c",line 489,column 3,is_stmt
     852 0000000c D018          MOVB      XAR0,#24              ; [CPU_] |489| 
     853                      .dwpsn  file "D:/BM1000/sw/modules/traj/src/32b/traj.h",line 96,column 3,is_stmt
     854 0000000d 8BD4          MOVL      XAR1,*+XAR4[2]        ; [CPU_] |96| 
     855                      .dwpsn  file "D:/BM1000/sw/solutions/instaspin_foc/src/proj_lab02b.c",line 489,column 3,is_stmt
     856 0000000e 8A92          MOVL      XAR4,*+XAR2[AR0]      ; [CPU_] |489| 
     857              $C$DW$152       .dwtag  DW_TAG_TI_branch
     858                      .dwattr $C$DW$152, DW_AT_low_pc(0x00)
     859                      .dwattr $C$DW$152, DW_AT_name("_EST_get_pu_to_krpm_sf")
     860                      .dwattr $C$DW$152, DW_AT_TI_call
     861 0000000f 7640!         LCR       #_EST_get_pu_to_krpm_sf ; [CPU_] |489| 
         00000010 0000 
     862                      ; call occurs [#_EST_get_pu_to_krpm_sf] ; [] |489| 
     863 00000011 761F-         MOVW      DP,#_gMotorVars+28    ; [CPU_U] 
         00000012 0001 
     864                      .dwpsn  file "D:/BM1000/sw/solutions/instaspin_foc/src/proj_lab02b.c",line 492,column 3,is_stmt
     865 00000013 D018          MOVB      XAR0,#24              ; [CPU_] |492| 
     866                      .dwpsn  file "D:/BM1000/sw/solutions/instaspin_foc/src/proj_lab02b.c",line 489,column 3,is_stmt
     867 00000014 B2AC          MOVL      XT,XAR1               ; [CPU_] |489| 
TMS320C2000 Assembler PC v6.2.5 Sat Sep 16 15:41:34 2017

Tools Copyright (c) 1996-2014 Texas Instruments Incorporated
C:\Users\wmj\AppData\Local\Temp\1144410                              PAGE   18

     868 00000015 5605          IMPYL     P,XT,ACC              ; [CPU_] |489| 
         00000016 00A9 
     869 00000017 5663          QMPYL     ACC,XT,ACC            ; [CPU_] |489| 
         00000018 00A9 
     870 00000019 56A7          LSL64     ACC:P,#8              ; [CPU_] |489| 
     871 0000001a 1E1C-         MOVL      @_gMotorVars+28,ACC   ; [CPU_] |489| 
     872                      .dwpsn  file "D:/BM1000/sw/solutions/instaspin_foc/src/proj_lab02b.c",line 492,column 3,is_stmt
     873 0000001b 8A92          MOVL      XAR4,*+XAR2[AR0]      ; [CPU_] |492| 
     874              $C$DW$153       .dwtag  DW_TAG_TI_branch
     875                      .dwattr $C$DW$153, DW_AT_low_pc(0x00)
     876                      .dwattr $C$DW$153, DW_AT_name("_EST_getIdRated")
     877                      .dwattr $C$DW$153, DW_AT_TI_call
     878 0000001c 7640!         LCR       #_EST_getIdRated      ; [CPU_] |492| 
         0000001d 0000 
     879                      ; call occurs [#_EST_getIdRated] ; [] |492| 
     880 0000001e 761F-         MOVW      DP,#_gMotorVars+44    ; [CPU_U] 
         0000001f 0001 
     881                      .dwpsn  file "D:/BM1000/sw/solutions/instaspin_foc/src/proj_lab02b.c",line 495,column 3,is_stmt
     882 00000020 D018          MOVB      XAR0,#24              ; [CPU_] |495| 
     883                      .dwpsn  file "D:/BM1000/sw/solutions/instaspin_foc/src/proj_lab02b.c",line 492,column 3,is_stmt
     884 00000021 1E2C-         MOVL      @_gMotorVars+44,ACC   ; [CPU_] |492| 
     885                      .dwpsn  file "D:/BM1000/sw/solutions/instaspin_foc/src/proj_lab02b.c",line 495,column 3,is_stmt
     886 00000022 8A92          MOVL      XAR4,*+XAR2[AR0]      ; [CPU_] |495| 
     887              $C$DW$154       .dwtag  DW_TAG_TI_branch
     888                      .dwattr $C$DW$154, DW_AT_low_pc(0x00)
     889                      .dwattr $C$DW$154, DW_AT_name("_EST_getRr_Ohm")
     890                      .dwattr $C$DW$154, DW_AT_TI_call
     891 00000023 7640!         LCR       #_EST_getRr_Ohm       ; [CPU_] |495| 
         00000024 0000 
     892                      ; call occurs [#_EST_getRr_Ohm] ; [] |495| 
     893 00000025 761F-         MOVW      DP,#_gMotorVars+46    ; [CPU_U] 
         00000026 0001 
     894                      .dwpsn  file "D:/BM1000/sw/solutions/instaspin_foc/src/proj_lab02b.c",line 498,column 3,is_stmt
     895 00000027 D018          MOVB      XAR0,#24              ; [CPU_] |498| 
     896                      .dwpsn  file "D:/BM1000/sw/solutions/instaspin_foc/src/proj_lab02b.c",line 495,column 3,is_stmt
     897 00000028 1E2E-         MOVL      @_gMotorVars+46,ACC   ; [CPU_] |495| 
     898                      .dwpsn  file "D:/BM1000/sw/solutions/instaspin_foc/src/proj_lab02b.c",line 498,column 3,is_stmt
     899 00000029 8A92          MOVL      XAR4,*+XAR2[AR0]      ; [CPU_] |498| 
     900              $C$DW$155       .dwtag  DW_TAG_TI_branch
     901                      .dwattr $C$DW$155, DW_AT_low_pc(0x00)
     902                      .dwattr $C$DW$155, DW_AT_name("_EST_getRs_Ohm")
     903                      .dwattr $C$DW$155, DW_AT_TI_call
     904 0000002a 7640!         LCR       #_EST_getRs_Ohm       ; [CPU_] |498| 
         0000002b 0000 
     905                      ; call occurs [#_EST_getRs_Ohm] ; [] |498| 
     906 0000002c 761F-         MOVW      DP,#_gMotorVars+48    ; [CPU_U] 
         0000002d 0001 
     907                      .dwpsn  file "D:/BM1000/sw/solutions/instaspin_foc/src/proj_lab02b.c",line 501,column 3,is_stmt
     908 0000002e D018          MOVB      XAR0,#24              ; [CPU_] |501| 
     909                      .dwpsn  file "D:/BM1000/sw/solutions/instaspin_foc/src/proj_lab02b.c",line 498,column 3,is_stmt
     910 0000002f 1E30-         MOVL      @_gMotorVars+48,ACC   ; [CPU_] |498| 
     911                      .dwpsn  file "D:/BM1000/sw/solutions/instaspin_foc/src/proj_lab02b.c",line 501,column 3,is_stmt
     912 00000030 8A92          MOVL      XAR4,*+XAR2[AR0]      ; [CPU_] |501| 
     913              $C$DW$156       .dwtag  DW_TAG_TI_branch
     914                      .dwattr $C$DW$156, DW_AT_low_pc(0x00)
TMS320C2000 Assembler PC v6.2.5 Sat Sep 16 15:41:34 2017

Tools Copyright (c) 1996-2014 Texas Instruments Incorporated
C:\Users\wmj\AppData\Local\Temp\1144410                              PAGE   19

     915                      .dwattr $C$DW$156, DW_AT_name("_EST_getLs_d_H")
     916                      .dwattr $C$DW$156, DW_AT_TI_call
     917 00000031 7640!         LCR       #_EST_getLs_d_H       ; [CPU_] |501| 
         00000032 0000 
     918                      ; call occurs [#_EST_getLs_d_H] ; [] |501| 
     919 00000033 761F-         MOVW      DP,#_gMotorVars+52    ; [CPU_U] 
         00000034 0001 
     920                      .dwpsn  file "D:/BM1000/sw/solutions/instaspin_foc/src/proj_lab02b.c",line 504,column 3,is_stmt
     921 00000035 D018          MOVB      XAR0,#24              ; [CPU_] |504| 
     922                      .dwpsn  file "D:/BM1000/sw/solutions/instaspin_foc/src/proj_lab02b.c",line 501,column 3,is_stmt
     923 00000036 1E34-         MOVL      @_gMotorVars+52,ACC   ; [CPU_] |501| 
     924                      .dwpsn  file "D:/BM1000/sw/solutions/instaspin_foc/src/proj_lab02b.c",line 504,column 3,is_stmt
     925 00000037 8A92          MOVL      XAR4,*+XAR2[AR0]      ; [CPU_] |504| 
     926              $C$DW$157       .dwtag  DW_TAG_TI_branch
     927                      .dwattr $C$DW$157, DW_AT_low_pc(0x00)
     928                      .dwattr $C$DW$157, DW_AT_name("_EST_getLs_q_H")
     929                      .dwattr $C$DW$157, DW_AT_TI_call
     930 00000038 7640!         LCR       #_EST_getLs_q_H       ; [CPU_] |504| 
         00000039 0000 
     931                      ; call occurs [#_EST_getLs_q_H] ; [] |504| 
     932 0000003a 761F-         MOVW      DP,#_gMotorVars+54    ; [CPU_U] 
         0000003b 0001 
     933                      .dwpsn  file "D:/BM1000/sw/solutions/instaspin_foc/src/proj_lab02b.c",line 507,column 3,is_stmt
     934 0000003c D018          MOVB      XAR0,#24              ; [CPU_] |507| 
     935                      .dwpsn  file "D:/BM1000/sw/solutions/instaspin_foc/src/proj_lab02b.c",line 504,column 3,is_stmt
     936 0000003d 1E36-         MOVL      @_gMotorVars+54,ACC   ; [CPU_] |504| 
     937                      .dwpsn  file "D:/BM1000/sw/solutions/instaspin_foc/src/proj_lab02b.c",line 507,column 3,is_stmt
     938 0000003e 8A92          MOVL      XAR4,*+XAR2[AR0]      ; [CPU_] |507| 
     939              $C$DW$158       .dwtag  DW_TAG_TI_branch
     940                      .dwattr $C$DW$158, DW_AT_low_pc(0x00)
     941                      .dwattr $C$DW$158, DW_AT_name("_EST_getFlux_VpHz")
     942                      .dwattr $C$DW$158, DW_AT_TI_call
     943 0000003f 7640!         LCR       #_EST_getFlux_VpHz    ; [CPU_] |507| 
         00000040 0000 
     944                      ; call occurs [#_EST_getFlux_VpHz] ; [] |507| 
     945 00000041 761F-         MOVW      DP,#_gMotorVars+56    ; [CPU_U] 
         00000042 0001 
     946                      .dwpsn  file "D:/BM1000/sw/solutions/instaspin_foc/src/proj_lab02b.c",line 513,column 3,is_stmt
     947 00000043 D018          MOVB      XAR0,#24              ; [CPU_] |513| 
     948                      .dwpsn  file "D:/BM1000/sw/solutions/instaspin_foc/src/proj_lab02b.c",line 507,column 3,is_stmt
     949 00000044 1E38-         MOVL      @_gMotorVars+56,ACC   ; [CPU_] |507| 
     950                      .dwpsn  file "D:/BM1000/sw/solutions/instaspin_foc/src/proj_lab02b.c",line 510,column 3,is_stmt
     951 00000045 92E2          MOV       AL,*+XAR2[4]          ; [CPU_] |510| 
     952 00000046 960D-         MOV       @_gMotorVars+13,AL    ; [CPU_] |510| 
     953                      .dwpsn  file "D:/BM1000/sw/solutions/instaspin_foc/src/proj_lab02b.c",line 513,column 3,is_stmt
     954 00000047 8A92          MOVL      XAR4,*+XAR2[AR0]      ; [CPU_] |513| 
     955              $C$DW$159       .dwtag  DW_TAG_TI_branch
     956                      .dwattr $C$DW$159, DW_AT_low_pc(0x00)
     957                      .dwattr $C$DW$159, DW_AT_name("_EST_getState")
     958                      .dwattr $C$DW$159, DW_AT_TI_call
     959 00000048 7640!         LCR       #_EST_getState        ; [CPU_] |513| 
         00000049 0000 
     960                      ; call occurs [#_EST_getState] ; [] |513| 
     961 0000004a 761F-         MOVW      DP,#_gMotorVars+14    ; [CPU_U] 
         0000004b 0001 
TMS320C2000 Assembler PC v6.2.5 Sat Sep 16 15:41:34 2017

Tools Copyright (c) 1996-2014 Texas Instruments Incorporated
C:\Users\wmj\AppData\Local\Temp\1144410                              PAGE   20

     962                      .dwpsn  file "D:/BM1000/sw/solutions/instaspin_foc/src/proj_lab02b.c",line 516,column 3,is_stmt
     963 0000004c 9B73          MOV       AH,#115               ; [CPU_] |516| 
     964                      .dwpsn  file "D:/BM1000/sw/solutions/instaspin_foc/src/proj_lab02b.c",line 513,column 3,is_stmt
     965 0000004d 960E-         MOV       @_gMotorVars+14,AL    ; [CPU_] |513| 
     966 0000004e 761F-         MOVW      DP,#_gAdcData+12      ; [CPU_U] 
         0000004f 0000 
     967                      .dwpsn  file "D:/BM1000/sw/solutions/instaspin_foc/src/proj_lab02b.c",line 516,column 3,is_stmt
     968 00000050 28A9          MOV       AL,#13107             ; [CPU_] |516| 
         00000051 3333 
     969 00000052 8722-         MOVL      XT,@_gAdcData+12      ; [CPU_] |516| 
     970 00000053 5605          IMPYL     P,XT,ACC              ; [CPU_] |516| 
         00000054 00A9 
     971 00000055 5663          QMPYL     ACC,XT,ACC            ; [CPU_] |516| 
         00000056 00A9 
     972 00000057 56A7          LSL64     ACC:P,#8              ; [CPU_] |516| 
     973 00000058 86BE          MOVL      XAR2,*--SP            ; [CPU_] 
     974                      .dwcfi  cfa_offset, -4
     975                      .dwcfi  restore_reg, 9
     976 00000059 8BBE          MOVL      XAR1,*--SP            ; [CPU_] 
     977                      .dwcfi  cfa_offset, -2
     978                      .dwcfi  restore_reg, 7
     979 0000005a 761F-         MOVW      DP,#_gMotorVars+86    ; [CPU_U] 
         0000005b 0002 
     980 0000005c 1E16-         MOVL      @_gMotorVars+86,ACC   ; [CPU_] |516| 
     981              $C$DW$160       .dwtag  DW_TAG_TI_branch
     982                      .dwattr $C$DW$160, DW_AT_low_pc(0x00)
     983                      .dwattr $C$DW$160, DW_AT_TI_return
     984 0000005d 0006          LRETR     ; [CPU_] 
     985                      ; return occurs ; [] 
     986                      .dwattr $C$DW$148, DW_AT_TI_end_file("D:/BM1000/sw/solutions/instaspin_foc/src/proj_lab02b.c")
     987                      .dwattr $C$DW$148, DW_AT_TI_end_line(0x207)
     988                      .dwattr $C$DW$148, DW_AT_TI_end_column(0x01)
     989                      .dwendentry
     990                      .dwendtag $C$DW$148
     991              
     992 0000005e               .sect   ".text"
     993                      .clink
     994                      .global _setFeLimitZero
     995              
     996              $C$DW$161       .dwtag  DW_TAG_subprogram, DW_AT_name("setFeLimitZero")
     997                      .dwattr $C$DW$161, DW_AT_low_pc(_setFeLimitZero)
     998                      .dwattr $C$DW$161, DW_AT_high_pc(0x00)
     999                      .dwattr $C$DW$161, DW_AT_TI_symbol_name("_setFeLimitZero")
    1000                      .dwattr $C$DW$161, DW_AT_external
    1001                      .dwattr $C$DW$161, DW_AT_TI_begin_file("D:/BM1000/sw/solutions/instaspin_foc/src/proj_lab02b.c")
    1002                      .dwattr $C$DW$161, DW_AT_TI_begin_line(0x22b)
    1003                      .dwattr $C$DW$161, DW_AT_TI_begin_column(0x06)
    1004                      .dwattr $C$DW$161, DW_AT_TI_max_frame_size(-6)
    1005                      .dwpsn  file "D:/BM1000/sw/solutions/instaspin_foc/src/proj_lab02b.c",line 556,column 1,is_stmt,addre
    1006              
    1007                      .dwfde $C$DW$CIE, _setFeLimitZero
    1008              $C$DW$162       .dwtag  DW_TAG_formal_parameter, DW_AT_name("handle")
    1009                      .dwattr $C$DW$162, DW_AT_TI_symbol_name("_handle")
    1010                      .dwattr $C$DW$162, DW_AT_type(*$C$DW$T$241)
    1011                      .dwattr $C$DW$162, DW_AT_location[DW_OP_reg12]
TMS320C2000 Assembler PC v6.2.5 Sat Sep 16 15:41:34 2017

Tools Copyright (c) 1996-2014 Texas Instruments Incorporated
C:\Users\wmj\AppData\Local\Temp\1144410                              PAGE   21

    1012              
    1013              ;***************************************************************
    1014              ;* FNAME: _setFeLimitZero               FR SIZE:   4           *
    1015              ;*                                                             *
    1016              ;* FUNCTION ENVIRONMENT                                        *
    1017              ;*                                                             *
    1018              ;* FUNCTION PROPERTIES                                         *
    1019              ;*                            0 Parameter,  0 Auto,  4 SOE     *
    1020              ;***************************************************************
    1021              
    1022              _setFeLimitZero:
    1023              ;* AR1   assigned to _fe_pos_min_pu
    1024              $C$DW$163       .dwtag  DW_TAG_variable, DW_AT_name("fe_pos_min_pu")
    1025                      .dwattr $C$DW$163, DW_AT_TI_symbol_name("_fe_pos_min_pu")
    1026                      .dwattr $C$DW$163, DW_AT_type(*$C$DW$T$33)
    1027                      .dwattr $C$DW$163, DW_AT_location[DW_OP_reg6]
    1028              ;* AL    assigned to _fe_neg_max_pu
    1029              $C$DW$164       .dwtag  DW_TAG_variable, DW_AT_name("fe_neg_max_pu")
    1030                      .dwattr $C$DW$164, DW_AT_TI_symbol_name("_fe_neg_max_pu")
    1031                      .dwattr $C$DW$164, DW_AT_type(*$C$DW$T$33)
    1032                      .dwattr $C$DW$164, DW_AT_location[DW_OP_reg0]
    1033              ;* AR2   assigned to _handle
    1034              $C$DW$165       .dwtag  DW_TAG_variable, DW_AT_name("handle")
    1035                      .dwattr $C$DW$165, DW_AT_TI_symbol_name("_handle")
    1036                      .dwattr $C$DW$165, DW_AT_type(*$C$DW$T$270)
    1037                      .dwattr $C$DW$165, DW_AT_location[DW_OP_reg8]
    1038                      .dwcfi  cfa_offset, -2
    1039                      .dwcfi  save_reg_to_mem, 26, 0
    1040                      .dwcfi  save_reg_to_reg, 78, 26
    1041 0000005e B2BD          MOVL      *SP++,XAR1            ; [CPU_] 
    1042                      .dwcfi  save_reg_to_mem, 7, 2
    1043                      .dwcfi  cfa_offset, -4
    1044                      .dwpsn  file "D:/BM1000/sw/solutions/instaspin_foc/src/proj_lab02b.c",line 558,column 24,is_stmt
    1045 0000005f D018          MOVB      XAR0,#24              ; [CPU_] |558| 
    1046 00000060 AABD          MOVL      *SP++,XAR2            ; [CPU_] 
    1047                      .dwcfi  save_reg_to_mem, 9, 4
    1048                      .dwcfi  cfa_offset, -6
    1049                      .dwpsn  file "D:/BM1000/sw/solutions/instaspin_foc/src/proj_lab02b.c",line 556,column 1,is_stmt
    1050 00000061 86A4          MOVL      XAR2,XAR4             ; [CPU_] |556| 
    1051                      .dwpsn  file "D:/BM1000/sw/solutions/instaspin_foc/src/proj_lab02b.c",line 558,column 24,is_stmt
    1052 00000062 8A92          MOVL      XAR4,*+XAR2[AR0]      ; [CPU_] |558| 
    1053              $C$DW$166       .dwtag  DW_TAG_TI_branch
    1054                      .dwattr $C$DW$166, DW_AT_low_pc(0x00)
    1055                      .dwattr $C$DW$166, DW_AT_name("_EST_getState")
    1056                      .dwattr $C$DW$166, DW_AT_TI_call
    1057 00000063 7640!         LCR       #_EST_getState        ; [CPU_] |558| 
         00000064 0000 
    1058                      ; call occurs [#_EST_getState] ; [] |558| 
    1059                      .dwpsn  file "D:/BM1000/sw/solutions/instaspin_foc/src/proj_lab02b.c",line 563,column 3,is_stmt
    1060 00000065 D018          MOVB      XAR0,#24              ; [CPU_] |563| 
    1061 00000066 8A92          MOVL      XAR4,*+XAR2[AR0]      ; [CPU_] |563| 
    1062              $C$DW$167       .dwtag  DW_TAG_TI_branch
    1063                      .dwattr $C$DW$167, DW_AT_low_pc(0x00)
    1064                      .dwattr $C$DW$167, DW_AT_name("_EST_isMotorIdentified")
    1065                      .dwattr $C$DW$167, DW_AT_TI_call
TMS320C2000 Assembler PC v6.2.5 Sat Sep 16 15:41:34 2017

Tools Copyright (c) 1996-2014 Texas Instruments Incorporated
C:\Users\wmj\AppData\Local\Temp\1144410                              PAGE   22

    1066 00000067 7640!         LCR       #_EST_isMotorIdentified ; [CPU_] |563| 
         00000068 0000 
    1067                      ; call occurs [#_EST_isMotorIdentified] ; [] |563| 
    1068 00000069 5200          CMPB      AL,#0                 ; [CPU_] |563| 
    1069 0000006a ED08          BF        $C$L1,NEQ             ; [CPU_] |563| 
    1070                      ; branchcc occurs ; [] |563| 
    1071 0000006b D084          MOVB      XAR0,#132             ; [CPU_] |563| 
    1072 0000006c 9292          MOV       AL,*+XAR2[AR0]        ; [CPU_] |563| 
    1073 0000006d 5201          CMPB      AL,#1                 ; [CPU_] |563| 
    1074 0000006e EC04          BF        $C$L1,EQ              ; [CPU_] |563| 
    1075                      ; branchcc occurs ; [] |563| 
    1076                      .dwpsn  file "D:/BM1000/sw/solutions/instaspin_foc/src/proj_lab02b.c",line 565,column 4,is_stmt
    1077 0000006f 0200          MOVB      ACC,#0                ; [CPU_] |565| 
    1078                      .dwpsn  file "D:/BM1000/sw/solutions/instaspin_foc/src/proj_lab02b.c",line 567,column 4,is_stmt
    1079 00000070 D100          MOVB      XAR1,#0               ; [CPU_] |567| 
    1080                      .dwpsn  file "D:/BM1000/sw/solutions/instaspin_foc/src/proj_lab02b.c",line 568,column 5,is_stmt
    1081 00000071 6F0A          B         $C$L2,UNC             ; [CPU_] |568| 
    1082                      ; branch occurs ; [] |568| 
    1083 00000072       $C$L1:    
    1084                      .dwpsn  file "D:/BM1000/sw/solutions/instaspin_foc/src/proj_lab02b.c",line 573,column 4,is_stmt
    1085 00000072 28AB          MOV       PL,#60293             ; [CPU_] |573| 
         00000073 EB85 
    1086 00000074 28AA          MOV       PH,#81                ; [CPU_] |573| 
         00000075 0051 
    1087                      .dwpsn  file "D:/BM1000/sw/solutions/instaspin_foc/src/proj_lab02b.c",line 571,column 4,is_stmt
    1088 00000076 28A9          MOV       AL,#5243              ; [CPU_] |571| 
         00000077 147B 
    1089 00000078 28A8          MOV       AH,#65454             ; [CPU_] |571| 
         00000079 FFAE 
    1090                      .dwpsn  file "D:/BM1000/sw/solutions/instaspin_foc/src/proj_lab02b.c",line 573,column 4,is_stmt
    1091 0000007a A9A1          MOVL      XAR1,P                ; [CPU_] |573| 
    1092 0000007b       $C$L2:    
    1093                      .dwpsn  file "D:/BM1000/sw/solutions/instaspin_foc/src/proj_lab02b.c",line 576,column 3,is_stmt
    1094 0000007b D018          MOVB      XAR0,#24              ; [CPU_] |576| 
    1095 0000007c 8A92          MOVL      XAR4,*+XAR2[AR0]      ; [CPU_] |576| 
    1096              $C$DW$168       .dwtag  DW_TAG_TI_branch
    1097                      .dwattr $C$DW$168, DW_AT_low_pc(0x00)
    1098                      .dwattr $C$DW$168, DW_AT_name("_EST_setFe_neg_max_pu")
    1099                      .dwattr $C$DW$168, DW_AT_TI_call
    1100 0000007d 7640!         LCR       #_EST_setFe_neg_max_pu ; [CPU_] |576| 
         0000007e 0000 
    1101                      ; call occurs [#_EST_setFe_neg_max_pu] ; [] |576| 
    1102                      .dwpsn  file "D:/BM1000/sw/solutions/instaspin_foc/src/proj_lab02b.c",line 578,column 3,is_stmt
    1103 0000007f D018          MOVB      XAR0,#24              ; [CPU_] |578| 
    1104 00000080 B2A9          MOVL      ACC,XAR1              ; [CPU_] |578| 
    1105 00000081 8A92          MOVL      XAR4,*+XAR2[AR0]      ; [CPU_] |578| 
    1106              $C$DW$169       .dwtag  DW_TAG_TI_branch
    1107                      .dwattr $C$DW$169, DW_AT_low_pc(0x00)
    1108                      .dwattr $C$DW$169, DW_AT_name("_EST_setFe_pos_min_pu")
    1109                      .dwattr $C$DW$169, DW_AT_TI_call
    1110 00000082 7640!         LCR       #_EST_setFe_pos_min_pu ; [CPU_] |578| 
         00000083 0000 
    1111                      ; call occurs [#_EST_setFe_pos_min_pu] ; [] |578| 
    1112 00000084 86BE          MOVL      XAR2,*--SP            ; [CPU_] 
    1113                      .dwcfi  cfa_offset, -4
TMS320C2000 Assembler PC v6.2.5 Sat Sep 16 15:41:34 2017

Tools Copyright (c) 1996-2014 Texas Instruments Incorporated
C:\Users\wmj\AppData\Local\Temp\1144410                              PAGE   23

    1114                      .dwcfi  restore_reg, 9
    1115 00000085 8BBE          MOVL      XAR1,*--SP            ; [CPU_] 
    1116                      .dwcfi  cfa_offset, -2
    1117                      .dwcfi  restore_reg, 7
    1118              $C$DW$170       .dwtag  DW_TAG_TI_branch
    1119                      .dwattr $C$DW$170, DW_AT_low_pc(0x00)
    1120                      .dwattr $C$DW$170, DW_AT_TI_return
    1121 00000086 0006          LRETR     ; [CPU_] 
    1122                      ; return occurs ; [] 
    1123                      .dwattr $C$DW$161, DW_AT_TI_end_file("D:/BM1000/sw/solutions/instaspin_foc/src/proj_lab02b.c")
    1124                      .dwattr $C$DW$161, DW_AT_TI_end_line(0x245)
    1125                      .dwattr $C$DW$161, DW_AT_TI_end_column(0x01)
    1126                      .dwendentry
    1127                      .dwendtag $C$DW$161
    1128              
    1129 00000087               .sect   ".text"
    1130                      .clink
    1131                      .global _recalcKpKi
    1132              
    1133              $C$DW$171       .dwtag  DW_TAG_subprogram, DW_AT_name("recalcKpKi")
    1134                      .dwattr $C$DW$171, DW_AT_low_pc(_recalcKpKi)
    1135                      .dwattr $C$DW$171, DW_AT_high_pc(0x00)
    1136                      .dwattr $C$DW$171, DW_AT_TI_symbol_name("_recalcKpKi")
    1137                      .dwattr $C$DW$171, DW_AT_external
    1138                      .dwattr $C$DW$171, DW_AT_TI_begin_file("D:/BM1000/sw/solutions/instaspin_foc/src/proj_lab02b.c")
    1139                      .dwattr $C$DW$171, DW_AT_TI_begin_line(0x20a)
    1140                      .dwattr $C$DW$171, DW_AT_TI_begin_column(0x06)
    1141                      .dwattr $C$DW$171, DW_AT_TI_max_frame_size(-18)
    1142                      .dwpsn  file "D:/BM1000/sw/solutions/instaspin_foc/src/proj_lab02b.c",line 523,column 1,is_stmt,addre
    1143              
    1144                      .dwfde $C$DW$CIE, _recalcKpKi
    1145              $C$DW$172       .dwtag  DW_TAG_formal_parameter, DW_AT_name("handle")
    1146                      .dwattr $C$DW$172, DW_AT_TI_symbol_name("_handle")
    1147                      .dwattr $C$DW$172, DW_AT_type(*$C$DW$T$241)
    1148                      .dwattr $C$DW$172, DW_AT_location[DW_OP_reg12]
    1149              
    1150              ;***************************************************************
    1151              ;* FNAME: _recalcKpKi                   FR SIZE:  16           *
    1152              ;*                                                             *
    1153              ;* FUNCTION ENVIRONMENT                                        *
    1154              ;*                                                             *
    1155              ;* FUNCTION PROPERTIES                                         *
    1156              ;*                            2 Parameter,  8 Auto,  6 SOE     *
    1157              ;***************************************************************
    1158              
    1159              _recalcKpKi:
    1160              ;* AR2   assigned to $O$C1
    1161              ;* AR2   assigned to $O$C2
    1162              ;* AL    assigned to $O$C3
    1163              ;* AR3   assigned to _handle
    1164              $C$DW$173       .dwtag  DW_TAG_variable, DW_AT_name("handle")
    1165                      .dwattr $C$DW$173, DW_AT_TI_symbol_name("_handle")
    1166                      .dwattr $C$DW$173, DW_AT_type(*$C$DW$T$270)
    1167                      .dwattr $C$DW$173, DW_AT_location[DW_OP_reg10]
    1168              ;* AR1   assigned to _EstState
TMS320C2000 Assembler PC v6.2.5 Sat Sep 16 15:41:34 2017

Tools Copyright (c) 1996-2014 Texas Instruments Incorporated
C:\Users\wmj\AppData\Local\Temp\1144410                              PAGE   24

    1169              $C$DW$174       .dwtag  DW_TAG_variable, DW_AT_name("EstState")
    1170                      .dwattr $C$DW$174, DW_AT_TI_symbol_name("_EstState")
    1171                      .dwattr $C$DW$174, DW_AT_type(*$C$DW$T$175)
    1172                      .dwattr $C$DW$174, DW_AT_location[DW_OP_reg6]
    1173              ;* AR1   assigned to _Kp
    1174              $C$DW$175       .dwtag  DW_TAG_variable, DW_AT_name("Kp")
    1175                      .dwattr $C$DW$175, DW_AT_TI_symbol_name("_Kp")
    1176                      .dwattr $C$DW$175, DW_AT_type(*$C$DW$T$33)
    1177                      .dwattr $C$DW$175, DW_AT_location[DW_OP_reg6]
    1178              ;* AL    assigned to _Ki
    1179              $C$DW$176       .dwtag  DW_TAG_variable, DW_AT_name("Ki")
    1180                      .dwattr $C$DW$176, DW_AT_TI_symbol_name("_Ki")
    1181                      .dwattr $C$DW$176, DW_AT_type(*$C$DW$T$33)
    1182                      .dwattr $C$DW$176, DW_AT_location[DW_OP_reg0]
    1183                      .dwcfi  cfa_offset, -2
    1184                      .dwcfi  save_reg_to_mem, 26, 0
    1185                      .dwcfi  save_reg_to_reg, 78, 26
    1186 00000087 B2BD          MOVL      *SP++,XAR1            ; [CPU_] 
    1187                      .dwcfi  save_reg_to_mem, 7, 2
    1188                      .dwcfi  cfa_offset, -4
    1189 00000088 AABD          MOVL      *SP++,XAR2            ; [CPU_] 
    1190                      .dwcfi  save_reg_to_mem, 9, 4
    1191                      .dwcfi  cfa_offset, -6
    1192 00000089 A2BD          MOVL      *SP++,XAR3            ; [CPU_] 
    1193                      .dwcfi  save_reg_to_mem, 11, 6
    1194                      .dwcfi  cfa_offset, -8
    1195 0000008a FE0A          ADDB      SP,#10                ; [CPU_U] 
    1196                      .dwcfi  cfa_offset, -18
    1197                      .dwpsn  file "D:/BM1000/sw/solutions/instaspin_foc/src/proj_lab02b.c",line 525,column 24,is_stmt
    1198 0000008b D018          MOVB      XAR0,#24              ; [CPU_] |525| 
    1199                      .dwpsn  file "D:/BM1000/sw/solutions/instaspin_foc/src/proj_lab02b.c",line 523,column 1,is_stmt
    1200 0000008c 82A4          MOVL      XAR3,XAR4             ; [CPU_] |523| 
    1201                      .dwpsn  file "D:/BM1000/sw/solutions/instaspin_foc/src/proj_lab02b.c",line 525,column 24,is_stmt
    1202 0000008d 8A93          MOVL      XAR4,*+XAR3[AR0]      ; [CPU_] |525| 
    1203              $C$DW$177       .dwtag  DW_TAG_TI_branch
    1204                      .dwattr $C$DW$177, DW_AT_low_pc(0x00)
    1205                      .dwattr $C$DW$177, DW_AT_name("_EST_getState")
    1206                      .dwattr $C$DW$177, DW_AT_TI_call
    1207 0000008e 7640!         LCR       #_EST_getState        ; [CPU_] |525| 
         0000008f 0000 
    1208                      ; call occurs [#_EST_getState] ; [] |525| 
    1209                      .dwpsn  file "D:/BM1000/sw/solutions/instaspin_foc/src/proj_lab02b.c",line 527,column 3,is_stmt
    1210 00000090 D018          MOVB      XAR0,#24              ; [CPU_] |527| 
    1211                      .dwpsn  file "D:/BM1000/sw/solutions/instaspin_foc/src/proj_lab02b.c",line 525,column 24,is_stmt
    1212 00000091 59A9          MOVZ      AR1,AL                ; [CPU_] |525| 
    1213                      .dwpsn  file "D:/BM1000/sw/solutions/instaspin_foc/src/proj_lab02b.c",line 527,column 3,is_stmt
    1214 00000092 8A93          MOVL      XAR4,*+XAR3[AR0]      ; [CPU_] |527| 
    1215              $C$DW$178       .dwtag  DW_TAG_TI_branch
    1216                      .dwattr $C$DW$178, DW_AT_low_pc(0x00)
    1217                      .dwattr $C$DW$178, DW_AT_name("_EST_isMotorIdentified")
    1218                      .dwattr $C$DW$178, DW_AT_TI_call
    1219 00000093 7640!         LCR       #_EST_isMotorIdentified ; [CPU_] |527| 
         00000094 0000 
    1220                      ; call occurs [#_EST_isMotorIdentified] ; [] |527| 
    1221 00000095 5200          CMPB      AL,#0                 ; [CPU_] |527| 
TMS320C2000 Assembler PC v6.2.5 Sat Sep 16 15:41:34 2017

Tools Copyright (c) 1996-2014 Texas Instruments Incorporated
C:\Users\wmj\AppData\Local\Temp\1144410                              PAGE   25

    1222 00000096 ED57          BF        $C$L3,NEQ             ; [CPU_] |527| 
    1223                      ; branchcc occurs ; [] |527| 
    1224 00000097 92A1          MOV       AL,AR1                ; [CPU_] 
    1225 00000098 5203          CMPB      AL,#3                 ; [CPU_] |527| 
    1226 00000099 ED54          BF        $C$L3,NEQ             ; [CPU_] |527| 
    1227                      ; branchcc occurs ; [] |527| 
    1228                      .dwpsn  file "D:/BM1000/sw/solutions/instaspin_foc/src/proj_lab02b.c",line 532,column 14,is_stmt
    1229 0000009a D0C6          MOVB      XAR0,#198             ; [CPU_] |532| 
    1230 0000009b 8693          MOVL      XAR2,*+XAR3[AR0]      ; [CPU_] |532| 
    1231 0000009c FF2F          MOV       ACC,#32000 << 15      ; [CPU_] |532| 
         0000009d 7D00 
    1232 0000009e 1E42          MOVL      *-SP[2],ACC           ; [CPU_] |532| 
    1233 0000009f AAA9          MOVL      ACC,XAR2              ; [CPU_] |532| 
    1234              $C$DW$179       .dwtag  DW_TAG_TI_branch
    1235                      .dwattr $C$DW$179, DW_AT_low_pc(0x00)
    1236                      .dwattr $C$DW$179, DW_AT_name("FS$$MPY")
    1237                      .dwattr $C$DW$179, DW_AT_TI_call
    1238 000000a0 7640!         LCR       #FS$$MPY              ; [CPU_] |532| 
         000000a1 0000 
    1239                      ; call occurs [#FS$$MPY] ; [] |532| 
    1240 000000a2 1E42          MOVL      *-SP[2],ACC           ; [CPU_] |532| 
    1241              $C$DW$180       .dwtag  DW_TAG_TI_branch
    1242                      .dwattr $C$DW$180, DW_AT_low_pc(0x00)
    1243                      .dwattr $C$DW$180, DW_AT_name("FS$$ADD")
    1244                      .dwattr $C$DW$180, DW_AT_TI_call
    1245 000000a3 7640!         LCR       #FS$$ADD              ; [CPU_] |532| 
         000000a4 0000 
    1246                      ; call occurs [#FS$$ADD] ; [] |532| 
    1247 000000a5 1EA6          MOVL      XAR6,ACC              ; [CPU_] |532| 
    1248 000000a6 28A9          MOV       AL,#20971             ; [CPU_] |532| 
         000000a7 51EB 
    1249 000000a8 28A8          MOV       AH,#15800             ; [CPU_] |532| 
         000000a9 3DB8 
    1250 000000aa 1E42          MOVL      *-SP[2],ACC           ; [CPU_] |532| 
    1251 000000ab 06A6          MOVL      ACC,XAR6              ; [CPU_] |532| 
    1252              $C$DW$181       .dwtag  DW_TAG_TI_branch
    1253                      .dwattr $C$DW$181, DW_AT_low_pc(0x00)
    1254                      .dwattr $C$DW$181, DW_AT_name("FS$$DIV")
    1255                      .dwattr $C$DW$181, DW_AT_TI_call
    1256 000000ac 7640!         LCR       #FS$$DIV              ; [CPU_] |532| 
         000000ad 0000 
    1257                      ; call occurs [#FS$$DIV] ; [] |532| 
    1258 000000ae 88AD          MOVZ      AR6,SP                ; [CPU_U] |532| 
    1259 000000af DE8A          SUBB      XAR6,#10              ; [CPU_U] |532| 
    1260              $C$DW$182       .dwtag  DW_TAG_TI_branch
    1261                      .dwattr $C$DW$182, DW_AT_low_pc(0x00)
    1262                      .dwattr $C$DW$182, DW_AT_name("FS$$TOFD")
    1263                      .dwattr $C$DW$182, DW_AT_TI_call
    1264 000000b0 7640!         LCR       #FS$$TOFD             ; [CPU_] |532| 
         000000b1 0000 
    1265                      ; call occurs [#FS$$TOFD] ; [] |532| 
    1266 000000b2 5CAD          MOVZ      AR4,SP                ; [CPU_U] |532| 
    1267 000000b3 88AD          MOVZ      AR6,SP                ; [CPU_U] |532| 
    1268 000000b4 8F40+         MOVL      XAR5,#$C$FL1          ; [CPU_U] |532| 
         000000b5 0000 
TMS320C2000 Assembler PC v6.2.5 Sat Sep 16 15:41:34 2017

Tools Copyright (c) 1996-2014 Texas Instruments Incorporated
C:\Users\wmj\AppData\Local\Temp\1144410                              PAGE   26

    1269 000000b6 DC8A          SUBB      XAR4,#10              ; [CPU_U] |532| 
    1270 000000b7 DE86          SUBB      XAR6,#6               ; [CPU_U] |532| 
    1271              $C$DW$183       .dwtag  DW_TAG_TI_branch
    1272                      .dwattr $C$DW$183, DW_AT_low_pc(0x00)
    1273                      .dwattr $C$DW$183, DW_AT_name("FD$$MPY")
    1274                      .dwattr $C$DW$183, DW_AT_TI_call
    1275 000000b8 7640!         LCR       #FD$$MPY              ; [CPU_] |532| 
         000000b9 0000 
    1276                      ; call occurs [#FD$$MPY] ; [] |532| 
    1277 000000ba 5CAD          MOVZ      AR4,SP                ; [CPU_U] |532| 
    1278 000000bb DC86          SUBB      XAR4,#6               ; [CPU_U] |532| 
    1279              $C$DW$184       .dwtag  DW_TAG_TI_branch
    1280                      .dwattr $C$DW$184, DW_AT_low_pc(0x00)
    1281                      .dwattr $C$DW$184, DW_AT_name("FD$$TOL")
    1282                      .dwattr $C$DW$184, DW_AT_TI_call
    1283 000000bc 7640!         LCR       #FD$$TOL              ; [CPU_] |532| 
         000000bd 0000 
    1284                      ; call occurs [#FD$$TOL] ; [] |532| 
    1285                      .dwpsn  file "D:/BM1000/sw/solutions/instaspin_foc/src/proj_lab02b.c",line 533,column 14,is_stmt
    1286 000000be D0C4          MOVB      XAR0,#196             ; [CPU_] |533| 
    1287                      .dwpsn  file "D:/BM1000/sw/solutions/instaspin_foc/src/proj_lab02b.c",line 532,column 14,is_stmt
    1288 000000bf 8BA9          MOVL      XAR1,ACC              ; [CPU_] |532| 
    1289                      .dwpsn  file "D:/BM1000/sw/solutions/instaspin_foc/src/proj_lab02b.c",line 533,column 14,is_stmt
    1290 000000c0 AA42          MOVL      *-SP[2],XAR2          ; [CPU_] |533| 
    1291 000000c1 0693          MOVL      ACC,*+XAR3[AR0]       ; [CPU_] |533| 
    1292              $C$DW$185       .dwtag  DW_TAG_TI_branch
    1293                      .dwattr $C$DW$185, DW_AT_low_pc(0x00)
    1294                      .dwattr $C$DW$185, DW_AT_name("FS$$DIV")
    1295                      .dwattr $C$DW$185, DW_AT_TI_call
    1296 000000c2 7640!         LCR       #FS$$DIV              ; [CPU_] |533| 
         000000c3 0000 
    1297                      ; call occurs [#FS$$DIV] ; [] |533| 
    1298 000000c4 86A9          MOVL      XAR2,ACC              ; [CPU_] |533| 
    1299 000000c5 28A9          MOV       AL,#46871             ; [CPU_] |533| 
         000000c6 B717 
    1300 000000c7 28A8          MOV       AH,#14673             ; [CPU_] |533| 
         000000c8 3951 
    1301 000000c9 1E42          MOVL      *-SP[2],ACC           ; [CPU_] |533| 
    1302 000000ca AAA9          MOVL      ACC,XAR2              ; [CPU_] |533| 
    1303              $C$DW$186       .dwtag  DW_TAG_TI_branch
    1304                      .dwattr $C$DW$186, DW_AT_low_pc(0x00)
    1305                      .dwattr $C$DW$186, DW_AT_name("FS$$MPY")
    1306                      .dwattr $C$DW$186, DW_AT_TI_call
    1307 000000cb 7640!         LCR       #FS$$MPY              ; [CPU_] |533| 
         000000cc 0000 
    1308                      ; call occurs [#FS$$MPY] ; [] |533| 
    1309 000000cd 88AD          MOVZ      AR6,SP                ; [CPU_U] |533| 
    1310 000000ce DE8A          SUBB      XAR6,#10              ; [CPU_U] |533| 
    1311              $C$DW$187       .dwtag  DW_TAG_TI_branch
    1312                      .dwattr $C$DW$187, DW_AT_low_pc(0x00)
    1313                      .dwattr $C$DW$187, DW_AT_name("FS$$TOFD")
    1314                      .dwattr $C$DW$187, DW_AT_TI_call
    1315 000000cf 7640!         LCR       #FS$$TOFD             ; [CPU_] |533| 
         000000d0 0000 
    1316                      ; call occurs [#FS$$TOFD] ; [] |533| 
TMS320C2000 Assembler PC v6.2.5 Sat Sep 16 15:41:34 2017

Tools Copyright (c) 1996-2014 Texas Instruments Incorporated
C:\Users\wmj\AppData\Local\Temp\1144410                              PAGE   27

    1317 000000d1 5CAD          MOVZ      AR4,SP                ; [CPU_U] |533| 
    1318 000000d2 88AD          MOVZ      AR6,SP                ; [CPU_U] |533| 
    1319 000000d3 8F40+         MOVL      XAR5,#$C$FL1          ; [CPU_U] |533| 
         000000d4 0000 
    1320 000000d5 DC8A          SUBB      XAR4,#10              ; [CPU_U] |533| 
    1321 000000d6 DE86          SUBB      XAR6,#6               ; [CPU_U] |533| 
    1322              $C$DW$188       .dwtag  DW_TAG_TI_branch
    1323                      .dwattr $C$DW$188, DW_AT_low_pc(0x00)
    1324                      .dwattr $C$DW$188, DW_AT_name("FD$$MPY")
    1325                      .dwattr $C$DW$188, DW_AT_TI_call
    1326 000000d7 7640!         LCR       #FD$$MPY              ; [CPU_] |533| 
         000000d8 0000 
    1327                      ; call occurs [#FD$$MPY] ; [] |533| 
    1328 000000d9 5CAD          MOVZ      AR4,SP                ; [CPU_U] |533| 
    1329 000000da DC86          SUBB      XAR4,#6               ; [CPU_U] |533| 
    1330              $C$DW$189       .dwtag  DW_TAG_TI_branch
    1331                      .dwattr $C$DW$189, DW_AT_low_pc(0x00)
    1332                      .dwattr $C$DW$189, DW_AT_name("FD$$TOL")
    1333                      .dwattr $C$DW$189, DW_AT_TI_call
    1334 000000db 7640!         LCR       #FD$$TOL              ; [CPU_] |533| 
         000000dc 0000 
    1335                      ; call occurs [#FD$$TOL] ; [] |533| 
    1336                      .dwpsn  file "D:/BM1000/sw/modules/ctrl/src/32b/ctrl.h",line 1688,column 3,is_stmt
    1337 000000dd D0C8          MOVB      XAR0,#200             ; [CPU_] |1688| 
    1338 000000de AA93          MOVL      *+XAR3[AR0],XAR2      ; [CPU_] |1688| 
    1339                      .dwpsn  file "D:/BM1000/sw/modules/ctrl/src/32b/ctrl.h",line 1509,column 7,is_stmt
    1340 000000df D0CA          MOVB      XAR0,#202             ; [CPU_] |1509| 
    1341 000000e0 B293          MOVL      *+XAR3[AR0],XAR1      ; [CPU_] |1509| 
    1342                      .dwpsn  file "D:/BM1000/sw/modules/ctrl/src/32b/ctrl.h",line 1513,column 7,is_stmt
    1343 000000e1 D0CC          MOVB      XAR0,#204             ; [CPU_] |1513| 
    1344 000000e2 B293          MOVL      *+XAR3[AR0],XAR1      ; [CPU_] |1513| 
    1345                      .dwpsn  file "D:/BM1000/sw/modules/ctrl/src/32b/ctrl.h",line 1484,column 7,is_stmt
    1346 000000e3 D0D0          MOVB      XAR0,#208             ; [CPU_] |1484| 
    1347 000000e4 1E93          MOVL      *+XAR3[AR0],ACC       ; [CPU_] |1484| 
    1348                      .dwpsn  file "D:/BM1000/sw/modules/pid/src/32b/pid.h",line 333,column 3,is_stmt
    1349 000000e5 D020          MOVB      XAR0,#32              ; [CPU_] |333| 
    1350 000000e6 8A93          MOVL      XAR4,*+XAR3[AR0]      ; [CPU_] |333| 
    1351                      .dwpsn  file "D:/BM1000/sw/modules/ctrl/src/32b/ctrl.h",line 1488,column 7,is_stmt
    1352 000000e7 D0D2          MOVB      XAR0,#210             ; [CPU_] |1488| 
    1353                      .dwpsn  file "D:/BM1000/sw/modules/pid/src/32b/pid.h",line 333,column 3,is_stmt
    1354 000000e8 1ED4          MOVL      *+XAR4[2],ACC         ; [CPU_] |333| 
    1355                      .dwpsn  file "D:/BM1000/sw/modules/ctrl/src/32b/ctrl.h",line 1488,column 7,is_stmt
    1356 000000e9 1E93          MOVL      *+XAR3[AR0],ACC       ; [CPU_] |1488| 
    1357                      .dwpsn  file "D:/BM1000/sw/modules/pid/src/32b/pid.h",line 333,column 3,is_stmt
    1358 000000ea D032          MOVB      XAR0,#50              ; [CPU_] |333| 
    1359 000000eb 8A93          MOVL      XAR4,*+XAR3[AR0]      ; [CPU_] |333| 
    1360 000000ec 1ED4          MOVL      *+XAR4[2],ACC         ; [CPU_] |333| 
    1361 000000ed       $C$L3:    
    1362 000000ed FE8A          SUBB      SP,#10                ; [CPU_U] 
    1363                      .dwcfi  cfa_offset, -8
    1364 000000ee 82BE          MOVL      XAR3,*--SP            ; [CPU_] 
    1365                      .dwcfi  cfa_offset, -6
    1366                      .dwcfi  restore_reg, 11
    1367 000000ef 86BE          MOVL      XAR2,*--SP            ; [CPU_] 
    1368                      .dwcfi  cfa_offset, -4
TMS320C2000 Assembler PC v6.2.5 Sat Sep 16 15:41:34 2017

Tools Copyright (c) 1996-2014 Texas Instruments Incorporated
C:\Users\wmj\AppData\Local\Temp\1144410                              PAGE   28

    1369                      .dwcfi  restore_reg, 9
    1370 000000f0 8BBE          MOVL      XAR1,*--SP            ; [CPU_] 
    1371                      .dwcfi  cfa_offset, -2
    1372                      .dwcfi  restore_reg, 7
    1373              $C$DW$190       .dwtag  DW_TAG_TI_branch
    1374                      .dwattr $C$DW$190, DW_AT_low_pc(0x00)
    1375                      .dwattr $C$DW$190, DW_AT_TI_return
    1376 000000f1 0006          LRETR     ; [CPU_] 
    1377                      ; return occurs ; [] 
    1378                      .dwattr $C$DW$171, DW_AT_TI_end_file("D:/BM1000/sw/solutions/instaspin_foc/src/proj_lab02b.c")
    1379                      .dwattr $C$DW$171, DW_AT_TI_end_line(0x228)
    1380                      .dwattr $C$DW$171, DW_AT_TI_end_column(0x01)
    1381                      .dwendentry
    1382                      .dwendtag $C$DW$171
    1383              
    1384 00000000               .sect   "ramfuncs:retain"
    1385                      .retain
    1386                      .retainrefs
    1387                      .global _mainISR
    1388              
    1389              $C$DW$191       .dwtag  DW_TAG_subprogram, DW_AT_name("mainISR")
    1390                      .dwattr $C$DW$191, DW_AT_low_pc(_mainISR)
    1391                      .dwattr $C$DW$191, DW_AT_high_pc(0x00)
    1392                      .dwattr $C$DW$191, DW_AT_TI_symbol_name("_mainISR")
    1393                      .dwattr $C$DW$191, DW_AT_external
    1394                      .dwattr $C$DW$191, DW_AT_TI_begin_file("D:/BM1000/sw/solutions/instaspin_foc/src/proj_lab02b.c")
    1395                      .dwattr $C$DW$191, DW_AT_TI_begin_line(0x1be)
    1396                      .dwattr $C$DW$191, DW_AT_TI_begin_column(0x10)
    1397                      .dwattr $C$DW$191, DW_AT_TI_interrupt
    1398                      .dwattr $C$DW$191, DW_AT_TI_max_frame_size(-20)
    1399                      .dwpsn  file "D:/BM1000/sw/solutions/instaspin_foc/src/proj_lab02b.c",line 447,column 1,is_stmt,addre
    1400              
    1401                      .dwfde $C$DW$CIE, _mainISR
    1402              
    1403              ;***************************************************************
    1404              ;* FNAME: _mainISR                      FR SIZE:  18           *
    1405              ;*                                                             *
    1406              ;* FUNCTION ENVIRONMENT                                        *
    1407              ;*                                                             *
    1408              ;* FUNCTION PROPERTIES                                         *
    1409              ;*                            4 Parameter,  0 Auto, 14 SOE     *
    1410              ;***************************************************************
    1411              
    1412              _mainISR:
    1413              ;* AR5   assigned to $O$C1
    1414              ;* AR4   assigned to $O$C2
    1415              ;* AR1   assigned to $O$C3
    1416              ;* AR0   assigned to $O$C4
    1417              ;* AR7   assigned to $O$C5
    1418              ;* AR6   assigned to $O$C6
    1419              ;* AR4   assigned to $O$C7
    1420              ;* AR7   assigned to $O$C8
    1421              ;* AR6   assigned to $O$C9
    1422              ;* AL    assigned to _value
    1423              $C$DW$192       .dwtag  DW_TAG_variable, DW_AT_name("value")
TMS320C2000 Assembler PC v6.2.5 Sat Sep 16 15:41:34 2017

Tools Copyright (c) 1996-2014 Texas Instruments Incorporated
C:\Users\wmj\AppData\Local\Temp\1144410                              PAGE   29

    1424                      .dwattr $C$DW$192, DW_AT_TI_symbol_name("_value")
    1425                      .dwattr $C$DW$192, DW_AT_type(*$C$DW$T$33)
    1426                      .dwattr $C$DW$192, DW_AT_location[DW_OP_reg0]
    1427              ;* AL    assigned to _value
    1428              $C$DW$193       .dwtag  DW_TAG_variable, DW_AT_name("value")
    1429                      .dwattr $C$DW$193, DW_AT_TI_symbol_name("_value")
    1430                      .dwattr $C$DW$193, DW_AT_type(*$C$DW$T$33)
    1431                      .dwattr $C$DW$193, DW_AT_location[DW_OP_reg0]
    1432              ;* AL    assigned to _value
    1433              $C$DW$194       .dwtag  DW_TAG_variable, DW_AT_name("value")
    1434                      .dwattr $C$DW$194, DW_AT_TI_symbol_name("_value")
    1435                      .dwattr $C$DW$194, DW_AT_type(*$C$DW$T$33)
    1436                      .dwattr $C$DW$194, DW_AT_location[DW_OP_reg0]
    1437              ;* AL    assigned to _value
    1438              $C$DW$195       .dwtag  DW_TAG_variable, DW_AT_name("value")
    1439                      .dwattr $C$DW$195, DW_AT_TI_symbol_name("_value")
    1440                      .dwattr $C$DW$195, DW_AT_type(*$C$DW$T$33)
    1441                      .dwattr $C$DW$195, DW_AT_location[DW_OP_reg0]
    1442              ;* XT    assigned to _value
    1443              $C$DW$196       .dwtag  DW_TAG_variable, DW_AT_name("value")
    1444                      .dwattr $C$DW$196, DW_AT_TI_symbol_name("_value")
    1445                      .dwattr $C$DW$196, DW_AT_type(*$C$DW$T$33)
    1446                      .dwattr $C$DW$196, DW_AT_location[DW_OP_reg21]
    1447              ;* XT    assigned to _value
    1448              $C$DW$197       .dwtag  DW_TAG_variable, DW_AT_name("value")
    1449                      .dwattr $C$DW$197, DW_AT_TI_symbol_name("_value")
    1450                      .dwattr $C$DW$197, DW_AT_type(*$C$DW$T$33)
    1451                      .dwattr $C$DW$197, DW_AT_location[DW_OP_reg21]
    1452              ;* XT    assigned to _value
    1453              $C$DW$198       .dwtag  DW_TAG_variable, DW_AT_name("value")
    1454                      .dwattr $C$DW$198, DW_AT_TI_symbol_name("_value")
    1455                      .dwattr $C$DW$198, DW_AT_type(*$C$DW$T$33)
    1456                      .dwattr $C$DW$198, DW_AT_location[DW_OP_reg21]
    1457              ;* XT    assigned to _value
    1458              $C$DW$199       .dwtag  DW_TAG_variable, DW_AT_name("value")
    1459                      .dwattr $C$DW$199, DW_AT_TI_symbol_name("_value")
    1460                      .dwattr $C$DW$199, DW_AT_type(*$C$DW$T$33)
    1461                      .dwattr $C$DW$199, DW_AT_location[DW_OP_reg21]
    1462              ;* XT    assigned to _value
    1463              $C$DW$200       .dwtag  DW_TAG_variable, DW_AT_name("value")
    1464                      .dwattr $C$DW$200, DW_AT_TI_symbol_name("_value")
    1465                      .dwattr $C$DW$200, DW_AT_type(*$C$DW$T$33)
    1466                      .dwattr $C$DW$200, DW_AT_location[DW_OP_reg21]
    1467              ;* XT    assigned to _value
    1468              $C$DW$201       .dwtag  DW_TAG_variable, DW_AT_name("value")
    1469                      .dwattr $C$DW$201, DW_AT_TI_symbol_name("_value")
    1470                      .dwattr $C$DW$201, DW_AT_type(*$C$DW$T$33)
    1471                      .dwattr $C$DW$201, DW_AT_location[DW_OP_reg21]
    1472              ;* XT    assigned to _value
    1473              $C$DW$202       .dwtag  DW_TAG_variable, DW_AT_name("value")
    1474                      .dwattr $C$DW$202, DW_AT_TI_symbol_name("_value")
    1475                      .dwattr $C$DW$202, DW_AT_type(*$C$DW$T$33)
    1476                      .dwattr $C$DW$202, DW_AT_location[DW_OP_reg21]
    1477              ;* AR0   assigned to _period
    1478              $C$DW$203       .dwtag  DW_TAG_variable, DW_AT_name("period")
TMS320C2000 Assembler PC v6.2.5 Sat Sep 16 15:41:34 2017

Tools Copyright (c) 1996-2014 Texas Instruments Incorporated
C:\Users\wmj\AppData\Local\Temp\1144410                              PAGE   30

    1479                      .dwattr $C$DW$203, DW_AT_TI_symbol_name("_period")
    1480                      .dwattr $C$DW$203, DW_AT_type(*$C$DW$T$33)
    1481                      .dwattr $C$DW$203, DW_AT_location[DW_OP_reg4]
    1482              ;* AR5   assigned to _obj
    1483              $C$DW$204       .dwtag  DW_TAG_variable, DW_AT_name("obj")
    1484                      .dwattr $C$DW$204, DW_AT_TI_symbol_name("_obj")
    1485                      .dwattr $C$DW$204, DW_AT_type(*$C$DW$T$286)
    1486                      .dwattr $C$DW$204, DW_AT_location[DW_OP_reg14]
    1487              ;* AR4   assigned to _timerHandle
    1488              $C$DW$205       .dwtag  DW_TAG_variable, DW_AT_name("timerHandle")
    1489                      .dwattr $C$DW$205, DW_AT_TI_symbol_name("_timerHandle")
    1490                      .dwattr $C$DW$205, DW_AT_type(*$C$DW$T$118)
    1491                      .dwattr $C$DW$205, DW_AT_location[DW_OP_reg12]
    1492              ;* AR6   assigned to $O$L1
    1493              ;* AR4   assigned to $O$U108
    1494              ;* AR7   assigned to $O$U123
    1495              ;* AR4   assigned to $O$U109
    1496                      .dwcfi  cfa_offset, -2
    1497                      .dwcfi  save_reg_to_mem, 26, 0
    1498                      .dwcfi  save_reg_to_reg, 78, 26
    1499 00000000 761B          ASP       ; [CPU_] 
    1500 00000001 0005          PUSH      AR1H:AR0H             ; [CPU_] 
    1501                      .dwcfi  save_reg_to_mem, 5, 2
    1502                      .dwcfi  save_reg_to_mem, 7, 3
    1503                      .dwcfi  cfa_offset, -4
    1504 00000002 ABBD          MOVL      *SP++,XT              ; [CPU_] 
    1505                      .dwcfi  save_reg_to_mem, 21, 4
    1506                      .dwcfi  save_reg_to_mem, 22, 5
    1507                      .dwcfi  cfa_offset, -6
    1508 00000003 AABD          MOVL      *SP++,XAR2            ; [CPU_] 
    1509                      .dwcfi  save_reg_to_mem, 8, 6
    1510                      .dwcfi  save_reg_to_mem, 9, 7
    1511                      .dwcfi  cfa_offset, -8
    1512 00000004 A8BD          MOVL      *SP++,XAR4            ; [CPU_] 
    1513                      .dwcfi  save_reg_to_mem, 12, 8
    1514                      .dwcfi  save_reg_to_mem, 13, 9
    1515                      .dwcfi  cfa_offset, -10
    1516 00000005 A0BD          MOVL      *SP++,XAR5            ; [CPU_] 
    1517                      .dwcfi  save_reg_to_mem, 14, 10
    1518                      .dwcfi  save_reg_to_mem, 15, 11
    1519                      .dwcfi  cfa_offset, -12
    1520 00000006 C2BD          MOVL      *SP++,XAR6            ; [CPU_] 
    1521                      .dwcfi  save_reg_to_mem, 16, 12
    1522                      .dwcfi  save_reg_to_mem, 17, 13
    1523                      .dwcfi  cfa_offset, -14
    1524 00000007 C3BD          MOVL      *SP++,XAR7            ; [CPU_] 
    1525                      .dwcfi  save_reg_to_mem, 18, 14
    1526                      .dwcfi  save_reg_to_mem, 19, 15
    1527                      .dwcfi  cfa_offset, -16
    1528 00000008 FE04          ADDB      SP,#4                 ; [CPU_U] 
    1529                      .dwcfi  cfa_offset, -20
    1530 00000009 FF69          SPM       0                     ; [CPU_] 
    1531 0000000a 2942          CLRC      PAGE0,OVM             ; [CPU_] 
    1532 0000000b 5616          CLRC      AMODE                 ; [CPU_] 
    1533 0000000c 761F-         MOVW      DP,#_gLEDcnt          ; [CPU_U] 
TMS320C2000 Assembler PC v6.2.5 Sat Sep 16 15:41:34 2017

Tools Copyright (c) 1996-2014 Texas Instruments Incorporated
C:\Users\wmj\AppData\Local\Temp\1144410                              PAGE   31

         0000000d 0000 
    1534                      .dwpsn  file "D:/BM1000/sw/solutions/instaspin_foc/src/proj_lab02b.c",line 449,column 3,is_stmt
    1535 0000000e 0A02-         INC       @_gLEDcnt             ; [CPU_] |449| 
    1536 0000000f 1B02-         CMP       @_gLEDcnt,#2000       ; [CPU_] |449| 
         00000010 07D0 
    1537 00000011 6807          B         $C$L4,LO              ; [CPU_] |449| 
    1538                      ; branchcc occurs ; [] |449| 
    1539                      .dwpsn  file "D:/BM1000/sw/solutions/instaspin_foc/src/proj_lab02b.c",line 452,column 2,is_stmt
    1540 00000012 8A08-         MOVL      XAR4,@_halHandle      ; [CPU_] |452| 
    1541 00000013 D08C          MOVB      XAR0,#140             ; [CPU_] |452| 
    1542 00000014 8A94          MOVL      XAR4,*+XAR4[AR0]      ; [CPU_] |452| 
    1543                      .dwpsn  file "D:/BM1000/sw/drivers/timer/src/32b/f28x/f2802x/timer.h",line 262,column 5,is_stmt
    1544 00000015 18E4          AND       *+XAR4[4],#0xffef     ; [CPU_] |262| 
         00000016 FFEF 
    1545                      .dwpsn  file "D:/BM1000/sw/solutions/instaspin_foc/src/proj_lab02b.c",line 453,column 5,is_stmt
    1546 00000017 2B02-         MOV       @_gLEDcnt,#0          ; [CPU_] |453| 
    1547 00000018       $C$L4:    
    1548                      .dwpsn  file "D:/BM1000/sw/modules/hal/boards/hvkit_rev1p1/f28x/f2802x/src/hal.h",line 209,column 16,
    1549 00000018 8308-         MOVL      XAR5,@_halHandle      ; [CPU_] |209| 
    1550                      .dwpsn  file "D:/BM1000/sw/drivers/adc/src/32b/f28x/f2802x/adc.h",line 571,column 3,is_stmt
    1551 00000019 8AC5          MOVL      XAR4,*+XAR5[0]        ; [CPU_] |571| 
    1552 0000001a 8D00          MOVL      XAR0,#26117           ; [CPU_] |571| 
         0000001b 6605 
    1553 0000001c 56BF          MOVB      *+XAR4[AR0],#1,UNC    ; [CPU_] |571| 
         0000001d 0194 
    1554                      .dwpsn  file "D:/BM1000/sw/drivers/pie/src/32b/f28x/f2802x/pie.h",line 757,column 5,is_stmt
    1555 0000001e D078          MOVB      XAR0,#120             ; [CPU_] |757| 
    1556 0000001f 8A95          MOVL      XAR4,*+XAR5[AR0]      ; [CPU_] |757| 
    1557 00000020 56BF          MOVB      *+XAR4[1],#1,UNC      ; [CPU_] |757| 
         00000021 01CC 
    1558                      .dwpsn  file "D:/BM1000/sw/drivers/adc/src/32b/f28x/f2802x/adc.h",line 684,column 3,is_stmt
    1559 00000022 8BC5          MOVL      XAR1,*+XAR5[0]        ; [CPU_] |684| 
    1560                      .dwpsn  file "D:/BM1000/sw/modules/hal/boards/hvkit_rev1p1/f28x/f2802x/src/hal.h",line 532,column 3,i
    1561 00000023 D0AE          MOVB      XAR0,#174             ; [CPU_] |532| 
    1562 00000024 C595          MOVL      XAR7,*+XAR5[AR0]      ; [CPU_] |532| 
    1563                      .dwpsn  file "D:/BM1000/sw/modules/hal/boards/hvkit_rev1p1/f28x/f2802x/src/hal.h",line 533,column 3,i
    1564 00000025 8F00-         MOVL      XAR4,#_gAdcData       ; [CPU_U] |533| 
         00000026 0016 
    1565                      .dwpsn  file "D:/BM1000/sw/drivers/adc/src/32b/f28x/f2802x/adc.h",line 684,column 3,is_stmt
    1566 00000027 0EC9          MOVU      ACC,*+XAR1[1]         ; [CPU_] |684| 
    1567 00000028 1EAC          MOVL      XT,ACC                ; [CPU_] |684| 
    1568                      .dwpsn  file "D:/BM1000/sw/modules/hal/boards/hvkit_rev1p1/f28x/f2802x/src/hal.h",line 532,column 3,i
    1569 00000029 0298          MOVB      ACC,#152              ; [CPU_] |532| 
    1570 0000002a 5605          IMPYL     P,XT,XAR7             ; [CPU_] |532| 
         0000002b 00A7 
    1571 0000002c 07A5          ADDL      ACC,XAR5              ; [CPU_] |532| 
    1572 0000002d 1EA6          MOVL      XAR6,ACC              ; [CPU_] |532| 
    1573 0000002e 5663          QMPYL     ACC,XT,XAR7           ; [CPU_] |532| 
         0000002f 00A7 
    1574 00000030 568B          ASR64     ACC:P,#12             ; [CPU_] |532| 
    1575 00000031 A9A9          MOVL      ACC,P                 ; [CPU_] |532| 
    1576 00000032 03C6          SUBL      ACC,*+XAR6[0]         ; [CPU_] |532| 
    1577                      .dwpsn  file "D:/BM1000/sw/modules/hal/boards/hvkit_rev1p1/f28x/f2802x/src/hal.h",line 533,column 3,i
    1578 00000033 1EC4          MOVL      *+XAR4[0],ACC         ; [CPU_] |533| 
    1579                      .dwpsn  file "D:/BM1000/sw/drivers/adc/src/32b/f28x/f2802x/adc.h",line 684,column 3,is_stmt
TMS320C2000 Assembler PC v6.2.5 Sat Sep 16 15:41:34 2017

Tools Copyright (c) 1996-2014 Texas Instruments Incorporated
C:\Users\wmj\AppData\Local\Temp\1144410                              PAGE   32

    1580 00000034 0ED1          MOVU      ACC,*+XAR1[2]         ; [CPU_] |684| 
    1581 00000035 1EAC          MOVL      XT,ACC                ; [CPU_] |684| 
    1582                      .dwpsn  file "D:/BM1000/sw/modules/hal/boards/hvkit_rev1p1/f28x/f2802x/src/hal.h",line 537,column 3,i
    1583 00000036 5605          IMPYL     P,XT,XAR7             ; [CPU_] |537| 
         00000037 00A7 
    1584 00000038 5663          QMPYL     ACC,XT,XAR7           ; [CPU_] |537| 
         00000039 00A7 
    1585 0000003a 568B          ASR64     ACC:P,#12             ; [CPU_] |537| 
    1586 0000003b A9A9          MOVL      ACC,P                 ; [CPU_] |537| 
    1587 0000003c 03D6          SUBL      ACC,*+XAR6[2]         ; [CPU_] |537| 
    1588                      .dwpsn  file "D:/BM1000/sw/modules/hal/boards/hvkit_rev1p1/f28x/f2802x/src/hal.h",line 538,column 3,i
    1589 0000003d 1ED4          MOVL      *+XAR4[2],ACC         ; [CPU_] |538| 
    1590                      .dwpsn  file "D:/BM1000/sw/drivers/adc/src/32b/f28x/f2802x/adc.h",line 684,column 3,is_stmt
    1591 0000003e 0ED9          MOVU      ACC,*+XAR1[3]         ; [CPU_] |684| 
    1592 0000003f 1EAC          MOVL      XT,ACC                ; [CPU_] |684| 
    1593                      .dwpsn  file "D:/BM1000/sw/modules/hal/boards/hvkit_rev1p1/f28x/f2802x/src/hal.h",line 542,column 3,i
    1594 00000040 5605          IMPYL     P,XT,XAR7             ; [CPU_] |542| 
         00000041 00A7 
    1595 00000042 5663          QMPYL     ACC,XT,XAR7           ; [CPU_] |542| 
         00000043 00A7 
    1596 00000044 568B          ASR64     ACC:P,#12             ; [CPU_] |542| 
    1597                      .dwpsn  file "D:/BM1000/sw/modules/hal/boards/hvkit_rev1p1/f28x/f2802x/src/hal.h",line 548,column 3,i
    1598 00000045 C5A4          MOVL      XAR7,XAR4             ; [CPU_] |548| 
    1599                      .dwpsn  file "D:/BM1000/sw/modules/hal/boards/hvkit_rev1p1/f28x/f2802x/src/hal.h",line 542,column 3,i
    1600 00000046 A9A9          MOVL      ACC,P                 ; [CPU_] |542| 
    1601                      .dwpsn  file "D:/BM1000/sw/modules/hal/boards/hvkit_rev1p1/f28x/f2802x/src/hal.h",line 547,column 3,i
    1602 00000047 D0B0          MOVB      XAR0,#176             ; [CPU_] |547| 
    1603                      .dwpsn  file "D:/BM1000/sw/modules/hal/boards/hvkit_rev1p1/f28x/f2802x/src/hal.h",line 542,column 3,i
    1604 00000048 03E6          SUBL      ACC,*+XAR6[4]         ; [CPU_] |542| 
    1605                      .dwpsn  file "D:/BM1000/sw/modules/hal/boards/hvkit_rev1p1/f28x/f2802x/src/hal.h",line 548,column 3,i
    1606 00000049 DF06          ADDB      XAR7,#6               ; [CPU_] |548| 
    1607                      .dwpsn  file "D:/BM1000/sw/modules/hal/boards/hvkit_rev1p1/f28x/f2802x/src/hal.h",line 543,column 3,i
    1608 0000004a 1EE4          MOVL      *+XAR4[4],ACC         ; [CPU_] |543| 
    1609                      .dwpsn  file "D:/BM1000/sw/modules/hal/boards/hvkit_rev1p1/f28x/f2802x/src/hal.h",line 547,column 3,i
    1610 0000004b 8E95          MOVL      XAR0,*+XAR5[AR0]      ; [CPU_] |547| 
    1611                      .dwpsn  file "D:/BM1000/sw/drivers/adc/src/32b/f28x/f2802x/adc.h",line 684,column 3,is_stmt
    1612 0000004c 0EE1          MOVU      ACC,*+XAR1[4]         ; [CPU_] |684| 
    1613 0000004d 1EAC          MOVL      XT,ACC                ; [CPU_] |684| 
    1614                      .dwpsn  file "D:/BM1000/sw/modules/hal/boards/hvkit_rev1p1/f28x/f2802x/src/hal.h",line 547,column 3,i
    1615 0000004e 029E          MOVB      ACC,#158              ; [CPU_] |547| 
    1616 0000004f 5605          IMPYL     P,XT,XAR0             ; [CPU_] |547| 
         00000050 00A0 
    1617 00000051 07A5          ADDL      ACC,XAR5              ; [CPU_] |547| 
    1618 00000052 1EA6          MOVL      XAR6,ACC              ; [CPU_] |547| 
    1619 00000053 5663          QMPYL     ACC,XT,XAR0           ; [CPU_] |547| 
         00000054 00A0 
    1620 00000055 568B          ASR64     ACC:P,#12             ; [CPU_] |547| 
    1621 00000056 A9A9          MOVL      ACC,P                 ; [CPU_] |547| 
    1622 00000057 03C6          SUBL      ACC,*+XAR6[0]         ; [CPU_] |547| 
    1623                      .dwpsn  file "D:/BM1000/sw/modules/hal/boards/hvkit_rev1p1/f28x/f2802x/src/hal.h",line 548,column 3,i
    1624 00000058 1EC7          MOVL      *+XAR7[0],ACC         ; [CPU_] |548| 
    1625                      .dwpsn  file "D:/BM1000/sw/drivers/adc/src/32b/f28x/f2802x/adc.h",line 684,column 3,is_stmt
    1626 00000059 0EE9          MOVU      ACC,*+XAR1[5]         ; [CPU_] |684| 
    1627 0000005a 1EAC          MOVL      XT,ACC                ; [CPU_] |684| 
    1628                      .dwpsn  file "D:/BM1000/sw/modules/hal/boards/hvkit_rev1p1/f28x/f2802x/src/hal.h",line 552,column 3,i
TMS320C2000 Assembler PC v6.2.5 Sat Sep 16 15:41:34 2017

Tools Copyright (c) 1996-2014 Texas Instruments Incorporated
C:\Users\wmj\AppData\Local\Temp\1144410                              PAGE   33

    1629 0000005b 5605          IMPYL     P,XT,XAR0             ; [CPU_] |552| 
         0000005c 00A0 
    1630 0000005d 5663          QMPYL     ACC,XT,XAR0           ; [CPU_] |552| 
         0000005e 00A0 
    1631 0000005f 568B          ASR64     ACC:P,#12             ; [CPU_] |552| 
    1632 00000060 A9A9          MOVL      ACC,P                 ; [CPU_] |552| 
    1633 00000061 03D6          SUBL      ACC,*+XAR6[2]         ; [CPU_] |552| 
    1634                      .dwpsn  file "D:/BM1000/sw/modules/hal/boards/hvkit_rev1p1/f28x/f2802x/src/hal.h",line 553,column 3,i
    1635 00000062 1ED7          MOVL      *+XAR7[2],ACC         ; [CPU_] |553| 
    1636                      .dwpsn  file "D:/BM1000/sw/drivers/adc/src/32b/f28x/f2802x/adc.h",line 684,column 3,is_stmt
    1637 00000063 0EF1          MOVU      ACC,*+XAR1[6]         ; [CPU_] |684| 
    1638 00000064 1EAC          MOVL      XT,ACC                ; [CPU_] |684| 
    1639                      .dwpsn  file "D:/BM1000/sw/modules/hal/boards/hvkit_rev1p1/f28x/f2802x/src/hal.h",line 557,column 3,i
    1640 00000065 5605          IMPYL     P,XT,XAR0             ; [CPU_] |557| 
         00000066 00A0 
    1641 00000067 5663          QMPYL     ACC,XT,XAR0           ; [CPU_] |557| 
         00000068 00A0 
    1642 00000069 568B          ASR64     ACC:P,#12             ; [CPU_] |557| 
    1643 0000006a A9A9          MOVL      ACC,P                 ; [CPU_] |557| 
    1644 0000006b 03E6          SUBL      ACC,*+XAR6[4]         ; [CPU_] |557| 
    1645                      .dwpsn  file "D:/BM1000/sw/modules/hal/boards/hvkit_rev1p1/f28x/f2802x/src/hal.h",line 558,column 3,i
    1646 0000006c 1EE7          MOVL      *+XAR7[4],ACC         ; [CPU_] |558| 
    1647                      .dwpsn  file "D:/BM1000/sw/drivers/adc/src/32b/f28x/f2802x/adc.h",line 684,column 3,is_stmt
    1648 0000006d 0EF9          MOVU      ACC,*+XAR1[7]         ; [CPU_] |684| 
    1649 0000006e 1EAC          MOVL      XT,ACC                ; [CPU_] |684| 
    1650                      .dwpsn  file "D:/BM1000/sw/modules/hal/boards/hvkit_rev1p1/f28x/f2802x/src/hal.h",line 562,column 3,i
    1651 0000006f 5605          IMPYL     P,XT,XAR0             ; [CPU_] |562| 
         00000070 00A0 
    1652 00000071 5663          QMPYL     ACC,XT,XAR0           ; [CPU_] |562| 
         00000072 00A0 
    1653                      .dwpsn  file "D:/BM1000/sw/modules/hal/boards/hvkit_rev1p1/f28x/f2802x/src/hal.h",line 563,column 3,i
    1654 00000073 D00C          MOVB      XAR0,#12              ; [CPU_] |563| 
    1655                      .dwpsn  file "D:/BM1000/sw/modules/hal/boards/hvkit_rev1p1/f28x/f2802x/src/hal.h",line 562,column 3,i
    1656 00000074 568B          ASR64     ACC:P,#12             ; [CPU_] |562| 
    1657                      .dwpsn  file "D:/BM1000/sw/modules/hal/boards/hvkit_rev1p1/f28x/f2802x/src/hal.h",line 563,column 3,i
    1658 00000075 A994          MOVL      *+XAR4[AR0],P         ; [CPU_] |563| 
    1659                      .dwpsn  file "D:/BM1000/sw/drivers/adc/src/32b/f28x/f2802x/adc.h",line 684,column 3,is_stmt
    1660 00000076 D008          MOVB      XAR0,#8               ; [CPU_] |684| 
    1661 00000077 0E91          MOVU      ACC,*+XAR1[AR0]       ; [CPU_] |684| 
    1662                      .dwpsn  file "D:/BM1000/sw/modules/hal/boards/hvkit_rev1p1/f28x/f2802x/src/hal.h",line 567,column 4,i
    1663 00000078 D00E          MOVB      XAR0,#14              ; [CPU_] |567| 
    1664 00000079 1E94          MOVL      *+XAR4[AR0],ACC       ; [CPU_] |567| 
    1665                      .dwpsn  file "D:/BM1000/sw/drivers/adc/src/32b/f28x/f2802x/adc.h",line 684,column 3,is_stmt
    1666 0000007a D009          MOVB      XAR0,#9               ; [CPU_] |684| 
    1667 0000007b 0E91          MOVU      ACC,*+XAR1[AR0]       ; [CPU_] |684| 
    1668                      .dwpsn  file "D:/BM1000/sw/modules/hal/boards/hvkit_rev1p1/f28x/f2802x/src/hal.h",line 571,column 4,i
    1669 0000007c D010          MOVB      XAR0,#16              ; [CPU_] |571| 
    1670 0000007d 1E94          MOVL      *+XAR4[AR0],ACC       ; [CPU_] |571| 
    1671                      .dwpsn  file "D:/BM1000/sw/drivers/adc/src/32b/f28x/f2802x/adc.h",line 684,column 3,is_stmt
    1672 0000007e D00A          MOVB      XAR0,#10              ; [CPU_] |684| 
    1673 0000007f 0E91          MOVU      ACC,*+XAR1[AR0]       ; [CPU_] |684| 
    1674                      .dwpsn  file "D:/BM1000/sw/modules/hal/boards/hvkit_rev1p1/f28x/f2802x/src/hal.h",line 574,column 4,i
    1675 00000080 D014          MOVB      XAR0,#20              ; [CPU_] |574| 
    1676 00000081 1E94          MOVL      *+XAR4[AR0],ACC       ; [CPU_] |574| 
    1677                      .dwpsn  file "D:/BM1000/sw/drivers/adc/src/32b/f28x/f2802x/adc.h",line 684,column 3,is_stmt
TMS320C2000 Assembler PC v6.2.5 Sat Sep 16 15:41:34 2017

Tools Copyright (c) 1996-2014 Texas Instruments Incorporated
C:\Users\wmj\AppData\Local\Temp\1144410                              PAGE   34

    1678 00000082 D00B          MOVB      XAR0,#11              ; [CPU_] |684| 
    1679 00000083 0E91          MOVU      ACC,*+XAR1[AR0]       ; [CPU_] |684| 
    1680                      .dwpsn  file "D:/BM1000/sw/modules/hal/boards/hvkit_rev1p1/f28x/f2802x/src/hal.h",line 577,column 4,i
    1681 00000084 D012          MOVB      XAR0,#18              ; [CPU_] |577| 
    1682 00000085 1E94          MOVL      *+XAR4[AR0],ACC       ; [CPU_] |577| 
    1683                      .dwpsn  file "D:/BM1000/sw/solutions/instaspin_foc/src/proj_lab02b.c",line 466,column 3,is_stmt
    1684 00000086 A842          MOVL      *-SP[2],XAR4          ; [CPU_] |466| 
    1685 00000087 8F00-         MOVL      XAR4,#_gPwmData       ; [CPU_U] |466| 
         00000088 0010 
    1686 00000089 A844          MOVL      *-SP[4],XAR4          ; [CPU_] |466| 
    1687 0000008a 8A0A-         MOVL      XAR4,@_ctrlHandle     ; [CPU_] |466| 
    1688              $C$DW$206       .dwtag  DW_TAG_TI_branch
    1689                      .dwattr $C$DW$206, DW_AT_low_pc(0x00)
    1690                      .dwattr $C$DW$206, DW_AT_name("_CTRL_run")
    1691                      .dwattr $C$DW$206, DW_AT_TI_call
    1692 0000008b 7640!         LCR       #_CTRL_run            ; [CPU_] |466| 
         0000008c 0000 
    1693                      ; call occurs [#_CTRL_run] ; [] |466| 
    1694 0000008d 761F-         MOVW      DP,#_halHandle        ; [CPU_U] 
         0000008e 0000 
    1695 0000008f BE02          MOVB      XAR6,#2               ; [CPU_] 
    1696 00000090 3B01          SETC      SXM                   ; [CPU_] 
    1697 00000091 76C0-         MOVL      XAR7,#_gPwmData       ; [CPU_U] 
         00000092 0010 
    1698 00000093 0608-         MOVL      ACC,@_halHandle       ; [CPU_] 
    1699 00000094 097C          ADDB      ACC,#124              ; [CPU_] 
    1700 00000095 8AA9          MOVL      XAR4,ACC              ; [CPU_] 
    1701 00000096       $C$L5:    
    1702                      .dwpsn  file "D:/BM1000/sw/modules/hal/boards/hvkit_rev1p1/f28x/f2802x/src/hal.h",line 1112,column 7,
    1703 00000096 83C4          MOVL      XAR5,*+XAR4[0]        ; [CPU_] |1112| 
    1704                      .dwpsn  file "D:/BM1000/sw/drivers/pwm/src/32b/f28x/f2802x/pwm.h",line 1717,column 3,is_stmt
    1705 00000097 FF2F          MOV       ACC,#-512 << 15       ; [CPU_] |1717| 
         00000098 FE00 
    1706 00000099 8787          MOVL      XT,*XAR7++            ; [CPU_] |1717| 
    1707 0000009a 5605          IMPYL     P,XT,ACC              ; [CPU_] |1717| 
         0000009b 00A9 
    1708                      .dwpsn  file "D:/BM1000/sw/modules/hal/boards/hvkit_rev1p1/f28x/f2802x/src/hal.h",line 1112,column 7,
    1709 0000009c 58ED          MOVZ      AR0,*+XAR5[5]         ; [CPU_] |1112| 
    1710                      .dwpsn  file "D:/BM1000/sw/drivers/pwm/src/32b/f28x/f2802x/pwm.h",line 1717,column 3,is_stmt
    1711 0000009d 5663          QMPYL     ACC,XT,ACC            ; [CPU_] |1717| 
         0000009e 00A9 
    1712                      .dwpsn  file "D:/BM1000/sw/modules/hal/boards/hvkit_rev1p1/f28x/f2802x/src/hal.h",line 1109,column 13
    1713 0000009f DC02          ADDB      XAR4,#2               ; [CPU_] |1109| 
    1714                      .dwpsn  file "D:/BM1000/sw/drivers/pwm/src/32b/f28x/f2802x/pwm.h",line 1717,column 3,is_stmt
    1715 000000a0 56A7          LSL64     ACC:P,#8              ; [CPU_] |1717| 
    1716 000000a1 2BAB          MOV       PL,#0                 ; [CPU_] |1717| 
    1717 000000a2 28AA          MOV       PH,#128               ; [CPU_] |1717| 
         000000a3 0080 
    1718 000000a4 A9A2          MOVL      XAR2,P                ; [CPU_] |1717| 
    1719 000000a5 2BAB          MOV       PL,#0                 ; [CPU_] |1717| 
    1720 000000a6 28AA          MOV       PH,#65408             ; [CPU_] |1717| 
         000000a7 FF80 
    1721 000000a8 5650          MINL      ACC,XAR2              ; [CPU_] |1717| 
         000000a9 00A2 
    1722 000000aa 5661          MAXL      ACC,P                 ; [CPU_] |1717| 
TMS320C2000 Assembler PC v6.2.5 Sat Sep 16 15:41:34 2017

Tools Copyright (c) 1996-2014 Texas Instruments Incorporated
C:\Users\wmj\AppData\Local\Temp\1144410                              PAGE   35

         000000ab 00AB 
    1723 000000ac FF1F          ADD       ACC,#256 << 15        ; [CPU_] |1717| 
         000000ad 0100 
    1724 000000ae 1EAC          MOVL      XT,ACC                ; [CPU_] |1717| 
    1725 000000af 5605          IMPYL     P,XT,XAR0             ; [CPU_] |1717| 
         000000b0 00A0 
    1726 000000b1 5663          QMPYL     ACC,XT,XAR0           ; [CPU_] |1717| 
         000000b2 00A0 
    1727 000000b3 56A7          LSL64     ACC:P,#8              ; [CPU_] |1717| 
    1728 000000b4 3100          MOV       P,#0                  ; [CPU_] |1717| 
    1729 000000b5 5650          MINL      ACC,XAR0              ; [CPU_] |1717| 
         000000b6 00A0 
    1730 000000b7 D009          MOVB      XAR0,#9               ; [CPU_] |1717| 
    1731 000000b8 5661          MAXL      ACC,P                 ; [CPU_] |1717| 
         000000b9 00AB 
    1732 000000ba 9695          MOV       *+XAR5[AR0],AL        ; [CPU_] |1717| 
    1733                      .dwpsn  file "D:/BM1000/sw/modules/hal/boards/hvkit_rev1p1/f28x/f2802x/src/hal.h",line 1109,column 13
    1734 000000bb 000E          BANZ      $C$L5,AR6--           ; [CPU_] |1109| 
         000000bc FFDB 
    1735                      ; branchcc occurs ; [] |1109| 
    1736 000000bd 761F-         MOVW      DP,#_ctrlHandle       ; [CPU_U] 
         000000be 0000 
    1737                      .dwpsn  file "D:/BM1000/sw/solutions/instaspin_foc/src/proj_lab02b.c",line 474,column 3,is_stmt
    1738 000000bf 8A0A-         MOVL      XAR4,@_ctrlHandle     ; [CPU_] |474| 
    1739              $C$DW$207       .dwtag  DW_TAG_TI_branch
    1740                      .dwattr $C$DW$207, DW_AT_low_pc(0x00)
    1741                      .dwattr $C$DW$207, DW_AT_name("_CTRL_setup")
    1742                      .dwattr $C$DW$207, DW_AT_TI_call
    1743 000000c0 7640!         LCR       #_CTRL_setup          ; [CPU_] |474| 
         000000c1 0000 
    1744                      ; call occurs [#_CTRL_setup] ; [] |474| 
    1745 000000c2 FE84          SUBB      SP,#4                 ; [CPU_U] 
    1746                      .dwcfi  cfa_offset, -16
    1747 000000c3 C5BE          MOVL      XAR7,*--SP            ; [CPU_] 
    1748                      .dwcfi  cfa_offset, -14
    1749                      .dwcfi  restore_reg, 18
    1750 000000c4 C4BE          MOVL      XAR6,*--SP            ; [CPU_] 
    1751                      .dwcfi  cfa_offset, -12
    1752                      .dwcfi  restore_reg, 16
    1753 000000c5 83BE          MOVL      XAR5,*--SP            ; [CPU_] 
    1754                      .dwcfi  cfa_offset, -10
    1755                      .dwcfi  restore_reg, 14
    1756 000000c6 8ABE          MOVL      XAR4,*--SP            ; [CPU_] 
    1757                      .dwcfi  cfa_offset, -8
    1758                      .dwcfi  restore_reg, 12
    1759 000000c7 86BE          MOVL      XAR2,*--SP            ; [CPU_] 
    1760                      .dwcfi  cfa_offset, -6
    1761                      .dwcfi  restore_reg, 8
    1762 000000c8 87BE          MOVL      XT,*--SP              ; [CPU_] 
    1763                      .dwcfi  cfa_offset, -4
    1764                      .dwcfi  restore_reg, 22
    1765                      .dwcfi  restore_reg, 21
    1766 000000c9 0003          POP       AR1H:AR0H             ; [CPU_] 
    1767                      .dwcfi  cfa_offset, -2
    1768                      .dwcfi  restore_reg, 5
TMS320C2000 Assembler PC v6.2.5 Sat Sep 16 15:41:34 2017

Tools Copyright (c) 1996-2014 Texas Instruments Incorporated
C:\Users\wmj\AppData\Local\Temp\1144410                              PAGE   36

    1769                      .dwcfi  restore_reg, 7
    1770 000000ca 7617          NASP      ; [CPU_] 
    1771              $C$DW$208       .dwtag  DW_TAG_TI_branch
    1772                      .dwattr $C$DW$208, DW_AT_low_pc(0x00)
    1773                      .dwattr $C$DW$208, DW_AT_TI_return
    1774 000000cb 7602          IRET      ; [CPU_] 
    1775                      ; return occurs ; [] 
    1776                      .dwattr $C$DW$191, DW_AT_TI_end_file("D:/BM1000/sw/solutions/instaspin_foc/src/proj_lab02b.c")
    1777                      .dwattr $C$DW$191, DW_AT_TI_end_line(0x1de)
    1778                      .dwattr $C$DW$191, DW_AT_TI_end_column(0x01)
    1779                      .dwendentry
    1780                      .dwendtag $C$DW$191
    1781              
    1782 000000f2               .sect   ".text"
    1783                      .clink
    1784                      .global _acim_Dir_qFmtCalc
    1785              
    1786              $C$DW$209       .dwtag  DW_TAG_subprogram, DW_AT_name("acim_Dir_qFmtCalc")
    1787                      .dwattr $C$DW$209, DW_AT_low_pc(_acim_Dir_qFmtCalc)
    1788                      .dwattr $C$DW$209, DW_AT_high_pc(0x00)
    1789                      .dwattr $C$DW$209, DW_AT_TI_symbol_name("_acim_Dir_qFmtCalc")
    1790                      .dwattr $C$DW$209, DW_AT_external
    1791                      .dwattr $C$DW$209, DW_AT_TI_begin_file("D:/BM1000/sw/solutions/instaspin_foc/src/proj_lab02b.c")
    1792                      .dwattr $C$DW$209, DW_AT_TI_begin_line(0x248)
    1793                      .dwattr $C$DW$209, DW_AT_TI_begin_column(0x06)
    1794                      .dwattr $C$DW$209, DW_AT_TI_max_frame_size(-4)
    1795                      .dwpsn  file "D:/BM1000/sw/solutions/instaspin_foc/src/proj_lab02b.c",line 585,column 1,is_stmt,addre
    1796              
    1797                      .dwfde $C$DW$CIE, _acim_Dir_qFmtCalc
    1798              $C$DW$210       .dwtag  DW_TAG_formal_parameter, DW_AT_name("handle")
    1799                      .dwattr $C$DW$210, DW_AT_TI_symbol_name("_handle")
    1800                      .dwattr $C$DW$210, DW_AT_type(*$C$DW$T$241)
    1801                      .dwattr $C$DW$210, DW_AT_location[DW_OP_reg12]
    1802              
    1803              ;***************************************************************
    1804              ;* FNAME: _acim_Dir_qFmtCalc            FR SIZE:   2           *
    1805              ;*                                                             *
    1806              ;* FUNCTION ENVIRONMENT                                        *
    1807              ;*                                                             *
    1808              ;* FUNCTION PROPERTIES                                         *
    1809              ;*                            0 Parameter,  0 Auto,  2 SOE     *
    1810              ;***************************************************************
    1811              
    1812              _acim_Dir_qFmtCalc:
    1813              ;* AR1   assigned to _handle
    1814              $C$DW$211       .dwtag  DW_TAG_variable, DW_AT_name("handle")
    1815                      .dwattr $C$DW$211, DW_AT_TI_symbol_name("_handle")
    1816                      .dwattr $C$DW$211, DW_AT_type(*$C$DW$T$270)
    1817                      .dwattr $C$DW$211, DW_AT_location[DW_OP_reg6]
    1818                      .dwcfi  cfa_offset, -2
    1819                      .dwcfi  save_reg_to_mem, 26, 0
    1820                      .dwcfi  save_reg_to_reg, 78, 26
    1821 000000f2 B2BD          MOVL      *SP++,XAR1            ; [CPU_] 
    1822                      .dwcfi  save_reg_to_mem, 7, 2
    1823                      .dwcfi  cfa_offset, -4
TMS320C2000 Assembler PC v6.2.5 Sat Sep 16 15:41:34 2017

Tools Copyright (c) 1996-2014 Texas Instruments Incorporated
C:\Users\wmj\AppData\Local\Temp\1144410                              PAGE   37

    1824                      .dwpsn  file "D:/BM1000/sw/solutions/instaspin_foc/src/proj_lab02b.c",line 587,column 24,is_stmt
    1825 000000f3 D018          MOVB      XAR0,#24              ; [CPU_] |587| 
    1826                      .dwpsn  file "D:/BM1000/sw/solutions/instaspin_foc/src/proj_lab02b.c",line 585,column 1,is_stmt
    1827 000000f4 8BA4          MOVL      XAR1,XAR4             ; [CPU_] |585| 
    1828                      .dwpsn  file "D:/BM1000/sw/solutions/instaspin_foc/src/proj_lab02b.c",line 587,column 24,is_stmt
    1829 000000f5 8A91          MOVL      XAR4,*+XAR1[AR0]      ; [CPU_] |587| 
    1830              $C$DW$212       .dwtag  DW_TAG_TI_branch
    1831                      .dwattr $C$DW$212, DW_AT_low_pc(0x00)
    1832                      .dwattr $C$DW$212, DW_AT_name("_EST_getState")
    1833                      .dwattr $C$DW$212, DW_AT_TI_call
    1834 000000f6 7640!         LCR       #_EST_getState        ; [CPU_] |587| 
         000000f7 0000 
    1835                      ; call occurs [#_EST_getState] ; [] |587| 
    1836 000000f8 5205          CMPB      AL,#5                 ; [CPU_] |587| 
    1837 000000f9 ED0D          BF        $C$L6,NEQ             ; [CPU_] |587| 
    1838                      ; branchcc occurs ; [] |587| 
    1839                      .dwpsn  file "D:/BM1000/sw/solutions/instaspin_foc/src/proj_lab02b.c",line 591,column 7,is_stmt
    1840 000000fa D018          MOVB      XAR0,#24              ; [CPU_] |591| 
    1841 000000fb 28A9          MOV       AL,#13107             ; [CPU_] |591| 
         000000fc 3333 
    1842 000000fd 28A8          MOV       AH,#16179             ; [CPU_] |591| 
         000000fe 3F33 
    1843 000000ff 8A91          MOVL      XAR4,*+XAR1[AR0]      ; [CPU_] |591| 
    1844              $C$DW$213       .dwtag  DW_TAG_TI_branch
    1845                      .dwattr $C$DW$213, DW_AT_low_pc(0x00)
    1846                      .dwattr $C$DW$213, DW_AT_name("_EST_computeDirection_qFmt")
    1847                      .dwattr $C$DW$213, DW_AT_TI_call
    1848 00000100 7640!         LCR       #_EST_computeDirection_qFmt ; [CPU_] |591| 
         00000101 0000 
    1849                      ; call occurs [#_EST_computeDirection_qFmt] ; [] |591| 
    1850 00000102 D018          MOVB      XAR0,#24              ; [CPU_] |591| 
    1851 00000103 8A91          MOVL      XAR4,*+XAR1[AR0]      ; [CPU_] |591| 
    1852              $C$DW$214       .dwtag  DW_TAG_TI_branch
    1853                      .dwattr $C$DW$214, DW_AT_low_pc(0x00)
    1854                      .dwattr $C$DW$214, DW_AT_name("_EST_setDir_qFmt")
    1855                      .dwattr $C$DW$214, DW_AT_TI_call
    1856 00000104 7640!         LCR       #_EST_setDir_qFmt     ; [CPU_] |591| 
         00000105 0000 
    1857                      ; call occurs [#_EST_setDir_qFmt] ; [] |591| 
    1858 00000106       $C$L6:    
    1859 00000106 8BBE          MOVL      XAR1,*--SP            ; [CPU_] 
    1860                      .dwcfi  cfa_offset, -2
    1861                      .dwcfi  restore_reg, 7
    1862              $C$DW$215       .dwtag  DW_TAG_TI_branch
    1863                      .dwattr $C$DW$215, DW_AT_low_pc(0x00)
    1864                      .dwattr $C$DW$215, DW_AT_TI_return
    1865 00000107 0006          LRETR     ; [CPU_] 
    1866                      ; return occurs ; [] 
    1867                      .dwattr $C$DW$209, DW_AT_TI_end_file("D:/BM1000/sw/solutions/instaspin_foc/src/proj_lab02b.c")
    1868                      .dwattr $C$DW$209, DW_AT_TI_end_line(0x253)
    1869                      .dwattr $C$DW$209, DW_AT_TI_end_column(0x01)
    1870                      .dwendentry
    1871                      .dwendtag $C$DW$209
    1872              
    1873 00000108               .sect   ".text"
TMS320C2000 Assembler PC v6.2.5 Sat Sep 16 15:41:34 2017

Tools Copyright (c) 1996-2014 Texas Instruments Incorporated
C:\Users\wmj\AppData\Local\Temp\1144410                              PAGE   38

    1874                      .clink
    1875                      .global _main
    1876              
    1877              $C$DW$216       .dwtag  DW_TAG_subprogram, DW_AT_name("main")
    1878                      .dwattr $C$DW$216, DW_AT_low_pc(_main)
    1879                      .dwattr $C$DW$216, DW_AT_high_pc(0x00)
    1880                      .dwattr $C$DW$216, DW_AT_TI_symbol_name("_main")
    1881                      .dwattr $C$DW$216, DW_AT_external
    1882                      .dwattr $C$DW$216, DW_AT_TI_begin_file("D:/BM1000/sw/solutions/instaspin_foc/src/proj_lab02b.c")
    1883                      .dwattr $C$DW$216, DW_AT_TI_begin_line(0x87)
    1884                      .dwattr $C$DW$216, DW_AT_TI_begin_column(0x06)
    1885                      .dwattr $C$DW$216, DW_AT_TI_max_frame_size(-24)
    1886                      .dwpsn  file "D:/BM1000/sw/solutions/instaspin_foc/src/proj_lab02b.c",line 136,column 1,is_stmt,addre
    1887              
    1888                      .dwfde $C$DW$CIE, _main
    1889              
    1890              ;***************************************************************
    1891              ;* FNAME: _main                         FR SIZE:  22           *
    1892              ;*                                                             *
    1893              ;* FUNCTION ENVIRONMENT                                        *
    1894              ;*                                                             *
    1895              ;* FUNCTION PROPERTIES                                         *
    1896              ;*                            2 Parameter, 14 Auto,  6 SOE     *
    1897              ;***************************************************************
    1898              
    1899              _main:
    1900              ;* AR4   assigned to $O$C14
    1901              ;* AR4   assigned to $O$C15
    1902              ;* AR4   assigned to $O$C16
    1903              ;* AR4   assigned to $O$C17
    1904              ;* AR4   assigned to $O$C18
    1905              ;* AR4   assigned to $O$C19
    1906              ;* AR6   assigned to $O$C20
    1907              ;* AR4   assigned to $O$C21
    1908              ;* AR5   assigned to $O$C22
    1909              ;* AR4   assigned to $O$C23
    1910              ;* AR6   assigned to $O$C24
    1911              ;* AR0   assigned to $O$C25
    1912              ;* AR6   assigned to $O$C26
    1913              ;* AR0   assigned to $O$C27
    1914              ;* AR4   assigned to $O$C28
    1915              ;* AR4   assigned to $O$C29
    1916              ;* AR5   assigned to _pie
    1917              $C$DW$217       .dwtag  DW_TAG_variable, DW_AT_name("pie")
    1918                      .dwattr $C$DW$217, DW_AT_TI_symbol_name("_pie")
    1919                      .dwattr $C$DW$217, DW_AT_type(*$C$DW$T$300)
    1920                      .dwattr $C$DW$217, DW_AT_location[DW_OP_reg14]
    1921              ;* AR5   assigned to _pwmHandle
    1922              $C$DW$218       .dwtag  DW_TAG_variable, DW_AT_name("pwmHandle")
    1923                      .dwattr $C$DW$218, DW_AT_TI_symbol_name("_pwmHandle")
    1924                      .dwattr $C$DW$218, DW_AT_type(*$C$DW$T$113)
    1925                      .dwattr $C$DW$218, DW_AT_location[DW_OP_reg14]
    1926              ;* AR5   assigned to _pwmHandle
    1927              $C$DW$219       .dwtag  DW_TAG_variable, DW_AT_name("pwmHandle")
    1928                      .dwattr $C$DW$219, DW_AT_TI_symbol_name("_pwmHandle")
TMS320C2000 Assembler PC v6.2.5 Sat Sep 16 15:41:34 2017

Tools Copyright (c) 1996-2014 Texas Instruments Incorporated
C:\Users\wmj\AppData\Local\Temp\1144410                              PAGE   39

    1929                      .dwattr $C$DW$219, DW_AT_type(*$C$DW$T$113)
    1930                      .dwattr $C$DW$219, DW_AT_location[DW_OP_reg14]
    1931              ;* AR4   assigned to _pwmHandle
    1932              $C$DW$220       .dwtag  DW_TAG_variable, DW_AT_name("pwmHandle")
    1933                      .dwattr $C$DW$220, DW_AT_TI_symbol_name("_pwmHandle")
    1934                      .dwattr $C$DW$220, DW_AT_type(*$C$DW$T$113)
    1935                      .dwattr $C$DW$220, DW_AT_location[DW_OP_reg12]
    1936              ;* AR4   assigned to _obj
    1937              $C$DW$221       .dwtag  DW_TAG_variable, DW_AT_name("obj")
    1938                      .dwattr $C$DW$221, DW_AT_TI_symbol_name("_obj")
    1939                      .dwattr $C$DW$221, DW_AT_type(*$C$DW$T$286)
    1940                      .dwattr $C$DW$221, DW_AT_location[DW_OP_reg12]
    1941              ;* AR5   assigned to _pwmHandle
    1942              $C$DW$222       .dwtag  DW_TAG_variable, DW_AT_name("pwmHandle")
    1943                      .dwattr $C$DW$222, DW_AT_TI_symbol_name("_pwmHandle")
    1944                      .dwattr $C$DW$222, DW_AT_type(*$C$DW$T$113)
    1945                      .dwattr $C$DW$222, DW_AT_location[DW_OP_reg14]
    1946              ;* AR5   assigned to _pwmHandle
    1947              $C$DW$223       .dwtag  DW_TAG_variable, DW_AT_name("pwmHandle")
    1948                      .dwattr $C$DW$223, DW_AT_TI_symbol_name("_pwmHandle")
    1949                      .dwattr $C$DW$223, DW_AT_type(*$C$DW$T$113)
    1950                      .dwattr $C$DW$223, DW_AT_location[DW_OP_reg14]
    1951              ;* AR4   assigned to _pwmHandle
    1952              $C$DW$224       .dwtag  DW_TAG_variable, DW_AT_name("pwmHandle")
    1953                      .dwattr $C$DW$224, DW_AT_TI_symbol_name("_pwmHandle")
    1954                      .dwattr $C$DW$224, DW_AT_type(*$C$DW$T$113)
    1955                      .dwattr $C$DW$224, DW_AT_location[DW_OP_reg12]
    1956              ;* AR4   assigned to _obj
    1957              $C$DW$225       .dwtag  DW_TAG_variable, DW_AT_name("obj")
    1958                      .dwattr $C$DW$225, DW_AT_TI_symbol_name("_obj")
    1959                      .dwattr $C$DW$225, DW_AT_type(*$C$DW$T$286)
    1960                      .dwattr $C$DW$225, DW_AT_location[DW_OP_reg12]
    1961              ;* AH    assigned to _state
    1962              $C$DW$226       .dwtag  DW_TAG_variable, DW_AT_name("state")
    1963                      .dwattr $C$DW$226, DW_AT_TI_symbol_name("_state")
    1964                      .dwattr $C$DW$226, DW_AT_type(*$C$DW$T$72)
    1965                      .dwattr $C$DW$226, DW_AT_location[DW_OP_reg1]
    1966              ;* AR5   assigned to _pwmHandle
    1967              $C$DW$227       .dwtag  DW_TAG_variable, DW_AT_name("pwmHandle")
    1968                      .dwattr $C$DW$227, DW_AT_TI_symbol_name("_pwmHandle")
    1969                      .dwattr $C$DW$227, DW_AT_type(*$C$DW$T$113)
    1970                      .dwattr $C$DW$227, DW_AT_location[DW_OP_reg14]
    1971              ;* AR5   assigned to _pwmHandle
    1972              $C$DW$228       .dwtag  DW_TAG_variable, DW_AT_name("pwmHandle")
    1973                      .dwattr $C$DW$228, DW_AT_TI_symbol_name("_pwmHandle")
    1974                      .dwattr $C$DW$228, DW_AT_type(*$C$DW$T$113)
    1975                      .dwattr $C$DW$228, DW_AT_location[DW_OP_reg14]
    1976              ;* AR4   assigned to _pwmHandle
    1977              $C$DW$229       .dwtag  DW_TAG_variable, DW_AT_name("pwmHandle")
    1978                      .dwattr $C$DW$229, DW_AT_TI_symbol_name("_pwmHandle")
    1979                      .dwattr $C$DW$229, DW_AT_type(*$C$DW$T$113)
    1980                      .dwattr $C$DW$229, DW_AT_location[DW_OP_reg12]
    1981              ;* AR4   assigned to _obj
    1982              $C$DW$230       .dwtag  DW_TAG_variable, DW_AT_name("obj")
    1983                      .dwattr $C$DW$230, DW_AT_TI_symbol_name("_obj")
TMS320C2000 Assembler PC v6.2.5 Sat Sep 16 15:41:34 2017

Tools Copyright (c) 1996-2014 Texas Instruments Incorporated
C:\Users\wmj\AppData\Local\Temp\1144410                              PAGE   40

    1984                      .dwattr $C$DW$230, DW_AT_type(*$C$DW$T$286)
    1985                      .dwattr $C$DW$230, DW_AT_location[DW_OP_reg12]
    1986              ;* AR5   assigned to _handle
    1987              $C$DW$231       .dwtag  DW_TAG_variable, DW_AT_name("handle")
    1988                      .dwattr $C$DW$231, DW_AT_TI_symbol_name("_handle")
    1989                      .dwattr $C$DW$231, DW_AT_type(*$C$DW$T$102)
    1990                      .dwattr $C$DW$231, DW_AT_location[DW_OP_reg14]
    1991              ;* XT    assigned to _bias
    1992              $C$DW$232       .dwtag  DW_TAG_variable, DW_AT_name("bias")
    1993                      .dwattr $C$DW$232, DW_AT_TI_symbol_name("_bias")
    1994                      .dwattr $C$DW$232, DW_AT_type(*$C$DW$T$33)
    1995                      .dwattr $C$DW$232, DW_AT_location[DW_OP_reg21]
    1996              ;* AR5   assigned to _handle
    1997              $C$DW$233       .dwtag  DW_TAG_variable, DW_AT_name("handle")
    1998                      .dwattr $C$DW$233, DW_AT_TI_symbol_name("_handle")
    1999                      .dwattr $C$DW$233, DW_AT_type(*$C$DW$T$102)
    2000                      .dwattr $C$DW$233, DW_AT_location[DW_OP_reg14]
    2001              ;* AR4   assigned to _handle
    2002              $C$DW$234       .dwtag  DW_TAG_variable, DW_AT_name("handle")
    2003                      .dwattr $C$DW$234, DW_AT_TI_symbol_name("_handle")
    2004                      .dwattr $C$DW$234, DW_AT_type(*$C$DW$T$208)
    2005                      .dwattr $C$DW$234, DW_AT_location[DW_OP_reg12]
    2006              ;* AR4   assigned to _obj
    2007              $C$DW$235       .dwtag  DW_TAG_variable, DW_AT_name("obj")
    2008                      .dwattr $C$DW$235, DW_AT_TI_symbol_name("_obj")
    2009                      .dwattr $C$DW$235, DW_AT_type(*$C$DW$T$286)
    2010                      .dwattr $C$DW$235, DW_AT_location[DW_OP_reg12]
    2011              ;* AL    assigned to _bias
    2012              $C$DW$236       .dwtag  DW_TAG_variable, DW_AT_name("bias")
    2013                      .dwattr $C$DW$236, DW_AT_TI_symbol_name("_bias")
    2014                      .dwattr $C$DW$236, DW_AT_type(*$C$DW$T$33)
    2015                      .dwattr $C$DW$236, DW_AT_location[DW_OP_reg0]
    2016              ;* AL    assigned to _bias
    2017              $C$DW$237       .dwtag  DW_TAG_variable, DW_AT_name("bias")
    2018                      .dwattr $C$DW$237, DW_AT_TI_symbol_name("_bias")
    2019                      .dwattr $C$DW$237, DW_AT_type(*$C$DW$T$33)
    2020                      .dwattr $C$DW$237, DW_AT_location[DW_OP_reg0]
    2021              ;* AL    assigned to _bias
    2022              $C$DW$238       .dwtag  DW_TAG_variable, DW_AT_name("bias")
    2023                      .dwattr $C$DW$238, DW_AT_TI_symbol_name("_bias")
    2024                      .dwattr $C$DW$238, DW_AT_type(*$C$DW$T$33)
    2025                      .dwattr $C$DW$238, DW_AT_location[DW_OP_reg0]
    2026              ;* AR5   assigned to _pwmHandle
    2027              $C$DW$239       .dwtag  DW_TAG_variable, DW_AT_name("pwmHandle")
    2028                      .dwattr $C$DW$239, DW_AT_TI_symbol_name("_pwmHandle")
    2029                      .dwattr $C$DW$239, DW_AT_type(*$C$DW$T$113)
    2030                      .dwattr $C$DW$239, DW_AT_location[DW_OP_reg14]
    2031              ;* AR5   assigned to _pwmHandle
    2032              $C$DW$240       .dwtag  DW_TAG_variable, DW_AT_name("pwmHandle")
    2033                      .dwattr $C$DW$240, DW_AT_TI_symbol_name("_pwmHandle")
    2034                      .dwattr $C$DW$240, DW_AT_type(*$C$DW$T$113)
    2035                      .dwattr $C$DW$240, DW_AT_location[DW_OP_reg14]
    2036              ;* AR4   assigned to _pwmHandle
    2037              $C$DW$241       .dwtag  DW_TAG_variable, DW_AT_name("pwmHandle")
    2038                      .dwattr $C$DW$241, DW_AT_TI_symbol_name("_pwmHandle")
TMS320C2000 Assembler PC v6.2.5 Sat Sep 16 15:41:34 2017

Tools Copyright (c) 1996-2014 Texas Instruments Incorporated
C:\Users\wmj\AppData\Local\Temp\1144410                              PAGE   41

    2039                      .dwattr $C$DW$241, DW_AT_type(*$C$DW$T$113)
    2040                      .dwattr $C$DW$241, DW_AT_location[DW_OP_reg12]
    2041              ;* AR5   assigned to _pwmHandle
    2042              $C$DW$242       .dwtag  DW_TAG_variable, DW_AT_name("pwmHandle")
    2043                      .dwattr $C$DW$242, DW_AT_TI_symbol_name("_pwmHandle")
    2044                      .dwattr $C$DW$242, DW_AT_type(*$C$DW$T$113)
    2045                      .dwattr $C$DW$242, DW_AT_location[DW_OP_reg14]
    2046              ;* AR5   assigned to _pwmHandle
    2047              $C$DW$243       .dwtag  DW_TAG_variable, DW_AT_name("pwmHandle")
    2048                      .dwattr $C$DW$243, DW_AT_TI_symbol_name("_pwmHandle")
    2049                      .dwattr $C$DW$243, DW_AT_type(*$C$DW$T$113)
    2050                      .dwattr $C$DW$243, DW_AT_location[DW_OP_reg14]
    2051              ;* AR4   assigned to _pwmHandle
    2052              $C$DW$244       .dwtag  DW_TAG_variable, DW_AT_name("pwmHandle")
    2053                      .dwattr $C$DW$244, DW_AT_TI_symbol_name("_pwmHandle")
    2054                      .dwattr $C$DW$244, DW_AT_type(*$C$DW$T$113)
    2055                      .dwattr $C$DW$244, DW_AT_location[DW_OP_reg12]
    2056              ;* AR4   assigned to _obj
    2057              $C$DW$245       .dwtag  DW_TAG_variable, DW_AT_name("obj")
    2058                      .dwattr $C$DW$245, DW_AT_TI_symbol_name("_obj")
    2059                      .dwattr $C$DW$245, DW_AT_type(*$C$DW$T$286)
    2060                      .dwattr $C$DW$245, DW_AT_location[DW_OP_reg12]
    2061              ;* AL    assigned to _maxAccel_pu
    2062              $C$DW$246       .dwtag  DW_TAG_variable, DW_AT_name("maxAccel_pu")
    2063                      .dwattr $C$DW$246, DW_AT_TI_symbol_name("_maxAccel_pu")
    2064                      .dwattr $C$DW$246, DW_AT_type(*$C$DW$T$33)
    2065                      .dwattr $C$DW$246, DW_AT_location[DW_OP_reg0]
    2066              ;* AL    assigned to _state
    2067              $C$DW$247       .dwtag  DW_TAG_variable, DW_AT_name("state")
    2068                      .dwattr $C$DW$247, DW_AT_TI_symbol_name("_state")
    2069                      .dwattr $C$DW$247, DW_AT_type(*$C$DW$T$72)
    2070                      .dwattr $C$DW$247, DW_AT_location[DW_OP_reg0]
    2071              ;* AR5   assigned to _pwmHandle
    2072              $C$DW$248       .dwtag  DW_TAG_variable, DW_AT_name("pwmHandle")
    2073                      .dwattr $C$DW$248, DW_AT_TI_symbol_name("_pwmHandle")
    2074                      .dwattr $C$DW$248, DW_AT_type(*$C$DW$T$113)
    2075                      .dwattr $C$DW$248, DW_AT_location[DW_OP_reg14]
    2076              ;* AR5   assigned to _pwmHandle
    2077              $C$DW$249       .dwtag  DW_TAG_variable, DW_AT_name("pwmHandle")
    2078                      .dwattr $C$DW$249, DW_AT_TI_symbol_name("_pwmHandle")
    2079                      .dwattr $C$DW$249, DW_AT_type(*$C$DW$T$113)
    2080                      .dwattr $C$DW$249, DW_AT_location[DW_OP_reg14]
    2081              ;* AR4   assigned to _pwmHandle
    2082              $C$DW$250       .dwtag  DW_TAG_variable, DW_AT_name("pwmHandle")
    2083                      .dwattr $C$DW$250, DW_AT_TI_symbol_name("_pwmHandle")
    2084                      .dwattr $C$DW$250, DW_AT_type(*$C$DW$T$113)
    2085                      .dwattr $C$DW$250, DW_AT_location[DW_OP_reg12]
    2086              ;* AR4   assigned to _obj
    2087              $C$DW$251       .dwtag  DW_TAG_variable, DW_AT_name("obj")
    2088                      .dwattr $C$DW$251, DW_AT_TI_symbol_name("_obj")
    2089                      .dwattr $C$DW$251, DW_AT_type(*$C$DW$T$286)
    2090                      .dwattr $C$DW$251, DW_AT_location[DW_OP_reg12]
    2091              ;* AL    assigned to _estState
    2092              $C$DW$252       .dwtag  DW_TAG_variable, DW_AT_name("estState")
    2093                      .dwattr $C$DW$252, DW_AT_TI_symbol_name("_estState")
TMS320C2000 Assembler PC v6.2.5 Sat Sep 16 15:41:34 2017

Tools Copyright (c) 1996-2014 Texas Instruments Incorporated
C:\Users\wmj\AppData\Local\Temp\1144410                              PAGE   42

    2094                      .dwattr $C$DW$252, DW_AT_type(*$C$DW$T$175)
    2095                      .dwattr $C$DW$252, DW_AT_location[DW_OP_reg0]
    2096              ;* AR1   assigned to _ctrlState
    2097              $C$DW$253       .dwtag  DW_TAG_variable, DW_AT_name("ctrlState")
    2098                      .dwattr $C$DW$253, DW_AT_TI_symbol_name("_ctrlState")
    2099                      .dwattr $C$DW$253, DW_AT_type(*$C$DW$T$42)
    2100                      .dwattr $C$DW$253, DW_AT_location[DW_OP_reg6]
    2101              ;* AL    assigned to _flag_ctrlStateChanged
    2102              $C$DW$254       .dwtag  DW_TAG_variable, DW_AT_name("flag_ctrlStateChanged")
    2103                      .dwattr $C$DW$254, DW_AT_TI_symbol_name("_flag_ctrlStateChanged")
    2104                      .dwattr $C$DW$254, DW_AT_type(*$C$DW$T$72)
    2105                      .dwattr $C$DW$254, DW_AT_location[DW_OP_reg0]
    2106              ;* AR2   assigned to _obj
    2107              $C$DW$255       .dwtag  DW_TAG_variable, DW_AT_name("obj")
    2108                      .dwattr $C$DW$255, DW_AT_TI_symbol_name("_obj")
    2109                      .dwattr $C$DW$255, DW_AT_type(*$C$DW$T$269)
    2110                      .dwattr $C$DW$255, DW_AT_location[DW_OP_reg8]
    2111              ;* XT    assigned to _bias
    2112              $C$DW$256       .dwtag  DW_TAG_variable, DW_AT_name("bias")
    2113                      .dwattr $C$DW$256, DW_AT_TI_symbol_name("_bias")
    2114                      .dwattr $C$DW$256, DW_AT_type(*$C$DW$T$33)
    2115                      .dwattr $C$DW$256, DW_AT_location[DW_OP_reg21]
    2116              ;* AR7   assigned to _cnt
    2117              $C$DW$257       .dwtag  DW_TAG_variable, DW_AT_name("cnt")
    2118                      .dwattr $C$DW$257, DW_AT_TI_symbol_name("_cnt")
    2119                      .dwattr $C$DW$257, DW_AT_type(*$C$DW$T$34)
    2120                      .dwattr $C$DW$257, DW_AT_location[DW_OP_reg18]
    2121              ;* AR7   assigned to _cnt
    2122              $C$DW$258       .dwtag  DW_TAG_variable, DW_AT_name("cnt")
    2123                      .dwattr $C$DW$258, DW_AT_TI_symbol_name("_cnt")
    2124                      .dwattr $C$DW$258, DW_AT_type(*$C$DW$T$34)
    2125                      .dwattr $C$DW$258, DW_AT_location[DW_OP_reg18]
    2126              ;* XT    assigned to _bias
    2127              $C$DW$259       .dwtag  DW_TAG_variable, DW_AT_name("bias")
    2128                      .dwattr $C$DW$259, DW_AT_TI_symbol_name("_bias")
    2129                      .dwattr $C$DW$259, DW_AT_type(*$C$DW$T$33)
    2130                      .dwattr $C$DW$259, DW_AT_location[DW_OP_reg21]
    2131              ;* XT    assigned to _bias
    2132              $C$DW$260       .dwtag  DW_TAG_variable, DW_AT_name("bias")
    2133                      .dwattr $C$DW$260, DW_AT_TI_symbol_name("_bias")
    2134                      .dwattr $C$DW$260, DW_AT_type(*$C$DW$T$33)
    2135                      .dwattr $C$DW$260, DW_AT_location[DW_OP_reg21]
    2136              ;* AL    assigned to _bias
    2137              $C$DW$261       .dwtag  DW_TAG_variable, DW_AT_name("bias")
    2138                      .dwattr $C$DW$261, DW_AT_TI_symbol_name("_bias")
    2139                      .dwattr $C$DW$261, DW_AT_type(*$C$DW$T$33)
    2140                      .dwattr $C$DW$261, DW_AT_location[DW_OP_reg0]
    2141              ;* AL    assigned to _bias
    2142              $C$DW$262       .dwtag  DW_TAG_variable, DW_AT_name("bias")
    2143                      .dwattr $C$DW$262, DW_AT_TI_symbol_name("_bias")
    2144                      .dwattr $C$DW$262, DW_AT_type(*$C$DW$T$33)
    2145                      .dwattr $C$DW$262, DW_AT_location[DW_OP_reg0]
    2146              ;* AL    assigned to _bias
    2147              $C$DW$263       .dwtag  DW_TAG_variable, DW_AT_name("bias")
    2148                      .dwattr $C$DW$263, DW_AT_TI_symbol_name("_bias")
TMS320C2000 Assembler PC v6.2.5 Sat Sep 16 15:41:34 2017

Tools Copyright (c) 1996-2014 Texas Instruments Incorporated
C:\Users\wmj\AppData\Local\Temp\1144410                              PAGE   43

    2149                      .dwattr $C$DW$263, DW_AT_type(*$C$DW$T$33)
    2150                      .dwattr $C$DW$263, DW_AT_location[DW_OP_reg0]
    2151              ;* AR4   assigned to $O$v1
    2152              ;* AR1   assigned to $O$K21
    2153              ;* AR3   assigned to $O$K21
    2154              ;* AR6   assigned to $O$K21
    2155              ;* AR3   assigned to $O$K21
    2156              ;* AR1   assigned to $O$K21
    2157              ;* AR4   assigned to $O$v2
    2158              ;* AR4   assigned to $O$v2
    2159              ;* AR1   assigned to $O$v2
    2160              ;* AR2   assigned to $O$v2
    2161              ;* AR4   assigned to $O$v3
    2162              ;* AR4   assigned to $O$v3
    2163              ;* PL    assigned to $O$v3
    2164              $C$DW$264       .dwtag  DW_TAG_variable, DW_AT_name("version")
    2165                      .dwattr $C$DW$264, DW_AT_TI_symbol_name("_version")
    2166                      .dwattr $C$DW$264, DW_AT_type(*$C$DW$T$40)
    2167                      .dwattr $C$DW$264, DW_AT_location[DW_OP_breg20 -6]
    2168                      .dwcfi  cfa_offset, -2
    2169                      .dwcfi  save_reg_to_mem, 26, 0
    2170                      .dwcfi  save_reg_to_reg, 78, 26
    2171 00000108 B2BD          MOVL      *SP++,XAR1            ; [CPU_] 
    2172                      .dwcfi  save_reg_to_mem, 7, 2
    2173                      .dwcfi  cfa_offset, -4
    2174 00000109 AABD          MOVL      *SP++,XAR2            ; [CPU_] 
    2175                      .dwcfi  save_reg_to_mem, 9, 4
    2176                      .dwcfi  cfa_offset, -6
    2177 0000010a A2BD          MOVL      *SP++,XAR3            ; [CPU_] 
    2178                      .dwcfi  save_reg_to_mem, 11, 6
    2179                      .dwcfi  cfa_offset, -8
    2180 0000010b FE10          ADDB      SP,#16                ; [CPU_U] 
    2181                      .dwcfi  cfa_offset, -24
    2182                      .dwpsn  file "D:/BM1000/sw/solutions/instaspin_foc/src/proj_lab02b.c",line 149,column 3,is_stmt
    2183 0000010c 8F00!         MOVL      XAR4,#_RamfuncsRunStart ; [CPU_U] |149| 
         0000010d 0000 
    2184 0000010e 8F40!         MOVL      XAR5,#_RamfuncsLoadEnd ; [CPU_U] |149| 
         0000010f 0000 
    2185 00000110 A842          MOVL      *-SP[2],XAR4          ; [CPU_] |149| 
    2186 00000111 8F00!         MOVL      XAR4,#_RamfuncsLoadStart ; [CPU_U] |149| 
         00000112 0000 
    2187              $C$DW$265       .dwtag  DW_TAG_TI_branch
    2188                      .dwattr $C$DW$265, DW_AT_low_pc(0x00)
    2189                      .dwattr $C$DW$265, DW_AT_name("_memCopy")
    2190                      .dwattr $C$DW$265, DW_AT_TI_call
    2191 00000113 7640!         LCR       #_memCopy             ; [CPU_] |149| 
         00000114 0000 
    2192                      ; call occurs [#_memCopy] ; [] |149| 
    2193                      .dwpsn  file "D:/BM1000/sw/solutions/instaspin_foc/src/proj_lab02b.c",line 167,column 3,is_stmt
    2194 00000115 8F00!         MOVL      XAR4,#_hal            ; [CPU_U] |167| 
         00000116 0000 
    2195 00000117 02B6          MOVB      ACC,#182              ; [CPU_] |167| 
    2196              $C$DW$266       .dwtag  DW_TAG_TI_branch
    2197                      .dwattr $C$DW$266, DW_AT_low_pc(0x00)
    2198                      .dwattr $C$DW$266, DW_AT_name("_HAL_init")
TMS320C2000 Assembler PC v6.2.5 Sat Sep 16 15:41:34 2017

Tools Copyright (c) 1996-2014 Texas Instruments Incorporated
C:\Users\wmj\AppData\Local\Temp\1144410                              PAGE   44

    2199                      .dwattr $C$DW$266, DW_AT_TI_call
    2200 00000118 7640!         LCR       #_HAL_init            ; [CPU_] |167| 
         00000119 0000 
    2201                      ; call occurs [#_HAL_init] ; [] |167| 
    2202 0000011a 761F-         MOVW      DP,#_halHandle        ; [CPU_U] 
         0000011b 0000 
    2203                      .dwpsn  file "D:/BM1000/sw/solutions/instaspin_foc/src/proj_lab02b.c",line 170,column 3,is_stmt
    2204 0000011c 02E4          MOVB      ACC,#228              ; [CPU_] |170| 
    2205                      .dwpsn  file "D:/BM1000/sw/solutions/instaspin_foc/src/proj_lab02b.c",line 167,column 3,is_stmt
    2206 0000011d A808-         MOVL      @_halHandle,XAR4      ; [CPU_] |167| 
    2207                      .dwpsn  file "D:/BM1000/sw/solutions/instaspin_foc/src/proj_lab02b.c",line 170,column 3,is_stmt
    2208 0000011e 8F00-         MOVL      XAR4,#_MyProcessCtrl  ; [CPU_U] |170| 
         0000011f 0180 
    2209              $C$DW$267       .dwtag  DW_TAG_TI_branch
    2210                      .dwattr $C$DW$267, DW_AT_low_pc(0x00)
    2211                      .dwattr $C$DW$267, DW_AT_name("_PROCTRL_init")
    2212                      .dwattr $C$DW$267, DW_AT_TI_call
    2213 00000120 7640!         LCR       #_PROCTRL_init        ; [CPU_] |170| 
         00000121 0000 
    2214                      ; call occurs [#_PROCTRL_init] ; [] |170| 
    2215 00000122 761F-         MOVW      DP,#_proctrlHandle    ; [CPU_U] 
         00000123 0000 
    2216                      .dwpsn  file "D:/BM1000/sw/solutions/instaspin_foc/src/proj_lab02b.c",line 171,column 3,is_stmt
    2217 00000124 8308-         MOVL      XAR5,@_halHandle      ; [CPU_] |171| 
    2218                      .dwpsn  file "D:/BM1000/sw/solutions/instaspin_foc/src/proj_lab02b.c",line 170,column 3,is_stmt
    2219 00000125 A80E-         MOVL      @_proctrlHandle,XAR4  ; [CPU_] |170| 
    2220                      .dwpsn  file "D:/BM1000/sw/solutions/instaspin_foc/src/proj_lab02b.c",line 171,column 3,is_stmt
    2221              $C$DW$268       .dwtag  DW_TAG_TI_branch
    2222                      .dwattr $C$DW$268, DW_AT_low_pc(0x00)
    2223                      .dwattr $C$DW$268, DW_AT_name("_PROCTRL_setHalHandle")
    2224                      .dwattr $C$DW$268, DW_AT_TI_call
    2225 00000126 7640!         LCR       #_PROCTRL_setHalHandle ; [CPU_] |171| 
         00000127 0000 
    2226                      ; call occurs [#_PROCTRL_setHalHandle] ; [] |171| 
    2227                      .dwpsn  file "D:/BM1000/sw/solutions/instaspin_foc/src/proj_lab02b.c",line 176,column 3,is_stmt
    2228 00000128 8D40-         MOVL      XAR1,#_gUserParams    ; [CPU_U] |176| 
         00000129 00C0 
    2229 0000012a B250          MOVL      *-SP[16],XAR1         ; [CPU_] |176| 
    2230 0000012b 8AA1          MOVL      XAR4,XAR1             ; [CPU_] |176| 
    2231              $C$DW$269       .dwtag  DW_TAG_TI_branch
    2232                      .dwattr $C$DW$269, DW_AT_low_pc(0x00)
    2233                      .dwattr $C$DW$269, DW_AT_name("_USER_checkDefErrors")
    2234                      .dwattr $C$DW$269, DW_AT_TI_call
    2235 0000012c 7640!         LCR       #_USER_checkDefErrors ; [CPU_] |176| 
         0000012d 0000 
    2236                      ; call occurs [#_USER_checkDefErrors] ; [] |176| 
    2237                      .dwpsn  file "D:/BM1000/sw/solutions/instaspin_foc/src/proj_lab02b.c",line 180,column 3,is_stmt
    2238 0000012e 8AA1          MOVL      XAR4,XAR1             ; [CPU_] |180| 
    2239              $C$DW$270       .dwtag  DW_TAG_TI_branch
    2240                      .dwattr $C$DW$270, DW_AT_low_pc(0x00)
    2241                      .dwattr $C$DW$270, DW_AT_name("_USER_setParams")
    2242                      .dwattr $C$DW$270, DW_AT_TI_call
    2243 0000012f 7640!         LCR       #_USER_setParams      ; [CPU_] |180| 
         00000130 0000 
    2244                      ; call occurs [#_USER_setParams] ; [] |180| 
TMS320C2000 Assembler PC v6.2.5 Sat Sep 16 15:41:34 2017

Tools Copyright (c) 1996-2014 Texas Instruments Incorporated
C:\Users\wmj\AppData\Local\Temp\1144410                              PAGE   45

    2245 00000131 761F-         MOVW      DP,#_halHandle        ; [CPU_U] 
         00000132 0000 
    2246                      .dwpsn  file "D:/BM1000/sw/solutions/instaspin_foc/src/proj_lab02b.c",line 184,column 3,is_stmt
    2247 00000133 83A1          MOVL      XAR5,XAR1             ; [CPU_] |184| 
    2248 00000134 8A08-         MOVL      XAR4,@_halHandle      ; [CPU_] |184| 
    2249              $C$DW$271       .dwtag  DW_TAG_TI_branch
    2250                      .dwattr $C$DW$271, DW_AT_low_pc(0x00)
    2251                      .dwattr $C$DW$271, DW_AT_name("_HAL_setParams")
    2252                      .dwattr $C$DW$271, DW_AT_TI_call
    2253 00000135 7640!         LCR       #_HAL_setParams       ; [CPU_] |184| 
         00000136 0000 
    2254                      ; call occurs [#_HAL_setParams] ; [] |184| 
    2255 00000137 761F-         MOVW      DP,#_halHandle        ; [CPU_U] 
         00000138 0000 
    2256                      .dwpsn  file "D:/BM1000/sw/solutions/instaspin_foc/src/proj_lab02b.c",line 186,column 3,is_stmt
    2257 00000139 8A08-         MOVL      XAR4,@_halHandle      ; [CPU_] |186| 
    2258 0000013a D0B4          MOVB      XAR0,#180             ; [CPU_] |186| 
    2259 0000013b 9294          MOV       AL,*+XAR4[AR0]        ; [CPU_] |186| 
    2260 0000013c 8AA1          MOVL      XAR4,XAR1             ; [CPU_] |186| 
    2261              $C$DW$272       .dwtag  DW_TAG_TI_branch
    2262                      .dwattr $C$DW$272, DW_AT_low_pc(0x00)
    2263                      .dwattr $C$DW$272, DW_AT_name("_USER_setMotorIDs")
    2264                      .dwattr $C$DW$272, DW_AT_TI_call
    2265 0000013d 7640!         LCR       #_USER_setMotorIDs    ; [CPU_] |186| 
         0000013e 0000 
    2266                      ; call occurs [#_USER_setMotorIDs] ; [] |186| 
    2267                      .dwpsn  file "D:/BM1000/sw/solutions/instaspin_foc/src/proj_lab02b.c",line 188,column 3,is_stmt
    2268 0000013f 8AA1          MOVL      XAR4,XAR1             ; [CPU_] |188| 
    2269              $C$DW$273       .dwtag  DW_TAG_TI_branch
    2270                      .dwattr $C$DW$273, DW_AT_low_pc(0x00)
    2271                      .dwattr $C$DW$273, DW_AT_name("_USER_setMotorParams")
    2272                      .dwattr $C$DW$273, DW_AT_TI_call
    2273 00000140 7640!         LCR       #_USER_setMotorParams ; [CPU_] |188| 
         00000141 0000 
    2274                      ; call occurs [#_USER_setMotorParams] ; [] |188| 
    2275                      .dwpsn  file "D:/BM1000/sw/solutions/instaspin_foc/src/proj_lab02b.c",line 190,column 3,is_stmt
    2276 00000142 8AA1          MOVL      XAR4,XAR1             ; [CPU_] |190| 
    2277              $C$DW$274       .dwtag  DW_TAG_TI_branch
    2278                      .dwattr $C$DW$274, DW_AT_low_pc(0x00)
    2279                      .dwattr $C$DW$274, DW_AT_name("_USER_setWaitTimeParams")
    2280                      .dwattr $C$DW$274, DW_AT_TI_call
    2281 00000143 7640!         LCR       #_USER_setWaitTimeParams ; [CPU_] |190| 
         00000144 0000 
    2282                      ; call occurs [#_USER_setWaitTimeParams] ; [] |190| 
    2283                      .dwpsn  file "D:/BM1000/sw/solutions/instaspin_foc/src/proj_lab02b.c",line 192,column 3,is_stmt
    2284 00000145 8AA1          MOVL      XAR4,XAR1             ; [CPU_] |192| 
    2285              $C$DW$275       .dwtag  DW_TAG_TI_branch
    2286                      .dwattr $C$DW$275, DW_AT_low_pc(0x00)
    2287                      .dwattr $C$DW$275, DW_AT_name("_USER_checkForErrors")
    2288                      .dwattr $C$DW$275, DW_AT_TI_call
    2289 00000146 7640!         LCR       #_USER_checkForErrors ; [CPU_] |192| 
         00000147 0000 
    2290                      ; call occurs [#_USER_checkForErrors] ; [] |192| 
    2291 00000148 8A50          MOVL      XAR4,*-SP[16]         ; [CPU_] 
    2292                      .dwpsn  file "D:/BM1000/sw/solutions/instaspin_foc/src/proj_lab02b.c",line 196,column 4,is_stmt
TMS320C2000 Assembler PC v6.2.5 Sat Sep 16 15:41:34 2017

Tools Copyright (c) 1996-2014 Texas Instruments Incorporated
C:\Users\wmj\AppData\Local\Temp\1144410                              PAGE   46

    2293              $C$DW$276       .dwtag  DW_TAG_TI_branch
    2294                      .dwattr $C$DW$276, DW_AT_low_pc(0x00)
    2295                      .dwattr $C$DW$276, DW_AT_name("_USER_getErrorCode")
    2296                      .dwattr $C$DW$276, DW_AT_TI_call
    2297 00000149 7640!         LCR       #_USER_getErrorCode   ; [CPU_] |196| 
         0000014a 0000 
    2298                      ; call occurs [#_USER_getErrorCode] ; [] |196| 
    2299 0000014b 8D40-         MOVL      XAR1,#_gMotorVars     ; [CPU_U] |196| 
         0000014c 0040 
    2300 0000014d D00F          MOVB      XAR0,#15              ; [CPU_] |196| 
    2301 0000014e 9691          MOV       *+XAR1[AR0],AL        ; [CPU_] |196| 
    2302                      .dwpsn  file "D:/BM1000/sw/solutions/instaspin_foc/src/proj_lab02b.c",line 200,column 4,is_stmt
    2303 0000014f D00F          MOVB      XAR0,#15              ; [CPU_] |200| 
    2304 00000150 9291          MOV       AL,*+XAR1[AR0]        ; [CPU_] |200| 
    2305 00000151 56C0          BF        $C$L27,NEQ            ; [CPU_] |200| 
         00000152 0207 
    2306                      ; branchcc occurs ; [] |200| 
    2307 00000153 761F-         MOVW      DP,#_proctrlHandle    ; [CPU_U] 
         00000154 0000 
    2308                      .dwpsn  file "D:/BM1000/sw/solutions/instaspin_foc/src/proj_lab02b.c",line 210,column 3,is_stmt
    2309 00000155 8A0E-         MOVL      XAR4,@_proctrlHandle  ; [CPU_] |210| 
    2310              $C$DW$277       .dwtag  DW_TAG_TI_branch
    2311                      .dwattr $C$DW$277, DW_AT_low_pc(0x00)
    2312                      .dwattr $C$DW$277, DW_AT_name("_PROCTRL_setParams")
    2313                      .dwattr $C$DW$277, DW_AT_TI_call
    2314 00000156 7640!         LCR       #_PROCTRL_setParams   ; [CPU_] |210| 
         00000157 0000 
    2315                      ; call occurs [#_PROCTRL_setParams] ; [] |210| 
    2316                      .dwpsn  file "D:/BM1000/sw/solutions/instaspin_foc/src/proj_lab02b.c",line 217,column 3,is_stmt
    2317 00000158 D500          MOVB      XAR5,#0               ; [CPU_] |217| 
    2318 00000159 8F00-         MOVL      XAR4,#_ctrl           ; [CPU_U] |217| 
         0000015a 0280 
    2319 0000015b FF20          MOV       ACC,#264              ; [CPU_] |217| 
         0000015c 0108 
    2320              $C$DW$278       .dwtag  DW_TAG_TI_branch
    2321                      .dwattr $C$DW$278, DW_AT_low_pc(0x00)
    2322                      .dwattr $C$DW$278, DW_AT_name("_CTRL_initCtrl")
    2323                      .dwattr $C$DW$278, DW_AT_TI_call
    2324 0000015d 7640!         LCR       #_CTRL_initCtrl       ; [CPU_] |217| 
         0000015e 0000 
    2325                      ; call occurs [#_CTRL_initCtrl] ; [] |217| 
    2326 0000015f 761F-         MOVW      DP,#_ctrlHandle       ; [CPU_U] 
         00000160 0000 
    2327                      .dwpsn  file "D:/BM1000/sw/solutions/instaspin_foc/src/proj_lab02b.c",line 225,column 5,is_stmt
    2328 00000161 5DAD          MOVZ      AR5,SP                ; [CPU_U] |225| 
    2329 00000162 DD86          SUBB      XAR5,#6               ; [CPU_U] |225| 
    2330                      .dwpsn  file "D:/BM1000/sw/solutions/instaspin_foc/src/proj_lab02b.c",line 217,column 3,is_stmt
    2331 00000163 A80A-         MOVL      @_ctrlHandle,XAR4     ; [CPU_] |217| 
    2332                      .dwpsn  file "D:/BM1000/sw/solutions/instaspin_foc/src/proj_lab02b.c",line 225,column 5,is_stmt
    2333              $C$DW$279       .dwtag  DW_TAG_TI_branch
    2334                      .dwattr $C$DW$279, DW_AT_low_pc(0x00)
    2335                      .dwattr $C$DW$279, DW_AT_name("_CTRL_getVersion")
    2336                      .dwattr $C$DW$279, DW_AT_TI_call
    2337 00000164 7640!         LCR       #_CTRL_getVersion     ; [CPU_] |225| 
         00000165 0000 
TMS320C2000 Assembler PC v6.2.5 Sat Sep 16 15:41:34 2017

Tools Copyright (c) 1996-2014 Texas Instruments Incorporated
C:\Users\wmj\AppData\Local\Temp\1144410                              PAGE   47

    2338                      ; call occurs [#_CTRL_getVersion] ; [] |225| 
    2339                      .dwpsn  file "D:/BM1000/sw/solutions/instaspin_foc/src/proj_lab02b.c",line 227,column 5,is_stmt
    2340 00000166 C444          MOVL      XAR6,*-SP[4]          ; [CPU_] |227| 
    2341 00000167 D910          ADDB      XAR1,#16              ; [CPU_] |227| 
    2342 00000168 0646          MOVL      ACC,*-SP[6]           ; [CPU_] |227| 
    2343 00000169 1EC1          MOVL      *+XAR1[0],ACC         ; [CPU_] |227| 
    2344 0000016a C2D1          MOVL      *+XAR1[2],XAR6        ; [CPU_] |227| 
    2345                      .dwpsn  file "D:/BM1000/sw/solutions/instaspin_foc/src/proj_lab02b.c",line 232,column 3,is_stmt
    2346 0000016b 8350          MOVL      XAR5,*-SP[16]         ; [CPU_] |232| 
    2347 0000016c 761F-         MOVW      DP,#_ctrlHandle       ; [CPU_U] 
         0000016d 0000 
    2348 0000016e 8A0A-         MOVL      XAR4,@_ctrlHandle     ; [CPU_] |232| 
    2349              $C$DW$280       .dwtag  DW_TAG_TI_branch
    2350                      .dwattr $C$DW$280, DW_AT_low_pc(0x00)
    2351                      .dwattr $C$DW$280, DW_AT_name("_CTRL_setParams")
    2352                      .dwattr $C$DW$280, DW_AT_TI_call
    2353 0000016f 7640!         LCR       #_CTRL_setParams      ; [CPU_] |232| 
         00000170 0000 
    2354                      ; call occurs [#_CTRL_setParams] ; [] |232| 
    2355 00000171 761F-         MOVW      DP,#_halHandle        ; [CPU_U] 
         00000172 0000 
    2356                      .dwpsn  file "D:/BM1000/sw/solutions/instaspin_foc/src/proj_lab02b.c",line 236,column 3,is_stmt
    2357 00000173 8A08-         MOVL      XAR4,@_halHandle      ; [CPU_] |236| 
    2358              $C$DW$281       .dwtag  DW_TAG_TI_branch
    2359                      .dwattr $C$DW$281, DW_AT_low_pc(0x00)
    2360                      .dwattr $C$DW$281, DW_AT_name("_HAL_setupFaults")
    2361                      .dwattr $C$DW$281, DW_AT_TI_call
    2362 00000174 7640!         LCR       #_HAL_setupFaults     ; [CPU_] |236| 
         00000175 0000 
    2363                      ; call occurs [#_HAL_setupFaults] ; [] |236| 
    2364 00000176 761F-         MOVW      DP,#_halHandle        ; [CPU_U] 
         00000177 0000 
    2365                      .dwpsn  file "D:/BM1000/sw/solutions/instaspin_foc/src/proj_lab02b.c",line 240,column 3,is_stmt
    2366 00000178 8A08-         MOVL      XAR4,@_halHandle      ; [CPU_] |240| 
    2367                      .dwpsn  file "D:/BM1000/sw/modules/hal/boards/hvkit_rev1p1/f28x/f2802x/src/hal.h",line 497,column 16,
    2368 00000179 D078          MOVB      XAR0,#120             ; [CPU_] |497| 
    2369 0000017a 8394          MOVL      XAR5,*+XAR4[AR0]      ; [CPU_] |497| 
    2370 0000017b 7622   EALLOW
    2371                      .dwpsn  file "D:/BM1000/sw/modules/hal/boards/hvkit_rev1p1/f28x/f2802x/src/hal.h",line 503,column 3,i
    2372 0000017c D060          MOVB      XAR0,#96              ; [CPU_] |503| 
    2373 0000017d 7680+         MOVL      XAR6,#_mainISR        ; [CPU_U] |503| 
         0000017e 0000 
    2374 0000017f C295          MOVL      *+XAR5[AR0],XAR6      ; [CPU_] |503| 
    2375                      .dwpsn  file "D:/BM1000/sw/modules/hal/boards/hvkit_rev1p1/f28x/f2802x/src/hal.h",line 504,column 3,i
    2376 00000180 D0E0          MOVB      XAR0,#224             ; [CPU_] |504| 
    2377 00000181 7680+         MOVL      XAR6,#_UART_RxISR     ; [CPU_U] |504| 
         00000182 0020 
    2378 00000183 C295          MOVL      *+XAR5[AR0],XAR6      ; [CPU_] |504| 
    2379                      .dwpsn  file "D:/BM1000/sw/modules/hal/boards/hvkit_rev1p1/f28x/f2802x/src/hal.h",line 505,column 3,i
    2380 00000184 D0E2          MOVB      XAR0,#226             ; [CPU_] |505| 
    2381 00000185 7680+         MOVL      XAR6,#_UART_TxReadyISR ; [CPU_U] |505| 
         00000186 0000 
    2382 00000187 C295          MOVL      *+XAR5[AR0],XAR6      ; [CPU_] |505| 
    2383 00000188 761A   EDIS
    2384 00000189 FF69          SPM       #0                    ; [CPU_] 
TMS320C2000 Assembler PC v6.2.5 Sat Sep 16 15:41:34 2017

Tools Copyright (c) 1996-2014 Texas Instruments Incorporated
C:\Users\wmj\AppData\Local\Temp\1144410                              PAGE   48

    2385                      .dwpsn  file "D:/BM1000/sw/solutions/instaspin_foc/src/proj_lab02b.c",line 244,column 3,is_stmt
    2386              $C$DW$282       .dwtag  DW_TAG_TI_branch
    2387                      .dwattr $C$DW$282, DW_AT_low_pc(0x00)
    2388                      .dwattr $C$DW$282, DW_AT_name("_HAL_enableAdcInts")
    2389                      .dwattr $C$DW$282, DW_AT_TI_call
    2390 0000018a 7640!         LCR       #_HAL_enableAdcInts   ; [CPU_] |244| 
         0000018b 0000 
    2391                      ; call occurs [#_HAL_enableAdcInts] ; [] |244| 
    2392 0000018c 761F-         MOVW      DP,#_halHandle        ; [CPU_U] 
         0000018d 0000 
    2393                      .dwpsn  file "D:/BM1000/sw/solutions/instaspin_foc/src/proj_lab02b.c",line 246,column 3,is_stmt
    2394 0000018e 8A08-         MOVL      XAR4,@_halHandle      ; [CPU_] |246| 
    2395              $C$DW$283       .dwtag  DW_TAG_TI_branch
    2396                      .dwattr $C$DW$283, DW_AT_low_pc(0x00)
    2397                      .dwattr $C$DW$283, DW_AT_name("_HAL_enableSciaInt")
    2398                      .dwattr $C$DW$283, DW_AT_TI_call
    2399 0000018f 7640!         LCR       #_HAL_enableSciaInt   ; [CPU_] |246| 
         00000190 0000 
    2400                      ; call occurs [#_HAL_enableSciaInt] ; [] |246| 
    2401 00000191 761F-         MOVW      DP,#_halHandle        ; [CPU_U] 
         00000192 0000 
    2402                      .dwpsn  file "D:/BM1000/sw/solutions/instaspin_foc/src/proj_lab02b.c",line 248,column 3,is_stmt
    2403 00000193 8F40+         MOVL      XAR5,#_Timer1ISR      ; [CPU_U] |248| 
         00000194 0047 
    2404 00000195 8A08-         MOVL      XAR4,@_halHandle      ; [CPU_] |248| 
    2405              $C$DW$284       .dwtag  DW_TAG_TI_branch
    2406                      .dwattr $C$DW$284, DW_AT_low_pc(0x00)
    2407                      .dwattr $C$DW$284, DW_AT_name("_HAL_enableTimer1Int")
    2408                      .dwattr $C$DW$284, DW_AT_TI_call
    2409 00000196 7640!         LCR       #_HAL_enableTimer1Int ; [CPU_] |248| 
         00000197 0000 
    2410                      ; call occurs [#_HAL_enableTimer1Int] ; [] |248| 
    2411 00000198 761F-         MOVW      DP,#_halHandle        ; [CPU_U] 
         00000199 0000 
    2412                      .dwpsn  file "D:/BM1000/sw/solutions/instaspin_foc/src/proj_lab02b.c",line 252,column 3,is_stmt
    2413 0000019a 8A08-         MOVL      XAR4,@_halHandle      ; [CPU_] |252| 
    2414              $C$DW$285       .dwtag  DW_TAG_TI_branch
    2415                      .dwattr $C$DW$285, DW_AT_low_pc(0x00)
    2416                      .dwattr $C$DW$285, DW_AT_name("_HAL_enableGlobalInts")
    2417                      .dwattr $C$DW$285, DW_AT_TI_call
    2418 0000019b 7640!         LCR       #_HAL_enableGlobalInts ; [CPU_] |252| 
         0000019c 0000 
    2419                      ; call occurs [#_HAL_enableGlobalInts] ; [] |252| 
    2420 0000019d 761F-         MOVW      DP,#_halHandle        ; [CPU_U] 
         0000019e 0000 
    2421                      .dwpsn  file "D:/BM1000/sw/solutions/instaspin_foc/src/proj_lab02b.c",line 256,column 3,is_stmt
    2422 0000019f 8A08-         MOVL      XAR4,@_halHandle      ; [CPU_] |256| 
    2423              $C$DW$286       .dwtag  DW_TAG_TI_branch
    2424                      .dwattr $C$DW$286, DW_AT_low_pc(0x00)
    2425                      .dwattr $C$DW$286, DW_AT_name("_HAL_enableDebugInt")
    2426                      .dwattr $C$DW$286, DW_AT_TI_call
    2427 000001a0 7640!         LCR       #_HAL_enableDebugInt  ; [CPU_] |256| 
         000001a1 0000 
    2428                      ; call occurs [#_HAL_enableDebugInt] ; [] |256| 
    2429 000001a2 761F-         MOVW      DP,#_halHandle        ; [CPU_U] 
TMS320C2000 Assembler PC v6.2.5 Sat Sep 16 15:41:34 2017

Tools Copyright (c) 1996-2014 Texas Instruments Incorporated
C:\Users\wmj\AppData\Local\Temp\1144410                              PAGE   49

         000001a3 0000 
    2430                      .dwpsn  file "D:/BM1000/sw/modules/hal/boards/hvkit_rev1p1/f28x/f2802x/src/hal.h",line 271,column 16,
    2431 000001a4 8A08-         MOVL      XAR4,@_halHandle      ; [CPU_] |271| 
    2432                      .dwpsn  file "D:/BM1000/sw/modules/hal/boards/hvkit_rev1p1/f28x/f2802x/src/hal.h",line 273,column 3,i
    2433 000001a5 DC7C          ADDB      XAR4,#124             ; [CPU_] |273| 
    2434 000001a6 83C4          MOVL      XAR5,*+XAR4[0]        ; [CPU_] |273| 
    2435 000001a7 7622   EALLOW
    2436                      .dwpsn  file "D:/BM1000/sw/drivers/pwm/src/32b/f28x/f2802x/pwm.h",line 1567,column 5,is_stmt
    2437 000001a8 DD18          ADDB      XAR5,#24              ; [CPU_] |1567| 
    2438 000001a9 1AC5          OR        *+XAR5[0],#0x0004     ; [CPU_] |1567| 
         000001aa 0004 
    2439 000001ab 761A   EDIS
    2440                      .dwpsn  file "D:/BM1000/sw/modules/hal/boards/hvkit_rev1p1/f28x/f2802x/src/hal.h",line 274,column 3,i
    2441 000001ac 83D4          MOVL      XAR5,*+XAR4[2]        ; [CPU_] |274| 
    2442 000001ad 7622   EALLOW
    2443                      .dwpsn  file "D:/BM1000/sw/drivers/pwm/src/32b/f28x/f2802x/pwm.h",line 1567,column 5,is_stmt
    2444 000001ae DD18          ADDB      XAR5,#24              ; [CPU_] |1567| 
    2445 000001af 1AC5          OR        *+XAR5[0],#0x0004     ; [CPU_] |1567| 
         000001b0 0004 
    2446 000001b1 761A   EDIS
    2447                      .dwpsn  file "D:/BM1000/sw/modules/hal/boards/hvkit_rev1p1/f28x/f2802x/src/hal.h",line 275,column 3,i
    2448 000001b2 8AE4          MOVL      XAR4,*+XAR4[4]        ; [CPU_] |275| 
    2449 000001b3 7622   EALLOW
    2450                      .dwpsn  file "D:/BM1000/sw/drivers/pwm/src/32b/f28x/f2802x/pwm.h",line 1567,column 5,is_stmt
    2451 000001b4 DC18          ADDB      XAR4,#24              ; [CPU_] |1567| 
    2452 000001b5 1AC4          OR        *+XAR4[0],#0x0004     ; [CPU_] |1567| 
         000001b6 0004 
    2453 000001b7 761A   EDIS
    2454                      .dwpsn  file "D:/BM1000/sw/solutions/instaspin_foc/src/proj_lab02b.c",line 279,column 3,is_stmt
    2455 000001b8 860A-         MOVL      XAR2,@_ctrlHandle     ; [CPU_] |279| 
    2456                      .dwpsn  file "D:/BM1000/sw/modules/ctrl/src/32b/ctrl.h",line 1246,column 3,is_stmt
    2457 000001b9 D0F1          MOVB      XAR0,#241             ; [CPU_] |1246| 
    2458                      .dwpsn  file "D:/BM1000/sw/solutions/instaspin_foc/src/proj_lab02b.c",line 431,column 7,is_stmt
    2459 000001ba 8DC0-         MOVL      XAR3,#_gMotorVars     ; [CPU_U] |431| 
         000001bb 0040 
    2460                      .dwpsn  file "D:/BM1000/sw/modules/ctrl/src/32b/ctrl.h",line 1246,column 3,is_stmt
    2461 000001bc 56BF          MOVB      *+XAR2[AR0],#1,UNC    ; [CPU_] |1246| 
         000001bd 0192 
    2462 000001be       $C$L7:    
    2463 000001be 761F-         MOVW      DP,#_gMotorVars       ; [CPU_U] 
         000001bf 0001 
    2464                      .dwpsn  file "D:/BM1000/sw/solutions/instaspin_foc/src/proj_lab02b.c",line 285,column 11,is_stmt
    2465 000001c0 9200-         MOV       AL,@_gMotorVars       ; [CPU_] |285| 
    2466 000001c1 ECFD          BF        $C$L7,EQ              ; [CPU_] |285| 
    2467                      ; branchcc occurs ; [] |285| 
    2468                      .dwpsn  file "D:/BM1000/sw/solutions/instaspin_foc/src/proj_lab02b.c",line 288,column 5,is_stmt
    2469 000001c2 FFEF          B         $C$L26,UNC            ; [CPU_] |288| 
         000001c3 0170 
    2470                      ; branch occurs ; [] |288| 
    2471 000001c4       $C$L8:    
    2472 000001c4 761F-         MOVW      DP,#_gCounter_updateGlobals ; [CPU_U] 
         000001c5 0000 
    2473                      .dwpsn  file "D:/BM1000/sw/solutions/instaspin_foc/src/proj_lab02b.c",line 293,column 9,is_stmt
    2474 000001c6 0A01-         INC       @_gCounter_updateGlobals ; [CPU_] |293| 
    2475                      .dwpsn  file "D:/BM1000/sw/modules/ctrl/src/32b/ctrl.h",line 1060,column 3,is_stmt
TMS320C2000 Assembler PC v6.2.5 Sat Sep 16 15:41:34 2017

Tools Copyright (c) 1996-2014 Texas Instruments Incorporated
C:\Users\wmj\AppData\Local\Temp\1144410                              PAGE   50

    2476 000001c7 92E2          MOV       AL,*+XAR2[4]          ; [CPU_] |1060| 
    2477 000001c8 56C1          BF        $C$L19,EQ             ; [CPU_] |1060| 
         000001c9 00B5 
    2478                      ; branchcc occurs ; [] |1060| 
    2479 000001ca FF69          SPM       #0                    ; [CPU_] 
    2480                      .dwpsn  file "D:/BM1000/sw/solutions/instaspin_foc/src/proj_lab02b.c",line 310,column 40,is_stmt
    2481 000001cb 8AA2          MOVL      XAR4,XAR2             ; [CPU_] |310| 
    2482              $C$DW$287       .dwtag  DW_TAG_TI_branch
    2483                      .dwattr $C$DW$287, DW_AT_low_pc(0x00)
    2484                      .dwattr $C$DW$287, DW_AT_name("_CTRL_updateState")
    2485                      .dwattr $C$DW$287, DW_AT_TI_call
    2486 000001cc 7640!         LCR       #_CTRL_updateState    ; [CPU_] |310| 
         000001cd 0000 
    2487                      ; call occurs [#_CTRL_updateState] ; [] |310| 
    2488 000001ce 761F-         MOVW      DP,#_ctrlHandle       ; [CPU_U] 
         000001cf 0000 
    2489                      .dwpsn  file "D:/BM1000/sw/solutions/instaspin_foc/src/proj_lab02b.c",line 313,column 13,is_stmt
    2490 000001d0 8A0A-         MOVL      XAR4,@_ctrlHandle     ; [CPU_] |313| 
    2491 000001d1 93CB          MOV       AH,*+XAR3[1]          ; [CPU_] |313| 
    2492                      .dwpsn  file "D:/BM1000/sw/modules/ctrl/src/32b/ctrl.h",line 1218,column 3,is_stmt
    2493 000001d2 D0F0          MOVB      XAR0,#240             ; [CPU_] |1218| 
    2494                      .dwpsn  file "D:/BM1000/sw/solutions/instaspin_foc/src/proj_lab02b.c",line 315,column 13,is_stmt
    2495 000001d3 5200          CMPB      AL,#0                 ; [CPU_] |315| 
    2496                      .dwpsn  file "D:/BM1000/sw/modules/ctrl/src/32b/ctrl.h",line 1218,column 3,is_stmt
    2497 000001d4 9794          MOV       *+XAR4[AR0],AH        ; [CPU_] |1218| 
    2498                      .dwpsn  file "D:/BM1000/sw/solutions/instaspin_foc/src/proj_lab02b.c",line 315,column 13,is_stmt
    2499 000001d5 56C1          BF        $C$L20,EQ             ; [CPU_] |315| 
         000001d6 00C3 
    2500                      ; branchcc occurs ; [] |315| 
    2501                      .dwpsn  file "D:/BM1000/sw/modules/ctrl/src/32b/ctrl.h",line 771,column 3,is_stmt
    2502 000001d7 59E4          MOVZ      AR1,*+XAR4[4]         ; [CPU_] |771| 
    2503                      .dwpsn  file "D:/BM1000/sw/solutions/instaspin_foc/src/proj_lab02b.c",line 318,column 38,is_stmt
    2504 000001d8 D018          MOVB      XAR0,#24              ; [CPU_] |318| 
    2505 000001d9 8A92          MOVL      XAR4,*+XAR2[AR0]      ; [CPU_] |318| 
    2506              $C$DW$288       .dwtag  DW_TAG_TI_branch
    2507                      .dwattr $C$DW$288, DW_AT_low_pc(0x00)
    2508                      .dwattr $C$DW$288, DW_AT_name("_EST_getState")
    2509                      .dwattr $C$DW$288, DW_AT_TI_call
    2510 000001da 7640!         LCR       #_EST_getState        ; [CPU_] |318| 
         000001db 0000 
    2511                      ; call occurs [#_EST_getState] ; [] |318| 
    2512 000001dc 93A1          MOV       AH,AR1                ; [CPU_] |318| 
    2513                      .dwpsn  file "D:/BM1000/sw/solutions/instaspin_foc/src/proj_lab02b.c",line 320,column 17,is_stmt
    2514 000001dd 5302          CMPB      AH,#2                 ; [CPU_] |320| 
    2515 000001de EC76          BF        $C$L16,EQ             ; [CPU_] |320| 
    2516                      ; branchcc occurs ; [] |320| 
    2517                      .dwpsn  file "D:/BM1000/sw/solutions/instaspin_foc/src/proj_lab02b.c",line 325,column 22,is_stmt
    2518 000001df 5303          CMPB      AH,#3                 ; [CPU_] |325| 
    2519 000001e0 EC1D          BF        $C$L9,EQ              ; [CPU_] |325| 
    2520                      ; branchcc occurs ; [] |325| 
    2521 000001e1 92A1          MOV       AL,AR1                ; [CPU_] 
    2522                      .dwpsn  file "D:/BM1000/sw/solutions/instaspin_foc/src/proj_lab02b.c",line 346,column 22,is_stmt
    2523 000001e2 5201          CMPB      AL,#1                 ; [CPU_] |346| 
    2524 000001e3 56C0          BF        $C$L18,NEQ            ; [CPU_] |346| 
         000001e4 0087 
TMS320C2000 Assembler PC v6.2.5 Sat Sep 16 15:41:34 2017

Tools Copyright (c) 1996-2014 Texas Instruments Incorporated
C:\Users\wmj\AppData\Local\Temp\1144410                              PAGE   51

    2525                      ; branchcc occurs ; [] |346| 
    2526 000001e5 761F-         MOVW      DP,#_halHandle        ; [CPU_U] 
         000001e6 0000 
    2527                      .dwpsn  file "D:/BM1000/sw/modules/hal/boards/hvkit_rev1p1/f28x/f2802x/src/hal.h",line 271,column 16,
    2528 000001e7 8A08-         MOVL      XAR4,@_halHandle      ; [CPU_] |271| 
    2529                      .dwpsn  file "D:/BM1000/sw/modules/hal/boards/hvkit_rev1p1/f28x/f2802x/src/hal.h",line 273,column 3,i
    2530 000001e8 DC7C          ADDB      XAR4,#124             ; [CPU_] |273| 
    2531 000001e9 83C4          MOVL      XAR5,*+XAR4[0]        ; [CPU_] |273| 
    2532 000001ea 7622   EALLOW
    2533                      .dwpsn  file "D:/BM1000/sw/drivers/pwm/src/32b/f28x/f2802x/pwm.h",line 1567,column 5,is_stmt
    2534 000001eb DD18          ADDB      XAR5,#24              ; [CPU_] |1567| 
    2535 000001ec 1AC5          OR        *+XAR5[0],#0x0004     ; [CPU_] |1567| 
         000001ed 0004 
    2536 000001ee 761A   EDIS
    2537                      .dwpsn  file "D:/BM1000/sw/modules/hal/boards/hvkit_rev1p1/f28x/f2802x/src/hal.h",line 274,column 3,i
    2538 000001ef 83D4          MOVL      XAR5,*+XAR4[2]        ; [CPU_] |274| 
    2539 000001f0 7622   EALLOW
    2540                      .dwpsn  file "D:/BM1000/sw/drivers/pwm/src/32b/f28x/f2802x/pwm.h",line 1567,column 5,is_stmt
    2541 000001f1 DD18          ADDB      XAR5,#24              ; [CPU_] |1567| 
    2542 000001f2 1AC5          OR        *+XAR5[0],#0x0004     ; [CPU_] |1567| 
         000001f3 0004 
    2543 000001f4 761A   EDIS
    2544                      .dwpsn  file "D:/BM1000/sw/modules/hal/boards/hvkit_rev1p1/f28x/f2802x/src/hal.h",line 275,column 3,i
    2545 000001f5 8AE4          MOVL      XAR4,*+XAR4[4]        ; [CPU_] |275| 
    2546 000001f6 7622   EALLOW
    2547                      .dwpsn  file "D:/BM1000/sw/drivers/pwm/src/32b/f28x/f2802x/pwm.h",line 1567,column 5,is_stmt
    2548 000001f7 DC18          ADDB      XAR4,#24              ; [CPU_] |1567| 
    2549 000001f8 1AC4          OR        *+XAR4[0],#0x0004     ; [CPU_] |1567| 
         000001f9 0004 
    2550 000001fa 761A   EDIS
    2551                      .dwpsn  file "D:/BM1000/sw/solutions/instaspin_foc/src/proj_lab02b.c",line 350,column 21,is_stmt
    2552 000001fb 2BCB          MOV       *+XAR3[1],#0          ; [CPU_] |350| 
    2553 000001fc 6F6E          B         $C$L18,UNC            ; [CPU_] |350| 
    2554                      ; branch occurs ; [] |350| 
    2555 000001fd       $C$L9:    
    2556                      .dwpsn  file "D:/BM1000/sw/solutions/instaspin_foc/src/proj_lab02b.c",line 327,column 21,is_stmt
    2557 000001fd 5209          CMPB      AL,#9                 ; [CPU_] |327| 
    2558 000001fe 6407          B         $C$L10,LT             ; [CPU_] |327| 
    2559                      ; branchcc occurs ; [] |327| 
    2560 000001ff 520C          CMPB      AL,#12                ; [CPU_] |327| 
    2561 00000200 6205          B         $C$L10,GT             ; [CPU_] |327| 
    2562                      ; branchcc occurs ; [] |327| 
    2563 00000201 761F-         MOVW      DP,#_halHandle        ; [CPU_U] 
         00000202 0000 
    2564 00000203 A308-         MOVL      P,@_halHandle         ; [CPU_] 
    2565 00000204 6F37          B         $C$L15,UNC            ; [CPU_] 
    2566                      ; branch occurs ; [] 
    2567 00000205       $C$L10:    
    2568 00000205 761F-         MOVW      DP,#_halHandle        ; [CPU_U] 
         00000206 0000 
    2569                      .dwpsn  file "D:/BM1000/sw/solutions/instaspin_foc/src/proj_lab02b.c",line 330,column 25,is_stmt
    2570 00000207 A308-         MOVL      P,@_halHandle         ; [CPU_] |330| 
    2571                      .dwpsn  file "D:/BM1000/sw/modules/hal/boards/hvkit_rev1p1/f28x/f2802x/src/hal.h",line 1047,column 7,
    2572 00000208 B600          MOVB      XAR7,#0               ; [CPU_] |1047| 
    2573                      .dwpsn  file "D:/BM1000/sw/solutions/instaspin_foc/src/proj_lab02b.c",line 330,column 25,is_stmt
TMS320C2000 Assembler PC v6.2.5 Sat Sep 16 15:41:34 2017

Tools Copyright (c) 1996-2014 Texas Instruments Incorporated
C:\Users\wmj\AppData\Local\Temp\1144410                              PAGE   52

    2574 00000209 A9A4          MOVL      XAR4,P                ; [CPU_] |330| 
    2575                      .dwpsn  file "D:/BM1000/sw/modules/hal/boards/hvkit_rev1p1/f28x/f2802x/src/hal.h",line 1047,column 7,
    2576 0000020a 6F14          B         $C$L12,UNC            ; [CPU_] |1047| 
    2577                      ; branch occurs ; [] |1047| 
    2578 0000020b       $C$L11:    
    2579                      .dwpsn  file "D:/BM1000/sw/modules/hal/boards/hvkit_rev1p1/f28x/f2802x/src/hal.h",line 352,column 7,i
    2580 0000020b 0EA7          MOVU      ACC,AR7               ; [CPU_] |352| 
    2581 0000020c BE98          MOVB      XAR6,#152             ; [CPU_] |352| 
    2582                      .dwpsn  file "D:/BM1000/sw/modules/hal/boards/hvkit_rev1p1/f28x/f2802x/src/hal.h",line 1051,column 7,
    2583 0000020d 83A4          MOVL      XAR5,XAR4             ; [CPU_] |1051| 
    2584                      .dwpsn  file "D:/BM1000/sw/modules/hal/boards/hvkit_rev1p1/f28x/f2802x/src/hal.h",line 352,column 7,i
    2585 0000020e FF30          LSL       ACC,1                 ; [CPU_] |352| 
    2586 0000020f 8EA9          MOVL      XAR0,ACC              ; [CPU_] |352| 
    2587 00000210 A8A9          MOVL      ACC,XAR4              ; [CPU_] |352| 
    2588 00000211 07A0          ADDL      ACC,XAR0              ; [CPU_] |352| 
    2589 00000212 0DA6          ADDU      ACC,AR6               ; [CPU_] |352| 
    2590 00000213 1EA6          MOVL      XAR6,ACC              ; [CPU_] |352| 
    2591                      .dwpsn  file "D:/BM1000/sw/modules/hal/boards/hvkit_rev1p1/f28x/f2802x/src/hal.h",line 1051,column 7,
    2592 00000214 3AA9          MOVL      ACC,XAR0              ; [CPU_] |1051| 
    2593 00000215 D00A          MOVB      XAR0,#10              ; [CPU_] |1051| 
    2594 00000216 5601          ADDL      XAR5,ACC              ; [CPU_] |1051| 
         00000217 00A5 
    2595 00000218 8395          MOVL      XAR5,*+XAR5[AR0]      ; [CPU_] |1051| 
    2596                      .dwpsn  file "D:/BM1000/sw/modules/hal/boards/hvkit_rev1p1/f28x/f2802x/src/hal.h",line 352,column 7,i
    2597 00000219 87C6          MOVL      XT,*+XAR6[0]          ; [CPU_] |352| 
    2598                      .dwpsn  file "D:/BM1000/sw/modules/hal/boards/hvkit_rev1p1/f28x/f2802x/src/hal.h",line 1047,column 50
    2599 0000021a DF01          ADDB      XAR7,#1               ; [CPU_] |1047| 
    2600                      .dwpsn  file "D:/BM1000/sw/modules/hal/boards/hvkit_rev1p1/f28x/f2802x/src/hal.h",line 1051,column 7,
    2601 0000021b ABA9          MOVL      ACC,XT                ; [CPU_] |1051| 
    2602 0000021c 07C5          ADDL      ACC,*+XAR5[0]         ; [CPU_] |1051| 
    2603                      .dwpsn  file "D:/BM1000/sw/modules/hal/boards/hvkit_rev1p1/f28x/f2802x/src/hal.h",line 768,column 7,i
    2604 0000021d 1EC6          MOVL      *+XAR6[0],ACC         ; [CPU_] |768| 
    2605 0000021e       $C$L12:    
    2606                      .dwpsn  file "D:/BM1000/sw/modules/hal/boards/hvkit_rev1p1/f28x/f2802x/src/hal.h",line 1047,column 13
    2607 0000021e D0B2          MOVB      XAR0,#178             ; [CPU_] |1047| 
    2608 0000021f 92A7          MOV       AL,AR7                ; [CPU_] |1047| 
    2609 00000220 5494          CMP       AL,*+XAR4[AR0]        ; [CPU_] |1047| 
    2610 00000221 68EA          B         $C$L11,LO             ; [CPU_] |1047| 
    2611                      ; branchcc occurs ; [] |1047| 
    2612                      .dwpsn  file "D:/BM1000/sw/modules/hal/boards/hvkit_rev1p1/f28x/f2802x/src/hal.h",line 1058,column 7,
    2613 00000222 B600          MOVB      XAR7,#0               ; [CPU_] |1058| 
    2614 00000223 6F14          B         $C$L14,UNC            ; [CPU_] |1058| 
    2615                      ; branch occurs ; [] |1058| 
    2616 00000224       $C$L13:    
    2617                      .dwpsn  file "D:/BM1000/sw/modules/hal/boards/hvkit_rev1p1/f28x/f2802x/src/hal.h",line 356,column 7,i
    2618 00000224 0EA7          MOVU      ACC,AR7               ; [CPU_] |356| 
    2619 00000225 BE9E          MOVB      XAR6,#158             ; [CPU_] |356| 
    2620                      .dwpsn  file "D:/BM1000/sw/modules/hal/boards/hvkit_rev1p1/f28x/f2802x/src/hal.h",line 1062,column 7,
    2621 00000226 83A4          MOVL      XAR5,XAR4             ; [CPU_] |1062| 
    2622                      .dwpsn  file "D:/BM1000/sw/modules/hal/boards/hvkit_rev1p1/f28x/f2802x/src/hal.h",line 356,column 7,i
    2623 00000227 FF30          LSL       ACC,1                 ; [CPU_] |356| 
    2624 00000228 8EA9          MOVL      XAR0,ACC              ; [CPU_] |356| 
    2625 00000229 A8A9          MOVL      ACC,XAR4              ; [CPU_] |356| 
    2626 0000022a 07A0          ADDL      ACC,XAR0              ; [CPU_] |356| 
    2627 0000022b 0DA6          ADDU      ACC,AR6               ; [CPU_] |356| 
TMS320C2000 Assembler PC v6.2.5 Sat Sep 16 15:41:34 2017

Tools Copyright (c) 1996-2014 Texas Instruments Incorporated
C:\Users\wmj\AppData\Local\Temp\1144410                              PAGE   53

    2628 0000022c 1EA6          MOVL      XAR6,ACC              ; [CPU_] |356| 
    2629                      .dwpsn  file "D:/BM1000/sw/modules/hal/boards/hvkit_rev1p1/f28x/f2802x/src/hal.h",line 1062,column 7,
    2630 0000022d 3AA9          MOVL      ACC,XAR0              ; [CPU_] |1062| 
    2631 0000022e D040          MOVB      XAR0,#64              ; [CPU_] |1062| 
    2632 0000022f 5601          ADDL      XAR5,ACC              ; [CPU_] |1062| 
         00000230 00A5 
    2633 00000231 8395          MOVL      XAR5,*+XAR5[AR0]      ; [CPU_] |1062| 
    2634                      .dwpsn  file "D:/BM1000/sw/modules/hal/boards/hvkit_rev1p1/f28x/f2802x/src/hal.h",line 356,column 7,i
    2635 00000232 87C6          MOVL      XT,*+XAR6[0]          ; [CPU_] |356| 
    2636                      .dwpsn  file "D:/BM1000/sw/modules/hal/boards/hvkit_rev1p1/f28x/f2802x/src/hal.h",line 1058,column 50
    2637 00000233 DF01          ADDB      XAR7,#1               ; [CPU_] |1058| 
    2638                      .dwpsn  file "D:/BM1000/sw/modules/hal/boards/hvkit_rev1p1/f28x/f2802x/src/hal.h",line 1062,column 7,
    2639 00000234 ABA9          MOVL      ACC,XT                ; [CPU_] |1062| 
    2640 00000235 07C5          ADDL      ACC,*+XAR5[0]         ; [CPU_] |1062| 
    2641                      .dwpsn  file "D:/BM1000/sw/modules/hal/boards/hvkit_rev1p1/f28x/f2802x/src/hal.h",line 772,column 7,i
    2642 00000236 1EC6          MOVL      *+XAR6[0],ACC         ; [CPU_] |772| 
    2643 00000237       $C$L14:    
    2644                      .dwpsn  file "D:/BM1000/sw/modules/hal/boards/hvkit_rev1p1/f28x/f2802x/src/hal.h",line 1058,column 13
    2645 00000237 D0B3          MOVB      XAR0,#179             ; [CPU_] |1058| 
    2646 00000238 92A7          MOV       AL,AR7                ; [CPU_] |1058| 
    2647 00000239 5494          CMP       AL,*+XAR4[AR0]        ; [CPU_] |1058| 
    2648 0000023a 68EA          B         $C$L13,LO             ; [CPU_] |1058| 
    2649                      ; branchcc occurs ; [] |1058| 
    2650 0000023b       $C$L15:    
    2651                      .dwpsn  file "D:/BM1000/sw/solutions/instaspin_foc/src/proj_lab02b.c",line 334,column 21,is_stmt
    2652 0000023b 7680-         MOVL      XAR6,#_gMotorVars     ; [CPU_U] |334| 
         0000023c 0040 
    2653                      .dwpsn  file "D:/BM1000/sw/modules/hal/boards/hvkit_rev1p1/f28x/f2802x/src/hal.h",line 352,column 7,i
    2654 0000023d 0298          MOVB      ACC,#152              ; [CPU_] |352| 
    2655                      .dwpsn  file "D:/BM1000/sw/solutions/instaspin_foc/src/proj_lab02b.c",line 334,column 21,is_stmt
    2656 0000023e 83A6          MOVL      XAR5,XAR6             ; [CPU_] |334| 
    2657                      .dwpsn  file "D:/BM1000/sw/modules/hal/boards/hvkit_rev1p1/f28x/f2802x/src/hal.h",line 352,column 7,i
    2658 0000023f 07AB          ADDL      ACC,P                 ; [CPU_] |352| 
    2659 00000240 8AA9          MOVL      XAR4,ACC              ; [CPU_] |352| 
    2660 00000241 06C4          MOVL      ACC,*+XAR4[0]         ; [CPU_] |352| 
    2661                      .dwpsn  file "D:/BM1000/sw/solutions/instaspin_foc/src/proj_lab02b.c",line 334,column 21,is_stmt
    2662 00000242 DD5E          ADDB      XAR5,#94              ; [CPU_] |334| 
    2663 00000243 1EC5          MOVL      *+XAR5[0],ACC         ; [CPU_] |334| 
    2664                      .dwpsn  file "D:/BM1000/sw/solutions/instaspin_foc/src/proj_lab02b.c",line 339,column 21,is_stmt
    2665 00000244 DE64          ADDB      XAR6,#100             ; [CPU_] |339| 
    2666                      .dwpsn  file "D:/BM1000/sw/modules/hal/boards/hvkit_rev1p1/f28x/f2802x/src/hal.h",line 352,column 7,i
    2667 00000245 06D4          MOVL      ACC,*+XAR4[2]         ; [CPU_] |352| 
    2668                      .dwpsn  file "D:/BM1000/sw/solutions/instaspin_foc/src/proj_lab02b.c",line 335,column 21,is_stmt
    2669 00000246 1ED5          MOVL      *+XAR5[2],ACC         ; [CPU_] |335| 
    2670                      .dwpsn  file "D:/BM1000/sw/modules/hal/boards/hvkit_rev1p1/f28x/f2802x/src/hal.h",line 352,column 7,i
    2671 00000247 06E4          MOVL      ACC,*+XAR4[4]         ; [CPU_] |352| 
    2672                      .dwpsn  file "D:/BM1000/sw/solutions/instaspin_foc/src/proj_lab02b.c",line 336,column 21,is_stmt
    2673 00000248 1EE5          MOVL      *+XAR5[4],ACC         ; [CPU_] |336| 
    2674                      .dwpsn  file "D:/BM1000/sw/modules/hal/boards/hvkit_rev1p1/f28x/f2802x/src/hal.h",line 356,column 7,i
    2675 00000249 029E          MOVB      ACC,#158              ; [CPU_] |356| 
    2676 0000024a 07AB          ADDL      ACC,P                 ; [CPU_] |356| 
    2677 0000024b 8AA9          MOVL      XAR4,ACC              ; [CPU_] |356| 
    2678 0000024c 06C4          MOVL      ACC,*+XAR4[0]         ; [CPU_] |356| 
    2679                      .dwpsn  file "D:/BM1000/sw/solutions/instaspin_foc/src/proj_lab02b.c",line 339,column 21,is_stmt
    2680 0000024d 1EC6          MOVL      *+XAR6[0],ACC         ; [CPU_] |339| 
TMS320C2000 Assembler PC v6.2.5 Sat Sep 16 15:41:34 2017

Tools Copyright (c) 1996-2014 Texas Instruments Incorporated
C:\Users\wmj\AppData\Local\Temp\1144410                              PAGE   54

    2681                      .dwpsn  file "D:/BM1000/sw/modules/hal/boards/hvkit_rev1p1/f28x/f2802x/src/hal.h",line 356,column 7,i
    2682 0000024e 06D4          MOVL      ACC,*+XAR4[2]         ; [CPU_] |356| 
    2683                      .dwpsn  file "D:/BM1000/sw/solutions/instaspin_foc/src/proj_lab02b.c",line 340,column 21,is_stmt
    2684 0000024f 1ED6          MOVL      *+XAR6[2],ACC         ; [CPU_] |340| 
    2685                      .dwpsn  file "D:/BM1000/sw/modules/hal/boards/hvkit_rev1p1/f28x/f2802x/src/hal.h",line 356,column 7,i
    2686 00000250 06E4          MOVL      ACC,*+XAR4[4]         ; [CPU_] |356| 
    2687                      .dwpsn  file "D:/BM1000/sw/modules/hal/boards/hvkit_rev1p1/f28x/f2802x/src/hal.h",line 309,column 3,i
    2688 00000251 A9A4          MOVL      XAR4,P                ; [CPU_] |309| 
    2689                      .dwpsn  file "D:/BM1000/sw/solutions/instaspin_foc/src/proj_lab02b.c",line 341,column 21,is_stmt
    2690 00000252 1EE6          MOVL      *+XAR6[4],ACC         ; [CPU_] |341| 
    2691                      .dwpsn  file "D:/BM1000/sw/drivers/pwm/src/32b/f28x/f2802x/pwm.h",line 955,column 5,is_stmt
    2692 00000253 6F04          B         $C$L17,UNC            ; [CPU_] |955| 
    2693                      ; branch occurs ; [] |955| 
    2694 00000254       $C$L16:    
    2695 00000254 761F-         MOVW      DP,#_halHandle        ; [CPU_U] 
         00000255 0000 
    2696                      .dwpsn  file "D:/BM1000/sw/modules/hal/boards/hvkit_rev1p1/f28x/f2802x/src/hal.h",line 307,column 16,
    2697 00000256 8A08-         MOVL      XAR4,@_halHandle      ; [CPU_] |307| 
    2698 00000257       $C$L17:    
    2699                      .dwpsn  file "D:/BM1000/sw/modules/hal/boards/hvkit_rev1p1/f28x/f2802x/src/hal.h",line 309,column 3,i
    2700 00000257 DC7C          ADDB      XAR4,#124             ; [CPU_] |309| 
    2701 00000258 83C4          MOVL      XAR5,*+XAR4[0]        ; [CPU_] |309| 
    2702 00000259 7622   EALLOW
    2703                      .dwpsn  file "D:/BM1000/sw/drivers/pwm/src/32b/f28x/f2802x/pwm.h",line 951,column 5,is_stmt
    2704 0000025a D017          MOVB      XAR0,#23              ; [CPU_] |951| 
    2705 0000025b 56BF          MOVB      *+XAR5[AR0],#4,UNC    ; [CPU_] |951| 
         0000025c 0495 
    2706 0000025d 761A   EDIS
    2707                      .dwpsn  file "D:/BM1000/sw/modules/hal/boards/hvkit_rev1p1/f28x/f2802x/src/hal.h",line 310,column 3,i
    2708 0000025e 83D4          MOVL      XAR5,*+XAR4[2]        ; [CPU_] |310| 
    2709 0000025f 7622   EALLOW
    2710                      .dwpsn  file "D:/BM1000/sw/drivers/pwm/src/32b/f28x/f2802x/pwm.h",line 951,column 5,is_stmt
    2711 00000260 D017          MOVB      XAR0,#23              ; [CPU_] |951| 
    2712 00000261 56BF          MOVB      *+XAR5[AR0],#4,UNC    ; [CPU_] |951| 
         00000262 0495 
    2713 00000263 761A   EDIS
    2714                      .dwpsn  file "D:/BM1000/sw/modules/hal/boards/hvkit_rev1p1/f28x/f2802x/src/hal.h",line 311,column 3,i
    2715 00000264 8AE4          MOVL      XAR4,*+XAR4[4]        ; [CPU_] |311| 
    2716 00000265 7622   EALLOW
    2717                      .dwpsn  file "D:/BM1000/sw/drivers/pwm/src/32b/f28x/f2802x/pwm.h",line 951,column 5,is_stmt
    2718 00000266 D017          MOVB      XAR0,#23              ; [CPU_] |951| 
    2719 00000267 56BF          MOVB      *+XAR4[AR0],#4,UNC    ; [CPU_] |951| 
         00000268 0494 
    2720 00000269 761A   EDIS
    2721 0000026a       $C$L18:    
    2722 0000026a 761F-         MOVW      DP,#_ctrlHandle       ; [CPU_U] 
         0000026b 0000 
    2723                      .dwpsn  file "D:/BM1000/sw/solutions/instaspin_foc/src/proj_lab02b.c",line 353,column 17,is_stmt
    2724 0000026c 8A0A-         MOVL      XAR4,@_ctrlHandle     ; [CPU_] |353| 
    2725 0000026d D0F5          MOVB      XAR0,#245             ; [CPU_] |353| 
    2726 0000026e 9294          MOV       AL,*+XAR4[AR0]        ; [CPU_] |353| 
    2727 0000026f 5201          CMPB      AL,#1                 ; [CPU_] |353| 
    2728 00000270 ED28          BF        $C$L20,NEQ            ; [CPU_] |353| 
    2729                      ; branchcc occurs ; [] |353| 
    2730 00000271 92A1          MOV       AL,AR1                ; [CPU_] 
TMS320C2000 Assembler PC v6.2.5 Sat Sep 16 15:41:34 2017

Tools Copyright (c) 1996-2014 Texas Instruments Incorporated
C:\Users\wmj\AppData\Local\Temp\1144410                              PAGE   55

    2731 00000272 5202          CMPB      AL,#2                 ; [CPU_] |353| 
    2732 00000273 6425          B         $C$L20,LT             ; [CPU_] |353| 
    2733                      ; branchcc occurs ; [] |353| 
    2734 00000274 761F-         MOVW      DP,#_gMotorVars+19    ; [CPU_U] 
         00000275 0001 
    2735 00000276 9213-         MOV       AL,@_gMotorVars+19    ; [CPU_] |353| 
    2736 00000277 5206          CMPB      AL,#6                 ; [CPU_] |353| 
    2737 00000278 ED20          BF        $C$L20,NEQ            ; [CPU_] |353| 
    2738                      ; branchcc occurs ; [] |353| 
    2739 00000279 FF69          SPM       #0                    ; [CPU_] 
    2740                      .dwpsn  file "D:/BM1000/sw/solutions/instaspin_foc/src/proj_lab02b.c",line 358,column 21,is_stmt
    2741              $C$DW$289       .dwtag  DW_TAG_TI_branch
    2742                      .dwattr $C$DW$289, DW_AT_low_pc(0x00)
    2743                      .dwattr $C$DW$289, DW_AT_name("_USER_softwareUpdate1p6")
    2744                      .dwattr $C$DW$289, DW_AT_TI_call
    2745 0000027a 7640!         LCR       #_USER_softwareUpdate1p6 ; [CPU_] |358| 
         0000027b 0000 
    2746                      ; call occurs [#_USER_softwareUpdate1p6] ; [] |358| 
    2747 0000027c 6F1C          B         $C$L20,UNC            ; [CPU_] |358| 
    2748                      ; branch occurs ; [] |358| 
    2749 0000027d       $C$L19:    
    2750                      .dwpsn  file "D:/BM1000/sw/modules/ctrl/src/32b/ctrl.h",line 1218,column 3,is_stmt
    2751 0000027d D0F0          MOVB      XAR0,#240             ; [CPU_] |1218| 
    2752 0000027e 761F-         MOVW      DP,#_gMotorVars       ; [CPU_U] 
         0000027f 0001 
    2753 00000280 2B92          MOV       *+XAR2[AR0],#0        ; [CPU_] |1218| 
    2754                      .dwpsn  file "D:/BM1000/sw/solutions/instaspin_foc/src/proj_lab02b.c",line 302,column 13,is_stmt
    2755 00000281 2B00-         MOV       @_gMotorVars,#0       ; [CPU_] |302| 
    2756 00000282 761F-         MOVW      DP,#_halHandle        ; [CPU_U] 
         00000283 0000 
    2757                      .dwpsn  file "D:/BM1000/sw/modules/hal/boards/hvkit_rev1p1/f28x/f2802x/src/hal.h",line 271,column 16,
    2758 00000284 8A08-         MOVL      XAR4,@_halHandle      ; [CPU_] |271| 
    2759                      .dwpsn  file "D:/BM1000/sw/modules/hal/boards/hvkit_rev1p1/f28x/f2802x/src/hal.h",line 273,column 3,i
    2760 00000285 DC7C          ADDB      XAR4,#124             ; [CPU_] |273| 
    2761 00000286 83C4          MOVL      XAR5,*+XAR4[0]        ; [CPU_] |273| 
    2762 00000287 7622   EALLOW
    2763                      .dwpsn  file "D:/BM1000/sw/drivers/pwm/src/32b/f28x/f2802x/pwm.h",line 1567,column 5,is_stmt
    2764 00000288 DD18          ADDB      XAR5,#24              ; [CPU_] |1567| 
    2765 00000289 1AC5          OR        *+XAR5[0],#0x0004     ; [CPU_] |1567| 
         0000028a 0004 
    2766 0000028b 761A   EDIS
    2767                      .dwpsn  file "D:/BM1000/sw/modules/hal/boards/hvkit_rev1p1/f28x/f2802x/src/hal.h",line 274,column 3,i
    2768 0000028c 83D4          MOVL      XAR5,*+XAR4[2]        ; [CPU_] |274| 
    2769 0000028d 7622   EALLOW
    2770                      .dwpsn  file "D:/BM1000/sw/drivers/pwm/src/32b/f28x/f2802x/pwm.h",line 1567,column 5,is_stmt
    2771 0000028e DD18          ADDB      XAR5,#24              ; [CPU_] |1567| 
    2772 0000028f 1AC5          OR        *+XAR5[0],#0x0004     ; [CPU_] |1567| 
         00000290 0004 
    2773 00000291 761A   EDIS
    2774                      .dwpsn  file "D:/BM1000/sw/modules/hal/boards/hvkit_rev1p1/f28x/f2802x/src/hal.h",line 275,column 3,i
    2775 00000292 8AE4          MOVL      XAR4,*+XAR4[4]        ; [CPU_] |275| 
    2776 00000293 7622   EALLOW
    2777                      .dwpsn  file "D:/BM1000/sw/drivers/pwm/src/32b/f28x/f2802x/pwm.h",line 1567,column 5,is_stmt
    2778 00000294 DC18          ADDB      XAR4,#24              ; [CPU_] |1567| 
    2779 00000295 1AC4          OR        *+XAR4[0],#0x0004     ; [CPU_] |1567| 
TMS320C2000 Assembler PC v6.2.5 Sat Sep 16 15:41:34 2017

Tools Copyright (c) 1996-2014 Texas Instruments Incorporated
C:\Users\wmj\AppData\Local\Temp\1144410                              PAGE   56

         00000296 0004 
    2780 00000297 761A   EDIS
    2781 00000298       $C$L20:    
    2782                      .dwpsn  file "D:/BM1000/sw/solutions/instaspin_foc/src/proj_lab02b.c",line 365,column 9,is_stmt
    2783 00000298 D018          MOVB      XAR0,#24              ; [CPU_] |365| 
    2784 00000299 FF69          SPM       #0                    ; [CPU_] 
    2785 0000029a 8A92          MOVL      XAR4,*+XAR2[AR0]      ; [CPU_] |365| 
    2786              $C$DW$290       .dwtag  DW_TAG_TI_branch
    2787                      .dwattr $C$DW$290, DW_AT_low_pc(0x00)
    2788                      .dwattr $C$DW$290, DW_AT_name("_EST_isMotorIdentified")
    2789                      .dwattr $C$DW$290, DW_AT_TI_call
    2790 0000029b 7640!         LCR       #_EST_isMotorIdentified ; [CPU_] |365| 
         0000029c 0000 
    2791                      ; call occurs [#_EST_isMotorIdentified] ; [] |365| 
    2792 0000029d 5200          CMPB      AL,#0                 ; [CPU_] |365| 
    2793 0000029e EC5E          BF        $C$L21,EQ             ; [CPU_] |365| 
    2794                      ; branchcc occurs ; [] |365| 
    2795                      .dwpsn  file "D:/BM1000/sw/solutions/instaspin_foc/src/proj_lab02b.c",line 368,column 13,is_stmt
    2796 0000029f D018          MOVB      XAR0,#24              ; [CPU_] |368| 
    2797 000002a0 761F-         MOVW      DP,#_gMaxCurrentSlope ; [CPU_U] 
         000002a1 0000 
    2798 000002a2 8A92          MOVL      XAR4,*+XAR2[AR0]      ; [CPU_] |368| 
    2799 000002a3 0604-         MOVL      ACC,@_gMaxCurrentSlope ; [CPU_] |368| 
    2800              $C$DW$291       .dwtag  DW_TAG_TI_branch
    2801                      .dwattr $C$DW$291, DW_AT_low_pc(0x00)
    2802                      .dwattr $C$DW$291, DW_AT_name("_EST_setMaxCurrentSlope_pu")
    2803                      .dwattr $C$DW$291, DW_AT_TI_call
    2804 000002a4 7640!         LCR       #_EST_setMaxCurrentSlope_pu ; [CPU_] |368| 
         000002a5 0000 
    2805                      ; call occurs [#_EST_setMaxCurrentSlope_pu] ; [] |368| 
    2806                      .dwpsn  file "D:/BM1000/sw/solutions/instaspin_foc/src/proj_lab02b.c",line 369,column 13,is_stmt
    2807 000002a6 56BF          MOVB      *+XAR3[2],#1,UNC      ; [CPU_] |369| 
         000002a7 01D3 
    2808                      .dwpsn  file "D:/BM1000/sw/solutions/instaspin_foc/src/proj_lab02b.c",line 372,column 13,is_stmt
    2809 000002a8 D01A          MOVB      XAR0,#26              ; [CPU_] |372| 
    2810 000002a9 761F-         MOVW      DP,#_ctrlHandle       ; [CPU_U] 
         000002aa 0000 
    2811 000002ab 0693          MOVL      ACC,*+XAR3[AR0]       ; [CPU_] |372| 
    2812 000002ac 8A0A-         MOVL      XAR4,@_ctrlHandle     ; [CPU_] |372| 
    2813              $C$DW$292       .dwtag  DW_TAG_TI_branch
    2814                      .dwattr $C$DW$292, DW_AT_low_pc(0x00)
    2815                      .dwattr $C$DW$292, DW_AT_name("_CTRL_setSpd_ref_krpm")
    2816                      .dwattr $C$DW$292, DW_AT_TI_call
    2817 000002ad 7640!         LCR       #_CTRL_setSpd_ref_krpm ; [CPU_] |372| 
         000002ae 0000 
    2818                      ; call occurs [#_CTRL_setSpd_ref_krpm] ; [] |372| 
    2819 000002af 761F-         MOVW      DP,#_ctrlHandle       ; [CPU_U] 
         000002b0 0000 
    2820                      .dwpsn  file "D:/BM1000/sw/solutions/instaspin_foc/src/proj_lab02b.c",line 375,column 13,is_stmt
    2821 000002b1 D035          MOVB      XAR0,#53              ; [CPU_] |375| 
    2822 000002b2 8F00-         MOVL      XAR4,#_gUserParams    ; [CPU_U] |375| 
         000002b3 00C0 
    2823 000002b4 8B0A-         MOVL      XAR1,@_ctrlHandle     ; [CPU_] |375| 
    2824 000002b5 A850          MOVL      *-SP[16],XAR4         ; [CPU_] |375| 
    2825 000002b6 9294          MOV       AL,*+XAR4[AR0]        ; [CPU_] |375| 
TMS320C2000 Assembler PC v6.2.5 Sat Sep 16 15:41:34 2017

Tools Copyright (c) 1996-2014 Texas Instruments Incorporated
C:\Users\wmj\AppData\Local\Temp\1144410                              PAGE   57

    2826              $C$DW$293       .dwtag  DW_TAG_TI_branch
    2827                      .dwattr $C$DW$293, DW_AT_low_pc(0x00)
    2828                      .dwattr $C$DW$293, DW_AT_name("U$$TOFS")
    2829                      .dwattr $C$DW$293, DW_AT_TI_call
    2830 000002b7 7640!         LCR       #U$$TOFS              ; [CPU_] |375| 
         000002b8 0000 
    2831                      ; call occurs [#U$$TOFS] ; [] |375| 
    2832 000002b9 1EA6          MOVL      XAR6,ACC              ; [CPU_] |375| 
    2833 000002ba 9A00          MOV       AL,#0                 ; [CPU_] |375| 
    2834 000002bb 28A8          MOV       AH,#17530             ; [CPU_] |375| 
         000002bc 447A 
    2835 000002bd 1E42          MOVL      *-SP[2],ACC           ; [CPU_] |375| 
    2836 000002be 06A6          MOVL      ACC,XAR6              ; [CPU_] |375| 
    2837              $C$DW$294       .dwtag  DW_TAG_TI_branch
    2838                      .dwattr $C$DW$294, DW_AT_low_pc(0x00)
    2839                      .dwattr $C$DW$294, DW_AT_name("FS$$MPY")
    2840                      .dwattr $C$DW$294, DW_AT_TI_call
    2841 000002bf 7640!         LCR       #FS$$MPY              ; [CPU_] |375| 
         000002c0 0000 
    2842                      ; call occurs [#FS$$MPY] ; [] |375| 
    2843 000002c1 1EA6          MOVL      XAR6,ACC              ; [CPU_] |375| 
    2844 000002c2 28A9          MOV       AL,#32768             ; [CPU_] |375| 
         000002c3 8000 
    2845 000002c4 28A8          MOV       AH,#17318             ; [CPU_] |375| 
         000002c5 43A6 
    2846 000002c6 1E42          MOVL      *-SP[2],ACC           ; [CPU_] |375| 
    2847 000002c7 06A6          MOVL      ACC,XAR6              ; [CPU_] |375| 
    2848              $C$DW$295       .dwtag  DW_TAG_TI_branch
    2849                      .dwattr $C$DW$295, DW_AT_low_pc(0x00)
    2850                      .dwattr $C$DW$295, DW_AT_name("FS$$DIV")
    2851                      .dwattr $C$DW$295, DW_AT_TI_call
    2852 000002c8 7640!         LCR       #FS$$DIV              ; [CPU_] |375| 
         000002c9 0000 
    2853                      ; call occurs [#FS$$DIV] ; [] |375| 
    2854 000002ca 1EA6          MOVL      XAR6,ACC              ; [CPU_] |375| 
    2855 000002cb 9A00          MOV       AL,#0                 ; [CPU_] |375| 
    2856 000002cc 28A8          MOV       AH,#17224             ; [CPU_] |375| 
         000002cd 4348 
    2857 000002ce 1E42          MOVL      *-SP[2],ACC           ; [CPU_] |375| 
    2858 000002cf 06A6          MOVL      ACC,XAR6              ; [CPU_] |375| 
    2859              $C$DW$296       .dwtag  DW_TAG_TI_branch
    2860                      .dwattr $C$DW$296, DW_AT_low_pc(0x00)
    2861                      .dwattr $C$DW$296, DW_AT_name("FS$$DIV")
    2862                      .dwattr $C$DW$296, DW_AT_TI_call
    2863 000002d0 7640!         LCR       #FS$$DIV              ; [CPU_] |375| 
         000002d1 0000 
    2864                      ; call occurs [#FS$$DIV] ; [] |375| 
    2865 000002d2 1EA6          MOVL      XAR6,ACC              ; [CPU_] |375| 
    2866 000002d3 9A00          MOV       AL,#0                 ; [CPU_] |375| 
    2867 000002d4 28A8          MOV       AH,#17008             ; [CPU_] |375| 
         000002d5 4270 
    2868 000002d6 1E42          MOVL      *-SP[2],ACC           ; [CPU_] |375| 
    2869 000002d7 06A6          MOVL      ACC,XAR6              ; [CPU_] |375| 
    2870              $C$DW$297       .dwtag  DW_TAG_TI_branch
    2871                      .dwattr $C$DW$297, DW_AT_low_pc(0x00)
TMS320C2000 Assembler PC v6.2.5 Sat Sep 16 15:41:34 2017

Tools Copyright (c) 1996-2014 Texas Instruments Incorporated
C:\Users\wmj\AppData\Local\Temp\1144410                              PAGE   58

    2872                      .dwattr $C$DW$297, DW_AT_name("FS$$DIV")
    2873                      .dwattr $C$DW$297, DW_AT_TI_call
    2874 000002d8 7640!         LCR       #FS$$DIV              ; [CPU_] |375| 
         000002d9 0000 
    2875                      ; call occurs [#FS$$DIV] ; [] |375| 
    2876 000002da 88AD          MOVZ      AR6,SP                ; [CPU_U] |375| 
    2877 000002db DE8E          SUBB      XAR6,#14              ; [CPU_U] |375| 
    2878              $C$DW$298       .dwtag  DW_TAG_TI_branch
    2879                      .dwattr $C$DW$298, DW_AT_low_pc(0x00)
    2880                      .dwattr $C$DW$298, DW_AT_name("FS$$TOFD")
    2881                      .dwattr $C$DW$298, DW_AT_TI_call
    2882 000002dc 7640!         LCR       #FS$$TOFD             ; [CPU_] |375| 
         000002dd 0000 
    2883                      ; call occurs [#FS$$TOFD] ; [] |375| 
    2884 000002de 5CAD          MOVZ      AR4,SP                ; [CPU_U] |375| 
    2885 000002df 88AD          MOVZ      AR6,SP                ; [CPU_U] |375| 
    2886 000002e0 8F40+         MOVL      XAR5,#$C$FL1          ; [CPU_U] |375| 
         000002e1 0000 
    2887 000002e2 DC8E          SUBB      XAR4,#14              ; [CPU_U] |375| 
    2888 000002e3 DE8A          SUBB      XAR6,#10              ; [CPU_U] |375| 
    2889              $C$DW$299       .dwtag  DW_TAG_TI_branch
    2890                      .dwattr $C$DW$299, DW_AT_low_pc(0x00)
    2891                      .dwattr $C$DW$299, DW_AT_name("FD$$MPY")
    2892                      .dwattr $C$DW$299, DW_AT_TI_call
    2893 000002e4 7640!         LCR       #FD$$MPY              ; [CPU_] |375| 
         000002e5 0000 
    2894                      ; call occurs [#FD$$MPY] ; [] |375| 
    2895 000002e6 5CAD          MOVZ      AR4,SP                ; [CPU_U] |375| 
    2896 000002e7 DC8A          SUBB      XAR4,#10              ; [CPU_U] |375| 
    2897              $C$DW$300       .dwtag  DW_TAG_TI_branch
    2898                      .dwattr $C$DW$300, DW_AT_low_pc(0x00)
    2899                      .dwattr $C$DW$300, DW_AT_name("FD$$TOL")
    2900                      .dwattr $C$DW$300, DW_AT_TI_call
    2901 000002e8 7640!         LCR       #FD$$TOL              ; [CPU_] |375| 
         000002e9 0000 
    2902                      ; call occurs [#FD$$TOL] ; [] |375| 
    2903 000002ea D01E          MOVB      XAR0,#30              ; [CPU_] |375| 
    2904 000002eb 761F-         MOVW      DP,#_Flag_Latch_softwareUpdate ; [CPU_U] 
         000002ec 0000 
    2905 000002ed 1EAC          MOVL      XT,ACC                ; [CPU_] |375| 
    2906 000002ee 5605          IMPYL     P,XT,*+XAR3[AR0]      ; [CPU_] |375| 
         000002ef 0093 
    2907 000002f0 5663          QMPYL     ACC,XT,*+XAR3[AR0]    ; [CPU_] |375| 
         000002f1 0093 
    2908                      .dwpsn  file "D:/BM1000/sw/modules/ctrl/src/32b/ctrl.h",line 1560,column 3,is_stmt
    2909 000002f2 D076          MOVB      XAR0,#118             ; [CPU_] |1560| 
    2910                      .dwpsn  file "D:/BM1000/sw/solutions/instaspin_foc/src/proj_lab02b.c",line 375,column 13,is_stmt
    2911 000002f3 56A7          LSL64     ACC:P,#8              ; [CPU_] |375| 
    2912                      .dwpsn  file "D:/BM1000/sw/modules/ctrl/src/32b/ctrl.h",line 1560,column 3,is_stmt
    2913 000002f4 1E91          MOVL      *+XAR1[AR0],ACC       ; [CPU_] |1560| 
    2914                      .dwpsn  file "D:/BM1000/sw/solutions/instaspin_foc/src/proj_lab02b.c",line 377,column 13,is_stmt
    2915 000002f5 9200-         MOV       AL,@_Flag_Latch_softwareUpdate ; [CPU_] |377| 
    2916 000002f6 EC14          BF        $C$L23,EQ             ; [CPU_] |377| 
    2917                      ; branchcc occurs ; [] |377| 
    2918                      .dwpsn  file "D:/BM1000/sw/solutions/instaspin_foc/src/proj_lab02b.c",line 379,column 15,is_stmt
TMS320C2000 Assembler PC v6.2.5 Sat Sep 16 15:41:34 2017

Tools Copyright (c) 1996-2014 Texas Instruments Incorporated
C:\Users\wmj\AppData\Local\Temp\1144410                              PAGE   59

    2919 000002f7 2B00-         MOV       @_Flag_Latch_softwareUpdate,#0 ; [CPU_] |379| 
    2920                      .dwpsn  file "D:/BM1000/sw/solutions/instaspin_foc/src/proj_lab02b.c",line 381,column 15,is_stmt
    2921 000002f8 8AA1          MOVL      XAR4,XAR1             ; [CPU_] |381| 
    2922              $C$DW$301       .dwtag  DW_TAG_TI_branch
    2923                      .dwattr $C$DW$301, DW_AT_low_pc(0x00)
    2924                      .dwattr $C$DW$301, DW_AT_name("_USER_calcPIgains")
    2925                      .dwattr $C$DW$301, DW_AT_TI_call
    2926 000002f9 7640!         LCR       #_USER_calcPIgains    ; [CPU_] |381| 
         000002fa 0000 
    2927                      ; call occurs [#_USER_calcPIgains] ; [] |381| 
    2928 000002fb 6F0C          B         $C$L22,UNC            ; [CPU_] |381| 
    2929                      ; branch occurs ; [] |381| 
    2930 000002fc       $C$L21:    
    2931                      .dwpsn  file "D:/BM1000/sw/solutions/instaspin_foc/src/proj_lab02b.c",line 390,column 13,is_stmt
    2932 000002fc D018          MOVB      XAR0,#24              ; [CPU_] |390| 
    2933 000002fd 761F-         MOVW      DP,#_Flag_Latch_softwareUpdate ; [CPU_U] 
         000002fe 0000 
    2934 000002ff 8A92          MOVL      XAR4,*+XAR2[AR0]      ; [CPU_] |390| 
    2935                      .dwpsn  file "D:/BM1000/sw/solutions/instaspin_foc/src/proj_lab02b.c",line 387,column 13,is_stmt
    2936 00000300 56BF-         MOVB      @_Flag_Latch_softwareUpdate,#1,UNC ; [CPU_] |387| 
         00000301 0100 
    2937                      .dwpsn  file "D:/BM1000/sw/solutions/instaspin_foc/src/proj_lab02b.c",line 390,column 13,is_stmt
    2938              $C$DW$302       .dwtag  DW_TAG_TI_branch
    2939                      .dwattr $C$DW$302, DW_AT_low_pc(0x00)
    2940                      .dwattr $C$DW$302, DW_AT_name("_EST_getMaxCurrentSlope_pu")
    2941                      .dwattr $C$DW$302, DW_AT_TI_call
    2942 00000302 7640!         LCR       #_EST_getMaxCurrentSlope_pu ; [CPU_] |390| 
         00000303 0000 
    2943                      ; call occurs [#_EST_getMaxCurrentSlope_pu] ; [] |390| 
    2944 00000304 761F-         MOVW      DP,#_gMaxCurrentSlope ; [CPU_U] 
         00000305 0000 
    2945 00000306 1E04-         MOVL      @_gMaxCurrentSlope,ACC ; [CPU_] |390| 
    2946 00000307       $C$L22:    
    2947 00000307 761F-         MOVW      DP,#_ctrlHandle       ; [CPU_U] 
         00000308 0000 
    2948 00000309 8B0A-         MOVL      XAR1,@_ctrlHandle     ; [CPU_] |390| 
    2949 0000030a       $C$L23:    
    2950                      .dwpsn  file "D:/BM1000/sw/solutions/instaspin_foc/src/proj_lab02b.c",line 395,column 9,is_stmt
    2951 0000030a 9201-         MOV       AL,@_gCounter_updateGlobals ; [CPU_] |395| 
    2952 0000030b EC08          BF        $C$L24,EQ             ; [CPU_] |395| 
    2953                      ; branchcc occurs ; [] |395| 
    2954                      .dwpsn  file "D:/BM1000/sw/solutions/instaspin_foc/src/proj_lab02b.c",line 398,column 13,is_stmt
    2955 0000030c 2B01-         MOV       @_gCounter_updateGlobals,#0 ; [CPU_] |398| 
    2956                      .dwpsn  file "D:/BM1000/sw/solutions/instaspin_foc/src/proj_lab02b.c",line 400,column 13,is_stmt
    2957 0000030d 8AA1          MOVL      XAR4,XAR1             ; [CPU_] |400| 
    2958              $C$DW$303       .dwtag  DW_TAG_TI_branch
    2959                      .dwattr $C$DW$303, DW_AT_low_pc(0x00)
    2960                      .dwattr $C$DW$303, DW_AT_name("_updateGlobalVariables_motor")
    2961                      .dwattr $C$DW$303, DW_AT_TI_call
    2962 0000030e 7640'         LCR       #_updateGlobalVariables_motor ; [CPU_] |400| 
         0000030f 0000 
    2963                      ; call occurs [#_updateGlobalVariables_motor] ; [] |400| 
    2964 00000310 761F-         MOVW      DP,#_ctrlHandle       ; [CPU_U] 
         00000311 0000 
    2965 00000312 8B0A-         MOVL      XAR1,@_ctrlHandle     ; [CPU_] |400| 
TMS320C2000 Assembler PC v6.2.5 Sat Sep 16 15:41:34 2017

Tools Copyright (c) 1996-2014 Texas Instruments Incorporated
C:\Users\wmj\AppData\Local\Temp\1144410                              PAGE   60

    2966 00000313       $C$L24:    
    2967                      .dwpsn  file "D:/BM1000/sw/solutions/instaspin_foc/src/proj_lab02b.c",line 404,column 9,is_stmt
    2968 00000313 8AA1          MOVL      XAR4,XAR1             ; [CPU_] |404| 
    2969              $C$DW$304       .dwtag  DW_TAG_TI_branch
    2970                      .dwattr $C$DW$304, DW_AT_low_pc(0x00)
    2971                      .dwattr $C$DW$304, DW_AT_name("_recalcKpKi")
    2972                      .dwattr $C$DW$304, DW_AT_TI_call
    2973 00000314 7640'         LCR       #_recalcKpKi          ; [CPU_] |404| 
         00000315 0087 
    2974                      ; call occurs [#_recalcKpKi] ; [] |404| 
    2975 00000316 761F-         MOVW      DP,#_ctrlHandle       ; [CPU_U] 
         00000317 0000 
    2976                      .dwpsn  file "D:/BM1000/sw/solutions/instaspin_foc/src/proj_lab02b.c",line 406,column 9,is_stmt
    2977 00000318 8A0A-         MOVL      XAR4,@_ctrlHandle     ; [CPU_] |406| 
    2978 00000319 D084          MOVB      XAR0,#132             ; [CPU_] |406| 
    2979 0000031a 9294          MOV       AL,*+XAR4[AR0]        ; [CPU_] |406| 
    2980 0000031b 5201          CMPB      AL,#1                 ; [CPU_] |406| 
    2981 0000031c EC08          BF        $C$L25,EQ             ; [CPU_] |406| 
    2982                      ; branchcc occurs ; [] |406| 
    2983                      .dwpsn  file "D:/BM1000/sw/solutions/instaspin_foc/src/proj_lab02b.c",line 409,column 13,is_stmt
    2984              $C$DW$305       .dwtag  DW_TAG_TI_branch
    2985                      .dwattr $C$DW$305, DW_AT_low_pc(0x00)
    2986                      .dwattr $C$DW$305, DW_AT_name("_setFeLimitZero")
    2987                      .dwattr $C$DW$305, DW_AT_TI_call
    2988 0000031d 7640'         LCR       #_setFeLimitZero      ; [CPU_] |409| 
         0000031e 005E 
    2989                      ; call occurs [#_setFeLimitZero] ; [] |409| 
    2990 0000031f 761F-         MOVW      DP,#_ctrlHandle       ; [CPU_U] 
         00000320 0000 
    2991                      .dwpsn  file "D:/BM1000/sw/solutions/instaspin_foc/src/proj_lab02b.c",line 412,column 13,is_stmt
    2992 00000321 8A0A-         MOVL      XAR4,@_ctrlHandle     ; [CPU_] |412| 
    2993              $C$DW$306       .dwtag  DW_TAG_TI_branch
    2994                      .dwattr $C$DW$306, DW_AT_low_pc(0x00)
