TMS320C2000 Assembler PC v6.2.5 Fri Sep 29 09:29:33 2017

Tools Copyright (c) 1996-2014 Texas Instruments Incorporated
C:\Users\wmj\AppData\Local\Temp\1142410                              PAGE    1

       1              ;***************************************************************
       2              ;* TMS320C2000 C/C++ Codegen                         PC v6.2.5 *
       3              ;* Date/Time created: Fri Sep 29 09:29:33 2017                 *
       4              ;***************************************************************
       5                      .compiler_opts --float_support=softlib --hll_source=on --mem_model:code=flat --mem_model:data=large -
       6        0002  FP      .set    XAR2
       7              
       8              $C$DW$CU        .dwtag  DW_TAG_compile_unit
       9                      .dwattr $C$DW$CU, DW_AT_name("D:/BM1000/sw/drivers/drvic/modbus/mb.c")
      10                      .dwattr $C$DW$CU, DW_AT_producer("TMS320C2000 C/C++ Codegen PC v6.2.5 Copyright (c) 1996-2014 Texas I
      11                      .dwattr $C$DW$CU, DW_AT_TI_version(0x01)
      12                      .dwattr $C$DW$CU, DW_AT_comp_dir("D:\BM1000\sw\solutions\instaspin_foc\boards\hvkit_rev1p1\f28x\f2802
      13              
      14              $C$DW$1 .dwtag  DW_TAG_subprogram, DW_AT_name("SCI_enableRx")
      15                      .dwattr $C$DW$1, DW_AT_TI_symbol_name("_SCI_enableRx")
      16                      .dwattr $C$DW$1, DW_AT_declaration
      17                      .dwattr $C$DW$1, DW_AT_external
      18              $C$DW$2 .dwtag  DW_TAG_formal_parameter
      19                      .dwattr $C$DW$2, DW_AT_type(*$C$DW$T$138)
      20                      .dwendtag $C$DW$1
      21              
      22              
      23              $C$DW$3 .dwtag  DW_TAG_subprogram, DW_AT_name("SCI_enableTx")
      24                      .dwattr $C$DW$3, DW_AT_TI_symbol_name("_SCI_enableTx")
      25                      .dwattr $C$DW$3, DW_AT_declaration
      26                      .dwattr $C$DW$3, DW_AT_external
      27              $C$DW$4 .dwtag  DW_TAG_formal_parameter
      28                      .dwattr $C$DW$4, DW_AT_type(*$C$DW$T$138)
      29                      .dwendtag $C$DW$3
      30              
      31              
      32              $C$DW$5 .dwtag  DW_TAG_subprogram, DW_AT_name("TIMER_clearFlag")
      33                      .dwattr $C$DW$5, DW_AT_TI_symbol_name("_TIMER_clearFlag")
      34                      .dwattr $C$DW$5, DW_AT_declaration
      35                      .dwattr $C$DW$5, DW_AT_external
      36              $C$DW$6 .dwtag  DW_TAG_formal_parameter
      37                      .dwattr $C$DW$6, DW_AT_type(*$C$DW$T$129)
      38                      .dwendtag $C$DW$5
      39              
      40              
      41              $C$DW$7 .dwtag  DW_TAG_subprogram, DW_AT_name("SCI_disableTx")
      42                      .dwattr $C$DW$7, DW_AT_TI_symbol_name("_SCI_disableTx")
      43                      .dwattr $C$DW$7, DW_AT_declaration
      44                      .dwattr $C$DW$7, DW_AT_external
      45              $C$DW$8 .dwtag  DW_TAG_formal_parameter
      46                      .dwattr $C$DW$8, DW_AT_type(*$C$DW$T$138)
      47                      .dwendtag $C$DW$7
      48              
      49              
      50              $C$DW$9 .dwtag  DW_TAG_subprogram, DW_AT_name("SCI_disableRx")
      51                      .dwattr $C$DW$9, DW_AT_TI_symbol_name("_SCI_disableRx")
      52                      .dwattr $C$DW$9, DW_AT_declaration
      53                      .dwattr $C$DW$9, DW_AT_external
      54              $C$DW$10        .dwtag  DW_TAG_formal_parameter
      55                      .dwattr $C$DW$10, DW_AT_type(*$C$DW$T$138)
TMS320C2000 Assembler PC v6.2.5 Fri Sep 29 09:29:33 2017

Tools Copyright (c) 1996-2014 Texas Instruments Incorporated
C:\Users\wmj\AppData\Local\Temp\1142410                              PAGE    2

      56                      .dwendtag $C$DW$9
      57              
      58              
      59              $C$DW$11        .dwtag  DW_TAG_subprogram, DW_AT_name("SCI_putDataBlocking")
      60                      .dwattr $C$DW$11, DW_AT_TI_symbol_name("_SCI_putDataBlocking")
      61                      .dwattr $C$DW$11, DW_AT_declaration
      62                      .dwattr $C$DW$11, DW_AT_external
      63              $C$DW$12        .dwtag  DW_TAG_formal_parameter
      64                      .dwattr $C$DW$12, DW_AT_type(*$C$DW$T$138)
      65              $C$DW$13        .dwtag  DW_TAG_formal_parameter
      66                      .dwattr $C$DW$13, DW_AT_type(*$C$DW$T$23)
      67                      .dwendtag $C$DW$11
      68              
      69 00000000       _ucFunctionCode$2:      .usect  ".ebss",1,1,0
      70 00000001       _eException$4:  .usect  ".ebss",1,1,0
      71              
      72              $C$DW$14        .dwtag  DW_TAG_subprogram, DW_AT_name("SCI_getDataBlocking")
      73                      .dwattr $C$DW$14, DW_AT_TI_symbol_name("_SCI_getDataBlocking")
      74                      .dwattr $C$DW$14, DW_AT_type(*$C$DW$T$23)
      75                      .dwattr $C$DW$14, DW_AT_declaration
      76                      .dwattr $C$DW$14, DW_AT_external
      77              $C$DW$15        .dwtag  DW_TAG_formal_parameter
      78                      .dwattr $C$DW$15, DW_AT_type(*$C$DW$T$138)
      79                      .dwendtag $C$DW$14
      80              
      81 00000002       _ucMBFrame$1:   .usect  ".ebss",2,1,1
      82                      .global _aucCRCLo
      83 00000000               .sect   ".econst:.string:_aucCRCLo"
      84                      .clink
      85                      .align  1
      86 00000000       _aucCRCLo:
      87 00000000 0000          .bits   0,16                    ; _aucCRCLo[0] @ 0
      88 00000001 00C0          .bits   192,16                  ; _aucCRCLo[1] @ 16
      89 00000002 00C1          .bits   193,16                  ; _aucCRCLo[2] @ 32
      90 00000003 0001          .bits   1,16                    ; _aucCRCLo[3] @ 48
      91 00000004 00C3          .bits   195,16                  ; _aucCRCLo[4] @ 64
      92 00000005 0003          .bits   3,16                    ; _aucCRCLo[5] @ 80
      93 00000006 0002          .bits   2,16                    ; _aucCRCLo[6] @ 96
      94 00000007 00C2          .bits   194,16                  ; _aucCRCLo[7] @ 112
      95 00000008 00C6          .bits   198,16                  ; _aucCRCLo[8] @ 128
      96 00000009 0006          .bits   6,16                    ; _aucCRCLo[9] @ 144
      97 0000000a 0007          .bits   7,16                    ; _aucCRCLo[10] @ 160
      98 0000000b 00C7          .bits   199,16                  ; _aucCRCLo[11] @ 176
      99 0000000c 0005          .bits   5,16                    ; _aucCRCLo[12] @ 192
     100 0000000d 00C5          .bits   197,16                  ; _aucCRCLo[13] @ 208
     101 0000000e 00C4          .bits   196,16                  ; _aucCRCLo[14] @ 224
     102 0000000f 0004          .bits   4,16                    ; _aucCRCLo[15] @ 240
     103 00000010 00CC          .bits   204,16                  ; _aucCRCLo[16] @ 256
     104 00000011 000C          .bits   12,16                   ; _aucCRCLo[17] @ 272
     105 00000012 000D          .bits   13,16                   ; _aucCRCLo[18] @ 288
     106 00000013 00CD          .bits   205,16                  ; _aucCRCLo[19] @ 304
     107 00000014 000F          .bits   15,16                   ; _aucCRCLo[20] @ 320
     108 00000015 00CF          .bits   207,16                  ; _aucCRCLo[21] @ 336
     109 00000016 00CE          .bits   206,16                  ; _aucCRCLo[22] @ 352
     110 00000017 000E          .bits   14,16                   ; _aucCRCLo[23] @ 368
TMS320C2000 Assembler PC v6.2.5 Fri Sep 29 09:29:33 2017

Tools Copyright (c) 1996-2014 Texas Instruments Incorporated
C:\Users\wmj\AppData\Local\Temp\1142410                              PAGE    3

     111 00000018 000A          .bits   10,16                   ; _aucCRCLo[24] @ 384
     112 00000019 00CA          .bits   202,16                  ; _aucCRCLo[25] @ 400
     113 0000001a 00CB          .bits   203,16                  ; _aucCRCLo[26] @ 416
     114 0000001b 000B          .bits   11,16                   ; _aucCRCLo[27] @ 432
     115 0000001c 00C9          .bits   201,16                  ; _aucCRCLo[28] @ 448
     116 0000001d 0009          .bits   9,16                    ; _aucCRCLo[29] @ 464
     117 0000001e 0008          .bits   8,16                    ; _aucCRCLo[30] @ 480
     118 0000001f 00C8          .bits   200,16                  ; _aucCRCLo[31] @ 496
     119 00000020 00D8          .bits   216,16                  ; _aucCRCLo[32] @ 512
     120 00000021 0018          .bits   24,16                   ; _aucCRCLo[33] @ 528
     121 00000022 0019          .bits   25,16                   ; _aucCRCLo[34] @ 544
     122 00000023 00D9          .bits   217,16                  ; _aucCRCLo[35] @ 560
     123 00000024 001B          .bits   27,16                   ; _aucCRCLo[36] @ 576
     124 00000025 00DB          .bits   219,16                  ; _aucCRCLo[37] @ 592
     125 00000026 00DA          .bits   218,16                  ; _aucCRCLo[38] @ 608
     126 00000027 001A          .bits   26,16                   ; _aucCRCLo[39] @ 624
     127 00000028 001E          .bits   30,16                   ; _aucCRCLo[40] @ 640
     128 00000029 00DE          .bits   222,16                  ; _aucCRCLo[41] @ 656
     129 0000002a 00DF          .bits   223,16                  ; _aucCRCLo[42] @ 672
     130 0000002b 001F          .bits   31,16                   ; _aucCRCLo[43] @ 688
     131 0000002c 00DD          .bits   221,16                  ; _aucCRCLo[44] @ 704
     132 0000002d 001D          .bits   29,16                   ; _aucCRCLo[45] @ 720
     133 0000002e 001C          .bits   28,16                   ; _aucCRCLo[46] @ 736
     134 0000002f 00DC          .bits   220,16                  ; _aucCRCLo[47] @ 752
     135 00000030 0014          .bits   20,16                   ; _aucCRCLo[48] @ 768
     136 00000031 00D4          .bits   212,16                  ; _aucCRCLo[49] @ 784
     137 00000032 00D5          .bits   213,16                  ; _aucCRCLo[50] @ 800
     138 00000033 0015          .bits   21,16                   ; _aucCRCLo[51] @ 816
     139 00000034 00D7          .bits   215,16                  ; _aucCRCLo[52] @ 832
     140 00000035 0017          .bits   23,16                   ; _aucCRCLo[53] @ 848
     141 00000036 0016          .bits   22,16                   ; _aucCRCLo[54] @ 864
     142 00000037 00D6          .bits   214,16                  ; _aucCRCLo[55] @ 880
     143 00000038 00D2          .bits   210,16                  ; _aucCRCLo[56] @ 896
     144 00000039 0012          .bits   18,16                   ; _aucCRCLo[57] @ 912
     145 0000003a 0013          .bits   19,16                   ; _aucCRCLo[58] @ 928
     146 0000003b 00D3          .bits   211,16                  ; _aucCRCLo[59] @ 944
     147 0000003c 0011          .bits   17,16                   ; _aucCRCLo[60] @ 960
     148 0000003d 00D1          .bits   209,16                  ; _aucCRCLo[61] @ 976
     149 0000003e 00D0          .bits   208,16                  ; _aucCRCLo[62] @ 992
     150 0000003f 0010          .bits   16,16                   ; _aucCRCLo[63] @ 1008
     151 00000040 00F0          .bits   240,16                  ; _aucCRCLo[64] @ 1024
     152 00000041 0030          .bits   48,16                   ; _aucCRCLo[65] @ 1040
     153 00000042 0031          .bits   49,16                   ; _aucCRCLo[66] @ 1056
     154 00000043 00F1          .bits   241,16                  ; _aucCRCLo[67] @ 1072
     155 00000044 0033          .bits   51,16                   ; _aucCRCLo[68] @ 1088
     156 00000045 00F3          .bits   243,16                  ; _aucCRCLo[69] @ 1104
     157 00000046 00F2          .bits   242,16                  ; _aucCRCLo[70] @ 1120
     158 00000047 0032          .bits   50,16                   ; _aucCRCLo[71] @ 1136
     159 00000048 0036          .bits   54,16                   ; _aucCRCLo[72] @ 1152
     160 00000049 00F6          .bits   246,16                  ; _aucCRCLo[73] @ 1168
     161 0000004a 00F7          .bits   247,16                  ; _aucCRCLo[74] @ 1184
     162 0000004b 0037          .bits   55,16                   ; _aucCRCLo[75] @ 1200
     163 0000004c 00F5          .bits   245,16                  ; _aucCRCLo[76] @ 1216
     164 0000004d 0035          .bits   53,16                   ; _aucCRCLo[77] @ 1232
     165 0000004e 0034          .bits   52,16                   ; _aucCRCLo[78] @ 1248
TMS320C2000 Assembler PC v6.2.5 Fri Sep 29 09:29:33 2017

Tools Copyright (c) 1996-2014 Texas Instruments Incorporated
C:\Users\wmj\AppData\Local\Temp\1142410                              PAGE    4

     166 0000004f 00F4          .bits   244,16                  ; _aucCRCLo[79] @ 1264
     167 00000050 003C          .bits   60,16                   ; _aucCRCLo[80] @ 1280
     168 00000051 00FC          .bits   252,16                  ; _aucCRCLo[81] @ 1296
     169 00000052 00FD          .bits   253,16                  ; _aucCRCLo[82] @ 1312
     170 00000053 003D          .bits   61,16                   ; _aucCRCLo[83] @ 1328
     171 00000054 00FF          .bits   255,16                  ; _aucCRCLo[84] @ 1344
     172 00000055 003F          .bits   63,16                   ; _aucCRCLo[85] @ 1360
     173 00000056 003E          .bits   62,16                   ; _aucCRCLo[86] @ 1376
     174 00000057 00FE          .bits   254,16                  ; _aucCRCLo[87] @ 1392
     175 00000058 00FA          .bits   250,16                  ; _aucCRCLo[88] @ 1408
     176 00000059 003A          .bits   58,16                   ; _aucCRCLo[89] @ 1424
     177 0000005a 003B          .bits   59,16                   ; _aucCRCLo[90] @ 1440
     178 0000005b 00FB          .bits   251,16                  ; _aucCRCLo[91] @ 1456
     179 0000005c 0039          .bits   57,16                   ; _aucCRCLo[92] @ 1472
     180 0000005d 00F9          .bits   249,16                  ; _aucCRCLo[93] @ 1488
     181 0000005e 00F8          .bits   248,16                  ; _aucCRCLo[94] @ 1504
     182 0000005f 0038          .bits   56,16                   ; _aucCRCLo[95] @ 1520
     183 00000060 0028          .bits   40,16                   ; _aucCRCLo[96] @ 1536
     184 00000061 00E8          .bits   232,16                  ; _aucCRCLo[97] @ 1552
     185 00000062 00E9          .bits   233,16                  ; _aucCRCLo[98] @ 1568
     186 00000063 0029          .bits   41,16                   ; _aucCRCLo[99] @ 1584
     187 00000064 00EB          .bits   235,16                  ; _aucCRCLo[100] @ 1600
     188 00000065 002B          .bits   43,16                   ; _aucCRCLo[101] @ 1616
     189 00000066 002A          .bits   42,16                   ; _aucCRCLo[102] @ 1632
     190 00000067 00EA          .bits   234,16                  ; _aucCRCLo[103] @ 1648
     191 00000068 00EE          .bits   238,16                  ; _aucCRCLo[104] @ 1664
     192 00000069 002E          .bits   46,16                   ; _aucCRCLo[105] @ 1680
     193 0000006a 002F          .bits   47,16                   ; _aucCRCLo[106] @ 1696
     194 0000006b 00EF          .bits   239,16                  ; _aucCRCLo[107] @ 1712
     195 0000006c 002D          .bits   45,16                   ; _aucCRCLo[108] @ 1728
     196 0000006d 00ED          .bits   237,16                  ; _aucCRCLo[109] @ 1744
     197 0000006e 00EC          .bits   236,16                  ; _aucCRCLo[110] @ 1760
     198 0000006f 002C          .bits   44,16                   ; _aucCRCLo[111] @ 1776
     199 00000070 00E4          .bits   228,16                  ; _aucCRCLo[112] @ 1792
     200 00000071 0024          .bits   36,16                   ; _aucCRCLo[113] @ 1808
     201 00000072 0025          .bits   37,16                   ; _aucCRCLo[114] @ 1824
     202 00000073 00E5          .bits   229,16                  ; _aucCRCLo[115] @ 1840
     203 00000074 0027          .bits   39,16                   ; _aucCRCLo[116] @ 1856
     204 00000075 00E7          .bits   231,16                  ; _aucCRCLo[117] @ 1872
     205 00000076 00E6          .bits   230,16                  ; _aucCRCLo[118] @ 1888
     206 00000077 0026          .bits   38,16                   ; _aucCRCLo[119] @ 1904
     207 00000078 0022          .bits   34,16                   ; _aucCRCLo[120] @ 1920
     208 00000079 00E2          .bits   226,16                  ; _aucCRCLo[121] @ 1936
     209 0000007a 00E3          .bits   227,16                  ; _aucCRCLo[122] @ 1952
     210 0000007b 0023          .bits   35,16                   ; _aucCRCLo[123] @ 1968
     211 0000007c 00E1          .bits   225,16                  ; _aucCRCLo[124] @ 1984
     212 0000007d 0021          .bits   33,16                   ; _aucCRCLo[125] @ 2000
     213 0000007e 0020          .bits   32,16                   ; _aucCRCLo[126] @ 2016
     214 0000007f 00E0          .bits   224,16                  ; _aucCRCLo[127] @ 2032
     215 00000080 00A0          .bits   160,16                  ; _aucCRCLo[128] @ 2048
     216 00000081 0060          .bits   96,16                   ; _aucCRCLo[129] @ 2064
     217 00000082 0061          .bits   97,16                   ; _aucCRCLo[130] @ 2080
     218 00000083 00A1          .bits   161,16                  ; _aucCRCLo[131] @ 2096
     219 00000084 0063          .bits   99,16                   ; _aucCRCLo[132] @ 2112
     220 00000085 00A3          .bits   163,16                  ; _aucCRCLo[133] @ 2128
TMS320C2000 Assembler PC v6.2.5 Fri Sep 29 09:29:33 2017

Tools Copyright (c) 1996-2014 Texas Instruments Incorporated
C:\Users\wmj\AppData\Local\Temp\1142410                              PAGE    5

     221 00000086 00A2          .bits   162,16                  ; _aucCRCLo[134] @ 2144
     222 00000087 0062          .bits   98,16                   ; _aucCRCLo[135] @ 2160
     223 00000088 0066          .bits   102,16                  ; _aucCRCLo[136] @ 2176
     224 00000089 00A6          .bits   166,16                  ; _aucCRCLo[137] @ 2192
     225 0000008a 00A7          .bits   167,16                  ; _aucCRCLo[138] @ 2208
     226 0000008b 0067          .bits   103,16                  ; _aucCRCLo[139] @ 2224
     227 0000008c 00A5          .bits   165,16                  ; _aucCRCLo[140] @ 2240
     228 0000008d 0065          .bits   101,16                  ; _aucCRCLo[141] @ 2256
     229 0000008e 0064          .bits   100,16                  ; _aucCRCLo[142] @ 2272
     230 0000008f 00A4          .bits   164,16                  ; _aucCRCLo[143] @ 2288
     231 00000090 006C          .bits   108,16                  ; _aucCRCLo[144] @ 2304
     232 00000091 00AC          .bits   172,16                  ; _aucCRCLo[145] @ 2320
     233 00000092 00AD          .bits   173,16                  ; _aucCRCLo[146] @ 2336
     234 00000093 006D          .bits   109,16                  ; _aucCRCLo[147] @ 2352
     235 00000094 00AF          .bits   175,16                  ; _aucCRCLo[148] @ 2368
     236 00000095 006F          .bits   111,16                  ; _aucCRCLo[149] @ 2384
     237 00000096 006E          .bits   110,16                  ; _aucCRCLo[150] @ 2400
     238 00000097 00AE          .bits   174,16                  ; _aucCRCLo[151] @ 2416
     239 00000098 00AA          .bits   170,16                  ; _aucCRCLo[152] @ 2432
     240 00000099 006A          .bits   106,16                  ; _aucCRCLo[153] @ 2448
     241 0000009a 006B          .bits   107,16                  ; _aucCRCLo[154] @ 2464
     242 0000009b 00AB          .bits   171,16                  ; _aucCRCLo[155] @ 2480
     243 0000009c 0069          .bits   105,16                  ; _aucCRCLo[156] @ 2496
     244 0000009d 00A9          .bits   169,16                  ; _aucCRCLo[157] @ 2512
     245 0000009e 00A8          .bits   168,16                  ; _aucCRCLo[158] @ 2528
     246 0000009f 0068          .bits   104,16                  ; _aucCRCLo[159] @ 2544
     247 000000a0 0078          .bits   120,16                  ; _aucCRCLo[160] @ 2560
     248 000000a1 00B8          .bits   184,16                  ; _aucCRCLo[161] @ 2576
     249 000000a2 00B9          .bits   185,16                  ; _aucCRCLo[162] @ 2592
     250 000000a3 0079          .bits   121,16                  ; _aucCRCLo[163] @ 2608
     251 000000a4 00BB          .bits   187,16                  ; _aucCRCLo[164] @ 2624
     252 000000a5 007B          .bits   123,16                  ; _aucCRCLo[165] @ 2640
     253 000000a6 007A          .bits   122,16                  ; _aucCRCLo[166] @ 2656
     254 000000a7 00BA          .bits   186,16                  ; _aucCRCLo[167] @ 2672
     255 000000a8 00BE          .bits   190,16                  ; _aucCRCLo[168] @ 2688
     256 000000a9 007E          .bits   126,16                  ; _aucCRCLo[169] @ 2704
     257 000000aa 007F          .bits   127,16                  ; _aucCRCLo[170] @ 2720
     258 000000ab 00BF          .bits   191,16                  ; _aucCRCLo[171] @ 2736
     259 000000ac 007D          .bits   125,16                  ; _aucCRCLo[172] @ 2752
     260 000000ad 00BD          .bits   189,16                  ; _aucCRCLo[173] @ 2768
     261 000000ae 00BC          .bits   188,16                  ; _aucCRCLo[174] @ 2784
     262 000000af 007C          .bits   124,16                  ; _aucCRCLo[175] @ 2800
     263 000000b0 00B4          .bits   180,16                  ; _aucCRCLo[176] @ 2816
     264 000000b1 0074          .bits   116,16                  ; _aucCRCLo[177] @ 2832
     265 000000b2 0075          .bits   117,16                  ; _aucCRCLo[178] @ 2848
     266 000000b3 00B5          .bits   181,16                  ; _aucCRCLo[179] @ 2864
     267 000000b4 0077          .bits   119,16                  ; _aucCRCLo[180] @ 2880
     268 000000b5 00B7          .bits   183,16                  ; _aucCRCLo[181] @ 2896
     269 000000b6 00B6          .bits   182,16                  ; _aucCRCLo[182] @ 2912
     270 000000b7 0076          .bits   118,16                  ; _aucCRCLo[183] @ 2928
     271 000000b8 0072          .bits   114,16                  ; _aucCRCLo[184] @ 2944
     272 000000b9 00B2          .bits   178,16                  ; _aucCRCLo[185] @ 2960
     273 000000ba 00B3          .bits   179,16                  ; _aucCRCLo[186] @ 2976
     274 000000bb 0073          .bits   115,16                  ; _aucCRCLo[187] @ 2992
     275 000000bc 00B1          .bits   177,16                  ; _aucCRCLo[188] @ 3008
TMS320C2000 Assembler PC v6.2.5 Fri Sep 29 09:29:33 2017

Tools Copyright (c) 1996-2014 Texas Instruments Incorporated
C:\Users\wmj\AppData\Local\Temp\1142410                              PAGE    6

     276 000000bd 0071          .bits   113,16                  ; _aucCRCLo[189] @ 3024
     277 000000be 0070          .bits   112,16                  ; _aucCRCLo[190] @ 3040
     278 000000bf 00B0          .bits   176,16                  ; _aucCRCLo[191] @ 3056
     279 000000c0 0050          .bits   80,16                   ; _aucCRCLo[192] @ 3072
     280 000000c1 0090          .bits   144,16                  ; _aucCRCLo[193] @ 3088
     281 000000c2 0091          .bits   145,16                  ; _aucCRCLo[194] @ 3104
     282 000000c3 0051          .bits   81,16                   ; _aucCRCLo[195] @ 3120
     283 000000c4 0093          .bits   147,16                  ; _aucCRCLo[196] @ 3136
     284 000000c5 0053          .bits   83,16                   ; _aucCRCLo[197] @ 3152
     285 000000c6 0052          .bits   82,16                   ; _aucCRCLo[198] @ 3168
     286 000000c7 0092          .bits   146,16                  ; _aucCRCLo[199] @ 3184
     287 000000c8 0096          .bits   150,16                  ; _aucCRCLo[200] @ 3200
     288 000000c9 0056          .bits   86,16                   ; _aucCRCLo[201] @ 3216
     289 000000ca 0057          .bits   87,16                   ; _aucCRCLo[202] @ 3232
     290 000000cb 0097          .bits   151,16                  ; _aucCRCLo[203] @ 3248
     291 000000cc 0055          .bits   85,16                   ; _aucCRCLo[204] @ 3264
     292 000000cd 0095          .bits   149,16                  ; _aucCRCLo[205] @ 3280
     293 000000ce 0094          .bits   148,16                  ; _aucCRCLo[206] @ 3296
     294 000000cf 0054          .bits   84,16                   ; _aucCRCLo[207] @ 3312
     295 000000d0 009C          .bits   156,16                  ; _aucCRCLo[208] @ 3328
     296 000000d1 005C          .bits   92,16                   ; _aucCRCLo[209] @ 3344
     297 000000d2 005D          .bits   93,16                   ; _aucCRCLo[210] @ 3360
     298 000000d3 009D          .bits   157,16                  ; _aucCRCLo[211] @ 3376
     299 000000d4 005F          .bits   95,16                   ; _aucCRCLo[212] @ 3392
     300 000000d5 009F          .bits   159,16                  ; _aucCRCLo[213] @ 3408
     301 000000d6 009E          .bits   158,16                  ; _aucCRCLo[214] @ 3424
     302 000000d7 005E          .bits   94,16                   ; _aucCRCLo[215] @ 3440
     303 000000d8 005A          .bits   90,16                   ; _aucCRCLo[216] @ 3456
     304 000000d9 009A          .bits   154,16                  ; _aucCRCLo[217] @ 3472
     305 000000da 009B          .bits   155,16                  ; _aucCRCLo[218] @ 3488
     306 000000db 005B          .bits   91,16                   ; _aucCRCLo[219] @ 3504
     307 000000dc 0099          .bits   153,16                  ; _aucCRCLo[220] @ 3520
     308 000000dd 0059          .bits   89,16                   ; _aucCRCLo[221] @ 3536
     309 000000de 0058          .bits   88,16                   ; _aucCRCLo[222] @ 3552
     310 000000df 0098          .bits   152,16                  ; _aucCRCLo[223] @ 3568
     311 000000e0 0088          .bits   136,16                  ; _aucCRCLo[224] @ 3584
     312 000000e1 0048          .bits   72,16                   ; _aucCRCLo[225] @ 3600
     313 000000e2 0049          .bits   73,16                   ; _aucCRCLo[226] @ 3616
     314 000000e3 0089          .bits   137,16                  ; _aucCRCLo[227] @ 3632
     315 000000e4 004B          .bits   75,16                   ; _aucCRCLo[228] @ 3648
     316 000000e5 008B          .bits   139,16                  ; _aucCRCLo[229] @ 3664
     317 000000e6 008A          .bits   138,16                  ; _aucCRCLo[230] @ 3680
     318 000000e7 004A          .bits   74,16                   ; _aucCRCLo[231] @ 3696
     319 000000e8 004E          .bits   78,16                   ; _aucCRCLo[232] @ 3712
     320 000000e9 008E          .bits   142,16                  ; _aucCRCLo[233] @ 3728
     321 000000ea 008F          .bits   143,16                  ; _aucCRCLo[234] @ 3744
     322 000000eb 004F          .bits   79,16                   ; _aucCRCLo[235] @ 3760
     323 000000ec 008D          .bits   141,16                  ; _aucCRCLo[236] @ 3776
     324 000000ed 004D          .bits   77,16                   ; _aucCRCLo[237] @ 3792
     325 000000ee 004C          .bits   76,16                   ; _aucCRCLo[238] @ 3808
     326 000000ef 008C          .bits   140,16                  ; _aucCRCLo[239] @ 3824
     327 000000f0 0044          .bits   68,16                   ; _aucCRCLo[240] @ 3840
     328 000000f1 0084          .bits   132,16                  ; _aucCRCLo[241] @ 3856
     329 000000f2 0085          .bits   133,16                  ; _aucCRCLo[242] @ 3872
     330 000000f3 0045          .bits   69,16                   ; _aucCRCLo[243] @ 3888
TMS320C2000 Assembler PC v6.2.5 Fri Sep 29 09:29:33 2017

Tools Copyright (c) 1996-2014 Texas Instruments Incorporated
C:\Users\wmj\AppData\Local\Temp\1142410                              PAGE    7

     331 000000f4 0087          .bits   135,16                  ; _aucCRCLo[244] @ 3904
     332 000000f5 0047          .bits   71,16                   ; _aucCRCLo[245] @ 3920
     333 000000f6 0046          .bits   70,16                   ; _aucCRCLo[246] @ 3936
     334 000000f7 0086          .bits   134,16                  ; _aucCRCLo[247] @ 3952
     335 000000f8 0082          .bits   130,16                  ; _aucCRCLo[248] @ 3968
     336 000000f9 0042          .bits   66,16                   ; _aucCRCLo[249] @ 3984
     337 000000fa 0043          .bits   67,16                   ; _aucCRCLo[250] @ 4000
     338 000000fb 0083          .bits   131,16                  ; _aucCRCLo[251] @ 4016
     339 000000fc 0041          .bits   65,16                   ; _aucCRCLo[252] @ 4032
     340 000000fd 0081          .bits   129,16                  ; _aucCRCLo[253] @ 4048
     341 000000fe 0080          .bits   128,16                  ; _aucCRCLo[254] @ 4064
     342 000000ff 0040          .bits   64,16                   ; _aucCRCLo[255] @ 4080
     343              
     344              $C$DW$16        .dwtag  DW_TAG_variable, DW_AT_name("aucCRCLo")
     345                      .dwattr $C$DW$16, DW_AT_TI_symbol_name("_aucCRCLo")
     346                      .dwattr $C$DW$16, DW_AT_location[DW_OP_addr _aucCRCLo]
     347                      .dwattr $C$DW$16, DW_AT_type(*$C$DW$T$278)
     348                      .dwattr $C$DW$16, DW_AT_external
     349                      .global _aucCRCHi
     350 00000000               .sect   ".econst:.string:_aucCRCHi"
     351                      .clink
     352                      .align  1
     353 00000000       _aucCRCHi:
     354 00000000 0000          .bits   0,16                    ; _aucCRCHi[0] @ 0
     355 00000001 00C1          .bits   193,16                  ; _aucCRCHi[1] @ 16
     356 00000002 0081          .bits   129,16                  ; _aucCRCHi[2] @ 32
     357 00000003 0040          .bits   64,16                   ; _aucCRCHi[3] @ 48
     358 00000004 0001          .bits   1,16                    ; _aucCRCHi[4] @ 64
     359 00000005 00C0          .bits   192,16                  ; _aucCRCHi[5] @ 80
     360 00000006 0080          .bits   128,16                  ; _aucCRCHi[6] @ 96
     361 00000007 0041          .bits   65,16                   ; _aucCRCHi[7] @ 112
     362 00000008 0001          .bits   1,16                    ; _aucCRCHi[8] @ 128
     363 00000009 00C0          .bits   192,16                  ; _aucCRCHi[9] @ 144
     364 0000000a 0080          .bits   128,16                  ; _aucCRCHi[10] @ 160
     365 0000000b 0041          .bits   65,16                   ; _aucCRCHi[11] @ 176
     366 0000000c 0000          .bits   0,16                    ; _aucCRCHi[12] @ 192
     367 0000000d 00C1          .bits   193,16                  ; _aucCRCHi[13] @ 208
     368 0000000e 0081          .bits   129,16                  ; _aucCRCHi[14] @ 224
     369 0000000f 0040          .bits   64,16                   ; _aucCRCHi[15] @ 240
     370 00000010 0001          .bits   1,16                    ; _aucCRCHi[16] @ 256
     371 00000011 00C0          .bits   192,16                  ; _aucCRCHi[17] @ 272
     372 00000012 0080          .bits   128,16                  ; _aucCRCHi[18] @ 288
     373 00000013 0041          .bits   65,16                   ; _aucCRCHi[19] @ 304
     374 00000014 0000          .bits   0,16                    ; _aucCRCHi[20] @ 320
     375 00000015 00C1          .bits   193,16                  ; _aucCRCHi[21] @ 336
     376 00000016 0081          .bits   129,16                  ; _aucCRCHi[22] @ 352
     377 00000017 0040          .bits   64,16                   ; _aucCRCHi[23] @ 368
     378 00000018 0000          .bits   0,16                    ; _aucCRCHi[24] @ 384
     379 00000019 00C1          .bits   193,16                  ; _aucCRCHi[25] @ 400
     380 0000001a 0081          .bits   129,16                  ; _aucCRCHi[26] @ 416
     381 0000001b 0040          .bits   64,16                   ; _aucCRCHi[27] @ 432
     382 0000001c 0001          .bits   1,16                    ; _aucCRCHi[28] @ 448
     383 0000001d 00C0          .bits   192,16                  ; _aucCRCHi[29] @ 464
     384 0000001e 0080          .bits   128,16                  ; _aucCRCHi[30] @ 480
     385 0000001f 0041          .bits   65,16                   ; _aucCRCHi[31] @ 496
TMS320C2000 Assembler PC v6.2.5 Fri Sep 29 09:29:33 2017

Tools Copyright (c) 1996-2014 Texas Instruments Incorporated
C:\Users\wmj\AppData\Local\Temp\1142410                              PAGE    8

     386 00000020 0001          .bits   1,16                    ; _aucCRCHi[32] @ 512
     387 00000021 00C0          .bits   192,16                  ; _aucCRCHi[33] @ 528
     388 00000022 0080          .bits   128,16                  ; _aucCRCHi[34] @ 544
     389 00000023 0041          .bits   65,16                   ; _aucCRCHi[35] @ 560
     390 00000024 0000          .bits   0,16                    ; _aucCRCHi[36] @ 576
     391 00000025 00C1          .bits   193,16                  ; _aucCRCHi[37] @ 592
     392 00000026 0081          .bits   129,16                  ; _aucCRCHi[38] @ 608
     393 00000027 0040          .bits   64,16                   ; _aucCRCHi[39] @ 624
     394 00000028 0000          .bits   0,16                    ; _aucCRCHi[40] @ 640
     395 00000029 00C1          .bits   193,16                  ; _aucCRCHi[41] @ 656
     396 0000002a 0081          .bits   129,16                  ; _aucCRCHi[42] @ 672
     397 0000002b 0040          .bits   64,16                   ; _aucCRCHi[43] @ 688
     398 0000002c 0001          .bits   1,16                    ; _aucCRCHi[44] @ 704
     399 0000002d 00C0          .bits   192,16                  ; _aucCRCHi[45] @ 720
     400 0000002e 0080          .bits   128,16                  ; _aucCRCHi[46] @ 736
     401 0000002f 0041          .bits   65,16                   ; _aucCRCHi[47] @ 752
     402 00000030 0000          .bits   0,16                    ; _aucCRCHi[48] @ 768
     403 00000031 00C1          .bits   193,16                  ; _aucCRCHi[49] @ 784
     404 00000032 0081          .bits   129,16                  ; _aucCRCHi[50] @ 800
     405 00000033 0040          .bits   64,16                   ; _aucCRCHi[51] @ 816
     406 00000034 0001          .bits   1,16                    ; _aucCRCHi[52] @ 832
     407 00000035 00C0          .bits   192,16                  ; _aucCRCHi[53] @ 848
     408 00000036 0080          .bits   128,16                  ; _aucCRCHi[54] @ 864
     409 00000037 0041          .bits   65,16                   ; _aucCRCHi[55] @ 880
     410 00000038 0001          .bits   1,16                    ; _aucCRCHi[56] @ 896
     411 00000039 00C0          .bits   192,16                  ; _aucCRCHi[57] @ 912
     412 0000003a 0080          .bits   128,16                  ; _aucCRCHi[58] @ 928
     413 0000003b 0041          .bits   65,16                   ; _aucCRCHi[59] @ 944
     414 0000003c 0000          .bits   0,16                    ; _aucCRCHi[60] @ 960
     415 0000003d 00C1          .bits   193,16                  ; _aucCRCHi[61] @ 976
     416 0000003e 0081          .bits   129,16                  ; _aucCRCHi[62] @ 992
     417 0000003f 0040          .bits   64,16                   ; _aucCRCHi[63] @ 1008
     418 00000040 0001          .bits   1,16                    ; _aucCRCHi[64] @ 1024
     419 00000041 00C0          .bits   192,16                  ; _aucCRCHi[65] @ 1040
     420 00000042 0080          .bits   128,16                  ; _aucCRCHi[66] @ 1056
     421 00000043 0041          .bits   65,16                   ; _aucCRCHi[67] @ 1072
     422 00000044 0000          .bits   0,16                    ; _aucCRCHi[68] @ 1088
     423 00000045 00C1          .bits   193,16                  ; _aucCRCHi[69] @ 1104
     424 00000046 0081          .bits   129,16                  ; _aucCRCHi[70] @ 1120
     425 00000047 0040          .bits   64,16                   ; _aucCRCHi[71] @ 1136
     426 00000048 0000          .bits   0,16                    ; _aucCRCHi[72] @ 1152
     427 00000049 00C1          .bits   193,16                  ; _aucCRCHi[73] @ 1168
     428 0000004a 0081          .bits   129,16                  ; _aucCRCHi[74] @ 1184
     429 0000004b 0040          .bits   64,16                   ; _aucCRCHi[75] @ 1200
     430 0000004c 0001          .bits   1,16                    ; _aucCRCHi[76] @ 1216
     431 0000004d 00C0          .bits   192,16                  ; _aucCRCHi[77] @ 1232
     432 0000004e 0080          .bits   128,16                  ; _aucCRCHi[78] @ 1248
     433 0000004f 0041          .bits   65,16                   ; _aucCRCHi[79] @ 1264
     434 00000050 0000          .bits   0,16                    ; _aucCRCHi[80] @ 1280
     435 00000051 00C1          .bits   193,16                  ; _aucCRCHi[81] @ 1296
     436 00000052 0081          .bits   129,16                  ; _aucCRCHi[82] @ 1312
     437 00000053 0040          .bits   64,16                   ; _aucCRCHi[83] @ 1328
     438 00000054 0001          .bits   1,16                    ; _aucCRCHi[84] @ 1344
     439 00000055 00C0          .bits   192,16                  ; _aucCRCHi[85] @ 1360
     440 00000056 0080          .bits   128,16                  ; _aucCRCHi[86] @ 1376
TMS320C2000 Assembler PC v6.2.5 Fri Sep 29 09:29:33 2017

Tools Copyright (c) 1996-2014 Texas Instruments Incorporated
C:\Users\wmj\AppData\Local\Temp\1142410                              PAGE    9

     441 00000057 0041          .bits   65,16                   ; _aucCRCHi[87] @ 1392
     442 00000058 0001          .bits   1,16                    ; _aucCRCHi[88] @ 1408
     443 00000059 00C0          .bits   192,16                  ; _aucCRCHi[89] @ 1424
     444 0000005a 0080          .bits   128,16                  ; _aucCRCHi[90] @ 1440
     445 0000005b 0041          .bits   65,16                   ; _aucCRCHi[91] @ 1456
     446 0000005c 0000          .bits   0,16                    ; _aucCRCHi[92] @ 1472
     447 0000005d 00C1          .bits   193,16                  ; _aucCRCHi[93] @ 1488
     448 0000005e 0081          .bits   129,16                  ; _aucCRCHi[94] @ 1504
     449 0000005f 0040          .bits   64,16                   ; _aucCRCHi[95] @ 1520
     450 00000060 0000          .bits   0,16                    ; _aucCRCHi[96] @ 1536
     451 00000061 00C1          .bits   193,16                  ; _aucCRCHi[97] @ 1552
     452 00000062 0081          .bits   129,16                  ; _aucCRCHi[98] @ 1568
     453 00000063 0040          .bits   64,16                   ; _aucCRCHi[99] @ 1584
     454 00000064 0001          .bits   1,16                    ; _aucCRCHi[100] @ 1600
     455 00000065 00C0          .bits   192,16                  ; _aucCRCHi[101] @ 1616
     456 00000066 0080          .bits   128,16                  ; _aucCRCHi[102] @ 1632
     457 00000067 0041          .bits   65,16                   ; _aucCRCHi[103] @ 1648
     458 00000068 0001          .bits   1,16                    ; _aucCRCHi[104] @ 1664
     459 00000069 00C0          .bits   192,16                  ; _aucCRCHi[105] @ 1680
     460 0000006a 0080          .bits   128,16                  ; _aucCRCHi[106] @ 1696
     461 0000006b 0041          .bits   65,16                   ; _aucCRCHi[107] @ 1712
     462 0000006c 0000          .bits   0,16                    ; _aucCRCHi[108] @ 1728
     463 0000006d 00C1          .bits   193,16                  ; _aucCRCHi[109] @ 1744
     464 0000006e 0081          .bits   129,16                  ; _aucCRCHi[110] @ 1760
     465 0000006f 0040          .bits   64,16                   ; _aucCRCHi[111] @ 1776
     466 00000070 0001          .bits   1,16                    ; _aucCRCHi[112] @ 1792
     467 00000071 00C0          .bits   192,16                  ; _aucCRCHi[113] @ 1808
     468 00000072 0080          .bits   128,16                  ; _aucCRCHi[114] @ 1824
     469 00000073 0041          .bits   65,16                   ; _aucCRCHi[115] @ 1840
     470 00000074 0000          .bits   0,16                    ; _aucCRCHi[116] @ 1856
     471 00000075 00C1          .bits   193,16                  ; _aucCRCHi[117] @ 1872
     472 00000076 0081          .bits   129,16                  ; _aucCRCHi[118] @ 1888
     473 00000077 0040          .bits   64,16                   ; _aucCRCHi[119] @ 1904
     474 00000078 0000          .bits   0,16                    ; _aucCRCHi[120] @ 1920
     475 00000079 00C1          .bits   193,16                  ; _aucCRCHi[121] @ 1936
     476 0000007a 0081          .bits   129,16                  ; _aucCRCHi[122] @ 1952
     477 0000007b 0040          .bits   64,16                   ; _aucCRCHi[123] @ 1968
     478 0000007c 0001          .bits   1,16                    ; _aucCRCHi[124] @ 1984
     479 0000007d 00C0          .bits   192,16                  ; _aucCRCHi[125] @ 2000
     480 0000007e 0080          .bits   128,16                  ; _aucCRCHi[126] @ 2016
     481 0000007f 0041          .bits   65,16                   ; _aucCRCHi[127] @ 2032
     482 00000080 0001          .bits   1,16                    ; _aucCRCHi[128] @ 2048
     483 00000081 00C0          .bits   192,16                  ; _aucCRCHi[129] @ 2064
     484 00000082 0080          .bits   128,16                  ; _aucCRCHi[130] @ 2080
     485 00000083 0041          .bits   65,16                   ; _aucCRCHi[131] @ 2096
     486 00000084 0000          .bits   0,16                    ; _aucCRCHi[132] @ 2112
     487 00000085 00C1          .bits   193,16                  ; _aucCRCHi[133] @ 2128
     488 00000086 0081          .bits   129,16                  ; _aucCRCHi[134] @ 2144
     489 00000087 0040          .bits   64,16                   ; _aucCRCHi[135] @ 2160
     490 00000088 0000          .bits   0,16                    ; _aucCRCHi[136] @ 2176
     491 00000089 00C1          .bits   193,16                  ; _aucCRCHi[137] @ 2192
     492 0000008a 0081          .bits   129,16                  ; _aucCRCHi[138] @ 2208
     493 0000008b 0040          .bits   64,16                   ; _aucCRCHi[139] @ 2224
     494 0000008c 0001          .bits   1,16                    ; _aucCRCHi[140] @ 2240
     495 0000008d 00C0          .bits   192,16                  ; _aucCRCHi[141] @ 2256
TMS320C2000 Assembler PC v6.2.5 Fri Sep 29 09:29:33 2017

Tools Copyright (c) 1996-2014 Texas Instruments Incorporated
C:\Users\wmj\AppData\Local\Temp\1142410                              PAGE   10

     496 0000008e 0080          .bits   128,16                  ; _aucCRCHi[142] @ 2272
     497 0000008f 0041          .bits   65,16                   ; _aucCRCHi[143] @ 2288
     498 00000090 0000          .bits   0,16                    ; _aucCRCHi[144] @ 2304
     499 00000091 00C1          .bits   193,16                  ; _aucCRCHi[145] @ 2320
     500 00000092 0081          .bits   129,16                  ; _aucCRCHi[146] @ 2336
     501 00000093 0040          .bits   64,16                   ; _aucCRCHi[147] @ 2352
     502 00000094 0001          .bits   1,16                    ; _aucCRCHi[148] @ 2368
     503 00000095 00C0          .bits   192,16                  ; _aucCRCHi[149] @ 2384
     504 00000096 0080          .bits   128,16                  ; _aucCRCHi[150] @ 2400
     505 00000097 0041          .bits   65,16                   ; _aucCRCHi[151] @ 2416
     506 00000098 0001          .bits   1,16                    ; _aucCRCHi[152] @ 2432
     507 00000099 00C0          .bits   192,16                  ; _aucCRCHi[153] @ 2448
     508 0000009a 0080          .bits   128,16                  ; _aucCRCHi[154] @ 2464
     509 0000009b 0041          .bits   65,16                   ; _aucCRCHi[155] @ 2480
     510 0000009c 0000          .bits   0,16                    ; _aucCRCHi[156] @ 2496
     511 0000009d 00C1          .bits   193,16                  ; _aucCRCHi[157] @ 2512
     512 0000009e 0081          .bits   129,16                  ; _aucCRCHi[158] @ 2528
     513 0000009f 0040          .bits   64,16                   ; _aucCRCHi[159] @ 2544
     514 000000a0 0000          .bits   0,16                    ; _aucCRCHi[160] @ 2560
     515 000000a1 00C1          .bits   193,16                  ; _aucCRCHi[161] @ 2576
     516 000000a2 0081          .bits   129,16                  ; _aucCRCHi[162] @ 2592
     517 000000a3 0040          .bits   64,16                   ; _aucCRCHi[163] @ 2608
     518 000000a4 0001          .bits   1,16                    ; _aucCRCHi[164] @ 2624
     519 000000a5 00C0          .bits   192,16                  ; _aucCRCHi[165] @ 2640
     520 000000a6 0080          .bits   128,16                  ; _aucCRCHi[166] @ 2656
     521 000000a7 0041          .bits   65,16                   ; _aucCRCHi[167] @ 2672
     522 000000a8 0001          .bits   1,16                    ; _aucCRCHi[168] @ 2688
     523 000000a9 00C0          .bits   192,16                  ; _aucCRCHi[169] @ 2704
     524 000000aa 0080          .bits   128,16                  ; _aucCRCHi[170] @ 2720
     525 000000ab 0041          .bits   65,16                   ; _aucCRCHi[171] @ 2736
     526 000000ac 0000          .bits   0,16                    ; _aucCRCHi[172] @ 2752
     527 000000ad 00C1          .bits   193,16                  ; _aucCRCHi[173] @ 2768
     528 000000ae 0081          .bits   129,16                  ; _aucCRCHi[174] @ 2784
     529 000000af 0040          .bits   64,16                   ; _aucCRCHi[175] @ 2800
     530 000000b0 0001          .bits   1,16                    ; _aucCRCHi[176] @ 2816
     531 000000b1 00C0          .bits   192,16                  ; _aucCRCHi[177] @ 2832
     532 000000b2 0080          .bits   128,16                  ; _aucCRCHi[178] @ 2848
     533 000000b3 0041          .bits   65,16                   ; _aucCRCHi[179] @ 2864
     534 000000b4 0000          .bits   0,16                    ; _aucCRCHi[180] @ 2880
     535 000000b5 00C1          .bits   193,16                  ; _aucCRCHi[181] @ 2896
     536 000000b6 0081          .bits   129,16                  ; _aucCRCHi[182] @ 2912
     537 000000b7 0040          .bits   64,16                   ; _aucCRCHi[183] @ 2928
     538 000000b8 0000          .bits   0,16                    ; _aucCRCHi[184] @ 2944
     539 000000b9 00C1          .bits   193,16                  ; _aucCRCHi[185] @ 2960
     540 000000ba 0081          .bits   129,16                  ; _aucCRCHi[186] @ 2976
     541 000000bb 0040          .bits   64,16                   ; _aucCRCHi[187] @ 2992
     542 000000bc 0001          .bits   1,16                    ; _aucCRCHi[188] @ 3008
     543 000000bd 00C0          .bits   192,16                  ; _aucCRCHi[189] @ 3024
     544 000000be 0080          .bits   128,16                  ; _aucCRCHi[190] @ 3040
     545 000000bf 0041          .bits   65,16                   ; _aucCRCHi[191] @ 3056
     546 000000c0 0000          .bits   0,16                    ; _aucCRCHi[192] @ 3072
     547 000000c1 00C1          .bits   193,16                  ; _aucCRCHi[193] @ 3088
     548 000000c2 0081          .bits   129,16                  ; _aucCRCHi[194] @ 3104
     549 000000c3 0040          .bits   64,16                   ; _aucCRCHi[195] @ 3120
     550 000000c4 0001          .bits   1,16                    ; _aucCRCHi[196] @ 3136
TMS320C2000 Assembler PC v6.2.5 Fri Sep 29 09:29:33 2017

Tools Copyright (c) 1996-2014 Texas Instruments Incorporated
C:\Users\wmj\AppData\Local\Temp\1142410                              PAGE   11

     551 000000c5 00C0          .bits   192,16                  ; _aucCRCHi[197] @ 3152
     552 000000c6 0080          .bits   128,16                  ; _aucCRCHi[198] @ 3168
     553 000000c7 0041          .bits   65,16                   ; _aucCRCHi[199] @ 3184
     554 000000c8 0001          .bits   1,16                    ; _aucCRCHi[200] @ 3200
     555 000000c9 00C0          .bits   192,16                  ; _aucCRCHi[201] @ 3216
     556 000000ca 0080          .bits   128,16                  ; _aucCRCHi[202] @ 3232
     557 000000cb 0041          .bits   65,16                   ; _aucCRCHi[203] @ 3248
     558 000000cc 0000          .bits   0,16                    ; _aucCRCHi[204] @ 3264
     559 000000cd 00C1          .bits   193,16                  ; _aucCRCHi[205] @ 3280
     560 000000ce 0081          .bits   129,16                  ; _aucCRCHi[206] @ 3296
     561 000000cf 0040          .bits   64,16                   ; _aucCRCHi[207] @ 3312
     562 000000d0 0001          .bits   1,16                    ; _aucCRCHi[208] @ 3328
     563 000000d1 00C0          .bits   192,16                  ; _aucCRCHi[209] @ 3344
     564 000000d2 0080          .bits   128,16                  ; _aucCRCHi[210] @ 3360
     565 000000d3 0041          .bits   65,16                   ; _aucCRCHi[211] @ 3376
     566 000000d4 0000          .bits   0,16                    ; _aucCRCHi[212] @ 3392
     567 000000d5 00C1          .bits   193,16                  ; _aucCRCHi[213] @ 3408
     568 000000d6 0081          .bits   129,16                  ; _aucCRCHi[214] @ 3424
     569 000000d7 0040          .bits   64,16                   ; _aucCRCHi[215] @ 3440
     570 000000d8 0000          .bits   0,16                    ; _aucCRCHi[216] @ 3456
     571 000000d9 00C1          .bits   193,16                  ; _aucCRCHi[217] @ 3472
     572 000000da 0081          .bits   129,16                  ; _aucCRCHi[218] @ 3488
     573 000000db 0040          .bits   64,16                   ; _aucCRCHi[219] @ 3504
     574 000000dc 0001          .bits   1,16                    ; _aucCRCHi[220] @ 3520
     575 000000dd 00C0          .bits   192,16                  ; _aucCRCHi[221] @ 3536
     576 000000de 0080          .bits   128,16                  ; _aucCRCHi[222] @ 3552
     577 000000df 0041          .bits   65,16                   ; _aucCRCHi[223] @ 3568
     578 000000e0 0001          .bits   1,16                    ; _aucCRCHi[224] @ 3584
     579 000000e1 00C0          .bits   192,16                  ; _aucCRCHi[225] @ 3600
     580 000000e2 0080          .bits   128,16                  ; _aucCRCHi[226] @ 3616
     581 000000e3 0041          .bits   65,16                   ; _aucCRCHi[227] @ 3632
     582 000000e4 0000          .bits   0,16                    ; _aucCRCHi[228] @ 3648
     583 000000e5 00C1          .bits   193,16                  ; _aucCRCHi[229] @ 3664
     584 000000e6 0081          .bits   129,16                  ; _aucCRCHi[230] @ 3680
     585 000000e7 0040          .bits   64,16                   ; _aucCRCHi[231] @ 3696
     586 000000e8 0000          .bits   0,16                    ; _aucCRCHi[232] @ 3712
     587 000000e9 00C1          .bits   193,16                  ; _aucCRCHi[233] @ 3728
     588 000000ea 0081          .bits   129,16                  ; _aucCRCHi[234] @ 3744
     589 000000eb 0040          .bits   64,16                   ; _aucCRCHi[235] @ 3760
     590 000000ec 0001          .bits   1,16                    ; _aucCRCHi[236] @ 3776
     591 000000ed 00C0          .bits   192,16                  ; _aucCRCHi[237] @ 3792
     592 000000ee 0080          .bits   128,16                  ; _aucCRCHi[238] @ 3808
     593 000000ef 0041          .bits   65,16                   ; _aucCRCHi[239] @ 3824
     594 000000f0 0000          .bits   0,16                    ; _aucCRCHi[240] @ 3840
     595 000000f1 00C1          .bits   193,16                  ; _aucCRCHi[241] @ 3856
     596 000000f2 0081          .bits   129,16                  ; _aucCRCHi[242] @ 3872
     597 000000f3 0040          .bits   64,16                   ; _aucCRCHi[243] @ 3888
     598 000000f4 0001          .bits   1,16                    ; _aucCRCHi[244] @ 3904
     599 000000f5 00C0          .bits   192,16                  ; _aucCRCHi[245] @ 3920
     600 000000f6 0080          .bits   128,16                  ; _aucCRCHi[246] @ 3936
     601 000000f7 0041          .bits   65,16                   ; _aucCRCHi[247] @ 3952
     602 000000f8 0001          .bits   1,16                    ; _aucCRCHi[248] @ 3968
     603 000000f9 00C0          .bits   192,16                  ; _aucCRCHi[249] @ 3984
     604 000000fa 0080          .bits   128,16                  ; _aucCRCHi[250] @ 4000
     605 000000fb 0041          .bits   65,16                   ; _aucCRCHi[251] @ 4016
TMS320C2000 Assembler PC v6.2.5 Fri Sep 29 09:29:33 2017

Tools Copyright (c) 1996-2014 Texas Instruments Incorporated
C:\Users\wmj\AppData\Local\Temp\1142410                              PAGE   12

     606 000000fc 0000          .bits   0,16                    ; _aucCRCHi[252] @ 4032
     607 000000fd 00C1          .bits   193,16                  ; _aucCRCHi[253] @ 4048
     608 000000fe 0081          .bits   129,16                  ; _aucCRCHi[254] @ 4064
     609 000000ff 0040          .bits   64,16                   ; _aucCRCHi[255] @ 4080
     610              
     611              $C$DW$17        .dwtag  DW_TAG_variable, DW_AT_name("aucCRCHi")
     612                      .dwattr $C$DW$17, DW_AT_TI_symbol_name("_aucCRCHi")
     613                      .dwattr $C$DW$17, DW_AT_location[DW_OP_addr _aucCRCHi]
     614                      .dwattr $C$DW$17, DW_AT_type(*$C$DW$T$278)
     615                      .dwattr $C$DW$17, DW_AT_external
     616              ;       C:\ti\ccsv6\tools\compiler\c2000_6.2.5\bin\opt2000.exe C:\\Users\\wmj\\AppData\\Local\\Temp\\114242 C
     617              ;       C:\ti\ccsv6\tools\compiler\c2000_6.2.5\bin\ac2000.exe -@C:\\Users\\wmj\\AppData\\Local\\Temp\\1142416
     618 00000000               .sect   ".text"
     619                      .clink
     620                      .global _MB_setTimHandle
     621              
     622              $C$DW$18        .dwtag  DW_TAG_subprogram, DW_AT_name("MB_setTimHandle")
     623                      .dwattr $C$DW$18, DW_AT_low_pc(_MB_setTimHandle)
     624                      .dwattr $C$DW$18, DW_AT_high_pc(0x00)
     625                      .dwattr $C$DW$18, DW_AT_TI_symbol_name("_MB_setTimHandle")
     626                      .dwattr $C$DW$18, DW_AT_external
     627                      .dwattr $C$DW$18, DW_AT_TI_begin_file("D:/BM1000/sw/drivers/drvic/modbus/mb.c")
     628                      .dwattr $C$DW$18, DW_AT_TI_begin_line(0x63)
     629                      .dwattr $C$DW$18, DW_AT_TI_begin_column(0x06)
     630                      .dwattr $C$DW$18, DW_AT_TI_max_frame_size(-2)
     631                      .dwpsn  file "D:/BM1000/sw/drivers/drvic/modbus/mb.c",line 100,column 1,is_stmt,address _MB_setTimHan
     632              
     633                      .dwfde $C$DW$CIE, _MB_setTimHandle
     634              $C$DW$19        .dwtag  DW_TAG_formal_parameter, DW_AT_name("handle")
     635                      .dwattr $C$DW$19, DW_AT_TI_symbol_name("_handle")
     636                      .dwattr $C$DW$19, DW_AT_type(*$C$DW$T$219)
     637                      .dwattr $C$DW$19, DW_AT_location[DW_OP_reg12]
     638              $C$DW$20        .dwtag  DW_TAG_formal_parameter, DW_AT_name("timerHandle")
     639                      .dwattr $C$DW$20, DW_AT_TI_symbol_name("_timerHandle")
     640                      .dwattr $C$DW$20, DW_AT_type(*$C$DW$T$129)
     641                      .dwattr $C$DW$20, DW_AT_location[DW_OP_reg14]
     642              
     643              ;***************************************************************
     644              ;* FNAME: _MB_setTimHandle              FR SIZE:   0           *
     645              ;*                                                             *
     646              ;* FUNCTION ENVIRONMENT                                        *
     647              ;*                                                             *
     648              ;* FUNCTION PROPERTIES                                         *
     649              ;*                            0 Parameter,  0 Auto,  0 SOE     *
     650              ;***************************************************************
     651              
     652              _MB_setTimHandle:
     653              ;* AR4   assigned to _handle
     654              $C$DW$21        .dwtag  DW_TAG_variable, DW_AT_name("handle")
     655                      .dwattr $C$DW$21, DW_AT_TI_symbol_name("_handle")
     656                      .dwattr $C$DW$21, DW_AT_type(*$C$DW$T$234)
     657                      .dwattr $C$DW$21, DW_AT_location[DW_OP_reg12]
     658              ;* AR5   assigned to _timerHandle
     659              $C$DW$22        .dwtag  DW_TAG_variable, DW_AT_name("timerHandle")
     660                      .dwattr $C$DW$22, DW_AT_TI_symbol_name("_timerHandle")
TMS320C2000 Assembler PC v6.2.5 Fri Sep 29 09:29:33 2017

Tools Copyright (c) 1996-2014 Texas Instruments Incorporated
C:\Users\wmj\AppData\Local\Temp\1142410                              PAGE   13

     661                      .dwattr $C$DW$22, DW_AT_type(*$C$DW$T$246)
     662                      .dwattr $C$DW$22, DW_AT_location[DW_OP_reg14]
     663                      .dwcfi  cfa_offset, -2
     664                      .dwcfi  save_reg_to_mem, 26, 0
     665                      .dwcfi  save_reg_to_reg, 78, 26
     666                      .dwpsn  file "D:/BM1000/sw/drivers/drvic/modbus/mb.c",line 103,column 4,is_stmt
     667 00000000 A0D4          MOVL      *+XAR4[2],XAR5        ; [CPU_] |103| 
     668              $C$DW$23        .dwtag  DW_TAG_TI_branch
     669                      .dwattr $C$DW$23, DW_AT_low_pc(0x00)
     670                      .dwattr $C$DW$23, DW_AT_TI_return
     671 00000001 0006          LRETR     ; [CPU_] 
     672                      ; return occurs ; [] 
     673                      .dwattr $C$DW$18, DW_AT_TI_end_file("D:/BM1000/sw/drivers/drvic/modbus/mb.c")
     674                      .dwattr $C$DW$18, DW_AT_TI_end_line(0x6a)
     675                      .dwattr $C$DW$18, DW_AT_TI_end_column(0x01)
     676                      .dwendentry
     677                      .dwendtag $C$DW$18
     678              
     679 00000002               .sect   ".text"
     680                      .clink
     681                      .global _MB_setSciHandle
     682              
     683              $C$DW$24        .dwtag  DW_TAG_subprogram, DW_AT_name("MB_setSciHandle")
     684                      .dwattr $C$DW$24, DW_AT_low_pc(_MB_setSciHandle)
     685                      .dwattr $C$DW$24, DW_AT_high_pc(0x00)
     686                      .dwattr $C$DW$24, DW_AT_TI_symbol_name("_MB_setSciHandle")
     687                      .dwattr $C$DW$24, DW_AT_external
     688                      .dwattr $C$DW$24, DW_AT_TI_begin_file("D:/BM1000/sw/drivers/drvic/modbus/mb.c")
     689                      .dwattr $C$DW$24, DW_AT_TI_begin_line(0x5a)
     690                      .dwattr $C$DW$24, DW_AT_TI_begin_column(0x06)
     691                      .dwattr $C$DW$24, DW_AT_TI_max_frame_size(-2)
     692                      .dwpsn  file "D:/BM1000/sw/drivers/drvic/modbus/mb.c",line 91,column 1,is_stmt,address _MB_setSciHand
     693              
     694                      .dwfde $C$DW$CIE, _MB_setSciHandle
     695              $C$DW$25        .dwtag  DW_TAG_formal_parameter, DW_AT_name("handle")
     696                      .dwattr $C$DW$25, DW_AT_TI_symbol_name("_handle")
     697                      .dwattr $C$DW$25, DW_AT_type(*$C$DW$T$219)
     698                      .dwattr $C$DW$25, DW_AT_location[DW_OP_reg12]
     699              $C$DW$26        .dwtag  DW_TAG_formal_parameter, DW_AT_name("sciHandle")
     700                      .dwattr $C$DW$26, DW_AT_TI_symbol_name("_sciHandle")
     701                      .dwattr $C$DW$26, DW_AT_type(*$C$DW$T$138)
     702                      .dwattr $C$DW$26, DW_AT_location[DW_OP_reg14]
     703              
     704              ;***************************************************************
     705              ;* FNAME: _MB_setSciHandle              FR SIZE:   0           *
     706              ;*                                                             *
     707              ;* FUNCTION ENVIRONMENT                                        *
     708              ;*                                                             *
     709              ;* FUNCTION PROPERTIES                                         *
     710              ;*                            0 Parameter,  0 Auto,  0 SOE     *
     711              ;***************************************************************
     712              
     713              _MB_setSciHandle:
     714              ;* AR4   assigned to _handle
     715              $C$DW$27        .dwtag  DW_TAG_variable, DW_AT_name("handle")
TMS320C2000 Assembler PC v6.2.5 Fri Sep 29 09:29:33 2017

Tools Copyright (c) 1996-2014 Texas Instruments Incorporated
C:\Users\wmj\AppData\Local\Temp\1142410                              PAGE   14

     716                      .dwattr $C$DW$27, DW_AT_TI_symbol_name("_handle")
     717                      .dwattr $C$DW$27, DW_AT_type(*$C$DW$T$234)
     718                      .dwattr $C$DW$27, DW_AT_location[DW_OP_reg12]
     719              ;* AR5   assigned to _sciHandle
     720              $C$DW$28        .dwtag  DW_TAG_variable, DW_AT_name("sciHandle")
     721                      .dwattr $C$DW$28, DW_AT_TI_symbol_name("_sciHandle")
     722                      .dwattr $C$DW$28, DW_AT_type(*$C$DW$T$243)
     723                      .dwattr $C$DW$28, DW_AT_location[DW_OP_reg14]
     724                      .dwcfi  cfa_offset, -2
     725                      .dwcfi  save_reg_to_mem, 26, 0
     726                      .dwcfi  save_reg_to_reg, 78, 26
     727                      .dwpsn  file "D:/BM1000/sw/drivers/drvic/modbus/mb.c",line 94,column 4,is_stmt
     728 00000002 A0E4          MOVL      *+XAR4[4],XAR5        ; [CPU_] |94| 
     729              $C$DW$29        .dwtag  DW_TAG_TI_branch
     730                      .dwattr $C$DW$29, DW_AT_low_pc(0x00)
     731                      .dwattr $C$DW$29, DW_AT_TI_return
     732 00000003 0006          LRETR     ; [CPU_] 
     733                      ; return occurs ; [] 
     734                      .dwattr $C$DW$24, DW_AT_TI_end_file("D:/BM1000/sw/drivers/drvic/modbus/mb.c")
     735                      .dwattr $C$DW$24, DW_AT_TI_end_line(0x61)
     736                      .dwattr $C$DW$24, DW_AT_TI_end_column(0x01)
     737                      .dwendentry
     738                      .dwendtag $C$DW$24
     739              
     740 00000004               .sect   ".text"
     741                      .clink
     742                      .global _MB_setProCtrlHandle
     743              
     744              $C$DW$30        .dwtag  DW_TAG_subprogram, DW_AT_name("MB_setProCtrlHandle")
     745                      .dwattr $C$DW$30, DW_AT_low_pc(_MB_setProCtrlHandle)
     746                      .dwattr $C$DW$30, DW_AT_high_pc(0x00)
     747                      .dwattr $C$DW$30, DW_AT_TI_symbol_name("_MB_setProCtrlHandle")
     748                      .dwattr $C$DW$30, DW_AT_external
     749                      .dwattr $C$DW$30, DW_AT_TI_begin_file("D:/BM1000/sw/drivers/drvic/modbus/mb.c")
     750                      .dwattr $C$DW$30, DW_AT_TI_begin_line(0x75)
     751                      .dwattr $C$DW$30, DW_AT_TI_begin_column(0x06)
     752                      .dwattr $C$DW$30, DW_AT_TI_max_frame_size(-2)
     753                      .dwpsn  file "D:/BM1000/sw/drivers/drvic/modbus/mb.c",line 118,column 1,is_stmt,address _MB_setProCtr
     754              
     755                      .dwfde $C$DW$CIE, _MB_setProCtrlHandle
     756              $C$DW$31        .dwtag  DW_TAG_formal_parameter, DW_AT_name("handle")
     757                      .dwattr $C$DW$31, DW_AT_TI_symbol_name("_handle")
     758                      .dwattr $C$DW$31, DW_AT_type(*$C$DW$T$219)
     759                      .dwattr $C$DW$31, DW_AT_location[DW_OP_reg12]
     760              $C$DW$32        .dwtag  DW_TAG_formal_parameter, DW_AT_name("proctrlHandle")
     761                      .dwattr $C$DW$32, DW_AT_TI_symbol_name("_proctrlHandle")
     762                      .dwattr $C$DW$32, DW_AT_type(*$C$DW$T$149)
     763                      .dwattr $C$DW$32, DW_AT_location[DW_OP_reg14]
     764              
     765              ;***************************************************************
     766              ;* FNAME: _MB_setProCtrlHandle          FR SIZE:   0           *
     767              ;*                                                             *
     768              ;* FUNCTION ENVIRONMENT                                        *
     769              ;*                                                             *
     770              ;* FUNCTION PROPERTIES                                         *
TMS320C2000 Assembler PC v6.2.5 Fri Sep 29 09:29:33 2017

Tools Copyright (c) 1996-2014 Texas Instruments Incorporated
C:\Users\wmj\AppData\Local\Temp\1142410                              PAGE   15

     771              ;*                            0 Parameter,  0 Auto,  0 SOE     *
     772              ;***************************************************************
     773              
     774              _MB_setProCtrlHandle:
     775              ;* AR4   assigned to _handle
     776              $C$DW$33        .dwtag  DW_TAG_variable, DW_AT_name("handle")
     777                      .dwattr $C$DW$33, DW_AT_TI_symbol_name("_handle")
     778                      .dwattr $C$DW$33, DW_AT_type(*$C$DW$T$234)
     779                      .dwattr $C$DW$33, DW_AT_location[DW_OP_reg12]
     780              ;* AR5   assigned to _proctrlHandle
     781              $C$DW$34        .dwtag  DW_TAG_variable, DW_AT_name("proctrlHandle")
     782                      .dwattr $C$DW$34, DW_AT_TI_symbol_name("_proctrlHandle")
     783                      .dwattr $C$DW$34, DW_AT_type(*$C$DW$T$241)
     784                      .dwattr $C$DW$34, DW_AT_location[DW_OP_reg14]
     785                      .dwcfi  cfa_offset, -2
     786                      .dwcfi  save_reg_to_mem, 26, 0
     787                      .dwcfi  save_reg_to_reg, 78, 26
     788                      .dwpsn  file "D:/BM1000/sw/drivers/drvic/modbus/mb.c",line 121,column 3,is_stmt
     789 00000004 A0F4          MOVL      *+XAR4[6],XAR5        ; [CPU_] |121| 
     790              $C$DW$35        .dwtag  DW_TAG_TI_branch
     791                      .dwattr $C$DW$35, DW_AT_low_pc(0x00)
     792                      .dwattr $C$DW$35, DW_AT_TI_return
     793 00000005 0006          LRETR     ; [CPU_] 
     794                      ; return occurs ; [] 
     795                      .dwattr $C$DW$30, DW_AT_TI_end_file("D:/BM1000/sw/drivers/drvic/modbus/mb.c")
     796                      .dwattr $C$DW$30, DW_AT_TI_end_line(0x7c)
     797                      .dwattr $C$DW$30, DW_AT_TI_end_column(0x01)
     798                      .dwendentry
     799                      .dwendtag $C$DW$30
     800              
     801 00000006               .sect   ".text"
     802                      .clink
     803                      .global _MB_setGpioHandle
     804              
     805              $C$DW$36        .dwtag  DW_TAG_subprogram, DW_AT_name("MB_setGpioHandle")
     806                      .dwattr $C$DW$36, DW_AT_low_pc(_MB_setGpioHandle)
     807                      .dwattr $C$DW$36, DW_AT_high_pc(0x00)
     808                      .dwattr $C$DW$36, DW_AT_TI_symbol_name("_MB_setGpioHandle")
     809                      .dwattr $C$DW$36, DW_AT_external
     810                      .dwattr $C$DW$36, DW_AT_TI_begin_file("D:/BM1000/sw/drivers/drvic/modbus/mb.c")
     811                      .dwattr $C$DW$36, DW_AT_TI_begin_line(0x6c)
     812                      .dwattr $C$DW$36, DW_AT_TI_begin_column(0x06)
     813                      .dwattr $C$DW$36, DW_AT_TI_max_frame_size(-2)
     814                      .dwpsn  file "D:/BM1000/sw/drivers/drvic/modbus/mb.c",line 109,column 1,is_stmt,address _MB_setGpioHa
     815              
     816                      .dwfde $C$DW$CIE, _MB_setGpioHandle
     817              $C$DW$37        .dwtag  DW_TAG_formal_parameter, DW_AT_name("handle")
     818                      .dwattr $C$DW$37, DW_AT_TI_symbol_name("_handle")
     819                      .dwattr $C$DW$37, DW_AT_type(*$C$DW$T$219)
     820                      .dwattr $C$DW$37, DW_AT_location[DW_OP_reg12]
     821              $C$DW$38        .dwtag  DW_TAG_formal_parameter, DW_AT_name("gpioHandle")
     822                      .dwattr $C$DW$38, DW_AT_TI_symbol_name("_gpioHandle")
     823                      .dwattr $C$DW$38, DW_AT_type(*$C$DW$T$111)
     824                      .dwattr $C$DW$38, DW_AT_location[DW_OP_reg14]
     825              
TMS320C2000 Assembler PC v6.2.5 Fri Sep 29 09:29:33 2017

Tools Copyright (c) 1996-2014 Texas Instruments Incorporated
C:\Users\wmj\AppData\Local\Temp\1142410                              PAGE   16

     826              ;***************************************************************
     827              ;* FNAME: _MB_setGpioHandle             FR SIZE:   0           *
     828              ;*                                                             *
     829              ;* FUNCTION ENVIRONMENT                                        *
     830              ;*                                                             *
     831              ;* FUNCTION PROPERTIES                                         *
     832              ;*                            0 Parameter,  0 Auto,  0 SOE     *
     833              ;***************************************************************
     834              
     835              _MB_setGpioHandle:
     836              ;* AR4   assigned to _handle
     837              $C$DW$39        .dwtag  DW_TAG_variable, DW_AT_name("handle")
     838                      .dwattr $C$DW$39, DW_AT_TI_symbol_name("_handle")
     839                      .dwattr $C$DW$39, DW_AT_type(*$C$DW$T$234)
     840                      .dwattr $C$DW$39, DW_AT_location[DW_OP_reg12]
     841              ;* AR5   assigned to _gpioHandle
     842              $C$DW$40        .dwtag  DW_TAG_variable, DW_AT_name("gpioHandle")
     843                      .dwattr $C$DW$40, DW_AT_TI_symbol_name("_gpioHandle")
     844                      .dwattr $C$DW$40, DW_AT_type(*$C$DW$T$231)
     845                      .dwattr $C$DW$40, DW_AT_location[DW_OP_reg14]
     846                      .dwcfi  cfa_offset, -2
     847                      .dwcfi  save_reg_to_mem, 26, 0
     848                      .dwcfi  save_reg_to_reg, 78, 26
     849                      .dwpsn  file "D:/BM1000/sw/drivers/drvic/modbus/mb.c",line 112,column 4,is_stmt
     850 00000006 A0C4          MOVL      *+XAR4[0],XAR5        ; [CPU_] |112| 
     851              $C$DW$41        .dwtag  DW_TAG_TI_branch
     852                      .dwattr $C$DW$41, DW_AT_low_pc(0x00)
     853                      .dwattr $C$DW$41, DW_AT_TI_return
     854 00000007 0006          LRETR     ; [CPU_] 
     855                      ; return occurs ; [] 
     856                      .dwattr $C$DW$36, DW_AT_TI_end_file("D:/BM1000/sw/drivers/drvic/modbus/mb.c")
     857                      .dwattr $C$DW$36, DW_AT_TI_end_line(0x73)
     858                      .dwattr $C$DW$36, DW_AT_TI_end_column(0x01)
     859                      .dwendentry
     860                      .dwendtag $C$DW$36
     861              
     862 00000008               .sect   ".text"
     863                      .clink
     864                      .global _MB_init
     865              
     866              $C$DW$42        .dwtag  DW_TAG_subprogram, DW_AT_name("MB_init")
     867                      .dwattr $C$DW$42, DW_AT_low_pc(_MB_init)
     868                      .dwattr $C$DW$42, DW_AT_high_pc(0x00)
     869                      .dwattr $C$DW$42, DW_AT_TI_symbol_name("_MB_init")
     870                      .dwattr $C$DW$42, DW_AT_external
     871                      .dwattr $C$DW$42, DW_AT_type(*$C$DW$T$219)
     872                      .dwattr $C$DW$42, DW_AT_TI_begin_file("D:/BM1000/sw/drivers/drvic/modbus/mb.c")
     873                      .dwattr $C$DW$42, DW_AT_TI_begin_line(0x4a)
     874                      .dwattr $C$DW$42, DW_AT_TI_begin_column(0x0b)
     875                      .dwattr $C$DW$42, DW_AT_TI_max_frame_size(-2)
     876                      .dwpsn  file "D:/BM1000/sw/drivers/drvic/modbus/mb.c",line 75,column 1,is_stmt,address _MB_init
     877              
     878                      .dwfde $C$DW$CIE, _MB_init
     879              $C$DW$43        .dwtag  DW_TAG_formal_parameter, DW_AT_name("pMemory")
     880                      .dwattr $C$DW$43, DW_AT_TI_symbol_name("_pMemory")
TMS320C2000 Assembler PC v6.2.5 Fri Sep 29 09:29:33 2017

Tools Copyright (c) 1996-2014 Texas Instruments Incorporated
C:\Users\wmj\AppData\Local\Temp\1142410                              PAGE   17

     881                      .dwattr $C$DW$43, DW_AT_type(*$C$DW$T$3)
     882                      .dwattr $C$DW$43, DW_AT_location[DW_OP_reg12]
     883              $C$DW$44        .dwtag  DW_TAG_formal_parameter, DW_AT_name("numBytes")
     884                      .dwattr $C$DW$44, DW_AT_TI_symbol_name("_numBytes")
     885                      .dwattr $C$DW$44, DW_AT_type(*$C$DW$T$236)
     886                      .dwattr $C$DW$44, DW_AT_location[DW_OP_reg0]
     887              
     888              ;***************************************************************
     889              ;* FNAME: _MB_init                      FR SIZE:   0           *
     890              ;*                                                             *
     891              ;* FUNCTION ENVIRONMENT                                        *
     892              ;*                                                             *
     893              ;* FUNCTION PROPERTIES                                         *
     894              ;*                            0 Parameter,  0 Auto,  0 SOE     *
     895              ;***************************************************************
     896              
     897              _MB_init:
     898              ;* AR6   assigned to _numBytes
     899              $C$DW$45        .dwtag  DW_TAG_variable, DW_AT_name("numBytes")
     900                      .dwattr $C$DW$45, DW_AT_TI_symbol_name("_numBytes")
     901                      .dwattr $C$DW$45, DW_AT_type(*$C$DW$T$236)
     902                      .dwattr $C$DW$45, DW_AT_location[DW_OP_reg16]
     903              ;* AR4   assigned to _pMemory
     904              $C$DW$46        .dwtag  DW_TAG_variable, DW_AT_name("pMemory")
     905                      .dwattr $C$DW$46, DW_AT_TI_symbol_name("_pMemory")
     906                      .dwattr $C$DW$46, DW_AT_type(*$C$DW$T$248)
     907                      .dwattr $C$DW$46, DW_AT_location[DW_OP_reg12]
     908                      .dwcfi  cfa_offset, -2
     909                      .dwcfi  save_reg_to_mem, 26, 0
     910                      .dwcfi  save_reg_to_reg, 78, 26
     911 00000008 1EA6          MOVL      XAR6,ACC              ; [CPU_] |75| 
     912                      .dwpsn  file "D:/BM1000/sw/drivers/drvic/modbus/mb.c",line 80,column 6,is_stmt
     913 00000009 021E          MOVB      ACC,#30               ; [CPU_] |80| 
     914 0000000a 0FA6          CMPL      ACC,XAR6              ; [CPU_] |80| 
     915 0000000b 6902          B         $C$L1,LOS             ; [CPU_] |80| 
     916                      ; branchcc occurs ; [] |80| 
     917 0000000c D400          MOVB      XAR4,#0               ; [CPU_] |80| 
     918              $C$L1:    
     919              $C$DW$47        .dwtag  DW_TAG_TI_branch
     920                      .dwattr $C$DW$47, DW_AT_low_pc(0x00)
     921                      .dwattr $C$DW$47, DW_AT_TI_return
     922 0000000d 0006          LRETR     ; [CPU_] 
     923                      ; return occurs ; [] 
     924                      .dwattr $C$DW$42, DW_AT_TI_end_file("D:/BM1000/sw/drivers/drvic/modbus/mb.c")
     925                      .dwattr $C$DW$42, DW_AT_TI_end_line(0x57)
     926                      .dwattr $C$DW$42, DW_AT_TI_end_column(0x01)
     927                      .dwendentry
     928                      .dwendtag $C$DW$42
     929              
     930 0000000e               .sect   ".text"
     931                      .clink
     932                      .global _MB_PortEventPost
     933              
     934              $C$DW$48        .dwtag  DW_TAG_subprogram, DW_AT_name("MB_PortEventPost")
     935                      .dwattr $C$DW$48, DW_AT_low_pc(_MB_PortEventPost)
TMS320C2000 Assembler PC v6.2.5 Fri Sep 29 09:29:33 2017

Tools Copyright (c) 1996-2014 Texas Instruments Incorporated
C:\Users\wmj\AppData\Local\Temp\1142410                              PAGE   18

     936                      .dwattr $C$DW$48, DW_AT_high_pc(0x00)
     937                      .dwattr $C$DW$48, DW_AT_TI_symbol_name("_MB_PortEventPost")
     938                      .dwattr $C$DW$48, DW_AT_external
     939                      .dwattr $C$DW$48, DW_AT_TI_begin_file("D:/BM1000/sw/drivers/drvic/modbus/mb.c")
     940                      .dwattr $C$DW$48, DW_AT_TI_begin_line(0xcc)
     941                      .dwattr $C$DW$48, DW_AT_TI_begin_column(0x06)
     942                      .dwattr $C$DW$48, DW_AT_TI_max_frame_size(-2)
     943                      .dwpsn  file "D:/BM1000/sw/drivers/drvic/modbus/mb.c",line 205,column 1,is_stmt,address _MB_PortEvent
     944              
     945                      .dwfde $C$DW$CIE, _MB_PortEventPost
     946              $C$DW$49        .dwtag  DW_TAG_formal_parameter, DW_AT_name("handle")
     947                      .dwattr $C$DW$49, DW_AT_TI_symbol_name("_handle")
     948                      .dwattr $C$DW$49, DW_AT_type(*$C$DW$T$219)
     949                      .dwattr $C$DW$49, DW_AT_location[DW_OP_reg12]
     950              $C$DW$50        .dwtag  DW_TAG_formal_parameter, DW_AT_name("eEvent")
     951                      .dwattr $C$DW$50, DW_AT_TI_symbol_name("_eEvent")
     952                      .dwattr $C$DW$50, DW_AT_type(*$C$DW$T$163)
     953                      .dwattr $C$DW$50, DW_AT_location[DW_OP_reg0]
     954              
     955              ;***************************************************************
     956              ;* FNAME: _MB_PortEventPost             FR SIZE:   0           *
     957              ;*                                                             *
     958              ;* FUNCTION ENVIRONMENT                                        *
     959              ;*                                                             *
     960              ;* FUNCTION PROPERTIES                                         *
     961              ;*                            0 Parameter,  0 Auto,  0 SOE     *
     962              ;***************************************************************
     963              
     964              _MB_PortEventPost:
     965              ;* AR4   assigned to _handle
     966              $C$DW$51        .dwtag  DW_TAG_variable, DW_AT_name("handle")
     967                      .dwattr $C$DW$51, DW_AT_TI_symbol_name("_handle")
     968                      .dwattr $C$DW$51, DW_AT_type(*$C$DW$T$234)
     969                      .dwattr $C$DW$51, DW_AT_location[DW_OP_reg12]
     970              ;* AL    assigned to _eEvent
     971              $C$DW$52        .dwtag  DW_TAG_variable, DW_AT_name("eEvent")
     972                      .dwattr $C$DW$52, DW_AT_TI_symbol_name("_eEvent")
     973                      .dwattr $C$DW$52, DW_AT_type(*$C$DW$T$227)
     974                      .dwattr $C$DW$52, DW_AT_location[DW_OP_reg0]
     975                      .dwcfi  cfa_offset, -2
     976                      .dwcfi  save_reg_to_mem, 26, 0
     977                      .dwcfi  save_reg_to_reg, 78, 26
     978                      .dwpsn  file "D:/BM1000/sw/drivers/drvic/modbus/mb.c",line 207,column 5,is_stmt
     979 0000000e D01B          MOVB      XAR0,#27              ; [CPU_] |207| 
     980 0000000f 56BF          MOVB      *+XAR4[AR0],#1,UNC    ; [CPU_] |207| 
         00000010 0194 
     981                      .dwpsn  file "D:/BM1000/sw/drivers/drvic/modbus/mb.c",line 208,column 5,is_stmt
     982 00000011 D01C          MOVB      XAR0,#28              ; [CPU_] |208| 
     983 00000012 9694          MOV       *+XAR4[AR0],AL        ; [CPU_] |208| 
     984              $C$DW$53        .dwtag  DW_TAG_TI_branch
     985                      .dwattr $C$DW$53, DW_AT_low_pc(0x00)
     986                      .dwattr $C$DW$53, DW_AT_TI_return
     987 00000013 0006          LRETR     ; [CPU_] 
     988                      ; return occurs ; [] 
     989                      .dwattr $C$DW$48, DW_AT_TI_end_file("D:/BM1000/sw/drivers/drvic/modbus/mb.c")
TMS320C2000 Assembler PC v6.2.5 Fri Sep 29 09:29:33 2017

Tools Copyright (c) 1996-2014 Texas Instruments Incorporated
C:\Users\wmj\AppData\Local\Temp\1142410                              PAGE   19

     990                      .dwattr $C$DW$48, DW_AT_TI_end_line(0xd2)
     991                      .dwattr $C$DW$48, DW_AT_TI_end_column(0x01)
     992                      .dwendentry
     993                      .dwendtag $C$DW$48
     994              
     995 00000014               .sect   ".text"
     996                      .clink
     997                      .global _MB_PortSerialEnable
     998              
     999              $C$DW$54        .dwtag  DW_TAG_subprogram, DW_AT_name("MB_PortSerialEnable")
    1000                      .dwattr $C$DW$54, DW_AT_low_pc(_MB_PortSerialEnable)
    1001                      .dwattr $C$DW$54, DW_AT_high_pc(0x00)
    1002                      .dwattr $C$DW$54, DW_AT_TI_symbol_name("_MB_PortSerialEnable")
    1003                      .dwattr $C$DW$54, DW_AT_external
    1004                      .dwattr $C$DW$54, DW_AT_TI_begin_file("D:/BM1000/sw/drivers/drvic/modbus/mb.c")
    1005                      .dwattr $C$DW$54, DW_AT_TI_begin_line(0x93)
    1006                      .dwattr $C$DW$54, DW_AT_TI_begin_column(0x06)
    1007                      .dwattr $C$DW$54, DW_AT_TI_max_frame_size(-6)
    1008                      .dwpsn  file "D:/BM1000/sw/drivers/drvic/modbus/mb.c",line 148,column 1,is_stmt,address _MB_PortSeria
    1009              
    1010                      .dwfde $C$DW$CIE, _MB_PortSerialEnable
    1011              $C$DW$55        .dwtag  DW_TAG_formal_parameter, DW_AT_name("handle")
    1012                      .dwattr $C$DW$55, DW_AT_TI_symbol_name("_handle")
    1013                      .dwattr $C$DW$55, DW_AT_type(*$C$DW$T$219)
    1014                      .dwattr $C$DW$55, DW_AT_location[DW_OP_reg12]
    1015              $C$DW$56        .dwtag  DW_TAG_formal_parameter, DW_AT_name("xRxEnable")
    1016                      .dwattr $C$DW$56, DW_AT_TI_symbol_name("_xRxEnable")
    1017                      .dwattr $C$DW$56, DW_AT_type(*$C$DW$T$34)
    1018                      .dwattr $C$DW$56, DW_AT_location[DW_OP_reg0]
    1019              $C$DW$57        .dwtag  DW_TAG_formal_parameter, DW_AT_name("xTxEnable")
    1020                      .dwattr $C$DW$57, DW_AT_TI_symbol_name("_xTxEnable")
    1021                      .dwattr $C$DW$57, DW_AT_type(*$C$DW$T$34)
    1022                      .dwattr $C$DW$57, DW_AT_location[DW_OP_reg1]
    1023              
    1024              ;***************************************************************
    1025              ;* FNAME: _MB_PortSerialEnable          FR SIZE:   4           *
    1026              ;*                                                             *
    1027              ;* FUNCTION ENVIRONMENT                                        *
    1028              ;*                                                             *
    1029              ;* FUNCTION PROPERTIES                                         *
    1030              ;*                            0 Parameter,  0 Auto,  4 SOE     *
    1031              ;***************************************************************
    1032              
    1033              _MB_PortSerialEnable:
    1034              ;* AR1   assigned to _xTxEnable
    1035              $C$DW$58        .dwtag  DW_TAG_variable, DW_AT_name("xTxEnable")
    1036                      .dwattr $C$DW$58, DW_AT_TI_symbol_name("_xTxEnable")
    1037                      .dwattr $C$DW$58, DW_AT_type(*$C$DW$T$255)
    1038                      .dwattr $C$DW$58, DW_AT_location[DW_OP_reg6]
    1039              ;* AL    assigned to _xRxEnable
    1040              $C$DW$59        .dwtag  DW_TAG_variable, DW_AT_name("xRxEnable")
    1041                      .dwattr $C$DW$59, DW_AT_TI_symbol_name("_xRxEnable")
    1042                      .dwattr $C$DW$59, DW_AT_type(*$C$DW$T$255)
    1043                      .dwattr $C$DW$59, DW_AT_location[DW_OP_reg0]
    1044              ;* AR2   assigned to _handle
TMS320C2000 Assembler PC v6.2.5 Fri Sep 29 09:29:33 2017

Tools Copyright (c) 1996-2014 Texas Instruments Incorporated
C:\Users\wmj\AppData\Local\Temp\1142410                              PAGE   20

    1045              $C$DW$60        .dwtag  DW_TAG_variable, DW_AT_name("handle")
    1046                      .dwattr $C$DW$60, DW_AT_TI_symbol_name("_handle")
    1047                      .dwattr $C$DW$60, DW_AT_type(*$C$DW$T$234)
    1048                      .dwattr $C$DW$60, DW_AT_location[DW_OP_reg8]
    1049                      .dwcfi  cfa_offset, -2
    1050                      .dwcfi  save_reg_to_mem, 26, 0
    1051                      .dwcfi  save_reg_to_reg, 78, 26
    1052 00000014 B2BD          MOVL      *SP++,XAR1            ; [CPU_] 
    1053                      .dwcfi  save_reg_to_mem, 7, 2
    1054                      .dwcfi  cfa_offset, -4
    1055                      .dwpsn  file "D:/BM1000/sw/drivers/drvic/modbus/mb.c",line 151,column 3,is_stmt
    1056 00000015 5200          CMPB      AL,#0                 ; [CPU_] |151| 
    1057                      .dwpsn  file "D:/BM1000/sw/drivers/drvic/modbus/mb.c",line 148,column 1,is_stmt
    1058 00000016 59A8          MOVZ      AR1,AH                ; [CPU_] |148| 
    1059 00000017 AABD          MOVL      *SP++,XAR2            ; [CPU_] 
    1060                      .dwcfi  save_reg_to_mem, 9, 4
    1061                      .dwcfi  cfa_offset, -6
    1062 00000018 86A4          MOVL      XAR2,XAR4             ; [CPU_] |148| 
    1063                      .dwpsn  file "D:/BM1000/sw/drivers/drvic/modbus/mb.c",line 151,column 3,is_stmt
    1064 00000019 ED05          BF        $C$L2,NEQ             ; [CPU_] |151| 
    1065                      ; branchcc occurs ; [] |151| 
    1066                      .dwpsn  file "D:/BM1000/sw/drivers/drvic/modbus/mb.c",line 159,column 3,is_stmt
    1067 0000001a 8AE2          MOVL      XAR4,*+XAR2[4]        ; [CPU_] |159| 
    1068              $C$DW$61        .dwtag  DW_TAG_TI_branch
    1069                      .dwattr $C$DW$61, DW_AT_low_pc(0x00)
    1070                      .dwattr $C$DW$61, DW_AT_name("_SCI_disableRx")
    1071                      .dwattr $C$DW$61, DW_AT_TI_call
    1072 0000001b 7640!         LCR       #_SCI_disableRx       ; [CPU_] |159| 
         0000001c 0000 
    1073                      ; call occurs [#_SCI_disableRx] ; [] |159| 
    1074 0000001d 6F04          B         $C$L3,UNC             ; [CPU_] |159| 
    1075                      ; branch occurs ; [] |159| 
    1076 0000001e       $C$L2:    
    1077                      .dwpsn  file "D:/BM1000/sw/drivers/drvic/modbus/mb.c",line 154,column 3,is_stmt
    1078 0000001e 8AE2          MOVL      XAR4,*+XAR2[4]        ; [CPU_] |154| 
    1079              $C$DW$62        .dwtag  DW_TAG_TI_branch
    1080                      .dwattr $C$DW$62, DW_AT_low_pc(0x00)
    1081                      .dwattr $C$DW$62, DW_AT_name("_SCI_enableRx")
    1082                      .dwattr $C$DW$62, DW_AT_TI_call
    1083 0000001f 7640!         LCR       #_SCI_enableRx        ; [CPU_] |154| 
         00000020 0000 
    1084                      ; call occurs [#_SCI_enableRx] ; [] |154| 
    1085 00000021       $C$L3:    
    1086 00000021 92A1          MOV       AL,AR1                ; [CPU_] 
    1087                      .dwpsn  file "D:/BM1000/sw/drivers/drvic/modbus/mb.c",line 163,column 3,is_stmt
    1088 00000022 ED05          BF        $C$L4,NEQ             ; [CPU_] |163| 
    1089                      ; branchcc occurs ; [] |163| 
    1090                      .dwpsn  file "D:/BM1000/sw/drivers/drvic/modbus/mb.c",line 170,column 2,is_stmt
    1091 00000023 8AE2          MOVL      XAR4,*+XAR2[4]        ; [CPU_] |170| 
    1092              $C$DW$63        .dwtag  DW_TAG_TI_branch
    1093                      .dwattr $C$DW$63, DW_AT_low_pc(0x00)
    1094                      .dwattr $C$DW$63, DW_AT_name("_SCI_disableTx")
    1095                      .dwattr $C$DW$63, DW_AT_TI_call
    1096 00000024 7640!         LCR       #_SCI_disableTx       ; [CPU_] |170| 
         00000025 0000 
TMS320C2000 Assembler PC v6.2.5 Fri Sep 29 09:29:33 2017

Tools Copyright (c) 1996-2014 Texas Instruments Incorporated
C:\Users\wmj\AppData\Local\Temp\1142410                              PAGE   21

    1097                      ; call occurs [#_SCI_disableTx] ; [] |170| 
    1098 00000026 6F04          B         $C$L5,UNC             ; [CPU_] |170| 
    1099                      ; branch occurs ; [] |170| 
    1100 00000027       $C$L4:    
    1101                      .dwpsn  file "D:/BM1000/sw/drivers/drvic/modbus/mb.c",line 165,column 2,is_stmt
    1102 00000027 8AE2          MOVL      XAR4,*+XAR2[4]        ; [CPU_] |165| 
    1103              $C$DW$64        .dwtag  DW_TAG_TI_branch
    1104                      .dwattr $C$DW$64, DW_AT_low_pc(0x00)
    1105                      .dwattr $C$DW$64, DW_AT_name("_SCI_enableTx")
    1106                      .dwattr $C$DW$64, DW_AT_TI_call
    1107 00000028 7640!         LCR       #_SCI_enableTx        ; [CPU_] |165| 
         00000029 0000 
    1108                      ; call occurs [#_SCI_enableTx] ; [] |165| 
    1109 0000002a       $C$L5:    
    1110 0000002a 86BE          MOVL      XAR2,*--SP            ; [CPU_] 
    1111                      .dwcfi  cfa_offset, -4
    1112                      .dwcfi  restore_reg, 9
    1113 0000002b 8BBE          MOVL      XAR1,*--SP            ; [CPU_] 
    1114                      .dwcfi  cfa_offset, -2
    1115                      .dwcfi  restore_reg, 7
    1116              $C$DW$65        .dwtag  DW_TAG_TI_branch
    1117                      .dwattr $C$DW$65, DW_AT_low_pc(0x00)
    1118                      .dwattr $C$DW$65, DW_AT_TI_return
    1119 0000002c 0006          LRETR     ; [CPU_] 
    1120                      ; return occurs ; [] 
    1121                      .dwattr $C$DW$54, DW_AT_TI_end_file("D:/BM1000/sw/drivers/drvic/modbus/mb.c")
    1122                      .dwattr $C$DW$54, DW_AT_TI_end_line(0xae)
    1123                      .dwattr $C$DW$54, DW_AT_TI_end_column(0x01)
    1124                      .dwendentry
    1125                      .dwendtag $C$DW$54
    1126              
    1127 0000002d               .sect   ".text"
    1128                      .clink
    1129                      .global _MB_PortSerialPutByte
    1130              
    1131              $C$DW$66        .dwtag  DW_TAG_subprogram, DW_AT_name("MB_PortSerialPutByte")
    1132                      .dwattr $C$DW$66, DW_AT_low_pc(_MB_PortSerialPutByte)
    1133                      .dwattr $C$DW$66, DW_AT_high_pc(0x00)
    1134                      .dwattr $C$DW$66, DW_AT_TI_symbol_name("_MB_PortSerialPutByte")
    1135                      .dwattr $C$DW$66, DW_AT_external
    1136                      .dwattr $C$DW$66, DW_AT_type(*$C$DW$T$34)
    1137                      .dwattr $C$DW$66, DW_AT_TI_begin_file("D:/BM1000/sw/drivers/drvic/modbus/mb.c")
    1138                      .dwattr $C$DW$66, DW_AT_TI_begin_line(0xb1)
    1139                      .dwattr $C$DW$66, DW_AT_TI_begin_column(0x06)
    1140                      .dwattr $C$DW$66, DW_AT_TI_max_frame_size(-2)
    1141                      .dwpsn  file "D:/BM1000/sw/drivers/drvic/modbus/mb.c",line 178,column 1,is_stmt,address _MB_PortSeria
    1142              
    1143                      .dwfde $C$DW$CIE, _MB_PortSerialPutByte
    1144              $C$DW$67        .dwtag  DW_TAG_formal_parameter, DW_AT_name("handle")
    1145                      .dwattr $C$DW$67, DW_AT_TI_symbol_name("_handle")
    1146                      .dwattr $C$DW$67, DW_AT_type(*$C$DW$T$219)
    1147                      .dwattr $C$DW$67, DW_AT_location[DW_OP_reg12]
    1148              $C$DW$68        .dwtag  DW_TAG_formal_parameter, DW_AT_name("putByte")
    1149                      .dwattr $C$DW$68, DW_AT_TI_symbol_name("_putByte")
    1150                      .dwattr $C$DW$68, DW_AT_type(*$C$DW$T$271)
TMS320C2000 Assembler PC v6.2.5 Fri Sep 29 09:29:33 2017

Tools Copyright (c) 1996-2014 Texas Instruments Incorporated
C:\Users\wmj\AppData\Local\Temp\1142410                              PAGE   22

    1151                      .dwattr $C$DW$68, DW_AT_location[DW_OP_reg0]
    1152              
    1153              ;***************************************************************
    1154              ;* FNAME: _MB_PortSerialPutByte         FR SIZE:   0           *
    1155              ;*                                                             *
    1156              ;* FUNCTION ENVIRONMENT                                        *
    1157              ;*                                                             *
    1158              ;* FUNCTION PROPERTIES                                         *
    1159              ;*                            0 Parameter,  0 Auto,  0 SOE     *
    1160              ;***************************************************************
    1161              
    1162              _MB_PortSerialPutByte:
    1163              ;* AR4   assigned to _handle
    1164              $C$DW$69        .dwtag  DW_TAG_variable, DW_AT_name("handle")
    1165                      .dwattr $C$DW$69, DW_AT_TI_symbol_name("_handle")
    1166                      .dwattr $C$DW$69, DW_AT_type(*$C$DW$T$234)
    1167                      .dwattr $C$DW$69, DW_AT_location[DW_OP_reg12]
    1168              ;* AL    assigned to _putByte
    1169              $C$DW$70        .dwtag  DW_TAG_variable, DW_AT_name("putByte")
    1170                      .dwattr $C$DW$70, DW_AT_TI_symbol_name("_putByte")
    1171                      .dwattr $C$DW$70, DW_AT_type(*$C$DW$T$301)
    1172                      .dwattr $C$DW$70, DW_AT_location[DW_OP_reg0]
    1173                      .dwcfi  cfa_offset, -2
    1174                      .dwcfi  save_reg_to_mem, 26, 0
    1175                      .dwcfi  save_reg_to_reg, 78, 26
    1176                      .dwpsn  file "D:/BM1000/sw/drivers/drvic/modbus/mb.c",line 181,column 5,is_stmt
    1177 0000002d 8AE4          MOVL      XAR4,*+XAR4[4]        ; [CPU_] |181| 
    1178              $C$DW$71        .dwtag  DW_TAG_TI_branch
    1179                      .dwattr $C$DW$71, DW_AT_low_pc(0x00)
    1180                      .dwattr $C$DW$71, DW_AT_name("_SCI_putDataBlocking")
    1181                      .dwattr $C$DW$71, DW_AT_TI_call
    1182 0000002e 7640!         LCR       #_SCI_putDataBlocking ; [CPU_] |181| 
         0000002f 0000 
    1183                      ; call occurs [#_SCI_putDataBlocking] ; [] |181| 
    1184                      .dwpsn  file "D:/BM1000/sw/drivers/drvic/modbus/mb.c",line 183,column 5,is_stmt
    1185 00000030 9A01          MOVB      AL,#1                 ; [CPU_] |183| 
    1186              $C$DW$72        .dwtag  DW_TAG_TI_branch
    1187                      .dwattr $C$DW$72, DW_AT_low_pc(0x00)
    1188                      .dwattr $C$DW$72, DW_AT_TI_return
    1189 00000031 0006          LRETR     ; [CPU_] 
    1190                      ; return occurs ; [] 
    1191                      .dwattr $C$DW$66, DW_AT_TI_end_file("D:/BM1000/sw/drivers/drvic/modbus/mb.c")
    1192                      .dwattr $C$DW$66, DW_AT_TI_end_line(0xb8)
    1193                      .dwattr $C$DW$66, DW_AT_TI_end_column(0x01)
    1194                      .dwendentry
    1195                      .dwendtag $C$DW$66
    1196              
    1197 00000032               .sect   ".text"
    1198                      .clink
    1199                      .global _MB_RTUTransmitFSM
    1200              
    1201              $C$DW$73        .dwtag  DW_TAG_subprogram, DW_AT_name("MB_RTUTransmitFSM")
    1202                      .dwattr $C$DW$73, DW_AT_low_pc(_MB_RTUTransmitFSM)
    1203                      .dwattr $C$DW$73, DW_AT_high_pc(0x00)
    1204                      .dwattr $C$DW$73, DW_AT_TI_symbol_name("_MB_RTUTransmitFSM")
TMS320C2000 Assembler PC v6.2.5 Fri Sep 29 09:29:33 2017

Tools Copyright (c) 1996-2014 Texas Instruments Incorporated
C:\Users\wmj\AppData\Local\Temp\1142410                              PAGE   23

    1205                      .dwattr $C$DW$73, DW_AT_external
    1206                      .dwattr $C$DW$73, DW_AT_TI_begin_file("D:/BM1000/sw/drivers/drvic/modbus/mb.c")
    1207                      .dwattr $C$DW$73, DW_AT_TI_begin_line(0xf6)
    1208                      .dwattr $C$DW$73, DW_AT_TI_begin_column(0x06)
    1209                      .dwattr $C$DW$73, DW_AT_TI_max_frame_size(-4)
    1210                      .dwpsn  file "D:/BM1000/sw/drivers/drvic/modbus/mb.c",line 247,column 1,is_stmt,address _MB_RTUTransm
    1211              
    1212                      .dwfde $C$DW$CIE, _MB_RTUTransmitFSM
    1213              $C$DW$74        .dwtag  DW_TAG_formal_parameter, DW_AT_name("handle")
    1214                      .dwattr $C$DW$74, DW_AT_TI_symbol_name("_handle")
    1215                      .dwattr $C$DW$74, DW_AT_type(*$C$DW$T$219)
    1216                      .dwattr $C$DW$74, DW_AT_location[DW_OP_reg12]
    1217              
    1218              ;***************************************************************
    1219              ;* FNAME: _MB_RTUTransmitFSM            FR SIZE:   2           *
    1220              ;*                                                             *
    1221              ;* FUNCTION ENVIRONMENT                                        *
    1222              ;*                                                             *
    1223              ;* FUNCTION PROPERTIES                                         *
    1224              ;*                            0 Parameter,  0 Auto,  2 SOE     *
    1225              ;***************************************************************
    1226              
    1227              _MB_RTUTransmitFSM:
    1228              ;* AR1   assigned to _handle
    1229              $C$DW$75        .dwtag  DW_TAG_variable, DW_AT_name("handle")
    1230                      .dwattr $C$DW$75, DW_AT_TI_symbol_name("_handle")
    1231                      .dwattr $C$DW$75, DW_AT_type(*$C$DW$T$234)
    1232                      .dwattr $C$DW$75, DW_AT_location[DW_OP_reg6]
    1233                      .dwcfi  cfa_offset, -2
    1234                      .dwcfi  save_reg_to_mem, 26, 0
    1235                      .dwcfi  save_reg_to_reg, 78, 26
    1236 00000032 B2BD          MOVL      *SP++,XAR1            ; [CPU_] 
    1237                      .dwcfi  save_reg_to_mem, 7, 2
    1238                      .dwcfi  cfa_offset, -4
    1239                      .dwpsn  file "D:/BM1000/sw/drivers/drvic/modbus/mb.c",line 252,column 5,is_stmt
    1240 00000033 D019          MOVB      XAR0,#25              ; [CPU_] |252| 
    1241                      .dwpsn  file "D:/BM1000/sw/drivers/drvic/modbus/mb.c",line 247,column 1,is_stmt
    1242 00000034 8BA4          MOVL      XAR1,XAR4             ; [CPU_] |247| 
    1243                      .dwpsn  file "D:/BM1000/sw/drivers/drvic/modbus/mb.c",line 252,column 5,is_stmt
    1244 00000035 9291          MOV       AL,*+XAR1[AR0]        ; [CPU_] |252| 
    1245 00000036 EC1D          BF        $C$L7,EQ              ; [CPU_] |252| 
    1246                      ; branchcc occurs ; [] |252| 
    1247 00000037 5201          CMPB      AL,#1                 ; [CPU_] |252| 
    1248 00000038 ED1F          BF        $C$L8,NEQ             ; [CPU_] |252| 
    1249                      ; branchcc occurs ; [] |252| 
    1250                      .dwpsn  file "D:/BM1000/sw/drivers/drvic/modbus/mb.c",line 260,column 9,is_stmt
    1251 00000039 D016          MOVB      XAR0,#22              ; [CPU_] |260| 
    1252 0000003a 9291          MOV       AL,*+XAR1[AR0]        ; [CPU_] |260| 
    1253 0000003b ED0B          BF        $C$L6,NEQ             ; [CPU_] |260| 
    1254                      ; branchcc occurs ; [] |260| 
    1255                      .dwpsn  file "D:/BM1000/sw/drivers/drvic/modbus/mb.c",line 268,column 11,is_stmt
    1256 0000003c 9A03          MOVB      AL,#3                 ; [CPU_] |268| 
    1257              $C$DW$76        .dwtag  DW_TAG_TI_branch
    1258                      .dwattr $C$DW$76, DW_AT_low_pc(0x00)
    1259                      .dwattr $C$DW$76, DW_AT_name("_MB_PortEventPost")
TMS320C2000 Assembler PC v6.2.5 Fri Sep 29 09:29:33 2017

Tools Copyright (c) 1996-2014 Texas Instruments Incorporated
C:\Users\wmj\AppData\Local\Temp\1142410                              PAGE   24

    1260                      .dwattr $C$DW$76, DW_AT_TI_call
    1261 0000003d 7640'         LCR       #_MB_PortEventPost    ; [CPU_] |268| 
         0000003e 000E 
    1262                      ; call occurs [#_MB_PortEventPost] ; [] |268| 
    1263                      .dwpsn  file "D:/BM1000/sw/drivers/drvic/modbus/mb.c",line 270,column 11,is_stmt
    1264 0000003f 9B00          MOVB      AH,#0                 ; [CPU_] |270| 
    1265 00000040 9A01          MOVB      AL,#1                 ; [CPU_] |270| 
    1266              $C$DW$77        .dwtag  DW_TAG_TI_branch
    1267                      .dwattr $C$DW$77, DW_AT_low_pc(0x00)
    1268                      .dwattr $C$DW$77, DW_AT_name("_MB_PortSerialEnable")
    1269                      .dwattr $C$DW$77, DW_AT_TI_call
    1270 00000041 7640'         LCR       #_MB_PortSerialEnable ; [CPU_] |270| 
         00000042 0014 
    1271                      ; call occurs [#_MB_PortSerialEnable] ; [] |270| 
    1272                      .dwpsn  file "D:/BM1000/sw/drivers/drvic/modbus/mb.c",line 271,column 11,is_stmt
    1273 00000043 D019          MOVB      XAR0,#25              ; [CPU_] |271| 
    1274 00000044 2B91          MOV       *+XAR1[AR0],#0        ; [CPU_] |271| 
    1275 00000045 6F12          B         $C$L8,UNC             ; [CPU_] |271| 
    1276                      ; branch occurs ; [] |271| 
    1277 00000046       $C$L6:    
    1278                      .dwpsn  file "D:/BM1000/sw/drivers/drvic/modbus/mb.c",line 262,column 12,is_stmt
    1279 00000046 DC14          ADDB      XAR4,#20              ; [CPU_] |262| 
    1280 00000047 0201          MOVB      ACC,#1                ; [CPU_] |262| 
    1281                      .dwpsn  file "D:/BM1000/sw/drivers/drvic/modbus/mb.c",line 263,column 12,is_stmt
    1282 00000048 D014          MOVB      XAR0,#20              ; [CPU_] |263| 
    1283                      .dwpsn  file "D:/BM1000/sw/drivers/drvic/modbus/mb.c",line 262,column 12,is_stmt
    1284 00000049 5601          ADDL      *+XAR4[0],ACC         ; [CPU_] |262| 
         0000004a 00C4 
    1285                      .dwpsn  file "D:/BM1000/sw/drivers/drvic/modbus/mb.c",line 263,column 12,is_stmt
    1286 0000004b 8A91          MOVL      XAR4,*+XAR1[AR0]      ; [CPU_] |263| 
    1287 0000004c 92C4          MOV       AL,*+XAR4[0]          ; [CPU_] |263| 
    1288 0000004d 8AA1          MOVL      XAR4,XAR1             ; [CPU_] |263| 
    1289              $C$DW$78        .dwtag  DW_TAG_TI_branch
    1290                      .dwattr $C$DW$78, DW_AT_low_pc(0x00)
    1291                      .dwattr $C$DW$78, DW_AT_name("_MB_PortSerialPutByte")
    1292                      .dwattr $C$DW$78, DW_AT_TI_call
    1293 0000004e 7640'         LCR       #_MB_PortSerialPutByte ; [CPU_] |263| 
         0000004f 002D 
    1294                      ; call occurs [#_MB_PortSerialPutByte] ; [] |263| 
    1295                      .dwpsn  file "D:/BM1000/sw/drivers/drvic/modbus/mb.c",line 264,column 12,is_stmt
    1296 00000050 D916          ADDB      XAR1,#22              ; [CPU_] |264| 
    1297 00000051 0BC1          DEC       *+XAR1[0]             ; [CPU_] |264| 
    1298                      .dwpsn  file "D:/BM1000/sw/drivers/drvic/modbus/mb.c",line 265,column 10,is_stmt
    1299 00000052 6F05          B         $C$L8,UNC             ; [CPU_] |265| 
    1300                      ; branch occurs ; [] |265| 
    1301 00000053       $C$L7:    
    1302                      .dwpsn  file "D:/BM1000/sw/drivers/drvic/modbus/mb.c",line 256,column 9,is_stmt
    1303 00000053 9A01          MOVB      AL,#1                 ; [CPU_] |256| 
    1304 00000054 9B00          MOVB      AH,#0                 ; [CPU_] |256| 
    1305              $C$DW$79        .dwtag  DW_TAG_TI_branch
    1306                      .dwattr $C$DW$79, DW_AT_low_pc(0x00)
    1307                      .dwattr $C$DW$79, DW_AT_name("_MB_PortSerialEnable")
    1308                      .dwattr $C$DW$79, DW_AT_TI_call
    1309 00000055 7640'         LCR       #_MB_PortSerialEnable ; [CPU_] |256| 
         00000056 0014 
TMS320C2000 Assembler PC v6.2.5 Fri Sep 29 09:29:33 2017

Tools Copyright (c) 1996-2014 Texas Instruments Incorporated
C:\Users\wmj\AppData\Local\Temp\1142410                              PAGE   25

    1310                      ; call occurs [#_MB_PortSerialEnable] ; [] |256| 
    1311 00000057       $C$L8:    
    1312 00000057 8BBE          MOVL      XAR1,*--SP            ; [CPU_] 
    1313                      .dwcfi  cfa_offset, -2
    1314                      .dwcfi  restore_reg, 7
    1315              $C$DW$80        .dwtag  DW_TAG_TI_branch
    1316                      .dwattr $C$DW$80, DW_AT_low_pc(0x00)
    1317                      .dwattr $C$DW$80, DW_AT_TI_return
    1318 00000058 0006          LRETR     ; [CPU_] 
    1319                      ; return occurs ; [] 
    1320                      .dwattr $C$DW$73, DW_AT_TI_end_file("D:/BM1000/sw/drivers/drvic/modbus/mb.c")
    1321                      .dwattr $C$DW$73, DW_AT_TI_end_line(0x115)
    1322                      .dwattr $C$DW$73, DW_AT_TI_end_column(0x01)
    1323                      .dwendentry
    1324                      .dwendtag $C$DW$73
    1325              
    1326 00000059               .sect   ".text"
    1327                      .clink
    1328                      .global _MB_PortTimersDisable
    1329              
    1330              $C$DW$81        .dwtag  DW_TAG_subprogram, DW_AT_name("MB_PortTimersDisable")
    1331                      .dwattr $C$DW$81, DW_AT_low_pc(_MB_PortTimersDisable)
    1332                      .dwattr $C$DW$81, DW_AT_high_pc(0x00)
    1333                      .dwattr $C$DW$81, DW_AT_TI_symbol_name("_MB_PortTimersDisable")
    1334                      .dwattr $C$DW$81, DW_AT_external
    1335                      .dwattr $C$DW$81, DW_AT_TI_begin_file("D:/BM1000/sw/drivers/drvic/modbus/mb.c")
    1336                      .dwattr $C$DW$81, DW_AT_TI_begin_line(0x89)
    1337                      .dwattr $C$DW$81, DW_AT_TI_begin_column(0x06)
    1338                      .dwattr $C$DW$81, DW_AT_TI_max_frame_size(-2)
    1339                      .dwpsn  file "D:/BM1000/sw/drivers/drvic/modbus/mb.c",line 138,column 1,is_stmt,address _MB_PortTimer
    1340              
    1341                      .dwfde $C$DW$CIE, _MB_PortTimersDisable
    1342              $C$DW$82        .dwtag  DW_TAG_formal_parameter, DW_AT_name("handle")
    1343                      .dwattr $C$DW$82, DW_AT_TI_symbol_name("_handle")
    1344                      .dwattr $C$DW$82, DW_AT_type(*$C$DW$T$219)
    1345                      .dwattr $C$DW$82, DW_AT_location[DW_OP_reg12]
    1346              
    1347              ;***************************************************************
    1348              ;* FNAME: _MB_PortTimersDisable         FR SIZE:   0           *
    1349              ;*                                                             *
    1350              ;* FUNCTION ENVIRONMENT                                        *
    1351              ;*                                                             *
    1352              ;* FUNCTION PROPERTIES                                         *
    1353              ;*                            0 Parameter,  0 Auto,  0 SOE     *
    1354              ;***************************************************************
    1355              
    1356              _MB_PortTimersDisable:
    1357              ;* AR4   assigned to _handle
    1358              $C$DW$83        .dwtag  DW_TAG_variable, DW_AT_name("handle")
    1359                      .dwattr $C$DW$83, DW_AT_TI_symbol_name("_handle")
    1360                      .dwattr $C$DW$83, DW_AT_type(*$C$DW$T$234)
    1361                      .dwattr $C$DW$83, DW_AT_location[DW_OP_reg12]
    1362                      .dwcfi  cfa_offset, -2
    1363                      .dwcfi  save_reg_to_mem, 26, 0
    1364                      .dwcfi  save_reg_to_reg, 78, 26
TMS320C2000 Assembler PC v6.2.5 Fri Sep 29 09:29:33 2017

Tools Copyright (c) 1996-2014 Texas Instruments Incorporated
C:\Users\wmj\AppData\Local\Temp\1142410                              PAGE   26

    1365                      .dwpsn  file "D:/BM1000/sw/drivers/timer/src/32b/f28x/f2802x/timer.h",line 276,column 5,is_stmt
    1366 00000059 8AD4          MOVL      XAR4,*+XAR4[2]        ; [CPU_] |276| 
    1367 0000005a 1AE4          OR        *+XAR4[4],#0x0010     ; [CPU_] |276| 
         0000005b 0010 
    1368              $C$DW$84        .dwtag  DW_TAG_TI_branch
    1369                      .dwattr $C$DW$84, DW_AT_low_pc(0x00)
    1370                      .dwattr $C$DW$84, DW_AT_TI_return
    1371 0000005c 0006          LRETR     ; [CPU_] 
    1372                      ; return occurs ; [] 
    1373                      .dwattr $C$DW$81, DW_AT_TI_end_file("D:/BM1000/sw/drivers/drvic/modbus/mb.c")
    1374                      .dwattr $C$DW$81, DW_AT_TI_end_line(0x90)
    1375                      .dwattr $C$DW$81, DW_AT_TI_end_column(0x01)
    1376                      .dwendentry
    1377                      .dwendtag $C$DW$81
    1378              
    1379 0000005d               .sect   ".text"
    1380                      .clink
    1381                      .global _MB_RTUTimerFSM
    1382              
    1383              $C$DW$85        .dwtag  DW_TAG_subprogram, DW_AT_name("MB_RTUTimerFSM")
    1384                      .dwattr $C$DW$85, DW_AT_low_pc(_MB_RTUTimerFSM)
    1385                      .dwattr $C$DW$85, DW_AT_high_pc(0x00)
    1386                      .dwattr $C$DW$85, DW_AT_TI_symbol_name("_MB_RTUTimerFSM")
    1387                      .dwattr $C$DW$85, DW_AT_external
    1388                      .dwattr $C$DW$85, DW_AT_TI_begin_file("D:/BM1000/sw/drivers/drvic/modbus/mb.c")
    1389                      .dwattr $C$DW$85, DW_AT_TI_begin_line(0xe3)
    1390                      .dwattr $C$DW$85, DW_AT_TI_begin_column(0x06)
    1391                      .dwattr $C$DW$85, DW_AT_TI_max_frame_size(-2)
    1392                      .dwpsn  file "D:/BM1000/sw/drivers/drvic/modbus/mb.c",line 228,column 1,is_stmt,address _MB_RTUTimerF
    1393              
    1394                      .dwfde $C$DW$CIE, _MB_RTUTimerFSM
    1395              $C$DW$86        .dwtag  DW_TAG_formal_parameter, DW_AT_name("handle")
    1396                      .dwattr $C$DW$86, DW_AT_TI_symbol_name("_handle")
    1397                      .dwattr $C$DW$86, DW_AT_type(*$C$DW$T$219)
    1398                      .dwattr $C$DW$86, DW_AT_location[DW_OP_reg12]
    1399              
    1400              ;***************************************************************
    1401              ;* FNAME: _MB_RTUTimerFSM               FR SIZE:   0           *
    1402              ;*                                                             *
    1403              ;* FUNCTION ENVIRONMENT                                        *
    1404              ;*                                                             *
    1405              ;* FUNCTION PROPERTIES                                         *
    1406              ;*                            0 Parameter,  0 Auto,  0 SOE     *
    1407              ;***************************************************************
    1408              
    1409              _MB_RTUTimerFSM:
    1410              ;* AR5   assigned to _handle
    1411              $C$DW$87        .dwtag  DW_TAG_variable, DW_AT_name("handle")
    1412                      .dwattr $C$DW$87, DW_AT_TI_symbol_name("_handle")
    1413                      .dwattr $C$DW$87, DW_AT_type(*$C$DW$T$234)
    1414                      .dwattr $C$DW$87, DW_AT_location[DW_OP_reg14]
    1415                      .dwcfi  cfa_offset, -2
    1416                      .dwcfi  save_reg_to_mem, 26, 0
    1417                      .dwcfi  save_reg_to_reg, 78, 26
    1418 0000005d 83A4          MOVL      XAR5,XAR4             ; [CPU_] |228| 
TMS320C2000 Assembler PC v6.2.5 Fri Sep 29 09:29:33 2017

Tools Copyright (c) 1996-2014 Texas Instruments Incorporated
C:\Users\wmj\AppData\Local\Temp\1142410                              PAGE   27

    1419                      .dwpsn  file "D:/BM1000/sw/drivers/drvic/modbus/mb.c",line 231,column 5,is_stmt
    1420 0000005e D01A          MOVB      XAR0,#26              ; [CPU_] |231| 
    1421 0000005f 9295          MOV       AL,*+XAR5[AR0]        ; [CPU_] |231| 
    1422 00000060 EC05          BF        $C$L9,EQ              ; [CPU_] |231| 
    1423                      ; branchcc occurs ; [] |231| 
    1424 00000061 5202          CMPB      AL,#2                 ; [CPU_] |231| 
    1425 00000062 ED06          BF        $C$L11,NEQ            ; [CPU_] |231| 
    1426                      ; branchcc occurs ; [] |231| 
    1427                      .dwpsn  file "D:/BM1000/sw/drivers/drvic/modbus/mb.c",line 235,column 25,is_stmt
    1428 00000063 9A01          MOVB      AL,#1                 ; [CPU_] |235| 
    1429                      .dwpsn  file "D:/BM1000/sw/drivers/drvic/modbus/mb.c",line 235,column 70,is_stmt
    1430 00000064 6F02          B         $C$L10,UNC            ; [CPU_] |235| 
    1431                      ; branch occurs ; [] |235| 
    1432 00000065       $C$L9:    
    1433                      .dwpsn  file "D:/BM1000/sw/drivers/drvic/modbus/mb.c",line 234,column 25,is_stmt
    1434 00000065 9A00          MOVB      AL,#0                 ; [CPU_] |234| 
    1435              $C$L10:    
    1436              $C$DW$88        .dwtag  DW_TAG_TI_branch
    1437                      .dwattr $C$DW$88, DW_AT_low_pc(0x00)
    1438                      .dwattr $C$DW$88, DW_AT_name("_MB_PortEventPost")
    1439                      .dwattr $C$DW$88, DW_AT_TI_call
    1440 00000066 7640'         LCR       #_MB_PortEventPost    ; [CPU_] |234| 
         00000067 000E 
    1441                      ; call occurs [#_MB_PortEventPost] ; [] |234| 
    1442 00000068       $C$L11:    
    1443                      .dwpsn  file "D:/BM1000/sw/drivers/drvic/modbus/mb.c",line 240,column 5,is_stmt
    1444              $C$DW$89        .dwtag  DW_TAG_TI_branch
    1445                      .dwattr $C$DW$89, DW_AT_low_pc(0x00)
    1446                      .dwattr $C$DW$89, DW_AT_name("_MB_PortTimersDisable")
    1447                      .dwattr $C$DW$89, DW_AT_TI_call
    1448 00000068 7640'         LCR       #_MB_PortTimersDisable ; [CPU_] |240| 
         00000069 0059 
    1449                      ; call occurs [#_MB_PortTimersDisable] ; [] |240| 
    1450                      .dwpsn  file "D:/BM1000/sw/drivers/drvic/modbus/mb.c",line 241,column 5,is_stmt
    1451 0000006a D01A          MOVB      XAR0,#26              ; [CPU_] |241| 
    1452 0000006b 56BF          MOVB      *+XAR5[AR0],#1,UNC    ; [CPU_] |241| 
         0000006c 0195 
    1453              $C$DW$90        .dwtag  DW_TAG_TI_branch
    1454                      .dwattr $C$DW$90, DW_AT_low_pc(0x00)
    1455                      .dwattr $C$DW$90, DW_AT_TI_return
    1456 0000006d 0006          LRETR     ; [CPU_] 
    1457                      ; return occurs ; [] 
    1458                      .dwattr $C$DW$85, DW_AT_TI_end_file("D:/BM1000/sw/drivers/drvic/modbus/mb.c")
    1459                      .dwattr $C$DW$85, DW_AT_TI_end_line(0xf4)
    1460                      .dwattr $C$DW$85, DW_AT_TI_end_column(0x01)
    1461                      .dwendentry
    1462                      .dwendtag $C$DW$85
    1463              
    1464 0000006e               .sect   ".text"
    1465                      .clink
    1466                      .global _MB_CRC16
    1467              
    1468              $C$DW$91        .dwtag  DW_TAG_subprogram, DW_AT_name("MB_CRC16")
    1469                      .dwattr $C$DW$91, DW_AT_low_pc(_MB_CRC16)
    1470                      .dwattr $C$DW$91, DW_AT_high_pc(0x00)
TMS320C2000 Assembler PC v6.2.5 Fri Sep 29 09:29:33 2017

Tools Copyright (c) 1996-2014 Texas Instruments Incorporated
C:\Users\wmj\AppData\Local\Temp\1142410                              PAGE   28

    1471                      .dwattr $C$DW$91, DW_AT_TI_symbol_name("_MB_CRC16")
    1472                      .dwattr $C$DW$91, DW_AT_external
    1473                      .dwattr $C$DW$91, DW_AT_type(*$C$DW$T$23)
    1474                      .dwattr $C$DW$91, DW_AT_TI_begin_file("D:/BM1000/sw/drivers/drvic/modbus/mb.c")
    1475                      .dwattr $C$DW$91, DW_AT_TI_begin_line(0x3b)
    1476                      .dwattr $C$DW$91, DW_AT_TI_begin_column(0x0a)
    1477                      .dwattr $C$DW$91, DW_AT_TI_max_frame_size(-2)
    1478                      .dwpsn  file "D:/BM1000/sw/drivers/drvic/modbus/mb.c",line 60,column 1,is_stmt,address _MB_CRC16
    1479              
    1480                      .dwfde $C$DW$CIE, _MB_CRC16
    1481              $C$DW$92        .dwtag  DW_TAG_formal_parameter, DW_AT_name("PDU_Frame")
    1482                      .dwattr $C$DW$92, DW_AT_TI_symbol_name("_PDU_Frame")
    1483                      .dwattr $C$DW$92, DW_AT_type(*$C$DW$T$276)
    1484                      .dwattr $C$DW$92, DW_AT_location[DW_OP_reg12]
    1485              $C$DW$93        .dwtag  DW_TAG_formal_parameter, DW_AT_name("Length")
    1486                      .dwattr $C$DW$93, DW_AT_TI_symbol_name("_Length")
    1487                      .dwattr $C$DW$93, DW_AT_type(*$C$DW$T$23)
    1488                      .dwattr $C$DW$93, DW_AT_location[DW_OP_reg0]
    1489              
    1490              ;***************************************************************
    1491              ;* FNAME: _MB_CRC16                     FR SIZE:   0           *
    1492              ;*                                                             *
    1493              ;* FUNCTION ENVIRONMENT                                        *
    1494              ;*                                                             *
    1495              ;* FUNCTION PROPERTIES                                         *
    1496              ;*                            0 Parameter,  0 Auto,  0 SOE     *
    1497              ;***************************************************************
    1498              
    1499              _MB_CRC16:
    1500              ;* AL    assigned to _iIndex
    1501              $C$DW$94        .dwtag  DW_TAG_variable, DW_AT_name("iIndex")
    1502                      .dwattr $C$DW$94, DW_AT_TI_symbol_name("_iIndex")
    1503                      .dwattr $C$DW$94, DW_AT_type(*$C$DW$T$10)
    1504                      .dwattr $C$DW$94, DW_AT_location[DW_OP_reg0]
    1505              ;* PL    assigned to _ucCRCLo
    1506              $C$DW$95        .dwtag  DW_TAG_variable, DW_AT_name("ucCRCLo")
    1507                      .dwattr $C$DW$95, DW_AT_TI_symbol_name("_ucCRCLo")
    1508                      .dwattr $C$DW$95, DW_AT_type(*$C$DW$T$6)
    1509                      .dwattr $C$DW$95, DW_AT_location[DW_OP_reg2]
    1510              ;* AR7   assigned to _ucCRCHi
    1511              $C$DW$96        .dwtag  DW_TAG_variable, DW_AT_name("ucCRCHi")
    1512                      .dwattr $C$DW$96, DW_AT_TI_symbol_name("_ucCRCHi")
    1513                      .dwattr $C$DW$96, DW_AT_type(*$C$DW$T$6)
    1514                      .dwattr $C$DW$96, DW_AT_location[DW_OP_reg18]
    1515              ;* AR6   assigned to _Length
    1516              $C$DW$97        .dwtag  DW_TAG_variable, DW_AT_name("Length")
    1517                      .dwattr $C$DW$97, DW_AT_TI_symbol_name("_Length")
    1518                      .dwattr $C$DW$97, DW_AT_type(*$C$DW$T$23)
    1519                      .dwattr $C$DW$97, DW_AT_location[DW_OP_reg16]
    1520              ;* AR4   assigned to _PDU_Frame
    1521              $C$DW$98        .dwtag  DW_TAG_variable, DW_AT_name("PDU_Frame")
    1522                      .dwattr $C$DW$98, DW_AT_TI_symbol_name("_PDU_Frame")
    1523                      .dwattr $C$DW$98, DW_AT_type(*$C$DW$T$276)
    1524                      .dwattr $C$DW$98, DW_AT_location[DW_OP_reg12]
    1525              ;* AR6   assigned to $O$L1
TMS320C2000 Assembler PC v6.2.5 Fri Sep 29 09:29:33 2017

Tools Copyright (c) 1996-2014 Texas Instruments Incorporated
C:\Users\wmj\AppData\Local\Temp\1142410                              PAGE   29

    1526                      .dwcfi  cfa_offset, -2
    1527                      .dwcfi  save_reg_to_mem, 26, 0
    1528                      .dwcfi  save_reg_to_reg, 78, 26
    1529 0000006e 88A9          MOVZ      AR6,AL                ; [CPU_] |60| 
    1530 0000006f 2901          CLRC      SXM                   ; [CPU_] 
    1531                      .dwpsn  file "D:/BM1000/sw/drivers/drvic/modbus/mb.c",line 61,column 29,is_stmt
    1532 00000070 B6FF          MOVB      XAR7,#255             ; [CPU_] |61| 
    1533                      .dwpsn  file "D:/BM1000/sw/drivers/drvic/modbus/mb.c",line 62,column 29,is_stmt
    1534 00000071 28AB          MOV       PL,#255               ; [CPU_] |62| 
         00000072 00FF 
    1535                      .dwpsn  file "D:/BM1000/sw/drivers/drvic/modbus/mb.c",line 70,column 5,is_stmt
    1536 00000073 DE81          SUBB      XAR6,#1               ; [CPU_U] |70| 
    1537 00000074 FF20          MOV       ACC,#65535            ; [CPU_] |70| 
         00000075 FFFF 
    1538 00000076 58A6          MOVZ      AR0,AR6               ; [CPU_] |70| 
    1539 00000077 0FA0          CMPL      ACC,XAR0              ; [CPU_] |70| 
    1540 00000078 EC14          BF        $C$L13,EQ             ; [CPU_] |70| 
    1541                      ; branchcc occurs ; [] |70| 
    1542 00000079       $C$L12:    
    1543                      .dwpsn  file "D:/BM1000/sw/drivers/drvic/modbus/mb.c",line 67,column 9,is_stmt
    1544 00000079 92AB          MOV       AL,PL                 ; [CPU_] |67| 
    1545 0000007a 3B01          SETC      SXM                   ; [CPU_] 
    1546                      .dwpsn  file "D:/BM1000/sw/drivers/drvic/modbus/mb.c",line 68,column 9,is_stmt
    1547 0000007b 8F40+         MOVL      XAR5,#_aucCRCHi       ; [CPU_U] |68| 
         0000007c 0000 
    1548                      .dwpsn  file "D:/BM1000/sw/drivers/drvic/modbus/mb.c",line 67,column 9,is_stmt
    1549 0000007d 7084          XOR       AL,*XAR4++            ; [CPU_] |67| 
    1550                      .dwpsn  file "D:/BM1000/sw/drivers/drvic/modbus/mb.c",line 68,column 9,is_stmt
    1551 0000007e 85A9          MOV       ACC,AL                ; [CPU_] |68| 
    1552 0000007f 5601          ADDL      XAR5,ACC              ; [CPU_] |68| 
         00000080 00A5 
    1553 00000081 93A7          MOV       AH,AR7                ; [CPU_] |68| 
    1554 00000082 71C5          XOR       AH,*+XAR5[0]          ; [CPU_] |68| 
    1555 00000083 27A8          MOV       PL,AH                 ; [CPU_] |68| 
    1556                      .dwpsn  file "D:/BM1000/sw/drivers/drvic/modbus/mb.c",line 69,column 9,is_stmt
    1557 00000084 8F40+         MOVL      XAR5,#_aucCRCLo       ; [CPU_U] |69| 
         00000085 0000 
    1558 00000086 85A9          MOV       ACC,AL                ; [CPU_] |69| 
    1559 00000087 5601          ADDL      XAR5,ACC              ; [CPU_] |69| 
         00000088 00A5 
    1560 00000089 80C5          MOVZ      AR7,*+XAR5[0]         ; [CPU_] |69| 
    1561 0000008a 000E          BANZ      $C$L12,AR6--          ; [CPU_] |69| 
         0000008b FFEF 
    1562                      ; branchcc occurs ; [] |69| 
    1563 0000008c       $C$L13:    
    1564                      .dwpsn  file "D:/BM1000/sw/drivers/drvic/modbus/mb.c",line 71,column 5,is_stmt
    1565 0000008c 5603          MOV       ACC,AR7 << #8         ; [CPU_] |71| 
         0000008d 08A7 
    1566 0000008e CAAB          OR        AL,PL                 ; [CPU_] |71| 
    1567              $C$DW$99        .dwtag  DW_TAG_TI_branch
    1568                      .dwattr $C$DW$99, DW_AT_low_pc(0x00)
    1569                      .dwattr $C$DW$99, DW_AT_TI_return
    1570 0000008f 0006          LRETR     ; [CPU_] 
    1571                      ; return occurs ; [] 
    1572                      .dwattr $C$DW$91, DW_AT_TI_end_file("D:/BM1000/sw/drivers/drvic/modbus/mb.c")
TMS320C2000 Assembler PC v6.2.5 Fri Sep 29 09:29:33 2017

Tools Copyright (c) 1996-2014 Texas Instruments Incorporated
C:\Users\wmj\AppData\Local\Temp\1142410                              PAGE   30

    1573                      .dwattr $C$DW$91, DW_AT_TI_end_line(0x48)
    1574                      .dwattr $C$DW$91, DW_AT_TI_end_column(0x01)
    1575                      .dwendentry
    1576                      .dwendtag $C$DW$91
    1577              
    1578 00000090               .sect   ".text"
    1579                      .clink
    1580                      .global _MB_RTUSend
    1581              
    1582              $C$DW$100       .dwtag  DW_TAG_subprogram, DW_AT_name("MB_RTUSend")
    1583                      .dwattr $C$DW$100, DW_AT_low_pc(_MB_RTUSend)
    1584                      .dwattr $C$DW$100, DW_AT_high_pc(0x00)
    1585                      .dwattr $C$DW$100, DW_AT_TI_symbol_name("_MB_RTUSend")
    1586                      .dwattr $C$DW$100, DW_AT_external
    1587                      .dwattr $C$DW$100, DW_AT_type(*$C$DW$T$157)
    1588                      .dwattr $C$DW$100, DW_AT_TI_begin_file("D:/BM1000/sw/drivers/drvic/modbus/mb.c")
    1589                      .dwattr $C$DW$100, DW_AT_TI_begin_line(0x151)
    1590                      .dwattr $C$DW$100, DW_AT_TI_begin_column(0x0e)
    1591                      .dwattr $C$DW$100, DW_AT_TI_max_frame_size(-8)
    1592                      .dwpsn  file "D:/BM1000/sw/drivers/drvic/modbus/mb.c",line 338,column 1,is_stmt,address _MB_RTUSend
    1593              
    1594                      .dwfde $C$DW$CIE, _MB_RTUSend
    1595              $C$DW$101       .dwtag  DW_TAG_formal_parameter, DW_AT_name("handle")
    1596                      .dwattr $C$DW$101, DW_AT_TI_symbol_name("_handle")
    1597                      .dwattr $C$DW$101, DW_AT_type(*$C$DW$T$219)
    1598                      .dwattr $C$DW$101, DW_AT_location[DW_OP_reg12]
    1599              
    1600              ;***************************************************************
    1601              ;* FNAME: _MB_RTUSend                   FR SIZE:   6           *
    1602              ;*                                                             *
    1603              ;* FUNCTION ENVIRONMENT                                        *
    1604              ;*                                                             *
    1605              ;* FUNCTION PROPERTIES                                         *
    1606              ;*                            0 Parameter,  0 Auto,  6 SOE     *
    1607              ;***************************************************************
    1608              
    1609              _MB_RTUSend:
    1610              ;* AR3   assigned to $O$C3
    1611              ;* PH    assigned to $O$C4
    1612              ;* AL    assigned to _usCRC16
    1613              $C$DW$102       .dwtag  DW_TAG_variable, DW_AT_name("usCRC16")
    1614                      .dwattr $C$DW$102, DW_AT_TI_symbol_name("_usCRC16")
    1615                      .dwattr $C$DW$102, DW_AT_type(*$C$DW$T$155)
    1616                      .dwattr $C$DW$102, DW_AT_location[DW_OP_reg0]
    1617              ;* AL    assigned to _eStatus
    1618              $C$DW$103       .dwtag  DW_TAG_variable, DW_AT_name("eStatus")
    1619                      .dwattr $C$DW$103, DW_AT_TI_symbol_name("_eStatus")
    1620                      .dwattr $C$DW$103, DW_AT_type(*$C$DW$T$157)
    1621                      .dwattr $C$DW$103, DW_AT_location[DW_OP_reg0]
    1622              ;* AR2   assigned to _handle
    1623              $C$DW$104       .dwtag  DW_TAG_variable, DW_AT_name("handle")
    1624                      .dwattr $C$DW$104, DW_AT_TI_symbol_name("_handle")
    1625                      .dwattr $C$DW$104, DW_AT_type(*$C$DW$T$234)
    1626                      .dwattr $C$DW$104, DW_AT_location[DW_OP_reg8]
    1627              ;* AR0   assigned to $O$T2
TMS320C2000 Assembler PC v6.2.5 Fri Sep 29 09:29:33 2017

Tools Copyright (c) 1996-2014 Texas Instruments Incorporated
C:\Users\wmj\AppData\Local\Temp\1142410                              PAGE   31

    1628              ;* AR0   assigned to $O$T1
    1629                      .dwcfi  cfa_offset, -2
    1630                      .dwcfi  save_reg_to_mem, 26, 0
    1631                      .dwcfi  save_reg_to_reg, 78, 26
    1632 00000090 B2BD          MOVL      *SP++,XAR1            ; [CPU_] 
    1633                      .dwcfi  save_reg_to_mem, 7, 2
    1634                      .dwcfi  cfa_offset, -4
    1635                      .dwpsn  file "D:/BM1000/sw/drivers/drvic/modbus/mb.c",line 344,column 5,is_stmt
    1636 00000091 D01A          MOVB      XAR0,#26              ; [CPU_] |344| 
    1637 00000092 AABD          MOVL      *SP++,XAR2            ; [CPU_] 
    1638                      .dwcfi  save_reg_to_mem, 9, 4
    1639                      .dwcfi  cfa_offset, -6
    1640                      .dwpsn  file "D:/BM1000/sw/drivers/drvic/modbus/mb.c",line 338,column 1,is_stmt
    1641 00000093 86A4          MOVL      XAR2,XAR4             ; [CPU_] |338| 
    1642 00000094 A2BD          MOVL      *SP++,XAR3            ; [CPU_] 
    1643                      .dwcfi  save_reg_to_mem, 11, 6
    1644                      .dwcfi  cfa_offset, -8
    1645                      .dwpsn  file "D:/BM1000/sw/drivers/drvic/modbus/mb.c",line 344,column 5,is_stmt
    1646 00000095 9292          MOV       AL,*+XAR2[AR0]        ; [CPU_] |344| 
    1647 00000096 5201          CMPB      AL,#1                 ; [CPU_] |344| 
    1648 00000097 EC03          BF        $C$L14,EQ             ; [CPU_] |344| 
    1649                      ; branchcc occurs ; [] |344| 
    1650                      .dwpsn  file "D:/BM1000/sw/drivers/drvic/modbus/mb.c",line 367,column 9,is_stmt
    1651 00000098 9A05          MOVB      AL,#5                 ; [CPU_] |367| 
    1652 00000099 6F39          B         $C$L15,UNC            ; [CPU_] |367| 
    1653                      ; branch occurs ; [] |367| 
    1654 0000009a       $C$L14:    
    1655                      .dwpsn  file "D:/BM1000/sw/drivers/drvic/modbus/mb.c",line 347,column 6,is_stmt
    1656 0000009a 82A2          MOVL      XAR3,XAR2             ; [CPU_] |347| 
    1657 0000009b D014          MOVB      XAR0,#20              ; [CPU_] |347| 
    1658                      .dwpsn  file "D:/BM1000/sw/drivers/drvic/modbus/mb.c",line 351,column 6,is_stmt
    1659 0000009c C5A2          MOVL      XAR7,XAR2             ; [CPU_] |351| 
    1660                      .dwpsn  file "D:/BM1000/sw/drivers/drvic/modbus/mb.c",line 347,column 6,is_stmt
    1661 0000009d DB0A          ADDB      XAR3,#10              ; [CPU_] |347| 
    1662 0000009e A292          MOVL      *+XAR2[AR0],XAR3      ; [CPU_] |347| 
    1663                      .dwpsn  file "D:/BM1000/sw/drivers/drvic/modbus/mb.c",line 348,column 6,is_stmt
    1664 0000009f D016          MOVB      XAR0,#22              ; [CPU_] |348| 
    1665 000000a0 56BF          MOVB      *+XAR2[AR0],#1,UNC    ; [CPU_] |348| 
         000000a1 0192 
    1666                      .dwpsn  file "D:/BM1000/sw/drivers/drvic/modbus/mb.c",line 351,column 6,is_stmt
    1667 000000a2 D014          MOVB      XAR0,#20              ; [CPU_] |351| 
    1668 000000a3 8A92          MOVL      XAR4,*+XAR2[AR0]      ; [CPU_] |351| 
    1669 000000a4 DF17          ADDB      XAR7,#23              ; [CPU_] |351| 
    1670 000000a5 92C7          MOV       AL,*XAR7              ; [CPU_] |351| 
    1671 000000a6 96C4          MOV       *+XAR4[0],AL          ; [CPU_] |351| 
    1672                      .dwpsn  file "D:/BM1000/sw/drivers/drvic/modbus/mb.c",line 352,column 6,is_stmt
    1673 000000a7 8AA2          MOVL      XAR4,XAR2             ; [CPU_] |352| 
    1674                      .dwpsn  file "D:/BM1000/sw/drivers/drvic/modbus/mb.c",line 355,column 9,is_stmt
    1675 000000a8 D016          MOVB      XAR0,#22              ; [CPU_] |355| 
    1676                      .dwpsn  file "D:/BM1000/sw/drivers/drvic/modbus/mb.c",line 352,column 6,is_stmt
    1677 000000a9 DC16          ADDB      XAR4,#22              ; [CPU_] |352| 
    1678 000000aa 08C4          ADD       *+XAR4[0],#5          ; [CPU_] |352| 
         000000ab 0005 
    1679                      .dwpsn  file "D:/BM1000/sw/drivers/drvic/modbus/mb.c",line 355,column 9,is_stmt
    1680 000000ac 2F92          MOV       PH,*+XAR2[AR0]        ; [CPU_] |355| 
TMS320C2000 Assembler PC v6.2.5 Fri Sep 29 09:29:33 2017

Tools Copyright (c) 1996-2014 Texas Instruments Incorporated
C:\Users\wmj\AppData\Local\Temp\1142410                              PAGE   32

    1681 000000ad D014          MOVB      XAR0,#20              ; [CPU_] |355| 
    1682 000000ae 92AA          MOV       AL,PH                 ; [CPU_] |355| 
    1683 000000af 8A92          MOVL      XAR4,*+XAR2[AR0]      ; [CPU_] |355| 
    1684              $C$DW$105       .dwtag  DW_TAG_TI_branch
    1685                      .dwattr $C$DW$105, DW_AT_low_pc(0x00)
    1686                      .dwattr $C$DW$105, DW_AT_name("_MB_CRC16")
    1687                      .dwattr $C$DW$105, DW_AT_TI_call
    1688 000000b0 7640'         LCR       #_MB_CRC16            ; [CPU_] |355| 
         000000b1 006E 
    1689                      ; call occurs [#_MB_CRC16] ; [] |355| 
    1690                      .dwpsn  file "D:/BM1000/sw/drivers/drvic/modbus/mb.c",line 356,column 9,is_stmt
    1691 000000b2 D116          MOVB      XAR1,#22              ; [CPU_] |356| 
    1692 000000b3 9B01          MOVB      AH,#1                 ; [CPU_] |356| 
    1693 000000b4 58AA          MOVZ      AR0,PH                ; [CPU_] |356| 
    1694 000000b5 95A0          ADD       AH,AR0                ; [CPU_] |356| 
    1695 000000b6 979A          MOV       *+XAR2[AR1],AH        ; [CPU_] |356| 
    1696 000000b7 CDA9          AND       AH,AL,#0x00ff         ; [CPU_] |356| 
         000000b8 00FF 
    1697 000000b9 9793          MOV       *+XAR3[AR0],AH        ; [CPU_] |356| 
    1698                      .dwpsn  file "D:/BM1000/sw/drivers/drvic/modbus/mb.c",line 357,column 9,is_stmt
    1699 000000ba D016          MOVB      XAR0,#22              ; [CPU_] |357| 
    1700 000000bb 9B01          MOVB      AH,#1                 ; [CPU_] |357| 
    1701 000000bc 5892          MOVZ      AR0,*+XAR2[AR0]       ; [CPU_] |357| 
    1702 000000bd D116          MOVB      XAR1,#22              ; [CPU_] |357| 
    1703 000000be FFC7          LSR       AL,8                  ; [CPU_] |357| 
    1704                      .dwpsn  file "D:/BM1000/sw/drivers/drvic/modbus/mb.c",line 361,column 9,is_stmt
    1705 000000bf 8AA2          MOVL      XAR4,XAR2             ; [CPU_] |361| 
    1706                      .dwpsn  file "D:/BM1000/sw/drivers/drvic/modbus/mb.c",line 357,column 9,is_stmt
    1707 000000c0 95A0          ADD       AH,AR0                ; [CPU_] |357| 
    1708 000000c1 979A          MOV       *+XAR2[AR1],AH        ; [CPU_] |357| 
    1709                      .dwpsn  file "D:/BM1000/sw/drivers/drvic/modbus/mb.c",line 361,column 9,is_stmt
    1710 000000c2 9B01          MOVB      AH,#1                 ; [CPU_] |361| 
    1711                      .dwpsn  file "D:/BM1000/sw/drivers/drvic/modbus/mb.c",line 357,column 9,is_stmt
    1712 000000c3 9693          MOV       *+XAR3[AR0],AL        ; [CPU_] |357| 
    1713                      .dwpsn  file "D:/BM1000/sw/drivers/drvic/modbus/mb.c",line 361,column 9,is_stmt
    1714 000000c4 9A00          MOVB      AL,#0                 ; [CPU_] |361| 
    1715                      .dwpsn  file "D:/BM1000/sw/drivers/drvic/modbus/mb.c",line 360,column 9,is_stmt
    1716 000000c5 D019          MOVB      XAR0,#25              ; [CPU_] |360| 
    1717 000000c6 56BF          MOVB      *+XAR2[AR0],#1,UNC    ; [CPU_] |360| 
         000000c7 0192 
    1718                      .dwpsn  file "D:/BM1000/sw/drivers/drvic/modbus/mb.c",line 361,column 9,is_stmt
    1719              $C$DW$106       .dwtag  DW_TAG_TI_branch
    1720                      .dwattr $C$DW$106, DW_AT_low_pc(0x00)
    1721                      .dwattr $C$DW$106, DW_AT_name("_MB_PortSerialEnable")
    1722                      .dwattr $C$DW$106, DW_AT_TI_call
    1723 000000c8 7640'         LCR       #_MB_PortSerialEnable ; [CPU_] |361| 
         000000c9 0014 
    1724                      ; call occurs [#_MB_PortSerialEnable] ; [] |361| 
    1725                      .dwpsn  file "D:/BM1000/sw/drivers/drvic/modbus/mb.c",line 362,column 9,is_stmt
    1726 000000ca 8AA2          MOVL      XAR4,XAR2             ; [CPU_] |362| 
    1727 000000cb DC16          ADDB      XAR4,#22              ; [CPU_] |362| 
    1728 000000cc 0BC4          DEC       *+XAR4[0]             ; [CPU_] |362| 
    1729                      .dwpsn  file "D:/BM1000/sw/drivers/drvic/modbus/mb.c",line 363,column 9,is_stmt
    1730 000000cd 8AE2          MOVL      XAR4,*+XAR2[4]        ; [CPU_] |363| 
    1731 000000ce 92C3          MOV       AL,*+XAR3[0]          ; [CPU_] |363| 
TMS320C2000 Assembler PC v6.2.5 Fri Sep 29 09:29:33 2017

Tools Copyright (c) 1996-2014 Texas Instruments Incorporated
C:\Users\wmj\AppData\Local\Temp\1142410                              PAGE   33

    1732              $C$DW$107       .dwtag  DW_TAG_TI_branch
    1733                      .dwattr $C$DW$107, DW_AT_low_pc(0x00)
    1734                      .dwattr $C$DW$107, DW_AT_name("_SCI_putDataBlocking")
    1735                      .dwattr $C$DW$107, DW_AT_TI_call
    1736 000000cf 7640!         LCR       #_SCI_putDataBlocking ; [CPU_] |363| 
         000000d0 0000 
    1737                      ; call occurs [#_SCI_putDataBlocking] ; [] |363| 
    1738                      .dwpsn  file "D:/BM1000/sw/drivers/drvic/modbus/mb.c",line 341,column 29,is_stmt
    1739 000000d1 9A00          MOVB      AL,#0                 ; [CPU_] |341| 
    1740 000000d2       $C$L15:    
    1741 000000d2 82BE          MOVL      XAR3,*--SP            ; [CPU_] 
    1742                      .dwcfi  cfa_offset, -6
    1743                      .dwcfi  restore_reg, 11
    1744 000000d3 86BE          MOVL      XAR2,*--SP            ; [CPU_] 
    1745                      .dwcfi  cfa_offset, -4
    1746                      .dwcfi  restore_reg, 9
    1747 000000d4 8BBE          MOVL      XAR1,*--SP            ; [CPU_] 
    1748                      .dwcfi  cfa_offset, -2
    1749                      .dwcfi  restore_reg, 7
    1750              $C$DW$108       .dwtag  DW_TAG_TI_branch
    1751                      .dwattr $C$DW$108, DW_AT_low_pc(0x00)
    1752                      .dwattr $C$DW$108, DW_AT_TI_return
    1753 000000d5 0006          LRETR     ; [CPU_] 
    1754                      ; return occurs ; [] 
    1755                      .dwattr $C$DW$100, DW_AT_TI_end_file("D:/BM1000/sw/drivers/drvic/modbus/mb.c")
    1756                      .dwattr $C$DW$100, DW_AT_TI_end_line(0x172)
    1757                      .dwattr $C$DW$100, DW_AT_TI_end_column(0x01)
    1758                      .dwendentry
    1759                      .dwendtag $C$DW$100
    1760              
    1761 000000d6               .sect   ".text"
    1762                      .clink
    1763                      .global _MB_PortSerialGetByte
    1764              
    1765              $C$DW$109       .dwtag  DW_TAG_subprogram, DW_AT_name("MB_PortSerialGetByte")
    1766                      .dwattr $C$DW$109, DW_AT_low_pc(_MB_PortSerialGetByte)
    1767                      .dwattr $C$DW$109, DW_AT_high_pc(0x00)
    1768                      .dwattr $C$DW$109, DW_AT_TI_symbol_name("_MB_PortSerialGetByte")
    1769                      .dwattr $C$DW$109, DW_AT_external
    1770                      .dwattr $C$DW$109, DW_AT_type(*$C$DW$T$34)
    1771                      .dwattr $C$DW$109, DW_AT_TI_begin_file("D:/BM1000/sw/drivers/drvic/modbus/mb.c")
    1772                      .dwattr $C$DW$109, DW_AT_TI_begin_line(0xba)
    1773                      .dwattr $C$DW$109, DW_AT_TI_begin_column(0x06)
    1774                      .dwattr $C$DW$109, DW_AT_TI_max_frame_size(-4)
    1775                      .dwpsn  file "D:/BM1000/sw/drivers/drvic/modbus/mb.c",line 187,column 1,is_stmt,address _MB_PortSeria
    1776              
    1777                      .dwfde $C$DW$CIE, _MB_PortSerialGetByte
    1778              $C$DW$110       .dwtag  DW_TAG_formal_parameter, DW_AT_name("handle")
    1779                      .dwattr $C$DW$110, DW_AT_TI_symbol_name("_handle")
    1780                      .dwattr $C$DW$110, DW_AT_type(*$C$DW$T$219)
    1781                      .dwattr $C$DW$110, DW_AT_location[DW_OP_reg12]
    1782              $C$DW$111       .dwtag  DW_TAG_formal_parameter, DW_AT_name("getByte")
    1783                      .dwattr $C$DW$111, DW_AT_TI_symbol_name("_getByte")
    1784                      .dwattr $C$DW$111, DW_AT_type(*$C$DW$T$273)
    1785                      .dwattr $C$DW$111, DW_AT_location[DW_OP_reg14]
TMS320C2000 Assembler PC v6.2.5 Fri Sep 29 09:29:33 2017

Tools Copyright (c) 1996-2014 Texas Instruments Incorporated
C:\Users\wmj\AppData\Local\Temp\1142410                              PAGE   34

    1786              
    1787              ;***************************************************************
    1788              ;* FNAME: _MB_PortSerialGetByte         FR SIZE:   2           *
    1789              ;*                                                             *
    1790              ;* FUNCTION ENVIRONMENT                                        *
    1791              ;*                                                             *
    1792              ;* FUNCTION PROPERTIES                                         *
    1793              ;*                            0 Parameter,  0 Auto,  2 SOE     *
    1794              ;***************************************************************
    1795              
    1796              _MB_PortSerialGetByte:
    1797              ;* AR4   assigned to _handle
    1798              $C$DW$112       .dwtag  DW_TAG_variable, DW_AT_name("handle")
    1799                      .dwattr $C$DW$112, DW_AT_TI_symbol_name("_handle")
    1800                      .dwattr $C$DW$112, DW_AT_type(*$C$DW$T$234)
    1801                      .dwattr $C$DW$112, DW_AT_location[DW_OP_reg12]
    1802              ;* AR1   assigned to _getByte
    1803              $C$DW$113       .dwtag  DW_TAG_variable, DW_AT_name("getByte")
    1804                      .dwattr $C$DW$113, DW_AT_TI_symbol_name("_getByte")
    1805                      .dwattr $C$DW$113, DW_AT_type(*$C$DW$T$302)
    1806                      .dwattr $C$DW$113, DW_AT_location[DW_OP_reg6]
    1807                      .dwcfi  cfa_offset, -2
    1808                      .dwcfi  save_reg_to_mem, 26, 0
    1809                      .dwcfi  save_reg_to_reg, 78, 26
    1810 000000d6 B2BD          MOVL      *SP++,XAR1            ; [CPU_] 
    1811                      .dwcfi  save_reg_to_mem, 7, 2
    1812                      .dwcfi  cfa_offset, -4
    1813                      .dwpsn  file "D:/BM1000/sw/drivers/drvic/modbus/mb.c",line 190,column 5,is_stmt
    1814 000000d7 8AE4          MOVL      XAR4,*+XAR4[4]        ; [CPU_] |190| 
    1815                      .dwpsn  file "D:/BM1000/sw/drivers/drvic/modbus/mb.c",line 187,column 1,is_stmt
    1816 000000d8 8BA5          MOVL      XAR1,XAR5             ; [CPU_] |187| 
    1817                      .dwpsn  file "D:/BM1000/sw/drivers/drvic/modbus/mb.c",line 190,column 5,is_stmt
    1818              $C$DW$114       .dwtag  DW_TAG_TI_branch
    1819                      .dwattr $C$DW$114, DW_AT_low_pc(0x00)
    1820                      .dwattr $C$DW$114, DW_AT_name("_SCI_getDataBlocking")
    1821                      .dwattr $C$DW$114, DW_AT_TI_call
    1822 000000d9 7640!         LCR       #_SCI_getDataBlocking ; [CPU_] |190| 
         000000da 0000 
    1823                      ; call occurs [#_SCI_getDataBlocking] ; [] |190| 
    1824 000000db 96C1          MOV       *+XAR1[0],AL          ; [CPU_] |190| 
    1825                      .dwpsn  file "D:/BM1000/sw/drivers/drvic/modbus/mb.c",line 192,column 5,is_stmt
    1826 000000dc 9A01          MOVB      AL,#1                 ; [CPU_] |192| 
    1827 000000dd 8BBE          MOVL      XAR1,*--SP            ; [CPU_] 
    1828                      .dwcfi  cfa_offset, -2
    1829                      .dwcfi  restore_reg, 7
    1830              $C$DW$115       .dwtag  DW_TAG_TI_branch
    1831                      .dwattr $C$DW$115, DW_AT_low_pc(0x00)
    1832                      .dwattr $C$DW$115, DW_AT_TI_return
    1833 000000de 0006          LRETR     ; [CPU_] 
    1834                      ; return occurs ; [] 
    1835                      .dwattr $C$DW$109, DW_AT_TI_end_file("D:/BM1000/sw/drivers/drvic/modbus/mb.c")
    1836                      .dwattr $C$DW$109, DW_AT_TI_end_line(0xc1)
    1837                      .dwattr $C$DW$109, DW_AT_TI_end_column(0x01)
    1838                      .dwendentry
    1839                      .dwendtag $C$DW$109
TMS320C2000 Assembler PC v6.2.5 Fri Sep 29 09:29:33 2017

Tools Copyright (c) 1996-2014 Texas Instruments Incorporated
C:\Users\wmj\AppData\Local\Temp\1142410                              PAGE   35

    1840              
    1841 000000df               .sect   ".text"
    1842                      .clink
    1843                      .global _MB_PortTimersEnable
    1844              
    1845              $C$DW$116       .dwtag  DW_TAG_subprogram, DW_AT_name("MB_PortTimersEnable")
    1846                      .dwattr $C$DW$116, DW_AT_low_pc(_MB_PortTimersEnable)
    1847                      .dwattr $C$DW$116, DW_AT_high_pc(0x00)
    1848                      .dwattr $C$DW$116, DW_AT_TI_symbol_name("_MB_PortTimersEnable")
    1849                      .dwattr $C$DW$116, DW_AT_external
    1850                      .dwattr $C$DW$116, DW_AT_TI_begin_file("D:/BM1000/sw/drivers/drvic/modbus/mb.c")
    1851                      .dwattr $C$DW$116, DW_AT_TI_begin_line(0x7e)
    1852                      .dwattr $C$DW$116, DW_AT_TI_begin_column(0x06)
    1853                      .dwattr $C$DW$116, DW_AT_TI_max_frame_size(-4)
    1854                      .dwpsn  file "D:/BM1000/sw/drivers/drvic/modbus/mb.c",line 127,column 1,is_stmt,address _MB_PortTimer
    1855              
    1856                      .dwfde $C$DW$CIE, _MB_PortTimersEnable
    1857              $C$DW$117       .dwtag  DW_TAG_formal_parameter, DW_AT_name("handle")
    1858                      .dwattr $C$DW$117, DW_AT_TI_symbol_name("_handle")
    1859                      .dwattr $C$DW$117, DW_AT_type(*$C$DW$T$219)
    1860                      .dwattr $C$DW$117, DW_AT_location[DW_OP_reg12]
    1861              
    1862              ;***************************************************************
    1863              ;* FNAME: _MB_PortTimersEnable          FR SIZE:   2           *
    1864              ;*                                                             *
    1865              ;* FUNCTION ENVIRONMENT                                        *
    1866              ;*                                                             *
    1867              ;* FUNCTION PROPERTIES                                         *
    1868              ;*                            0 Parameter,  0 Auto,  2 SOE     *
    1869              ;***************************************************************
    1870              
    1871              _MB_PortTimersEnable:
    1872              ;* AR1   assigned to _handle
    1873              $C$DW$118       .dwtag  DW_TAG_variable, DW_AT_name("handle")
    1874                      .dwattr $C$DW$118, DW_AT_TI_symbol_name("_handle")
    1875                      .dwattr $C$DW$118, DW_AT_type(*$C$DW$T$234)
    1876                      .dwattr $C$DW$118, DW_AT_location[DW_OP_reg6]
    1877                      .dwcfi  cfa_offset, -2
    1878                      .dwcfi  save_reg_to_mem, 26, 0
    1879                      .dwcfi  save_reg_to_reg, 78, 26
    1880 000000df B2BD          MOVL      *SP++,XAR1            ; [CPU_] 
    1881                      .dwcfi  save_reg_to_mem, 7, 2
    1882                      .dwcfi  cfa_offset, -4
    1883 000000e0 8BA4          MOVL      XAR1,XAR4             ; [CPU_] |127| 
    1884                      .dwpsn  file "D:/BM1000/sw/drivers/drvic/modbus/mb.c",line 130,column 3,is_stmt
    1885 000000e1 8AD1          MOVL      XAR4,*+XAR1[2]        ; [CPU_] |130| 
    1886              $C$DW$119       .dwtag  DW_TAG_TI_branch
    1887                      .dwattr $C$DW$119, DW_AT_low_pc(0x00)
    1888                      .dwattr $C$DW$119, DW_AT_name("_TIMER_clearFlag")
    1889                      .dwattr $C$DW$119, DW_AT_TI_call
    1890 000000e2 7640!         LCR       #_TIMER_clearFlag     ; [CPU_] |130| 
         000000e3 0000 
    1891                      ; call occurs [#_TIMER_clearFlag] ; [] |130| 
    1892                      .dwpsn  file "D:/BM1000/sw/drivers/timer/src/32b/f28x/f2802x/timer.h",line 196,column 5,is_stmt
    1893 000000e4 8AD1          MOVL      XAR4,*+XAR1[2]        ; [CPU_] |196| 
TMS320C2000 Assembler PC v6.2.5 Fri Sep 29 09:29:33 2017

Tools Copyright (c) 1996-2014 Texas Instruments Incorporated
C:\Users\wmj\AppData\Local\Temp\1142410                              PAGE   36

    1894 000000e5 1AE4          OR        *+XAR4[4],#0x0020     ; [CPU_] |196| 
         000000e6 0020 
    1895                      .dwpsn  file "D:/BM1000/sw/drivers/timer/src/32b/f28x/f2802x/timer.h",line 262,column 5,is_stmt
    1896 000000e7 8AD1          MOVL      XAR4,*+XAR1[2]        ; [CPU_] |262| 
    1897 000000e8 18E4          AND       *+XAR4[4],#0xffef     ; [CPU_] |262| 
         000000e9 FFEF 
    1898 000000ea 8BBE          MOVL      XAR1,*--SP            ; [CPU_] 
    1899                      .dwcfi  cfa_offset, -2
    1900                      .dwcfi  restore_reg, 7
    1901              $C$DW$120       .dwtag  DW_TAG_TI_branch
    1902                      .dwattr $C$DW$120, DW_AT_low_pc(0x00)
    1903                      .dwattr $C$DW$120, DW_AT_TI_return
    1904 000000eb 0006          LRETR     ; [CPU_] 
    1905                      ; return occurs ; [] 
    1906                      .dwattr $C$DW$116, DW_AT_TI_end_file("D:/BM1000/sw/drivers/drvic/modbus/mb.c")
    1907                      .dwattr $C$DW$116, DW_AT_TI_end_line(0x87)
    1908                      .dwattr $C$DW$116, DW_AT_TI_end_column(0x01)
    1909                      .dwendentry
    1910                      .dwendtag $C$DW$116
    1911              
    1912 000000ec               .sect   ".text"
    1913                      .clink
    1914                      .global _MB_RTUReceiveFSM
    1915              
    1916              $C$DW$121       .dwtag  DW_TAG_subprogram, DW_AT_name("MB_RTUReceiveFSM")
    1917                      .dwattr $C$DW$121, DW_AT_low_pc(_MB_RTUReceiveFSM)
    1918                      .dwattr $C$DW$121, DW_AT_high_pc(0x00)
    1919                      .dwattr $C$DW$121, DW_AT_TI_symbol_name("_MB_RTUReceiveFSM")
    1920                      .dwattr $C$DW$121, DW_AT_external
    1921                      .dwattr $C$DW$121, DW_AT_TI_begin_file("D:/BM1000/sw/drivers/drvic/modbus/mb.c")
    1922                      .dwattr $C$DW$121, DW_AT_TI_begin_line(0x117)
    1923                      .dwattr $C$DW$121, DW_AT_TI_begin_column(0x06)
    1924                      .dwattr $C$DW$121, DW_AT_TI_max_frame_size(-6)
    1925                      .dwpsn  file "D:/BM1000/sw/drivers/drvic/modbus/mb.c",line 280,column 1,is_stmt,address _MB_RTUReceiv
    1926              
    1927                      .dwfde $C$DW$CIE, _MB_RTUReceiveFSM
    1928              $C$DW$122       .dwtag  DW_TAG_formal_parameter, DW_AT_name("handle")
    1929                      .dwattr $C$DW$122, DW_AT_TI_symbol_name("_handle")
    1930                      .dwattr $C$DW$122, DW_AT_type(*$C$DW$T$219)
    1931                      .dwattr $C$DW$122, DW_AT_location[DW_OP_reg12]
    1932              
    1933              ;***************************************************************
    1934              ;* FNAME: _MB_RTUReceiveFSM             FR SIZE:   4           *
    1935              ;*                                                             *
    1936              ;* FUNCTION ENVIRONMENT                                        *
    1937              ;*                                                             *
    1938              ;* FUNCTION PROPERTIES                                         *
    1939              ;*                            0 Parameter,  1 Auto,  2 SOE     *
    1940              ;***************************************************************
    1941              
    1942              _MB_RTUReceiveFSM:
    1943              $C$DW$123       .dwtag  DW_TAG_variable, DW_AT_name("ucByte")
    1944                      .dwattr $C$DW$123, DW_AT_TI_symbol_name("_ucByte")
    1945                      .dwattr $C$DW$123, DW_AT_type(*$C$DW$T$152)
    1946                      .dwattr $C$DW$123, DW_AT_location[DW_OP_breg20 -1]
TMS320C2000 Assembler PC v6.2.5 Fri Sep 29 09:29:33 2017

Tools Copyright (c) 1996-2014 Texas Instruments Incorporated
C:\Users\wmj\AppData\Local\Temp\1142410                              PAGE   37

    1947              ;* AR1   assigned to _handle
    1948              $C$DW$124       .dwtag  DW_TAG_variable, DW_AT_name("handle")
    1949                      .dwattr $C$DW$124, DW_AT_TI_symbol_name("_handle")
    1950                      .dwattr $C$DW$124, DW_AT_type(*$C$DW$T$234)
    1951                      .dwattr $C$DW$124, DW_AT_location[DW_OP_reg6]
    1952              ;* AR6   assigned to $O$U6
    1953                      .dwcfi  cfa_offset, -2
    1954                      .dwcfi  save_reg_to_mem, 26, 0
    1955                      .dwcfi  save_reg_to_reg, 78, 26
    1956 000000ec B2BD          MOVL      *SP++,XAR1            ; [CPU_] 
    1957                      .dwcfi  save_reg_to_mem, 7, 2
    1958                      .dwcfi  cfa_offset, -4
    1959 000000ed FE02          ADDB      SP,#2                 ; [CPU_U] 
    1960                      .dwcfi  cfa_offset, -6
    1961                      .dwpsn  file "D:/BM1000/sw/drivers/drvic/modbus/mb.c",line 286,column 5,is_stmt
    1962 000000ee 5DAD          MOVZ      AR5,SP                ; [CPU_U] |286| 
    1963                      .dwpsn  file "D:/BM1000/sw/drivers/drvic/modbus/mb.c",line 280,column 1,is_stmt
    1964 000000ef 8BA4          MOVL      XAR1,XAR4             ; [CPU_] |280| 
    1965                      .dwpsn  file "D:/BM1000/sw/drivers/drvic/modbus/mb.c",line 286,column 5,is_stmt
    1966 000000f0 DD81          SUBB      XAR5,#1               ; [CPU_U] |286| 
    1967              $C$DW$125       .dwtag  DW_TAG_TI_branch
    1968                      .dwattr $C$DW$125, DW_AT_low_pc(0x00)
    1969                      .dwattr $C$DW$125, DW_AT_name("_MB_PortSerialGetByte")
    1970                      .dwattr $C$DW$125, DW_AT_TI_call
    1971 000000f1 7640'         LCR       #_MB_PortSerialGetByte ; [CPU_] |286| 
         000000f2 00D6 
    1972                      ; call occurs [#_MB_PortSerialGetByte] ; [] |286| 
    1973                      .dwpsn  file "D:/BM1000/sw/drivers/drvic/modbus/mb.c",line 288,column 5,is_stmt
    1974 000000f3 D01A          MOVB      XAR0,#26              ; [CPU_] |288| 
    1975 000000f4 9291          MOV       AL,*+XAR1[AR0]        ; [CPU_] |288| 
    1976 000000f5 EC24          BF        $C$L18,EQ             ; [CPU_] |288| 
    1977                      ; branchcc occurs ; [] |288| 
    1978 000000f6 5201          CMPB      AL,#1                 ; [CPU_] |288| 
    1979 000000f7 EC19          BF        $C$L17,EQ             ; [CPU_] |288| 
    1980                      ; branchcc occurs ; [] |288| 
    1981 000000f8 5202          CMPB      AL,#2                 ; [CPU_] |288| 
    1982 000000f9 EC04          BF        $C$L16,EQ             ; [CPU_] |288| 
    1983                      ; branchcc occurs ; [] |288| 
    1984 000000fa 5203          CMPB      AL,#3                 ; [CPU_] |288| 
    1985 000000fb EC1E          BF        $C$L18,EQ             ; [CPU_] |288| 
    1986                      ; branchcc occurs ; [] |288| 
    1987 000000fc 6F20          B         $C$L19,UNC            ; [CPU_] |288| 
    1988                      ; branch occurs ; [] |288| 
    1989 000000fd       $C$L16:    
    1990                      .dwpsn  file "D:/BM1000/sw/drivers/drvic/modbus/mb.c",line 302,column 9,is_stmt
    1991 000000fd D012          MOVB      XAR0,#18              ; [CPU_] |302| 
    1992 000000fe 8891          MOVZ      AR6,*+XAR1[AR0]       ; [CPU_] |302| 
    1993 000000ff 92A6          MOV       AL,AR6                ; [CPU_] |302| 
    1994 00000100 5208          CMPB      AL,#8                 ; [CPU_] |302| 
    1995                      .dwpsn  file "D:/BM1000/sw/drivers/drvic/modbus/mb.c",line 308,column 11,is_stmt
    1996 00000101 56B7          MOVB      XAR0,#26,HIS          ; [CPU_] |308| 
         00000102 1AA0 
    1997 00000103 56B7          MOVB      *+XAR1[AR0],#3,HIS    ; [CPU_] |308| 
         00000104 0391 
    1998 00000105 6714          B         $C$L18,HIS            ; [CPU_] |308| 
TMS320C2000 Assembler PC v6.2.5 Fri Sep 29 09:29:33 2017

Tools Copyright (c) 1996-2014 Texas Instruments Incorporated
C:\Users\wmj\AppData\Local\Temp\1142410                              PAGE   38

    1999                      ; branchcc occurs ; [] |308| 
    2000                      .dwpsn  file "D:/BM1000/sw/drivers/drvic/modbus/mb.c",line 304,column 11,is_stmt
    2001 00000106 8AA1          MOVL      XAR4,XAR1             ; [CPU_] |304| 
    2002 00000107 B2A9          MOVL      ACC,XAR1              ; [CPU_] |304| 
    2003 00000108 0DA6          ADDU      ACC,AR6               ; [CPU_] |304| 
    2004 00000109 DC12          ADDB      XAR4,#18              ; [CPU_] |304| 
    2005 0000010a 0AC4          INC       *+XAR4[0]             ; [CPU_] |304| 
    2006 0000010b 8841          MOVZ      AR6,*-SP[1]           ; [CPU_] |304| 
    2007 0000010c D00A          MOVB      XAR0,#10              ; [CPU_] |304| 
    2008 0000010d 8AA9          MOVL      XAR4,ACC              ; [CPU_] |304| 
    2009 0000010e 7E94          MOV       *+XAR4[AR0],AR6       ; [CPU_] |304| 
    2010                      .dwpsn  file "D:/BM1000/sw/drivers/drvic/modbus/mb.c",line 290,column 56,is_stmt
    2011 0000010f 6F0A          B         $C$L18,UNC            ; [CPU_] |290| 
    2012                      ; branch occurs ; [] |290| 
    2013 00000110       $C$L17:    
    2014                      .dwpsn  file "D:/BM1000/sw/drivers/drvic/modbus/mb.c",line 295,column 6,is_stmt
    2015 00000110 D012          MOVB      XAR0,#18              ; [CPU_] |295| 
    2016 00000111 56BF          MOVB      *+XAR1[AR0],#1,UNC    ; [CPU_] |295| 
         00000112 0191 
    2017 00000113 9241          MOV       AL,*-SP[1]            ; [CPU_] |295| 
    2018 00000114 D00A          MOVB      XAR0,#10              ; [CPU_] |295| 
    2019 00000115 9691          MOV       *+XAR1[AR0],AL        ; [CPU_] |295| 
    2020                      .dwpsn  file "D:/BM1000/sw/drivers/drvic/modbus/mb.c",line 296,column 9,is_stmt
    2021 00000116 D01A          MOVB      XAR0,#26              ; [CPU_] |296| 
    2022 00000117 56BF          MOVB      *+XAR1[AR0],#2,UNC    ; [CPU_] |296| 
         00000118 0291 
    2023 00000119       $C$L18:    
    2024                      .dwpsn  file "D:/BM1000/sw/drivers/drvic/modbus/mb.c",line 298,column 9,is_stmt
    2025 00000119 8AA1          MOVL      XAR4,XAR1             ; [CPU_] |298| 
    2026              $C$DW$126       .dwtag  DW_TAG_TI_branch
    2027                      .dwattr $C$DW$126, DW_AT_low_pc(0x00)
    2028                      .dwattr $C$DW$126, DW_AT_name("_MB_PortTimersEnable")
    2029                      .dwattr $C$DW$126, DW_AT_TI_call
    2030 0000011a 7640'         LCR       #_MB_PortTimersEnable ; [CPU_] |298| 
         0000011b 00DF 
    2031                      ; call occurs [#_MB_PortTimersEnable] ; [] |298| 
    2032 0000011c       $C$L19:    
    2033 0000011c FE82          SUBB      SP,#2                 ; [CPU_U] 
    2034                      .dwcfi  cfa_offset, -4
    2035 0000011d 8BBE          MOVL      XAR1,*--SP            ; [CPU_] 
    2036                      .dwcfi  cfa_offset, -2
    2037                      .dwcfi  restore_reg, 7
    2038              $C$DW$127       .dwtag  DW_TAG_TI_branch
    2039                      .dwattr $C$DW$127, DW_AT_low_pc(0x00)
    2040                      .dwattr $C$DW$127, DW_AT_TI_return
    2041 0000011e 0006          LRETR     ; [CPU_] 
    2042                      ; return occurs ; [] 
    2043                      .dwattr $C$DW$121, DW_AT_TI_end_file("D:/BM1000/sw/drivers/drvic/modbus/mb.c")
    2044                      .dwattr $C$DW$121, DW_AT_TI_end_line(0x13b)
    2045                      .dwattr $C$DW$121, DW_AT_TI_end_column(0x01)
    2046                      .dwendentry
    2047                      .dwendtag $C$DW$121
    2048              
    2049 0000011f               .sect   ".text"
    2050                      .clink
TMS320C2000 Assembler PC v6.2.5 Fri Sep 29 09:29:33 2017

Tools Copyright (c) 1996-2014 Texas Instruments Incorporated
C:\Users\wmj\AppData\Local\Temp\1142410                              PAGE   39

    2051                      .global _MB_RTUReceive
    2052              
    2053              $C$DW$128       .dwtag  DW_TAG_subprogram, DW_AT_name("MB_RTUReceive")
    2054                      .dwattr $C$DW$128, DW_AT_low_pc(_MB_RTUReceive)
    2055                      .dwattr $C$DW$128, DW_AT_high_pc(0x00)
    2056                      .dwattr $C$DW$128, DW_AT_TI_symbol_name("_MB_RTUReceive")
    2057                      .dwattr $C$DW$128, DW_AT_external
    2058                      .dwattr $C$DW$128, DW_AT_type(*$C$DW$T$157)
    2059                      .dwattr $C$DW$128, DW_AT_TI_begin_file("D:/BM1000/sw/drivers/drvic/modbus/mb.c")
    2060                      .dwattr $C$DW$128, DW_AT_TI_begin_line(0x13d)
    2061                      .dwattr $C$DW$128, DW_AT_TI_begin_column(0x0e)
    2062                      .dwattr $C$DW$128, DW_AT_TI_max_frame_size(-4)
    2063                      .dwpsn  file "D:/BM1000/sw/drivers/drvic/modbus/mb.c",line 318,column 1,is_stmt,address _MB_RTUReceiv
    2064              
    2065                      .dwfde $C$DW$CIE, _MB_RTUReceive
    2066              $C$DW$129       .dwtag  DW_TAG_formal_parameter, DW_AT_name("handle")
    2067                      .dwattr $C$DW$129, DW_AT_TI_symbol_name("_handle")
    2068                      .dwattr $C$DW$129, DW_AT_type(*$C$DW$T$219)
    2069                      .dwattr $C$DW$129, DW_AT_location[DW_OP_reg12]
    2070              
    2071              ;***************************************************************
    2072              ;* FNAME: _MB_RTUReceive                FR SIZE:   2           *
    2073              ;*                                                             *
    2074              ;* FUNCTION ENVIRONMENT                                        *
    2075              ;*                                                             *
    2076              ;* FUNCTION PROPERTIES                                         *
    2077              ;*                            0 Parameter,  0 Auto,  2 SOE     *
    2078              ;***************************************************************
    2079              
    2080              _MB_RTUReceive:
    2081              ;* AL    assigned to $O$C1
    2082              ;* AL    assigned to _eStatus
    2083              $C$DW$130       .dwtag  DW_TAG_variable, DW_AT_name("eStatus")
    2084                      .dwattr $C$DW$130, DW_AT_TI_symbol_name("_eStatus")
    2085                      .dwattr $C$DW$130, DW_AT_type(*$C$DW$T$157)
    2086                      .dwattr $C$DW$130, DW_AT_location[DW_OP_reg0]
    2087              ;* AR1   assigned to _handle
    2088              $C$DW$131       .dwtag  DW_TAG_variable, DW_AT_name("handle")
    2089                      .dwattr $C$DW$131, DW_AT_TI_symbol_name("_handle")
    2090                      .dwattr $C$DW$131, DW_AT_type(*$C$DW$T$234)
    2091                      .dwattr $C$DW$131, DW_AT_location[DW_OP_reg6]
    2092              ;* XT    assigned to $O$K7
    2093                      .dwcfi  cfa_offset, -2
    2094                      .dwcfi  save_reg_to_mem, 26, 0
    2095                      .dwcfi  save_reg_to_reg, 78, 26
    2096 0000011f B2BD          MOVL      *SP++,XAR1            ; [CPU_] 
    2097                      .dwcfi  save_reg_to_mem, 7, 2
    2098                      .dwcfi  cfa_offset, -4
    2099                      .dwpsn  file "D:/BM1000/sw/drivers/drvic/modbus/mb.c",line 324,column 5,is_stmt
    2100 00000120 D012          MOVB      XAR0,#18              ; [CPU_] |324| 
    2101                      .dwpsn  file "D:/BM1000/sw/drivers/drvic/modbus/mb.c",line 318,column 1,is_stmt
    2102 00000121 8BA4          MOVL      XAR1,XAR4             ; [CPU_] |318| 
    2103                      .dwpsn  file "D:/BM1000/sw/drivers/drvic/modbus/mb.c",line 324,column 5,is_stmt
    2104 00000122 9291          MOV       AL,*+XAR1[AR0]        ; [CPU_] |324| 
    2105 00000123 5208          CMPB      AL,#8                 ; [CPU_] |324| 
TMS320C2000 Assembler PC v6.2.5 Fri Sep 29 09:29:33 2017

Tools Copyright (c) 1996-2014 Texas Instruments Incorporated
C:\Users\wmj\AppData\Local\Temp\1142410                              PAGE   40

    2106 00000124 ED0B          BF        $C$L20,NEQ            ; [CPU_] |324| 
    2107                      ; branchcc occurs ; [] |324| 
    2108 00000125 DC0A          ADDB      XAR4,#10              ; [CPU_] |324| 
    2109 00000126 A8AC          MOVL      XT,XAR4               ; [CPU_] |324| 
    2110              $C$DW$132       .dwtag  DW_TAG_TI_branch
    2111                      .dwattr $C$DW$132, DW_AT_low_pc(0x00)
    2112                      .dwattr $C$DW$132, DW_AT_name("_MB_CRC16")
    2113                      .dwattr $C$DW$132, DW_AT_TI_call
    2114 00000127 7640'         LCR       #_MB_CRC16            ; [CPU_] |324| 
         00000128 006E 
    2115                      ; call occurs [#_MB_CRC16] ; [] |324| 
    2116 00000129 5200          CMPB      AL,#0                 ; [CPU_] |324| 
    2117 0000012a ED05          BF        $C$L20,NEQ            ; [CPU_] |324| 
    2118                      ; branchcc occurs ; [] |324| 
    2119                      .dwpsn  file "D:/BM1000/sw/drivers/drvic/modbus/mb.c",line 327,column 9,is_stmt
    2120 0000012b D008          MOVB      XAR0,#8               ; [CPU_] |327| 
    2121                      .dwpsn  file "D:/BM1000/sw/drivers/drvic/modbus/mb.c",line 321,column 29,is_stmt
    2122 0000012c 9A00          MOVB      AL,#0                 ; [CPU_] |321| 
    2123                      .dwpsn  file "D:/BM1000/sw/drivers/drvic/modbus/mb.c",line 327,column 9,is_stmt
    2124 0000012d AB91          MOVL      *+XAR1[AR0],XT        ; [CPU_] |327| 
    2125                      .dwpsn  file "D:/BM1000/sw/drivers/drvic/modbus/mb.c",line 328,column 5,is_stmt
    2126 0000012e 6F02          B         $C$L21,UNC            ; [CPU_] |328| 
    2127                      ; branch occurs ; [] |328| 
    2128 0000012f       $C$L20:    
    2129                      .dwpsn  file "D:/BM1000/sw/drivers/drvic/modbus/mb.c",line 331,column 9,is_stmt
    2130 0000012f 9A05          MOVB      AL,#5                 ; [CPU_] |331| 
    2131 00000130       $C$L21:    
    2132 00000130 8BBE          MOVL      XAR1,*--SP            ; [CPU_] 
    2133                      .dwcfi  cfa_offset, -2
    2134                      .dwcfi  restore_reg, 7
    2135              $C$DW$133       .dwtag  DW_TAG_TI_branch
    2136                      .dwattr $C$DW$133, DW_AT_low_pc(0x00)
    2137                      .dwattr $C$DW$133, DW_AT_TI_return
    2138 00000131 0006          LRETR     ; [CPU_] 
    2139                      ; return occurs ; [] 
    2140                      .dwattr $C$DW$128, DW_AT_TI_end_file("D:/BM1000/sw/drivers/drvic/modbus/mb.c")
    2141                      .dwattr $C$DW$128, DW_AT_TI_end_line(0x14f)
    2142                      .dwattr $C$DW$128, DW_AT_TI_end_column(0x01)
    2143                      .dwendentry
    2144                      .dwendtag $C$DW$128
    2145              
    2146 00000132               .sect   ".text"
    2147                      .clink
    2148                      .global _MB_PortEventInit
    2149              
    2150              $C$DW$134       .dwtag  DW_TAG_subprogram, DW_AT_name("MB_PortEventInit")
    2151                      .dwattr $C$DW$134, DW_AT_low_pc(_MB_PortEventInit)
    2152                      .dwattr $C$DW$134, DW_AT_high_pc(0x00)
    2153                      .dwattr $C$DW$134, DW_AT_TI_symbol_name("_MB_PortEventInit")
    2154                      .dwattr $C$DW$134, DW_AT_external
    2155                      .dwattr $C$DW$134, DW_AT_TI_begin_file("D:/BM1000/sw/drivers/drvic/modbus/mb.c")
    2156                      .dwattr $C$DW$134, DW_AT_TI_begin_line(0xc3)
    2157                      .dwattr $C$DW$134, DW_AT_TI_begin_column(0x06)
    2158                      .dwattr $C$DW$134, DW_AT_TI_max_frame_size(-2)
    2159                      .dwpsn  file "D:/BM1000/sw/drivers/drvic/modbus/mb.c",line 196,column 1,is_stmt,address _MB_PortEvent
TMS320C2000 Assembler PC v6.2.5 Fri Sep 29 09:29:33 2017

Tools Copyright (c) 1996-2014 Texas Instruments Incorporated
C:\Users\wmj\AppData\Local\Temp\1142410                              PAGE   41

    2160              
    2161                      .dwfde $C$DW$CIE, _MB_PortEventInit
    2162              $C$DW$135       .dwtag  DW_TAG_formal_parameter, DW_AT_name("handle")
    2163                      .dwattr $C$DW$135, DW_AT_TI_symbol_name("_handle")
    2164                      .dwattr $C$DW$135, DW_AT_type(*$C$DW$T$219)
    2165                      .dwattr $C$DW$135, DW_AT_location[DW_OP_reg12]
    2166              
    2167              ;***************************************************************
    2168              ;* FNAME: _MB_PortEventInit             FR SIZE:   0           *
    2169              ;*                                                             *
    2170              ;* FUNCTION ENVIRONMENT                                        *
    2171              ;*                                                             *
    2172              ;* FUNCTION PROPERTIES                                         *
    2173              ;*                            0 Parameter,  0 Auto,  0 SOE     *
    2174              ;***************************************************************
    2175              
    2176              _MB_PortEventInit:
    2177              ;* AR4   assigned to _handle
    2178              $C$DW$136       .dwtag  DW_TAG_variable, DW_AT_name("handle")
    2179                      .dwattr $C$DW$136, DW_AT_TI_symbol_name("_handle")
    2180                      .dwattr $C$DW$136, DW_AT_type(*$C$DW$T$234)
    2181                      .dwattr $C$DW$136, DW_AT_location[DW_OP_reg12]
    2182                      .dwcfi  cfa_offset, -2
    2183                      .dwcfi  save_reg_to_mem, 26, 0
    2184                      .dwcfi  save_reg_to_reg, 78, 26
    2185                      .dwpsn  file "D:/BM1000/sw/drivers/drvic/modbus/mb.c",line 199,column 5,is_stmt
    2186 00000132 D01B          MOVB      XAR0,#27              ; [CPU_] |199| 
    2187 00000133 2B94          MOV       *+XAR4[AR0],#0        ; [CPU_] |199| 
    2188              $C$DW$137       .dwtag  DW_TAG_TI_branch
    2189                      .dwattr $C$DW$137, DW_AT_low_pc(0x00)
    2190                      .dwattr $C$DW$137, DW_AT_TI_return
    2191 00000134 0006          LRETR     ; [CPU_] 
    2192                      ; return occurs ; [] 
    2193                      .dwattr $C$DW$134, DW_AT_TI_end_file("D:/BM1000/sw/drivers/drvic/modbus/mb.c")
    2194                      .dwattr $C$DW$134, DW_AT_TI_end_line(0xca)
    2195                      .dwattr $C$DW$134, DW_AT_TI_end_column(0x01)
    2196                      .dwendentry
    2197                      .dwendtag $C$DW$134
    2198              
    2199 00000135               .sect   ".text"
    2200                      .clink
    2201                      .global _MB_PortEventGet
    2202              
    2203              $C$DW$138       .dwtag  DW_TAG_subprogram, DW_AT_name("MB_PortEventGet")
    2204                      .dwattr $C$DW$138, DW_AT_low_pc(_MB_PortEventGet)
    2205                      .dwattr $C$DW$138, DW_AT_high_pc(0x00)
    2206                      .dwattr $C$DW$138, DW_AT_TI_symbol_name("_MB_PortEventGet")
    2207                      .dwattr $C$DW$138, DW_AT_external
    2208                      .dwattr $C$DW$138, DW_AT_type(*$C$DW$T$34)
    2209                      .dwattr $C$DW$138, DW_AT_TI_begin_file("D:/BM1000/sw/drivers/drvic/modbus/mb.c")
    2210                      .dwattr $C$DW$138, DW_AT_TI_begin_line(0xd4)
    2211                      .dwattr $C$DW$138, DW_AT_TI_begin_column(0x06)
    2212                      .dwattr $C$DW$138, DW_AT_TI_max_frame_size(-2)
    2213                      .dwpsn  file "D:/BM1000/sw/drivers/drvic/modbus/mb.c",line 213,column 1,is_stmt,address _MB_PortEvent
    2214              
TMS320C2000 Assembler PC v6.2.5 Fri Sep 29 09:29:33 2017

Tools Copyright (c) 1996-2014 Texas Instruments Incorporated
C:\Users\wmj\AppData\Local\Temp\1142410                              PAGE   42

    2215                      .dwfde $C$DW$CIE, _MB_PortEventGet
    2216              $C$DW$139       .dwtag  DW_TAG_formal_parameter, DW_AT_name("handle")
    2217                      .dwattr $C$DW$139, DW_AT_TI_symbol_name("_handle")
    2218                      .dwattr $C$DW$139, DW_AT_type(*$C$DW$T$219)
    2219                      .dwattr $C$DW$139, DW_AT_location[DW_OP_reg12]
    2220              $C$DW$140       .dwtag  DW_TAG_formal_parameter, DW_AT_name("eEvent")
    2221                      .dwattr $C$DW$140, DW_AT_TI_symbol_name("_eEvent")
    2222                      .dwattr $C$DW$140, DW_AT_type(*$C$DW$T$225)
    2223                      .dwattr $C$DW$140, DW_AT_location[DW_OP_reg14]
    2224              
    2225              ;***************************************************************
    2226              ;* FNAME: _MB_PortEventGet              FR SIZE:   0           *
    2227              ;*                                                             *
    2228              ;* FUNCTION ENVIRONMENT                                        *
    2229              ;*                                                             *
    2230              ;* FUNCTION PROPERTIES                                         *
    2231              ;*                            0 Parameter,  0 Auto,  0 SOE     *
    2232              ;***************************************************************
    2233              
    2234              _MB_PortEventGet:
    2235              ;* AL    assigned to _xEventHappened
    2236              $C$DW$141       .dwtag  DW_TAG_variable, DW_AT_name("xEventHappened")
    2237                      .dwattr $C$DW$141, DW_AT_TI_symbol_name("_xEventHappened")
    2238                      .dwattr $C$DW$141, DW_AT_type(*$C$DW$T$34)
    2239                      .dwattr $C$DW$141, DW_AT_location[DW_OP_reg0]
    2240              ;* AR5   assigned to _eEvent
    2241              $C$DW$142       .dwtag  DW_TAG_variable, DW_AT_name("eEvent")
    2242                      .dwattr $C$DW$142, DW_AT_TI_symbol_name("_eEvent")
    2243                      .dwattr $C$DW$142, DW_AT_type(*$C$DW$T$226)
    2244                      .dwattr $C$DW$142, DW_AT_location[DW_OP_reg14]
    2245              ;* AR4   assigned to _handle
    2246              $C$DW$143       .dwtag  DW_TAG_variable, DW_AT_name("handle")
    2247                      .dwattr $C$DW$143, DW_AT_TI_symbol_name("_handle")
    2248                      .dwattr $C$DW$143, DW_AT_type(*$C$DW$T$234)
    2249                      .dwattr $C$DW$143, DW_AT_location[DW_OP_reg12]
    2250                      .dwcfi  cfa_offset, -2
    2251                      .dwcfi  save_reg_to_mem, 26, 0
    2252                      .dwcfi  save_reg_to_reg, 78, 26
    2253                      .dwpsn  file "D:/BM1000/sw/drivers/drvic/modbus/mb.c",line 217,column 5,is_stmt
    2254 00000135 D01B          MOVB      XAR0,#27              ; [CPU_] |217| 
    2255 00000136 9294          MOV       AL,*+XAR4[AR0]        ; [CPU_] |217| 
    2256 00000137 ED03          BF        $C$L22,NEQ            ; [CPU_] |217| 
    2257                      ; branchcc occurs ; [] |217| 
    2258                      .dwpsn  file "D:/BM1000/sw/drivers/drvic/modbus/mb.c",line 215,column 26,is_stmt
    2259 00000138 9A00          MOVB      AL,#0                 ; [CPU_] |215| 
    2260              $C$DW$144       .dwtag  DW_TAG_TI_branch
    2261                      .dwattr $C$DW$144, DW_AT_low_pc(0x00)
    2262                      .dwattr $C$DW$144, DW_AT_TI_return
    2263 00000139 0006          LRETR     ; [CPU_] 
    2264                      ; return occurs ; [] 
    2265 0000013a       $C$L22:    
    2266                      .dwpsn  file "D:/BM1000/sw/drivers/drvic/modbus/mb.c",line 219,column 9,is_stmt
    2267 0000013a C5A4          MOVL      XAR7,XAR4             ; [CPU_] |219| 
    2268 0000013b DF1C          ADDB      XAR7,#28              ; [CPU_] |219| 
    2269 0000013c 92C7          MOV       AL,*XAR7              ; [CPU_] |219| 
TMS320C2000 Assembler PC v6.2.5 Fri Sep 29 09:29:33 2017

Tools Copyright (c) 1996-2014 Texas Instruments Incorporated
C:\Users\wmj\AppData\Local\Temp\1142410                              PAGE   43

    2270 0000013d 96C5          MOV       *+XAR5[0],AL          ; [CPU_] |219| 
    2271                      .dwpsn  file "D:/BM1000/sw/drivers/drvic/modbus/mb.c",line 221,column 9,is_stmt
    2272 0000013e 9A01          MOVB      AL,#1                 ; [CPU_] |221| 
    2273                      .dwpsn  file "D:/BM1000/sw/drivers/drvic/modbus/mb.c",line 220,column 9,is_stmt
    2274 0000013f D01B          MOVB      XAR0,#27              ; [CPU_] |220| 
    2275 00000140 2B94          MOV       *+XAR4[AR0],#0        ; [CPU_] |220| 
    2276              $C$DW$145       .dwtag  DW_TAG_TI_branch
    2277                      .dwattr $C$DW$145, DW_AT_low_pc(0x00)
    2278                      .dwattr $C$DW$145, DW_AT_TI_return
    2279 00000141 0006          LRETR     ; [CPU_] 
    2280                      ; return occurs ; [] 
    2281                      .dwattr $C$DW$138, DW_AT_TI_end_file("D:/BM1000/sw/drivers/drvic/modbus/mb.c")
    2282                      .dwattr $C$DW$138, DW_AT_TI_end_line(0xe1)
    2283                      .dwattr $C$DW$138, DW_AT_TI_end_column(0x01)
    2284                      .dwendentry
    2285                      .dwendtag $C$DW$138
    2286              
    2287 00000142               .sect   ".text"
    2288                      .clink
    2289                      .global _MB_FuncWriteHoldingRegister
    2290              
    2291              $C$DW$146       .dwtag  DW_TAG_subprogram, DW_AT_name("MB_FuncWriteHoldingRegister")
    2292                      .dwattr $C$DW$146, DW_AT_low_pc(_MB_FuncWriteHoldingRegister)
    2293                      .dwattr $C$DW$146, DW_AT_high_pc(0x00)
    2294                      .dwattr $C$DW$146, DW_AT_TI_symbol_name("_MB_FuncWriteHoldingRegister")
    2295                      .dwattr $C$DW$146, DW_AT_external
    2296                      .dwattr $C$DW$146, DW_AT_TI_begin_file("D:/BM1000/sw/drivers/drvic/modbus/mb.c")
    2297                      .dwattr $C$DW$146, DW_AT_TI_begin_line(0x1e3)
    2298                      .dwattr $C$DW$146, DW_AT_TI_begin_column(0x06)
    2299                      .dwattr $C$DW$146, DW_AT_TI_max_frame_size(-2)
    2300                      .dwpsn  file "D:/BM1000/sw/drivers/drvic/modbus/mb.c",line 484,column 1,is_stmt,address _MB_FuncWrite
    2301              
    2302                      .dwfde $C$DW$CIE, _MB_FuncWriteHoldingRegister
    2303              $C$DW$147       .dwtag  DW_TAG_formal_parameter, DW_AT_name("handle")
    2304                      .dwattr $C$DW$147, DW_AT_TI_symbol_name("_handle")
    2305                      .dwattr $C$DW$147, DW_AT_type(*$C$DW$T$219)
    2306                      .dwattr $C$DW$147, DW_AT_location[DW_OP_reg12]
    2307              
    2308              ;***************************************************************
    2309              ;* FNAME: _MB_FuncWriteHoldingRegister  FR SIZE:   0           *
    2310              ;*                                                             *
    2311              ;* FUNCTION ENVIRONMENT                                        *
    2312              ;*                                                             *
    2313              ;* FUNCTION PROPERTIES                                         *
    2314              ;*                            0 Parameter,  0 Auto,  0 SOE     *
    2315              ;***************************************************************
    2316              
    2317              _MB_FuncWriteHoldingRegister:
    2318              ;* AR5   assigned to $O$C1
    2319              ;* AR6   assigned to $O$C2
    2320              ;* AR5   assigned to $O$C3
    2321              ;* AL    assigned to _RegData
    2322              $C$DW$148       .dwtag  DW_TAG_variable, DW_AT_name("RegData")
    2323                      .dwattr $C$DW$148, DW_AT_TI_symbol_name("_RegData")
    2324                      .dwattr $C$DW$148, DW_AT_type(*$C$DW$T$23)
TMS320C2000 Assembler PC v6.2.5 Fri Sep 29 09:29:33 2017

Tools Copyright (c) 1996-2014 Texas Instruments Incorporated
C:\Users\wmj\AppData\Local\Temp\1142410                              PAGE   44

    2325                      .dwattr $C$DW$148, DW_AT_location[DW_OP_reg0]
    2326              ;* AR7   assigned to _RegAddress
    2327              $C$DW$149       .dwtag  DW_TAG_variable, DW_AT_name("RegAddress")
    2328                      .dwattr $C$DW$149, DW_AT_TI_symbol_name("_RegAddress")
    2329                      .dwattr $C$DW$149, DW_AT_type(*$C$DW$T$23)
    2330                      .dwattr $C$DW$149, DW_AT_location[DW_OP_reg18]
    2331              ;* AR4   assigned to _handle
    2332              $C$DW$150       .dwtag  DW_TAG_variable, DW_AT_name("handle")
    2333                      .dwattr $C$DW$150, DW_AT_TI_symbol_name("_handle")
    2334                      .dwattr $C$DW$150, DW_AT_type(*$C$DW$T$234)
    2335                      .dwattr $C$DW$150, DW_AT_location[DW_OP_reg12]
    2336                      .dwcfi  cfa_offset, -2
    2337                      .dwcfi  save_reg_to_mem, 26, 0
    2338                      .dwcfi  save_reg_to_reg, 78, 26
    2339                      .dwpsn  file "D:/BM1000/sw/drivers/drvic/modbus/mb.c",line 490,column 3,is_stmt
    2340 00000142 D008          MOVB      XAR0,#8               ; [CPU_] |490| 
    2341 00000143 C494          MOVL      XAR6,*+XAR4[AR0]      ; [CPU_] |490| 
    2342 00000144 83A6          MOVL      XAR5,XAR6             ; [CPU_] |490| 
    2343 00000145 DD02          ADDB      XAR5,#2               ; [CPU_] |490| 
    2344 00000146 80C5          MOVZ      AR7,*+XAR5[0]         ; [CPU_] |490| 
    2345                      .dwpsn  file "D:/BM1000/sw/drivers/drvic/modbus/mb.c",line 491,column 3,is_stmt
    2346 00000147 5603          MOV       ACC,AR7 << #8         ; [CPU_] |491| 
         00000148 08A7 
    2347 00000149 CACD          OR        AL,*+XAR5[1]          ; [CPU_] |491| 
    2348                      .dwpsn  file "D:/BM1000/sw/drivers/drvic/modbus/mb.c",line 494,column 3,is_stmt
    2349 0000014a 83A6          MOVL      XAR5,XAR6             ; [CPU_] |494| 
    2350                      .dwpsn  file "D:/BM1000/sw/drivers/drvic/modbus/mb.c",line 491,column 3,is_stmt
    2351 0000014b 80A9          MOVZ      AR7,AL                ; [CPU_] |491| 
    2352                      .dwpsn  file "D:/BM1000/sw/drivers/drvic/modbus/mb.c",line 494,column 3,is_stmt
    2353 0000014c DD04          ADDB      XAR5,#4               ; [CPU_] |494| 
    2354 0000014d 92C5          MOV       AL,*+XAR5[0]          ; [CPU_] |494| 
    2355                      .dwpsn  file "D:/BM1000/sw/drivers/drvic/modbus/mb.c",line 495,column 3,is_stmt
    2356 0000014e 5603          MOV       ACC,AL << #8          ; [CPU_] |495| 
         0000014f 08A9 
    2357 00000150 CACD          OR        AL,*+XAR5[1]          ; [CPU_] |495| 
    2358                      .dwpsn  file "D:/BM1000/sw/drivers/drvic/modbus/mb.c",line 498,column 3,is_stmt
    2359 00000151 93A7          MOV       AH,AR7                ; [CPU_] |498| 
    2360 00000152 EC08          BF        $C$L23,EQ             ; [CPU_] |498| 
    2361                      ; branchcc occurs ; [] |498| 
    2362 00000153 5302          CMPB      AH,#2                 ; [CPU_] |498| 
    2363 00000154 ED0A          BF        $C$L24,NEQ            ; [CPU_] |498| 
    2364                      ; branchcc occurs ; [] |498| 
    2365                      .dwpsn  file "D:/BM1000/sw/drivers/drvic/process_ctrl.h",line 131,column 4,is_stmt
    2366 00000155 8AF4          MOVL      XAR4,*+XAR4[6]        ; [CPU_] |131| 
    2367 00000156 D032          MOVB      XAR0,#50              ; [CPU_] |131| 
    2368 00000157 0EA9          MOVU      ACC,AL                ; [CPU_] |131| 
    2369 00000158 1E94          MOVL      *+XAR4[AR0],ACC       ; [CPU_] |131| 
    2370              $C$DW$151       .dwtag  DW_TAG_TI_branch
    2371                      .dwattr $C$DW$151, DW_AT_low_pc(0x00)
    2372                      .dwattr $C$DW$151, DW_AT_TI_return
    2373 00000159 0006          LRETR     ; [CPU_] 
    2374                      ; return occurs ; [] 
    2375 0000015a       $C$L23:    
    2376                      .dwpsn  file "D:/BM1000/sw/drivers/drvic/process_ctrl.h",line 105,column 3,is_stmt
    2377 0000015a 8AF4          MOVL      XAR4,*+XAR4[6]        ; [CPU_] |105| 
TMS320C2000 Assembler PC v6.2.5 Fri Sep 29 09:29:33 2017

Tools Copyright (c) 1996-2014 Texas Instruments Incorporated
C:\Users\wmj\AppData\Local\Temp\1142410                              PAGE   45

    2378 0000015b 9001          ANDB      AL,#1                 ; [CPU_] |105| 
    2379 0000015c D018          MOVB      XAR0,#24              ; [CPU_] |105| 
    2380 0000015d 9694          MOV       *+XAR4[AR0],AL        ; [CPU_] |105| 
    2381              $C$L24:    
    2382              $C$DW$152       .dwtag  DW_TAG_TI_branch
    2383                      .dwattr $C$DW$152, DW_AT_low_pc(0x00)
    2384                      .dwattr $C$DW$152, DW_AT_TI_return
    2385 0000015e 0006          LRETR     ; [CPU_] 
    2386                      ; return occurs ; [] 
    2387                      .dwattr $C$DW$146, DW_AT_TI_end_file("D:/BM1000/sw/drivers/drvic/modbus/mb.c")
    2388                      .dwattr $C$DW$146, DW_AT_TI_end_line(0x1fe)
    2389                      .dwattr $C$DW$146, DW_AT_TI_end_column(0x01)
    2390                      .dwendentry
    2391                      .dwendtag $C$DW$146
    2392              
    2393 0000015f               .sect   ".text"
    2394                      .clink
    2395                      .global _MB_FuncReadHoldingRegister
    2396              
    2397              $C$DW$153       .dwtag  DW_TAG_subprogram, DW_AT_name("MB_FuncReadHoldingRegister")
    2398                      .dwattr $C$DW$153, DW_AT_low_pc(_MB_FuncReadHoldingRegister)
    2399                      .dwattr $C$DW$153, DW_AT_high_pc(0x00)
    2400                      .dwattr $C$DW$153, DW_AT_TI_symbol_name("_MB_FuncReadHoldingRegister")
    2401                      .dwattr $C$DW$153, DW_AT_external
    2402                      .dwattr $C$DW$153, DW_AT_TI_begin_file("D:/BM1000/sw/drivers/drvic/modbus/mb.c")
    2403                      .dwattr $C$DW$153, DW_AT_TI_begin_line(0x1c4)
    2404                      .dwattr $C$DW$153, DW_AT_TI_begin_column(0x06)
    2405                      .dwattr $C$DW$153, DW_AT_TI_max_frame_size(-2)
    2406                      .dwpsn  file "D:/BM1000/sw/drivers/drvic/modbus/mb.c",line 453,column 1,is_stmt,address _MB_FuncReadH
    2407              
    2408                      .dwfde $C$DW$CIE, _MB_FuncReadHoldingRegister
    2409              $C$DW$154       .dwtag  DW_TAG_formal_parameter, DW_AT_name("handle")
    2410                      .dwattr $C$DW$154, DW_AT_TI_symbol_name("_handle")
    2411                      .dwattr $C$DW$154, DW_AT_type(*$C$DW$T$219)
    2412                      .dwattr $C$DW$154, DW_AT_location[DW_OP_reg12]
    2413              
    2414              ;***************************************************************
    2415              ;* FNAME: _MB_FuncReadHoldingRegister   FR SIZE:   0           *
    2416              ;*                                                             *
    2417              ;* FUNCTION ENVIRONMENT                                        *
    2418              ;*                                                             *
    2419              ;* FUNCTION PROPERTIES                                         *
    2420              ;*                            0 Parameter,  0 Auto,  0 SOE     *
    2421              ;***************************************************************
    2422              
    2423              _MB_FuncReadHoldingRegister:
    2424              ;* AR6   assigned to $O$C1
    2425              ;* AR5   assigned to $O$C2
    2426              ;* AL    assigned to _RegData
    2427              $C$DW$155       .dwtag  DW_TAG_variable, DW_AT_name("RegData")
    2428                      .dwattr $C$DW$155, DW_AT_TI_symbol_name("_RegData")
    2429                      .dwattr $C$DW$155, DW_AT_type(*$C$DW$T$23)
    2430                      .dwattr $C$DW$155, DW_AT_location[DW_OP_reg0]
    2431              ;* AL    assigned to _RegAddress
    2432              $C$DW$156       .dwtag  DW_TAG_variable, DW_AT_name("RegAddress")
TMS320C2000 Assembler PC v6.2.5 Fri Sep 29 09:29:33 2017

Tools Copyright (c) 1996-2014 Texas Instruments Incorporated
C:\Users\wmj\AppData\Local\Temp\1142410                              PAGE   46

    2433                      .dwattr $C$DW$156, DW_AT_TI_symbol_name("_RegAddress")
    2434                      .dwattr $C$DW$156, DW_AT_type(*$C$DW$T$23)
    2435                      .dwattr $C$DW$156, DW_AT_location[DW_OP_reg0]
    2436              ;* AR4   assigned to _handle
    2437              $C$DW$157       .dwtag  DW_TAG_variable, DW_AT_name("handle")
    2438                      .dwattr $C$DW$157, DW_AT_TI_symbol_name("_handle")
    2439                      .dwattr $C$DW$157, DW_AT_type(*$C$DW$T$234)
    2440                      .dwattr $C$DW$157, DW_AT_location[DW_OP_reg12]
    2441              ;* AR5   assigned to $O$U2
    2442                      .dwcfi  cfa_offset, -2
    2443                      .dwcfi  save_reg_to_mem, 26, 0
    2444                      .dwcfi  save_reg_to_reg, 78, 26
    2445                      .dwpsn  file "D:/BM1000/sw/drivers/drvic/modbus/mb.c",line 459,column 3,is_stmt
    2446 0000015f D008          MOVB      XAR0,#8               ; [CPU_] |459| 
    2447 00000160 8394          MOVL      XAR5,*+XAR4[AR0]      ; [CPU_] |459| 
    2448 00000161 C4A5          MOVL      XAR6,XAR5             ; [CPU_] |459| 
    2449 00000162 DE02          ADDB      XAR6,#2               ; [CPU_] |459| 
    2450 00000163 92C6          MOV       AL,*+XAR6[0]          ; [CPU_] |459| 
    2451                      .dwpsn  file "D:/BM1000/sw/drivers/drvic/modbus/mb.c",line 460,column 3,is_stmt
    2452 00000164 5603          MOV       ACC,AL << #8          ; [CPU_] |460| 
         00000165 08A9 
    2453 00000166 CACE          OR        AL,*+XAR6[1]          ; [CPU_] |460| 
    2454                      .dwpsn  file "D:/BM1000/sw/drivers/drvic/modbus/mb.c",line 463,column 3,is_stmt
    2455 00000167 EC10          BF        $C$L28,EQ             ; [CPU_] |463| 
    2456                      ; branchcc occurs ; [] |463| 
    2457 00000168 5201          CMPB      AL,#1                 ; [CPU_] |463| 
    2458 00000169 EC0C          BF        $C$L27,EQ             ; [CPU_] |463| 
    2459                      ; branchcc occurs ; [] |463| 
    2460 0000016a 5202          CMPB      AL,#2                 ; [CPU_] |463| 
    2461 0000016b EC08          BF        $C$L26,EQ             ; [CPU_] |463| 
    2462                      ; branchcc occurs ; [] |463| 
    2463 0000016c 520C          CMPB      AL,#12                ; [CPU_] |463| 
    2464 0000016d EC04          BF        $C$L25,EQ             ; [CPU_] |463| 
    2465                      ; branchcc occurs ; [] |463| 
    2466                      .dwpsn  file "D:/BM1000/sw/drivers/drvic/modbus/mb.c",line 473,column 11,is_stmt
    2467 0000016e 28A9          MOV       AL,#65535             ; [CPU_] |473| 
         0000016f FFFF 
    2468                      .dwpsn  file "D:/BM1000/sw/drivers/drvic/modbus/mb.c",line 473,column 28,is_stmt
    2469 00000170 6F0A          B         $C$L30,UNC            ; [CPU_] |473| 
    2470                      ; branch occurs ; [] |473| 
    2471 00000171       $C$L25:    
    2472                      .dwpsn  file "D:/BM1000/sw/drivers/drvic/process_ctrl.h",line 254,column 3,is_stmt
    2473 00000171 D027          MOVB      XAR0,#39              ; [CPU_] |254| 
    2474 00000172 6F06          B         $C$L29,UNC            ; [CPU_] |254| 
    2475                      ; branch occurs ; [] |254| 
    2476 00000173       $C$L26:    
    2477                      .dwpsn  file "D:/BM1000/sw/drivers/drvic/process_ctrl.h",line 201,column 3,is_stmt
    2478 00000173 D032          MOVB      XAR0,#50              ; [CPU_] |201| 
    2479 00000174 6F04          B         $C$L29,UNC            ; [CPU_] |201| 
    2480                      ; branch occurs ; [] |201| 
    2481 00000175       $C$L27:    
    2482                      .dwpsn  file "D:/BM1000/sw/drivers/drvic/process_ctrl.h",line 193,column 3,is_stmt
    2483 00000175 D038          MOVB      XAR0,#56              ; [CPU_] |193| 
    2484 00000176 6F02          B         $C$L29,UNC            ; [CPU_] |193| 
    2485                      ; branch occurs ; [] |193| 
TMS320C2000 Assembler PC v6.2.5 Fri Sep 29 09:29:33 2017

Tools Copyright (c) 1996-2014 Texas Instruments Incorporated
C:\Users\wmj\AppData\Local\Temp\1142410                              PAGE   47

    2486 00000177       $C$L28:    
    2487                      .dwpsn  file "D:/BM1000/sw/drivers/drvic/process_ctrl.h",line 113,column 3,is_stmt
    2488 00000177 D018          MOVB      XAR0,#24              ; [CPU_] |113| 
    2489 00000178       $C$L29:    
    2490 00000178 C4F4          MOVL      XAR6,*+XAR4[6]        ; [CPU_] |113| 
    2491 00000179 9296          MOV       AL,*+XAR6[AR0]        ; [CPU_] |113| 
    2492 0000017a       $C$L30:    
    2493                      .dwpsn  file "D:/BM1000/sw/drivers/drvic/modbus/mb.c",line 477,column 3,is_stmt
    2494 0000017a CDA9          AND       AH,AL,#0x00ff         ; [CPU_] |477| 
         0000017b 00FF 
    2495                      .dwpsn  file "D:/BM1000/sw/drivers/drvic/modbus/mb.c",line 478,column 3,is_stmt
    2496 0000017c D008          MOVB      XAR0,#8               ; [CPU_] |478| 
    2497                      .dwpsn  file "D:/BM1000/sw/drivers/drvic/modbus/mb.c",line 477,column 3,is_stmt
    2498 0000017d 97E5          MOV       *+XAR5[4],AH          ; [CPU_] |477| 
    2499                      .dwpsn  file "D:/BM1000/sw/drivers/drvic/modbus/mb.c",line 478,column 3,is_stmt
    2500 0000017e 8A94          MOVL      XAR4,*+XAR4[AR0]      ; [CPU_] |478| 
    2501 0000017f FFC7          LSR       AL,8                  ; [CPU_] |478| 
    2502 00000180 96EC          MOV       *+XAR4[5],AL          ; [CPU_] |478| 
    2503              $C$DW$158       .dwtag  DW_TAG_TI_branch
    2504                      .dwattr $C$DW$158, DW_AT_low_pc(0x00)
    2505                      .dwattr $C$DW$158, DW_AT_TI_return
    2506 00000181 0006          LRETR     ; [CPU_] 
    2507                      ; return occurs ; [] 
    2508                      .dwattr $C$DW$153, DW_AT_TI_end_file("D:/BM1000/sw/drivers/drvic/modbus/mb.c")
    2509                      .dwattr $C$DW$153, DW_AT_TI_end_line(0x1e1)
    2510                      .dwattr $C$DW$153, DW_AT_TI_end_column(0x01)
    2511                      .dwendentry
    2512                      .dwendtag $C$DW$153
    2513              
    2514 00000182               .sect   ".text"
    2515                      .clink
    2516                      .global _MB_Poll
    2517              
    2518              $C$DW$159       .dwtag  DW_TAG_subprogram, DW_AT_name("MB_Poll")
    2519                      .dwattr $C$DW$159, DW_AT_low_pc(_MB_Poll)
    2520                      .dwattr $C$DW$159, DW_AT_high_pc(0x00)
    2521                      .dwattr $C$DW$159, DW_AT_TI_symbol_name("_MB_Poll")
    2522                      .dwattr $C$DW$159, DW_AT_external
    2523                      .dwattr $C$DW$159, DW_AT_type(*$C$DW$T$157)
    2524                      .dwattr $C$DW$159, DW_AT_TI_begin_file("D:/BM1000/sw/drivers/drvic/modbus/mb.c")
    2525                      .dwattr $C$DW$159, DW_AT_TI_begin_line(0x174)
    2526                      .dwattr $C$DW$159, DW_AT_TI_begin_column(0x0e)
    2527                      .dwattr $C$DW$159, DW_AT_TI_max_frame_size(-4)
    2528                      .dwpsn  file "D:/BM1000/sw/drivers/drvic/modbus/mb.c",line 373,column 1,is_stmt,address _MB_Poll
    2529              
    2530                      .dwfde $C$DW$CIE, _MB_Poll
    2531              $C$DW$160       .dwtag  DW_TAG_variable, DW_AT_name("ucFunctionCode")
    2532                      .dwattr $C$DW$160, DW_AT_TI_symbol_name("_ucFunctionCode$2")
    2533                      .dwattr $C$DW$160, DW_AT_type(*$C$DW$T$152)
    2534                      .dwattr $C$DW$160, DW_AT_location[DW_OP_addr _ucFunctionCode$2]
    2535              $C$DW$161       .dwtag  DW_TAG_variable, DW_AT_name("eException")
    2536                      .dwattr $C$DW$161, DW_AT_TI_symbol_name("_eException$4")
    2537                      .dwattr $C$DW$161, DW_AT_type(*$C$DW$T$230)
    2538                      .dwattr $C$DW$161, DW_AT_location[DW_OP_addr _eException$4]
    2539              $C$DW$162       .dwtag  DW_TAG_variable, DW_AT_name("ucMBFrame")
TMS320C2000 Assembler PC v6.2.5 Fri Sep 29 09:29:33 2017

Tools Copyright (c) 1996-2014 Texas Instruments Incorporated
C:\Users\wmj\AppData\Local\Temp\1142410                              PAGE   48

    2540                      .dwattr $C$DW$162, DW_AT_TI_symbol_name("_ucMBFrame$1")
    2541                      .dwattr $C$DW$162, DW_AT_type(*$C$DW$T$154)
    2542                      .dwattr $C$DW$162, DW_AT_location[DW_OP_addr _ucMBFrame$1]
    2543              $C$DW$163       .dwtag  DW_TAG_formal_parameter, DW_AT_name("handle")
    2544                      .dwattr $C$DW$163, DW_AT_TI_symbol_name("_handle")
    2545                      .dwattr $C$DW$163, DW_AT_type(*$C$DW$T$219)
    2546                      .dwattr $C$DW$163, DW_AT_location[DW_OP_reg12]
    2547              
    2548              ;***************************************************************
    2549              ;* FNAME: _MB_Poll                      FR SIZE:   2           *
    2550              ;*                                                             *
    2551              ;* FUNCTION ENVIRONMENT                                        *
    2552              ;*                                                             *
    2553              ;* FUNCTION PROPERTIES                                         *
    2554              ;*                            0 Parameter,  0 Auto,  2 SOE     *
    2555              ;***************************************************************
    2556              
    2557              _MB_Poll:
    2558              ;* AR6   assigned to $O$C1
    2559              ;* AR4   assigned to $O$C2
    2560              ;* AR4   assigned to $O$C3
    2561              ;* PL    assigned to $O$y2
    2562              ;* AR1   assigned to _handle
    2563              $C$DW$164       .dwtag  DW_TAG_variable, DW_AT_name("handle")
    2564                      .dwattr $C$DW$164, DW_AT_TI_symbol_name("_handle")
    2565                      .dwattr $C$DW$164, DW_AT_type(*$C$DW$T$234)
    2566                      .dwattr $C$DW$164, DW_AT_location[DW_OP_reg6]
    2567              ;* AR4   assigned to $O$U5
    2568                      .dwcfi  cfa_offset, -2
    2569                      .dwcfi  save_reg_to_mem, 26, 0
    2570                      .dwcfi  save_reg_to_reg, 78, 26
    2571 00000182 83A4          MOVL      XAR5,XAR4             ; [CPU_] |373| 
    2572 00000183 B2BD          MOVL      *SP++,XAR1            ; [CPU_] 
    2573                      .dwcfi  save_reg_to_mem, 7, 2
    2574                      .dwcfi  cfa_offset, -4
    2575                      .dwpsn  file "D:/BM1000/sw/drivers/drvic/modbus/mb.c",line 386,column 5,is_stmt
    2576 00000184 DD1C          ADDB      XAR5,#28              ; [CPU_] |386| 
    2577              $C$DW$165       .dwtag  DW_TAG_TI_branch
    2578                      .dwattr $C$DW$165, DW_AT_low_pc(0x00)
    2579                      .dwattr $C$DW$165, DW_AT_name("_MB_PortEventGet")
    2580                      .dwattr $C$DW$165, DW_AT_TI_call
    2581 00000185 7640'         LCR       #_MB_PortEventGet     ; [CPU_] |386| 
         00000186 0135 
    2582                      ; call occurs [#_MB_PortEventGet] ; [] |386| 
    2583                      .dwpsn  file "D:/BM1000/sw/drivers/drvic/modbus/mb.c",line 373,column 1,is_stmt
    2584 00000187 8BA4          MOVL      XAR1,XAR4             ; [CPU_] |373| 
    2585                      .dwpsn  file "D:/BM1000/sw/drivers/drvic/modbus/mb.c",line 386,column 5,is_stmt
    2586 00000188 5201          CMPB      AL,#1                 ; [CPU_] |386| 
    2587 00000189 ED40          BF        $C$L37,NEQ            ; [CPU_] |386| 
    2588                      ; branchcc occurs ; [] |386| 
    2589 0000018a D01C          MOVB      XAR0,#28              ; [CPU_] |386| 
    2590 0000018b 9291          MOV       AL,*+XAR1[AR0]        ; [CPU_] |386| 
    2591 0000018c 5201          CMPB      AL,#1                 ; [CPU_] |386| 
    2592 0000018d EC27          BF        $C$L35,EQ             ; [CPU_] |386| 
    2593                      ; branchcc occurs ; [] |386| 
TMS320C2000 Assembler PC v6.2.5 Fri Sep 29 09:29:33 2017

Tools Copyright (c) 1996-2014 Texas Instruments Incorporated
C:\Users\wmj\AppData\Local\Temp\1142410                              PAGE   49

    2594 0000018e 5202          CMPB      AL,#2                 ; [CPU_] |386| 
    2595 0000018f ED3A          BF        $C$L37,NEQ            ; [CPU_] |386| 
    2596                      ; branchcc occurs ; [] |386| 
    2597                      .dwpsn  file "D:/BM1000/sw/drivers/drvic/modbus/mb.c",line 404,column 6,is_stmt
    2598 00000190 D008          MOVB      XAR0,#8               ; [CPU_] |404| 
    2599 00000191 8A91          MOVL      XAR4,*+XAR1[AR0]      ; [CPU_] |404| 
    2600 00000192 761F-         MOVW      DP,#_ucFunctionCode$2 ; [CPU_U] 
         00000193 0000 
    2601 00000194 27CC          MOV       PL,*+XAR4[1]          ; [CPU_] |404| 
    2602                      .dwpsn  file "D:/BM1000/sw/drivers/drvic/modbus/mb.c",line 406,column 6,is_stmt
    2603 00000195 92AB          MOV       AL,PL                 ; [CPU_] |406| 
    2604                      .dwpsn  file "D:/BM1000/sw/drivers/drvic/modbus/mb.c",line 404,column 6,is_stmt
    2605 00000196 3F00-         MOV       @_ucFunctionCode$2,P  ; [CPU_] |404| 
    2606                      .dwpsn  file "D:/BM1000/sw/drivers/drvic/modbus/mb.c",line 406,column 6,is_stmt
    2607 00000197 5203          CMPB      AL,#3                 ; [CPU_] |406| 
    2608 00000198 EC07          BF        $C$L31,EQ             ; [CPU_] |406| 
    2609                      ; branchcc occurs ; [] |406| 
    2610 00000199 5206          CMPB      AL,#6                 ; [CPU_] |406| 
    2611 0000019a ED0A          BF        $C$L33,NEQ            ; [CPU_] |406| 
    2612                      ; branchcc occurs ; [] |406| 
    2613                      .dwpsn  file "D:/BM1000/sw/drivers/drvic/modbus/mb.c",line 421,column 9,is_stmt
    2614 0000019b 8AA1          MOVL      XAR4,XAR1             ; [CPU_] |421| 
    2615              $C$DW$166       .dwtag  DW_TAG_TI_branch
    2616                      .dwattr $C$DW$166, DW_AT_low_pc(0x00)
    2617                      .dwattr $C$DW$166, DW_AT_name("_MB_FuncWriteHoldingRegister")
    2618                      .dwattr $C$DW$166, DW_AT_TI_call
    2619 0000019c 7640'         LCR       #_MB_FuncWriteHoldingRegister ; [CPU_] |421| 
         0000019d 0142 
    2620                      ; call occurs [#_MB_FuncWriteHoldingRegister] ; [] |421| 
    2621                      .dwpsn  file "D:/BM1000/sw/drivers/drvic/modbus/mb.c",line 422,column 5,is_stmt
    2622 0000019e 6F04          B         $C$L32,UNC            ; [CPU_] |422| 
    2623                      ; branch occurs ; [] |422| 
    2624 0000019f       $C$L31:    
    2625                      .dwpsn  file "D:/BM1000/sw/drivers/drvic/modbus/mb.c",line 414,column 9,is_stmt
    2626 0000019f 8AA1          MOVL      XAR4,XAR1             ; [CPU_] |414| 
    2627              $C$DW$167       .dwtag  DW_TAG_TI_branch
    2628                      .dwattr $C$DW$167, DW_AT_low_pc(0x00)
    2629                      .dwattr $C$DW$167, DW_AT_name("_MB_FuncReadHoldingRegister")
    2630                      .dwattr $C$DW$167, DW_AT_TI_call
    2631 000001a0 7640'         LCR       #_MB_FuncReadHoldingRegister ; [CPU_] |414| 
         000001a1 015F 
    2632                      ; call occurs [#_MB_FuncReadHoldingRegister] ; [] |414| 
    2633 000001a2       $C$L32:    
    2634 000001a2 D008          MOVB      XAR0,#8               ; [CPU_] 
    2635 000001a3 8A91          MOVL      XAR4,*+XAR1[AR0]      ; [CPU_] 
    2636 000001a4       $C$L33:    
    2637                      .dwpsn  file "D:/BM1000/sw/drivers/drvic/modbus/mb.c",line 430,column 9,is_stmt
    2638 000001a4 92C4          MOV       AL,*+XAR4[0]          ; [CPU_] |430| 
    2639 000001a5 EC24          BF        $C$L37,EQ             ; [CPU_] |430| 
    2640                      ; branchcc occurs ; [] |430| 
    2641                      .dwpsn  file "D:/BM1000/sw/drivers/drvic/modbus/mb.c",line 432,column 13,is_stmt
    2642 000001a6 9201-         MOV       AL,@_eException$4     ; [CPU_] |432| 
    2643 000001a7 EC07          BF        $C$L34,EQ             ; [CPU_] |432| 
    2644                      ; branchcc occurs ; [] |432| 
    2645                      .dwpsn  file "D:/BM1000/sw/drivers/drvic/modbus/mb.c",line 436,column 17,is_stmt
TMS320C2000 Assembler PC v6.2.5 Fri Sep 29 09:29:33 2017

Tools Copyright (c) 1996-2014 Texas Instruments Incorporated
C:\Users\wmj\AppData\Local\Temp\1142410                              PAGE   50

    2646 000001a8 8A02-         MOVL      XAR4,@_ucMBFrame$1    ; [CPU_] |436| 
    2647 000001a9 92AB          MOV       AL,PL                 ; [CPU_] |436| 
    2648 000001aa 5080          ORB       AL,#0x80              ; [CPU_] |436| 
    2649 000001ab 96C4          MOV       *+XAR4[0],AL          ; [CPU_] |436| 
    2650                      .dwpsn  file "D:/BM1000/sw/drivers/drvic/modbus/mb.c",line 437,column 17,is_stmt
    2651 000001ac 9201-         MOV       AL,@_eException$4     ; [CPU_] |437| 
    2652 000001ad 96CC          MOV       *+XAR4[1],AL          ; [CPU_] |437| 
    2653 000001ae       $C$L34:    
    2654                      .dwpsn  file "D:/BM1000/sw/drivers/drvic/modbus/mb.c",line 440,column 13,is_stmt
    2655 000001ae 8AA1          MOVL      XAR4,XAR1             ; [CPU_] |440| 
    2656              $C$DW$168       .dwtag  DW_TAG_TI_branch
    2657                      .dwattr $C$DW$168, DW_AT_low_pc(0x00)
    2658                      .dwattr $C$DW$168, DW_AT_name("_MB_RTUSend")
    2659                      .dwattr $C$DW$168, DW_AT_TI_call
    2660 000001af 7640'         LCR       #_MB_RTUSend          ; [CPU_] |440| 
         000001b0 0090 
    2661                      ; call occurs [#_MB_RTUSend] ; [] |440| 
    2662 000001b1 D018          MOVB      XAR0,#24              ; [CPU_] |440| 
    2663 000001b2 9691          MOV       *+XAR1[AR0],AL        ; [CPU_] |440| 
    2664 000001b3 6F16          B         $C$L37,UNC            ; [CPU_] |440| 
    2665                      ; branch occurs ; [] |440| 
    2666 000001b4       $C$L35:    
    2667                      .dwpsn  file "D:/BM1000/sw/drivers/drvic/modbus/mb.c",line 391,column 6,is_stmt
    2668              $C$DW$169       .dwtag  DW_TAG_TI_branch
    2669                      .dwattr $C$DW$169, DW_AT_low_pc(0x00)
    2670                      .dwattr $C$DW$169, DW_AT_name("_MB_RTUReceive")
    2671                      .dwattr $C$DW$169, DW_AT_TI_call
    2672 000001b4 7640'         LCR       #_MB_RTUReceive       ; [CPU_] |391| 
         000001b5 011F 
    2673                      ; call occurs [#_MB_RTUReceive] ; [] |391| 
    2674 000001b6 D018          MOVB      XAR0,#24              ; [CPU_] |391| 
    2675 000001b7 9691          MOV       *+XAR1[AR0],AL        ; [CPU_] |391| 
    2676                      .dwpsn  file "D:/BM1000/sw/drivers/drvic/modbus/mb.c",line 392,column 6,is_stmt
    2677 000001b8 D018          MOVB      XAR0,#24              ; [CPU_] |392| 
    2678 000001b9 9291          MOV       AL,*+XAR1[AR0]        ; [CPU_] |392| 
    2679 000001ba ED0F          BF        $C$L37,NEQ            ; [CPU_] |392| 
    2680                      ; branchcc occurs ; [] |392| 
    2681                      .dwpsn  file "D:/BM1000/sw/drivers/drvic/modbus/mb.c",line 395,column 3,is_stmt
    2682 000001bb D008          MOVB      XAR0,#8               ; [CPU_] |395| 
    2683 000001bc 8A91          MOVL      XAR4,*+XAR1[AR0]      ; [CPU_] |395| 
    2684 000001bd 88C4          MOVZ      AR6,*+XAR4[0]         ; [CPU_] |395| 
    2685 000001be D017          MOVB      XAR0,#23              ; [CPU_] |395| 
    2686 000001bf 0E91          MOVU      ACC,*+XAR1[AR0]       ; [CPU_] |395| 
    2687 000001c0 80A6          MOVZ      AR7,AR6               ; [CPU_] |395| 
    2688 000001c1 0FA7          CMPL      ACC,XAR7              ; [CPU_] |395| 
    2689 000001c2 EC03          BF        $C$L36,EQ             ; [CPU_] |395| 
    2690                      ; branchcc occurs ; [] |395| 
    2691 000001c3 92A6          MOV       AL,AR6                ; [CPU_] 
    2692 000001c4 ED05          BF        $C$L37,NEQ            ; [CPU_] |395| 
    2693                      ; branchcc occurs ; [] |395| 
    2694 000001c5       $C$L36:    
    2695                      .dwpsn  file "D:/BM1000/sw/drivers/drvic/modbus/mb.c",line 397,column 4,is_stmt
    2696 000001c5 9A02          MOVB      AL,#2                 ; [CPU_] |397| 
    2697 000001c6 8AA1          MOVL      XAR4,XAR1             ; [CPU_] |397| 
    2698              $C$DW$170       .dwtag  DW_TAG_TI_branch
TMS320C2000 Assembler PC v6.2.5 Fri Sep 29 09:29:33 2017

Tools Copyright (c) 1996-2014 Texas Instruments Incorporated
C:\Users\wmj\AppData\Local\Temp\1142410                              PAGE   51

    2699                      .dwattr $C$DW$170, DW_AT_low_pc(0x00)
    2700                      .dwattr $C$DW$170, DW_AT_name("_MB_PortEventPost")
    2701                      .dwattr $C$DW$170, DW_AT_TI_call
    2702 000001c7 7640'         LCR       #_MB_PortEventPost    ; [CPU_] |397| 
         000001c8 000E 
    2703                      ; call occurs [#_MB_PortEventPost] ; [] |397| 
    2704 000001c9       $C$L37:    
    2705                      .dwpsn  file "D:/BM1000/sw/drivers/drvic/modbus/mb.c",line 449,column 3,is_stmt
    2706 000001c9 9A00          MOVB      AL,#0                 ; [CPU_] |449| 
    2707 000001ca 8BBE          MOVL      XAR1,*--SP            ; [CPU_] 
    2708                      .dwcfi  cfa_offset, -2
    2709                      .dwcfi  restore_reg, 7
    2710              $C$DW$171       .dwtag  DW_TAG_TI_branch
    2711                      .dwattr $C$DW$171, DW_AT_low_pc(0x00)
    2712                      .dwattr $C$DW$171, DW_AT_TI_return
    2713 000001cb 0006          LRETR     ; [CPU_] 
    2714                      ; return occurs ; [] 
    2715                      .dwattr $C$DW$159, DW_AT_TI_end_file("D:/BM1000/sw/drivers/drvic/modbus/mb.c")
    2716                      .dwattr $C$DW$159, DW_AT_TI_end_line(0x1c2)
    2717                      .dwattr $C$DW$159, DW_AT_TI_end_column(0x01)
    2718                      .dwendentry
    2719                      .dwendtag $C$DW$159
    2720              
    2721              ;**************************************************************
    2722              ;* UNDEFINED EXTERNAL REFERENCES                              *
    2723              ;**************************************************************
    2724                      .global _SCI_enableRx
    2725                      .global _SCI_enableTx
    2726                      .global _TIMER_clearFlag
    2727                      .global _SCI_disableTx
    2728                      .global _SCI_disableRx
    2729                      .global _SCI_putDataBlocking
    2730                      .global _SCI_getDataBlocking
    2731              
    2732              ;***************************************************************
    2733              ;* TYPE INFORMATION                                            *
    2734              ;***************************************************************
    2735              
    2736              $C$DW$T$42      .dwtag  DW_TAG_enumeration_type
    2737                      .dwattr $C$DW$T$42, DW_AT_byte_size(0x01)
    2738              $C$DW$172       .dwtag  DW_TAG_enumerator, DW_AT_name("CTRL_State_Error"), DW_AT_const_value(0x00)
    2739              $C$DW$173       .dwtag  DW_TAG_enumerator, DW_AT_name("CTRL_State_Idle"), DW_AT_const_value(0x01)
    2740              $C$DW$174       .dwtag  DW_TAG_enumerator, DW_AT_name("CTRL_State_OffLine"), DW_AT_const_value(0x02)
    2741              $C$DW$175       .dwtag  DW_TAG_enumerator, DW_AT_name("CTRL_State_OnLine"), DW_AT_const_value(0x03)
    2742              $C$DW$176       .dwtag  DW_TAG_enumerator, DW_AT_name("CTRL_numStates"), DW_AT_const_value(0x04)
    2743                      .dwendtag $C$DW$T$42
    2744              
    2745              $C$DW$T$43      .dwtag  DW_TAG_typedef, DW_AT_name("CTRL_State_e")
    2746                      .dwattr $C$DW$T$43, DW_AT_type(*$C$DW$T$42)
    2747                      .dwattr $C$DW$T$43, DW_AT_language(DW_LANG_C)
    2748              
    2749              $C$DW$T$44      .dwtag  DW_TAG_enumeration_type
    2750                      .dwattr $C$DW$T$44, DW_AT_byte_size(0x01)
    2751              $C$DW$177       .dwtag  DW_TAG_enumerator, DW_AT_name("CTRL_ErrorCode_NoError"), DW_AT_const_value(0x00)
    2752              $C$DW$178       .dwtag  DW_TAG_enumerator, DW_AT_name("CTRL_ErrorCode_IdClip"), DW_AT_const_value(0x01)
TMS320C2000 Assembler PC v6.2.5 Fri Sep 29 09:29:33 2017

Tools Copyright (c) 1996-2014 Texas Instruments Incorporated
C:\Users\wmj\AppData\Local\Temp\1142410                              PAGE   52

    2753              $C$DW$179       .dwtag  DW_TAG_enumerator, DW_AT_name("CTRL_ErrorCode_EstError"), DW_AT_const_value(0x02)
    2754              $C$DW$180       .dwtag  DW_TAG_enumerator, DW_AT_name("CTRL_numErrorCodes"), DW_AT_const_value(0x03)
    2755                      .dwendtag $C$DW$T$44
    2756              
    2757              $C$DW$T$45      .dwtag  DW_TAG_typedef, DW_AT_name("CTRL_ErrorCode_e")
    2758                      .dwattr $C$DW$T$45, DW_AT_type(*$C$DW$T$44)
    2759                      .dwattr $C$DW$T$45, DW_AT_language(DW_LANG_C)
    2760              
    2761              $C$DW$T$76      .dwtag  DW_TAG_enumeration_type
    2762                      .dwattr $C$DW$T$76, DW_AT_byte_size(0x01)
    2763              $C$DW$181       .dwtag  DW_TAG_enumerator, DW_AT_name("CTRL_TargetProc_2806x"), DW_AT_const_value(0x00)
    2764              $C$DW$182       .dwtag  DW_TAG_enumerator, DW_AT_name("CTRL_TargetProc_2805x"), DW_AT_const_value(0x01)
    2765              $C$DW$183       .dwtag  DW_TAG_enumerator, DW_AT_name("CTRL_TargetProc_2803x"), DW_AT_const_value(0x02)
    2766              $C$DW$184       .dwtag  DW_TAG_enumerator, DW_AT_name("CTRL_TargetProc_2802x"), DW_AT_const_value(0x03)
    2767              $C$DW$185       .dwtag  DW_TAG_enumerator, DW_AT_name("CTRL_TargetProc_Unknown"), DW_AT_const_value(0x04)
    2768                      .dwendtag $C$DW$T$76
    2769              
    2770              $C$DW$T$77      .dwtag  DW_TAG_typedef, DW_AT_name("CTRL_TargetProc_e")
    2771                      .dwattr $C$DW$T$77, DW_AT_type(*$C$DW$T$76)
    2772                      .dwattr $C$DW$T$77, DW_AT_language(DW_LANG_C)
    2773              
    2774              $C$DW$T$86      .dwtag  DW_TAG_enumeration_type
    2775                      .dwattr $C$DW$T$86, DW_AT_byte_size(0x01)
    2776              $C$DW$186       .dwtag  DW_TAG_enumerator, DW_AT_name("Fsm_State_Idle"), DW_AT_const_value(0x00)
    2777              $C$DW$187       .dwtag  DW_TAG_enumerator, DW_AT_name("Fsm_State_SelectMode"), DW_AT_const_value(0x01)
    2778              $C$DW$188       .dwtag  DW_TAG_enumerator, DW_AT_name("Fsm_State_ClipFace"), DW_AT_const_value(0x02)
    2779              $C$DW$189       .dwtag  DW_TAG_enumerator, DW_AT_name("Fsm_State_MillingCutte"), DW_AT_const_value(0x03)
    2780              $C$DW$190       .dwtag  DW_TAG_enumerator, DW_AT_name("Fsm_State_TrimPlatform"), DW_AT_const_value(0x04)
    2781              $C$DW$191       .dwtag  DW_TAG_enumerator, DW_AT_name("Fsm_State_CarClip"), DW_AT_const_value(0x05)
    2782              $C$DW$192       .dwtag  DW_TAG_enumerator, DW_AT_name("Fsm_State_RubberTyre"), DW_AT_const_value(0x06)
    2783              $C$DW$193       .dwtag  DW_TAG_enumerator, DW_AT_name("Fsm_State_BlowerFan"), DW_AT_const_value(0x07)
    2784              $C$DW$194       .dwtag  DW_TAG_enumerator, DW_AT_name("Fsm_State_NormDecle"), DW_AT_const_value(0x08)
    2785              $C$DW$195       .dwtag  DW_TAG_enumerator, DW_AT_name("Fsm_State_NormWait"), DW_AT_const_value(0x09)
    2786              $C$DW$196       .dwtag  DW_TAG_enumerator, DW_AT_name("Fsm_State_NormAccele"), DW_AT_const_value(0x0a)
    2787              $C$DW$197       .dwtag  DW_TAG_enumerator, DW_AT_name("Fsm_State_NormBrakeWait"), DW_AT_const_value(0x0b)
    2788              $C$DW$198       .dwtag  DW_TAG_enumerator, DW_AT_name("Fsm_State_NormBrake"), DW_AT_const_value(0x0c)
    2789              $C$DW$199       .dwtag  DW_TAG_enumerator, DW_AT_name("Fsm_State_NormReturn"), DW_AT_const_value(0x0d)
    2790              $C$DW$200       .dwtag  DW_TAG_enumerator, DW_AT_name("Fsm_State_NormDown"), DW_AT_const_value(0x0e)
    2791              $C$DW$201       .dwtag  DW_TAG_enumerator, DW_AT_name("Fsm_State_NormStop"), DW_AT_const_value(0x0f)
    2792              $C$DW$202       .dwtag  DW_TAG_enumerator, DW_AT_name("Fsm_State_Num"), DW_AT_const_value(0x10)
    2793                      .dwendtag $C$DW$T$86
    2794              
    2795              $C$DW$T$87      .dwtag  DW_TAG_typedef, DW_AT_name("FSM_State_e")
    2796                      .dwattr $C$DW$T$87, DW_AT_type(*$C$DW$T$86)
    2797                      .dwattr $C$DW$T$87, DW_AT_language(DW_LANG_C)
    2798              
    2799              $C$DW$T$88      .dwtag  DW_TAG_enumeration_type
    2800                      .dwattr $C$DW$T$88, DW_AT_byte_size(0x01)
    2801              $C$DW$203       .dwtag  DW_TAG_enumerator, DW_AT_name("FSM_Trans_StopState"), DW_AT_const_value(0x00)
    2802              $C$DW$204       .dwtag  DW_TAG_enumerator, DW_AT_name("FSM_Trans_WaitSecond"), DW_AT_const_value(0x01)
    2803              $C$DW$205       .dwtag  DW_TAG_enumerator, DW_AT_name("FSM_Trans_JumpState"), DW_AT_const_value(0x02)
    2804                      .dwendtag $C$DW$T$88
    2805              
    2806              $C$DW$T$89      .dwtag  DW_TAG_typedef, DW_AT_name("FSM_Trans_e")
    2807                      .dwattr $C$DW$T$89, DW_AT_type(*$C$DW$T$88)
TMS320C2000 Assembler PC v6.2.5 Fri Sep 29 09:29:33 2017

Tools Copyright (c) 1996-2014 Texas Instruments Incorporated
C:\Users\wmj\AppData\Local\Temp\1142410                              PAGE   53

    2808                      .dwattr $C$DW$T$89, DW_AT_language(DW_LANG_C)
    2809              
    2810              $C$DW$T$90      .dwtag  DW_TAG_enumeration_type
    2811                      .dwattr $C$DW$T$90, DW_AT_byte_size(0x01)
    2812              $C$DW$206       .dwtag  DW_TAG_enumerator, DW_AT_name("FSM_Event_IDLE"), DW_AT_const_value(0x00)
    2813              $C$DW$207       .dwtag  DW_TAG_enumerator, DW_AT_name("FSM_Event_Sensor0"), DW_AT_const_value(0x01)
    2814              $C$DW$208       .dwtag  DW_TAG_enumerator, DW_AT_name("FSM_Event_Sensor1"), DW_AT_const_value(0x02)
    2815              $C$DW$209       .dwtag  DW_TAG_enumerator, DW_AT_name("FSM_Event_S0_S1"), DW_AT_const_value(0x03)
    2816              $C$DW$210       .dwtag  DW_TAG_enumerator, DW_AT_name("FSM_Event_EMG"), DW_AT_const_value(0x04)
    2817              $C$DW$211       .dwtag  DW_TAG_enumerator, DW_AT_name("FSM_Event_EMG_S0"), DW_AT_const_value(0x05)
    2818              $C$DW$212       .dwtag  DW_TAG_enumerator, DW_AT_name("FSM_Event_EMG_S1"), DW_AT_const_value(0x06)
    2819              $C$DW$213       .dwtag  DW_TAG_enumerator, DW_AT_name("FSM_Event_EMG_S0_S1"), DW_AT_const_value(0x07)
    2820              $C$DW$214       .dwtag  DW_TAG_enumerator, DW_AT_name("FSM_Event_Acc_ArrivePosRef"), DW_AT_const_value(0x08)
    2821              $C$DW$215       .dwtag  DW_TAG_enumerator, DW_AT_name("FSM_Event_Acc_ArriveNegRef"), DW_AT_const_value(0x09)
    2822              $C$DW$216       .dwtag  DW_TAG_enumerator, DW_AT_name("FSM_Event_Dec_ArrivePosRef"), DW_AT_const_value(0x0a)
    2823              $C$DW$217       .dwtag  DW_TAG_enumerator, DW_AT_name("FSM_Event_Dec_ArriveNegRef"), DW_AT_const_value(0x0b)
    2824              $C$DW$218       .dwtag  DW_TAG_enumerator, DW_AT_name("FSM_Event_arrive_point_A"), DW_AT_const_value(0x0c)
    2825              $C$DW$219       .dwtag  DW_TAG_enumerator, DW_AT_name("FSM_Event_arrive_point_B"), DW_AT_const_value(0x0d)
    2826              $C$DW$220       .dwtag  DW_TAG_enumerator, DW_AT_name("FSM_Event_arrive_point_C"), DW_AT_const_value(0x0e)
    2827              $C$DW$221       .dwtag  DW_TAG_enumerator, DW_AT_name("FSM_Event_arrive_point_D"), DW_AT_const_value(0x0f)
    2828              $C$DW$222       .dwtag  DW_TAG_enumerator, DW_AT_name("FSM_Event_RunTimeOver"), DW_AT_const_value(0x10)
    2829              $C$DW$223       .dwtag  DW_TAG_enumerator, DW_AT_name("FSM_Event_MeetTime"), DW_AT_const_value(0x11)
    2830              $C$DW$224       .dwtag  DW_TAG_enumerator, DW_AT_name("FSM_Event_Waitting"), DW_AT_const_value(0x12)
    2831              $C$DW$225       .dwtag  DW_TAG_enumerator, DW_AT_name("FSM_Event_485Start"), DW_AT_const_value(0x13)
    2832              $C$DW$226       .dwtag  DW_TAG_enumerator, DW_AT_name("FSM_Event_485Stop"), DW_AT_const_value(0x14)
    2833              $C$DW$227       .dwtag  DW_TAG_enumerator, DW_AT_name("FSM_Event_XX_Err"), DW_AT_const_value(0x15)
    2834              $C$DW$228       .dwtag  DW_TAG_enumerator, DW_AT_name("FSM_Event_OverVoltage"), DW_AT_const_value(0x16)
    2835              $C$DW$229       .dwtag  DW_TAG_enumerator, DW_AT_name("FSM_Event_UnderVoltage"), DW_AT_const_value(0x17)
    2836              $C$DW$230       .dwtag  DW_TAG_enumerator, DW_AT_name("FSM_Event_OverTemp"), DW_AT_const_value(0x18)
    2837              $C$DW$231       .dwtag  DW_TAG_enumerator, DW_AT_name("FSM_Event_OverCurrent"), DW_AT_const_value(0x19)
    2838              $C$DW$232       .dwtag  DW_TAG_enumerator, DW_AT_name("FSM_Event_MototUpWait"), DW_AT_const_value(0x1a)
    2839              $C$DW$233       .dwtag  DW_TAG_enumerator, DW_AT_name("FSM_Event_MototUp"), DW_AT_const_value(0x1b)
    2840              $C$DW$234       .dwtag  DW_TAG_enumerator, DW_AT_name("FSM_Event_MototDownWait"), DW_AT_const_value(0x1c)
    2841              $C$DW$235       .dwtag  DW_TAG_enumerator, DW_AT_name("FSM_Event_MototDown"), DW_AT_const_value(0x1d)
    2842              $C$DW$236       .dwtag  DW_TAG_enumerator, DW_AT_name("FSM_Event_MeetSpeed1"), DW_AT_const_value(0x1e)
    2843              $C$DW$237       .dwtag  DW_TAG_enumerator, DW_AT_name("FSM_Event_MeetSpeed2"), DW_AT_const_value(0x1f)
    2844              $C$DW$238       .dwtag  DW_TAG_enumerator, DW_AT_name("FSM_Event_MeetSpeed3"), DW_AT_const_value(0x20)
    2845              $C$DW$239       .dwtag  DW_TAG_enumerator, DW_AT_name("FSM_Event_set_high_accel"), DW_AT_const_value(0x21)
    2846              $C$DW$240       .dwtag  DW_TAG_enumerator, DW_AT_name("FSM_Event_WaitDone"), DW_AT_const_value(0x22)
    2847                      .dwendtag $C$DW$T$90
    2848              
    2849              $C$DW$T$91      .dwtag  DW_TAG_typedef, DW_AT_name("FSM_Event_e")
    2850                      .dwattr $C$DW$T$91, DW_AT_type(*$C$DW$T$90)
    2851                      .dwattr $C$DW$T$91, DW_AT_language(DW_LANG_C)
    2852              
    2853              $C$DW$T$92      .dwtag  DW_TAG_enumeration_type
    2854                      .dwattr $C$DW$T$92, DW_AT_byte_size(0x01)
    2855              $C$DW$241       .dwtag  DW_TAG_enumerator, DW_AT_name("FSM_StateMode_Free_mode"), DW_AT_const_value(0x00)
    2856              $C$DW$242       .dwtag  DW_TAG_enumerator, DW_AT_name("FSM_StateMode_Edit_mode"), DW_AT_const_value(0x01)
    2857              $C$DW$243       .dwtag  DW_TAG_enumerator, DW_AT_name("FSM_StateMode_ClipFace_mode"), DW_AT_const_value(0x02)
    2858              $C$DW$244       .dwtag  DW_TAG_enumerator, DW_AT_name("FSM_StateMode_Milling_mode"), DW_AT_const_value(0x03)
    2859              $C$DW$245       .dwtag  DW_TAG_enumerator, DW_AT_name("FSM_StateMode_TrimPlatform_mode"), DW_AT_const_value(0
    2860              $C$DW$246       .dwtag  DW_TAG_enumerator, DW_AT_name("FSM_StateMode_CarClip_mode"), DW_AT_const_value(0x05)
    2861              $C$DW$247       .dwtag  DW_TAG_enumerator, DW_AT_name("FSM_StateMode_RubberTyre_mode"), DW_AT_const_value(0x0
    2862              $C$DW$248       .dwtag  DW_TAG_enumerator, DW_AT_name("FSM_StateMode_BlowerFan_mode"), DW_AT_const_value(0x07
TMS320C2000 Assembler PC v6.2.5 Fri Sep 29 09:29:33 2017

Tools Copyright (c) 1996-2014 Texas Instruments Incorporated
C:\Users\wmj\AppData\Local\Temp\1142410                              PAGE   54

    2863                      .dwendtag $C$DW$T$92
    2864              
    2865              $C$DW$T$93      .dwtag  DW_TAG_typedef, DW_AT_name("FSM_StateMode_e")
    2866                      .dwattr $C$DW$T$93, DW_AT_type(*$C$DW$T$92)
    2867                      .dwattr $C$DW$T$93, DW_AT_language(DW_LANG_C)
    2868              
    2869              $C$DW$T$140     .dwtag  DW_TAG_enumeration_type
    2870                      .dwattr $C$DW$T$140, DW_AT_byte_size(0x01)
    2871              $C$DW$249       .dwtag  DW_TAG_enumerator, DW_AT_name("HAL_BoardAddr_Motor1"), DW_AT_const_value(0x00)
    2872              $C$DW$250       .dwtag  DW_TAG_enumerator, DW_AT_name("HAL_BoardAddr_Motor2"), DW_AT_const_value(0x01)
    2873              $C$DW$251       .dwtag  DW_TAG_enumerator, DW_AT_name("HAL_BoardAddr_Motor3"), DW_AT_const_value(0x02)
    2874              $C$DW$252       .dwtag  DW_TAG_enumerator, DW_AT_name("HAL_BoardAddr_Motor4"), DW_AT_const_value(0x03)
    2875              $C$DW$253       .dwtag  DW_TAG_enumerator, DW_AT_name("HAL_BoardAddr_Motor5"), DW_AT_const_value(0x04)
    2876              $C$DW$254       .dwtag  DW_TAG_enumerator, DW_AT_name("HAL_BoardAddr_Motor6"), DW_AT_const_value(0x05)
    2877              $C$DW$255       .dwtag  DW_TAG_enumerator, DW_AT_name("HAL_BoardAddr_Motor7"), DW_AT_const_value(0x06)
    2878              $C$DW$256       .dwtag  DW_TAG_enumerator, DW_AT_name("HAL_BoardAddr_Heater"), DW_AT_const_value(0x07)
    2879              $C$DW$257       .dwtag  DW_TAG_enumerator, DW_AT_name("HAL_BoardAddr_OpenLoop"), DW_AT_const_value(0x08)
    2880              $C$DW$258       .dwtag  DW_TAG_enumerator, DW_AT_name("HAL_BoardAddr_Short"), DW_AT_const_value(0x09)
    2881                      .dwendtag $C$DW$T$140
    2882              
    2883              $C$DW$T$141     .dwtag  DW_TAG_typedef, DW_AT_name("HAL_BdAddr_e")
    2884                      .dwattr $C$DW$T$141, DW_AT_type(*$C$DW$T$140)
    2885                      .dwattr $C$DW$T$141, DW_AT_language(DW_LANG_C)
    2886              
    2887              $C$DW$T$156     .dwtag  DW_TAG_enumeration_type
    2888                      .dwattr $C$DW$T$156, DW_AT_byte_size(0x01)
    2889              $C$DW$259       .dwtag  DW_TAG_enumerator, DW_AT_name("MB_ENOERR"), DW_AT_const_value(0x00)
    2890              $C$DW$260       .dwtag  DW_TAG_enumerator, DW_AT_name("MB_ENOREG"), DW_AT_const_value(0x01)
    2891              $C$DW$261       .dwtag  DW_TAG_enumerator, DW_AT_name("MB_EINVAL"), DW_AT_const_value(0x02)
    2892              $C$DW$262       .dwtag  DW_TAG_enumerator, DW_AT_name("MB_EPORTERR"), DW_AT_const_value(0x03)
    2893              $C$DW$263       .dwtag  DW_TAG_enumerator, DW_AT_name("MB_ENORES"), DW_AT_const_value(0x04)
    2894              $C$DW$264       .dwtag  DW_TAG_enumerator, DW_AT_name("MB_EIO"), DW_AT_const_value(0x05)
    2895              $C$DW$265       .dwtag  DW_TAG_enumerator, DW_AT_name("MB_EILLSTATE"), DW_AT_const_value(0x06)
    2896              $C$DW$266       .dwtag  DW_TAG_enumerator, DW_AT_name("MB_ETIMEDOUT"), DW_AT_const_value(0x07)
    2897                      .dwendtag $C$DW$T$156
    2898              
    2899              $C$DW$T$157     .dwtag  DW_TAG_typedef, DW_AT_name("eMBErrorCode")
    2900                      .dwattr $C$DW$T$157, DW_AT_type(*$C$DW$T$156)
    2901                      .dwattr $C$DW$T$157, DW_AT_language(DW_LANG_C)
    2902              
    2903              $C$DW$T$158     .dwtag  DW_TAG_enumeration_type
    2904                      .dwattr $C$DW$T$158, DW_AT_byte_size(0x01)
    2905              $C$DW$267       .dwtag  DW_TAG_enumerator, DW_AT_name("STATE_TX_IDLE"), DW_AT_const_value(0x00)
    2906              $C$DW$268       .dwtag  DW_TAG_enumerator, DW_AT_name("STATE_TX_XMIT"), DW_AT_const_value(0x01)
    2907                      .dwendtag $C$DW$T$158
    2908              
    2909              $C$DW$T$159     .dwtag  DW_TAG_typedef, DW_AT_name("eMBSndState")
    2910                      .dwattr $C$DW$T$159, DW_AT_type(*$C$DW$T$158)
    2911                      .dwattr $C$DW$T$159, DW_AT_language(DW_LANG_C)
    2912              
    2913              $C$DW$T$160     .dwtag  DW_TAG_enumeration_type
    2914                      .dwattr $C$DW$T$160, DW_AT_byte_size(0x01)
    2915              $C$DW$269       .dwtag  DW_TAG_enumerator, DW_AT_name("STATE_RX_INIT"), DW_AT_const_value(0x00)
    2916              $C$DW$270       .dwtag  DW_TAG_enumerator, DW_AT_name("STATE_RX_IDLE"), DW_AT_const_value(0x01)
    2917              $C$DW$271       .dwtag  DW_TAG_enumerator, DW_AT_name("STATE_RX_RCV"), DW_AT_const_value(0x02)
TMS320C2000 Assembler PC v6.2.5 Fri Sep 29 09:29:33 2017

Tools Copyright (c) 1996-2014 Texas Instruments Incorporated
C:\Users\wmj\AppData\Local\Temp\1142410                              PAGE   55

    2918              $C$DW$272       .dwtag  DW_TAG_enumerator, DW_AT_name("STATE_RX_ERROR"), DW_AT_const_value(0x03)
    2919                      .dwendtag $C$DW$T$160
    2920              
    2921              $C$DW$T$161     .dwtag  DW_TAG_typedef, DW_AT_name("eMBRcvState")
    2922                      .dwattr $C$DW$T$161, DW_AT_type(*$C$DW$T$160)
    2923                      .dwattr $C$DW$T$161, DW_AT_language(DW_LANG_C)
    2924              
    2925              $C$DW$T$162     .dwtag  DW_TAG_enumeration_type
    2926                      .dwattr $C$DW$T$162, DW_AT_byte_size(0x01)
    2927              $C$DW$273       .dwtag  DW_TAG_enumerator, DW_AT_name("EV_READY"), DW_AT_const_value(0x00)
    2928              $C$DW$274       .dwtag  DW_TAG_enumerator, DW_AT_name("EV_FRAME_RECEIVED"), DW_AT_const_value(0x01)
    2929              $C$DW$275       .dwtag  DW_TAG_enumerator, DW_AT_name("EV_EXECUTE"), DW_AT_const_value(0x02)
    2930              $C$DW$276       .dwtag  DW_TAG_enumerator, DW_AT_name("EV_FRAME_SENT"), DW_AT_const_value(0x03)
    2931                      .dwendtag $C$DW$T$162
    2932              
    2933              $C$DW$T$163     .dwtag  DW_TAG_typedef, DW_AT_name("eMBEventType")
    2934                      .dwattr $C$DW$T$163, DW_AT_type(*$C$DW$T$162)
    2935                      .dwattr $C$DW$T$163, DW_AT_language(DW_LANG_C)
    2936              $C$DW$T$225     .dwtag  DW_TAG_pointer_type
    2937                      .dwattr $C$DW$T$225, DW_AT_type(*$C$DW$T$163)
    2938                      .dwattr $C$DW$T$225, DW_AT_address_class(0x16)
    2939              $C$DW$277       .dwtag  DW_TAG_TI_far_type
    2940                      .dwattr $C$DW$277, DW_AT_type(*$C$DW$T$225)
    2941              $C$DW$T$226     .dwtag  DW_TAG_const_type
    2942                      .dwattr $C$DW$T$226, DW_AT_type(*$C$DW$277)
    2943              $C$DW$278       .dwtag  DW_TAG_TI_far_type
    2944                      .dwattr $C$DW$278, DW_AT_type(*$C$DW$T$163)
    2945              $C$DW$T$227     .dwtag  DW_TAG_const_type
    2946                      .dwattr $C$DW$T$227, DW_AT_type(*$C$DW$278)
    2947              
    2948              $C$DW$T$167     .dwtag  DW_TAG_enumeration_type
    2949                      .dwattr $C$DW$T$167, DW_AT_byte_size(0x01)
    2950              $C$DW$279       .dwtag  DW_TAG_enumerator, DW_AT_name("MOTOR_Type_Induction"), DW_AT_const_value(0x00)
    2951              $C$DW$280       .dwtag  DW_TAG_enumerator, DW_AT_name("MOTOR_Type_Pm"), DW_AT_const_value(0x01)
    2952                      .dwendtag $C$DW$T$167
    2953              
    2954              $C$DW$T$168     .dwtag  DW_TAG_typedef, DW_AT_name("MOTOR_Type_e")
    2955                      .dwattr $C$DW$T$168, DW_AT_type(*$C$DW$T$167)
    2956                      .dwattr $C$DW$T$168, DW_AT_language(DW_LANG_C)
    2957              
    2958              $C$DW$T$170     .dwtag  DW_TAG_enumeration_type
    2959                      .dwattr $C$DW$T$170, DW_AT_byte_size(0x01)
    2960              $C$DW$281       .dwtag  DW_TAG_enumerator, DW_AT_name("EST_State_Error"), DW_AT_const_value(0x00)
    2961              $C$DW$282       .dwtag  DW_TAG_enumerator, DW_AT_name("EST_State_Idle"), DW_AT_const_value(0x01)
    2962              $C$DW$283       .dwtag  DW_TAG_enumerator, DW_AT_name("EST_State_RoverL"), DW_AT_const_value(0x02)
    2963              $C$DW$284       .dwtag  DW_TAG_enumerator, DW_AT_name("EST_State_Rs"), DW_AT_const_value(0x03)
    2964              $C$DW$285       .dwtag  DW_TAG_enumerator, DW_AT_name("EST_State_RampUp"), DW_AT_const_value(0x04)
    2965              $C$DW$286       .dwtag  DW_TAG_enumerator, DW_AT_name("EST_State_IdRated"), DW_AT_const_value(0x05)
    2966              $C$DW$287       .dwtag  DW_TAG_enumerator, DW_AT_name("EST_State_RatedFlux_OL"), DW_AT_const_value(0x06)
    2967              $C$DW$288       .dwtag  DW_TAG_enumerator, DW_AT_name("EST_State_RatedFlux"), DW_AT_const_value(0x07)
    2968              $C$DW$289       .dwtag  DW_TAG_enumerator, DW_AT_name("EST_State_RampDown"), DW_AT_const_value(0x08)
    2969              $C$DW$290       .dwtag  DW_TAG_enumerator, DW_AT_name("EST_State_LockRotor"), DW_AT_const_value(0x09)
    2970              $C$DW$291       .dwtag  DW_TAG_enumerator, DW_AT_name("EST_State_Ls"), DW_AT_const_value(0x0a)
    2971              $C$DW$292       .dwtag  DW_TAG_enumerator, DW_AT_name("EST_State_Rr"), DW_AT_const_value(0x0b)
    2972              $C$DW$293       .dwtag  DW_TAG_enumerator, DW_AT_name("EST_State_MotorIdentified"), DW_AT_const_value(0x0c)
TMS320C2000 Assembler PC v6.2.5 Fri Sep 29 09:29:33 2017

Tools Copyright (c) 1996-2014 Texas Instruments Incorporated
C:\Users\wmj\AppData\Local\Temp\1142410                              PAGE   56

    2973              $C$DW$294       .dwtag  DW_TAG_enumerator, DW_AT_name("EST_State_OnLine"), DW_AT_const_value(0x0d)
    2974              $C$DW$295       .dwtag  DW_TAG_enumerator, DW_AT_name("EST_numStates"), DW_AT_const_value(0x0e)
    2975                      .dwendtag $C$DW$T$170
    2976              
    2977              $C$DW$T$171     .dwtag  DW_TAG_typedef, DW_AT_name("EST_State_e")
    2978                      .dwattr $C$DW$T$171, DW_AT_type(*$C$DW$T$170)
    2979                      .dwattr $C$DW$T$171, DW_AT_language(DW_LANG_C)
    2980              
    2981              $C$DW$T$172     .dwtag  DW_TAG_enumeration_type
    2982                      .dwattr $C$DW$T$172, DW_AT_byte_size(0x01)
    2983              $C$DW$296       .dwtag  DW_TAG_enumerator, DW_AT_name("USER_ErrorCode_NoError"), DW_AT_const_value(0x00)
    2984              $C$DW$297       .dwtag  DW_TAG_enumerator, DW_AT_name("USER_ErrorCode_iqFullScaleCurrent_A_High"), DW_AT_cons
    2985              $C$DW$298       .dwtag  DW_TAG_enumerator, DW_AT_name("USER_ErrorCode_iqFullScaleCurrent_A_Low"), DW_AT_const
    2986              $C$DW$299       .dwtag  DW_TAG_enumerator, DW_AT_name("USER_ErrorCode_iqFullScaleVoltage_V_High"), DW_AT_cons
    2987              $C$DW$300       .dwtag  DW_TAG_enumerator, DW_AT_name("USER_ErrorCode_iqFullScaleVoltage_V_Low"), DW_AT_const
    2988              $C$DW$301       .dwtag  DW_TAG_enumerator, DW_AT_name("USER_ErrorCode_iqFullScaleFreq_Hz_High"), DW_AT_const_
    2989              $C$DW$302       .dwtag  DW_TAG_enumerator, DW_AT_name("USER_ErrorCode_iqFullScaleFreq_Hz_Low"), DW_AT_const_v
    2990              $C$DW$303       .dwtag  DW_TAG_enumerator, DW_AT_name("USER_ErrorCode_numPwmTicksPerIsrTick_High"), DW_AT_con
    2991              $C$DW$304       .dwtag  DW_TAG_enumerator, DW_AT_name("USER_ErrorCode_numPwmTicksPerIsrTick_Low"), DW_AT_cons
    2992              $C$DW$305       .dwtag  DW_TAG_enumerator, DW_AT_name("USER_ErrorCode_numIsrTicksPerCtrlTick_High"), DW_AT_co
    2993              $C$DW$306       .dwtag  DW_TAG_enumerator, DW_AT_name("USER_ErrorCode_numIsrTicksPerCtrlTick_Low"), DW_AT_con
    2994              $C$DW$307       .dwtag  DW_TAG_enumerator, DW_AT_name("USER_ErrorCode_numCtrlTicksPerCurrentTick_High"), DW_A
    2995              $C$DW$308       .dwtag  DW_TAG_enumerator, DW_AT_name("USER_ErrorCode_numCtrlTicksPerCurrentTick_Low"), DW_AT
    2996              $C$DW$309       .dwtag  DW_TAG_enumerator, DW_AT_name("USER_ErrorCode_numCtrlTicksPerEstTick_High"), DW_AT_co
    2997              $C$DW$310       .dwtag  DW_TAG_enumerator, DW_AT_name("USER_ErrorCode_numCtrlTicksPerEstTick_Low"), DW_AT_con
    2998              $C$DW$311       .dwtag  DW_TAG_enumerator, DW_AT_name("USER_ErrorCode_numCtrlTicksPerSpeedTick_High"), DW_AT_
    2999              $C$DW$312       .dwtag  DW_TAG_enumerator, DW_AT_name("USER_ErrorCode_numCtrlTicksPerSpeedTick_Low"), DW_AT_c
    3000              $C$DW$313       .dwtag  DW_TAG_enumerator, DW_AT_name("USER_ErrorCode_numCtrlTicksPerTrajTick_High"), DW_AT_c
    3001              $C$DW$314       .dwtag  DW_TAG_enumerator, DW_AT_name("USER_ErrorCode_numCtrlTicksPerTrajTick_Low"), DW_AT_co
    3002              $C$DW$315       .dwtag  DW_TAG_enumerator, DW_AT_name("USER_ErrorCode_numCurrentSensors_High"), DW_AT_const_v
    3003              $C$DW$316       .dwtag  DW_TAG_enumerator, DW_AT_name("USER_ErrorCode_numCurrentSensors_Low"), DW_AT_const_va
    3004              $C$DW$317       .dwtag  DW_TAG_enumerator, DW_AT_name("USER_ErrorCode_numVoltageSensors_High"), DW_AT_const_v
    3005              $C$DW$318       .dwtag  DW_TAG_enumerator, DW_AT_name("USER_ErrorCode_numVoltageSensors_Low"), DW_AT_const_va
    3006              $C$DW$319       .dwtag  DW_TAG_enumerator, DW_AT_name("USER_ErrorCode_offsetPole_rps_High"), DW_AT_const_valu
    3007              $C$DW$320       .dwtag  DW_TAG_enumerator, DW_AT_name("USER_ErrorCode_offsetPole_rps_Low"), DW_AT_const_value
    3008              $C$DW$321       .dwtag  DW_TAG_enumerator, DW_AT_name("USER_ErrorCode_fluxPole_rps_High"), DW_AT_const_value(
    3009              $C$DW$322       .dwtag  DW_TAG_enumerator, DW_AT_name("USER_ErrorCode_fluxPole_rps_Low"), DW_AT_const_value(0
    3010              $C$DW$323       .dwtag  DW_TAG_enumerator, DW_AT_name("USER_ErrorCode_zeroSpeedLimit_High"), DW_AT_const_valu
    3011              $C$DW$324       .dwtag  DW_TAG_enumerator, DW_AT_name("USER_ErrorCode_zeroSpeedLimit_Low"), DW_AT_const_value
    3012              $C$DW$325       .dwtag  DW_TAG_enumerator, DW_AT_name("USER_ErrorCode_forceAngleFreq_Hz_High"), DW_AT_const_v
    3013              $C$DW$326       .dwtag  DW_TAG_enumerator, DW_AT_name("USER_ErrorCode_forceAngleFreq_Hz_Low"), DW_AT_const_va
    3014              $C$DW$327       .dwtag  DW_TAG_enumerator, DW_AT_name("USER_ErrorCode_maxAccel_Hzps_High"), DW_AT_const_value
    3015              $C$DW$328       .dwtag  DW_TAG_enumerator, DW_AT_name("USER_ErrorCode_maxAccel_Hzps_Low"), DW_AT_const_value(
    3016              $C$DW$329       .dwtag  DW_TAG_enumerator, DW_AT_name("USER_ErrorCode_maxAccel_est_Hzps_High"), DW_AT_const_v
    3017              $C$DW$330       .dwtag  DW_TAG_enumerator, DW_AT_name("USER_ErrorCode_maxAccel_est_Hzps_Low"), DW_AT_const_va
    3018              $C$DW$331       .dwtag  DW_TAG_enumerator, DW_AT_name("USER_ErrorCode_directionPole_rps_High"), DW_AT_const_v
    3019              $C$DW$332       .dwtag  DW_TAG_enumerator, DW_AT_name("USER_ErrorCode_directionPole_rps_Low"), DW_AT_const_va
    3020              $C$DW$333       .dwtag  DW_TAG_enumerator, DW_AT_name("USER_ErrorCode_speedPole_rps_High"), DW_AT_const_value
    3021              $C$DW$334       .dwtag  DW_TAG_enumerator, DW_AT_name("USER_ErrorCode_speedPole_rps_Low"), DW_AT_const_value(
    3022              $C$DW$335       .dwtag  DW_TAG_enumerator, DW_AT_name("USER_ErrorCode_dcBusPole_rps_High"), DW_AT_const_value
