TMS320C2000 Assembler PC v6.2.5 Fri Sep 29 09:29:33 2017

Tools Copyright (c) 1996-2014 Texas Instruments Incorporated
C:\Users\wmj\AppData\Local\Temp\1142410                              PAGE    1

       1              ;***************************************************************
       2              ;* TMS320C2000 C/C++ Codegen                         PC v6.2.5 *
       3              ;* Date/Time created: Fri Sep 29 09:29:33 2017                 *
       4              ;***************************************************************
       5                      .compiler_opts --float_support=softlib --hll_source=on --mem_model:code=flat --mem_model:data=large -
       6        0002  FP      .set    XAR2
       7              
       8              $C$DW$CU        .dwtag  DW_TAG_compile_unit
       9                      .dwattr $C$DW$CU, DW_AT_name("D:/BM1000/sw/drivers/drvic/modbus/mb.c")
      10                      .dwattr $C$DW$CU, DW_AT_producer("TMS320C2000 C/C++ Codegen PC v6.2.5 Copyright (c) 1996-2014 Texas I
      11                      .dwattr $C$DW$CU, DW_AT_TI_version(0x01)
      12                      .dwattr $C$DW$CU, DW_AT_comp_dir("D:\BM1000\sw\solutions\instaspin_foc\boards\hvkit_rev1p1\f28x\f2802
      13              
      14              $C$DW$1 .dwtag  DW_TAG_subprogram, DW_AT_name("SCI_enableRx")
      15                      .dwattr $C$DW$1, DW_AT_TI_symbol_name("_SCI_enableRx")
      16                      .dwattr $C$DW$1, DW_AT_declaration
      17                      .dwattr $C$DW$1, DW_AT_external
      18              $C$DW$2 .dwtag  DW_TAG_formal_parameter
      19                      .dwattr $C$DW$2, DW_AT_type(*$C$DW$T$138)
      20                      .dwendtag $C$DW$1
      21              
      22              
      23              $C$DW$3 .dwtag  DW_TAG_subprogram, DW_AT_name("SCI_enableTx")
      24                      .dwattr $C$DW$3, DW_AT_TI_symbol_name("_SCI_enableTx")
      25                      .dwattr $C$DW$3, DW_AT_declaration
      26                      .dwattr $C$DW$3, DW_AT_external
      27              $C$DW$4 .dwtag  DW_TAG_formal_parameter
      28                      .dwattr $C$DW$4, DW_AT_type(*$C$DW$T$138)
      29                      .dwendtag $C$DW$3
      30              
      31              
      32              $C$DW$5 .dwtag  DW_TAG_subprogram, DW_AT_name("TIMER_clearFlag")
      33                      .dwattr $C$DW$5, DW_AT_TI_symbol_name("_TIMER_clearFlag")
      34                      .dwattr $C$DW$5, DW_AT_declaration
      35                      .dwattr $C$DW$5, DW_AT_external
      36              $C$DW$6 .dwtag  DW_TAG_formal_parameter
      37                      .dwattr $C$DW$6, DW_AT_type(*$C$DW$T$129)
      38                      .dwendtag $C$DW$5
      39              
      40              
      41              $C$DW$7 .dwtag  DW_TAG_subprogram, DW_AT_name("SCI_disableTx")
      42                      .dwattr $C$DW$7, DW_AT_TI_symbol_name("_SCI_disableTx")
      43                      .dwattr $C$DW$7, DW_AT_declaration
      44                      .dwattr $C$DW$7, DW_AT_external
      45              $C$DW$8 .dwtag  DW_TAG_formal_parameter
      46                      .dwattr $C$DW$8, DW_AT_type(*$C$DW$T$138)
      47                      .dwendtag $C$DW$7
      48              
      49              
      50              $C$DW$9 .dwtag  DW_TAG_subprogram, DW_AT_name("SCI_disableRx")
      51                      .dwattr $C$DW$9, DW_AT_TI_symbol_name("_SCI_disableRx")
      52                      .dwattr $C$DW$9, DW_AT_declaration
      53                      .dwattr $C$DW$9, DW_AT_external
      54              $C$DW$10        .dwtag  DW_TAG_formal_parameter
      55                      .dwattr $C$DW$10, DW_AT_type(*$C$DW$T$138)
TMS320C2000 Assembler PC v6.2.5 Fri Sep 29 09:29:33 2017

Tools Copyright (c) 1996-2014 Texas Instruments Incorporated
C:\Users\wmj\AppData\Local\Temp\1142410                              PAGE    2

      56                      .dwendtag $C$DW$9
      57              
      58              
      59              $C$DW$11        .dwtag  DW_TAG_subprogram, DW_AT_name("SCI_putDataBlocking")
      60                      .dwattr $C$DW$11, DW_AT_TI_symbol_name("_SCI_putDataBlocking")
      61                      .dwattr $C$DW$11, DW_AT_declaration
      62                      .dwattr $C$DW$11, DW_AT_external
      63              $C$DW$12        .dwtag  DW_TAG_formal_parameter
      64                      .dwattr $C$DW$12, DW_AT_type(*$C$DW$T$138)
      65              $C$DW$13        .dwtag  DW_TAG_formal_parameter
      66                      .dwattr $C$DW$13, DW_AT_type(*$C$DW$T$23)
      67                      .dwendtag $C$DW$11
      68              
      69 00000000       _ucFunctionCode$2:      .usect  ".ebss",1,1,0
      70 00000001       _eException$4:  .usect  ".ebss",1,1,0
      71              
      72              $C$DW$14        .dwtag  DW_TAG_subprogram, DW_AT_name("SCI_getDataBlocking")
      73                      .dwattr $C$DW$14, DW_AT_TI_symbol_name("_SCI_getDataBlocking")
      74                      .dwattr $C$DW$14, DW_AT_type(*$C$DW$T$23)
      75                      .dwattr $C$DW$14, DW_AT_declaration
      76                      .dwattr $C$DW$14, DW_AT_external
      77              $C$DW$15        .dwtag  DW_TAG_formal_parameter
      78                      .dwattr $C$DW$15, DW_AT_type(*$C$DW$T$138)
      79                      .dwendtag $C$DW$14
      80              
      81 00000002       _ucMBFrame$1:   .usect  ".ebss",2,1,1
      82                      .global _aucCRCLo
      83 00000000               .sect   ".econst:.string:_aucCRCLo"
      84                      .clink
      85                      .align  1
      86 00000000       _aucCRCLo:
      87 00000000 0000          .bits   0,16                    ; _aucCRCLo[0] @ 0
      88 00000001 00C0          .bits   192,16                  ; _aucCRCLo[1] @ 16
      89 00000002 00C1          .bits   193,16                  ; _aucCRCLo[2] @ 32
      90 00000003 0001          .bits   1,16                    ; _aucCRCLo[3] @ 48
      91 00000004 00C3          .bits   195,16                  ; _aucCRCLo[4] @ 64
      92 00000005 0003          .bits   3,16                    ; _aucCRCLo[5] @ 80
      93 00000006 0002          .bits   2,16                    ; _aucCRCLo[6] @ 96
      94 00000007 00C2          .bits   194,16                  ; _aucCRCLo[7] @ 112
      95 00000008 00C6          .bits   198,16                  ; _aucCRCLo[8] @ 128
      96 00000009 0006          .bits   6,16                    ; _aucCRCLo[9] @ 144
      97 0000000a 0007          .bits   7,16                    ; _aucCRCLo[10] @ 160
      98 0000000b 00C7          .bits   199,16                  ; _aucCRCLo[11] @ 176
      99 0000000c 0005          .bits   5,16                    ; _aucCRCLo[12] @ 192
     100 0000000d 00C5          .bits   197,16                  ; _aucCRCLo[13] @ 208
     101 0000000e 00C4          .bits   196,16                  ; _aucCRCLo[14] @ 224
     102 0000000f 0004          .bits   4,16                    ; _aucCRCLo[15] @ 240
     103 00000010 00CC          .bits   204,16                  ; _aucCRCLo[16] @ 256
     104 00000011 000C          .bits   12,16                   ; _aucCRCLo[17] @ 272
     105 00000012 000D          .bits   13,16                   ; _aucCRCLo[18] @ 288
     106 00000013 00CD          .bits   205,16                  ; _aucCRCLo[19] @ 304
     107 00000014 000F          .bits   15,16                   ; _aucCRCLo[20] @ 320
     108 00000015 00CF          .bits   207,16                  ; _aucCRCLo[21] @ 336
     109 00000016 00CE          .bits   206,16                  ; _aucCRCLo[22] @ 352
     110 00000017 000E          .bits   14,16                   ; _aucCRCLo[23] @ 368
TMS320C2000 Assembler PC v6.2.5 Fri Sep 29 09:29:33 2017

Tools Copyright (c) 1996-2014 Texas Instruments Incorporated
C:\Users\wmj\AppData\Local\Temp\1142410                              PAGE    3

     111 00000018 000A          .bits   10,16                   ; _aucCRCLo[24] @ 384
     112 00000019 00CA          .bits   202,16                  ; _aucCRCLo[25] @ 400
     113 0000001a 00CB          .bits   203,16                  ; _aucCRCLo[26] @ 416
     114 0000001b 000B          .bits   11,16                   ; _aucCRCLo[27] @ 432
     115 0000001c 00C9          .bits   201,16                  ; _aucCRCLo[28] @ 448
     116 0000001d 0009          .bits   9,16                    ; _aucCRCLo[29] @ 464
     117 0000001e 0008          .bits   8,16                    ; _aucCRCLo[30] @ 480
     118 0000001f 00C8          .bits   200,16                  ; _aucCRCLo[31] @ 496
     119 00000020 00D8          .bits   216,16                  ; _aucCRCLo[32] @ 512
     120 00000021 0018          .bits   24,16                   ; _aucCRCLo[33] @ 528
     121 00000022 0019          .bits   25,16                   ; _aucCRCLo[34] @ 544
     122 00000023 00D9          .bits   217,16                  ; _aucCRCLo[35] @ 560
     123 00000024 001B          .bits   27,16                   ; _aucCRCLo[36] @ 576
     124 00000025 00DB          .bits   219,16                  ; _aucCRCLo[37] @ 592
     125 00000026 00DA          .bits   218,16                  ; _aucCRCLo[38] @ 608
     126 00000027 001A          .bits   26,16                   ; _aucCRCLo[39] @ 624
     127 00000028 001E          .bits   30,16                   ; _aucCRCLo[40] @ 640
     128 00000029 00DE          .bits   222,16                  ; _aucCRCLo[41] @ 656
     129 0000002a 00DF          .bits   223,16                  ; _aucCRCLo[42] @ 672
     130 0000002b 001F          .bits   31,16                   ; _aucCRCLo[43] @ 688
     131 0000002c 00DD          .bits   221,16                  ; _aucCRCLo[44] @ 704
     132 0000002d 001D          .bits   29,16                   ; _aucCRCLo[45] @ 720
     133 0000002e 001C          .bits   28,16                   ; _aucCRCLo[46] @ 736
     134 0000002f 00DC          .bits   220,16                  ; _aucCRCLo[47] @ 752
     135 00000030 0014          .bits   20,16                   ; _aucCRCLo[48] @ 768
     136 00000031 00D4          .bits   212,16                  ; _aucCRCLo[49] @ 784
     137 00000032 00D5          .bits   213,16                  ; _aucCRCLo[50] @ 800
     138 00000033 0015          .bits   21,16                   ; _aucCRCLo[51] @ 816
     139 00000034 00D7          .bits   215,16                  ; _aucCRCLo[52] @ 832
     140 00000035 0017          .bits   23,16                   ; _aucCRCLo[53] @ 848
     141 00000036 0016          .bits   22,16                   ; _aucCRCLo[54] @ 864
     142 00000037 00D6          .bits   214,16                  ; _aucCRCLo[55] @ 880
     143 00000038 00D2          .bits   210,16                  ; _aucCRCLo[56] @ 896
     144 00000039 0012          .bits   18,16                   ; _aucCRCLo[57] @ 912
     145 0000003a 0013          .bits   19,16                   ; _aucCRCLo[58] @ 928
     146 0000003b 00D3          .bits   211,16                  ; _aucCRCLo[59] @ 944
     147 0000003c 0011          .bits   17,16                   ; _aucCRCLo[60] @ 960
     148 0000003d 00D1          .bits   209,16                  ; _aucCRCLo[61] @ 976
     149 0000003e 00D0          .bits   208,16                  ; _aucCRCLo[62] @ 992
     150 0000003f 0010          .bits   16,16                   ; _aucCRCLo[63] @ 1008
     151 00000040 00F0          .bits   240,16                  ; _aucCRCLo[64] @ 1024
     152 00000041 0030          .bits   48,16                   ; _aucCRCLo[65] @ 1040
     153 00000042 0031          .bits   49,16                   ; _aucCRCLo[66] @ 1056
     154 00000043 00F1          .bits   241,16                  ; _aucCRCLo[67] @ 1072
     155 00000044 0033          .bits   51,16                   ; _aucCRCLo[68] @ 1088
     156 00000045 00F3          .bits   243,16                  ; _aucCRCLo[69] @ 1104
     157 00000046 00F2          .bits   242,16                  ; _aucCRCLo[70] @ 1120
     158 00000047 0032          .bits   50,16                   ; _aucCRCLo[71] @ 1136
     159 00000048 0036          .bits   54,16                   ; _aucCRCLo[72] @ 1152
     160 00000049 00F6          .bits   246,16                  ; _aucCRCLo[73] @ 1168
     161 0000004a 00F7          .bits   247,16                  ; _aucCRCLo[74] @ 1184
     162 0000004b 0037          .bits   55,16                   ; _aucCRCLo[75] @ 1200
     163 0000004c 00F5          .bits   245,16                  ; _aucCRCLo[76] @ 1216
     164 0000004d 0035          .bits   53,16                   ; _aucCRCLo[77] @ 1232
     165 0000004e 0034          .bits   52,16                   ; _aucCRCLo[78] @ 1248
TMS320C2000 Assembler PC v6.2.5 Fri Sep 29 09:29:33 2017

Tools Copyright (c) 1996-2014 Texas Instruments Incorporated
C:\Users\wmj\AppData\Local\Temp\1142410                              PAGE    4

     166 0000004f 00F4          .bits   244,16                  ; _aucCRCLo[79] @ 1264
     167 00000050 003C          .bits   60,16                   ; _aucCRCLo[80] @ 1280
     168 00000051 00FC          .bits   252,16                  ; _aucCRCLo[81] @ 1296
     169 00000052 00FD          .bits   253,16                  ; _aucCRCLo[82] @ 1312
     170 00000053 003D          .bits   61,16                   ; _aucCRCLo[83] @ 1328
     171 00000054 00FF          .bits   255,16                  ; _aucCRCLo[84] @ 1344
     172 00000055 003F          .bits   63,16                   ; _aucCRCLo[85] @ 1360
     173 00000056 003E          .bits   62,16                   ; _aucCRCLo[86] @ 1376
     174 00000057 00FE          .bits   254,16                  ; _aucCRCLo[87] @ 1392
     175 00000058 00FA          .bits   250,16                  ; _aucCRCLo[88] @ 1408
     176 00000059 003A          .bits   58,16                   ; _aucCRCLo[89] @ 1424
     177 0000005a 003B          .bits   59,16                   ; _aucCRCLo[90] @ 1440
     178 0000005b 00FB          .bits   251,16                  ; _aucCRCLo[91] @ 1456
     179 0000005c 0039          .bits   57,16                   ; _aucCRCLo[92] @ 1472
     180 0000005d 00F9          .bits   249,16                  ; _aucCRCLo[93] @ 1488
     181 0000005e 00F8          .bits   248,16                  ; _aucCRCLo[94] @ 1504
     182 0000005f 0038          .bits   56,16                   ; _aucCRCLo[95] @ 1520
     183 00000060 0028          .bits   40,16                   ; _aucCRCLo[96] @ 1536
     184 00000061 00E8          .bits   232,16                  ; _aucCRCLo[97] @ 1552
     185 00000062 00E9          .bits   233,16                  ; _aucCRCLo[98] @ 1568
     186 00000063 0029          .bits   41,16                   ; _aucCRCLo[99] @ 1584
     187 00000064 00EB          .bits   235,16                  ; _aucCRCLo[100] @ 1600
     188 00000065 002B          .bits   43,16                   ; _aucCRCLo[101] @ 1616
     189 00000066 002A          .bits   42,16                   ; _aucCRCLo[102] @ 1632
     190 00000067 00EA          .bits   234,16                  ; _aucCRCLo[103] @ 1648
     191 00000068 00EE          .bits   238,16                  ; _aucCRCLo[104] @ 1664
     192 00000069 002E          .bits   46,16                   ; _aucCRCLo[105] @ 1680
     193 0000006a 002F          .bits   47,16                   ; _aucCRCLo[106] @ 1696
     194 0000006b 00EF          .bits   239,16                  ; _aucCRCLo[107] @ 1712
     195 0000006c 002D          .bits   45,16                   ; _aucCRCLo[108] @ 1728
     196 0000006d 00ED          .bits   237,16                  ; _aucCRCLo[109] @ 1744
     197 0000006e 00EC          .bits   236,16                  ; _aucCRCLo[110] @ 1760
     198 0000006f 002C          .bits   44,16                   ; _aucCRCLo[111] @ 1776
     199 00000070 00E4          .bits   228,16                  ; _aucCRCLo[112] @ 1792
     200 00000071 0024          .bits   36,16                   ; _aucCRCLo[113] @ 1808
     201 00000072 0025          .bits   37,16                   ; _aucCRCLo[114] @ 1824
     202 00000073 00E5          .bits   229,16                  ; _aucCRCLo[115] @ 1840
     203 00000074 0027          .bits   39,16                   ; _aucCRCLo[116] @ 1856
     204 00000075 00E7          .bits   231,16                  ; _aucCRCLo[117] @ 1872
     205 00000076 00E6          .bits   230,16                  ; _aucCRCLo[118] @ 1888
     206 00000077 0026          .bits   38,16                   ; _aucCRCLo[119] @ 1904
     207 00000078 0022          .bits   34,16                   ; _aucCRCLo[120] @ 1920
     208 00000079 00E2          .bits   226,16                  ; _aucCRCLo[121] @ 1936
     209 0000007a 00E3          .bits   227,16                  ; _aucCRCLo[122] @ 1952
     210 0000007b 0023          .bits   35,16                   ; _aucCRCLo[123] @ 1968
     211 0000007c 00E1          .bits   225,16                  ; _aucCRCLo[124] @ 1984
     212 0000007d 0021          .bits   33,16                   ; _aucCRCLo[125] @ 2000
     213 0000007e 0020          .bits   32,16                   ; _aucCRCLo[126] @ 2016
     214 0000007f 00E0          .bits   224,16                  ; _aucCRCLo[127] @ 2032
     215 00000080 00A0          .bits   160,16                  ; _aucCRCLo[128] @ 2048
     216 00000081 0060          .bits   96,16                   ; _aucCRCLo[129] @ 2064
     217 00000082 0061          .bits   97,16                   ; _aucCRCLo[130] @ 2080
     218 00000083 00A1          .bits   161,16                  ; _aucCRCLo[131] @ 2096
     219 00000084 0063          .bits   99,16                   ; _aucCRCLo[132] @ 2112
     220 00000085 00A3          .bits   163,16                  ; _aucCRCLo[133] @ 2128
TMS320C2000 Assembler PC v6.2.5 Fri Sep 29 09:29:33 2017

Tools Copyright (c) 1996-2014 Texas Instruments Incorporated
C:\Users\wmj\AppData\Local\Temp\1142410                              PAGE    5

     221 00000086 00A2          .bits   162,16                  ; _aucCRCLo[134] @ 2144
     222 00000087 0062          .bits   98,16                   ; _aucCRCLo[135] @ 2160
     223 00000088 0066          .bits   102,16                  ; _aucCRCLo[136] @ 2176
     224 00000089 00A6          .bits   166,16                  ; _aucCRCLo[137] @ 2192
     225 0000008a 00A7          .bits   167,16                  ; _aucCRCLo[138] @ 2208
     226 0000008b 0067          .bits   103,16                  ; _aucCRCLo[139] @ 2224
     227 0000008c 00A5          .bits   165,16                  ; _aucCRCLo[140] @ 2240
     228 0000008d 0065          .bits   101,16                  ; _aucCRCLo[141] @ 2256
     229 0000008e 0064          .bits   100,16                  ; _aucCRCLo[142] @ 2272
     230 0000008f 00A4          .bits   164,16                  ; _aucCRCLo[143] @ 2288
     231 00000090 006C          .bits   108,16                  ; _aucCRCLo[144] @ 2304
     232 00000091 00AC          .bits   172,16                  ; _aucCRCLo[145] @ 2320
     233 00000092 00AD          .bits   173,16                  ; _aucCRCLo[146] @ 2336
     234 00000093 006D          .bits   109,16                  ; _aucCRCLo[147] @ 2352
     235 00000094 00AF          .bits   175,16                  ; _aucCRCLo[148] @ 2368
     236 00000095 006F          .bits   111,16                  ; _aucCRCLo[149] @ 2384
     237 00000096 006E          .bits   110,16                  ; _aucCRCLo[150] @ 2400
     238 00000097 00AE          .bits   174,16                  ; _aucCRCLo[151] @ 2416
     239 00000098 00AA          .bits   170,16                  ; _aucCRCLo[152] @ 2432
     240 00000099 006A          .bits   106,16                  ; _aucCRCLo[153] @ 2448
     241 0000009a 006B          .bits   107,16                  ; _aucCRCLo[154] @ 2464
     242 0000009b 00AB          .bits   171,16                  ; _aucCRCLo[155] @ 2480
     243 0000009c 0069          .bits   105,16                  ; _aucCRCLo[156] @ 2496
     244 0000009d 00A9          .bits   169,16                  ; _aucCRCLo[157] @ 2512
     245 0000009e 00A8          .bits   168,16                  ; _aucCRCLo[158] @ 2528
     246 0000009f 0068          .bits   104,16                  ; _aucCRCLo[159] @ 2544
     247 000000a0 0078          .bits   120,16                  ; _aucCRCLo[160] @ 2560
     248 000000a1 00B8          .bits   184,16                  ; _aucCRCLo[161] @ 2576
     249 000000a2 00B9          .bits   185,16                  ; _aucCRCLo[162] @ 2592
     250 000000a3 0079          .bits   121,16                  ; _aucCRCLo[163] @ 2608
     251 000000a4 00BB          .bits   187,16                  ; _aucCRCLo[164] @ 2624
     252 000000a5 007B          .bits   123,16                  ; _aucCRCLo[165] @ 2640
     253 000000a6 007A          .bits   122,16                  ; _aucCRCLo[166] @ 2656
     254 000000a7 00BA          .bits   186,16                  ; _aucCRCLo[167] @ 2672
     255 000000a8 00BE          .bits   190,16                  ; _aucCRCLo[168] @ 2688
     256 000000a9 007E          .bits   126,16                  ; _aucCRCLo[169] @ 2704
     257 000000aa 007F          .bits   127,16                  ; _aucCRCLo[170] @ 2720
     258 000000ab 00BF          .bits   191,16                  ; _aucCRCLo[171] @ 2736
     259 000000ac 007D          .bits   125,16                  ; _aucCRCLo[172] @ 2752
     260 000000ad 00BD          .bits   189,16                  ; _aucCRCLo[173] @ 2768
     261 000000ae 00BC          .bits   188,16                  ; _aucCRCLo[174] @ 2784
     262 000000af 007C          .bits   124,16                  ; _aucCRCLo[175] @ 2800
     263 000000b0 00B4          .bits   180,16                  ; _aucCRCLo[176] @ 2816
     264 000000b1 0074          .bits   116,16                  ; _aucCRCLo[177] @ 2832
     265 000000b2 0075          .bits   117,16                  ; _aucCRCLo[178] @ 2848
     266 000000b3 00B5          .bits   181,16                  ; _aucCRCLo[179] @ 2864
     267 000000b4 0077          .bits   119,16                  ; _aucCRCLo[180] @ 2880
     268 000000b5 00B7          .bits   183,16                  ; _aucCRCLo[181] @ 2896
     269 000000b6 00B6          .bits   182,16                  ; _aucCRCLo[182] @ 2912
     270 000000b7 0076          .bits   118,16                  ; _aucCRCLo[183] @ 2928
     271 000000b8 0072          .bits   114,16                  ; _aucCRCLo[184] @ 2944
     272 000000b9 00B2          .bits   178,16                  ; _aucCRCLo[185] @ 2960
     273 000000ba 00B3          .bits   179,16                  ; _aucCRCLo[186] @ 2976
     274 000000bb 0073          .bits   115,16                  ; _aucCRCLo[187] @ 2992
     275 000000bc 00B1          .bits   177,16                  ; _aucCRCLo[188] @ 3008
TMS320C2000 Assembler PC v6.2.5 Fri Sep 29 09:29:33 2017

Tools Copyright (c) 1996-2014 Texas Instruments Incorporated
C:\Users\wmj\AppData\Local\Temp\1142410                              PAGE    6

     276 000000bd 0071          .bits   113,16                  ; _aucCRCLo[189] @ 3024
     277 000000be 0070          .bits   112,16                  ; _aucCRCLo[190] @ 3040
     278 000000bf 00B0          .bits   176,16                  ; _aucCRCLo[191] @ 3056
     279 000000c0 0050          .bits   80,16                   ; _aucCRCLo[192] @ 3072
     280 000000c1 0090          .bits   144,16                  ; _aucCRCLo[193] @ 3088
     281 000000c2 0091          .bits   145,16                  ; _aucCRCLo[194] @ 3104
     282 000000c3 0051          .bits   81,16                   ; _aucCRCLo[195] @ 3120
     283 000000c4 0093          .bits   147,16                  ; _aucCRCLo[196] @ 3136
     284 000000c5 0053          .bits   83,16                   ; _aucCRCLo[197] @ 3152
     285 000000c6 0052          .bits   82,16                   ; _aucCRCLo[198] @ 3168
     286 000000c7 0092          .bits   146,16                  ; _aucCRCLo[199] @ 3184
     287 000000c8 0096          .bits   150,16                  ; _aucCRCLo[200] @ 3200
     288 000000c9 0056          .bits   86,16                   ; _aucCRCLo[201] @ 3216
     289 000000ca 0057          .bits   87,16                   ; _aucCRCLo[202] @ 3232
     290 000000cb 0097          .bits   151,16                  ; _aucCRCLo[203] @ 3248
     291 000000cc 0055          .bits   85,16                   ; _aucCRCLo[204] @ 3264
     292 000000cd 0095          .bits   149,16                  ; _aucCRCLo[205] @ 3280
     293 000000ce 0094          .bits   148,16                  ; _aucCRCLo[206] @ 3296
     294 000000cf 0054          .bits   84,16                   ; _aucCRCLo[207] @ 3312
     295 000000d0 009C          .bits   156,16                  ; _aucCRCLo[208] @ 3328
     296 000000d1 005C          .bits   92,16                   ; _aucCRCLo[209] @ 3344
     297 000000d2 005D          .bits   93,16                   ; _aucCRCLo[210] @ 3360
     298 000000d3 009D          .bits   157,16                  ; _aucCRCLo[211] @ 3376
     299 000000d4 005F          .bits   95,16                   ; _aucCRCLo[212] @ 3392
     300 000000d5 009F          .bits   159,16                  ; _aucCRCLo[213] @ 3408
     301 000000d6 009E          .bits   158,16                  ; _aucCRCLo[214] @ 3424
     302 000000d7 005E          .bits   94,16                   ; _aucCRCLo[215] @ 3440
     303 000000d8 005A          .bits   90,16                   ; _aucCRCLo[216] @ 3456
     304 000000d9 009A          .bits   154,16                  ; _aucCRCLo[217] @ 3472
     305 000000da 009B          .bits   155,16                  ; _aucCRCLo[218] @ 3488
     306 000000db 005B          .bits   91,16                   ; _aucCRCLo[219] @ 3504
     307 000000dc 0099          .bits   153,16                  ; _aucCRCLo[220] @ 3520
     308 000000dd 0059          .bits   89,16                   ; _aucCRCLo[221] @ 3536
     309 000000de 0058          .bits   88,16                   ; _aucCRCLo[222] @ 3552
     310 000000df 0098          .bits   152,16                  ; _aucCRCLo[223] @ 3568
     311 000000e0 0088          .bits   136,16                  ; _aucCRCLo[224] @ 3584
     312 000000e1 0048          .bits   72,16                   ; _aucCRCLo[225] @ 3600
     313 000000e2 0049          .bits   73,16                   ; _aucCRCLo[226] @ 3616
     314 000000e3 0089          .bits   137,16                  ; _aucCRCLo[227] @ 3632
     315 000000e4 004B          .bits   75,16                   ; _aucCRCLo[228] @ 3648
     316 000000e5 008B          .bits   139,16                  ; _aucCRCLo[229] @ 3664
     317 000000e6 008A          .bits   138,16                  ; _aucCRCLo[230] @ 3680
     318 000000e7 004A          .bits   74,16                   ; _aucCRCLo[231] @ 3696
     319 000000e8 004E          .bits   78,16                   ; _aucCRCLo[232] @ 3712
     320 000000e9 008E          .bits   142,16                  ; _aucCRCLo[233] @ 3728
     321 000000ea 008F          .bits   143,16                  ; _aucCRCLo[234] @ 3744
     322 000000eb 004F          .bits   79,16                   ; _aucCRCLo[235] @ 3760
     323 000000ec 008D          .bits   141,16                  ; _aucCRCLo[236] @ 3776
     324 000000ed 004D          .bits   77,16                   ; _aucCRCLo[237] @ 3792
     325 000000ee 004C          .bits   76,16                   ; _aucCRCLo[238] @ 3808
     326 000000ef 008C          .bits   140,16                  ; _aucCRCLo[239] @ 3824
     327 000000f0 0044          .bits   68,16                   ; _aucCRCLo[240] @ 3840
     328 000000f1 0084          .bits   132,16                  ; _aucCRCLo[241] @ 3856
     329 000000f2 0085          .bits   133,16                  ; _aucCRCLo[242] @ 3872
     330 000000f3 0045          .bits   69,16                   ; _aucCRCLo[243] @ 3888
TMS320C2000 Assembler PC v6.2.5 Fri Sep 29 09:29:33 2017

Tools Copyright (c) 1996-2014 Texas Instruments Incorporated
C:\Users\wmj\AppData\Local\Temp\1142410                              PAGE    7

     331 000000f4 0087          .bits   135,16                  ; _aucCRCLo[244] @ 3904
     332 000000f5 0047          .bits   71,16                   ; _aucCRCLo[245] @ 3920
     333 000000f6 0046          .bits   70,16                   ; _aucCRCLo[246] @ 3936
     334 000000f7 0086          .bits   134,16                  ; _aucCRCLo[247] @ 3952
     335 000000f8 0082          .bits   130,16                  ; _aucCRCLo[248] @ 3968
     336 000000f9 0042          .bits   66,16                   ; _aucCRCLo[249] @ 3984
     337 000000fa 0043          .bits   67,16                   ; _aucCRCLo[250] @ 4000
     338 000000fb 0083          .bits   131,16                  ; _aucCRCLo[251] @ 4016
     339 000000fc 0041          .bits   65,16                   ; _aucCRCLo[252] @ 4032
     340 000000fd 0081          .bits   129,16                  ; _aucCRCLo[253] @ 4048
     341 000000fe 0080          .bits   128,16                  ; _aucCRCLo[254] @ 4064
     342 000000ff 0040          .bits   64,16                   ; _aucCRCLo[255] @ 4080
     343              
     344              $C$DW$16        .dwtag  DW_TAG_variable, DW_AT_name("aucCRCLo")
     345                      .dwattr $C$DW$16, DW_AT_TI_symbol_name("_aucCRCLo")
     346                      .dwattr $C$DW$16, DW_AT_location[DW_OP_addr _aucCRCLo]
     347                      .dwattr $C$DW$16, DW_AT_type(*$C$DW$T$278)
     348                      .dwattr $C$DW$16, DW_AT_external
     349                      .global _aucCRCHi
     350 00000000               .sect   ".econst:.string:_aucCRCHi"
     351                      .clink
     352                      .align  1
     353 00000000       _aucCRCHi:
     354 00000000 0000          .bits   0,16                    ; _aucCRCHi[0] @ 0
     355 00000001 00C1          .bits   193,16                  ; _aucCRCHi[1] @ 16
     356 00000002 0081          .bits   129,16                  ; _aucCRCHi[2] @ 32
     357 00000003 0040          .bits   64,16                   ; _aucCRCHi[3] @ 48
     358 00000004 0001          .bits   1,16                    ; _aucCRCHi[4] @ 64
     359 00000005 00C0          .bits   192,16                  ; _aucCRCHi[5] @ 80
     360 00000006 0080          .bits   128,16                  ; _aucCRCHi[6] @ 96
     361 00000007 0041          .bits   65,16                   ; _aucCRCHi[7] @ 112
     362 00000008 0001          .bits   1,16                    ; _aucCRCHi[8] @ 128
     363 00000009 00C0          .bits   192,16                  ; _aucCRCHi[9] @ 144
     364 0000000a 0080          .bits   128,16                  ; _aucCRCHi[10] @ 160
     365 0000000b 0041          .bits   65,16                   ; _aucCRCHi[11] @ 176
     366 0000000c 0000          .bits   0,16                    ; _aucCRCHi[12] @ 192
     367 0000000d 00C1          .bits   193,16                  ; _aucCRCHi[13] @ 208
     368 0000000e 0081          .bits   129,16                  ; _aucCRCHi[14] @ 224
     369 0000000f 0040          .bits   64,16                   ; _aucCRCHi[15] @ 240
     370 00000010 0001          .bits   1,16                    ; _aucCRCHi[16] @ 256
     371 00000011 00C0          .bits   192,16                  ; _aucCRCHi[17] @ 272
     372 00000012 0080          .bits   128,16                  ; _aucCRCHi[18] @ 288
     373 00000013 0041          .bits   65,16                   ; _aucCRCHi[19] @ 304
     374 00000014 0000          .bits   0,16                    ; _aucCRCHi[20] @ 320
     375 00000015 00C1          .bits   193,16                  ; _aucCRCHi[21] @ 336
     376 00000016 0081          .bits   129,16                  ; _aucCRCHi[22] @ 352
     377 00000017 0040          .bits   64,16                   ; _aucCRCHi[23] @ 368
     378 00000018 0000          .bits   0,16                    ; _aucCRCHi[24] @ 384
     379 00000019 00C1          .bits   193,16                  ; _aucCRCHi[25] @ 400
     380 0000001a 0081          .bits   129,16                  ; _aucCRCHi[26] @ 416
     381 0000001b 0040          .bits   64,16                   ; _aucCRCHi[27] @ 432
     382 0000001c 0001          .bits   1,16                    ; _aucCRCHi[28] @ 448
     383 0000001d 00C0          .bits   192,16                  ; _aucCRCHi[29] @ 464
     384 0000001e 0080          .bits   128,16                  ; _aucCRCHi[30] @ 480
     385 0000001f 0041          .bits   65,16                   ; _aucCRCHi[31] @ 496
TMS320C2000 Assembler PC v6.2.5 Fri Sep 29 09:29:33 2017

Tools Copyright (c) 1996-2014 Texas Instruments Incorporated
C:\Users\wmj\AppData\Local\Temp\1142410                              PAGE    8

     386 00000020 0001          .bits   1,16                    ; _aucCRCHi[32] @ 512
     387 00000021 00C0          .bits   192,16                  ; _aucCRCHi[33] @ 528
     388 00000022 0080          .bits   128,16                  ; _aucCRCHi[34] @ 544
     389 00000023 0041          .bits   65,16                   ; _aucCRCHi[35] @ 560
     390 00000024 0000          .bits   0,16                    ; _aucCRCHi[36] @ 576
     391 00000025 00C1          .bits   193,16                  ; _aucCRCHi[37] @ 592
     392 00000026 0081          .bits   129,16                  ; _aucCRCHi[38] @ 608
     393 00000027 0040          .bits   64,16                   ; _aucCRCHi[39] @ 624
     394 00000028 0000          .bits   0,16                    ; _aucCRCHi[40] @ 640
     395 00000029 00C1          .bits   193,16                  ; _aucCRCHi[41] @ 656
     396 0000002a 0081          .bits   129,16                  ; _aucCRCHi[42] @ 672
     397 0000002b 0040          .bits   64,16                   ; _aucCRCHi[43] @ 688
     398 0000002c 0001          .bits   1,16                    ; _aucCRCHi[44] @ 704
     399 0000002d 00C0          .bits   192,16                  ; _aucCRCHi[45] @ 720
     400 0000002e 0080          .bits   128,16                  ; _aucCRCHi[46] @ 736
     401 0000002f 0041          .bits   65,16                   ; _aucCRCHi[47] @ 752
     402 00000030 0000          .bits   0,16                    ; _aucCRCHi[48] @ 768
     403 00000031 00C1          .bits   193,16                  ; _aucCRCHi[49] @ 784
     404 00000032 0081          .bits   129,16                  ; _aucCRCHi[50] @ 800
     405 00000033 0040          .bits   64,16                   ; _aucCRCHi[51] @ 816
     406 00000034 0001          .bits   1,16                    ; _aucCRCHi[52] @ 832
     407 00000035 00C0          .bits   192,16                  ; _aucCRCHi[53] @ 848
     408 00000036 0080          .bits   128,16                  ; _aucCRCHi[54] @ 864
     409 00000037 0041          .bits   65,16                   ; _aucCRCHi[55] @ 880
     410 00000038 0001          .bits   1,16                    ; _aucCRCHi[56] @ 896
     411 00000039 00C0          .bits   192,16                  ; _aucCRCHi[57] @ 912
     412 0000003a 0080          .bits   128,16                  ; _aucCRCHi[58] @ 928
     413 0000003b 0041          .bits   65,16                   ; _aucCRCHi[59] @ 944
     414 0000003c 0000          .bits   0,16                    ; _aucCRCHi[60] @ 960
     415 0000003d 00C1          .bits   193,16                  ; _aucCRCHi[61] @ 976
     416 0000003e 0081          .bits   129,16                  ; _aucCRCHi[62] @ 992
     417 0000003f 0040          .bits   64,16                   ; _aucCRCHi[63] @ 1008
     418 00000040 0001          .bits   1,16                    ; _aucCRCHi[64] @ 1024
     419 00000041 00C0          .bits   192,16                  ; _aucCRCHi[65] @ 1040
     420 00000042 0080          .bits   128,16                  ; _aucCRCHi[66] @ 1056
     421 00000043 0041          .bits   65,16                   ; _aucCRCHi[67] @ 1072
     422 00000044 0000          .bits   0,16                    ; _aucCRCHi[68] @ 1088
     423 00000045 00C1          .bits   193,16                  ; _aucCRCHi[69] @ 1104
     424 00000046 0081          .bits   129,16                  ; _aucCRCHi[70] @ 1120
     425 00000047 0040          .bits   64,16                   ; _aucCRCHi[71] @ 1136
     426 00000048 0000          .bits   0,16                    ; _aucCRCHi[72] @ 1152
     427 00000049 00C1          .bits   193,16                  ; _aucCRCHi[73] @ 1168
     428 0000004a 0081          .bits   129,16                  ; _aucCRCHi[74] @ 1184
     429 0000004b 0040          .bits   64,16                   ; _aucCRCHi[75] @ 1200
     430 0000004c 0001          .bits   1,16                    ; _aucCRCHi[76] @ 1216
     431 0000004d 00C0          .bits   192,16                  ; _aucCRCHi[77] @ 1232
     432 0000004e 0080          .bits   128,16                  ; _aucCRCHi[78] @ 1248
     433 0000004f 0041          .bits   65,16                   ; _aucCRCHi[79] @ 1264
     434 00000050 0000          .bits   0,16                    ; _aucCRCHi[80] @ 1280
     435 00000051 00C1          .bits   193,16                  ; _aucCRCHi[81] @ 1296
     436 00000052 0081          .bits   129,16                  ; _aucCRCHi[82] @ 1312
     437 00000053 0040          .bits   64,16                   ; _aucCRCHi[83] @ 1328
     438 00000054 0001          .bits   1,16                    ; _aucCRCHi[84] @ 1344
     439 00000055 00C0          .bits   192,16                  ; _aucCRCHi[85] @ 1360
     440 00000056 0080          .bits   128,16                  ; _aucCRCHi[86] @ 1376
TMS320C2000 Assembler PC v6.2.5 Fri Sep 29 09:29:33 2017

Tools Copyright (c) 1996-2014 Texas Instruments Incorporated
C:\Users\wmj\AppData\Local\Temp\1142410                              PAGE    9

     441 00000057 0041          .bits   65,16                   ; _aucCRCHi[87] @ 1392
     442 00000058 0001          .bits   1,16                    ; _aucCRCHi[88] @ 1408
     443 00000059 00C0          .bits   192,16                  ; _aucCRCHi[89] @ 1424
     444 0000005a 0080          .bits   128,16                  ; _aucCRCHi[90] @ 1440
     445 0000005b 0041          .bits   65,16                   ; _aucCRCHi[91] @ 1456
     446 0000005c 0000          .bits   0,16                    ; _aucCRCHi[92] @ 1472
     447 0000005d 00C1          .bits   193,16                  ; _aucCRCHi[93] @ 1488
     448 0000005e 0081          .bits   129,16                  ; _aucCRCHi[94] @ 1504
     449 0000005f 0040          .bits   64,16                   ; _aucCRCHi[95] @ 1520
     450 00000060 0000          .bits   0,16                    ; _aucCRCHi[96] @ 1536
     451 00000061 00C1          .bits   193,16                  ; _aucCRCHi[97] @ 1552
     452 00000062 0081          .bits   129,16                  ; _aucCRCHi[98] @ 1568
     453 00000063 0040          .bits   64,16                   ; _aucCRCHi[99] @ 1584
     454 00000064 0001          .bits   1,16                    ; _aucCRCHi[100] @ 1600
     455 00000065 00C0          .bits   192,16                  ; _aucCRCHi[101] @ 1616
     456 00000066 0080          .bits   128,16                  ; _aucCRCHi[102] @ 1632
     457 00000067 0041          .bits   65,16                   ; _aucCRCHi[103] @ 1648
     458 00000068 0001          .bits   1,16                    ; _aucCRCHi[104] @ 1664
     459 00000069 00C0          .bits   192,16                  ; _aucCRCHi[105] @ 1680
     460 0000006a 0080          .bits   128,16                  ; _aucCRCHi[106] @ 1696
     461 0000006b 0041          .bits   65,16                   ; _aucCRCHi[107] @ 1712
     462 0000006c 0000          .bits   0,16                    ; _aucCRCHi[108] @ 1728
     463 0000006d 00C1          .bits   193,16                  ; _aucCRCHi[109] @ 1744
     464 0000006e 0081          .bits   129,16                  ; _aucCRCHi[110] @ 1760
     465 0000006f 0040          .bits   64,16                   ; _aucCRCHi[111] @ 1776
     466 00000070 0001          .bits   1,16                    ; _aucCRCHi[112] @ 1792
     467 00000071 00C0          .bits   192,16                  ; _aucCRCHi[113] @ 1808
     468 00000072 0080          .bits   128,16                  ; _aucCRCHi[114] @ 1824
     469 00000073 0041          .bits   65,16                   ; _aucCRCHi[115] @ 1840
     470 00000074 0000          .bits   0,16                    ; _aucCRCHi[116] @ 1856
     471 00000075 00C1          .bits   193,16                  ; _aucCRCHi[117] @ 1872
     472 00000076 0081          .bits   129,16                  ; _aucCRCHi[118] @ 1888
     473 00000077 0040          .bits   64,16                   ; _aucCRCHi[119] @ 1904
     474 00000078 0000          .bits   0,16                    ; _aucCRCHi[120] @ 1920
     475 00000079 00C1          .bits   193,16                  ; _aucCRCHi[121] @ 1936
     476 0000007a 0081          .bits   129,16                  ; _aucCRCHi[122] @ 1952
     477 0000007b 0040          .bits   64,16                   ; _aucCRCHi[123] @ 1968
     478 0000007c 0001          .bits   1,16                    ; _aucCRCHi[124] @ 1984
     479 0000007d 00C0          .bits   192,16                  ; _aucCRCHi[125] @ 2000
     480 0000007e 0080          .bits   128,16                  ; _aucCRCHi[126] @ 2016
     481 0000007f 0041          .bits   65,16                   ; _aucCRCHi[127] @ 2032
     482 00000080 0001          .bits   1,16                    ; _aucCRCHi[128] @ 2048
     483 00000081 00C0          .bits   192,16                  ; _aucCRCHi[129] @ 2064
     484 00000082 0080          .bits   128,16                  ; _aucCRCHi[130] @ 2080
     485 00000083 0041          .bits   65,16                   ; _aucCRCHi[131] @ 2096
     486 00000084 0000          .bits   0,16                    ; _aucCRCHi[132] @ 2112
     487 00000085 00C1          .bits   193,16                  ; _aucCRCHi[133] @ 2128
     488 00000086 0081          .bits   129,16                  ; _aucCRCHi[134] @ 2144
     489 00000087 0040          .bits   64,16                   ; _aucCRCHi[135] @ 2160
     490 00000088 0000          .bits   0,16                    ; _aucCRCHi[136] @ 2176
     491 00000089 00C1          .bits   193,16                  ; _aucCRCHi[137] @ 2192
     492 0000008a 0081          .bits   129,16                  ; _aucCRCHi[138] @ 2208
     493 0000008b 0040          .bits   64,16                   ; _aucCRCHi[139] @ 2224
     494 0000008c 0001          .bits   1,16                    ; _aucCRCHi[140] @ 2240
     495 0000008d 00C0          .bits   192,16                  ; _aucCRCHi[141] @ 2256
TMS320C2000 Assembler PC v6.2.5 Fri Sep 29 09:29:33 2017

Tools Copyright (c) 1996-2014 Texas Instruments Incorporated
C:\Users\wmj\AppData\Local\Temp\1142410                              PAGE   10

     496 0000008e 0080          .bits   128,16                  ; _aucCRCHi[142] @ 2272
     497 0000008f 0041          .bits   65,16                   ; _aucCRCHi[143] @ 2288
     498 00000090 0000          .bits   0,16                    ; _aucCRCHi[144] @ 2304
     499 00000091 00C1          .bits   193,16                  ; _aucCRCHi[145] @ 2320
     500 00000092 0081          .bits   129,16                  ; _aucCRCHi[146] @ 2336
     501 00000093 0040          .bits   64,16                   ; _aucCRCHi[147] @ 2352
     502 00000094 0001          .bits   1,16                    ; _aucCRCHi[148] @ 2368
     503 00000095 00C0          .bits   192,16                  ; _aucCRCHi[149] @ 2384
     504 00000096 0080          .bits   128,16                  ; _aucCRCHi[150] @ 2400
     505 00000097 0041          .bits   65,16                   ; _aucCRCHi[151] @ 2416
     506 00000098 0001          .bits   1,16                    ; _aucCRCHi[152] @ 2432
     507 00000099 00C0          .bits   192,16                  ; _aucCRCHi[153] @ 2448
     508 0000009a 0080          .bits   128,16                  ; _aucCRCHi[154] @ 2464
     509 0000009b 0041          .bits   65,16                   ; _aucCRCHi[155] @ 2480
     510 0000009c 0000          .bits   0,16                    ; _aucCRCHi[156] @ 2496
     511 0000009d 00C1          .bits   193,16                  ; _aucCRCHi[157] @ 2512
     512 0000009e 0081          .bits   129,16                  ; _aucCRCHi[158] @ 2528
     513 0000009f 0040          .bits   64,16                   ; _aucCRCHi[159] @ 2544
     514 000000a0 0000          .bits   0,16                    ; _aucCRCHi[160] @ 2560
     515 000000a1 00C1          .bits   193,16                  ; _aucCRCHi[161] @ 2576
     516 000000a2 0081          .bits   129,16                  ; _aucCRCHi[162] @ 2592
     517 000000a3 0040          .bits   64,16                   ; _aucCRCHi[163] @ 2608
     518 000000a4 0001          .bits   1,16                    ; _aucCRCHi[164] @ 2624
     519 000000a5 00C0          .bits   192,16                  ; _aucCRCHi[165] @ 2640
     520 000000a6 0080          .bits   128,16                  ; _aucCRCHi[166] @ 2656
     521 000000a7 0041          .bits   65,16                   ; _aucCRCHi[167] @ 2672
     522 000000a8 0001          .bits   1,16                    ; _aucCRCHi[168] @ 2688
     523 000000a9 00C0          .bits   192,16                  ; _aucCRCHi[169] @ 2704
     524 000000aa 0080          .bits   128,16                  ; _aucCRCHi[170] @ 2720
     525 000000ab 0041          .bits   65,16                   ; _aucCRCHi[171] @ 2736
     526 000000ac 0000          .bits   0,16                    ; _aucCRCHi[172] @ 2752
     527 000000ad 00C1          .bits   193,16                  ; _aucCRCHi[173] @ 2768
     528 000000ae 0081          .bits   129,16                  ; _aucCRCHi[174] @ 2784
     529 000000af 0040          .bits   64,16                   ; _aucCRCHi[175] @ 2800
     530 000000b0 0001          .bits   1,16                    ; _aucCRCHi[176] @ 2816
     531 000000b1 00C0          .bits   192,16                  ; _aucCRCHi[177] @ 2832
     532 000000b2 0080          .bits   128,16                  ; _aucCRCHi[178] @ 2848
     533 000000b3 0041          .bits   65,16                   ; _aucCRCHi[179] @ 2864
     534 000000b4 0000          .bits   0,16                    ; _aucCRCHi[180] @ 2880
     535 000000b5 00C1          .bits   193,16                  ; _aucCRCHi[181] @ 2896
     536 000000b6 0081          .bits   129,16                  ; _aucCRCHi[182] @ 2912
     537 000000b7 0040          .bits   64,16                   ; _aucCRCHi[183] @ 2928
     538 000000b8 0000          .bits   0,16                    ; _aucCRCHi[184] @ 2944
     539 000000b9 00C1          .bits   193,16                  ; _aucCRCHi[185] @ 2960
     540 000000ba 0081          .bits   129,16                  ; _aucCRCHi[186] @ 2976
     541 000000bb 0040          .bits   64,16                   ; _aucCRCHi[187] @ 2992
     542 000000bc 0001          .bits   1,16                    ; _aucCRCHi[188] @ 3008
     543 000000bd 00C0          .bits   192,16                  ; _aucCRCHi[189] @ 3024
     544 000000be 0080          .bits   128,16                  ; _aucCRCHi[190] @ 3040
     545 000000bf 0041          .bits   65,16                   ; _aucCRCHi[191] @ 3056
     546 000000c0 0000          .bits   0,16                    ; _aucCRCHi[192] @ 3072
     547 000000c1 00C1          .bits   193,16                  ; _aucCRCHi[193] @ 3088
     548 000000c2 0081          .bits   129,16                  ; _aucCRCHi[194] @ 3104
     549 000000c3 0040          .bits   64,16                   ; _aucCRCHi[195] @ 3120
     550 000000c4 0001          .bits   1,16                    ; _aucCRCHi[196] @ 3136
TMS320C2000 Assembler PC v6.2.5 Fri Sep 29 09:29:33 2017

Tools Copyright (c) 1996-2014 Texas Instruments Incorporated
C:\Users\wmj\AppData\Local\Temp\1142410                              PAGE   11

     551 000000c5 00C0          .bits   192,16                  ; _aucCRCHi[197] @ 3152
     552 000000c6 0080          .bits   128,16                  ; _aucCRCHi[198] @ 3168
     553 000000c7 0041          .bits   65,16                   ; _aucCRCHi[199] @ 3184
     554 000000c8 0001          .bits   1,16                    ; _aucCRCHi[200] @ 3200
     555 000000c9 00C0          .bits   192,16                  ; _aucCRCHi[201] @ 3216
     556 000000ca 0080          .bits   128,16                  ; _aucCRCHi[202] @ 3232
     557 000000cb 0041          .bits   65,16                   ; _aucCRCHi[203] @ 3248
     558 000000cc 0000          .bits   0,16                    ; _aucCRCHi[204] @ 3264
     559 000000cd 00C1          .bits   193,16                  ; _aucCRCHi[205] @ 3280
     560 000000ce 0081          .bits   129,16                  ; _aucCRCHi[206] @ 3296
     561 000000cf 0040          .bits   64,16                   ; _aucCRCHi[207] @ 3312
     562 000000d0 0001          .bits   1,16                    ; _aucCRCHi[208] @ 3328
     563 000000d1 00C0          .bits   192,16                  ; _aucCRCHi[209] @ 3344
     564 000000d2 0080          .bits   128,16                  ; _aucCRCHi[210] @ 3360
     565 000000d3 0041          .bits   65,16                   ; _aucCRCHi[211] @ 3376
     566 000000d4 0000          .bits   0,16                    ; _aucCRCHi[212] @ 3392
     567 000000d5 00C1          .bits   193,16                  ; _aucCRCHi[213] @ 3408
     568 000000d6 0081          .bits   129,16                  ; _aucCRCHi[214] @ 3424
     569 000000d7 0040          .bits   64,16                   ; _aucCRCHi[215] @ 3440
     570 000000d8 0000          .bits   0,16                    ; _aucCRCHi[216] @ 3456
     571 000000d9 00C1          .bits   193,16                  ; _aucCRCHi[217] @ 3472
     572 000000da 0081          .bits   129,16                  ; _aucCRCHi[218] @ 3488
     573 000000db 0040          .bits   64,16                   ; _aucCRCHi[219] @ 3504
     574 000000dc 0001          .bits   1,16                    ; _aucCRCHi[220] @ 3520
     575 000000dd 00C0          .bits   192,16                  ; _aucCRCHi[221] @ 3536
     576 000000de 0080          .bits   128,16                  ; _aucCRCHi[222] @ 3552
     577 000000df 0041          .bits   65,16                   ; _aucCRCHi[223] @ 3568
     578 000000e0 0001          .bits   1,16                    ; _aucCRCHi[224] @ 3584
     579 000000e1 00C0          .bits   192,16                  ; _aucCRCHi[225] @ 3600
     580 000000e2 0080          .bits   128,16                  ; _aucCRCHi[226] @ 3616
     581 000000e3 0041          .bits   65,16                   ; _aucCRCHi[227] @ 3632
     582 000000e4 0000          .bits   0,16                    ; _aucCRCHi[228] @ 3648
     583 000000e5 00C1          .bits   193,16                  ; _aucCRCHi[229] @ 3664
     584 000000e6 0081          .bits   129,16                  ; _aucCRCHi[230] @ 3680
     585 000000e7 0040          .bits   64,16                   ; _aucCRCHi[231] @ 3696
     586 000000e8 0000          .bits   0,16                    ; _aucCRCHi[232] @ 3712
     587 000000e9 00C1          .bits   193,16                  ; _aucCRCHi[233] @ 3728
     588 000000ea 0081          .bits   129,16                  ; _aucCRCHi[234] @ 3744
     589 000000eb 0040          .bits   64,16                   ; _aucCRCHi[235] @ 3760
     590 000000ec 0001          .bits   1,16                    ; _aucCRCHi[236] @ 3776
     591 000000ed 00C0          .bits   192,16                  ; _aucCRCHi[237] @ 3792
     592 000000ee 0080          .bits   128,16                  ; _aucCRCHi[238] @ 3808
     593 000000ef 0041          .bits   65,16                   ; _aucCRCHi[239] @ 3824
     594 000000f0 0000          .bits   0,16                    ; _aucCRCHi[240] @ 3840
     595 000000f1 00C1          .bits   193,16                  ; _aucCRCHi[241] @ 3856
     596 000000f2 0081          .bits   129,16                  ; _aucCRCHi[242] @ 3872
     597 000000f3 0040          .bits   64,16                   ; _aucCRCHi[243] @ 3888
     598 000000f4 0001          .bits   1,16                    ; _aucCRCHi[244] @ 3904
     599 000000f5 00C0          .bits   192,16                  ; _aucCRCHi[245] @ 3920
     600 000000f6 0080          .bits   128,16                  ; _aucCRCHi[246] @ 3936
     601 000000f7 0041          .bits   65,16                   ; _aucCRCHi[247] @ 3952
     602 000000f8 0001          .bits   1,16                    ; _aucCRCHi[248] @ 3968
     603 000000f9 00C0          .bits   192,16                  ; _aucCRCHi[249] @ 3984
     604 000000fa 0080          .bits   128,16                  ; _aucCRCHi[250] @ 4000
     605 000000fb 0041          .bits   65,16                   ; _aucCRCHi[251] @ 4016
TMS320C2000 Assembler PC v6.2.5 Fri Sep 29 09:29:33 2017

Tools Copyright (c) 1996-2014 Texas Instruments Incorporated
C:\Users\wmj\AppData\Local\Temp\1142410                              PAGE   12

     606 000000fc 0000          .bits   0,16                    ; _aucCRCHi[252] @ 4032
     607 000000fd 00C1          .bits   193,16                  ; _aucCRCHi[253] @ 4048
     608 000000fe 0081          .bits   129,16                  ; _aucCRCHi[254] @ 4064
     609 000000ff 0040          .bits   64,16                   ; _aucCRCHi[255] @ 4080
     610              
     611              $C$DW$17        .dwtag  DW_TAG_variable, DW_AT_name("aucCRCHi")
     612                      .dwattr $C$DW$17, DW_AT_TI_symbol_name("_aucCRCHi")
     613                      .dwattr $C$DW$17, DW_AT_location[DW_OP_addr _aucCRCHi]
     614                      .dwattr $C$DW$17, DW_AT_type(*$C$DW$T$278)
     615                      .dwattr $C$DW$17, DW_AT_external
     616              ;       C:\ti\ccsv6\tools\compiler\c2000_6.2.5\bin\opt2000.exe C:\\Users\\wmj\\AppData\\Local\\Temp\\114242 C
     617              ;       C:\ti\ccsv6\tools\compiler\c2000_6.2.5\bin\ac2000.exe -@C:\\Users\\wmj\\AppData\\Local\\Temp\\1142416
     618 00000000               .sect   ".text"
     619                      .clink
     620                      .global _MB_setTimHandle
     621              
     622              $C$DW$18        .dwtag  DW_TAG_subprogram, DW_AT_name("MB_setTimHandle")
     623                      .dwattr $C$DW$18, DW_AT_low_pc(_MB_setTimHandle)
     624                      .dwattr $C$DW$18, DW_AT_high_pc(0x00)
     625                      .dwattr $C$DW$18, DW_AT_TI_symbol_name("_MB_setTimHandle")
     626                      .dwattr $C$DW$18, DW_AT_external
     627                      .dwattr $C$DW$18, DW_AT_TI_begin_file("D:/BM1000/sw/drivers/drvic/modbus/mb.c")
     628                      .dwattr $C$DW$18, DW_AT_TI_begin_line(0x63)
     629                      .dwattr $C$DW$18, DW_AT_TI_begin_column(0x06)
     630                      .dwattr $C$DW$18, DW_AT_TI_max_frame_size(-2)
     631                      .dwpsn  file "D:/BM1000/sw/drivers/drvic/modbus/mb.c",line 100,column 1,is_stmt,address _MB_setTimHan
     632              
     633                      .dwfde $C$DW$CIE, _MB_setTimHandle
     634              $C$DW$19        .dwtag  DW_TAG_formal_parameter, DW_AT_name("handle")
     635                      .dwattr $C$DW$19, DW_AT_TI_symbol_name("_handle")
     636                      .dwattr $C$DW$19, DW_AT_type(*$C$DW$T$219)
     637                      .dwattr $C$DW$19, DW_AT_location[DW_OP_reg12]
     638              $C$DW$20        .dwtag  DW_TAG_formal_parameter, DW_AT_name("timerHandle")
     639                      .dwattr $C$DW$20, DW_AT_TI_symbol_name("_timerHandle")
     640                      .dwattr $C$DW$20, DW_AT_type(*$C$DW$T$129)
     641                      .dwattr $C$DW$20, DW_AT_location[DW_OP_reg14]
     642              
     643              ;***************************************************************
     644              ;* FNAME: _MB_setTimHandle              FR SIZE:   0           *
     645              ;*                                                             *
     646              ;* FUNCTION ENVIRONMENT                                        *
     647              ;*                                                             *
     648              ;* FUNCTION PROPERTIES                                         *
     649              ;*                            0 Parameter,  0 Auto,  0 SOE     *
     650              ;***************************************************************
     651              
     652              _MB_setTimHandle:
     653              ;* AR4   assigned to _handle
     654              $C$DW$21        .dwtag  DW_TAG_variable, DW_AT_name("handle")
     655                      .dwattr $C$DW$21, DW_AT_TI_symbol_name("_handle")
     656                      .dwattr $C$DW$21, DW_AT_type(*$C$DW$T$234)
     657                      .dwattr $C$DW$21, DW_AT_location[DW_OP_reg12]
     658              ;* AR5   assigned to _timerHandle
     659              $C$DW$22        .dwtag  DW_TAG_variable, DW_AT_name("timerHandle")
     660                      .dwattr $C$DW$22, DW_AT_TI_symbol_name("_timerHandle")
TMS320C2000 Assembler PC v6.2.5 Fri Sep 29 09:29:33 2017

Tools Copyright (c) 1996-2014 Texas Instruments Incorporated
C:\Users\wmj\AppData\Local\Temp\1142410                              PAGE   13

     661                      .dwattr $C$DW$22, DW_AT_type(*$C$DW$T$246)
     662                      .dwattr $C$DW$22, DW_AT_location[DW_OP_reg14]
     663                      .dwcfi  cfa_offset, -2
     664                      .dwcfi  save_reg_to_mem, 26, 0
     665                      .dwcfi  save_reg_to_reg, 78, 26
     666                      .dwpsn  file "D:/BM1000/sw/drivers/drvic/modbus/mb.c",line 103,column 4,is_stmt
     667 00000000 A0D4          MOVL      *+XAR4[2],XAR5        ; [CPU_] |103| 
     668              $C$DW$23        .dwtag  DW_TAG_TI_branch
     669                      .dwattr $C$DW$23, DW_AT_low_pc(0x00)
     670                      .dwattr $C$DW$23, DW_AT_TI_return
     671 00000001 0006          LRETR     ; [CPU_] 
     672                      ; return occurs ; [] 
     673                      .dwattr $C$DW$18, DW_AT_TI_end_file("D:/BM1000/sw/drivers/drvic/modbus/mb.c")
     674                      .dwattr $C$DW$18, DW_AT_TI_end_line(0x6a)
     675                      .dwattr $C$DW$18, DW_AT_TI_end_column(0x01)
     676                      .dwendentry
     677                      .dwendtag $C$DW$18
     678              
     679 00000002               .sect   ".text"
     680                      .clink
     681                      .global _MB_setSciHandle
     682              
     683              $C$DW$24        .dwtag  DW_TAG_subprogram, DW_AT_name("MB_setSciHandle")
     684                      .dwattr $C$DW$24, DW_AT_low_pc(_MB_setSciHandle)
     685                      .dwattr $C$DW$24, DW_AT_high_pc(0x00)
     686                      .dwattr $C$DW$24, DW_AT_TI_symbol_name("_MB_setSciHandle")
     687                      .dwattr $C$DW$24, DW_AT_external
     688                      .dwattr $C$DW$24, DW_AT_TI_begin_file("D:/BM1000/sw/drivers/drvic/modbus/mb.c")
     689                      .dwattr $C$DW$24, DW_AT_TI_begin_line(0x5a)
     690                      .dwattr $C$DW$24, DW_AT_TI_begin_column(0x06)
     691                      .dwattr $C$DW$24, DW_AT_TI_max_frame_size(-2)
     692                      .dwpsn  file "D:/BM1000/sw/drivers/drvic/modbus/mb.c",line 91,column 1,is_stmt,address _MB_setSciHand
     693              
     694                      .dwfde $C$DW$CIE, _MB_setSciHandle
     695              $C$DW$25        .dwtag  DW_TAG_formal_parameter, DW_AT_name("handle")
     696                      .dwattr $C$DW$25, DW_AT_TI_symbol_name("_handle")
     697                      .dwattr $C$DW$25, DW_AT_type(*$C$DW$T$219)
     698                      .dwattr $C$DW$25, DW_AT_location[DW_OP_reg12]
     699              $C$DW$26        .dwtag  DW_TAG_formal_parameter, DW_AT_name("sciHandle")
     700                      .dwattr $C$DW$26, DW_AT_TI_symbol_name("_sciHandle")
     701                      .dwattr $C$DW$26, DW_AT_type(*$C$DW$T$138)
     702                      .dwattr $C$DW$26, DW_AT_location[DW_OP_reg14]
     703              
     704              ;***************************************************************
     705              ;* FNAME: _MB_setSciHandle              FR SIZE:   0           *
     706              ;*                                                             *
     707              ;* FUNCTION ENVIRONMENT                                        *
     708              ;*                                                             *
     709              ;* FUNCTION PROPERTIES                                         *
     710              ;*                            0 Parameter,  0 Auto,  0 SOE     *
     711              ;***************************************************************
     712              
     713              _MB_setSciHandle:
     714              ;* AR4   assigned to _handle
     715              $C$DW$27        .dwtag  DW_TAG_variable, DW_AT_name("handle")
TMS320C2000 Assembler PC v6.2.5 Fri Sep 29 09:29:33 2017

Tools Copyright (c) 1996-2014 Texas Instruments Incorporated
C:\Users\wmj\AppData\Local\Temp\1142410                              PAGE   14

     716                      .dwattr $C$DW$27, DW_AT_TI_symbol_name("_handle")
     717                      .dwattr $C$DW$27, DW_AT_type(*$C$DW$T$234)
     718                      .dwattr $C$DW$27, DW_AT_location[DW_OP_reg12]
     719              ;* AR5   assigned to _sciHandle
     720              $C$DW$28        .dwtag  DW_TAG_variable, DW_AT_name("sciHandle")
     721                      .dwattr $C$DW$28, DW_AT_TI_symbol_name("_sciHandle")
     722                      .dwattr $C$DW$28, DW_AT_type(*$C$DW$T$243)
     723                      .dwattr $C$DW$28, DW_AT_location[DW_OP_reg14]
     724                      .dwcfi  cfa_offset, -2
     725                      .dwcfi  save_reg_to_mem, 26, 0
     726                      .dwcfi  save_reg_to_reg, 78, 26
     727                      .dwpsn  file "D:/BM1000/sw/drivers/drvic/modbus/mb.c",line 94,column 4,is_stmt
     728 00000002 A0E4          MOVL      *+XAR4[4],XAR5        ; [CPU_] |94| 
     729              $C$DW$29        .dwtag  DW_TAG_TI_branch
     730                      .dwattr $C$DW$29, DW_AT_low_pc(0x00)
     731                      .dwattr $C$DW$29, DW_AT_TI_return
     732 00000003 0006          LRETR     ; [CPU_] 
     733                      ; return occurs ; [] 
     734                      .dwattr $C$DW$24, DW_AT_TI_end_file("D:/BM1000/sw/drivers/drvic/modbus/mb.c")
     735                      .dwattr $C$DW$24, DW_AT_TI_end_line(0x61)
     736                      .dwattr $C$DW$24, DW_AT_TI_end_column(0x01)
     737                      .dwendentry
     738                      .dwendtag $C$DW$24
     739              
     740 00000004               .sect   ".text"
     741                      .clink
     742                      .global _MB_setProCtrlHandle
     743              
     744              $C$DW$30        .dwtag  DW_TAG_subprogram, DW_AT_name("MB_setProCtrlHandle")
     745                      .dwattr $C$DW$30, DW_AT_low_pc(_MB_setProCtrlHandle)
     746                      .dwattr $C$DW$30, DW_AT_high_pc(0x00)
     747                      .dwattr $C$DW$30, DW_AT_TI_symbol_name("_MB_setProCtrlHandle")
     748                      .dwattr $C$DW$30, DW_AT_external
     749                      .dwattr $C$DW$30, DW_AT_TI_begin_file("D:/BM1000/sw/drivers/drvic/modbus/mb.c")
     750                      .dwattr $C$DW$30, DW_AT_TI_begin_line(0x75)
     751                      .dwattr $C$DW$30, DW_AT_TI_begin_column(0x06)
     752                      .dwattr $C$DW$30, DW_AT_TI_max_frame_size(-2)
     753                      .dwpsn  file "D:/BM1000/sw/drivers/drvic/modbus/mb.c",line 118,column 1,is_stmt,address _MB_setProCtr
     754              
     755                      .dwfde $C$DW$CIE, _MB_setProCtrlHandle
     756              $C$DW$31        .dwtag  DW_TAG_formal_parameter, DW_AT_name("handle")
     757                      .dwattr $C$DW$31, DW_AT_TI_symbol_name("_handle")
     758                      .dwattr $C$DW$31, DW_AT_type(*$C$DW$T$219)
     759                      .dwattr $C$DW$31, DW_AT_location[DW_OP_reg12]
     760              $C$DW$32        .dwtag  DW_TAG_formal_parameter, DW_AT_name("proctrlHandle")
     761                      .dwattr $C$DW$32, DW_AT_TI_symbol_name("_proctrlHandle")
     762                      .dwattr $C$DW$32, DW_AT_type(*$C$DW$T$149)
     763                      .dwattr $C$DW$32, DW_AT_location[DW_OP_reg14]
     764              
     765              ;***************************************************************
     766              ;* FNAME: _MB_setProCtrlHandle          FR SIZE:   0           *
     767              ;*                                                             *
     768              ;* FUNCTION ENVIRONMENT                                        *
     769              ;*                                                             *
     770              ;* FUNCTION PROPERTIES                                         *
TMS320C2000 Assembler PC v6.2.5 Fri Sep 29 09:29:33 2017

Tools Copyright (c) 1996-2014 Texas Instruments Incorporated
C:\Users\wmj\AppData\Local\Temp\1142410                              PAGE   15

     771              ;*                            0 Parameter,  0 Auto,  0 SOE     *
     772              ;***************************************************************
     773              
     774              _MB_setProCtrlHandle:
     775              ;* AR4   assigned to _handle
     776              $C$DW$33        .dwtag  DW_TAG_variable, DW_AT_name("handle")
     777                      .dwattr $C$DW$33, DW_AT_TI_symbol_name("_handle")
     778                      .dwattr $C$DW$33, DW_AT_type(*$C$DW$T$234)
     779                      .dwattr $C$DW$33, DW_AT_location[DW_OP_reg12]
     780              ;* AR5   assigned to _proctrlHandle
     781              $C$DW$34        .dwtag  DW_TAG_variable, DW_AT_name("proctrlHandle")
     782                      .dwattr $C$DW$34, DW_AT_TI_symbol_name("_proctrlHandle")
     783                      .dwattr $C$DW$34, DW_AT_type(*$C$DW$T$241)
     784                      .dwattr $C$DW$34, DW_AT_location[DW_OP_reg14]
     785                      .dwcfi  cfa_offset, -2
     786                      .dwcfi  save_reg_to_mem, 26, 0
     787                      .dwcfi  save_reg_to_reg, 78, 26
     788                      .dwpsn  file "D:/BM1000/sw/drivers/drvic/modbus/mb.c",line 121,column 3,is_stmt
     789 00000004 A0F4          MOVL      *+XAR4[6],XAR5        ; [CPU_] |121| 
     790              $C$DW$35        .dwtag  DW_TAG_TI_branch
     791                      .dwattr $C$DW$35, DW_AT_low_pc(0x00)
     792                      .dwattr $C$DW$35, DW_AT_TI_return
     793 00000005 0006          LRETR     ; [CPU_] 
     794                      ; return occurs ; [] 
     795                      .dwattr $C$DW$30, DW_AT_TI_end_file("D:/BM1000/sw/drivers/drvic/modbus/mb.c")
     796                      .dwattr $C$DW$30, DW_AT_TI_end_line(0x7c)
     797                      .dwattr $C$DW$30, DW_AT_TI_end_column(0x01)
     798                      .dwendentry
     799                      .dwendtag $C$DW$30
     800              
     801 00000006               .sect   ".text"
     802                      .clink
     803                      .global _MB_setGpioHandle
     804              
     805              $C$DW$36        .dwtag  DW_TAG_subprogram, DW_AT_name("MB_setGpioHandle")
     806                      .dwattr $C$DW$36, DW_AT_low_pc(_MB_setGpioHandle)
     807                      .dwattr $C$DW$36, DW_AT_high_pc(0x00)
     808                      .dwattr $C$DW$36, DW_AT_TI_symbol_name("_MB_setGpioHandle")
     809                      .dwattr $C$DW$36, DW_AT_external
     810                      .dwattr $C$DW$36, DW_AT_TI_begin_file("D:/BM1000/sw/drivers/drvic/modbus/mb.c")
     811                      .dwattr $C$DW$36, DW_AT_TI_begin_line(0x6c)
     812                      .dwattr $C$DW$36, DW_AT_TI_begin_column(0x06)
     813                      .dwattr $C$DW$36, DW_AT_TI_max_frame_size(-2)
     814                      .dwpsn  file "D:/BM1000/sw/drivers/drvic/modbus/mb.c",line 109,column 1,is_stmt,address _MB_setGpioHa
     815              
     816                      .dwfde $C$DW$CIE, _MB_setGpioHandle
     817              $C$DW$37        .dwtag  DW_TAG_formal_parameter, DW_AT_name("handle")
     818                      .dwattr $C$DW$37, DW_AT_TI_symbol_name("_handle")
     819                      .dwattr $C$DW$37, DW_AT_type(*$C$DW$T$219)
     820                      .dwattr $C$DW$37, DW_AT_location[DW_OP_reg12]
     821              $C$DW$38        .dwtag  DW_TAG_formal_parameter, DW_AT_name("gpioHandle")
     822                      .dwattr $C$DW$38, DW_AT_TI_symbol_name("_gpioHandle")
     823                      .dwattr $C$DW$38, DW_AT_type(*$C$DW$T$111)
     824                      .dwattr $C$DW$38, DW_AT_location[DW_OP_reg14]
     825              
TMS320C2000 Assembler PC v6.2.5 Fri Sep 29 09:29:33 2017

Tools Copyright (c) 1996-2014 Texas Instruments Incorporated
C:\Users\wmj\AppData\Local\Temp\1142410                              PAGE   16

     826              ;***************************************************************
     827              ;* FNAME: _MB_setGpioHandle             FR SIZE:   0           *
     828              ;*                                                             *
     829              ;* FUNCTION ENVIRONMENT                                        *
     830              ;*                                                             *
     831              ;* FUNCTION PROPERTIES                                         *
     832              ;*                            0 Parameter,  0 Auto,  0 SOE     *
     833              ;***************************************************************
     834              
     835              _MB_setGpioHandle:
     836              ;* AR4   assigned to _handle
     837              $C$DW$39        .dwtag  DW_TAG_variable, DW_AT_name("handle")
     838                      .dwattr $C$DW$39, DW_AT_TI_symbol_name("_handle")
     839                      .dwattr $C$DW$39, DW_AT_type(*$C$DW$T$234)
     840                      .dwattr $C$DW$39, DW_AT_location[DW_OP_reg12]
     841              ;* AR5   assigned to _gpioHandle
     842              $C$DW$40        .dwtag  DW_TAG_variable, DW_AT_name("gpioHandle")
     843                      .dwattr $C$DW$40, DW_AT_TI_symbol_name("_gpioHandle")
     844                      .dwattr $C$DW$40, DW_AT_type(*$C$DW$T$231)
     845                      .dwattr $C$DW$40, DW_AT_location[DW_OP_reg14]
     846                      .dwcfi  cfa_offset, -2
     847                      .dwcfi  save_reg_to_mem, 26, 0
     848                      .dwcfi  save_reg_to_reg, 78, 26
     849                      .dwpsn  file "D:/BM1000/sw/drivers/drvic/modbus/mb.c",line 112,column 4,is_stmt
     850 00000006 A0C4          MOVL      *+XAR4[0],XAR5        ; [CPU_] |112| 
     851              $C$DW$41        .dwtag  DW_TAG_TI_branch
     852                      .dwattr $C$DW$41, DW_AT_low_pc(0x00)
     853                      .dwattr $C$DW$41, DW_AT_TI_return
     854 00000007 0006          LRETR     ; [CPU_] 
     855                      ; return occurs ; [] 
     856                      .dwattr $C$DW$36, DW_AT_TI_end_file("D:/BM1000/sw/drivers/drvic/modbus/mb.c")
     857                      .dwattr $C$DW$36, DW_AT_TI_end_line(0x73)
     858                      .dwattr $C$DW$36, DW_AT_TI_end_column(0x01)
     859                      .dwendentry
     860                      .dwendtag $C$DW$36
     861              
     862 00000008               .sect   ".text"
     863                      .clink
     864                      .global _MB_init
     865              
     866              $C$DW$42        .dwtag  DW_TAG_subprogram, DW_AT_name("MB_init")
     867                      .dwattr $C$DW$42, DW_AT_low_pc(_MB_init)
     868                      .dwattr $C$DW$42, DW_AT_high_pc(0x00)
     869                      .dwattr $C$DW$42, DW_AT_TI_symbol_name("_MB_init")
     870                      .dwattr $C$DW$42, DW_AT_external
     871                      .dwattr $C$DW$42, DW_AT_type(*$C$DW$T$219)
     872                      .dwattr $C$DW$42, DW_AT_TI_begin_file("D:/BM1000/sw/drivers/drvic/modbus/mb.c")
     873                      .dwattr $C$DW$42, DW_AT_TI_begin_line(0x4a)
     874                      .dwattr $C$DW$42, DW_AT_TI_begin_column(0x0b)
     875                      .dwattr $C$DW$42, DW_AT_TI_max_frame_size(-2)
     876                      .dwpsn  file "D:/BM1000/sw/drivers/drvic/modbus/mb.c",line 75,column 1,is_stmt,address _MB_init
     877              
     878                      .dwfde $C$DW$CIE, _MB_init
     879              $C$DW$43        .dwtag  DW_TAG_formal_parameter, DW_AT_name("pMemory")
     880                      .dwattr $C$DW$43, DW_AT_TI_symbol_name("_pMemory")
TMS320C2000 Assembler PC v6.2.5 Fri Sep 29 09:29:33 2017

Tools Copyright (c) 1996-2014 Texas Instruments Incorporated
C:\Users\wmj\AppData\Local\Temp\1142410                              PAGE   17

     881                      .dwattr $C$DW$43, DW_AT_type(*$C$DW$T$3)
     882                      .dwattr $C$DW$43, DW_AT_location[DW_OP_reg12]
     883              $C$DW$44        .dwtag  DW_TAG_formal_parameter, DW_AT_name("numBytes")
     884                      .dwattr $C$DW$44, DW_AT_TI_symbol_name("_numBytes")
     885                      .dwattr $C$DW$44, DW_AT_type(*$C$DW$T$236)
     886                      .dwattr $C$DW$44, DW_AT_location[DW_OP_reg0]
     887              
     888              ;***************************************************************
     889              ;* FNAME: _MB_init                      FR SIZE:   0           *
     890              ;*                                                             *
     891              ;* FUNCTION ENVIRONMENT                                        *
     892              ;*                                                             *
     893              ;* FUNCTION PROPERTIES                                         *
     894              ;*                            0 Parameter,  0 Auto,  0 SOE     *
     895              ;***************************************************************
     896              
     897              _MB_init:
     898              ;* AR6   assigned to _numBytes
     899              $C$DW$45        .dwtag  DW_TAG_variable, DW_AT_name("numBytes")
     900                      .dwattr $C$DW$45, DW_AT_TI_symbol_name("_numBytes")
     901                      .dwattr $C$DW$45, DW_AT_type(*$C$DW$T$236)
     902                      .dwattr $C$DW$45, DW_AT_location[DW_OP_reg16]
     903              ;* AR4   assigned to _pMemory
     904              $C$DW$46        .dwtag  DW_TAG_variable, DW_AT_name("pMemory")
     905                      .dwattr $C$DW$46, DW_AT_TI_symbol_name("_pMemory")
     906                      .dwattr $C$DW$46, DW_AT_type(*$C$DW$T$248)
     907                      .dwattr $C$DW$46, DW_AT_location[DW_OP_reg12]
     908                      .dwcfi  cfa_offset, -2
     909                      .dwcfi  save_reg_to_mem, 26, 0
     910                      .dwcfi  save_reg_to_reg, 78, 26
     911 00000008 1EA6          MOVL      XAR6,ACC              ; [CPU_] |75| 
     912                      .dwpsn  file "D:/BM1000/sw/drivers/drvic/modbus/mb.c",line 80,column 6,is_stmt
     913 00000009 021E          MOVB      ACC,#30               ; [CPU_] |80| 
     914 0000000a 0FA6          CMPL      ACC,XAR6              ; [CPU_] |80| 
     915 0000000b 6902          B         $C$L1,LOS             ; [CPU_] |80| 
     916                      ; branchcc occurs ; [] |80| 
     917 0000000c D400          MOVB      XAR4,#0               ; [CPU_] |80| 
     918              $C$L1:    
     919              $C$DW$47        .dwtag  DW_TAG_TI_branch
     920                      .dwattr $C$DW$47, DW_AT_low_pc(0x00)
     921                      .dwattr $C$DW$47, DW_AT_TI_return
     922 0000000d 0006          LRETR     ; [CPU_] 
     923                      ; return occurs ; [] 
     924                      .dwattr $C$DW$42, DW_AT_TI_end_file("D:/BM1000/sw/drivers/drvic/modbus/mb.c")
     925                      .dwattr $C$DW$42, DW_AT_TI_end_line(0x57)
     926                      .dwattr $C$DW$42, DW_AT_TI_end_column(0x01)
     927                      .dwendentry
     928                      .dwendtag $C$DW$42
     929              
     930 0000000e               .sect   ".text"
     931                      .clink
     932                      .global _MB_PortEventPost
     933              
     934              $C$DW$48        .dwtag  DW_TAG_subprogram, DW_AT_name("MB_PortEventPost")
     935                      .dwattr $C$DW$48, DW_AT_low_pc(_MB_PortEventPost)
TMS320C2000 Assembler PC v6.2.5 Fri Sep 29 09:29:33 2017

Tools Copyright (c) 1996-2014 Texas Instruments Incorporated
C:\Users\wmj\AppData\Local\Temp\1142410                              PAGE   18

     936                      .dwattr $C$DW$48, DW_AT_high_pc(0x00)
     937                      .dwattr $C$DW$48, DW_AT_TI_symbol_name("_MB_PortEventPost")
     938                      .dwattr $C$DW$48, DW_AT_external
     939                      .dwattr $C$DW$48, DW_AT_TI_begin_file("D:/BM1000/sw/drivers/drvic/modbus/mb.c")
     940                      .dwattr $C$DW$48, DW_AT_TI_begin_line(0xcc)
     941                      .dwattr $C$DW$48, DW_AT_TI_begin_column(0x06)
     942                      .dwattr $C$DW$48, DW_AT_TI_max_frame_size(-2)
     943                      .dwpsn  file "D:/BM1000/sw/drivers/drvic/modbus/mb.c",line 205,column 1,is_stmt,address _MB_PortEvent
     944              
     945                      .dwfde $C$DW$CIE, _MB_PortEventPost
     946              $C$DW$49        .dwtag  DW_TAG_formal_parameter, DW_AT_name("handle")
     947                      .dwattr $C$DW$49, DW_AT_TI_symbol_name("_handle")
     948                      .dwattr $C$DW$49, DW_AT_type(*$C$DW$T$219)
     949                      .dwattr $C$DW$49, DW_AT_location[DW_OP_reg12]
     950              $C$DW$50        .dwtag  DW_TAG_formal_parameter, DW_AT_name("eEvent")
     951                      .dwattr $C$DW$50, DW_AT_TI_symbol_name("_eEvent")
     952                      .dwattr $C$DW$50, DW_AT_type(*$C$DW$T$163)
     953                      .dwattr $C$DW$50, DW_AT_location[DW_OP_reg0]
     954              
     955              ;***************************************************************
     956              ;* FNAME: _MB_PortEventPost             FR SIZE:   0           *
     957              ;*                                                             *
     958              ;* FUNCTION ENVIRONMENT                                        *
     959              ;*                                                             *
     960              ;* FUNCTION PROPERTIES                                         *
     961              ;*                            0 Parameter,  0 Auto,  0 SOE     *
     962              ;***************************************************************
     963              
     964              _MB_PortEventPost:
     965              ;* AR4   assigned to _handle
     966              $C$DW$51        .dwtag  DW_TAG_variable, DW_AT_name("handle")
     967                      .dwattr $C$DW$51, DW_AT_TI_symbol_name("_handle")
     968                      .dwattr $C$DW$51, DW_AT_type(*$C$DW$T$234)
     969                      .dwattr $C$DW$51, DW_AT_location[DW_OP_reg12]
     970              ;* AL    assigned to _eEvent
     971              $C$DW$52        .dwtag  DW_TAG_variable, DW_AT_name("eEvent")
     972                      .dwattr $C$DW$52, DW_AT_TI_symbol_name("_eEvent")
     973                      .dwattr $C$DW$52, DW_AT_type(*$C$DW$T$227)
     974                      .dwattr $C$DW$52, DW_AT_location[DW_OP_reg0]
     975                      .dwcfi  cfa_offset, -2
     976                      .dwcfi  save_reg_to_mem, 26, 0
     977                      .dwcfi  save_reg_to_reg, 78, 26
     978                      .dwpsn  file "D:/BM1000/sw/drivers/drvic/modbus/mb.c",line 207,column 5,is_stmt
     979 0000000e D01B          MOVB      XAR0,#27              ; [CPU_] |207| 
     980 0000000f 56BF          MOVB      *+XAR4[AR0],#1,UNC    ; [CPU_] |207| 
         00000010 0194 
     981                      .dwpsn  file "D:/BM1000/sw/drivers/drvic/modbus/mb.c",line 208,column 5,is_stmt
     982 00000011 D01C          MOVB      XAR0,#28              ; [CPU_] |208| 
     983 00000012 9694          MOV       *+XAR4[AR0],AL        ; [CPU_] |208| 
     984              $C$DW$53        .dwtag  DW_TAG_TI_branch
     985                      .dwattr $C$DW$53, DW_AT_low_pc(0x00)
     986                      .dwattr $C$DW$53, DW_AT_TI_return
     987 00000013 0006          LRETR     ; [CPU_] 
     988                      ; return occurs ; [] 
     989                      .dwattr $C$DW$48, DW_AT_TI_end_file("D:/BM1000/sw/drivers/drvic/modbus/mb.c")
TMS320C2000 Assembler PC v6.2.5 Fri Sep 29 09:29:33 2017

Tools Copyright (c) 1996-2014 Texas Instruments Incorporated
C:\Users\wmj\AppData\Local\Temp\1142410                              PAGE   19

     990                      .dwattr $C$DW$48, DW_AT_TI_end_line(0xd2)
     991                      .dwattr $C$DW$48, DW_AT_TI_end_column(0x01)
     992                      .dwendentry
     993                      .dwendtag $C$DW$48
     994              
     995 00000014               .sect   ".text"
     996                      .clink
     997                      .global _MB_PortSerialEnable
     998              
     999              $C$DW$54        .dwtag  DW_TAG_subprogram, DW_AT_name("MB_PortSerialEnable")
    1000                      .dwattr $C$DW$54, DW_AT_low_pc(_MB_PortSerialEnable)
    1001                      .dwattr $C$DW$54, DW_AT_high_pc(0x00)
    1002                      .dwattr $C$DW$54, DW_AT_TI_symbol_name("_MB_PortSerialEnable")
    1003                      .dwattr $C$DW$54, DW_AT_external
    1004                      .dwattr $C$DW$54, DW_AT_TI_begin_file("D:/BM1000/sw/drivers/drvic/modbus/mb.c")
    1005                      .dwattr $C$DW$54, DW_AT_TI_begin_line(0x93)
    1006                      .dwattr $C$DW$54, DW_AT_TI_begin_column(0x06)
    1007                      .dwattr $C$DW$54, DW_AT_TI_max_frame_size(-6)
    1008                      .dwpsn  file "D:/BM1000/sw/drivers/drvic/modbus/mb.c",line 148,column 1,is_stmt,address _MB_PortSeria
    1009              
    1010                      .dwfde $C$DW$CIE, _MB_PortSerialEnable
    1011              $C$DW$55        .dwtag  DW_TAG_formal_parameter, DW_AT_name("handle")
    1012                      .dwattr $C$DW$55, DW_AT_TI_symbol_name("_handle")
    1013                      .dwattr $C$DW$55, DW_AT_type(*$C$DW$T$219)
    1014                      .dwattr $C$DW$55, DW_AT_location[DW_OP_reg12]
    1015              $C$DW$56        .dwtag  DW_TAG_formal_parameter, DW_AT_name("xRxEnable")
    1016                      .dwattr $C$DW$56, DW_AT_TI_symbol_name("_xRxEnable")
    1017                      .dwattr $C$DW$56, DW_AT_type(*$C$DW$T$34)
    1018                      .dwattr $C$DW$56, DW_AT_location[DW_OP_reg0]
    1019              $C$DW$57        .dwtag  DW_TAG_formal_parameter, DW_AT_name("xTxEnable")
    1020                      .dwattr $C$DW$57, DW_AT_TI_symbol_name("_xTxEnable")
    1021                      .dwattr $C$DW$57, DW_AT_type(*$C$DW$T$34)
    1022                      .dwattr $C$DW$57, DW_AT_location[DW_OP_reg1]
    1023              
    1024              ;***************************************************************
    1025              ;* FNAME: _MB_PortSerialEnable          FR SIZE:   4           *
    1026              ;*                                                             *
    1027              ;* FUNCTION ENVIRONMENT                                        *
    1028              ;*                                                             *
    1029              ;* FUNCTION PROPERTIES                                         *
    1030              ;*                            0 Parameter,  0 Auto,  4 SOE     *
    1031              ;***************************************************************
    1032              
    1033              _MB_PortSerialEnable:
    1034              ;* AR1   assigned to _xTxEnable
    1035              $C$DW$58        .dwtag  DW_TAG_variable, DW_AT_name("xTxEnable")
    1036                      .dwattr $C$DW$58, DW_AT_TI_symbol_name("_xTxEnable")
    1037                      .dwattr $C$DW$58, DW_AT_type(*$C$DW$T$255)
    1038                      .dwattr $C$DW$58, DW_AT_location[DW_OP_reg6]
    1039              ;* AL    assigned to _xRxEnable
    1040              $C$DW$59        .dwtag  DW_TAG_variable, DW_AT_name("xRxEnable")
    1041                      .dwattr $C$DW$59, DW_AT_TI_symbol_name("_xRxEnable")
    1042                      .dwattr $C$DW$59, DW_AT_type(*$C$DW$T$255)
    1043                      .dwattr $C$DW$59, DW_AT_location[DW_OP_reg0]
    1044              ;* AR2   assigned to _handle
TMS320C2000 Assembler PC v6.2.5 Fri Sep 29 09:29:33 2017

Tools Copyright (c) 1996-2014 Texas Instruments Incorporated
C:\Users\wmj\AppData\Local\Temp\1142410                              PAGE   20

    1045              $C$DW$60        .dwtag  DW_TAG_variable, DW_AT_name("handle")
    1046                      .dwattr $C$DW$60, DW_AT_TI_symbol_name("_handle")
    1047                      .dwattr $C$DW$60, DW_AT_type(*$C$DW$T$234)
    1048                      .dwattr $C$DW$60, DW_AT_location[DW_OP_reg8]
    1049                      .dwcfi  cfa_offset, -2
    1050                      .dwcfi  save_reg_to_mem, 26, 0
    1051                      .dwcfi  save_reg_to_reg, 78, 26
    1052 00000014 B2BD          MOVL      *SP++,XAR1            ; [CPU_] 
    1053                      .dwcfi  save_reg_to_mem, 7, 2
    1054                      .dwcfi  cfa_offset, -4
    1055                      .dwpsn  file "D:/BM1000/sw/drivers/drvic/modbus/mb.c",line 151,column 3,is_stmt
    1056 00000015 5200          CMPB      AL,#0                 ; [CPU_] |151| 
    1057                      .dwpsn  file "D:/BM1000/sw/drivers/drvic/modbus/mb.c",line 148,column 1,is_stmt
    1058 00000016 59A8          MOVZ      AR1,AH                ; [CPU_] |148| 
    1059 00000017 AABD          MOVL      *SP++,XAR2            ; [CPU_] 
    1060                      .dwcfi  save_reg_to_mem, 9, 4
    1061                      .dwcfi  cfa_offset, -6
    1062 00000018 86A4          MOVL      XAR2,XAR4             ; [CPU_] |148| 
    1063                      .dwpsn  file "D:/BM1000/sw/drivers/drvic/modbus/mb.c",line 151,column 3,is_stmt
    1064 00000019 ED05          BF        $C$L2,NEQ             ; [CPU_] |151| 
    1065                      ; branchcc occurs ; [] |151| 
    1066                      .dwpsn  file "D:/BM1000/sw/drivers/drvic/modbus/mb.c",line 159,column 3,is_stmt
    1067 0000001a 8AE2          MOVL      XAR4,*+XAR2[4]        ; [CPU_] |159| 
    1068              $C$DW$61        .dwtag  DW_TAG_TI_branch
    1069                      .dwattr $C$DW$61, DW_AT_low_pc(0x00)
    1070                      .dwattr $C$DW$61, DW_AT_name("_SCI_disableRx")
    1071                      .dwattr $C$DW$61, DW_AT_TI_call
    1072 0000001b 7640!         LCR       #_SCI_disableRx       ; [CPU_] |159| 
         0000001c 0000 
    1073                      ; call occurs [#_SCI_disableRx] ; [] |159| 
    1074 0000001d 6F04          B         $C$L3,UNC             ; [CPU_] |159| 
    1075                      ; branch occurs ; [] |159| 
    1076 0000001e       $C$L2:    
    1077                      .dwpsn  file "D:/BM1000/sw/drivers/drvic/modbus/mb.c",line 154,column 3,is_stmt
    1078 0000001e 8AE2          MOVL      XAR4,*+XAR2[4]        ; [CPU_] |154| 
    1079              $C$DW$62        .dwtag  DW_TAG_TI_branch
    1080                      .dwattr $C$DW$62, DW_AT_low_pc(0x00)
    1081                      .dwattr $C$DW$62, DW_AT_name("_SCI_enableRx")
    1082                      .dwattr $C$DW$62, DW_AT_TI_call
    1083 0000001f 7640!         LCR       #_SCI_enableRx        ; [CPU_] |154| 
         00000020 0000 
    1084                      ; call occurs [#_SCI_enableRx] ; [] |154| 
    1085 00000021       $C$L3:    
    1086 00000021 92A1          MOV       AL,AR1                ; [CPU_] 
    1087                      .dwpsn  file "D:/BM1000/sw/drivers/drvic/modbus/mb.c",line 163,column 3,is_stmt
    1088 00000022 ED05          BF        $C$L4,NEQ             ; [CPU_] |163| 
    1089                      ; branchcc occurs ; [] |163| 
    1090                      .dwpsn  file "D:/BM1000/sw/drivers/drvic/modbus/mb.c",line 170,column 2,is_stmt
    1091 00000023 8AE2          MOVL      XAR4,*+XAR2[4]        ; [CPU_] |170| 
    1092              $C$DW$63        .dwtag  DW_TAG_TI_branch
    1093                      .dwattr $C$DW$63, DW_AT_low_pc(0x00)
    1094                      .dwattr $C$DW$63, DW_AT_name("_SCI_disableTx")
    1095                      .dwattr $C$DW$63, DW_AT_TI_call
    1096 00000024 7640!         LCR       #_SCI_disableTx       ; [CPU_] |170| 
         00000025 0000 
TMS320C2000 Assembler PC v6.2.5 Fri Sep 29 09:29:33 2017

Tools Copyright (c) 1996-2014 Texas Instruments Incorporated
C:\Users\wmj\AppData\Local\Temp\1142410                              PAGE   21

    1097                      ; call occurs [#_SCI_disableTx] ; [] |170| 
    1098 00000026 6F04          B         $C$L5,UNC             ; [CPU_] |170| 
    1099                      ; branch occurs ; [] |170| 
    1100 00000027       $C$L4:    
    1101                      .dwpsn  file "D:/BM1000/sw/drivers/drvic/modbus/mb.c",line 165,column 2,is_stmt
    1102 00000027 8AE2          MOVL      XAR4,*+XAR2[4]        ; [CPU_] |165| 
    1103              $C$DW$64        .dwtag  DW_TAG_TI_branch
    1104                      .dwattr $C$DW$64, DW_AT_low_pc(0x00)
    1105                      .dwattr $C$DW$64, DW_AT_name("_SCI_enableTx")
    1106                      .dwattr $C$DW$64, DW_AT_TI_call
    1107 00000028 7640!         LCR       #_SCI_enableTx        ; [CPU_] |165| 
         00000029 0000 
    1108                      ; call occurs [#_SCI_enableTx] ; [] |165| 
    1109 0000002a       $C$L5:    
    1110 0000002a 86BE          MOVL      XAR2,*--SP            ; [CPU_] 
    1111                      .dwcfi  cfa_offset, -4
    1112                      .dwcfi  restore_reg, 9
    1113 0000002b 8BBE          MOVL      XAR1,*--SP            ; [CPU_] 
    1114                      .dwcfi  cfa_offset, -2
    1115                      .dwcfi  restore_reg, 7
    1116              $C$DW$65        .dwtag  DW_TAG_TI_branch
    1117                      .dwattr $C$DW$65, DW_AT_low_pc(0x00)
    1118                      .dwattr $C$DW$65, DW_AT_TI_return
    1119 0000002c 0006          LRETR     ; [CPU_] 
    1120                      ; return occurs ; [] 
    1121                      .dwattr $C$DW$54, DW_AT_TI_end_file("D:/BM1000/sw/drivers/drvic/modbus/mb.c")
    1122                      .dwattr $C$DW$54, DW_AT_TI_end_line(0xae)
    1123                      .dwattr $C$DW$54, DW_AT_TI_end_column(0x01)
    1124                      .dwendentry
    1125                      .dwendtag $C$DW$54
    1126              
    1127 0000002d               .sect   ".text"
    1128                      .clink
    1129                      .global _MB_PortSerialPutByte
    1130              
    1131              $C$DW$66        .dwtag  DW_TAG_subprogram, DW_AT_name("MB_PortSerialPutByte")
    1132                      .dwattr $C$DW$66, DW_AT_low_pc(_MB_PortSerialPutByte)
    1133                      .dwattr $C$DW$66, DW_AT_high_pc(0x00)
    1134                      .dwattr $C$DW$66, DW_AT_TI_symbol_name("_MB_PortSerialPutByte")
    1135                      .dwattr $C$DW$66, DW_AT_external
    1136                      .dwattr $C$DW$66, DW_AT_type(*$C$DW$T$34)
    1137                      .dwattr $C$DW$66, DW_AT_TI_begin_file("D:/BM1000/sw/drivers/drvic/modbus/mb.c")
    1138                      .dwattr $C$DW$66, DW_AT_TI_begin_line(0xb1)
    1139                      .dwattr $C$DW$66, DW_AT_TI_begin_column(0x06)
    1140                      .dwattr $C$DW$66, DW_AT_TI_max_frame_size(-2)
    1141                      .dwpsn  file "D:/BM1000/sw/drivers/drvic/modbus/mb.c",line 178,column 1,is_stmt,address _MB_PortSeria
    1142              
    1143                      .dwfde $C$DW$CIE, _MB_PortSerialPutByte
    1144              $C$DW$67        .dwtag  DW_TAG_formal_parameter, DW_AT_name("handle")
    1145                      .dwattr $C$DW$67, DW_AT_TI_symbol_name("_handle")
    1146                      .dwattr $C$DW$67, DW_AT_type(*$C$DW$T$219)
    1147                      .dwattr $C$DW$67, DW_AT_location[DW_OP_reg12]
    1148              $C$DW$68        .dwtag  DW_TAG_formal_parameter, DW_AT_name("putByte")
    1149                      .dwattr $C$DW$68, DW_AT_TI_symbol_name("_putByte")
    1150                      .dwattr $C$DW$68, DW_AT_type(*$C$DW$T$271)
TMS320C2000 Assembler PC v6.2.5 Fri Sep 29 09:29:33 2017

Tools Copyright (c) 1996-2014 Texas Instruments Incorporated
C:\Users\wmj\AppData\Local\Temp\1142410                              PAGE   22

    1151                      .dwattr $C$DW$68, DW_AT_location[DW_OP_reg0]
    1152              
    1153              ;***************************************************************
    1154              ;* FNAME: _MB_PortSerialPutByte         FR SIZE:   0           *
    1155              ;*                                                             *
    1156              ;* FUNCTION ENVIRONMENT                                        *
    1157              ;*                                                             *
    1158              ;* FUNCTION PROPERTIES                                         *
    1159              ;*                            0 Parameter,  0 Auto,  0 SOE     *
    1160              ;***************************************************************
    1161              
    1162              _MB_PortSerialPutByte:
    1163              ;* AR4   assigned to _handle
    1164              $C$DW$69        .dwtag  DW_TAG_variable, DW_AT_name("handle")
    1165                      .dwattr $C$DW$69, DW_AT_TI_symbol_name("_handle")
    1166                      .dwattr $C$DW$69, DW_AT_type(*$C$DW$T$234)
    1167                      .dwattr $C$DW$69, DW_AT_location[DW_OP_reg12]
    1168              ;* AL    assigned to _putByte
    1169              $C$DW$70        .dwtag  DW_TAG_variable, DW_AT_name("putByte")
    1170                      .dwattr $C$DW$70, DW_AT_TI_symbol_name("_putByte")
    1171                      .dwattr $C$DW$70, DW_AT_type(*$C$DW$T$301)
    1172                      .dwattr $C$DW$70, DW_AT_location[DW_OP_reg0]
    1173                      .dwcfi  cfa_offset, -2
    1174                      .dwcfi  save_reg_to_mem, 26, 0
    1175                      .dwcfi  save_reg_to_reg, 78, 26
    1176                      .dwpsn  file "D:/BM1000/sw/drivers/drvic/modbus/mb.c",line 181,column 5,is_stmt
    1177 0000002d 8AE4          MOVL      XAR4,*+XAR4[4]        ; [CPU_] |181| 
    1178              $C$DW$71        .dwtag  DW_TAG_TI_branch
    1179                      .dwattr $C$DW$71, DW_AT_low_pc(0x00)
    1180                      .dwattr $C$DW$71, DW_AT_name("_SCI_putDataBlocking")
    1181                      .dwattr $C$DW$71, DW_AT_TI_call
    1182 0000002e 7640!         LCR       #_SCI_putDataBlocking ; [CPU_] |181| 
         0000002f 0000 
    1183                      ; call occurs [#_SCI_putDataBlocking] ; [] |181| 
    1184                      .dwpsn  file "D:/BM1000/sw/drivers/drvic/modbus/mb.c",line 183,column 5,is_stmt
    1185 00000030 9A01          MOVB      AL,#1                 ; [CPU_] |183| 
    1186              $C$DW$72        .dwtag  DW_TAG_TI_branch
    1187                      .dwattr $C$DW$72, DW_AT_low_pc(0x00)
    1188                      .dwattr $C$DW$72, DW_AT_TI_return
    1189 00000031 0006          LRETR     ; [CPU_] 
    1190                      ; return occurs ; [] 
    1191                      .dwattr $C$DW$66, DW_AT_TI_end_file("D:/BM1000/sw/drivers/drvic/modbus/mb.c")
    1192                      .dwattr $C$DW$66, DW_AT_TI_end_line(0xb8)
    1193                      .dwattr $C$DW$66, DW_AT_TI_end_column(0x01)
    1194                      .dwendentry
    1195                      .dwendtag $C$DW$66
    1196              
    1197 00000032               .sect   ".text"
    1198                      .clink
    1199                      .global _MB_RTUTransmitFSM
    1200              
    1201              $C$DW$73        .dwtag  DW_TAG_subprogram, DW_AT_name("MB_RTUTransmitFSM")
    1202                      .dwattr $C$DW$73, DW_AT_low_pc(_MB_RTUTransmitFSM)
    1203                      .dwattr $C$DW$73, DW_AT_high_pc(0x00)
    1204                      .dwattr $C$DW$73, DW_AT_TI_symbol_name("_MB_RTUTransmitFSM")
TMS320C2000 Assembler PC v6.2.5 Fri Sep 29 09:29:33 2017

Tools Copyright (c) 1996-2014 Texas Instruments Incorporated
C:\Users\wmj\AppData\Local\Temp\1142410                              PAGE   23

    1205                      .dwattr $C$DW$73, DW_AT_external
    1206                      .dwattr $C$DW$73, DW_AT_TI_begin_file("D:/BM1000/sw/drivers/drvic/modbus/mb.c")
    1207                      .dwattr $C$DW$73, DW_AT_TI_begin_line(0xf6)
    1208                      .dwattr $C$DW$73, DW_AT_TI_begin_column(0x06)
    1209                      .dwattr $C$DW$73, DW_AT_TI_max_frame_size(-4)
    1210                      .dwpsn  file "D:/BM1000/sw/drivers/drvic/modbus/mb.c",line 247,column 1,is_stmt,address _MB_RTUTransm
    1211              
    1212                      .dwfde $C$DW$CIE, _MB_RTUTransmitFSM
    1213              $C$DW$74        .dwtag  DW_TAG_formal_parameter, DW_AT_name("handle")
    1214                      .dwattr $C$DW$74, DW_AT_TI_symbol_name("_handle")
    1215                      .dwattr $C$DW$74, DW_AT_type(*$C$DW$T$219)
    1216                      .dwattr $C$DW$74, DW_AT_location[DW_OP_reg12]
    1217              
    1218              ;***************************************************************
    1219              ;* FNAME: _MB_RTUTransmitFSM            FR SIZE:   2           *
    1220              ;*                                                             *
    1221              ;* FUNCTION ENVIRONMENT                                        *
    1222              ;*                                                             *
    1223              ;* FUNCTION PROPERTIES                                         *
    1224              ;*                            0 Parameter,  0 Auto,  2 SOE     *
    1225              ;***************************************************************
    1226              
    1227              _MB_RTUTransmitFSM:
    1228              ;* AR1   assigned to _handle
    1229              $C$DW$75        .dwtag  DW_TAG_variable, DW_AT_name("handle")
    1230                      .dwattr $C$DW$75, DW_AT_TI_symbol_name("_handle")
    1231                      .dwattr $C$DW$75, DW_AT_type(*$C$DW$T$234)
    1232                      .dwattr $C$DW$75, DW_AT_location[DW_OP_reg6]
    1233                      .dwcfi  cfa_offset, -2
    1234                      .dwcfi  save_reg_to_mem, 26, 0
    1235                      .dwcfi  save_reg_to_reg, 78, 26
    1236 00000032 B2BD          MOVL      *SP++,XAR1            ; [CPU_] 
    1237                      .dwcfi  save_reg_to_mem, 7, 2
    1238                      .dwcfi  cfa_offset, -4
    1239                      .dwpsn  file "D:/BM1000/sw/drivers/drvic/modbus/mb.c",line 252,column 5,is_stmt
    1240 00000033 D019          MOVB      XAR0,#25              ; [CPU_] |252| 
    1241                      .dwpsn  file "D:/BM1000/sw/drivers/drvic/modbus/mb.c",line 247,column 1,is_stmt
    1242 00000034 8BA4          MOVL      XAR1,XAR4             ; [CPU_] |247| 
    1243                      .dwpsn  file "D:/BM1000/sw/drivers/drvic/modbus/mb.c",line 252,column 5,is_stmt
    1244 00000035 9291          MOV       AL,*+XAR1[AR0]        ; [CPU_] |252| 
    1245 00000036 EC1D          BF        $C$L7,EQ              ; [CPU_] |252| 
    1246                      ; branchcc occurs ; [] |252| 
    1247 00000037 5201          CMPB      AL,#1                 ; [CPU_] |252| 
    1248 00000038 ED1F          BF        $C$L8,NEQ             ; [CPU_] |252| 
    1249                      ; branchcc occurs ; [] |252| 
    1250                      .dwpsn  file "D:/BM1000/sw/drivers/drvic/modbus/mb.c",line 260,column 9,is_stmt
    1251 00000039 D016          MOVB      XAR0,#22              ; [CPU_] |260| 
    1252 0000003a 9291          MOV       AL,*+XAR1[AR0]        ; [CPU_] |260| 
    1253 0000003b ED0B          BF        $C$L6,NEQ             ; [CPU_] |260| 
    1254                      ; branchcc occurs ; [] |260| 
    1255                      .dwpsn  file "D:/BM1000/sw/drivers/drvic/modbus/mb.c",line 268,column 11,is_stmt
    1256 0000003c 9A03          MOVB      AL,#3                 ; [CPU_] |268| 
    1257              $C$DW$76        .dwtag  DW_TAG_TI_branch
    1258                      .dwattr $C$DW$76, DW_AT_low_pc(0x00)
    1259                      .dwattr $C$DW$76, DW_AT_name("_MB_PortEventPost")
TMS320C2000 Assembler PC v6.2.5 Fri Sep 29 09:29:33 2017

Tools Copyright (c) 1996-2014 Texas Instruments Incorporated
C:\Users\wmj\AppData\Local\Temp\1142410                              PAGE   24

    1260                      .dwattr $C$DW$76, DW_AT_TI_call
    1261 0000003d 7640'         LCR       #_MB_PortEventPost    ; [CPU_] |268| 
         0000003e 000E 
    1262                      ; call occurs [#_MB_PortEventPost] ; [] |268| 
    1263                      .dwpsn  file "D:/BM1000/sw/drivers/drvic/modbus/mb.c",line 270,column 11,is_stmt
    1264 0000003f 9B00          MOVB      AH,#0                 ; [CPU_] |270| 
    1265 00000040 9A01          MOVB      AL,#1                 ; [CPU_] |270| 
    1266              $C$DW$77        .dwtag  DW_TAG_TI_branch
    1267                      .dwattr $C$DW$77, DW_AT_low_pc(0x00)
    1268                      .dwattr $C$DW$77, DW_AT_name("_MB_PortSerialEnable")
    1269                      .dwattr $C$DW$77, DW_AT_TI_call
    1270 00000041 7640'         LCR       #_MB_PortSerialEnable ; [CPU_] |270| 
         00000042 0014 
    1271                      ; call occurs [#_MB_PortSerialEnable] ; [] |270| 
    1272                      .dwpsn  file "D:/BM1000/sw/drivers/drvic/modbus/mb.c",line 271,column 11,is_stmt
    1273 00000043 D019          MOVB      XAR0,#25              ; [CPU_] |271| 
    1274 00000044 2B91          MOV       *+XAR1[AR0],#0        ; [CPU_] |271| 
    1275 00000045 6F12          B         $C$L8,UNC             ; [CPU_] |271| 
    1276                      ; branch occurs ; [] |271| 
    1277 00000046       $C$L6:    
    1278                      .dwpsn  file "D:/BM1000/sw/drivers/drvic/modbus/mb.c",line 262,column 12,is_stmt
    1279 00000046 DC14          ADDB      XAR4,#20              ; [CPU_] |262| 
    1280 00000047 0201          MOVB      ACC,#1                ; [CPU_] |262| 
    1281                      .dwpsn  file "D:/BM1000/sw/drivers/drvic/modbus/mb.c",line 263,column 12,is_stmt
    1282 00000048 D014          MOVB      XAR0,#20              ; [CPU_] |263| 
    1283                      .dwpsn  file "D:/BM1000/sw/drivers/drvic/modbus/mb.c",line 262,column 12,is_stmt
    1284 00000049 5601          ADDL      *+XAR4[0],ACC         ; [CPU_] |262| 
         0000004a 00C4 
    1285                      .dwpsn  file "D:/BM1000/sw/drivers/drvic/modbus/mb.c",line 263,column 12,is_stmt
    1286 0000004b 8A91          MOVL      XAR4,*+XAR1[AR0]      ; [CPU_] |263| 
    1287 0000004c 92C4          MOV       AL,*+XAR4[0]          ; [CPU_] |263| 
    1288 0000004d 8AA1          MOVL      XAR4,XAR1             ; [CPU_] |263| 
    1289              $C$DW$78        .dwtag  DW_TAG_TI_branch
    1290                      .dwattr $C$DW$78, DW_AT_low_pc(0x00)
    1291                      .dwattr $C$DW$78, DW_AT_name("_MB_PortSerialPutByte")
    1292                      .dwattr $C$DW$78, DW_AT_TI_call
    1293 0000004e 7640'         LCR       #_MB_PortSerialPutByte ; [CPU_] |263| 
         0000004f 002D 
    1294                      ; call occurs [#_MB_PortSerialPutByte] ; [] |263| 
    1295                      .dwpsn  file "D:/BM1000/sw/drivers/drvic/modbus/mb.c",line 264,column 12,is_stmt
    1296 00000050 D916          ADDB      XAR1,#22              ; [CPU_] |264| 
    1297 00000051 0BC1          DEC       *+XAR1[0]             ; [CPU_] |264| 
    1298                      .dwpsn  file "D:/BM1000/sw/drivers/drvic/modbus/mb.c",line 265,column 10,is_stmt
    1299 00000052 6F05          B         $C$L8,UNC             ; [CPU_] |265| 
    1300                      ; branch occurs ; [] |265| 
    1301 00000053       $C$L7:    
    1302                      .dwpsn  file "D:/BM1000/sw/drivers/drvic/modbus/mb.c",line 256,column 9,is_stmt
    1303 00000053 9A01          MOVB      AL,#1                 ; [CPU_] |256| 
    1304 00000054 9B00          MOVB      AH,#0                 ; [CPU_] |256| 
    1305              $C$DW$79        .dwtag  DW_TAG_TI_branch
    1306                      .dwattr $C$DW$79, DW_AT_low_pc(0x00)
    1307                      .dwattr $C$DW$79, DW_AT_name("_MB_PortSerialEnable")
    1308                      .dwattr $C$DW$79, DW_AT_TI_call
    1309 00000055 7640'         LCR       #_MB_PortSerialEnable ; [CPU_] |256| 
         00000056 0014 
TMS320C2000 Assembler PC v6.2.5 Fri Sep 29 09:29:33 2017

Tools Copyright (c) 1996-2014 Texas Instruments Incorporated
C:\Users\wmj\AppData\Local\Temp\1142410                              PAGE   25

    1310                      ; call occurs [#_MB_PortSerialEnable] ; [] |256| 
    1311 00000057       $C$L8:    
    1312 00000057 8BBE          MOVL      XAR1,*--SP            ; [CPU_] 
    1313                      .dwcfi  cfa_offset, -2
    1314                      .dwcfi  restore_reg, 7
    1315              $C$DW$80        .dwtag  DW_TAG_TI_branch
    1316                      .dwattr $C$DW$80, DW_AT_low_pc(0x00)
    1317                      .dwattr $C$DW$80, DW_AT_TI_return
    1318 00000058 0006          LRETR     ; [CPU_] 
    1319                      ; return occurs ; [] 
    1320                      .dwattr $C$DW$73, DW_AT_TI_end_file("D:/BM1000/sw/drivers/drvic/modbus/mb.c")
    1321                      .dwattr $C$DW$73, DW_AT_TI_end_line(0x115)
    1322                      .dwattr $C$DW$73, DW_AT_TI_end_column(0x01)
    1323                      .dwendentry
    1324                      .dwendtag $C$DW$73
    1325              
    1326 00000059               .sect   ".text"
    1327                      .clink
    1328                      .global _MB_PortTimersDisable
    1329              
    1330              $C$DW$81        .dwtag  DW_TAG_subprogram, DW_AT_name("MB_PortTimersDisable")
    1331                      .dwattr $C$DW$81, DW_AT_low_pc(_MB_PortTimersDisable)
    1332                      .dwattr $C$DW$81, DW_AT_high_pc(0x00)
    1333                      .dwattr $C$DW$81, DW_AT_TI_symbol_name("_MB_PortTimersDisable")
    1334                      .dwattr $C$DW$81, DW_AT_external
    1335                      .dwattr $C$DW$81, DW_AT_TI_begin_file("D:/BM1000/sw/drivers/drvic/modbus/mb.c")
    1336                      .dwattr $C$DW$81, DW_AT_TI_begin_line(0x89)
    1337                      .dwattr $C$DW$81, DW_AT_TI_begin_column(0x06)
    1338                      .dwattr $C$DW$81, DW_AT_TI_max_frame_size(-2)
    1339                      .dwpsn  file "D:/BM1000/sw/drivers/drvic/modbus/mb.c",line 138,column 1,is_stmt,address _MB_PortTimer
    1340              
    1341                      .dwfde $C$DW$CIE, _MB_PortTimersDisable
    1342              $C$DW$82        .dwtag  DW_TAG_formal_parameter, DW_AT_name("handle")
    1343                      .dwattr $C$DW$82, DW_AT_TI_symbol_name("_handle")
    1344                      .dwattr $C$DW$82, DW_AT_type(*$C$DW$T$219)
    1345                      .dwattr $C$DW$82, DW_AT_location[DW_OP_reg12]
    1346              
    1347              ;***************************************************************
    1348              ;* FNAME: _MB_PortTimersDisable         FR SIZE:   0           *
    1349              ;*                                                             *
    1350              ;* FUNCTION ENVIRONMENT                                        *
    1351              ;*                                                             *
    1352              ;* FUNCTION PROPERTIES                                         *
    1353              ;*                            0 Parameter,  0 Auto,  0 SOE     *
    1354              ;***************************************************************
    1355              
    1356              _MB_PortTimersDisable:
    1357              ;* AR4   assigned to _handle
    1358              $C$DW$83        .dwtag  DW_TAG_variable, DW_AT_name("handle")
    1359                      .dwattr $C$DW$83, DW_AT_TI_symbol_name("_handle")
    1360                      .dwattr $C$DW$83, DW_AT_type(*$C$DW$T$234)
    1361                      .dwattr $C$DW$83, DW_AT_location[DW_OP_reg12]
    1362                      .dwcfi  cfa_offset, -2
    1363                      .dwcfi  save_reg_to_mem, 26, 0
    1364                      .dwcfi  save_reg_to_reg, 78, 26
TMS320C2000 Assembler PC v6.2.5 Fri Sep 29 09:29:33 2017

Tools Copyright (c) 1996-2014 Texas Instruments Incorporated
C:\Users\wmj\AppData\Local\Temp\1142410                              PAGE   26

    1365                      .dwpsn  file "D:/BM1000/sw/drivers/timer/src/32b/f28x/f2802x/timer.h",line 276,column 5,is_stmt
    1366 00000059 8AD4          MOVL      XAR4,*+XAR4[2]        ; [CPU_] |276| 
    1367 0000005a 1AE4          OR        *+XAR4[4],#0x0010     ; [CPU_] |276| 
         0000005b 0010 
    1368              $C$DW$84        .dwtag  DW_TAG_TI_branch
    1369                      .dwattr $C$DW$84, DW_AT_low_pc(0x00)
    1370                      .dwattr $C$DW$84, DW_AT_TI_return
    1371 0000005c 0006          LRETR     ; [CPU_] 
    1372                      ; return occurs ; [] 
    1373                      .dwattr $C$DW$81, DW_AT_TI_end_file("D:/BM1000/sw/drivers/drvic/modbus/mb.c")
    1374                      .dwattr $C$DW$81, DW_AT_TI_end_line(0x90)
    1375                      .dwattr $C$DW$81, DW_AT_TI_end_column(0x01)
    1376                      .dwendentry
    1377                      .dwendtag $C$DW$81
    1378              
    1379 0000005d               .sect   ".text"
    1380                      .clink
    1381                      .global _MB_RTUTimerFSM
    1382              
    1383              $C$DW$85        .dwtag  DW_TAG_subprogram, DW_AT_name("MB_RTUTimerFSM")
    1384                      .dwattr $C$DW$85, DW_AT_low_pc(_MB_RTUTimerFSM)
    1385                      .dwattr $C$DW$85, DW_AT_high_pc(0x00)
    1386                      .dwattr $C$DW$85, DW_AT_TI_symbol_name("_MB_RTUTimerFSM")
    1387                      .dwattr $C$DW$85, DW_AT_external
    1388                      .dwattr $C$DW$85, DW_AT_TI_begin_file("D:/BM1000/sw/drivers/drvic/modbus/mb.c")
    1389                      .dwattr $C$DW$85, DW_AT_TI_begin_line(0xe3)
    1390                      .dwattr $C$DW$85, DW_AT_TI_begin_column(0x06)
    1391                      .dwattr $C$DW$85, DW_AT_TI_max_frame_size(-2)
    1392                      .dwpsn  file "D:/BM1000/sw/drivers/drvic/modbus/mb.c",line 228,column 1,is_stmt,address _MB_RTUTimerF
    1393              
    1394                      .dwfde $C$DW$CIE, _MB_RTUTimerFSM
    1395              $C$DW$86        .dwtag  DW_TAG_formal_parameter, DW_AT_name("handle")
    1396                      .dwattr $C$DW$86, DW_AT_TI_symbol_name("_handle")
    1397                      .dwattr $C$DW$86, DW_AT_type(*$C$DW$T$219)
    1398                      .dwattr $C$DW$86, DW_AT_location[DW_OP_reg12]
    1399              
    1400              ;***************************************************************
    1401              ;* FNAME: _MB_RTUTimerFSM               FR SIZE:   0           *
    1402              ;*                                                             *
    1403              ;* FUNCTION ENVIRONMENT                                        *
    1404              ;*                                                             *
    1405              ;* FUNCTION PROPERTIES                                         *
    1406              ;*                            0 Parameter,  0 Auto,  0 SOE     *
    1407              ;***************************************************************
    1408              
    1409              _MB_RTUTimerFSM:
    1410              ;* AR5   assigned to _handle
    1411              $C$DW$87        .dwtag  DW_TAG_variable, DW_AT_name("handle")
    1412                      .dwattr $C$DW$87, DW_AT_TI_symbol_name("_handle")
    1413                      .dwattr $C$DW$87, DW_AT_type(*$C$DW$T$234)
    1414                      .dwattr $C$DW$87, DW_AT_location[DW_OP_reg14]
    1415                      .dwcfi  cfa_offset, -2
    1416                      .dwcfi  save_reg_to_mem, 26, 0
    1417                      .dwcfi  save_reg_to_reg, 78, 26
    1418 0000005d 83A4          MOVL      XAR5,XAR4             ; [CPU_] |228| 
TMS320C2000 Assembler PC v6.2.5 Fri Sep 29 09:29:33 2017

Tools Copyright (c) 1996-2014 Texas Instruments Incorporated
C:\Users\wmj\AppData\Local\Temp\1142410                              PAGE   27

    1419                      .dwpsn  file "D:/BM1000/sw/drivers/drvic/modbus/mb.c",line 231,column 5,is_stmt
    1420 0000005e D01A          MOVB      XAR0,#26              ; [CPU_] |231| 
    1421 0000005f 9295          MOV       AL,*+XAR5[AR0]        ; [CPU_] |231| 
    1422 00000060 EC05          BF        $C$L9,EQ              ; [CPU_] |231| 
    1423                      ; branchcc occurs ; [] |231| 
    1424 00000061 5202          CMPB      AL,#2                 ; [CPU_] |231| 
    1425 00000062 ED06          BF        $C$L11,NEQ            ; [CPU_] |231| 
    1426                      ; branchcc occurs ; [] |231| 
    1427                      .dwpsn  file "D:/BM1000/sw/drivers/drvic/modbus/mb.c",line 235,column 25,is_stmt
    1428 00000063 9A01          MOVB      AL,#1                 ; [CPU_] |235| 
    1429                      .dwpsn  file "D:/BM1000/sw/drivers/drvic/modbus/mb.c",line 235,column 70,is_stmt
    1430 00000064 6F02          B         $C$L10,UNC            ; [CPU_] |235| 
    1431                      ; branch occurs ; [] |235| 
    1432 00000065       $C$L9:    
    1433                      .dwpsn  file "D:/BM1000/sw/drivers/drvic/modbus/mb.c",line 234,column 25,is_stmt
    1434 00000065 9A00          MOVB      AL,#0                 ; [CPU_] |234| 
    1435              $C$L10:    
    1436              $C$DW$88        .dwtag  DW_TAG_TI_branch
    1437                      .dwattr $C$DW$88, DW_AT_low_pc(0x00)
    1438                      .dwattr $C$DW$88, DW_AT_name("_MB_PortEventPost")
    1439                      .dwattr $C$DW$88, DW_AT_TI_call
    1440 00000066 7640'         LCR       #_MB_PortEventPost    ; [CPU_] |234| 
         00000067 000E 
    1441                      ; call occurs [#_MB_PortEventPost] ; [] |234| 
    1442 00000068       $C$L11:    
    1443                      .dwpsn  file "D:/BM1000/sw/drivers/drvic/modbus/mb.c",line 240,column 5,is_stmt
    1444              $C$DW$89        .dwtag  DW_TAG_TI_branch
    1445                      .dwattr $C$DW$89, DW_AT_low_pc(0x00)
    1446                      .dwattr $C$DW$89, DW_AT_name("_MB_PortTimersDisable")
    1447                      .dwattr $C$DW$89, DW_AT_TI_call
    1448 00000068 7640'         LCR       #_MB_PortTimersDisable ; [CPU_] |240| 
         00000069 0059 
    1449                      ; call occurs [#_MB_PortTimersDisable] ; [] |240| 
    1450                      .dwpsn  file "D:/BM1000/sw/drivers/drvic/modbus/mb.c",line 241,column 5,is_stmt
    1451 0000006a D01A          MOVB      XAR0,#26              ; [CPU_] |241| 
    1452 0000006b 56BF          MOVB      *+XAR5[AR0],#1,UNC    ; [CPU_] |241| 
         0000006c 0195 
    1453              $C$DW$90        .dwtag  DW_TAG_TI_branch
    1454                      .dwattr $C$DW$90, DW_AT_low_pc(0x00)
    1455                      .dwattr $C$DW$90, DW_AT_TI_return
    1456 0000006d 0006          LRETR     ; [CPU_] 
    1457                      ; return occurs ; [] 
    1458                      .dwattr $C$DW$85, DW_AT_TI_end_file("D:/BM1000/sw/drivers/drvic/modbus/mb.c")
    1459                      .dwattr $C$DW$85, DW_AT_TI_end_line(0xf4)
    1460                      .dwattr $C$DW$85, DW_AT_TI_end_column(0x01)
    1461                      .dwendentry
    1462                      .dwendtag $C$DW$85
    1463              
    1464 0000006e               .sect   ".text"
    1465                      .clink
    1466                      .global _MB_CRC16
    1467              
    1468              $C$DW$91        .dwtag  DW_TAG_subprogram, DW_AT_name("MB_CRC16")
    1469                      .dwattr $C$DW$91, DW_AT_low_pc(_MB_CRC16)
    1470                      .dwattr $C$DW$91, DW_AT_high_pc(0x00)
TMS320C2000 Assembler PC v6.2.5 Fri Sep 29 09:29:33 2017

Tools Copyright (c) 1996-2014 Texas Instruments Incorporated
C:\Users\wmj\AppData\Local\Temp\1142410                              PAGE   28

    1471                      .dwattr $C$DW$91, DW_AT_TI_symbol_name("_MB_CRC16")
    1472                      .dwattr $C$DW$91, DW_AT_external
    1473                      .dwattr $C$DW$91, DW_AT_type(*$C$DW$T$23)
    1474                      .dwattr $C$DW$91, DW_AT_TI_begin_file("D:/BM1000/sw/drivers/drvic/modbus/mb.c")
    1475                      .dwattr $C$DW$91, DW_AT_TI_begin_line(0x3b)
    1476                      .dwattr $C$DW$91, DW_AT_TI_begin_column(0x0a)
    1477                      .dwattr $C$DW$91, DW_AT_TI_max_frame_size(-2)
    1478                      .dwpsn  file "D:/BM1000/sw/drivers/drvic/modbus/mb.c",line 60,column 1,is_stmt,address _MB_CRC16
    1479              
    1480                      .dwfde $C$DW$CIE, _MB_CRC16
    1481              $C$DW$92        .dwtag  DW_TAG_formal_parameter, DW_AT_name("PDU_Frame")
    1482                      .dwattr $C$DW$92, DW_AT_TI_symbol_name("_PDU_Frame")
    1483                      .dwattr $C$DW$92, DW_AT_type(*$C$DW$T$276)
    1484                      .dwattr $C$DW$92, DW_AT_location[DW_OP_reg12]
    1485              $C$DW$93        .dwtag  DW_TAG_formal_parameter, DW_AT_name("Length")
    1486                      .dwattr $C$DW$93, DW_AT_TI_symbol_name("_Length")
    1487                      .dwattr $C$DW$93, DW_AT_type(*$C$DW$T$23)
    1488                      .dwattr $C$DW$93, DW_AT_location[DW_OP_reg0]
    1489              
    1490              ;***************************************************************
    1491              ;* FNAME: _MB_CRC16                     FR SIZE:   0           *
    1492              ;*                                                             *
    1493              ;* FUNCTION ENVIRONMENT                                        *
    1494              ;*                                                             *
    1495              ;* FUNCTION PROPERTIES                                         *
    1496              ;*                            0 Parameter,  0 Auto,  0 SOE     *
    1497              ;***************************************************************
    1498              
    1499              _MB_CRC16:
    1500              ;* AL    assigned to _iIndex
    1501              $C$DW$94        .dwtag  DW_TAG_variable, DW_AT_name("iIndex")
    1502                      .dwattr $C$DW$94, DW_AT_TI_symbol_name("_iIndex")
    1503                      .dwattr $C$DW$94, DW_AT_type(*$C$DW$T$10)
    1504                      .dwattr $C$DW$94, DW_AT_location[DW_OP_reg0]
    1505              ;* PL    assigned to _ucCRCLo
    1506              $C$DW$95        .dwtag  DW_TAG_variable, DW_AT_name("ucCRCLo")
    1507                      .dwattr $C$DW$95, DW_AT_TI_symbol_name("_ucCRCLo")
    1508                      .dwattr $C$DW$95, DW_AT_type(*$C$DW$T$6)
    1509                      .dwattr $C$DW$95, DW_AT_location[DW_OP_reg2]
    1510              ;* AR7   assigned to _ucCRCHi
    1511              $C$DW$96        .dwtag  DW_TAG_variable, DW_AT_name("ucCRCHi")
    1512                      .dwattr $C$DW$96, DW_AT_TI_symbol_name("_ucCRCHi")
    1513                      .dwattr $C$DW$96, DW_AT_type(*$C$DW$T$6)
    1514                      .dwattr $C$DW$96, DW_AT_location[DW_OP_reg18]
    1515              ;* AR6   assigned to _Length
    1516              $C$DW$97        .dwtag  DW_TAG_variable, DW_AT_name("Length")
    1517                      .dwattr $C$DW$97, DW_AT_TI_symbol_name("_Length")
    1518                      .dwattr $C$DW$97, DW_AT_type(*$C$DW$T$23)
    1519                      .dwattr $C$DW$97, DW_AT_location[DW_OP_reg16]
    1520              ;* AR4   assigned to _PDU_Frame
    1521              $C$DW$98        .dwtag  DW_TAG_variable, DW_AT_name("PDU_Frame")
    1522                      .dwattr $C$DW$98, DW_AT_TI_symbol_name("_PDU_Frame")
    1523                      .dwattr $C$DW$98, DW_AT_type(*$C$DW$T$276)
    1524                      .dwattr $C$DW$98, DW_AT_location[DW_OP_reg12]
    1525              ;* AR6   assigned to $O$L1
TMS320C2000 Assembler PC v6.2.5 Fri Sep 29 09:29:33 2017

Tools Copyright (c) 1996-2014 Texas Instruments Incorporated
C:\Users\wmj\AppData\Local\Temp\1142410                              PAGE   29

    1526                      .dwcfi  cfa_offset, -2
    1527                      .dwcfi  save_reg_to_mem, 26, 0
    1528                      .dwcfi  save_reg_to_reg, 78, 26
    1529 0000006e 88A9          MOVZ      AR6,AL                ; [CPU_] |60| 
    1530 0000006f 2901          CLRC      SXM                   ; [CPU_] 
    1531                      .dwpsn  file "D:/BM1000/sw/drivers/drvic/modbus/mb.c",line 61,column 29,is_stmt
    1532 00000070 B6FF          MOVB      XAR7,#255             ; [CPU_] |61| 
    1533                      .dwpsn  file "D:/BM1000/sw/drivers/drvic/modbus/mb.c",line 62,column 29,is_stmt
    1534 00000071 28AB          MOV       PL,#255               ; [CPU_] |62| 
         00000072 00FF 
    1535                      .dwpsn  file "D:/BM1000/sw/drivers/drvic/modbus/mb.c",line 70,column 5,is_stmt
    1536 00000073 DE81          SUBB      XAR6,#1               ; [CPU_U] |70| 
    1537 00000074 FF20          MOV       ACC,#65535            ; [CPU_] |70| 
         00000075 FFFF 
    1538 00000076 58A6          MOVZ      AR0,AR6               ; [CPU_] |70| 
    1539 00000077 0FA0          CMPL      ACC,XAR0              ; [CPU_] |70| 
    1540 00000078 EC14          BF        $C$L13,EQ             ; [CPU_] |70| 
    1541                      ; branchcc occurs ; [] |70| 
    1542 00000079       $C$L12:    
    1543                      .dwpsn  file "D:/BM1000/sw/drivers/drvic/modbus/mb.c",line 67,column 9,is_stmt
    1544 00000079 92AB          MOV       AL,PL                 ; [CPU_] |67| 
    1545 0000007a 3B01          SETC      SXM                   ; [CPU_] 
    1546                      .dwpsn  file "D:/BM1000/sw/drivers/drvic/modbus/mb.c",line 68,column 9,is_stmt
    1547 0000007b 8F40+         MOVL      XAR5,#_aucCRCHi       ; [CPU_U] |68| 
         0000007c 0000 
    1548                      .dwpsn  file "D:/BM1000/sw/drivers/drvic/modbus/mb.c",line 67,column 9,is_stmt
    1549 0000007d 7084          XOR       AL,*XAR4++            ; [CPU_] |67| 
    1550                      .dwpsn  file "D:/BM1000/sw/drivers/drvic/modbus/mb.c",line 68,column 9,is_stmt
    1551 0000007e 85A9          MOV       ACC,AL                ; [CPU_] |68| 
    1552 0000007f 5601          ADDL      XAR5,ACC              ; [CPU_] |68| 
         00000080 00A5 
    1553 00000081 93A7          MOV       AH,AR7                ; [CPU_] |68| 
    1554 00000082 71C5          XOR       AH,*+XAR5[0]          ; [CPU_] |68| 
    1555 00000083 27A8          MOV       PL,AH                 ; [CPU_] |68| 
    1556                      .dwpsn  file "D:/BM1000/sw/drivers/drvic/modbus/mb.c",line 69,column 9,is_stmt
    1557 00000084 8F40+         MOVL      XAR5,#_aucCRCLo       ; [CPU_U] |69| 
         00000085 0000 
    1558 00000086 85A9          MOV       ACC,AL                ; [CPU_] |69| 
    1559 00000087 5601          ADDL      XAR5,ACC              ; [CPU_] |69| 
         00000088 00A5 
    1560 00000089 80C5          MOVZ      AR7,*+XAR5[0]         ; [CPU_] |69| 
    1561 0000008a 000E          BANZ      $C$L12,AR6--          ; [CPU_] |69| 
         0000008b FFEF 
    1562                      ; branchcc occurs ; [] |69| 
    1563 0000008c       $C$L13:    
    1564                      .dwpsn  file "D:/BM1000/sw/drivers/drvic/modbus/mb.c",line 71,column 5,is_stmt
    1565 0000008c 5603          MOV       ACC,AR7 << #8         ; [CPU_] |71| 
         0000008d 08A7 
    1566 0000008e CAAB          OR        AL,PL                 ; [CPU_] |71| 
    1567              $C$DW$99        .dwtag  DW_TAG_TI_branch
    1568                      .dwattr $C$DW$99, DW_AT_low_pc(0x00)
    1569                      .dwattr $C$DW$99, DW_AT_TI_return
    1570 0000008f 0006          LRETR     ; [CPU_] 
    1571                      ; return occurs ; [] 
    1572                      .dwattr $C$DW$91, DW_AT_TI_end_file("D:/BM1000/sw/drivers/drvic/modbus/mb.c")
TMS320C2000 Assembler PC v6.2.5 Fri Sep 29 09:29:33 2017

Tools Copyright (c) 1996-2014 Texas Instruments Incorporated
C:\Users\wmj\AppData\Local\Temp\1142410                              PAGE   30

    1573                      .dwattr $C$DW$91, DW_AT_TI_end_line(0x48)
    1574                      .dwattr $C$DW$91, DW_AT_TI_end_column(0x01)
    1575                      .dwendentry
    1576                      .dwendtag $C$DW$91
    1577              
    1578 00000090               .sect   ".text"
    1579                      .clink
    1580                      .global _MB_RTUSend
    1581              
    1582              $C$DW$100       .dwtag  DW_TAG_subprogram, DW_AT_name("MB_RTUSend")
    1583                      .dwattr $C$DW$100, DW_AT_low_pc(_MB_RTUSend)
    1584                      .dwattr $C$DW$100, DW_AT_high_pc(0x00)
    1585                      .dwattr $C$DW$100, DW_AT_TI_symbol_name("_MB_RTUSend")
    1586                      .dwattr $C$DW$100, DW_AT_external
    1587                      .dwattr $C$DW$100, DW_AT_type(*$C$DW$T$157)
    1588                      .dwattr $C$DW$100, DW_AT_TI_begin_file("D:/BM1000/sw/drivers/drvic/modbus/mb.c")
    1589                      .dwattr $C$DW$100, DW_AT_TI_begin_line(0x151)
    1590                      .dwattr $C$DW$100, DW_AT_TI_begin_column(0x0e)
    1591                      .dwattr $C$DW$100, DW_AT_TI_max_frame_size(-8)
    1592                      .dwpsn  file "D:/BM1000/sw/drivers/drvic/modbus/mb.c",line 338,column 1,is_stmt,address _MB_RTUSend
    1593              
    1594                      .dwfde $C$DW$CIE, _MB_RTUSend
    1595              $C$DW$101       .dwtag  DW_TAG_formal_parameter, DW_AT_name("handle")
    1596                      .dwattr $C$DW$101, DW_AT_TI_symbol_name("_handle")
    1597                      .dwattr $C$DW$101, DW_AT_type(*$C$DW$T$219)
    1598                      .dwattr $C$DW$101, DW_AT_location[DW_OP_reg12]
    1599              
    1600              ;***************************************************************
    1601              ;* FNAME: _MB_RTUSend                   FR SIZE:   6           *
    1602              ;*                                                             *
    1603              ;* FUNCTION ENVIRONMENT                                        *
    1604              ;*                                                             *
    1605              ;* FUNCTION PROPERTIES                                         *
    1606              ;*                            0 Parameter,  0 Auto,  6 SOE     *
    1607              ;***************************************************************
    1608              
    1609              _MB_RTUSend:
    1610              ;* AR3   assigned to $O$C3
    1611              ;* PH    assigned to $O$C4
    1612              ;* AL    assigned to _usCRC16
    1613              $C$DW$102       .dwtag  DW_TAG_variable, DW_AT_name("usCRC16")
    1614                      .dwattr $C$DW$102, DW_AT_TI_symbol_name("_usCRC16")
    1615                      .dwattr $C$DW$102, DW_AT_type(*$C$DW$T$155)
    1616                      .dwattr $C$DW$102, DW_AT_location[DW_OP_reg0]
    1617              ;* AL    assigned to _eStatus
    1618              $C$DW$103       .dwtag  DW_TAG_variable, DW_AT_name("eStatus")
    1619                      .dwattr $C$DW$103, DW_AT_TI_symbol_name("_eStatus")
    1620                      .dwattr $C$DW$103, DW_AT_type(*$C$DW$T$157)
    1621                      .dwattr $C$DW$103, DW_AT_location[DW_OP_reg0]
    1622              ;* AR2   assigned to _handle
    1623              $C$DW$104       .dwtag  DW_TAG_variable, DW_AT_name("handle")
    1624                      .dwattr $C$DW$104, DW_AT_TI_symbol_name("_handle")
    1625                      .dwattr $C$DW$104, DW_AT_type(*$C$DW$T$234)
    1626                      .dwattr $C$DW$104, DW_AT_location[DW_OP_reg8]
    1627              ;* AR0   assigned to $O$T2
TMS320C2000 Assembler PC v6.2.5 Fri Sep 29 09:29:33 2017

Tools Copyright (c) 1996-2014 Texas Instruments Incorporated
C:\Users\wmj\AppData\Local\Temp\1142410                              PAGE   31

    1628              ;* AR0   assigned to $O$T1
    1629                      .dwcfi  cfa_offset, -2
    1630                      .dwcfi  save_reg_to_mem, 26, 0
    1631                      .dwcfi  save_reg_to_reg, 78, 26
    1632 00000090 B2BD          MOVL      *SP++,XAR1            ; [CPU_] 
    1633                      .dwcfi  save_reg_to_mem, 7, 2
    1634                      .dwcfi  cfa_offset, -4
    1635                      .dwpsn  file "D:/BM1000/sw/drivers/drvic/modbus/mb.c",line 344,column 5,is_stmt
    1636 00000091 D01A          MOVB      XAR0,#26              ; [CPU_] |344| 
    1637 00000092 AABD          MOVL      *SP++,XAR2            ; [CPU_] 
    1638                      .dwcfi  save_reg_to_mem, 9, 4
    1639                      .dwcfi  cfa_offset, -6
    1640                      .dwpsn  file "D:/BM1000/sw/drivers/drvic/modbus/mb.c",line 338,column 1,is_stmt
    1641 00000093 86A4          MOVL      XAR2,XAR4             ; [CPU_] |338| 
    1642 00000094 A2BD          MOVL      *SP++,XAR3            ; [CPU_] 
    1643                      .dwcfi  save_reg_to_mem, 11, 6
    1644                      .dwcfi  cfa_offset, -8
    1645                      .dwpsn  file "D:/BM1000/sw/drivers/drvic/modbus/mb.c",line 344,column 5,is_stmt
    1646 00000095 9292          MOV       AL,*+XAR2[AR0]        ; [CPU_] |344| 
    1647 00000096 5201          CMPB      AL,#1                 ; [CPU_] |344| 
    1648 00000097 EC03          BF        $C$L14,EQ             ; [CPU_] |344| 
    1649                      ; branchcc occurs ; [] |344| 
    1650                      .dwpsn  file "D:/BM1000/sw/drivers/drvic/modbus/mb.c",line 367,column 9,is_stmt
    1651 00000098 9A05          MOVB      AL,#5                 ; [CPU_] |367| 
    1652 00000099 6F39          B         $C$L15,UNC            ; [CPU_] |367| 
    1653                      ; branch occurs ; [] |367| 
    1654 0000009a       $C$L14:    
    1655                      .dwpsn  file "D:/BM1000/sw/drivers/drvic/modbus/mb.c",line 347,column 6,is_stmt
    1656 0000009a 82A2          MOVL      XAR3,XAR2             ; [CPU_] |347| 
    1657 0000009b D014          MOVB      XAR0,#20              ; [CPU_] |347| 
    1658                      .dwpsn  file "D:/BM1000/sw/drivers/drvic/modbus/mb.c",line 351,column 6,is_stmt
    1659 0000009c C5A2          MOVL      XAR7,XAR2             ; [CPU_] |351| 
    1660                      .dwpsn  file "D:/BM1000/sw/drivers/drvic/modbus/mb.c",line 347,column 6,is_stmt
    1661 0000009d DB0A          ADDB      XAR3,#10              ; [CPU_] |347| 
    1662 0000009e A292          MOVL      *+XAR2[AR0],XAR3      ; [CPU_] |347| 
    1663                      .dwpsn  file "D:/BM1000/sw/drivers/drvic/modbus/mb.c",line 348,column 6,is_stmt
    1664 0000009f D016          MOVB      XAR0,#22              ; [CPU_] |348| 
    1665 000000a0 56BF          MOVB      *+XAR2[AR0],#1,UNC    ; [CPU_] |348| 
         000000a1 0192 
    1666                      .dwpsn  file "D:/BM1000/sw/drivers/drvic/modbus/mb.c",line 351,column 6,is_stmt
    1667 000000a2 D014          MOVB      XAR0,#20              ; [CPU_] |351| 
    1668 000000a3 8A92          MOVL      XAR4,*+XAR2[AR0]      ; [CPU_] |351| 
    1669 000000a4 DF17          ADDB      XAR7,#23              ; [CPU_] |351| 
    1670 000000a5 92C7          MOV       AL,*XAR7              ; [CPU_] |351| 
    1671 000000a6 96C4          MOV       *+XAR4[0],AL          ; [CPU_] |351| 
    1672                      .dwpsn  file "D:/BM1000/sw/drivers/drvic/modbus/mb.c",line 352,column 6,is_stmt
    1673 000000a7 8AA2          MOVL      XAR4,XAR2             ; [CPU_] |352| 
    1674                      .dwpsn  file "D:/BM1000/sw/drivers/drvic/modbus/mb.c",line 355,column 9,is_stmt
    1675 000000a8 D016          MOVB      XAR0,#22              ; [CPU_] |355| 
    1676                      .dwpsn  file "D:/BM1000/sw/drivers/drvic/modbus/mb.c",line 352,column 6,is_stmt
    1677 000000a9 DC16          ADDB      XAR4,#22              ; [CPU_] |352| 
    1678 000000aa 08C4          ADD       *+XAR4[0],#5          ; [CPU_] |352| 
         000000ab 0005 
    1679                      .dwpsn  file "D:/BM1000/sw/drivers/drvic/modbus/mb.c",line 355,column 9,is_stmt
    1680 000000ac 2F92          MOV       PH,*+XAR2[AR0]        ; [CPU_] |355| 
TMS320C2000 Assembler PC v6.2.5 Fri Sep 29 09:29:33 2017

Tools Copyright (c) 1996-2014 Texas Instruments Incorporated
C:\Users\wmj\AppData\Local\Temp\1142410                              PAGE   32

    1681 000000ad D014          MOVB      XAR0,#20              ; [CPU_] |355| 
    1682 000000ae 92AA          MOV       AL,PH                 ; [CPU_] |355| 
    1683 000000af 8A92          MOVL      XAR4,*+XAR2[AR0]      ; [CPU_] |355| 
    1684              $C$DW$105       .dwtag  DW_TAG_TI_branch
    1685                      .dwattr $C$DW$105, DW_AT_low_pc(0x00)
    1686                      .dwattr $C$DW$105, DW_AT_name("_MB_CRC16")
    1687                      .dwattr $C$DW$105, DW_AT_TI_call
    1688 000000b0 7640'         LCR       #_MB_CRC16            ; [CPU_] |355| 
         000000b1 006E 
    1689                      ; call occurs [#_MB_CRC16] ; [] |355| 
    1690                      .dwpsn  file "D:/BM1000/sw/drivers/drvic/modbus/mb.c",line 356,column 9,is_stmt
    1691 000000b2 D116          MOVB      XAR1,#22              ; [CPU_] |356| 
    1692 000000b3 9B01          MOVB      AH,#1                 ; [CPU_] |356| 
    1693 000000b4 58AA          MOVZ      AR0,PH                ; [CPU_] |356| 
    1694 000000b5 95A0          ADD       AH,AR0                ; [CPU_] |356| 
    1695 000000b6 979A          MOV       *+XAR2[AR1],AH        ; [CPU_] |356| 
    1696 000000b7 CDA9          AND       AH,AL,#0x00ff         ; [CPU_] |356| 
         000000b8 00FF 
    1697 000000b9 9793          MOV       *+XAR3[AR0],AH        ; [CPU_] |356| 
    1698                      .dwpsn  file "D:/BM1000/sw/drivers/drvic/modbus/mb.c",line 357,column 9,is_stmt
    1699 000000ba D016          MOVB      XAR0,#22              ; [CPU_] |357| 
    1700 000000bb 9B01          MOVB      AH,#1                 ; [CPU_] |357| 
    1701 000000bc 5892          MOVZ      AR0,*+XAR2[AR0]       ; [CPU_] |357| 
    1702 000000bd D116          MOVB      XAR1,#22              ; [CPU_] |357| 
    1703 000000be FFC7          LSR       AL,8                  ; [CPU_] |357| 
    1704                      .dwpsn  file "D:/BM1000/sw/drivers/drvic/modbus/mb.c",line 361,column 9,is_stmt
    1705 000000bf 8AA2          MOVL      XAR4,XAR2             ; [CPU_] |361| 
    1706                      .dwpsn  file "D:/BM1000/sw/drivers/drvic/modbus/mb.c",line 357,column 9,is_stmt
    1707 000000c0 95A0          ADD       AH,AR0                ; [CPU_] |357| 
    1708 000000c1 979A          MOV       *+XAR2[AR1],AH        ; [CPU_] |357| 
    1709                      .dwpsn  file "D:/BM1000/sw/drivers/drvic/modbus/mb.c",line 361,column 9,is_stmt
    1710 000000c2 9B01          MOVB      AH,#1                 ; [CPU_] |361| 
    1711                      .dwpsn  file "D:/BM1000/sw/drivers/drvic/modbus/mb.c",line 357,column 9,is_stmt
    1712 000000c3 9693          MOV       *+XAR3[AR0],AL        ; [CPU_] |357| 
    1713                      .dwpsn  file "D:/BM1000/sw/drivers/drvic/modbus/mb.c",line 361,column 9,is_stmt
    1714 000000c4 9A00          MOVB      AL,#0                 ; [CPU_] |361| 
    1715                      .dwpsn  file "D:/BM1000/sw/drivers/drvic/modbus/mb.c",line 360,column 9,is_stmt
    1716 000000c5 D019          MOVB      XAR0,#25              ; [CPU_] |360| 
    1717 000000c6 56BF          MOVB      *+XAR2[AR0],#1,UNC    ; [CPU_] |360| 
         000000c7 0192 
    1718                      .dwpsn  file "D:/BM1000/sw/drivers/drvic/modbus/mb.c",line 361,column 9,is_stmt
    1719              $C$DW$106       .dwtag  DW_TAG_TI_branch
    1720                      .dwattr $C$DW$106, DW_AT_low_pc(0x00)
    1721                      .dwattr $C$DW$106, DW_AT_name("_MB_PortSerialEnable")
    1722                      .dwattr $C$DW$106, DW_AT_TI_call
    1723 000000c8 7640'         LCR       #_MB_PortSerialEnable ; [CPU_] |361| 
         000000c9 0014 
    1724                      ; call occurs [#_MB_PortSerialEnable] ; [] |361| 
    1725                      .dwpsn  file "D:/BM1000/sw/drivers/drvic/modbus/mb.c",line 362,column 9,is_stmt
    1726 000000ca 8AA2          MOVL      XAR4,XAR2             ; [CPU_] |362| 
    1727 000000cb DC16          ADDB      XAR4,#22              ; [CPU_] |362| 
    1728 000000cc 0BC4          DEC       *+XAR4[0]             ; [CPU_] |362| 
    1729                      .dwpsn  file "D:/BM1000/sw/drivers/drvic/modbus/mb.c",line 363,column 9,is_stmt
    1730 000000cd 8AE2          MOVL      XAR4,*+XAR2[4]        ; [CPU_] |363| 
    1731 000000ce 92C3          MOV       AL,*+XAR3[0]          ; [CPU_] |363| 
TMS320C2000 Assembler PC v6.2.5 Fri Sep 29 09:29:33 2017

Tools Copyright (c) 1996-2014 Texas Instruments Incorporated
C:\Users\wmj\AppData\Local\Temp\1142410                              PAGE   33

    1732              $C$DW$107       .dwtag  DW_TAG_TI_branch
    1733                      .dwattr $C$DW$107, DW_AT_low_pc(0x00)
    1734                      .dwattr $C$DW$107, DW_AT_name("_SCI_putDataBlocking")
    1735                      .dwattr $C$DW$107, DW_AT_TI_call
    1736 000000cf 7640!         LCR       #_SCI_putDataBlocking ; [CPU_] |363| 
         000000d0 0000 
    1737                      ; call occurs [#_SCI_putDataBlocking] ; [] |363| 
    1738                      .dwpsn  file "D:/BM1000/sw/drivers/drvic/modbus/mb.c",line 341,column 29,is_stmt
    1739 000000d1 9A00          MOVB      AL,#0                 ; [CPU_] |341| 
    1740 000000d2       $C$L15:    
    1741 000000d2 82BE          MOVL      XAR3,*--SP            ; [CPU_] 
    1742                      .dwcfi  cfa_offset, -6
    1743                      .dwcfi  restore_reg, 11
    1744 000000d3 86BE          MOVL      XAR2,*--SP            ; [CPU_] 
    1745                      .dwcfi  cfa_offset, -4
    1746                      .dwcfi  restore_reg, 9
    1747 000000d4 8BBE          MOVL      XAR1,*--SP            ; [CPU_] 
    1748                      .dwcfi  cfa_offset, -2
    1749                      .dwcfi  restore_reg, 7
    1750              $C$DW$108       .dwtag  DW_TAG_TI_branch
    1751                      .dwattr $C$DW$108, DW_AT_low_pc(0x00)
    1752                      .dwattr $C$DW$108, DW_AT_TI_return
    1753 000000d5 0006          LRETR     ; [CPU_] 
    1754                      ; return occurs ; [] 
    1755                      .dwattr $C$DW$100, DW_AT_TI_end_file("D:/BM1000/sw/drivers/drvic/modbus/mb.c")
    1756                      .dwattr $C$DW$100, DW_AT_TI_end_line(0x172)
    1757                      .dwattr $C$DW$100, DW_AT_TI_end_column(0x01)
    1758                      .dwendentry
    1759                      .dwendtag $C$DW$100
    1760              
    1761 000000d6               .sect   ".text"
    1762                      .clink
    1763                      .global _MB_PortSerialGetByte
    1764              
    1765              $C$DW$109       .dwtag  DW_TAG_subprogram, DW_AT_name("MB_PortSerialGetByte")
    1766                      .dwattr $C$DW$109, DW_AT_low_pc(_MB_PortSerialGetByte)
    1767                      .dwattr $C$DW$109, DW_AT_high_pc(0x00)
    1768                      .dwattr $C$DW$109, DW_AT_TI_symbol_name("_MB_PortSerialGetByte")
    1769                      .dwattr $C$DW$109, DW_AT_external
    1770                      .dwattr $C$DW$109, DW_AT_type(*$C$DW$T$34)
    1771                      .dwattr $C$DW$109, DW_AT_TI_begin_file("D:/BM1000/sw/drivers/drvic/modbus/mb.c")
    1772                      .dwattr $C$DW$109, DW_AT_TI_begin_line(0xba)
    1773                      .dwattr $C$DW$109, DW_AT_TI_begin_column(0x06)
    1774                      .dwattr $C$DW$109, DW_AT_TI_max_frame_size(-4)
    1775                      .dwpsn  file "D:/BM1000/sw/drivers/drvic/modbus/mb.c",line 187,column 1,is_stmt,address _MB_PortSeria
    1776              
    1777                      .dwfde $C$DW$CIE, _MB_PortSerialGetByte
    1778              $C$DW$110       .dwtag  DW_TAG_formal_parameter, DW_AT_name("handle")
    1779                      .dwattr $C$DW$110, DW_AT_TI_symbol_name("_handle")
    1780                      .dwattr $C$DW$110, DW_AT_type(*$C$DW$T$219)
    1781                      .dwattr $C$DW$110, DW_AT_location[DW_OP_reg12]
    1782              $C$DW$111       .dwtag  DW_TAG_formal_parameter, DW_AT_name("getByte")
    1783                      .dwattr $C$DW$111, DW_AT_TI_symbol_name("_getByte")
    1784                      .dwattr $C$DW$111, DW_AT_type(*$C$DW$T$273)
    1785                      .dwattr $C$DW$111, DW_AT_location[DW_OP_reg14]
TMS320C2000 Assembler PC v6.2.5 Fri Sep 29 09:29:33 2017

Tools Copyright (c) 1996-2014 Texas Instruments Incorporated
C:\Users\wmj\AppData\Local\Temp\1142410                              PAGE   34

    1786              
    1787              ;***************************************************************
    1788              ;* FNAME: _MB_PortSerialGetByte         FR SIZE:   2           *
    1789              ;*                                                             *
    1790              ;* FUNCTION ENVIRONMENT                                        *
    1791              ;*                                                             *
    1792              ;* FUNCTION PROPERTIES                                         *
    1793              ;*                            0 Parameter,  0 Auto,  2 SOE     *
    1794              ;***************************************************************
    1795              
    1796              _MB_PortSerialGetByte:
    1797              ;* AR4   assigned to _handle
    1798              $C$DW$112       .dwtag  DW_TAG_variable, DW_AT_name("handle")
    1799                      .dwattr $C$DW$112, DW_AT_TI_symbol_name("_handle")
    1800                      .dwattr $C$DW$112, DW_AT_type(*$C$DW$T$234)
    1801                      .dwattr $C$DW$112, DW_AT_location[DW_OP_reg12]
    1802              ;* AR1   assigned to _getByte
    1803              $C$DW$113       .dwtag  DW_TAG_variable, DW_AT_name("getByte")
    1804                      .dwattr $C$DW$113, DW_AT_TI_symbol_name("_getByte")
    1805                      .dwattr $C$DW$113, DW_AT_type(*$C$DW$T$302)
    1806                      .dwattr $C$DW$113, DW_AT_location[DW_OP_reg6]
    1807                      .dwcfi  cfa_offset, -2
    1808                      .dwcfi  save_reg_to_mem, 26, 0
    1809                      .dwcfi  save_reg_to_reg, 78, 26
    1810 000000d6 B2BD          MOVL      *SP++,XAR1            ; [CPU_] 
    1811                      .dwcfi  save_reg_to_mem, 7, 2
    1812                      .dwcfi  cfa_offset, -4
    1813                      .dwpsn  file "D:/BM1000/sw/drivers/drvic/modbus/mb.c",line 190,column 5,is_stmt
    1814 000000d7 8AE4          MOVL      XAR4,*+XAR4[4]        ; [CPU_] |190| 
    1815                      .dwpsn  file "D:/BM1000/sw/drivers/drvic/modbus/mb.c",line 187,column 1,is_stmt
    1816 000000d8 8BA5          MOVL      XAR1,XAR5             ; [CPU_] |187| 
    1817                      .dwpsn  file "D:/BM1000/sw/drivers/drvic/modbus/mb.c",line 190,column 5,is_stmt
    1818              $C$DW$114       .dwtag  DW_TAG_TI_branch
    1819                      .dwattr $C$DW$114, DW_AT_low_pc(0x00)
    1820                      .dwattr $C$DW$114, DW_AT_name("_SCI_getDataBlocking")
    1821                      .dwattr $C$DW$114, DW_AT_TI_call
    1822 000000d9 7640!         LCR       #_SCI_getDataBlocking ; [CPU_] |190| 
         000000da 0000 
    1823                      ; call occurs [#_SCI_getDataBlocking] ; [] |190| 
    1824 000000db 96C1          MOV       *+XAR1[0],AL          ; [CPU_] |190| 
    1825                      .dwpsn  file "D:/BM1000/sw/drivers/drvic/modbus/mb.c",line 192,column 5,is_stmt
    1826 000000dc 9A01          MOVB      AL,#1                 ; [CPU_] |192| 
    1827 000000dd 8BBE          MOVL      XAR1,*--SP            ; [CPU_] 
    1828                      .dwcfi  cfa_offset, -2
    1829                      .dwcfi  restore_reg, 7
    1830              $C$DW$115       .dwtag  DW_TAG_TI_branch
    1831                      .dwattr $C$DW$115, DW_AT_low_pc(0x00)
    1832                      .dwattr $C$DW$115, DW_AT_TI_return
    1833 000000de 0006          LRETR     ; [CPU_] 
    1834                      ; return occurs ; [] 
    1835                      .dwattr $C$DW$109, DW_AT_TI_end_file("D:/BM1000/sw/drivers/drvic/modbus/mb.c")
    1836                      .dwattr $C$DW$109, DW_AT_TI_end_line(0xc1)
    1837                      .dwattr $C$DW$109, DW_AT_TI_end_column(0x01)
    1838                      .dwendentry
    1839                      .dwendtag $C$DW$109
TMS320C2000 Assembler PC v6.2.5 Fri Sep 29 09:29:33 2017

Tools Copyright (c) 1996-2014 Texas Instruments Incorporated
C:\Users\wmj\AppData\Local\Temp\1142410                              PAGE   35

    1840              
    1841 000000df               .sect   ".text"
    1842                      .clink
    1843                      .global _MB_PortTimersEnable
    1844              
    1845              $C$DW$116       .dwtag  DW_TAG_subprogram, DW_AT_name("MB_PortTimersEnable")
    1846                      .dwattr $C$DW$116, DW_AT_low_pc(_MB_PortTimersEnable)
    1847                      .dwattr $C$DW$116, DW_AT_high_pc(0x00)
    1848                      .dwattr $C$DW$116, DW_AT_TI_symbol_name("_MB_PortTimersEnable")
    1849                      .dwattr $C$DW$116, DW_AT_external
    1850                      .dwattr $C$DW$116, DW_AT_TI_begin_file("D:/BM1000/sw/drivers/drvic/modbus/mb.c")
    1851                      .dwattr $C$DW$116, DW_AT_TI_begin_line(0x7e)
    1852                      .dwattr $C$DW$116, DW_AT_TI_begin_column(0x06)
    1853                      .dwattr $C$DW$116, DW_AT_TI_max_frame_size(-4)
    1854                      .dwpsn  file "D:/BM1000/sw/drivers/drvic/modbus/mb.c",line 127,column 1,is_stmt,address _MB_PortTimer
    1855              
    1856                      .dwfde $C$DW$CIE, _MB_PortTimersEnable
    1857              $C$DW$117       .dwtag  DW_TAG_formal_parameter, DW_AT_name("handle")
    1858                      .dwattr $C$DW$117, DW_AT_TI_symbol_name("_handle")
    1859                      .dwattr $C$DW$117, DW_AT_type(*$C$DW$T$219)
    1860                      .dwattr $C$DW$117, DW_AT_location[DW_OP_reg12]
    1861              
    1862              ;***************************************************************
    1863              ;* FNAME: _MB_PortTimersEnable          FR SIZE:   2           *
    1864              ;*                                                             *
    1865              ;* FUNCTION ENVIRONMENT                                        *
    1866              ;*                                                             *
    1867              ;* FUNCTION PROPERTIES                                         *
    1868              ;*                            0 Parameter,  0 Auto,  2 SOE     *
    1869              ;***************************************************************
    1870              
    1871              _MB_PortTimersEnable:
    1872              ;* AR1   assigned to _handle
    1873              $C$DW$118       .dwtag  DW_TAG_variable, DW_AT_name("handle")
    1874                      .dwattr $C$DW$118, DW_AT_TI_symbol_name("_handle")
    1875                      .dwattr $C$DW$118, DW_AT_type(*$C$DW$T$234)
    1876                      .dwattr $C$DW$118, DW_AT_location[DW_OP_reg6]
    1877                      .dwcfi  cfa_offset, -2
    1878                      .dwcfi  save_reg_to_mem, 26, 0
    1879                      .dwcfi  save_reg_to_reg, 78, 26
    1880 000000df B2BD          MOVL      *SP++,XAR1            ; [CPU_] 
    1881                      .dwcfi  save_reg_to_mem, 7, 2
    1882                      .dwcfi  cfa_offset, -4
    1883 000000e0 8BA4          MOVL      XAR1,XAR4             ; [CPU_] |127| 
    1884                      .dwpsn  file "D:/BM1000/sw/drivers/drvic/modbus/mb.c",line 130,column 3,is_stmt
    1885 000000e1 8AD1          MOVL      XAR4,*+XAR1[2]        ; [CPU_] |130| 
    1886              $C$DW$119       .dwtag  DW_TAG_TI_branch
    1887                      .dwattr $C$DW$119, DW_AT_low_pc(0x00)
    1888                      .dwattr $C$DW$119, DW_AT_name("_TIMER_clearFlag")
    1889                      .dwattr $C$DW$119, DW_AT_TI_call
    1890 000000e2 7640!         LCR       #_TIMER_clearFlag     ; [CPU_] |130| 
         000000e3 0000 
    1891                      ; call occurs [#_TIMER_clearFlag] ; [] |130| 
    1892                      .dwpsn  file "D:/BM1000/sw/drivers/timer/src/32b/f28x/f2802x/timer.h",line 196,column 5,is_stmt
    1893 000000e4 8AD1          MOVL      XAR4,*+XAR1[2]        ; [CPU_] |196| 
TMS320C2000 Assembler PC v6.2.5 Fri Sep 29 09:29:33 2017

Tools Copyright (c) 1996-2014 Texas Instruments Incorporated
C:\Users\wmj\AppData\Local\Temp\1142410                              PAGE   36

    1894 000000e5 1AE4          OR        *+XAR4[4],#0x0020     ; [CPU_] |196| 
         000000e6 0020 
    1895                      .dwpsn  file "D:/BM1000/sw/drivers/timer/src/32b/f28x/f2802x/timer.h",line 262,column 5,is_stmt
    1896 000000e7 8AD1          MOVL      XAR4,*+XAR1[2]        ; [CPU_] |262| 
    1897 000000e8 18E4          AND       *+XAR4[4],#0xffef     ; [CPU_] |262| 
         000000e9 FFEF 
    1898 000000ea 8BBE          MOVL      XAR1,*--SP            ; [CPU_] 
    1899                      .dwcfi  cfa_offset, -2
    1900                      .dwcfi  restore_reg, 7
    1901              $C$DW$120       .dwtag  DW_TAG_TI_branch
    1902                      .dwattr $C$DW$120, DW_AT_low_pc(0x00)
    1903                      .dwattr $C$DW$120, DW_AT_TI_return
    1904 000000eb 0006          LRETR     ; [CPU_] 
    1905                      ; return occurs ; [] 
    1906                      .dwattr $C$DW$116, DW_AT_TI_end_file("D:/BM1000/sw/drivers/drvic/modbus/mb.c")
    1907                      .dwattr $C$DW$116, DW_AT_TI_end_line(0x87)
    1908                      .dwattr $C$DW$116, DW_AT_TI_end_column(0x01)
    1909                      .dwendentry
    1910                      .dwendtag $C$DW$116
    1911              
    1912 000000ec               .sect   ".text"
    1913                      .clink
    1914                      .global _MB_RTUReceiveFSM
    1915              
    1916              $C$DW$121       .dwtag  DW_TAG_subprogram, DW_AT_name("MB_RTUReceiveFSM")
    1917                      .dwattr $C$DW$121, DW_AT_low_pc(_MB_RTUReceiveFSM)
    1918                      .dwattr $C$DW$121, DW_AT_high_pc(0x00)
    1919                      .dwattr $C$DW$121, DW_AT_TI_symbol_name("_MB_RTUReceiveFSM")
    1920                      .dwattr $C$DW$121, DW_AT_external
    1921                      .dwattr $C$DW$121, DW_AT_TI_begin_file("D:/BM1000/sw/drivers/drvic/modbus/mb.c")
    1922                      .dwattr $C$DW$121, DW_AT_TI_begin_line(0x117)
    1923                      .dwattr $C$DW$121, DW_AT_TI_begin_column(0x06)
    1924                      .dwattr $C$DW$121, DW_AT_TI_max_frame_size(-6)
    1925                      .dwpsn  file "D:/BM1000/sw/drivers/drvic/modbus/mb.c",line 280,column 1,is_stmt,address _MB_RTUReceiv
    1926              
    1927                      .dwfde $C$DW$CIE, _MB_RTUReceiveFSM
    1928              $C$DW$122       .dwtag  DW_TAG_formal_parameter, DW_AT_name("handle")
    1929                      .dwattr $C$DW$122, DW_AT_TI_symbol_name("_handle")
    1930                      .dwattr $C$DW$122, DW_AT_type(*$C$DW$T$219)
    1931                      .dwattr $C$DW$122, DW_AT_location[DW_OP_reg12]
    1932              
    1933              ;***************************************************************
    1934              ;* FNAME: _MB_RTUReceiveFSM             FR SIZE:   4           *
    1935              ;*                                                             *
    1936              ;* FUNCTION ENVIRONMENT                                        *
    1937              ;*                                                             *
    1938              ;* FUNCTION PROPERTIES                                         *
    1939              ;*                            0 Parameter,  1 Auto,  2 SOE     *
    1940              ;***************************************************************
    1941              
    1942              _MB_RTUReceiveFSM:
    1943              $C$DW$123       .dwtag  DW_TAG_variable, DW_AT_name("ucByte")
    1944                      .dwattr $C$DW$123, DW_AT_TI_symbol_name("_ucByte")
    1945                      .dwattr $C$DW$123, DW_AT_type(*$C$DW$T$152)
    1946                      .dwattr $C$DW$123, DW_AT_location[DW_OP_breg20 -1]
TMS320C2000 Assembler PC v6.2.5 Fri Sep 29 09:29:33 2017

Tools Copyright (c) 1996-2014 Texas Instruments Incorporated
C:\Users\wmj\AppData\Local\Temp\1142410                              PAGE   37

    1947              ;* AR1   assigned to _handle
    1948              $C$DW$124       .dwtag  DW_TAG_variable, DW_AT_name("handle")
    1949                      .dwattr $C$DW$124, DW_AT_TI_symbol_name("_handle")
    1950                      .dwattr $C$DW$124, DW_AT_type(*$C$DW$T$234)
    1951                      .dwattr $C$DW$124, DW_AT_location[DW_OP_reg6]
    1952              ;* AR6   assigned to $O$U6
    1953                      .dwcfi  cfa_offset, -2
    1954                      .dwcfi  save_reg_to_mem, 26, 0
    1955                      .dwcfi  save_reg_to_reg, 78, 26
    1956 000000ec B2BD          MOVL      *SP++,XAR1            ; [CPU_] 
    1957                      .dwcfi  save_reg_to_mem, 7, 2
    1958                      .dwcfi  cfa_offset, -4
    1959 000000ed FE02          ADDB      SP,#2                 ; [CPU_U] 
    1960                      .dwcfi  cfa_offset, -6
    1961                      .dwpsn  file "D:/BM1000/sw/drivers/drvic/modbus/mb.c",line 286,column 5,is_stmt
    1962 000000ee 5DAD          MOVZ      AR5,SP                ; [CPU_U] |286| 
    1963                      .dwpsn  file "D:/BM1000/sw/drivers/drvic/modbus/mb.c",line 280,column 1,is_stmt
    1964 000000ef 8BA4          MOVL      XAR1,XAR4             ; [CPU_] |280| 
    1965                      .dwpsn  file "D:/BM1000/sw/drivers/drvic/modbus/mb.c",line 286,column 5,is_stmt
    1966 000000f0 DD81          SUBB      XAR5,#1               ; [CPU_U] |286| 
    1967              $C$DW$125       .dwtag  DW_TAG_TI_branch
    1968                      .dwattr $C$DW$125, DW_AT_low_pc(0x00)
    1969                      .dwattr $C$DW$125, DW_AT_name("_MB_PortSerialGetByte")
    1970                      .dwattr $C$DW$125, DW_AT_TI_call
    1971 000000f1 7640'         LCR       #_MB_PortSerialGetByte ; [CPU_] |286| 
         000000f2 00D6 
    1972                      ; call occurs [#_MB_PortSerialGetByte] ; [] |286| 
    1973                      .dwpsn  file "D:/BM1000/sw/drivers/drvic/modbus/mb.c",line 288,column 5,is_stmt
    1974 000000f3 D01A          MOVB      XAR0,#26              ; [CPU_] |288| 
    1975 000000f4 9291          MOV       AL,*+XAR1[AR0]        ; [CPU_] |288| 
    1976 000000f5 EC24          BF        $C$L18,EQ             ; [CPU_] |288| 
    1977                      ; branchcc occurs ; [] |288| 
    1978 000000f6 5201          CMPB      AL,#1                 ; [CPU_] |288| 
    1979 000000f7 EC19          BF        $C$L17,EQ             ; [CPU_] |288| 
    1980                      ; branchcc occurs ; [] |288| 
    1981 000000f8 5202          CMPB      AL,#2                 ; [CPU_] |288| 
    1982 000000f9 EC04          BF        $C$L16,EQ             ; [CPU_] |288| 
    1983                      ; branchcc occurs ; [] |288| 
    1984 000000fa 5203          CMPB      AL,#3                 ; [CPU_] |288| 
    1985 000000fb EC1E          BF        $C$L18,EQ             ; [CPU_] |288| 
    1986                      ; branchcc occurs ; [] |288| 
    1987 000000fc 6F20          B         $C$L19,UNC            ; [CPU_] |288| 
    1988                      ; branch occurs ; [] |288| 
    1989 000000fd       $C$L16:    
    1990                      .dwpsn  file "D:/BM1000/sw/drivers/drvic/modbus/mb.c",line 302,column 9,is_stmt
    1991 000000fd D012          MOVB      XAR0,#18              ; [CPU_] |302| 
    1992 000000fe 8891          MOVZ      AR6,*+XAR1[AR0]       ; [CPU_] |302| 
    1993 000000ff 92A6          MOV       AL,AR6                ; [CPU_] |302| 
    1994 00000100 5208          CMPB      AL,#8                 ; [CPU_] |302| 
    1995                      .dwpsn  file "D:/BM1000/sw/drivers/drvic/modbus/mb.c",line 308,column 11,is_stmt
    1996 00000101 56B7          MOVB      XAR0,#26,HIS          ; [CPU_] |308| 
         00000102 1AA0 
    1997 00000103 56B7          MOVB      *+XAR1[AR0],#3,HIS    ; [CPU_] |308| 
         00000104 0391 
    1998 00000105 6714          B         $C$L18,HIS            ; [CPU_] |308| 
TMS320C2000 Assembler PC v6.2.5 Fri Sep 29 09:29:33 2017

Tools Copyright (c) 1996-2014 Texas Instruments Incorporated
C:\Users\wmj\AppData\Local\Temp\1142410                              PAGE   38

    1999                      ; branchcc occurs ; [] |308| 
    2000                      .dwpsn  file "D:/BM1000/sw/drivers/drvic/modbus/mb.c",line 304,column 11,is_stmt
    2001 00000106 8AA1          MOVL      XAR4,XAR1             ; [CPU_] |304| 
    2002 00000107 B2A9          MOVL      ACC,XAR1              ; [CPU_] |304| 
    2003 00000108 0DA6          ADDU      ACC,AR6               ; [CPU_] |304| 
    2004 00000109 DC12          ADDB      XAR4,#18              ; [CPU_] |304| 
    2005 0000010a 0AC4          INC       *+XAR4[0]             ; [CPU_] |304| 
    2006 0000010b 8841          MOVZ      AR6,*-SP[1]           ; [CPU_] |304| 
    2007 0000010c D00A          MOVB      XAR0,#10              ; [CPU_] |304| 
    2008 0000010d 8AA9          MOVL      XAR4,ACC              ; [CPU_] |304| 
    2009 0000010e 7E94          MOV       *+XAR4[AR0],AR6       ; [CPU_] |304| 
    2010                      .dwpsn  file "D:/BM1000/sw/drivers/drvic/modbus/mb.c",line 290,column 56,is_stmt
    2011 0000010f 6F0A          B         $C$L18,UNC            ; [CPU_] |290| 
    2012                      ; branch occurs ; [] |290| 
    2013 00000110       $C$L17:    
    2014                      .dwpsn  file "D:/BM1000/sw/drivers/drvic/modbus/mb.c",line 295,column 6,is_stmt
    2015 00000110 D012          MOVB      XAR0,#18              ; [CPU_] |295| 
    2016 00000111 56BF          MOVB      *+XAR1[AR0],#1,UNC    ; [CPU_] |295| 
         00000112 0191 
    2017 00000113 9241          MOV       AL,*-SP[1]            ; [CPU_] |295| 
    2018 00000114 D00A          MOVB      XAR0,#10              ; [CPU_] |295| 
    2019 00000115 9691          MOV       *+XAR1[AR0],AL        ; [CPU_] |295| 
    2020                      .dwpsn  file "D:/BM1000/sw/drivers/drvic/modbus/mb.c",line 296,column 9,is_stmt
    2021 00000116 D01A          MOVB      XAR0,#26              ; [CPU_] |296| 
    2022 00000117 56BF          MOVB      *+XAR1[AR0],#2,UNC    ; [CPU_] |296| 
         00000118 0291 
    2023 00000119       $C$L18:    
    2024                      .dwpsn  file "D:/BM1000/sw/drivers/drvic/modbus/mb.c",line 298,column 9,is_stmt
    2025 00000119 8AA1          MOVL      XAR4,XAR1             ; [CPU_] |298| 
    2026              $C$DW$126       .dwtag  DW_TAG_TI_branch
    2027                      .dwattr $C$DW$126, DW_AT_low_pc(0x00)
    2028                      .dwattr $C$DW$126, DW_AT_name("_MB_PortTimersEnable")
    2029                      .dwattr $C$DW$126, DW_AT_TI_call
    2030 0000011a 7640'         LCR       #_MB_PortTimersEnable ; [CPU_] |298| 
         0000011b 00DF 
    2031                      ; call occurs [#_MB_PortTimersEnable] ; [] |298| 
    2032 0000011c       $C$L19:    
    2033 0000011c FE82          SUBB      SP,#2                 ; [CPU_U] 
    2034                      .dwcfi  cfa_offset, -4
    2035 0000011d 8BBE          MOVL      XAR1,*--SP            ; [CPU_] 
    2036                      .dwcfi  cfa_offset, -2
    2037                      .dwcfi  restore_reg, 7
    2038              $C$DW$127       .dwtag  DW_TAG_TI_branch
    2039                      .dwattr $C$DW$127, DW_AT_low_pc(0x00)
    2040                      .dwattr $C$DW$127, DW_AT_TI_return
    2041 0000011e 0006          LRETR     ; [CPU_] 
    2042                      ; return occurs ; [] 
    2043                      .dwattr $C$DW$121, DW_AT_TI_end_file("D:/BM1000/sw/drivers/drvic/modbus/mb.c")
    2044                      .dwattr $C$DW$121, DW_AT_TI_end_line(0x13b)
    2045                      .dwattr $C$DW$121, DW_AT_TI_end_column(0x01)
    2046                      .dwendentry
    2047                      .dwendtag $C$DW$121
    2048              
    2049 0000011f               .sect   ".text"
    2050                      .clink
TMS320C2000 Assembler PC v6.2.5 Fri Sep 29 09:29:33 2017

Tools Copyright (c) 1996-2014 Texas Instruments Incorporated
C:\Users\wmj\AppData\Local\Temp\1142410                              PAGE   39

    2051                      .global _MB_RTUReceive
    2052              
    2053              $C$DW$128       .dwtag  DW_TAG_subprogram, DW_AT_name("MB_RTUReceive")
    2054                      .dwattr $C$DW$128, DW_AT_low_pc(_MB_RTUReceive)
    2055                      .dwattr $C$DW$128, DW_AT_high_pc(0x00)
    2056                      .dwattr $C$DW$128, DW_AT_TI_symbol_name("_MB_RTUReceive")
    2057                      .dwattr $C$DW$128, DW_AT_external
    2058                      .dwattr $C$DW$128, DW_AT_type(*$C$DW$T$157)
    2059                      .dwattr $C$DW$128, DW_AT_TI_begin_file("D:/BM1000/sw/drivers/drvic/modbus/mb.c")
    2060                      .dwattr $C$DW$128, DW_AT_TI_begin_line(0x13d)
    2061                      .dwattr $C$DW$128, DW_AT_TI_begin_column(0x0e)
    2062                      .dwattr $C$DW$128, DW_AT_TI_max_frame_size(-4)
    2063                      .dwpsn  file "D:/BM1000/sw/drivers/drvic/modbus/mb.c",line 318,column 1,is_stmt,address _MB_RTUReceiv
    2064              
    2065                      .dwfde $C$DW$CIE, _MB_RTUReceive
    2066              $C$DW$129       .dwtag  DW_TAG_formal_parameter, DW_AT_name("handle")
    2067                      .dwattr $C$DW$129, DW_AT_TI_symbol_name("_handle")
    2068                      .dwattr $C$DW$129, DW_AT_type(*$C$DW$T$219)
    2069                      .dwattr $C$DW$129, DW_AT_location[DW_OP_reg12]
    2070              
    2071              ;***************************************************************
    2072              ;* FNAME: _MB_RTUReceive                FR SIZE:   2           *
    2073              ;*                                                             *
    2074              ;* FUNCTION ENVIRONMENT                                        *
    2075              ;*                                                             *
    2076              ;* FUNCTION PROPERTIES                                         *
    2077              ;*                            0 Parameter,  0 Auto,  2 SOE     *
    2078              ;***************************************************************
    2079              
    2080              _MB_RTUReceive:
    2081              ;* AL    assigned to $O$C1
    2082              ;* AL    assigned to _eStatus
    2083              $C$DW$130       .dwtag  DW_TAG_variable, DW_AT_name("eStatus")
    2084                      .dwattr $C$DW$130, DW_AT_TI_symbol_name("_eStatus")
    2085                      .dwattr $C$DW$130, DW_AT_type(*$C$DW$T$157)
    2086                      .dwattr $C$DW$130, DW_AT_location[DW_OP_reg0]
    2087              ;* AR1   assigned to _handle
    2088              $C$DW$131       .dwtag  DW_TAG_variable, DW_AT_name("handle")
    2089                      .dwattr $C$DW$131, DW_AT_TI_symbol_name("_handle")
    2090                      .dwattr $C$DW$131, DW_AT_type(*$C$DW$T$234)
    2091                      .dwattr $C$DW$131, DW_AT_location[DW_OP_reg6]
    2092              ;* XT    assigned to $O$K7
    2093                      .dwcfi  cfa_offset, -2
    2094                      .dwcfi  save_reg_to_mem, 26, 0
    2095                      .dwcfi  save_reg_to_reg, 78, 26
    2096 0000011f B2BD          MOVL      *SP++,XAR1            ; [CPU_] 
    2097                      .dwcfi  save_reg_to_mem, 7, 2
    2098                      .dwcfi  cfa_offset, -4
    2099                      .dwpsn  file "D:/BM1000/sw/drivers/drvic/modbus/mb.c",line 324,column 5,is_stmt
    2100 00000120 D012          MOVB      XAR0,#18              ; [CPU_] |324| 
    2101                      .dwpsn  file "D:/BM1000/sw/drivers/drvic/modbus/mb.c",line 318,column 1,is_stmt
    2102 00000121 8BA4          MOVL      XAR1,XAR4             ; [CPU_] |318| 
    2103                      .dwpsn  file "D:/BM1000/sw/drivers/drvic/modbus/mb.c",line 324,column 5,is_stmt
    2104 00000122 9291          MOV       AL,*+XAR1[AR0]        ; [CPU_] |324| 
    2105 00000123 5208          CMPB      AL,#8                 ; [CPU_] |324| 
TMS320C2000 Assembler PC v6.2.5 Fri Sep 29 09:29:33 2017

Tools Copyright (c) 1996-2014 Texas Instruments Incorporated
C:\Users\wmj\AppData\Local\Temp\1142410                              PAGE   40

    2106 00000124 ED0B          BF        $C$L20,NEQ            ; [CPU_] |324| 
    2107                      ; branchcc occurs ; [] |324| 
    2108 00000125 DC0A          ADDB      XAR4,#10              ; [CPU_] |324| 
    2109 00000126 A8AC          MOVL      XT,XAR4               ; [CPU_] |324| 
    2110              $C$DW$132       .dwtag  DW_TAG_TI_branch
    2111                      .dwattr $C$DW$132, DW_AT_low_pc(0x00)
    2112                      .dwattr $C$DW$132, DW_AT_name("_MB_CRC16")
    2113                      .dwattr $C$DW$132, DW_AT_TI_call
    2114 00000127 7640'         LCR       #_MB_CRC16            ; [CPU_] |324| 
         00000128 006E 
    2115                      ; call occurs [#_MB_CRC16] ; [] |324| 
    2116 00000129 5200          CMPB      AL,#0                 ; [CPU_] |324| 
    2117 0000012a ED05          BF        $C$L20,NEQ            ; [CPU_] |324| 
    2118                      ; branchcc occurs ; [] |324| 
    2119                      .dwpsn  file "D:/BM1000/sw/drivers/drvic/modbus/mb.c",line 327,column 9,is_stmt
    2120 0000012b D008          MOVB      XAR0,#8               ; [CPU_] |327| 
    2121                      .dwpsn  file "D:/BM1000/sw/drivers/drvic/modbus/mb.c",line 321,column 29,is_stmt
    2122 0000012c 9A00          MOVB      AL,#0                 ; [CPU_] |321| 
    2123                      .dwpsn  file "D:/BM1000/sw/drivers/drvic/modbus/mb.c",line 327,column 9,is_stmt
    2124 0000012d AB91          MOVL      *+XAR1[AR0],XT        ; [CPU_] |327| 
    2125                      .dwpsn  file "D:/BM1000/sw/drivers/drvic/modbus/mb.c",line 328,column 5,is_stmt
    2126 0000012e 6F02          B         $C$L21,UNC            ; [CPU_] |328| 
    2127                      ; branch occurs ; [] |328| 
    2128 0000012f       $C$L20:    
    2129                      .dwpsn  file "D:/BM1000/sw/drivers/drvic/modbus/mb.c",line 331,column 9,is_stmt
    2130 0000012f 9A05          MOVB      AL,#5                 ; [CPU_] |331| 
    2131 00000130       $C$L21:    
    2132 00000130 8BBE          MOVL      XAR1,*--SP            ; [CPU_] 
    2133                      .dwcfi  cfa_offset, -2
    2134                      .dwcfi  restore_reg, 7
    2135              $C$DW$133       .dwtag  DW_TAG_TI_branch
    2136                      .dwattr $C$DW$133, DW_AT_low_pc(0x00)
    2137                      .dwattr $C$DW$133, DW_AT_TI_return
    2138 00000131 0006          LRETR     ; [CPU_] 
    2139                      ; return occurs ; [] 
    2140                      .dwattr $C$DW$128, DW_AT_TI_end_file("D:/BM1000/sw/drivers/drvic/modbus/mb.c")
    2141                      .dwattr $C$DW$128, DW_AT_TI_end_line(0x14f)
    2142                      .dwattr $C$DW$128, DW_AT_TI_end_column(0x01)
    2143                      .dwendentry
    2144                      .dwendtag $C$DW$128
    2145              
    2146 00000132               .sect   ".text"
    2147                      .clink
    2148                      .global _MB_PortEventInit
    2149              
    2150              $C$DW$134       .dwtag  DW_TAG_subprogram, DW_AT_name("MB_PortEventInit")
    2151                      .dwattr $C$DW$134, DW_AT_low_pc(_MB_PortEventInit)
    2152                      .dwattr $C$DW$134, DW_AT_high_pc(0x00)
    2153                      .dwattr $C$DW$134, DW_AT_TI_symbol_name("_MB_PortEventInit")
    2154                      .dwattr $C$DW$134, DW_AT_external
    2155                      .dwattr $C$DW$134, DW_AT_TI_begin_file("D:/BM1000/sw/drivers/drvic/modbus/mb.c")
    2156                      .dwattr $C$DW$134, DW_AT_TI_begin_line(0xc3)
    2157                      .dwattr $C$DW$134, DW_AT_TI_begin_column(0x06)
    2158                      .dwattr $C$DW$134, DW_AT_TI_max_frame_size(-2)
    2159                      .dwpsn  file "D:/BM1000/sw/drivers/drvic/modbus/mb.c",line 196,column 1,is_stmt,address _MB_PortEvent
TMS320C2000 Assembler PC v6.2.5 Fri Sep 29 09:29:33 2017

Tools Copyright (c) 1996-2014 Texas Instruments Incorporated
C:\Users\wmj\AppData\Local\Temp\1142410                              PAGE   41

    2160              
    2161                      .dwfde $C$DW$CIE, _MB_PortEventInit
    2162              $C$DW$135       .dwtag  DW_TAG_formal_parameter, DW_AT_name("handle")
    2163                      .dwattr $C$DW$135, DW_AT_TI_symbol_name("_handle")
    2164                      .dwattr $C$DW$135, DW_AT_type(*$C$DW$T$219)
    2165                      .dwattr $C$DW$135, DW_AT_location[DW_OP_reg12]
    2166              
    2167              ;***************************************************************
    2168              ;* FNAME: _MB_PortEventInit             FR SIZE:   0           *
    2169              ;*                                                             *
    2170              ;* FUNCTION ENVIRONMENT                                        *
    2171              ;*                                                             *
    2172              ;* FUNCTION PROPERTIES                                         *
    2173              ;*                            0 Parameter,  0 Auto,  0 SOE     *
    2174              ;***************************************************************
    2175              
    2176              _MB_PortEventInit:
    2177              ;* AR4   assigned to _handle
    2178              $C$DW$136       .dwtag  DW_TAG_variable, DW_AT_name("handle")
    2179                      .dwattr $C$DW$136, DW_AT_TI_symbol_name("_handle")
    2180                      .dwattr $C$DW$136, DW_AT_type(*$C$DW$T$234)
    2181                      .dwattr $C$DW$136, DW_AT_location[DW_OP_reg12]
    2182                      .dwcfi  cfa_offset, -2
    2183                      .dwcfi  save_reg_to_mem, 26, 0
    2184                      .dwcfi  save_reg_to_reg, 78, 26
    2185                      .dwpsn  file "D:/BM1000/sw/drivers/drvic/modbus/mb.c",line 199,column 5,is_stmt
    2186 00000132 D01B          MOVB      XAR0,#27              ; [CPU_] |199| 
    2187 00000133 2B94          MOV       *+XAR4[AR0],#0        ; [CPU_] |199| 
    2188              $C$DW$137       .dwtag  DW_TAG_TI_branch
    2189                      .dwattr $C$DW$137, DW_AT_low_pc(0x00)
    2190                      .dwattr $C$DW$137, DW_AT_TI_return
    2191 00000134 0006          LRETR     ; [CPU_] 
    2192                      ; return occurs ; [] 
    2193                      .dwattr $C$DW$134, DW_AT_TI_end_file("D:/BM1000/sw/drivers/drvic/modbus/mb.c")
    2194                      .dwattr $C$DW$134, DW_AT_TI_end_line(0xca)
    2195                      .dwattr $C$DW$134, DW_AT_TI_end_column(0x01)
    2196                      .dwendentry
    2197                      .dwendtag $C$DW$134
    2198              
    2199 00000135               .sect   ".text"
    2200                      .clink
    2201                      .global _MB_PortEventGet
    2202              
    2203              $C$DW$138       .dwtag  DW_TAG_subprogram, DW_AT_name("MB_PortEventGet")
    2204                      .dwattr $C$DW$138, DW_AT_low_pc(_MB_PortEventGet)
    2205                      .dwattr $C$DW$138, DW_AT_high_pc(0x00)
    2206                      .dwattr $C$DW$138, DW_AT_TI_symbol_name("_MB_PortEventGet")
    2207                      .dwattr $C$DW$138, DW_AT_external
    2208                      .dwattr $C$DW$138, DW_AT_type(*$C$DW$T$34)
    2209                      .dwattr $C$DW$138, DW_AT_TI_begin_file("D:/BM1000/sw/drivers/drvic/modbus/mb.c")
    2210                      .dwattr $C$DW$138, DW_AT_TI_begin_line(0xd4)
    2211                      .dwattr $C$DW$138, DW_AT_TI_begin_column(0x06)
    2212                      .dwattr $C$DW$138, DW_AT_TI_max_frame_size(-2)
    2213                      .dwpsn  file "D:/BM1000/sw/drivers/drvic/modbus/mb.c",line 213,column 1,is_stmt,address _MB_PortEvent
    2214              
TMS320C2000 Assembler PC v6.2.5 Fri Sep 29 09:29:33 2017

Tools Copyright (c) 1996-2014 Texas Instruments Incorporated
C:\Users\wmj\AppData\Local\Temp\1142410                              PAGE   42

    2215                      .dwfde $C$DW$CIE, _MB_PortEventGet
    2216              $C$DW$139       .dwtag  DW_TAG_formal_parameter, DW_AT_name("handle")
    2217                      .dwattr $C$DW$139, DW_AT_TI_symbol_name("_handle")
    2218                      .dwattr $C$DW$139, DW_AT_type(*$C$DW$T$219)
    2219                      .dwattr $C$DW$139, DW_AT_location[DW_OP_reg12]
    2220              $C$DW$140       .dwtag  DW_TAG_formal_parameter, DW_AT_name("eEvent")
    2221                      .dwattr $C$DW$140, DW_AT_TI_symbol_name("_eEvent")
    2222                      .dwattr $C$DW$140, DW_AT_type(*$C$DW$T$225)
    2223                      .dwattr $C$DW$140, DW_AT_location[DW_OP_reg14]
    2224              
    2225              ;***************************************************************
    2226              ;* FNAME: _MB_PortEventGet              FR SIZE:   0           *
    2227              ;*                                                             *
    2228              ;* FUNCTION ENVIRONMENT                                        *
    2229              ;*                                                             *
    2230              ;* FUNCTION PROPERTIES                                         *
    2231              ;*                            0 Parameter,  0 Auto,  0 SOE     *
    2232              ;***************************************************************
    2233              
    2234              _MB_PortEventGet:
    2235              ;* AL    assigned to _xEventHappened
    2236              $C$DW$141       .dwtag  DW_TAG_variable, DW_AT_name("xEventHappened")
    2237                      .dwattr $C$DW$141, DW_AT_TI_symbol_name("_xEventHappened")
    2238                      .dwattr $C$DW$141, DW_AT_type(*$C$DW$T$34)
    2239                      .dwattr $C$DW$141, DW_AT_location[DW_OP_reg0]
    2240              ;* AR5   assigned to _eEvent
    2241              $C$DW$142       .dwtag  DW_TAG_variable, DW_AT_name("eEvent")
    2242                      .dwattr $C$DW$142, DW_AT_TI_symbol_name("_eEvent")
    2243                      .dwattr $C$DW$142, DW_AT_type(*$C$DW$T$226)
    2244                      .dwattr $C$DW$142, DW_AT_location[DW_OP_reg14]
    2245              ;* AR4   assigned to _handle
    2246              $C$DW$143       .dwtag  DW_TAG_variable, DW_AT_name("handle")
    2247                      .dwattr $C$DW$143, DW_AT_TI_symbol_name("_handle")
    2248                      .dwattr $C$DW$143, DW_AT_type(*$C$DW$T$234)
    2249                      .dwattr $C$DW$143, DW_AT_location[DW_OP_reg12]
    2250                      .dwcfi  cfa_offset, -2
    2251                      .dwcfi  save_reg_to_mem, 26, 0
    2252                      .dwcfi  save_reg_to_reg, 78, 26
    2253                      .dwpsn  file "D:/BM1000/sw/drivers/drvic/modbus/mb.c",line 217,column 5,is_stmt
    2254 00000135 D01B          MOVB      XAR0,#27              ; [CPU_] |217| 
    2255 00000136 9294          MOV       AL,*+XAR4[AR0]        ; [CPU_] |217| 
    2256 00000137 ED03          BF        $C$L22,NEQ            ; [CPU_] |217| 
    2257                      ; branchcc occurs ; [] |217| 
    2258                      .dwpsn  file "D:/BM1000/sw/drivers/drvic/modbus/mb.c",line 215,column 26,is_stmt
    2259 00000138 9A00          MOVB      AL,#0                 ; [CPU_] |215| 
    2260              $C$DW$144       .dwtag  DW_TAG_TI_branch
    2261                      .dwattr $C$DW$144, DW_AT_low_pc(0x00)
    2262                      .dwattr $C$DW$144, DW_AT_TI_return
    2263 00000139 0006          LRETR     ; [CPU_] 
    2264                      ; return occurs ; [] 
    2265 0000013a       $C$L22:    
    2266                      .dwpsn  file "D:/BM1000/sw/drivers/drvic/modbus/mb.c",line 219,column 9,is_stmt
    2267 0000013a C5A4          MOVL      XAR7,XAR4             ; [CPU_] |219| 
    2268 0000013b DF1C          ADDB      XAR7,#28              ; [CPU_] |219| 
    2269 0000013c 92C7          MOV       AL,*XAR7              ; [CPU_] |219| 
TMS320C2000 Assembler PC v6.2.5 Fri Sep 29 09:29:33 2017

Tools Copyright (c) 1996-2014 Texas Instruments Incorporated
C:\Users\wmj\AppData\Local\Temp\1142410                              PAGE   43

    2270 0000013d 96C5          MOV       *+XAR5[0],AL          ; [CPU_] |219| 
    2271                      .dwpsn  file "D:/BM1000/sw/drivers/drvic/modbus/mb.c",line 221,column 9,is_stmt
    2272 0000013e 9A01          MOVB      AL,#1                 ; [CPU_] |221| 
    2273                      .dwpsn  file "D:/BM1000/sw/drivers/drvic/modbus/mb.c",line 220,column 9,is_stmt
    2274 0000013f D01B          MOVB      XAR0,#27              ; [CPU_] |220| 
    2275 00000140 2B94          MOV       *+XAR4[AR0],#0        ; [CPU_] |220| 
    2276              $C$DW$145       .dwtag  DW_TAG_TI_branch
    2277                      .dwattr $C$DW$145, DW_AT_low_pc(0x00)
    2278                      .dwattr $C$DW$145, DW_AT_TI_return
    2279 00000141 0006          LRETR     ; [CPU_] 
    2280                      ; return occurs ; [] 
    2281                      .dwattr $C$DW$138, DW_AT_TI_end_file("D:/BM1000/sw/drivers/drvic/modbus/mb.c")
    2282                      .dwattr $C$DW$138, DW_AT_TI_end_line(0xe1)
    2283                      .dwattr $C$DW$138, DW_AT_TI_end_column(0x01)
    2284                      .dwendentry
    2285                      .dwendtag $C$DW$138
    2286              
    2287 00000142               .sect   ".text"
    2288                      .clink
    2289                      .global _MB_FuncWriteHoldingRegister
    2290              
    2291              $C$DW$146       .dwtag  DW_TAG_subprogram, DW_AT_name("MB_FuncWriteHoldingRegister")
    2292                      .dwattr $C$DW$146, DW_AT_low_pc(_MB_FuncWriteHoldingRegister)
    2293                      .dwattr $C$DW$146, DW_AT_high_pc(0x00)
    2294                      .dwattr $C$DW$146, DW_AT_TI_symbol_name("_MB_FuncWriteHoldingRegister")
    2295                      .dwattr $C$DW$146, DW_AT_external
    2296                      .dwattr $C$DW$146, DW_AT_TI_begin_file("D:/BM1000/sw/drivers/drvic/modbus/mb.c")
    2297                      .dwattr $C$DW$146, DW_AT_TI_begin_line(0x1e3)
    2298                      .dwattr $C$DW$146, DW_AT_TI_begin_column(0x06)
    2299                      .dwattr $C$DW$146, DW_AT_TI_max_frame_size(-2)
    2300                      .dwpsn  file "D:/BM1000/sw/drivers/drvic/modbus/mb.c",line 484,column 1,is_stmt,address _MB_FuncWrite
    2301              
    2302                      .dwfde $C$DW$CIE, _MB_FuncWriteHoldingRegister
    2303              $C$DW$147       .dwtag  DW_TAG_formal_parameter, DW_AT_name("handle")
    2304                      .dwattr $C$DW$147, DW_AT_TI_symbol_name("_handle")
    2305                      .dwattr $C$DW$147, DW_AT_type(*$C$DW$T$219)
    2306                      .dwattr $C$DW$147, DW_AT_location[DW_OP_reg12]
    2307              
    2308              ;***************************************************************
    2309              ;* FNAME: _MB_FuncWriteHoldingRegister  FR SIZE:   0           *
    2310              ;*                                                             *
    2311              ;* FUNCTION ENVIRONMENT                                        *
    2312              ;*                                                             *
    2313              ;* FUNCTION PROPERTIES                                         *
    2314              ;*                            0 Parameter,  0 Auto,  0 SOE     *
    2315              ;***************************************************************
    2316              
    2317              _MB_FuncWriteHoldingRegister:
    2318              ;* AR5   assigned to $O$C1
    2319              ;* AR6   assigned to $O$C2
    2320              ;* AR5   assigned to $O$C3
    2321              ;* AL    assigned to _RegData
    2322              $C$DW$148       .dwtag  DW_TAG_variable, DW_AT_name("RegData")
    2323                      .dwattr $C$DW$148, DW_AT_TI_symbol_name("_RegData")
    2324                      .dwattr $C$DW$148, DW_AT_type(*$C$DW$T$23)
TMS320C2000 Assembler PC v6.2.5 Fri Sep 29 09:29:33 2017

Tools Copyright (c) 1996-2014 Texas Instruments Incorporated
C:\Users\wmj\AppData\Local\Temp\1142410                              PAGE   44

    2325                      .dwattr $C$DW$148, DW_AT_location[DW_OP_reg0]
    2326              ;* AR7   assigned to _RegAddress
    2327              $C$DW$149       .dwtag  DW_TAG_variable, DW_AT_name("RegAddress")
    2328                      .dwattr $C$DW$149, DW_AT_TI_symbol_name("_RegAddress")
    2329                      .dwattr $C$DW$149, DW_AT_type(*$C$DW$T$23)
    2330                      .dwattr $C$DW$149, DW_AT_location[DW_OP_reg18]
    2331              ;* AR4   assigned to _handle
    2332              $C$DW$150       .dwtag  DW_TAG_variable, DW_AT_name("handle")
    2333                      .dwattr $C$DW$150, DW_AT_TI_symbol_name("_handle")
    2334                      .dwattr $C$DW$150, DW_AT_type(*$C$DW$T$234)
    2335                      .dwattr $C$DW$150, DW_AT_location[DW_OP_reg12]
    2336                      .dwcfi  cfa_offset, -2
    2337                      .dwcfi  save_reg_to_mem, 26, 0
    2338                      .dwcfi  save_reg_to_reg, 78, 26
    2339                      .dwpsn  file "D:/BM1000/sw/drivers/drvic/modbus/mb.c",line 490,column 3,is_stmt
    2340 00000142 D008          MOVB      XAR0,#8               ; [CPU_] |490| 
    2341 00000143 C494          MOVL      XAR6,*+XAR4[AR0]      ; [CPU_] |490| 
    2342 00000144 83A6          MOVL      XAR5,XAR6             ; [CPU_] |490| 
    2343 00000145 DD02          ADDB      XAR5,#2               ; [CPU_] |490| 
    2344 00000146 80C5          MOVZ      AR7,*+XAR5[0]         ; [CPU_] |490| 
    2345                      .dwpsn  file "D:/BM1000/sw/drivers/drvic/modbus/mb.c",line 491,column 3,is_stmt
    2346 00000147 5603          MOV       ACC,AR7 << #8         ; [CPU_] |491| 
         00000148 08A7 
    2347 00000149 CACD          OR        AL,*+XAR5[1]          ; [CPU_] |491| 
    2348                      .dwpsn  file "D:/BM1000/sw/drivers/drvic/modbus/mb.c",line 494,column 3,is_stmt
    2349 0000014a 83A6          MOVL      XAR5,XAR6             ; [CPU_] |494| 
    2350                      .dwpsn  file "D:/BM1000/sw/drivers/drvic/modbus/mb.c",line 491,column 3,is_stmt
    2351 0000014b 80A9          MOVZ      AR7,AL                ; [CPU_] |491| 
    2352                      .dwpsn  file "D:/BM1000/sw/drivers/drvic/modbus/mb.c",line 494,column 3,is_stmt
    2353 0000014c DD04          ADDB      XAR5,#4               ; [CPU_] |494| 
    2354 0000014d 92C5          MOV       AL,*+XAR5[0]          ; [CPU_] |494| 
    2355                      .dwpsn  file "D:/BM1000/sw/drivers/drvic/modbus/mb.c",line 495,column 3,is_stmt
    2356 0000014e 5603          MOV       ACC,AL << #8          ; [CPU_] |495| 
         0000014f 08A9 
    2357 00000150 CACD          OR        AL,*+XAR5[1]          ; [CPU_] |495| 
    2358                      .dwpsn  file "D:/BM1000/sw/drivers/drvic/modbus/mb.c",line 498,column 3,is_stmt
    2359 00000151 93A7          MOV       AH,AR7                ; [CPU_] |498| 
    2360 00000152 EC08          BF        $C$L23,EQ             ; [CPU_] |498| 
    2361                      ; branchcc occurs ; [] |498| 
    2362 00000153 5302          CMPB      AH,#2                 ; [CPU_] |498| 
    2363 00000154 ED0A          BF        $C$L24,NEQ            ; [CPU_] |498| 
    2364                      ; branchcc occurs ; [] |498| 
    2365                      .dwpsn  file "D:/BM1000/sw/drivers/drvic/process_ctrl.h",line 131,column 4,is_stmt
    2366 00000155 8AF4          MOVL      XAR4,*+XAR4[6]        ; [CPU_] |131| 
    2367 00000156 D032          MOVB      XAR0,#50              ; [CPU_] |131| 
    2368 00000157 0EA9          MOVU      ACC,AL                ; [CPU_] |131| 
    2369 00000158 1E94          MOVL      *+XAR4[AR0],ACC       ; [CPU_] |131| 
    2370              $C$DW$151       .dwtag  DW_TAG_TI_branch
    2371                      .dwattr $C$DW$151, DW_AT_low_pc(0x00)
    2372                      .dwattr $C$DW$151, DW_AT_TI_return
    2373 00000159 0006          LRETR     ; [CPU_] 
    2374                      ; return occurs ; [] 
    2375 0000015a       $C$L23:    
    2376                      .dwpsn  file "D:/BM1000/sw/drivers/drvic/process_ctrl.h",line 105,column 3,is_stmt
    2377 0000015a 8AF4          MOVL      XAR4,*+XAR4[6]        ; [CPU_] |105| 
TMS320C2000 Assembler PC v6.2.5 Fri Sep 29 09:29:33 2017

Tools Copyright (c) 1996-2014 Texas Instruments Incorporated
C:\Users\wmj\AppData\Local\Temp\1142410                              PAGE   45

    2378 0000015b 9001          ANDB      AL,#1                 ; [CPU_] |105| 
    2379 0000015c D018          MOVB      XAR0,#24              ; [CPU_] |105| 
    2380 0000015d 9694          MOV       *+XAR4[AR0],AL        ; [CPU_] |105| 
    2381              $C$L24:    
    2382              $C$DW$152       .dwtag  DW_TAG_TI_branch
    2383                      .dwattr $C$DW$152, DW_AT_low_pc(0x00)
    2384                      .dwattr $C$DW$152, DW_AT_TI_return
    2385 0000015e 0006          LRETR     ; [CPU_] 
    2386                      ; return occurs ; [] 
    2387                      .dwattr $C$DW$146, DW_AT_TI_end_file("D:/BM1000/sw/drivers/drvic/modbus/mb.c")
    2388                      .dwattr $C$DW$146, DW_AT_TI_end_line(0x1fe)
    2389                      .dwattr $C$DW$146, DW_AT_TI_end_column(0x01)
    2390                      .dwendentry
    2391                      .dwendtag $C$DW$146
    2392              
    2393 0000015f               .sect   ".text"
    2394                      .clink
    2395                      .global _MB_FuncReadHoldingRegister
    2396              
    2397              $C$DW$153       .dwtag  DW_TAG_subprogram, DW_AT_name("MB_FuncReadHoldingRegister")
    2398                      .dwattr $C$DW$153, DW_AT_low_pc(_MB_FuncReadHoldingRegister)
    2399                      .dwattr $C$DW$153, DW_AT_high_pc(0x00)
    2400                      .dwattr $C$DW$153, DW_AT_TI_symbol_name("_MB_FuncReadHoldingRegister")
    2401                      .dwattr $C$DW$153, DW_AT_external
    2402                      .dwattr $C$DW$153, DW_AT_TI_begin_file("D:/BM1000/sw/drivers/drvic/modbus/mb.c")
    2403                      .dwattr $C$DW$153, DW_AT_TI_begin_line(0x1c4)
    2404                      .dwattr $C$DW$153, DW_AT_TI_begin_column(0x06)
    2405                      .dwattr $C$DW$153, DW_AT_TI_max_frame_size(-2)
    2406                      .dwpsn  file "D:/BM1000/sw/drivers/drvic/modbus/mb.c",line 453,column 1,is_stmt,address _MB_FuncReadH
    2407              
    2408                      .dwfde $C$DW$CIE, _MB_FuncReadHoldingRegister
    2409              $C$DW$154       .dwtag  DW_TAG_formal_parameter, DW_AT_name("handle")
    2410                      .dwattr $C$DW$154, DW_AT_TI_symbol_name("_handle")
    2411                      .dwattr $C$DW$154, DW_AT_type(*$C$DW$T$219)
    2412                      .dwattr $C$DW$154, DW_AT_location[DW_OP_reg12]
    2413              
    2414              ;***************************************************************
    2415              ;* FNAME: _MB_FuncReadHoldingRegister   FR SIZE:   0           *
    2416              ;*                                                             *
    2417              ;* FUNCTION ENVIRONMENT                                        *
    2418              ;*                                                             *
    2419              ;* FUNCTION PROPERTIES                                         *
    2420              ;*                            0 Parameter,  0 Auto,  0 SOE     *
    2421              ;***************************************************************
    2422              
    2423              _MB_FuncReadHoldingRegister:
    2424              ;* AR6   assigned to $O$C1
    2425              ;* AR5   assigned to $O$C2
    2426              ;* AL    assigned to _RegData
    2427              $C$DW$155       .dwtag  DW_TAG_variable, DW_AT_name("RegData")
    2428                      .dwattr $C$DW$155, DW_AT_TI_symbol_name("_RegData")
    2429                      .dwattr $C$DW$155, DW_AT_type(*$C$DW$T$23)
    2430                      .dwattr $C$DW$155, DW_AT_location[DW_OP_reg0]
    2431              ;* AL    assigned to _RegAddress
    2432              $C$DW$156       .dwtag  DW_TAG_variable, DW_AT_name("RegAddress")
TMS320C2000 Assembler PC v6.2.5 Fri Sep 29 09:29:33 2017

Tools Copyright (c) 1996-2014 Texas Instruments Incorporated
C:\Users\wmj\AppData\Local\Temp\1142410                              PAGE   46

    2433                      .dwattr $C$DW$156, DW_AT_TI_symbol_name("_RegAddress")
    2434                      .dwattr $C$DW$156, DW_AT_type(*$C$DW$T$23)
    2435                      .dwattr $C$DW$156, DW_AT_location[DW_OP_reg0]
    2436              ;* AR4   assigned to _handle
    2437              $C$DW$157       .dwtag  DW_TAG_variable, DW_AT_name("handle")
    2438                      .dwattr $C$DW$157, DW_AT_TI_symbol_name("_handle")
    2439                      .dwattr $C$DW$157, DW_AT_type(*$C$DW$T$234)
    2440                      .dwattr $C$DW$157, DW_AT_location[DW_OP_reg12]
    2441              ;* AR5   assigned to $O$U2
    2442                      .dwcfi  cfa_offset, -2
    2443                      .dwcfi  save_reg_to_mem, 26, 0
    2444                      .dwcfi  save_reg_to_reg, 78, 26
    2445                      .dwpsn  file "D:/BM1000/sw/drivers/drvic/modbus/mb.c",line 459,column 3,is_stmt
    2446 0000015f D008          MOVB      XAR0,#8               ; [CPU_] |459| 
    2447 00000160 8394          MOVL      XAR5,*+XAR4[AR0]      ; [CPU_] |459| 
    2448 00000161 C4A5          MOVL      XAR6,XAR5             ; [CPU_] |459| 
    2449 00000162 DE02          ADDB      XAR6,#2               ; [CPU_] |459| 
    2450 00000163 92C6          MOV       AL,*+XAR6[0]          ; [CPU_] |459| 
    2451                      .dwpsn  file "D:/BM1000/sw/drivers/drvic/modbus/mb.c",line 460,column 3,is_stmt
    2452 00000164 5603          MOV       ACC,AL << #8          ; [CPU_] |460| 
         00000165 08A9 
    2453 00000166 CACE          OR        AL,*+XAR6[1]          ; [CPU_] |460| 
    2454                      .dwpsn  file "D:/BM1000/sw/drivers/drvic/modbus/mb.c",line 463,column 3,is_stmt
    2455 00000167 EC10          BF        $C$L28,EQ             ; [CPU_] |463| 
    2456                      ; branchcc occurs ; [] |463| 
    2457 00000168 5201          CMPB      AL,#1                 ; [CPU_] |463| 
    2458 00000169 EC0C          BF        $C$L27,EQ             ; [CPU_] |463| 
    2459                      ; branchcc occurs ; [] |463| 
    2460 0000016a 5202          CMPB      AL,#2                 ; [CPU_] |463| 
    2461 0000016b EC08          BF        $C$L26,EQ             ; [CPU_] |463| 
    2462                      ; branchcc occurs ; [] |463| 
    2463 0000016c 520C          CMPB      AL,#12                ; [CPU_] |463| 
    2464 0000016d EC04          BF        $C$L25,EQ             ; [CPU_] |463| 
    2465                      ; branchcc occurs ; [] |463| 
    2466                      .dwpsn  file "D:/BM1000/sw/drivers/drvic/modbus/mb.c",line 473,column 11,is_stmt
    2467 0000016e 28A9          MOV       AL,#65535             ; [CPU_] |473| 
         0000016f FFFF 
    2468                      .dwpsn  file "D:/BM1000/sw/drivers/drvic/modbus/mb.c",line 473,column 28,is_stmt
    2469 00000170 6F0A          B         $C$L30,UNC            ; [CPU_] |473| 
    2470                      ; branch occurs ; [] |473| 
    2471 00000171       $C$L25:    
    2472                      .dwpsn  file "D:/BM1000/sw/drivers/drvic/process_ctrl.h",line 254,column 3,is_stmt
    2473 00000171 D027          MOVB      XAR0,#39              ; [CPU_] |254| 
    2474 00000172 6F06          B         $C$L29,UNC            ; [CPU_] |254| 
    2475                      ; branch occurs ; [] |254| 
    2476 00000173       $C$L26:    
    2477                      .dwpsn  file "D:/BM1000/sw/drivers/drvic/process_ctrl.h",line 201,column 3,is_stmt
    2478 00000173 D032          MOVB      XAR0,#50              ; [CPU_] |201| 
    2479 00000174 6F04          B         $C$L29,UNC            ; [CPU_] |201| 
    2480                      ; branch occurs ; [] |201| 
    2481 00000175       $C$L27:    
    2482                      .dwpsn  file "D:/BM1000/sw/drivers/drvic/process_ctrl.h",line 193,column 3,is_stmt
    2483 00000175 D038          MOVB      XAR0,#56              ; [CPU_] |193| 
    2484 00000176 6F02          B         $C$L29,UNC            ; [CPU_] |193| 
    2485                      ; branch occurs ; [] |193| 
TMS320C2000 Assembler PC v6.2.5 Fri Sep 29 09:29:33 2017

Tools Copyright (c) 1996-2014 Texas Instruments Incorporated
C:\Users\wmj\AppData\Local\Temp\1142410                              PAGE   47

    2486 00000177       $C$L28:    
    2487                      .dwpsn  file "D:/BM1000/sw/drivers/drvic/process_ctrl.h",line 113,column 3,is_stmt
    2488 00000177 D018          MOVB      XAR0,#24              ; [CPU_] |113| 
    2489 00000178       $C$L29:    
    2490 00000178 C4F4          MOVL      XAR6,*+XAR4[6]        ; [CPU_] |113| 
    2491 00000179 9296          MOV       AL,*+XAR6[AR0]        ; [CPU_] |113| 
    2492 0000017a       $C$L30:    
    2493                      .dwpsn  file "D:/BM1000/sw/drivers/drvic/modbus/mb.c",line 477,column 3,is_stmt
    2494 0000017a CDA9          AND       AH,AL,#0x00ff         ; [CPU_] |477| 
         0000017b 00FF 
    2495                      .dwpsn  file "D:/BM1000/sw/drivers/drvic/modbus/mb.c",line 478,column 3,is_stmt
    2496 0000017c D008          MOVB      XAR0,#8               ; [CPU_] |478| 
    2497                      .dwpsn  file "D:/BM1000/sw/drivers/drvic/modbus/mb.c",line 477,column 3,is_stmt
    2498 0000017d 97E5          MOV       *+XAR5[4],AH          ; [CPU_] |477| 
    2499                      .dwpsn  file "D:/BM1000/sw/drivers/drvic/modbus/mb.c",line 478,column 3,is_stmt
    2500 0000017e 8A94          MOVL      XAR4,*+XAR4[AR0]      ; [CPU_] |478| 
    2501 0000017f FFC7          LSR       AL,8                  ; [CPU_] |478| 
    2502 00000180 96EC          MOV       *+XAR4[5],AL          ; [CPU_] |478| 
    2503              $C$DW$158       .dwtag  DW_TAG_TI_branch
    2504                      .dwattr $C$DW$158, DW_AT_low_pc(0x00)
    2505                      .dwattr $C$DW$158, DW_AT_TI_return
    2506 00000181 0006          LRETR     ; [CPU_] 
    2507                      ; return occurs ; [] 
    2508                      .dwattr $C$DW$153, DW_AT_TI_end_file("D:/BM1000/sw/drivers/drvic/modbus/mb.c")
    2509                      .dwattr $C$DW$153, DW_AT_TI_end_line(0x1e1)
    2510                      .dwattr $C$DW$153, DW_AT_TI_end_column(0x01)
    2511                      .dwendentry
    2512                      .dwendtag $C$DW$153
    2513              
    2514 00000182               .sect   ".text"
    2515                      .clink
    2516                      .global _MB_Poll
    2517              
    2518              $C$DW$159       .dwtag  DW_TAG_subprogram, DW_AT_name("MB_Poll")
    2519                      .dwattr $C$DW$159, DW_AT_low_pc(_MB_Poll)
    2520                      .dwattr $C$DW$159, DW_AT_high_pc(0x00)
    2521                      .dwattr $C$DW$159, DW_AT_TI_symbol_name("_MB_Poll")
    2522                      .dwattr $C$DW$159, DW_AT_external
    2523                      .dwattr $C$DW$159, DW_AT_type(*$C$DW$T$157)
    2524                      .dwattr $C$DW$159, DW_AT_TI_begin_file("D:/BM1000/sw/drivers/drvic/modbus/mb.c")
    2525                      .dwattr $C$DW$159, DW_AT_TI_begin_line(0x174)
    2526                      .dwattr $C$DW$159, DW_AT_TI_begin_column(0x0e)
    2527                      .dwattr $C$DW$159, DW_AT_TI_max_frame_size(-4)
    2528                      .dwpsn  file "D:/BM1000/sw/drivers/drvic/modbus/mb.c",line 373,column 1,is_stmt,address _MB_Poll
    2529              
    2530                      .dwfde $C$DW$CIE, _MB_Poll
    2531              $C$DW$160       .dwtag  DW_TAG_variable, DW_AT_name("ucFunctionCode")
    2532                      .dwattr $C$DW$160, DW_AT_TI_symbol_name("_ucFunctionCode$2")
    2533                      .dwattr $C$DW$160, DW_AT_type(*$C$DW$T$152)
    2534                      .dwattr $C$DW$160, DW_AT_location[DW_OP_addr _ucFunctionCode$2]
    2535              $C$DW$161       .dwtag  DW_TAG_variable, DW_AT_name("eException")
    2536                      .dwattr $C$DW$161, DW_AT_TI_symbol_name("_eException$4")
    2537                      .dwattr $C$DW$161, DW_AT_type(*$C$DW$T$230)
    2538                      .dwattr $C$DW$161, DW_AT_location[DW_OP_addr _eException$4]
    2539              $C$DW$162       .dwtag  DW_TAG_variable, DW_AT_name("ucMBFrame")
TMS320C2000 Assembler PC v6.2.5 Fri Sep 29 09:29:33 2017

Tools Copyright (c) 1996-2014 Texas Instruments Incorporated
C:\Users\wmj\AppData\Local\Temp\1142410                              PAGE   48

    2540                      .dwattr $C$DW$162, DW_AT_TI_symbol_name("_ucMBFrame$1")
    2541                      .dwattr $C$DW$162, DW_AT_type(*$C$DW$T$154)
    2542                      .dwattr $C$DW$162, DW_AT_location[DW_OP_addr _ucMBFrame$1]
    2543              $C$DW$163       .dwtag  DW_TAG_formal_parameter, DW_AT_name("handle")
    2544                      .dwattr $C$DW$163, DW_AT_TI_symbol_name("_handle")
    2545                      .dwattr $C$DW$163, DW_AT_type(*$C$DW$T$219)
    2546                      .dwattr $C$DW$163, DW_AT_location[DW_OP_reg12]
    2547              
    2548              ;***************************************************************
    2549              ;* FNAME: _MB_Poll                      FR SIZE:   2           *
    2550              ;*                                                             *
    2551              ;* FUNCTION ENVIRONMENT                                        *
    2552              ;*                                                             *
    2553              ;* FUNCTION PROPERTIES                                         *
    2554              ;*                            0 Parameter,  0 Auto,  2 SOE     *
    2555              ;***************************************************************
    2556              
    2557              _MB_Poll:
    2558              ;* AR6   assigned to $O$C1
    2559              ;* AR4   assigned to $O$C2
    2560              ;* AR4   assigned to $O$C3
    2561              ;* PL    assigned to $O$y2
    2562              ;* AR1   assigned to _handle
    2563              $C$DW$164       .dwtag  DW_TAG_variable, DW_AT_name("handle")
    2564                      .dwattr $C$DW$164, DW_AT_TI_symbol_name("_handle")
    2565                      .dwattr $C$DW$164, DW_AT_type(*$C$DW$T$234)
    2566                      .dwattr $C$DW$164, DW_AT_location[DW_OP_reg6]
    2567              ;* AR4   assigned to $O$U5
    2568                      .dwcfi  cfa_offset, -2
    2569                      .dwcfi  save_reg_to_mem, 26, 0
    2570                      .dwcfi  save_reg_to_reg, 78, 26
    2571 00000182 83A4          MOVL      XAR5,XAR4             ; [CPU_] |373| 
    2572 00000183 B2BD          MOVL      *SP++,XAR1            ; [CPU_] 
    2573                      .dwcfi  save_reg_to_mem, 7, 2
    2574                      .dwcfi  cfa_offset, -4
    2575                      .dwpsn  file "D:/BM1000/sw/drivers/drvic/modbus/mb.c",line 386,column 5,is_stmt
    2576 00000184 DD1C          ADDB      XAR5,#28              ; [CPU_] |386| 
    2577              $C$DW$165       .dwtag  DW_TAG_TI_branch
    2578                      .dwattr $C$DW$165, DW_AT_low_pc(0x00)
    2579                      .dwattr $C$DW$165, DW_AT_name("_MB_PortEventGet")
    2580                      .dwattr $C$DW$165, DW_AT_TI_call
    2581 00000185 7640'         LCR       #_MB_PortEventGet     ; [CPU_] |386| 
         00000186 0135 
    2582                      ; call occurs [#_MB_PortEventGet] ; [] |386| 
    2583                      .dwpsn  file "D:/BM1000/sw/drivers/drvic/modbus/mb.c",line 373,column 1,is_stmt
    2584 00000187 8BA4          MOVL      XAR1,XAR4             ; [CPU_] |373| 
    2585                      .dwpsn  file "D:/BM1000/sw/drivers/drvic/modbus/mb.c",line 386,column 5,is_stmt
    2586 00000188 5201          CMPB      AL,#1                 ; [CPU_] |386| 
    2587 00000189 ED40          BF        $C$L37,NEQ            ; [CPU_] |386| 
    2588                      ; branchcc occurs ; [] |386| 
    2589 0000018a D01C          MOVB      XAR0,#28              ; [CPU_] |386| 
    2590 0000018b 9291          MOV       AL,*+XAR1[AR0]        ; [CPU_] |386| 
    2591 0000018c 5201          CMPB      AL,#1                 ; [CPU_] |386| 
    2592 0000018d EC27          BF        $C$L35,EQ             ; [CPU_] |386| 
    2593                      ; branchcc occurs ; [] |386| 
TMS320C2000 Assembler PC v6.2.5 Fri Sep 29 09:29:33 2017

Tools Copyright (c) 1996-2014 Texas Instruments Incorporated
C:\Users\wmj\AppData\Local\Temp\1142410                              PAGE   49

    2594 0000018e 5202          CMPB      AL,#2                 ; [CPU_] |386| 
    2595 0000018f ED3A          BF        $C$L37,NEQ            ; [CPU_] |386| 
    2596                      ; branchcc occurs ; [] |386| 
    2597                      .dwpsn  file "D:/BM1000/sw/drivers/drvic/modbus/mb.c",line 404,column 6,is_stmt
    2598 00000190 D008          MOVB      XAR0,#8               ; [CPU_] |404| 
    2599 00000191 8A91          MOVL      XAR4,*+XAR1[AR0]      ; [CPU_] |404| 
    2600 00000192 761F-         MOVW      DP,#_ucFunctionCode$2 ; [CPU_U] 
         00000193 0000 
    2601 00000194 27CC          MOV       PL,*+XAR4[1]          ; [CPU_] |404| 
    2602                      .dwpsn  file "D:/BM1000/sw/drivers/drvic/modbus/mb.c",line 406,column 6,is_stmt
    2603 00000195 92AB          MOV       AL,PL                 ; [CPU_] |406| 
    2604                      .dwpsn  file "D:/BM1000/sw/drivers/drvic/modbus/mb.c",line 404,column 6,is_stmt
    2605 00000196 3F00-         MOV       @_ucFunctionCode$2,P  ; [CPU_] |404| 
    2606                      .dwpsn  file "D:/BM1000/sw/drivers/drvic/modbus/mb.c",line 406,column 6,is_stmt
    2607 00000197 5203          CMPB      AL,#3                 ; [CPU_] |406| 
    2608 00000198 EC07          BF        $C$L31,EQ             ; [CPU_] |406| 
    2609                      ; branchcc occurs ; [] |406| 
    2610 00000199 5206          CMPB      AL,#6                 ; [CPU_] |406| 
    2611 0000019a ED0A          BF        $C$L33,NEQ            ; [CPU_] |406| 
    2612                      ; branchcc occurs ; [] |406| 
    2613                      .dwpsn  file "D:/BM1000/sw/drivers/drvic/modbus/mb.c",line 421,column 9,is_stmt
    2614 0000019b 8AA1          MOVL      XAR4,XAR1             ; [CPU_] |421| 
    2615              $C$DW$166       .dwtag  DW_TAG_TI_branch
    2616                      .dwattr $C$DW$166, DW_AT_low_pc(0x00)
    2617                      .dwattr $C$DW$166, DW_AT_name("_MB_FuncWriteHoldingRegister")
    2618                      .dwattr $C$DW$166, DW_AT_TI_call
    2619 0000019c 7640'         LCR       #_MB_FuncWriteHoldingRegister ; [CPU_] |421| 
         0000019d 0142 
    2620                      ; call occurs [#_MB_FuncWriteHoldingRegister] ; [] |421| 
    2621                      .dwpsn  file "D:/BM1000/sw/drivers/drvic/modbus/mb.c",line 422,column 5,is_stmt
    2622 0000019e 6F04          B         $C$L32,UNC            ; [CPU_] |422| 
    2623                      ; branch occurs ; [] |422| 
    2624 0000019f       $C$L31:    
    2625                      .dwpsn  file "D:/BM1000/sw/drivers/drvic/modbus/mb.c",line 414,column 9,is_stmt
    2626 0000019f 8AA1          MOVL      XAR4,XAR1             ; [CPU_] |414| 
    2627              $C$DW$167       .dwtag  DW_TAG_TI_branch
    2628                      .dwattr $C$DW$167, DW_AT_low_pc(0x00)
    2629                      .dwattr $C$DW$167, DW_AT_name("_MB_FuncReadHoldingRegister")
    2630                      .dwattr $C$DW$167, DW_AT_TI_call
    2631 000001a0 7640'         LCR       #_MB_FuncReadHoldingRegister ; [CPU_] |414| 
         000001a1 015F 
    2632                      ; call occurs [#_MB_FuncReadHoldingRegister] ; [] |414| 
    2633 000001a2       $C$L32:    
    2634 000001a2 D008          MOVB      XAR0,#8               ; [CPU_] 
    2635 000001a3 8A91          MOVL      XAR4,*+XAR1[AR0]      ; [CPU_] 
    2636 000001a4       $C$L33:    
    2637                      .dwpsn  file "D:/BM1000/sw/drivers/drvic/modbus/mb.c",line 430,column 9,is_stmt
    2638 000001a4 92C4          MOV       AL,*+XAR4[0]          ; [CPU_] |430| 
    2639 000001a5 EC24          BF        $C$L37,EQ             ; [CPU_] |430| 
    2640                      ; branchcc occurs ; [] |430| 
    2641                      .dwpsn  file "D:/BM1000/sw/drivers/drvic/modbus/mb.c",line 432,column 13,is_stmt
    2642 000001a6 9201-         MOV       AL,@_eException$4     ; [CPU_] |432| 
    2643 000001a7 EC07          BF        $C$L34,EQ             ; [CPU_] |432| 
    2644                      ; branchcc occurs ; [] |432| 
    2645                      .dwpsn  file "D:/BM1000/sw/drivers/drvic/modbus/mb.c",line 436,column 17,is_stmt
TMS320C2000 Assembler PC v6.2.5 Fri Sep 29 09:29:33 2017

Tools Copyright (c) 1996-2014 Texas Instruments Incorporated
C:\Users\wmj\AppData\Local\Temp\1142410                              PAGE   50

    2646 000001a8 8A02-         MOVL      XAR4,@_ucMBFrame$1    ; [CPU_] |436| 
    2647 000001a9 92AB          MOV       AL,PL                 ; [CPU_] |436| 
    2648 000001aa 5080          ORB       AL,#0x80              ; [CPU_] |436| 
    2649 000001ab 96C4          MOV       *+XAR4[0],AL          ; [CPU_] |436| 
    2650                      .dwpsn  file "D:/BM1000/sw/drivers/drvic/modbus/mb.c",line 437,column 17,is_stmt
    2651 000001ac 9201-         MOV       AL,@_eException$4     ; [CPU_] |437| 
    2652 000001ad 96CC          MOV       *+XAR4[1],AL          ; [CPU_] |437| 
    2653 000001ae       $C$L34:    
    2654                      .dwpsn  file "D:/BM1000/sw/drivers/drvic/modbus/mb.c",line 440,column 13,is_stmt
    2655 000001ae 8AA1          MOVL      XAR4,XAR1             ; [CPU_] |440| 
    2656              $C$DW$168       .dwtag  DW_TAG_TI_branch
    2657                      .dwattr $C$DW$168, DW_AT_low_pc(0x00)
    2658                      .dwattr $C$DW$168, DW_AT_name("_MB_RTUSend")
    2659                      .dwattr $C$DW$168, DW_AT_TI_call
    2660 000001af 7640'         LCR       #_MB_RTUSend          ; [CPU_] |440| 
         000001b0 0090 
    2661                      ; call occurs [#_MB_RTUSend] ; [] |440| 
    2662 000001b1 D018          MOVB      XAR0,#24              ; [CPU_] |440| 
    2663 000001b2 9691          MOV       *+XAR1[AR0],AL        ; [CPU_] |440| 
    2664 000001b3 6F16          B         $C$L37,UNC            ; [CPU_] |440| 
    2665                      ; branch occurs ; [] |440| 
    2666 000001b4       $C$L35:    
    2667                      .dwpsn  file "D:/BM1000/sw/drivers/drvic/modbus/mb.c",line 391,column 6,is_stmt
    2668              $C$DW$169       .dwtag  DW_TAG_TI_branch
    2669                      .dwattr $C$DW$169, DW_AT_low_pc(0x00)
    2670                      .dwattr $C$DW$169, DW_AT_name("_MB_RTUReceive")
    2671                      .dwattr $C$DW$169, DW_AT_TI_call
    2672 000001b4 7640'         LCR       #_MB_RTUReceive       ; [CPU_] |391| 
         000001b5 011F 
    2673                      ; call occurs [#_MB_RTUReceive] ; [] |391| 
    2674 000001b6 D018          MOVB      XAR0,#24              ; [CPU_] |391| 
    2675 000001b7 9691          MOV       *+XAR1[AR0],AL        ; [CPU_] |391| 
    2676                      .dwpsn  file "D:/BM1000/sw/drivers/drvic/modbus/mb.c",line 392,column 6,is_stmt
    2677 000001b8 D018          MOVB      XAR0,#24              ; [CPU_] |392| 
    2678 000001b9 9291          MOV       AL,*+XAR1[AR0]        ; [CPU_] |392| 
    2679 000001ba ED0F          BF        $C$L37,NEQ            ; [CPU_] |392| 
    2680                      ; branchcc occurs ; [] |392| 
    2681                      .dwpsn  file "D:/BM1000/sw/drivers/drvic/modbus/mb.c",line 395,column 3,is_stmt
    2682 000001bb D008          MOVB      XAR0,#8               ; [CPU_] |395| 
    2683 000001bc 8A91          MOVL      XAR4,*+XAR1[AR0]      ; [CPU_] |395| 
    2684 000001bd 88C4          MOVZ      AR6,*+XAR4[0]         ; [CPU_] |395| 
    2685 000001be D017          MOVB      XAR0,#23              ; [CPU_] |395| 
    2686 000001bf 0E91          MOVU      ACC,*+XAR1[AR0]       ; [CPU_] |395| 
    2687 000001c0 80A6          MOVZ      AR7,AR6               ; [CPU_] |395| 
    2688 000001c1 0FA7          CMPL      ACC,XAR7              ; [CPU_] |395| 
    2689 000001c2 EC03          BF        $C$L36,EQ             ; [CPU_] |395| 
    2690                      ; branchcc occurs ; [] |395| 
    2691 000001c3 92A6          MOV       AL,AR6                ; [CPU_] 
    2692 000001c4 ED05          BF        $C$L37,NEQ            ; [CPU_] |395| 
    2693                      ; branchcc occurs ; [] |395| 
    2694 000001c5       $C$L36:    
    2695                      .dwpsn  file "D:/BM1000/sw/drivers/drvic/modbus/mb.c",line 397,column 4,is_stmt
    2696 000001c5 9A02          MOVB      AL,#2                 ; [CPU_] |397| 
    2697 000001c6 8AA1          MOVL      XAR4,XAR1             ; [CPU_] |397| 
    2698              $C$DW$170       .dwtag  DW_TAG_TI_branch
TMS320C2000 Assembler PC v6.2.5 Fri Sep 29 09:29:33 2017

Tools Copyright (c) 1996-2014 Texas Instruments Incorporated
C:\Users\wmj\AppData\Local\Temp\1142410                              PAGE   51

    2699                      .dwattr $C$DW$170, DW_AT_low_pc(0x00)
    2700                      .dwattr $C$DW$170, DW_AT_name("_MB_PortEventPost")
    2701                      .dwattr $C$DW$170, DW_AT_TI_call
    2702 000001c7 7640'         LCR       #_MB_PortEventPost    ; [CPU_] |397| 
         000001c8 000E 
    2703                      ; call occurs [#_MB_PortEventPost] ; [] |397| 
    2704 000001c9       $C$L37:    
    2705                      .dwpsn  file "D:/BM1000/sw/drivers/drvic/modbus/mb.c",line 449,column 3,is_stmt
    2706 000001c9 9A00          MOVB      AL,#0                 ; [CPU_] |449| 
    2707 000001ca 8BBE          MOVL      XAR1,*--SP            ; [CPU_] 
    2708                      .dwcfi  cfa_offset, -2
    2709                      .dwcfi  restore_reg, 7
    2710              $C$DW$171       .dwtag  DW_TAG_TI_branch
    2711                      .dwattr $C$DW$171, DW_AT_low_pc(0x00)
    2712                      .dwattr $C$DW$171, DW_AT_TI_return
    2713 000001cb 0006          LRETR     ; [CPU_] 
    2714                      ; return occurs ; [] 
    2715                      .dwattr $C$DW$159, DW_AT_TI_end_file("D:/BM1000/sw/drivers/drvic/modbus/mb.c")
    2716                      .dwattr $C$DW$159, DW_AT_TI_end_line(0x1c2)
    2717                      .dwattr $C$DW$159, DW_AT_TI_end_column(0x01)
    2718                      .dwendentry
    2719                      .dwendtag $C$DW$159
    2720              
    2721              ;**************************************************************
    2722              ;* UNDEFINED EXTERNAL REFERENCES                              *
    2723              ;**************************************************************
    2724                      .global _SCI_enableRx
    2725                      .global _SCI_enableTx
    2726                      .global _TIMER_clearFlag
    2727                      .global _SCI_disableTx
    2728                      .global _SCI_disableRx
    2729                      .global _SCI_putDataBlocking
    2730                      .global _SCI_getDataBlocking
    2731              
    2732              ;***************************************************************
    2733              ;* TYPE INFORMATION                                            *
    2734              ;***************************************************************
    2735              
    2736              $C$DW$T$42      .dwtag  DW_TAG_enumeration_type
    2737                      .dwattr $C$DW$T$42, DW_AT_byte_size(0x01)
    2738              $C$DW$172       .dwtag  DW_TAG_enumerator, DW_AT_name("CTRL_State_Error"), DW_AT_const_value(0x00)
    2739              $C$DW$173       .dwtag  DW_TAG_enumerator, DW_AT_name("CTRL_State_Idle"), DW_AT_const_value(0x01)
    2740              $C$DW$174       .dwtag  DW_TAG_enumerator, DW_AT_name("CTRL_State_OffLine"), DW_AT_const_value(0x02)
    2741              $C$DW$175       .dwtag  DW_TAG_enumerator, DW_AT_name("CTRL_State_OnLine"), DW_AT_const_value(0x03)
    2742              $C$DW$176       .dwtag  DW_TAG_enumerator, DW_AT_name("CTRL_numStates"), DW_AT_const_value(0x04)
    2743                      .dwendtag $C$DW$T$42
    2744              
    2745              $C$DW$T$43      .dwtag  DW_TAG_typedef, DW_AT_name("CTRL_State_e")
    2746                      .dwattr $C$DW$T$43, DW_AT_type(*$C$DW$T$42)
    2747                      .dwattr $C$DW$T$43, DW_AT_language(DW_LANG_C)
    2748              
    2749              $C$DW$T$44      .dwtag  DW_TAG_enumeration_type
    2750                      .dwattr $C$DW$T$44, DW_AT_byte_size(0x01)
    2751              $C$DW$177       .dwtag  DW_TAG_enumerator, DW_AT_name("CTRL_ErrorCode_NoError"), DW_AT_const_value(0x00)
    2752              $C$DW$178       .dwtag  DW_TAG_enumerator, DW_AT_name("CTRL_ErrorCode_IdClip"), DW_AT_const_value(0x01)
TMS320C2000 Assembler PC v6.2.5 Fri Sep 29 09:29:33 2017

Tools Copyright (c) 1996-2014 Texas Instruments Incorporated
C:\Users\wmj\AppData\Local\Temp\1142410                              PAGE   52

    2753              $C$DW$179       .dwtag  DW_TAG_enumerator, DW_AT_name("CTRL_ErrorCode_EstError"), DW_AT_const_value(0x02)
    2754              $C$DW$180       .dwtag  DW_TAG_enumerator, DW_AT_name("CTRL_numErrorCodes"), DW_AT_const_value(0x03)
    2755                      .dwendtag $C$DW$T$44
    2756              
    2757              $C$DW$T$45      .dwtag  DW_TAG_typedef, DW_AT_name("CTRL_ErrorCode_e")
    2758                      .dwattr $C$DW$T$45, DW_AT_type(*$C$DW$T$44)
    2759                      .dwattr $C$DW$T$45, DW_AT_language(DW_LANG_C)
    2760              
    2761              $C$DW$T$76      .dwtag  DW_TAG_enumeration_type
    2762                      .dwattr $C$DW$T$76, DW_AT_byte_size(0x01)
    2763              $C$DW$181       .dwtag  DW_TAG_enumerator, DW_AT_name("CTRL_TargetProc_2806x"), DW_AT_const_value(0x00)
    2764              $C$DW$182       .dwtag  DW_TAG_enumerator, DW_AT_name("CTRL_TargetProc_2805x"), DW_AT_const_value(0x01)
    2765              $C$DW$183       .dwtag  DW_TAG_enumerator, DW_AT_name("CTRL_TargetProc_2803x"), DW_AT_const_value(0x02)
    2766              $C$DW$184       .dwtag  DW_TAG_enumerator, DW_AT_name("CTRL_TargetProc_2802x"), DW_AT_const_value(0x03)
    2767              $C$DW$185       .dwtag  DW_TAG_enumerator, DW_AT_name("CTRL_TargetProc_Unknown"), DW_AT_const_value(0x04)
    2768                      .dwendtag $C$DW$T$76
    2769              
    2770              $C$DW$T$77      .dwtag  DW_TAG_typedef, DW_AT_name("CTRL_TargetProc_e")
    2771                      .dwattr $C$DW$T$77, DW_AT_type(*$C$DW$T$76)
    2772                      .dwattr $C$DW$T$77, DW_AT_language(DW_LANG_C)
    2773              
    2774              $C$DW$T$86      .dwtag  DW_TAG_enumeration_type
    2775                      .dwattr $C$DW$T$86, DW_AT_byte_size(0x01)
    2776              $C$DW$186       .dwtag  DW_TAG_enumerator, DW_AT_name("Fsm_State_Idle"), DW_AT_const_value(0x00)
    2777              $C$DW$187       .dwtag  DW_TAG_enumerator, DW_AT_name("Fsm_State_SelectMode"), DW_AT_const_value(0x01)
    2778              $C$DW$188       .dwtag  DW_TAG_enumerator, DW_AT_name("Fsm_State_ClipFace"), DW_AT_const_value(0x02)
    2779              $C$DW$189       .dwtag  DW_TAG_enumerator, DW_AT_name("Fsm_State_MillingCutte"), DW_AT_const_value(0x03)
    2780              $C$DW$190       .dwtag  DW_TAG_enumerator, DW_AT_name("Fsm_State_TrimPlatform"), DW_AT_const_value(0x04)
    2781              $C$DW$191       .dwtag  DW_TAG_enumerator, DW_AT_name("Fsm_State_CarClip"), DW_AT_const_value(0x05)
    2782              $C$DW$192       .dwtag  DW_TAG_enumerator, DW_AT_name("Fsm_State_RubberTyre"), DW_AT_const_value(0x06)
    2783              $C$DW$193       .dwtag  DW_TAG_enumerator, DW_AT_name("Fsm_State_BlowerFan"), DW_AT_const_value(0x07)
    2784              $C$DW$194       .dwtag  DW_TAG_enumerator, DW_AT_name("Fsm_State_NormDecle"), DW_AT_const_value(0x08)
    2785              $C$DW$195       .dwtag  DW_TAG_enumerator, DW_AT_name("Fsm_State_NormWait"), DW_AT_const_value(0x09)
    2786              $C$DW$196       .dwtag  DW_TAG_enumerator, DW_AT_name("Fsm_State_NormAccele"), DW_AT_const_value(0x0a)
    2787              $C$DW$197       .dwtag  DW_TAG_enumerator, DW_AT_name("Fsm_State_NormBrakeWait"), DW_AT_const_value(0x0b)
    2788              $C$DW$198       .dwtag  DW_TAG_enumerator, DW_AT_name("Fsm_State_NormBrake"), DW_AT_const_value(0x0c)
    2789              $C$DW$199       .dwtag  DW_TAG_enumerator, DW_AT_name("Fsm_State_NormReturn"), DW_AT_const_value(0x0d)
    2790              $C$DW$200       .dwtag  DW_TAG_enumerator, DW_AT_name("Fsm_State_NormDown"), DW_AT_const_value(0x0e)
    2791              $C$DW$201       .dwtag  DW_TAG_enumerator, DW_AT_name("Fsm_State_NormStop"), DW_AT_const_value(0x0f)
    2792              $C$DW$202       .dwtag  DW_TAG_enumerator, DW_AT_name("Fsm_State_Num"), DW_AT_const_value(0x10)
    2793                      .dwendtag $C$DW$T$86
    2794              
    2795              $C$DW$T$87      .dwtag  DW_TAG_typedef, DW_AT_name("FSM_State_e")
    2796                      .dwattr $C$DW$T$87, DW_AT_type(*$C$DW$T$86)
    2797                      .dwattr $C$DW$T$87, DW_AT_language(DW_LANG_C)
    2798              
    2799              $C$DW$T$88      .dwtag  DW_TAG_enumeration_type
    2800                      .dwattr $C$DW$T$88, DW_AT_byte_size(0x01)
    2801              $C$DW$203       .dwtag  DW_TAG_enumerator, DW_AT_name("FSM_Trans_StopState"), DW_AT_const_value(0x00)
    2802              $C$DW$204       .dwtag  DW_TAG_enumerator, DW_AT_name("FSM_Trans_WaitSecond"), DW_AT_const_value(0x01)
    2803              $C$DW$205       .dwtag  DW_TAG_enumerator, DW_AT_name("FSM_Trans_JumpState"), DW_AT_const_value(0x02)
    2804                      .dwendtag $C$DW$T$88
    2805              
    2806              $C$DW$T$89      .dwtag  DW_TAG_typedef, DW_AT_name("FSM_Trans_e")
    2807                      .dwattr $C$DW$T$89, DW_AT_type(*$C$DW$T$88)
TMS320C2000 Assembler PC v6.2.5 Fri Sep 29 09:29:33 2017

Tools Copyright (c) 1996-2014 Texas Instruments Incorporated
C:\Users\wmj\AppData\Local\Temp\1142410                              PAGE   53

    2808                      .dwattr $C$DW$T$89, DW_AT_language(DW_LANG_C)
    2809              
    2810              $C$DW$T$90      .dwtag  DW_TAG_enumeration_type
    2811                      .dwattr $C$DW$T$90, DW_AT_byte_size(0x01)
    2812              $C$DW$206       .dwtag  DW_TAG_enumerator, DW_AT_name("FSM_Event_IDLE"), DW_AT_const_value(0x00)
    2813              $C$DW$207       .dwtag  DW_TAG_enumerator, DW_AT_name("FSM_Event_Sensor0"), DW_AT_const_value(0x01)
    2814              $C$DW$208       .dwtag  DW_TAG_enumerator, DW_AT_name("FSM_Event_Sensor1"), DW_AT_const_value(0x02)
    2815              $C$DW$209       .dwtag  DW_TAG_enumerator, DW_AT_name("FSM_Event_S0_S1"), DW_AT_const_value(0x03)
    2816              $C$DW$210       .dwtag  DW_TAG_enumerator, DW_AT_name("FSM_Event_EMG"), DW_AT_const_value(0x04)
    2817              $C$DW$211       .dwtag  DW_TAG_enumerator, DW_AT_name("FSM_Event_EMG_S0"), DW_AT_const_value(0x05)
    2818              $C$DW$212       .dwtag  DW_TAG_enumerator, DW_AT_name("FSM_Event_EMG_S1"), DW_AT_const_value(0x06)
    2819              $C$DW$213       .dwtag  DW_TAG_enumerator, DW_AT_name("FSM_Event_EMG_S0_S1"), DW_AT_const_value(0x07)
    2820              $C$DW$214       .dwtag  DW_TAG_enumerator, DW_AT_name("FSM_Event_Acc_ArrivePosRef"), DW_AT_const_value(0x08)
    2821              $C$DW$215       .dwtag  DW_TAG_enumerator, DW_AT_name("FSM_Event_Acc_ArriveNegRef"), DW_AT_const_value(0x09)
    2822              $C$DW$216       .dwtag  DW_TAG_enumerator, DW_AT_name("FSM_Event_Dec_ArrivePosRef"), DW_AT_const_value(0x0a)
    2823              $C$DW$217       .dwtag  DW_TAG_enumerator, DW_AT_name("FSM_Event_Dec_ArriveNegRef"), DW_AT_const_value(0x0b)
    2824              $C$DW$218       .dwtag  DW_TAG_enumerator, DW_AT_name("FSM_Event_arrive_point_A"), DW_AT_const_value(0x0c)
    2825              $C$DW$219       .dwtag  DW_TAG_enumerator, DW_AT_name("FSM_Event_arrive_point_B"), DW_AT_const_value(0x0d)
    2826              $C$DW$220       .dwtag  DW_TAG_enumerator, DW_AT_name("FSM_Event_arrive_point_C"), DW_AT_const_value(0x0e)
    2827              $C$DW$221       .dwtag  DW_TAG_enumerator, DW_AT_name("FSM_Event_arrive_point_D"), DW_AT_const_value(0x0f)
    2828              $C$DW$222       .dwtag  DW_TAG_enumerator, DW_AT_name("FSM_Event_RunTimeOver"), DW_AT_const_value(0x10)
    2829              $C$DW$223       .dwtag  DW_TAG_enumerator, DW_AT_name("FSM_Event_MeetTime"), DW_AT_const_value(0x11)
    2830              $C$DW$224       .dwtag  DW_TAG_enumerator, DW_AT_name("FSM_Event_Waitting"), DW_AT_const_value(0x12)
    2831              $C$DW$225       .dwtag  DW_TAG_enumerator, DW_AT_name("FSM_Event_485Start"), DW_AT_const_value(0x13)
    2832              $C$DW$226       .dwtag  DW_TAG_enumerator, DW_AT_name("FSM_Event_485Stop"), DW_AT_const_value(0x14)
    2833              $C$DW$227       .dwtag  DW_TAG_enumerator, DW_AT_name("FSM_Event_XX_Err"), DW_AT_const_value(0x15)
    2834              $C$DW$228       .dwtag  DW_TAG_enumerator, DW_AT_name("FSM_Event_OverVoltage"), DW_AT_const_value(0x16)
    2835              $C$DW$229       .dwtag  DW_TAG_enumerator, DW_AT_name("FSM_Event_UnderVoltage"), DW_AT_const_value(0x17)
    2836              $C$DW$230       .dwtag  DW_TAG_enumerator, DW_AT_name("FSM_Event_OverTemp"), DW_AT_const_value(0x18)
    2837              $C$DW$231       .dwtag  DW_TAG_enumerator, DW_AT_name("FSM_Event_OverCurrent"), DW_AT_const_value(0x19)
    2838              $C$DW$232       .dwtag  DW_TAG_enumerator, DW_AT_name("FSM_Event_MototUpWait"), DW_AT_const_value(0x1a)
    2839              $C$DW$233       .dwtag  DW_TAG_enumerator, DW_AT_name("FSM_Event_MototUp"), DW_AT_const_value(0x1b)
    2840              $C$DW$234       .dwtag  DW_TAG_enumerator, DW_AT_name("FSM_Event_MototDownWait"), DW_AT_const_value(0x1c)
    2841              $C$DW$235       .dwtag  DW_TAG_enumerator, DW_AT_name("FSM_Event_MototDown"), DW_AT_const_value(0x1d)
    2842              $C$DW$236       .dwtag  DW_TAG_enumerator, DW_AT_name("FSM_Event_MeetSpeed1"), DW_AT_const_value(0x1e)
    2843              $C$DW$237       .dwtag  DW_TAG_enumerator, DW_AT_name("FSM_Event_MeetSpeed2"), DW_AT_const_value(0x1f)
    2844              $C$DW$238       .dwtag  DW_TAG_enumerator, DW_AT_name("FSM_Event_MeetSpeed3"), DW_AT_const_value(0x20)
    2845              $C$DW$239       .dwtag  DW_TAG_enumerator, DW_AT_name("FSM_Event_set_high_accel"), DW_AT_const_value(0x21)
    2846              $C$DW$240       .dwtag  DW_TAG_enumerator, DW_AT_name("FSM_Event_WaitDone"), DW_AT_const_value(0x22)
    2847                      .dwendtag $C$DW$T$90
    2848              
    2849              $C$DW$T$91      .dwtag  DW_TAG_typedef, DW_AT_name("FSM_Event_e")
    2850                      .dwattr $C$DW$T$91, DW_AT_type(*$C$DW$T$90)
    2851                      .dwattr $C$DW$T$91, DW_AT_language(DW_LANG_C)
    2852              
    2853              $C$DW$T$92      .dwtag  DW_TAG_enumeration_type
    2854                      .dwattr $C$DW$T$92, DW_AT_byte_size(0x01)
    2855              $C$DW$241       .dwtag  DW_TAG_enumerator, DW_AT_name("FSM_StateMode_Free_mode"), DW_AT_const_value(0x00)
    2856              $C$DW$242       .dwtag  DW_TAG_enumerator, DW_AT_name("FSM_StateMode_Edit_mode"), DW_AT_const_value(0x01)
    2857              $C$DW$243       .dwtag  DW_TAG_enumerator, DW_AT_name("FSM_StateMode_ClipFace_mode"), DW_AT_const_value(0x02)
    2858              $C$DW$244       .dwtag  DW_TAG_enumerator, DW_AT_name("FSM_StateMode_Milling_mode"), DW_AT_const_value(0x03)
    2859              $C$DW$245       .dwtag  DW_TAG_enumerator, DW_AT_name("FSM_StateMode_TrimPlatform_mode"), DW_AT_const_value(0
    2860              $C$DW$246       .dwtag  DW_TAG_enumerator, DW_AT_name("FSM_StateMode_CarClip_mode"), DW_AT_const_value(0x05)
    2861              $C$DW$247       .dwtag  DW_TAG_enumerator, DW_AT_name("FSM_StateMode_RubberTyre_mode"), DW_AT_const_value(0x0
    2862              $C$DW$248       .dwtag  DW_TAG_enumerator, DW_AT_name("FSM_StateMode_BlowerFan_mode"), DW_AT_const_value(0x07
TMS320C2000 Assembler PC v6.2.5 Fri Sep 29 09:29:33 2017

Tools Copyright (c) 1996-2014 Texas Instruments Incorporated
C:\Users\wmj\AppData\Local\Temp\1142410                              PAGE   54

    2863                      .dwendtag $C$DW$T$92
    2864              
    2865              $C$DW$T$93      .dwtag  DW_TAG_typedef, DW_AT_name("FSM_StateMode_e")
    2866                      .dwattr $C$DW$T$93, DW_AT_type(*$C$DW$T$92)
    2867                      .dwattr $C$DW$T$93, DW_AT_language(DW_LANG_C)
    2868              
    2869              $C$DW$T$140     .dwtag  DW_TAG_enumeration_type
    2870                      .dwattr $C$DW$T$140, DW_AT_byte_size(0x01)
    2871              $C$DW$249       .dwtag  DW_TAG_enumerator, DW_AT_name("HAL_BoardAddr_Motor1"), DW_AT_const_value(0x00)
    2872              $C$DW$250       .dwtag  DW_TAG_enumerator, DW_AT_name("HAL_BoardAddr_Motor2"), DW_AT_const_value(0x01)
    2873              $C$DW$251       .dwtag  DW_TAG_enumerator, DW_AT_name("HAL_BoardAddr_Motor3"), DW_AT_const_value(0x02)
    2874              $C$DW$252       .dwtag  DW_TAG_enumerator, DW_AT_name("HAL_BoardAddr_Motor4"), DW_AT_const_value(0x03)
    2875              $C$DW$253       .dwtag  DW_TAG_enumerator, DW_AT_name("HAL_BoardAddr_Motor5"), DW_AT_const_value(0x04)
    2876              $C$DW$254       .dwtag  DW_TAG_enumerator, DW_AT_name("HAL_BoardAddr_Motor6"), DW_AT_const_value(0x05)
    2877              $C$DW$255       .dwtag  DW_TAG_enumerator, DW_AT_name("HAL_BoardAddr_Motor7"), DW_AT_const_value(0x06)
    2878              $C$DW$256       .dwtag  DW_TAG_enumerator, DW_AT_name("HAL_BoardAddr_Heater"), DW_AT_const_value(0x07)
    2879              $C$DW$257       .dwtag  DW_TAG_enumerator, DW_AT_name("HAL_BoardAddr_OpenLoop"), DW_AT_const_value(0x08)
    2880              $C$DW$258       .dwtag  DW_TAG_enumerator, DW_AT_name("HAL_BoardAddr_Short"), DW_AT_const_value(0x09)
    2881                      .dwendtag $C$DW$T$140
    2882              
    2883              $C$DW$T$141     .dwtag  DW_TAG_typedef, DW_AT_name("HAL_BdAddr_e")
    2884                      .dwattr $C$DW$T$141, DW_AT_type(*$C$DW$T$140)
    2885                      .dwattr $C$DW$T$141, DW_AT_language(DW_LANG_C)
    2886              
    2887              $C$DW$T$156     .dwtag  DW_TAG_enumeration_type
    2888                      .dwattr $C$DW$T$156, DW_AT_byte_size(0x01)
    2889              $C$DW$259       .dwtag  DW_TAG_enumerator, DW_AT_name("MB_ENOERR"), DW_AT_const_value(0x00)
    2890              $C$DW$260       .dwtag  DW_TAG_enumerator, DW_AT_name("MB_ENOREG"), DW_AT_const_value(0x01)
    2891              $C$DW$261       .dwtag  DW_TAG_enumerator, DW_AT_name("MB_EINVAL"), DW_AT_const_value(0x02)
    2892              $C$DW$262       .dwtag  DW_TAG_enumerator, DW_AT_name("MB_EPORTERR"), DW_AT_const_value(0x03)
    2893              $C$DW$263       .dwtag  DW_TAG_enumerator, DW_AT_name("MB_ENORES"), DW_AT_const_value(0x04)
    2894              $C$DW$264       .dwtag  DW_TAG_enumerator, DW_AT_name("MB_EIO"), DW_AT_const_value(0x05)
    2895              $C$DW$265       .dwtag  DW_TAG_enumerator, DW_AT_name("MB_EILLSTATE"), DW_AT_const_value(0x06)
    2896              $C$DW$266       .dwtag  DW_TAG_enumerator, DW_AT_name("MB_ETIMEDOUT"), DW_AT_const_value(0x07)
    2897                      .dwendtag $C$DW$T$156
    2898              
    2899              $C$DW$T$157     .dwtag  DW_TAG_typedef, DW_AT_name("eMBErrorCode")
    2900                      .dwattr $C$DW$T$157, DW_AT_type(*$C$DW$T$156)
    2901                      .dwattr $C$DW$T$157, DW_AT_language(DW_LANG_C)
    2902              
    2903              $C$DW$T$158     .dwtag  DW_TAG_enumeration_type
    2904                      .dwattr $C$DW$T$158, DW_AT_byte_size(0x01)
    2905              $C$DW$267       .dwtag  DW_TAG_enumerator, DW_AT_name("STATE_TX_IDLE"), DW_AT_const_value(0x00)
    2906              $C$DW$268       .dwtag  DW_TAG_enumerator, DW_AT_name("STATE_TX_XMIT"), DW_AT_const_value(0x01)
    2907                      .dwendtag $C$DW$T$158
    2908              
    2909              $C$DW$T$159     .dwtag  DW_TAG_typedef, DW_AT_name("eMBSndState")
    2910                      .dwattr $C$DW$T$159, DW_AT_type(*$C$DW$T$158)
    2911                      .dwattr $C$DW$T$159, DW_AT_language(DW_LANG_C)
    2912              
    2913              $C$DW$T$160     .dwtag  DW_TAG_enumeration_type
    2914                      .dwattr $C$DW$T$160, DW_AT_byte_size(0x01)
    2915              $C$DW$269       .dwtag  DW_TAG_enumerator, DW_AT_name("STATE_RX_INIT"), DW_AT_const_value(0x00)
    2916              $C$DW$270       .dwtag  DW_TAG_enumerator, DW_AT_name("STATE_RX_IDLE"), DW_AT_const_value(0x01)
    2917              $C$DW$271       .dwtag  DW_TAG_enumerator, DW_AT_name("STATE_RX_RCV"), DW_AT_const_value(0x02)
TMS320C2000 Assembler PC v6.2.5 Fri Sep 29 09:29:33 2017

Tools Copyright (c) 1996-2014 Texas Instruments Incorporated
C:\Users\wmj\AppData\Local\Temp\1142410                              PAGE   55

    2918              $C$DW$272       .dwtag  DW_TAG_enumerator, DW_AT_name("STATE_RX_ERROR"), DW_AT_const_value(0x03)
    2919                      .dwendtag $C$DW$T$160
    2920              
    2921              $C$DW$T$161     .dwtag  DW_TAG_typedef, DW_AT_name("eMBRcvState")
    2922                      .dwattr $C$DW$T$161, DW_AT_type(*$C$DW$T$160)
    2923                      .dwattr $C$DW$T$161, DW_AT_language(DW_LANG_C)
    2924              
    2925              $C$DW$T$162     .dwtag  DW_TAG_enumeration_type
    2926                      .dwattr $C$DW$T$162, DW_AT_byte_size(0x01)
    2927              $C$DW$273       .dwtag  DW_TAG_enumerator, DW_AT_name("EV_READY"), DW_AT_const_value(0x00)
    2928              $C$DW$274       .dwtag  DW_TAG_enumerator, DW_AT_name("EV_FRAME_RECEIVED"), DW_AT_const_value(0x01)
    2929              $C$DW$275       .dwtag  DW_TAG_enumerator, DW_AT_name("EV_EXECUTE"), DW_AT_const_value(0x02)
    2930              $C$DW$276       .dwtag  DW_TAG_enumerator, DW_AT_name("EV_FRAME_SENT"), DW_AT_const_value(0x03)
    2931                      .dwendtag $C$DW$T$162
    2932              
    2933              $C$DW$T$163     .dwtag  DW_TAG_typedef, DW_AT_name("eMBEventType")
    2934                      .dwattr $C$DW$T$163, DW_AT_type(*$C$DW$T$162)
    2935                      .dwattr $C$DW$T$163, DW_AT_language(DW_LANG_C)
    2936              $C$DW$T$225     .dwtag  DW_TAG_pointer_type
    2937                      .dwattr $C$DW$T$225, DW_AT_type(*$C$DW$T$163)
    2938                      .dwattr $C$DW$T$225, DW_AT_address_class(0x16)
    2939              $C$DW$277       .dwtag  DW_TAG_TI_far_type
    2940                      .dwattr $C$DW$277, DW_AT_type(*$C$DW$T$225)
    2941              $C$DW$T$226     .dwtag  DW_TAG_const_type
    2942                      .dwattr $C$DW$T$226, DW_AT_type(*$C$DW$277)
    2943              $C$DW$278       .dwtag  DW_TAG_TI_far_type
    2944                      .dwattr $C$DW$278, DW_AT_type(*$C$DW$T$163)
    2945              $C$DW$T$227     .dwtag  DW_TAG_const_type
    2946                      .dwattr $C$DW$T$227, DW_AT_type(*$C$DW$278)
    2947              
    2948              $C$DW$T$167     .dwtag  DW_TAG_enumeration_type
    2949                      .dwattr $C$DW$T$167, DW_AT_byte_size(0x01)
    2950              $C$DW$279       .dwtag  DW_TAG_enumerator, DW_AT_name("MOTOR_Type_Induction"), DW_AT_const_value(0x00)
    2951              $C$DW$280       .dwtag  DW_TAG_enumerator, DW_AT_name("MOTOR_Type_Pm"), DW_AT_const_value(0x01)
    2952                      .dwendtag $C$DW$T$167
    2953              
    2954              $C$DW$T$168     .dwtag  DW_TAG_typedef, DW_AT_name("MOTOR_Type_e")
    2955                      .dwattr $C$DW$T$168, DW_AT_type(*$C$DW$T$167)
    2956                      .dwattr $C$DW$T$168, DW_AT_language(DW_LANG_C)
    2957              
    2958              $C$DW$T$170     .dwtag  DW_TAG_enumeration_type
    2959                      .dwattr $C$DW$T$170, DW_AT_byte_size(0x01)
    2960              $C$DW$281       .dwtag  DW_TAG_enumerator, DW_AT_name("EST_State_Error"), DW_AT_const_value(0x00)
    2961              $C$DW$282       .dwtag  DW_TAG_enumerator, DW_AT_name("EST_State_Idle"), DW_AT_const_value(0x01)
    2962              $C$DW$283       .dwtag  DW_TAG_enumerator, DW_AT_name("EST_State_RoverL"), DW_AT_const_value(0x02)
    2963              $C$DW$284       .dwtag  DW_TAG_enumerator, DW_AT_name("EST_State_Rs"), DW_AT_const_value(0x03)
    2964              $C$DW$285       .dwtag  DW_TAG_enumerator, DW_AT_name("EST_State_RampUp"), DW_AT_const_value(0x04)
    2965              $C$DW$286       .dwtag  DW_TAG_enumerator, DW_AT_name("EST_State_IdRated"), DW_AT_const_value(0x05)
    2966              $C$DW$287       .dwtag  DW_TAG_enumerator, DW_AT_name("EST_State_RatedFlux_OL"), DW_AT_const_value(0x06)
    2967              $C$DW$288       .dwtag  DW_TAG_enumerator, DW_AT_name("EST_State_RatedFlux"), DW_AT_const_value(0x07)
    2968              $C$DW$289       .dwtag  DW_TAG_enumerator, DW_AT_name("EST_State_RampDown"), DW_AT_const_value(0x08)
    2969              $C$DW$290       .dwtag  DW_TAG_enumerator, DW_AT_name("EST_State_LockRotor"), DW_AT_const_value(0x09)
    2970              $C$DW$291       .dwtag  DW_TAG_enumerator, DW_AT_name("EST_State_Ls"), DW_AT_const_value(0x0a)
    2971              $C$DW$292       .dwtag  DW_TAG_enumerator, DW_AT_name("EST_State_Rr"), DW_AT_const_value(0x0b)
    2972              $C$DW$293       .dwtag  DW_TAG_enumerator, DW_AT_name("EST_State_MotorIdentified"), DW_AT_const_value(0x0c)
TMS320C2000 Assembler PC v6.2.5 Fri Sep 29 09:29:33 2017

Tools Copyright (c) 1996-2014 Texas Instruments Incorporated
C:\Users\wmj\AppData\Local\Temp\1142410                              PAGE   56

    2973              $C$DW$294       .dwtag  DW_TAG_enumerator, DW_AT_name("EST_State_OnLine"), DW_AT_const_value(0x0d)
    2974              $C$DW$295       .dwtag  DW_TAG_enumerator, DW_AT_name("EST_numStates"), DW_AT_const_value(0x0e)
    2975                      .dwendtag $C$DW$T$170
    2976              
    2977              $C$DW$T$171     .dwtag  DW_TAG_typedef, DW_AT_name("EST_State_e")
    2978                      .dwattr $C$DW$T$171, DW_AT_type(*$C$DW$T$170)
    2979                      .dwattr $C$DW$T$171, DW_AT_language(DW_LANG_C)
    2980              
    2981              $C$DW$T$172     .dwtag  DW_TAG_enumeration_type
    2982                      .dwattr $C$DW$T$172, DW_AT_byte_size(0x01)
    2983              $C$DW$296       .dwtag  DW_TAG_enumerator, DW_AT_name("USER_ErrorCode_NoError"), DW_AT_const_value(0x00)
    2984              $C$DW$297       .dwtag  DW_TAG_enumerator, DW_AT_name("USER_ErrorCode_iqFullScaleCurrent_A_High"), DW_AT_cons
    2985              $C$DW$298       .dwtag  DW_TAG_enumerator, DW_AT_name("USER_ErrorCode_iqFullScaleCurrent_A_Low"), DW_AT_const
    2986              $C$DW$299       .dwtag  DW_TAG_enumerator, DW_AT_name("USER_ErrorCode_iqFullScaleVoltage_V_High"), DW_AT_cons
    2987              $C$DW$300       .dwtag  DW_TAG_enumerator, DW_AT_name("USER_ErrorCode_iqFullScaleVoltage_V_Low"), DW_AT_const
    2988              $C$DW$301       .dwtag  DW_TAG_enumerator, DW_AT_name("USER_ErrorCode_iqFullScaleFreq_Hz_High"), DW_AT_const_
    2989              $C$DW$302       .dwtag  DW_TAG_enumerator, DW_AT_name("USER_ErrorCode_iqFullScaleFreq_Hz_Low"), DW_AT_const_v
    2990              $C$DW$303       .dwtag  DW_TAG_enumerator, DW_AT_name("USER_ErrorCode_numPwmTicksPerIsrTick_High"), DW_AT_con
    2991              $C$DW$304       .dwtag  DW_TAG_enumerator, DW_AT_name("USER_ErrorCode_numPwmTicksPerIsrTick_Low"), DW_AT_cons
    2992              $C$DW$305       .dwtag  DW_TAG_enumerator, DW_AT_name("USER_ErrorCode_numIsrTicksPerCtrlTick_High"), DW_AT_co
    2993              $C$DW$306       .dwtag  DW_TAG_enumerator, DW_AT_name("USER_ErrorCode_numIsrTicksPerCtrlTick_Low"), DW_AT_con
    2994              $C$DW$307       .dwtag  DW_TAG_enumerator, DW_AT_name("USER_ErrorCode_numCtrlTicksPerCurrentTick_High"), DW_A
    2995              $C$DW$308       .dwtag  DW_TAG_enumerator, DW_AT_name("USER_ErrorCode_numCtrlTicksPerCurrentTick_Low"), DW_AT
    2996              $C$DW$309       .dwtag  DW_TAG_enumerator, DW_AT_name("USER_ErrorCode_numCtrlTicksPerEstTick_High"), DW_AT_co
    2997              $C$DW$310       .dwtag  DW_TAG_enumerator, DW_AT_name("USER_ErrorCode_numCtrlTicksPerEstTick_Low"), DW_AT_con
    2998              $C$DW$311       .dwtag  DW_TAG_enumerator, DW_AT_name("USER_ErrorCode_numCtrlTicksPerSpeedTick_High"), DW_AT_
    2999              $C$DW$312       .dwtag  DW_TAG_enumerator, DW_AT_name("USER_ErrorCode_numCtrlTicksPerSpeedTick_Low"), DW_AT_c
    3000              $C$DW$313       .dwtag  DW_TAG_enumerator, DW_AT_name("USER_ErrorCode_numCtrlTicksPerTrajTick_High"), DW_AT_c
    3001              $C$DW$314       .dwtag  DW_TAG_enumerator, DW_AT_name("USER_ErrorCode_numCtrlTicksPerTrajTick_Low"), DW_AT_co
    3002              $C$DW$315       .dwtag  DW_TAG_enumerator, DW_AT_name("USER_ErrorCode_numCurrentSensors_High"), DW_AT_const_v
    3003              $C$DW$316       .dwtag  DW_TAG_enumerator, DW_AT_name("USER_ErrorCode_numCurrentSensors_Low"), DW_AT_const_va
    3004              $C$DW$317       .dwtag  DW_TAG_enumerator, DW_AT_name("USER_ErrorCode_numVoltageSensors_High"), DW_AT_const_v
    3005              $C$DW$318       .dwtag  DW_TAG_enumerator, DW_AT_name("USER_ErrorCode_numVoltageSensors_Low"), DW_AT_const_va
    3006              $C$DW$319       .dwtag  DW_TAG_enumerator, DW_AT_name("USER_ErrorCode_offsetPole_rps_High"), DW_AT_const_valu
    3007              $C$DW$320       .dwtag  DW_TAG_enumerator, DW_AT_name("USER_ErrorCode_offsetPole_rps_Low"), DW_AT_const_value
    3008              $C$DW$321       .dwtag  DW_TAG_enumerator, DW_AT_name("USER_ErrorCode_fluxPole_rps_High"), DW_AT_const_value(
    3009              $C$DW$322       .dwtag  DW_TAG_enumerator, DW_AT_name("USER_ErrorCode_fluxPole_rps_Low"), DW_AT_const_value(0
    3010              $C$DW$323       .dwtag  DW_TAG_enumerator, DW_AT_name("USER_ErrorCode_zeroSpeedLimit_High"), DW_AT_const_valu
    3011              $C$DW$324       .dwtag  DW_TAG_enumerator, DW_AT_name("USER_ErrorCode_zeroSpeedLimit_Low"), DW_AT_const_value
    3012              $C$DW$325       .dwtag  DW_TAG_enumerator, DW_AT_name("USER_ErrorCode_forceAngleFreq_Hz_High"), DW_AT_const_v
    3013              $C$DW$326       .dwtag  DW_TAG_enumerator, DW_AT_name("USER_ErrorCode_forceAngleFreq_Hz_Low"), DW_AT_const_va
    3014              $C$DW$327       .dwtag  DW_TAG_enumerator, DW_AT_name("USER_ErrorCode_maxAccel_Hzps_High"), DW_AT_const_value
    3015              $C$DW$328       .dwtag  DW_TAG_enumerator, DW_AT_name("USER_ErrorCode_maxAccel_Hzps_Low"), DW_AT_const_value(
    3016              $C$DW$329       .dwtag  DW_TAG_enumerator, DW_AT_name("USER_ErrorCode_maxAccel_est_Hzps_High"), DW_AT_const_v
    3017              $C$DW$330       .dwtag  DW_TAG_enumerator, DW_AT_name("USER_ErrorCode_maxAccel_est_Hzps_Low"), DW_AT_const_va
    3018              $C$DW$331       .dwtag  DW_TAG_enumerator, DW_AT_name("USER_ErrorCode_directionPole_rps_High"), DW_AT_const_v
    3019              $C$DW$332       .dwtag  DW_TAG_enumerator, DW_AT_name("USER_ErrorCode_directionPole_rps_Low"), DW_AT_const_va
    3020              $C$DW$333       .dwtag  DW_TAG_enumerator, DW_AT_name("USER_ErrorCode_speedPole_rps_High"), DW_AT_const_value
    3021              $C$DW$334       .dwtag  DW_TAG_enumerator, DW_AT_name("USER_ErrorCode_speedPole_rps_Low"), DW_AT_const_value(
    3022              $C$DW$335       .dwtag  DW_TAG_enumerator, DW_AT_name("USER_ErrorCode_dcBusPole_rps_High"), DW_AT_const_value
    3023              $C$DW$336       .dwtag  DW_TAG_enumerator, DW_AT_name("USER_ErrorCode_dcBusPole_rps_Low"), DW_AT_const_value(
    3024              $C$DW$337       .dwtag  DW_TAG_enumerator, DW_AT_name("USER_ErrorCode_fluxFraction_High"), DW_AT_const_value(
    3025              $C$DW$338       .dwtag  DW_TAG_enumerator, DW_AT_name("USER_ErrorCode_fluxFraction_Low"), DW_AT_const_value(0
    3026              $C$DW$339       .dwtag  DW_TAG_enumerator, DW_AT_name("USER_ErrorCode_indEst_speedMaxFraction_High"), DW_AT_c
    3027              $C$DW$340       .dwtag  DW_TAG_enumerator, DW_AT_name("USER_ErrorCode_indEst_speedMaxFraction_Low"), DW_AT_co
TMS320C2000 Assembler PC v6.2.5 Fri Sep 29 09:29:33 2017

Tools Copyright (c) 1996-2014 Texas Instruments Incorporated
C:\Users\wmj\AppData\Local\Temp\1142410                              PAGE   57

    3028              $C$DW$341       .dwtag  DW_TAG_enumerator, DW_AT_name("USER_ErrorCode_powerWarpGain_High"), DW_AT_const_value
    3029              $C$DW$342       .dwtag  DW_TAG_enumerator, DW_AT_name("USER_ErrorCode_powerWarpGain_Low"), DW_AT_const_value(
    3030              $C$DW$343       .dwtag  DW_TAG_enumerator, DW_AT_name("USER_ErrorCode_systemFreq_MHz_High"), DW_AT_const_valu
    3031              $C$DW$344       .dwtag  DW_TAG_enumerator, DW_AT_name("USER_ErrorCode_systemFreq_MHz_Low"), DW_AT_const_value
    3032              $C$DW$345       .dwtag  DW_TAG_enumerator, DW_AT_name("USER_ErrorCode_pwmFreq_kHz_High"), DW_AT_const_value(0
    3033              $C$DW$346       .dwtag  DW_TAG_enumerator, DW_AT_name("USER_ErrorCode_pwmFreq_kHz_Low"), DW_AT_const_value(0x
    3034              $C$DW$347       .dwtag  DW_TAG_enumerator, DW_AT_name("USER_ErrorCode_voltage_sf_High"), DW_AT_const_value(0x
    3035              $C$DW$348       .dwtag  DW_TAG_enumerator, DW_AT_name("USER_ErrorCode_voltage_sf_Low"), DW_AT_const_value(0x3
    3036              $C$DW$349       .dwtag  DW_TAG_enumerator, DW_AT_name("USER_ErrorCode_current_sf_High"), DW_AT_const_value(0x
    3037              $C$DW$350       .dwtag  DW_TAG_enumerator, DW_AT_name("USER_ErrorCode_current_sf_Low"), DW_AT_const_value(0x3
    3038              $C$DW$351       .dwtag  DW_TAG_enumerator, DW_AT_name("USER_ErrorCode_voltageFilterPole_Hz_High"), DW_AT_cons
    3039              $C$DW$352       .dwtag  DW_TAG_enumerator, DW_AT_name("USER_ErrorCode_voltageFilterPole_Hz_Low"), DW_AT_const
    3040              $C$DW$353       .dwtag  DW_TAG_enumerator, DW_AT_name("USER_ErrorCode_maxVsMag_pu_High"), DW_AT_const_value(0
    3041              $C$DW$354       .dwtag  DW_TAG_enumerator, DW_AT_name("USER_ErrorCode_maxVsMag_pu_Low"), DW_AT_const_value(0x
    3042              $C$DW$355       .dwtag  DW_TAG_enumerator, DW_AT_name("USER_ErrorCode_estKappa_High"), DW_AT_const_value(0x3b
    3043              $C$DW$356       .dwtag  DW_TAG_enumerator, DW_AT_name("USER_ErrorCode_estKappa_Low"), DW_AT_const_value(0x3c)
    3044              $C$DW$357       .dwtag  DW_TAG_enumerator, DW_AT_name("USER_ErrorCode_motor_type_Unknown"), DW_AT_const_value
    3045              $C$DW$358       .dwtag  DW_TAG_enumerator, DW_AT_name("USER_ErrorCode_motor_numPolePairs_High"), DW_AT_const_
    3046              $C$DW$359       .dwtag  DW_TAG_enumerator, DW_AT_name("USER_ErrorCode_motor_numPolePairs_Low"), DW_AT_const_v
    3047              $C$DW$360       .dwtag  DW_TAG_enumerator, DW_AT_name("USER_ErrorCode_motor_ratedFlux_High"), DW_AT_const_val
    3048              $C$DW$361       .dwtag  DW_TAG_enumerator, DW_AT_name("USER_ErrorCode_motor_ratedFlux_Low"), DW_AT_const_valu
    3049              $C$DW$362       .dwtag  DW_TAG_enumerator, DW_AT_name("USER_ErrorCode_motor_Rr_High"), DW_AT_const_value(0x42
    3050              $C$DW$363       .dwtag  DW_TAG_enumerator, DW_AT_name("USER_ErrorCode_motor_Rr_Low"), DW_AT_const_value(0x43)
    3051              $C$DW$364       .dwtag  DW_TAG_enumerator, DW_AT_name("USER_ErrorCode_motor_Rs_High"), DW_AT_const_value(0x44
    3052              $C$DW$365       .dwtag  DW_TAG_enumerator, DW_AT_name("USER_ErrorCode_motor_Rs_Low"), DW_AT_const_value(0x45)
    3053              $C$DW$366       .dwtag  DW_TAG_enumerator, DW_AT_name("USER_ErrorCode_motor_Ls_d_High"), DW_AT_const_value(0x
    3054              $C$DW$367       .dwtag  DW_TAG_enumerator, DW_AT_name("USER_ErrorCode_motor_Ls_d_Low"), DW_AT_const_value(0x4
    3055              $C$DW$368       .dwtag  DW_TAG_enumerator, DW_AT_name("USER_ErrorCode_motor_Ls_q_High"), DW_AT_const_value(0x
    3056              $C$DW$369       .dwtag  DW_TAG_enumerator, DW_AT_name("USER_ErrorCode_motor_Ls_q_Low"), DW_AT_const_value(0x4
    3057              $C$DW$370       .dwtag  DW_TAG_enumerator, DW_AT_name("USER_ErrorCode_maxCurrent_High"), DW_AT_const_value(0x
    3058              $C$DW$371       .dwtag  DW_TAG_enumerator, DW_AT_name("USER_ErrorCode_maxCurrent_Low"), DW_AT_const_value(0x4
    3059              $C$DW$372       .dwtag  DW_TAG_enumerator, DW_AT_name("USER_ErrorCode_maxCurrent_resEst_High"), DW_AT_const_v
    3060              $C$DW$373       .dwtag  DW_TAG_enumerator, DW_AT_name("USER_ErrorCode_maxCurrent_resEst_Low"), DW_AT_const_va
    3061              $C$DW$374       .dwtag  DW_TAG_enumerator, DW_AT_name("USER_ErrorCode_maxCurrent_indEst_High"), DW_AT_const_v
    3062              $C$DW$375       .dwtag  DW_TAG_enumerator, DW_AT_name("USER_ErrorCode_maxCurrent_indEst_Low"), DW_AT_const_va
    3063              $C$DW$376       .dwtag  DW_TAG_enumerator, DW_AT_name("USER_ErrorCode_maxCurrentSlope_High"), DW_AT_const_val
    3064              $C$DW$377       .dwtag  DW_TAG_enumerator, DW_AT_name("USER_ErrorCode_maxCurrentSlope_Low"), DW_AT_const_valu
    3065              $C$DW$378       .dwtag  DW_TAG_enumerator, DW_AT_name("USER_ErrorCode_maxCurrentSlope_powerWarp_High"), DW_AT
    3066              $C$DW$379       .dwtag  DW_TAG_enumerator, DW_AT_name("USER_ErrorCode_maxCurrentSlope_powerWarp_Low"), DW_AT_
    3067              $C$DW$380       .dwtag  DW_TAG_enumerator, DW_AT_name("USER_ErrorCode_IdRated_High"), DW_AT_const_value(0x54)
    3068              $C$DW$381       .dwtag  DW_TAG_enumerator, DW_AT_name("USER_ErrorCode_IdRated_Low"), DW_AT_const_value(0x55)
    3069              $C$DW$382       .dwtag  DW_TAG_enumerator, DW_AT_name("USER_ErrorCode_IdRatedFraction_indEst_High"), DW_AT_co
    3070              $C$DW$383       .dwtag  DW_TAG_enumerator, DW_AT_name("USER_ErrorCode_IdRatedFraction_indEst_Low"), DW_AT_con
    3071              $C$DW$384       .dwtag  DW_TAG_enumerator, DW_AT_name("USER_ErrorCode_IdRatedFraction_ratedFlux_High"), DW_AT
    3072              $C$DW$385       .dwtag  DW_TAG_enumerator, DW_AT_name("USER_ErrorCode_IdRatedFraction_ratedFlux_Low"), DW_AT_
    3073              $C$DW$386       .dwtag  DW_TAG_enumerator, DW_AT_name("USER_ErrorCode_IdRated_delta_High"), DW_AT_const_value
    3074              $C$DW$387       .dwtag  DW_TAG_enumerator, DW_AT_name("USER_ErrorCode_IdRated_delta_Low"), DW_AT_const_value(
    3075              $C$DW$388       .dwtag  DW_TAG_enumerator, DW_AT_name("USER_ErrorCode_fluxEstFreq_Hz_High"), DW_AT_const_valu
    3076              $C$DW$389       .dwtag  DW_TAG_enumerator, DW_AT_name("USER_ErrorCode_fluxEstFreq_Hz_Low"), DW_AT_const_value
    3077              $C$DW$390       .dwtag  DW_TAG_enumerator, DW_AT_name("USER_ErrorCode_ctrlFreq_Hz_High"), DW_AT_const_value(0
    3078              $C$DW$391       .dwtag  DW_TAG_enumerator, DW_AT_name("USER_ErrorCode_ctrlFreq_Hz_Low"), DW_AT_const_value(0x
    3079              $C$DW$392       .dwtag  DW_TAG_enumerator, DW_AT_name("USER_ErrorCode_estFreq_Hz_High"), DW_AT_const_value(0x
    3080              $C$DW$393       .dwtag  DW_TAG_enumerator, DW_AT_name("USER_ErrorCode_estFreq_Hz_Low"), DW_AT_const_value(0x6
    3081              $C$DW$394       .dwtag  DW_TAG_enumerator, DW_AT_name("USER_ErrorCode_RoverL_estFreq_Hz_High"), DW_AT_const_v
    3082              $C$DW$395       .dwtag  DW_TAG_enumerator, DW_AT_name("USER_ErrorCode_RoverL_estFreq_Hz_Low"), DW_AT_const_va
TMS320C2000 Assembler PC v6.2.5 Fri Sep 29 09:29:33 2017

Tools Copyright (c) 1996-2014 Texas Instruments Incorporated
C:\Users\wmj\AppData\Local\Temp\1142410                              PAGE   58

    3083              $C$DW$396       .dwtag  DW_TAG_enumerator, DW_AT_name("USER_ErrorCode_trajFreq_Hz_High"), DW_AT_const_value(0
    3084              $C$DW$397       .dwtag  DW_TAG_enumerator, DW_AT_name("USER_ErrorCode_trajFreq_Hz_Low"), DW_AT_const_value(0x
    3085              $C$DW$398       .dwtag  DW_TAG_enumerator, DW_AT_name("USER_ErrorCode_ctrlPeriod_sec_High"), DW_AT_const_valu
    3086              $C$DW$399       .dwtag  DW_TAG_enumerator, DW_AT_name("USER_ErrorCode_ctrlPeriod_sec_Low"), DW_AT_const_value
    3087              $C$DW$400       .dwtag  DW_TAG_enumerator, DW_AT_name("USER_ErrorCode_maxNegativeIdCurrent_a_High"), DW_AT_co
    3088              $C$DW$401       .dwtag  DW_TAG_enumerator, DW_AT_name("USER_ErrorCode_maxNegativeIdCurrent_a_Low"), DW_AT_con
    3089              $C$DW$402       .dwtag  DW_TAG_enumerator, DW_AT_name("USER_numErrorCodes"), DW_AT_const_value(0x6a)
    3090                      .dwendtag $C$DW$T$172
    3091              
    3092              $C$DW$T$173     .dwtag  DW_TAG_typedef, DW_AT_name("USER_ErrorCode_e")
    3093                      .dwattr $C$DW$T$173, DW_AT_type(*$C$DW$T$172)
    3094                      .dwattr $C$DW$T$173, DW_AT_language(DW_LANG_C)
    3095              
    3096              $C$DW$T$229     .dwtag  DW_TAG_enumeration_type
    3097                      .dwattr $C$DW$T$229, DW_AT_byte_size(0x01)
    3098              $C$DW$403       .dwtag  DW_TAG_enumerator, DW_AT_name("MB_EX_NONE"), DW_AT_const_value(0x00)
    3099              $C$DW$404       .dwtag  DW_TAG_enumerator, DW_AT_name("MB_EX_ILLEGAL_FUNCTION"), DW_AT_const_value(0x01)
    3100              $C$DW$405       .dwtag  DW_TAG_enumerator, DW_AT_name("MB_EX_ILLEGAL_DATA_ADDRESS"), DW_AT_const_value(0x02)
    3101              $C$DW$406       .dwtag  DW_TAG_enumerator, DW_AT_name("MB_EX_ILLEGAL_DATA_VALUE"), DW_AT_const_value(0x03)
    3102              $C$DW$407       .dwtag  DW_TAG_enumerator, DW_AT_name("MB_EX_SLAVE_DEVICE_FAILURE"), DW_AT_const_value(0x04)
    3103              $C$DW$408       .dwtag  DW_TAG_enumerator, DW_AT_name("MB_EX_ACKNOWLEDGE"), DW_AT_const_value(0x05)
    3104              $C$DW$409       .dwtag  DW_TAG_enumerator, DW_AT_name("MB_EX_SLAVE_BUSY"), DW_AT_const_value(0x06)
    3105              $C$DW$410       .dwtag  DW_TAG_enumerator, DW_AT_name("MB_EX_MEMORY_PARITY_ERROR"), DW_AT_const_value(0x08)
    3106              $C$DW$411       .dwtag  DW_TAG_enumerator, DW_AT_name("MB_EX_GATEWAY_PATH_FAILED"), DW_AT_const_value(0x0a)
    3107              $C$DW$412       .dwtag  DW_TAG_enumerator, DW_AT_name("MB_EX_GATEWAY_TGT_FAILED"), DW_AT_const_value(0x0b)
    3108                      .dwendtag $C$DW$T$229
    3109              
    3110              $C$DW$T$230     .dwtag  DW_TAG_typedef, DW_AT_name("eMBException")
    3111                      .dwattr $C$DW$T$230, DW_AT_type(*$C$DW$T$229)
    3112                      .dwattr $C$DW$T$230, DW_AT_language(DW_LANG_C)
    3113              
    3114              $C$DW$T$19      .dwtag  DW_TAG_structure_type
    3115                      .dwattr $C$DW$T$19, DW_AT_name("I2C_Obj")
    3116                      .dwattr $C$DW$T$19, DW_AT_declaration
    3117                      .dwendtag $C$DW$T$19
    3118              
    3119              $C$DW$T$131     .dwtag  DW_TAG_pointer_type
    3120                      .dwattr $C$DW$T$131, DW_AT_type(*$C$DW$T$19)
    3121                      .dwattr $C$DW$T$131, DW_AT_address_class(0x16)
    3122              $C$DW$T$132     .dwtag  DW_TAG_typedef, DW_AT_name("I2C_Handle")
    3123                      .dwattr $C$DW$T$132, DW_AT_type(*$C$DW$T$131)
    3124                      .dwattr $C$DW$T$132, DW_AT_language(DW_LANG_C)
    3125              
    3126              $C$DW$T$31      .dwtag  DW_TAG_structure_type
    3127                      .dwattr $C$DW$T$31, DW_AT_name("_ADC_Obj_")
    3128                      .dwattr $C$DW$T$31, DW_AT_byte_size(0x6650)
    3129              $C$DW$413       .dwtag  DW_TAG_member
    3130                      .dwattr $C$DW$413, DW_AT_type(*$C$DW$T$25)
    3131                      .dwattr $C$DW$413, DW_AT_name("ADCRESULT")
    3132                      .dwattr $C$DW$413, DW_AT_TI_symbol_name("_ADCRESULT")
    3133                      .dwattr $C$DW$413, DW_AT_data_member_location[DW_OP_plus_uconst 0x0]
    3134                      .dwattr $C$DW$413, DW_AT_accessibility(DW_ACCESS_public)
    3135              $C$DW$414       .dwtag  DW_TAG_member
    3136                      .dwattr $C$DW$414, DW_AT_type(*$C$DW$T$26)
    3137                      .dwattr $C$DW$414, DW_AT_name("resvd_1")
TMS320C2000 Assembler PC v6.2.5 Fri Sep 29 09:29:33 2017

Tools Copyright (c) 1996-2014 Texas Instruments Incorporated
C:\Users\wmj\AppData\Local\Temp\1142410                              PAGE   59

    3138                      .dwattr $C$DW$414, DW_AT_TI_symbol_name("_resvd_1")
    3139                      .dwattr $C$DW$414, DW_AT_data_member_location[DW_OP_plus_uconst 0x10]
    3140                      .dwattr $C$DW$414, DW_AT_accessibility(DW_ACCESS_public)
    3141              $C$DW$415       .dwtag  DW_TAG_member
    3142                      .dwattr $C$DW$415, DW_AT_type(*$C$DW$T$24)
    3143                      .dwattr $C$DW$415, DW_AT_name("ADCCTL1")
    3144                      .dwattr $C$DW$415, DW_AT_TI_symbol_name("_ADCCTL1")
    3145                      .dwattr $C$DW$415, DW_AT_data_member_location[DW_OP_plus_uconst 0x6600]
    3146                      .dwattr $C$DW$415, DW_AT_accessibility(DW_ACCESS_public)
    3147              $C$DW$416       .dwtag  DW_TAG_member
    3148                      .dwattr $C$DW$416, DW_AT_type(*$C$DW$T$24)
    3149                      .dwattr $C$DW$416, DW_AT_name("ADCCTL2")
    3150                      .dwattr $C$DW$416, DW_AT_TI_symbol_name("_ADCCTL2")
    3151                      .dwattr $C$DW$416, DW_AT_data_member_location[DW_OP_plus_uconst 0x6601]
    3152                      .dwattr $C$DW$416, DW_AT_accessibility(DW_ACCESS_public)
    3153              $C$DW$417       .dwtag  DW_TAG_member
    3154                      .dwattr $C$DW$417, DW_AT_type(*$C$DW$T$27)
    3155                      .dwattr $C$DW$417, DW_AT_name("rsvd_2")
    3156                      .dwattr $C$DW$417, DW_AT_TI_symbol_name("_rsvd_2")
    3157                      .dwattr $C$DW$417, DW_AT_data_member_location[DW_OP_plus_uconst 0x6602]
    3158                      .dwattr $C$DW$417, DW_AT_accessibility(DW_ACCESS_public)
    3159              $C$DW$418       .dwtag  DW_TAG_member
    3160                      .dwattr $C$DW$418, DW_AT_type(*$C$DW$T$24)
    3161                      .dwattr $C$DW$418, DW_AT_name("ADCINTFLG")
    3162                      .dwattr $C$DW$418, DW_AT_TI_symbol_name("_ADCINTFLG")
    3163                      .dwattr $C$DW$418, DW_AT_data_member_location[DW_OP_plus_uconst 0x6604]
    3164                      .dwattr $C$DW$418, DW_AT_accessibility(DW_ACCESS_public)
    3165              $C$DW$419       .dwtag  DW_TAG_member
    3166                      .dwattr $C$DW$419, DW_AT_type(*$C$DW$T$24)
    3167                      .dwattr $C$DW$419, DW_AT_name("ADCINTFLGCLR")
    3168                      .dwattr $C$DW$419, DW_AT_TI_symbol_name("_ADCINTFLGCLR")
    3169                      .dwattr $C$DW$419, DW_AT_data_member_location[DW_OP_plus_uconst 0x6605]
    3170                      .dwattr $C$DW$419, DW_AT_accessibility(DW_ACCESS_public)
    3171              $C$DW$420       .dwtag  DW_TAG_member
    3172                      .dwattr $C$DW$420, DW_AT_type(*$C$DW$T$24)
    3173                      .dwattr $C$DW$420, DW_AT_name("ADCINTOVF")
    3174                      .dwattr $C$DW$420, DW_AT_TI_symbol_name("_ADCINTOVF")
    3175                      .dwattr $C$DW$420, DW_AT_data_member_location[DW_OP_plus_uconst 0x6606]
    3176                      .dwattr $C$DW$420, DW_AT_accessibility(DW_ACCESS_public)
    3177              $C$DW$421       .dwtag  DW_TAG_member
    3178                      .dwattr $C$DW$421, DW_AT_type(*$C$DW$T$24)
    3179                      .dwattr $C$DW$421, DW_AT_name("ADCINTOVFCLR")
    3180                      .dwattr $C$DW$421, DW_AT_TI_symbol_name("_ADCINTOVFCLR")
    3181                      .dwattr $C$DW$421, DW_AT_data_member_location[DW_OP_plus_uconst 0x6607]
    3182                      .dwattr $C$DW$421, DW_AT_accessibility(DW_ACCESS_public)
    3183              $C$DW$422       .dwtag  DW_TAG_member
    3184                      .dwattr $C$DW$422, DW_AT_type(*$C$DW$T$28)
    3185                      .dwattr $C$DW$422, DW_AT_name("INTSELxNy")
    3186                      .dwattr $C$DW$422, DW_AT_TI_symbol_name("_INTSELxNy")
    3187                      .dwattr $C$DW$422, DW_AT_data_member_location[DW_OP_plus_uconst 0x6608]
    3188                      .dwattr $C$DW$422, DW_AT_accessibility(DW_ACCESS_public)
    3189              $C$DW$423       .dwtag  DW_TAG_member
    3190                      .dwattr $C$DW$423, DW_AT_type(*$C$DW$T$29)
    3191                      .dwattr $C$DW$423, DW_AT_name("rsvd_3")
    3192                      .dwattr $C$DW$423, DW_AT_TI_symbol_name("_rsvd_3")
TMS320C2000 Assembler PC v6.2.5 Fri Sep 29 09:29:33 2017

Tools Copyright (c) 1996-2014 Texas Instruments Incorporated
C:\Users\wmj\AppData\Local\Temp\1142410                              PAGE   60

    3193                      .dwattr $C$DW$423, DW_AT_data_member_location[DW_OP_plus_uconst 0x660d]
    3194                      .dwattr $C$DW$423, DW_AT_accessibility(DW_ACCESS_public)
    3195              $C$DW$424       .dwtag  DW_TAG_member
    3196                      .dwattr $C$DW$424, DW_AT_type(*$C$DW$T$24)
    3197                      .dwattr $C$DW$424, DW_AT_name("SOCPRICTRL")
    3198                      .dwattr $C$DW$424, DW_AT_TI_symbol_name("_SOCPRICTRL")
    3199                      .dwattr $C$DW$424, DW_AT_data_member_location[DW_OP_plus_uconst 0x6610]
    3200                      .dwattr $C$DW$424, DW_AT_accessibility(DW_ACCESS_public)
    3201              $C$DW$425       .dwtag  DW_TAG_member
    3202                      .dwattr $C$DW$425, DW_AT_type(*$C$DW$T$24)
    3203                      .dwattr $C$DW$425, DW_AT_name("rsvd_4")
    3204                      .dwattr $C$DW$425, DW_AT_TI_symbol_name("_rsvd_4")
    3205                      .dwattr $C$DW$425, DW_AT_data_member_location[DW_OP_plus_uconst 0x6611]
    3206                      .dwattr $C$DW$425, DW_AT_accessibility(DW_ACCESS_public)
    3207              $C$DW$426       .dwtag  DW_TAG_member
    3208                      .dwattr $C$DW$426, DW_AT_type(*$C$DW$T$24)
    3209                      .dwattr $C$DW$426, DW_AT_name("ADCSAMPLEMODE")
    3210                      .dwattr $C$DW$426, DW_AT_TI_symbol_name("_ADCSAMPLEMODE")
    3211                      .dwattr $C$DW$426, DW_AT_data_member_location[DW_OP_plus_uconst 0x6612]
    3212                      .dwattr $C$DW$426, DW_AT_accessibility(DW_ACCESS_public)
    3213              $C$DW$427       .dwtag  DW_TAG_member
    3214                      .dwattr $C$DW$427, DW_AT_type(*$C$DW$T$24)
    3215                      .dwattr $C$DW$427, DW_AT_name("rsvd_5")
    3216                      .dwattr $C$DW$427, DW_AT_TI_symbol_name("_rsvd_5")
    3217                      .dwattr $C$DW$427, DW_AT_data_member_location[DW_OP_plus_uconst 0x6613]
    3218                      .dwattr $C$DW$427, DW_AT_accessibility(DW_ACCESS_public)
    3219              $C$DW$428       .dwtag  DW_TAG_member
    3220                      .dwattr $C$DW$428, DW_AT_type(*$C$DW$T$24)
    3221                      .dwattr $C$DW$428, DW_AT_name("ADCINTSOCSEL1")
    3222                      .dwattr $C$DW$428, DW_AT_TI_symbol_name("_ADCINTSOCSEL1")
    3223                      .dwattr $C$DW$428, DW_AT_data_member_location[DW_OP_plus_uconst 0x6614]
    3224                      .dwattr $C$DW$428, DW_AT_accessibility(DW_ACCESS_public)
    3225              $C$DW$429       .dwtag  DW_TAG_member
    3226                      .dwattr $C$DW$429, DW_AT_type(*$C$DW$T$24)
    3227                      .dwattr $C$DW$429, DW_AT_name("ADCINTSOCSEL2")
    3228                      .dwattr $C$DW$429, DW_AT_TI_symbol_name("_ADCINTSOCSEL2")
    3229                      .dwattr $C$DW$429, DW_AT_data_member_location[DW_OP_plus_uconst 0x6615]
    3230                      .dwattr $C$DW$429, DW_AT_accessibility(DW_ACCESS_public)
    3231              $C$DW$430       .dwtag  DW_TAG_member
    3232                      .dwattr $C$DW$430, DW_AT_type(*$C$DW$T$27)
    3233                      .dwattr $C$DW$430, DW_AT_name("rsvd_6")
    3234                      .dwattr $C$DW$430, DW_AT_TI_symbol_name("_rsvd_6")
    3235                      .dwattr $C$DW$430, DW_AT_data_member_location[DW_OP_plus_uconst 0x6616]
    3236                      .dwattr $C$DW$430, DW_AT_accessibility(DW_ACCESS_public)
    3237              $C$DW$431       .dwtag  DW_TAG_member
    3238                      .dwattr $C$DW$431, DW_AT_type(*$C$DW$T$24)
    3239                      .dwattr $C$DW$431, DW_AT_name("ADCSOCFLG1")
    3240                      .dwattr $C$DW$431, DW_AT_TI_symbol_name("_ADCSOCFLG1")
    3241                      .dwattr $C$DW$431, DW_AT_data_member_location[DW_OP_plus_uconst 0x6618]
    3242                      .dwattr $C$DW$431, DW_AT_accessibility(DW_ACCESS_public)
    3243              $C$DW$432       .dwtag  DW_TAG_member
    3244                      .dwattr $C$DW$432, DW_AT_type(*$C$DW$T$24)
    3245                      .dwattr $C$DW$432, DW_AT_name("rsvd_7")
    3246                      .dwattr $C$DW$432, DW_AT_TI_symbol_name("_rsvd_7")
    3247                      .dwattr $C$DW$432, DW_AT_data_member_location[DW_OP_plus_uconst 0x6619]
TMS320C2000 Assembler PC v6.2.5 Fri Sep 29 09:29:33 2017

Tools Copyright (c) 1996-2014 Texas Instruments Incorporated
C:\Users\wmj\AppData\Local\Temp\1142410                              PAGE   61

    3248                      .dwattr $C$DW$432, DW_AT_accessibility(DW_ACCESS_public)
    3249              $C$DW$433       .dwtag  DW_TAG_member
    3250                      .dwattr $C$DW$433, DW_AT_type(*$C$DW$T$24)
    3251                      .dwattr $C$DW$433, DW_AT_name("ADCSOCFRC1")
    3252                      .dwattr $C$DW$433, DW_AT_TI_symbol_name("_ADCSOCFRC1")
    3253                      .dwattr $C$DW$433, DW_AT_data_member_location[DW_OP_plus_uconst 0x661a]
    3254                      .dwattr $C$DW$433, DW_AT_accessibility(DW_ACCESS_public)
    3255              $C$DW$434       .dwtag  DW_TAG_member
    3256                      .dwattr $C$DW$434, DW_AT_type(*$C$DW$T$24)
    3257                      .dwattr $C$DW$434, DW_AT_name("rsvd_8")
    3258                      .dwattr $C$DW$434, DW_AT_TI_symbol_name("_rsvd_8")
    3259                      .dwattr $C$DW$434, DW_AT_data_member_location[DW_OP_plus_uconst 0x661b]
    3260                      .dwattr $C$DW$434, DW_AT_accessibility(DW_ACCESS_public)
    3261              $C$DW$435       .dwtag  DW_TAG_member
    3262                      .dwattr $C$DW$435, DW_AT_type(*$C$DW$T$24)
    3263                      .dwattr $C$DW$435, DW_AT_name("ADCSOCOVF1")
    3264                      .dwattr $C$DW$435, DW_AT_TI_symbol_name("_ADCSOCOVF1")
    3265                      .dwattr $C$DW$435, DW_AT_data_member_location[DW_OP_plus_uconst 0x661c]
    3266                      .dwattr $C$DW$435, DW_AT_accessibility(DW_ACCESS_public)
    3267              $C$DW$436       .dwtag  DW_TAG_member
    3268                      .dwattr $C$DW$436, DW_AT_type(*$C$DW$T$24)
    3269                      .dwattr $C$DW$436, DW_AT_name("rsvd_9")
    3270                      .dwattr $C$DW$436, DW_AT_TI_symbol_name("_rsvd_9")
    3271                      .dwattr $C$DW$436, DW_AT_data_member_location[DW_OP_plus_uconst 0x661d]
    3272                      .dwattr $C$DW$436, DW_AT_accessibility(DW_ACCESS_public)
    3273              $C$DW$437       .dwtag  DW_TAG_member
    3274                      .dwattr $C$DW$437, DW_AT_type(*$C$DW$T$24)
    3275                      .dwattr $C$DW$437, DW_AT_name("ADCSOCOVFCLR1")
    3276                      .dwattr $C$DW$437, DW_AT_TI_symbol_name("_ADCSOCOVFCLR1")
    3277                      .dwattr $C$DW$437, DW_AT_data_member_location[DW_OP_plus_uconst 0x661e]
    3278                      .dwattr $C$DW$437, DW_AT_accessibility(DW_ACCESS_public)
    3279              $C$DW$438       .dwtag  DW_TAG_member
    3280                      .dwattr $C$DW$438, DW_AT_type(*$C$DW$T$24)
    3281                      .dwattr $C$DW$438, DW_AT_name("rsvd_10")
    3282                      .dwattr $C$DW$438, DW_AT_TI_symbol_name("_rsvd_10")
    3283                      .dwattr $C$DW$438, DW_AT_data_member_location[DW_OP_plus_uconst 0x661f]
    3284                      .dwattr $C$DW$438, DW_AT_accessibility(DW_ACCESS_public)
    3285              $C$DW$439       .dwtag  DW_TAG_member
    3286                      .dwattr $C$DW$439, DW_AT_type(*$C$DW$T$25)
    3287                      .dwattr $C$DW$439, DW_AT_name("ADCSOCxCTL")
    3288                      .dwattr $C$DW$439, DW_AT_TI_symbol_name("_ADCSOCxCTL")
    3289                      .dwattr $C$DW$439, DW_AT_data_member_location[DW_OP_plus_uconst 0x6620]
    3290                      .dwattr $C$DW$439, DW_AT_accessibility(DW_ACCESS_public)
    3291              $C$DW$440       .dwtag  DW_TAG_member
    3292                      .dwattr $C$DW$440, DW_AT_type(*$C$DW$T$25)
    3293                      .dwattr $C$DW$440, DW_AT_name("rsvd_11")
    3294                      .dwattr $C$DW$440, DW_AT_TI_symbol_name("_rsvd_11")
    3295                      .dwattr $C$DW$440, DW_AT_data_member_location[DW_OP_plus_uconst 0x6630]
    3296                      .dwattr $C$DW$440, DW_AT_accessibility(DW_ACCESS_public)
    3297              $C$DW$441       .dwtag  DW_TAG_member
    3298                      .dwattr $C$DW$441, DW_AT_type(*$C$DW$T$24)
    3299                      .dwattr $C$DW$441, DW_AT_name("ADCREFTRIM")
    3300                      .dwattr $C$DW$441, DW_AT_TI_symbol_name("_ADCREFTRIM")
    3301                      .dwattr $C$DW$441, DW_AT_data_member_location[DW_OP_plus_uconst 0x6640]
    3302                      .dwattr $C$DW$441, DW_AT_accessibility(DW_ACCESS_public)
TMS320C2000 Assembler PC v6.2.5 Fri Sep 29 09:29:33 2017

Tools Copyright (c) 1996-2014 Texas Instruments Incorporated
C:\Users\wmj\AppData\Local\Temp\1142410                              PAGE   62

    3303              $C$DW$442       .dwtag  DW_TAG_member
    3304                      .dwattr $C$DW$442, DW_AT_type(*$C$DW$T$24)
    3305                      .dwattr $C$DW$442, DW_AT_name("ADCOFFTRIM")
    3306                      .dwattr $C$DW$442, DW_AT_TI_symbol_name("_ADCOFFTRIM")
    3307                      .dwattr $C$DW$442, DW_AT_data_member_location[DW_OP_plus_uconst 0x6641]
    3308                      .dwattr $C$DW$442, DW_AT_accessibility(DW_ACCESS_public)
    3309              $C$DW$443       .dwtag  DW_TAG_member
    3310                      .dwattr $C$DW$443, DW_AT_type(*$C$DW$T$30)
    3311                      .dwattr $C$DW$443, DW_AT_name("resvd_12")
    3312                      .dwattr $C$DW$443, DW_AT_TI_symbol_name("_resvd_12")
    3313                      .dwattr $C$DW$443, DW_AT_data_member_location[DW_OP_plus_uconst 0x6642]
    3314                      .dwattr $C$DW$443, DW_AT_accessibility(DW_ACCESS_public)
    3315              $C$DW$444       .dwtag  DW_TAG_member
    3316                      .dwattr $C$DW$444, DW_AT_type(*$C$DW$T$24)
    3317                      .dwattr $C$DW$444, DW_AT_name("ADCREV")
    3318                      .dwattr $C$DW$444, DW_AT_TI_symbol_name("_ADCREV")
    3319                      .dwattr $C$DW$444, DW_AT_data_member_location[DW_OP_plus_uconst 0x664f]
    3320                      .dwattr $C$DW$444, DW_AT_accessibility(DW_ACCESS_public)
    3321                      .dwendtag $C$DW$T$31
    3322              
    3323              $C$DW$T$102     .dwtag  DW_TAG_pointer_type
    3324                      .dwattr $C$DW$T$102, DW_AT_type(*$C$DW$T$31)
    3325                      .dwattr $C$DW$T$102, DW_AT_address_class(0x16)
    3326              $C$DW$T$103     .dwtag  DW_TAG_typedef, DW_AT_name("ADC_Handle")
    3327                      .dwattr $C$DW$T$103, DW_AT_type(*$C$DW$T$102)
    3328                      .dwattr $C$DW$T$103, DW_AT_language(DW_LANG_C)
    3329              
    3330              $C$DW$T$35      .dwtag  DW_TAG_structure_type
    3331                      .dwattr $C$DW$T$35, DW_AT_name("_BRAKE_Obj_")
    3332                      .dwattr $C$DW$T$35, DW_AT_byte_size(0x08)
    3333              $C$DW$445       .dwtag  DW_TAG_member
    3334                      .dwattr $C$DW$445, DW_AT_type(*$C$DW$T$32)
    3335                      .dwattr $C$DW$445, DW_AT_name("angle_pu")
    3336                      .dwattr $C$DW$445, DW_AT_TI_symbol_name("_angle_pu")
    3337                      .dwattr $C$DW$445, DW_AT_data_member_location[DW_OP_plus_uconst 0x0]
    3338                      .dwattr $C$DW$445, DW_AT_accessibility(DW_ACCESS_public)
    3339              $C$DW$446       .dwtag  DW_TAG_member
    3340                      .dwattr $C$DW$446, DW_AT_type(*$C$DW$T$33)
    3341                      .dwattr $C$DW$446, DW_AT_name("Idq_brake")
    3342                      .dwattr $C$DW$446, DW_AT_TI_symbol_name("_Idq_brake")
    3343                      .dwattr $C$DW$446, DW_AT_data_member_location[DW_OP_plus_uconst 0x2]
    3344                      .dwattr $C$DW$446, DW_AT_accessibility(DW_ACCESS_public)
    3345              $C$DW$447       .dwtag  DW_TAG_member
    3346                      .dwattr $C$DW$447, DW_AT_type(*$C$DW$T$34)
    3347                      .dwattr $C$DW$447, DW_AT_name("brake_enable")
    3348                      .dwattr $C$DW$447, DW_AT_TI_symbol_name("_brake_enable")
    3349                      .dwattr $C$DW$447, DW_AT_data_member_location[DW_OP_plus_uconst 0x6]
    3350                      .dwattr $C$DW$447, DW_AT_accessibility(DW_ACCESS_public)
    3351                      .dwendtag $C$DW$T$35
    3352              
    3353              $C$DW$T$74      .dwtag  DW_TAG_typedef, DW_AT_name("BRAKE_Obj")
    3354                      .dwattr $C$DW$T$74, DW_AT_type(*$C$DW$T$35)
    3355                      .dwattr $C$DW$T$74, DW_AT_language(DW_LANG_C)
    3356              $C$DW$T$72      .dwtag  DW_TAG_pointer_type
    3357                      .dwattr $C$DW$T$72, DW_AT_type(*$C$DW$T$35)
TMS320C2000 Assembler PC v6.2.5 Fri Sep 29 09:29:33 2017

Tools Copyright (c) 1996-2014 Texas Instruments Incorporated
C:\Users\wmj\AppData\Local\Temp\1142410                              PAGE   63

    3358                      .dwattr $C$DW$T$72, DW_AT_address_class(0x16)
    3359              $C$DW$T$73      .dwtag  DW_TAG_typedef, DW_AT_name("BRAKE_Handle")
    3360                      .dwattr $C$DW$T$73, DW_AT_type(*$C$DW$T$72)
    3361                      .dwattr $C$DW$T$73, DW_AT_language(DW_LANG_C)
    3362              
    3363              $C$DW$T$37      .dwtag  DW_TAG_structure_type
    3364                      .dwattr $C$DW$T$37, DW_AT_name("_CLARKE_Obj_")
    3365                      .dwattr $C$DW$T$37, DW_AT_byte_size(0x06)
    3366              $C$DW$448       .dwtag  DW_TAG_member
    3367                      .dwattr $C$DW$448, DW_AT_type(*$C$DW$T$32)
    3368                      .dwattr $C$DW$448, DW_AT_name("alpha_sf")
    3369                      .dwattr $C$DW$448, DW_AT_TI_symbol_name("_alpha_sf")
    3370                      .dwattr $C$DW$448, DW_AT_data_member_location[DW_OP_plus_uconst 0x0]
    3371                      .dwattr $C$DW$448, DW_AT_accessibility(DW_ACCESS_public)
    3372              $C$DW$449       .dwtag  DW_TAG_member
    3373                      .dwattr $C$DW$449, DW_AT_type(*$C$DW$T$32)
    3374                      .dwattr $C$DW$449, DW_AT_name("beta_sf")
    3375                      .dwattr $C$DW$449, DW_AT_TI_symbol_name("_beta_sf")
    3376                      .dwattr $C$DW$449, DW_AT_data_member_location[DW_OP_plus_uconst 0x2]
    3377                      .dwattr $C$DW$449, DW_AT_accessibility(DW_ACCESS_public)
    3378              $C$DW$450       .dwtag  DW_TAG_member
    3379                      .dwattr $C$DW$450, DW_AT_type(*$C$DW$T$36)
    3380                      .dwattr $C$DW$450, DW_AT_name("numSensors")
    3381                      .dwattr $C$DW$450, DW_AT_TI_symbol_name("_numSensors")
    3382                      .dwattr $C$DW$450, DW_AT_data_member_location[DW_OP_plus_uconst 0x4]
    3383                      .dwattr $C$DW$450, DW_AT_accessibility(DW_ACCESS_public)
    3384                      .dwendtag $C$DW$T$37
    3385              
    3386              $C$DW$T$48      .dwtag  DW_TAG_typedef, DW_AT_name("CLARKE_Obj")
    3387                      .dwattr $C$DW$T$48, DW_AT_type(*$C$DW$T$37)
    3388                      .dwattr $C$DW$T$48, DW_AT_language(DW_LANG_C)
    3389              $C$DW$T$46      .dwtag  DW_TAG_pointer_type
    3390                      .dwattr $C$DW$T$46, DW_AT_type(*$C$DW$T$37)
    3391                      .dwattr $C$DW$T$46, DW_AT_address_class(0x16)
    3392              $C$DW$T$47      .dwtag  DW_TAG_typedef, DW_AT_name("CLARKE_Handle")
    3393                      .dwattr $C$DW$T$47, DW_AT_type(*$C$DW$T$46)
    3394                      .dwattr $C$DW$T$47, DW_AT_language(DW_LANG_C)
    3395              
    3396              $C$DW$T$39      .dwtag  DW_TAG_structure_type
    3397                      .dwattr $C$DW$T$39, DW_AT_name("_CLK_Obj_")
    3398                      .dwattr $C$DW$T$39, DW_AT_byte_size(0x11)
    3399              $C$DW$451       .dwtag  DW_TAG_member
    3400                      .dwattr $C$DW$451, DW_AT_type(*$C$DW$T$24)
    3401                      .dwattr $C$DW$451, DW_AT_name("XCLK")
    3402                      .dwattr $C$DW$451, DW_AT_TI_symbol_name("_XCLK")
    3403                      .dwattr $C$DW$451, DW_AT_data_member_location[DW_OP_plus_uconst 0x0]
    3404                      .dwattr $C$DW$451, DW_AT_accessibility(DW_ACCESS_public)
    3405              $C$DW$452       .dwtag  DW_TAG_member
    3406                      .dwattr $C$DW$452, DW_AT_type(*$C$DW$T$24)
    3407                      .dwattr $C$DW$452, DW_AT_name("rsvd_1")
    3408                      .dwattr $C$DW$452, DW_AT_TI_symbol_name("_rsvd_1")
    3409                      .dwattr $C$DW$452, DW_AT_data_member_location[DW_OP_plus_uconst 0x1]
    3410                      .dwattr $C$DW$452, DW_AT_accessibility(DW_ACCESS_public)
    3411              $C$DW$453       .dwtag  DW_TAG_member
    3412                      .dwattr $C$DW$453, DW_AT_type(*$C$DW$T$24)
TMS320C2000 Assembler PC v6.2.5 Fri Sep 29 09:29:33 2017

Tools Copyright (c) 1996-2014 Texas Instruments Incorporated
C:\Users\wmj\AppData\Local\Temp\1142410                              PAGE   64

    3413                      .dwattr $C$DW$453, DW_AT_name("CLKCTL")
    3414                      .dwattr $C$DW$453, DW_AT_TI_symbol_name("_CLKCTL")
    3415                      .dwattr $C$DW$453, DW_AT_data_member_location[DW_OP_plus_uconst 0x2]
    3416                      .dwattr $C$DW$453, DW_AT_accessibility(DW_ACCESS_public)
    3417              $C$DW$454       .dwtag  DW_TAG_member
    3418                      .dwattr $C$DW$454, DW_AT_type(*$C$DW$T$38)
    3419                      .dwattr $C$DW$454, DW_AT_name("rsvd_2")
    3420                      .dwattr $C$DW$454, DW_AT_TI_symbol_name("_rsvd_2")
    3421                      .dwattr $C$DW$454, DW_AT_data_member_location[DW_OP_plus_uconst 0x3]
    3422                      .dwattr $C$DW$454, DW_AT_accessibility(DW_ACCESS_public)
    3423              $C$DW$455       .dwtag  DW_TAG_member
    3424                      .dwattr $C$DW$455, DW_AT_type(*$C$DW$T$24)
    3425                      .dwattr $C$DW$455, DW_AT_name("LOSPCP")
    3426                      .dwattr $C$DW$455, DW_AT_TI_symbol_name("_LOSPCP")
    3427                      .dwattr $C$DW$455, DW_AT_data_member_location[DW_OP_plus_uconst 0xb]
    3428                      .dwattr $C$DW$455, DW_AT_accessibility(DW_ACCESS_public)
    3429              $C$DW$456       .dwtag  DW_TAG_member
    3430                      .dwattr $C$DW$456, DW_AT_type(*$C$DW$T$24)
    3431                      .dwattr $C$DW$456, DW_AT_name("PCLKCR0")
    3432                      .dwattr $C$DW$456, DW_AT_TI_symbol_name("_PCLKCR0")
    3433                      .dwattr $C$DW$456, DW_AT_data_member_location[DW_OP_plus_uconst 0xc]
    3434                      .dwattr $C$DW$456, DW_AT_accessibility(DW_ACCESS_public)
    3435              $C$DW$457       .dwtag  DW_TAG_member
    3436                      .dwattr $C$DW$457, DW_AT_type(*$C$DW$T$24)
    3437                      .dwattr $C$DW$457, DW_AT_name("PCLKCR1")
    3438                      .dwattr $C$DW$457, DW_AT_TI_symbol_name("_PCLKCR1")
    3439                      .dwattr $C$DW$457, DW_AT_data_member_location[DW_OP_plus_uconst 0xd]
    3440                      .dwattr $C$DW$457, DW_AT_accessibility(DW_ACCESS_public)
    3441              $C$DW$458       .dwtag  DW_TAG_member
    3442                      .dwattr $C$DW$458, DW_AT_type(*$C$DW$T$27)
    3443                      .dwattr $C$DW$458, DW_AT_name("rsvd_3")
    3444                      .dwattr $C$DW$458, DW_AT_TI_symbol_name("_rsvd_3")
    3445                      .dwattr $C$DW$458, DW_AT_data_member_location[DW_OP_plus_uconst 0xe]
    3446                      .dwattr $C$DW$458, DW_AT_accessibility(DW_ACCESS_public)
    3447              $C$DW$459       .dwtag  DW_TAG_member
    3448                      .dwattr $C$DW$459, DW_AT_type(*$C$DW$T$24)
    3449                      .dwattr $C$DW$459, DW_AT_name("PCLKCR3")
    3450                      .dwattr $C$DW$459, DW_AT_TI_symbol_name("_PCLKCR3")
    3451                      .dwattr $C$DW$459, DW_AT_data_member_location[DW_OP_plus_uconst 0x10]
    3452                      .dwattr $C$DW$459, DW_AT_accessibility(DW_ACCESS_public)
    3453                      .dwendtag $C$DW$T$39
    3454              
    3455              $C$DW$T$104     .dwtag  DW_TAG_pointer_type
    3456                      .dwattr $C$DW$T$104, DW_AT_type(*$C$DW$T$39)
    3457                      .dwattr $C$DW$T$104, DW_AT_address_class(0x16)
    3458              $C$DW$T$105     .dwtag  DW_TAG_typedef, DW_AT_name("CLK_Handle")
    3459                      .dwattr $C$DW$T$105, DW_AT_type(*$C$DW$T$104)
    3460                      .dwattr $C$DW$T$105, DW_AT_language(DW_LANG_C)
    3461              
    3462              $C$DW$T$40      .dwtag  DW_TAG_structure_type
    3463                      .dwattr $C$DW$T$40, DW_AT_name("_CPU_Obj_")
    3464                      .dwattr $C$DW$T$40, DW_AT_byte_size(0x01)
    3465              $C$DW$460       .dwtag  DW_TAG_member
    3466                      .dwattr $C$DW$460, DW_AT_type(*$C$DW$T$36)
    3467                      .dwattr $C$DW$460, DW_AT_name("tmp")
TMS320C2000 Assembler PC v6.2.5 Fri Sep 29 09:29:33 2017

Tools Copyright (c) 1996-2014 Texas Instruments Incorporated
C:\Users\wmj\AppData\Local\Temp\1142410                              PAGE   65

    3468                      .dwattr $C$DW$460, DW_AT_TI_symbol_name("_tmp")
    3469                      .dwattr $C$DW$460, DW_AT_data_member_location[DW_OP_plus_uconst 0x0]
    3470                      .dwattr $C$DW$460, DW_AT_accessibility(DW_ACCESS_public)
    3471                      .dwendtag $C$DW$T$40
    3472              
    3473              $C$DW$T$106     .dwtag  DW_TAG_pointer_type
    3474                      .dwattr $C$DW$T$106, DW_AT_type(*$C$DW$T$40)
    3475                      .dwattr $C$DW$T$106, DW_AT_address_class(0x16)
    3476              $C$DW$T$107     .dwtag  DW_TAG_typedef, DW_AT_name("CPU_Handle")
    3477                      .dwattr $C$DW$T$107, DW_AT_type(*$C$DW$T$106)
    3478                      .dwattr $C$DW$T$107, DW_AT_language(DW_LANG_C)
    3479              
    3480              $C$DW$T$75      .dwtag  DW_TAG_structure_type
    3481                      .dwattr $C$DW$T$75, DW_AT_name("_CTRL_Obj_")
    3482                      .dwattr $C$DW$T$75, DW_AT_byte_size(0x112)
    3483              $C$DW$461       .dwtag  DW_TAG_member
    3484                      .dwattr $C$DW$461, DW_AT_type(*$C$DW$T$41)
    3485                      .dwattr $C$DW$461, DW_AT_name("version")
    3486                      .dwattr $C$DW$461, DW_AT_TI_symbol_name("_version")
    3487                      .dwattr $C$DW$461, DW_AT_data_member_location[DW_OP_plus_uconst 0x0]
    3488                      .dwattr $C$DW$461, DW_AT_accessibility(DW_ACCESS_public)
    3489              $C$DW$462       .dwtag  DW_TAG_member
    3490                      .dwattr $C$DW$462, DW_AT_type(*$C$DW$T$43)
    3491                      .dwattr $C$DW$462, DW_AT_name("state")
    3492                      .dwattr $C$DW$462, DW_AT_TI_symbol_name("_state")
    3493                      .dwattr $C$DW$462, DW_AT_data_member_location[DW_OP_plus_uconst 0x4]
    3494                      .dwattr $C$DW$462, DW_AT_accessibility(DW_ACCESS_public)
    3495              $C$DW$463       .dwtag  DW_TAG_member
    3496                      .dwattr $C$DW$463, DW_AT_type(*$C$DW$T$43)
    3497                      .dwattr $C$DW$463, DW_AT_name("prevState")
    3498                      .dwattr $C$DW$463, DW_AT_TI_symbol_name("_prevState")
    3499                      .dwattr $C$DW$463, DW_AT_data_member_location[DW_OP_plus_uconst 0x5]
    3500                      .dwattr $C$DW$463, DW_AT_accessibility(DW_ACCESS_public)
    3501              $C$DW$464       .dwtag  DW_TAG_member
    3502                      .dwattr $C$DW$464, DW_AT_type(*$C$DW$T$45)
    3503                      .dwattr $C$DW$464, DW_AT_name("errorCode")
    3504                      .dwattr $C$DW$464, DW_AT_TI_symbol_name("_errorCode")
    3505                      .dwattr $C$DW$464, DW_AT_data_member_location[DW_OP_plus_uconst 0x6]
    3506                      .dwattr $C$DW$464, DW_AT_accessibility(DW_ACCESS_public)
    3507              $C$DW$465       .dwtag  DW_TAG_member
    3508                      .dwattr $C$DW$465, DW_AT_type(*$C$DW$T$47)
    3509                      .dwattr $C$DW$465, DW_AT_name("clarkeHandle_I")
    3510                      .dwattr $C$DW$465, DW_AT_TI_symbol_name("_clarkeHandle_I")
    3511                      .dwattr $C$DW$465, DW_AT_data_member_location[DW_OP_plus_uconst 0x8]
    3512                      .dwattr $C$DW$465, DW_AT_accessibility(DW_ACCESS_public)
    3513              $C$DW$466       .dwtag  DW_TAG_member
    3514                      .dwattr $C$DW$466, DW_AT_type(*$C$DW$T$48)
    3515                      .dwattr $C$DW$466, DW_AT_name("clarke_I")
    3516                      .dwattr $C$DW$466, DW_AT_TI_symbol_name("_clarke_I")
    3517                      .dwattr $C$DW$466, DW_AT_data_member_location[DW_OP_plus_uconst 0xa]
    3518                      .dwattr $C$DW$466, DW_AT_accessibility(DW_ACCESS_public)
    3519              $C$DW$467       .dwtag  DW_TAG_member
    3520                      .dwattr $C$DW$467, DW_AT_type(*$C$DW$T$47)
    3521                      .dwattr $C$DW$467, DW_AT_name("clarkeHandle_V")
    3522                      .dwattr $C$DW$467, DW_AT_TI_symbol_name("_clarkeHandle_V")
TMS320C2000 Assembler PC v6.2.5 Fri Sep 29 09:29:33 2017

Tools Copyright (c) 1996-2014 Texas Instruments Incorporated
C:\Users\wmj\AppData\Local\Temp\1142410                              PAGE   66

    3523                      .dwattr $C$DW$467, DW_AT_data_member_location[DW_OP_plus_uconst 0x10]
    3524                      .dwattr $C$DW$467, DW_AT_accessibility(DW_ACCESS_public)
    3525              $C$DW$468       .dwtag  DW_TAG_member
    3526                      .dwattr $C$DW$468, DW_AT_type(*$C$DW$T$48)
    3527                      .dwattr $C$DW$468, DW_AT_name("clarke_V")
    3528                      .dwattr $C$DW$468, DW_AT_TI_symbol_name("_clarke_V")
    3529                      .dwattr $C$DW$468, DW_AT_data_member_location[DW_OP_plus_uconst 0x12]
    3530                      .dwattr $C$DW$468, DW_AT_accessibility(DW_ACCESS_public)
    3531              $C$DW$469       .dwtag  DW_TAG_member
    3532                      .dwattr $C$DW$469, DW_AT_type(*$C$DW$T$50)
    3533                      .dwattr $C$DW$469, DW_AT_name("estHandle")
    3534                      .dwattr $C$DW$469, DW_AT_TI_symbol_name("_estHandle")
    3535                      .dwattr $C$DW$469, DW_AT_data_member_location[DW_OP_plus_uconst 0x18]
    3536                      .dwattr $C$DW$469, DW_AT_accessibility(DW_ACCESS_public)
    3537              $C$DW$470       .dwtag  DW_TAG_member
    3538                      .dwattr $C$DW$470, DW_AT_type(*$C$DW$T$52)
    3539                      .dwattr $C$DW$470, DW_AT_name("parkHandle")
    3540                      .dwattr $C$DW$470, DW_AT_TI_symbol_name("_parkHandle")
    3541                      .dwattr $C$DW$470, DW_AT_data_member_location[DW_OP_plus_uconst 0x1a]
    3542                      .dwattr $C$DW$470, DW_AT_accessibility(DW_ACCESS_public)
    3543              $C$DW$471       .dwtag  DW_TAG_member
    3544                      .dwattr $C$DW$471, DW_AT_type(*$C$DW$T$53)
    3545                      .dwattr $C$DW$471, DW_AT_name("park")
    3546                      .dwattr $C$DW$471, DW_AT_TI_symbol_name("_park")
    3547                      .dwattr $C$DW$471, DW_AT_data_member_location[DW_OP_plus_uconst 0x1c]
    3548                      .dwattr $C$DW$471, DW_AT_accessibility(DW_ACCESS_public)
    3549              $C$DW$472       .dwtag  DW_TAG_member
    3550                      .dwattr $C$DW$472, DW_AT_type(*$C$DW$T$55)
    3551                      .dwattr $C$DW$472, DW_AT_name("pidHandle_Id")
    3552                      .dwattr $C$DW$472, DW_AT_TI_symbol_name("_pidHandle_Id")
    3553                      .dwattr $C$DW$472, DW_AT_data_member_location[DW_OP_plus_uconst 0x20]
    3554                      .dwattr $C$DW$472, DW_AT_accessibility(DW_ACCESS_public)
    3555              $C$DW$473       .dwtag  DW_TAG_member
    3556                      .dwattr $C$DW$473, DW_AT_type(*$C$DW$T$56)
    3557                      .dwattr $C$DW$473, DW_AT_name("pid_Id")
    3558                      .dwattr $C$DW$473, DW_AT_TI_symbol_name("_pid_Id")
    3559                      .dwattr $C$DW$473, DW_AT_data_member_location[DW_OP_plus_uconst 0x22]
    3560                      .dwattr $C$DW$473, DW_AT_accessibility(DW_ACCESS_public)
    3561              $C$DW$474       .dwtag  DW_TAG_member
    3562                      .dwattr $C$DW$474, DW_AT_type(*$C$DW$T$55)
    3563                      .dwattr $C$DW$474, DW_AT_name("pidHandle_Iq")
    3564                      .dwattr $C$DW$474, DW_AT_TI_symbol_name("_pidHandle_Iq")
    3565                      .dwattr $C$DW$474, DW_AT_data_member_location[DW_OP_plus_uconst 0x32]
    3566                      .dwattr $C$DW$474, DW_AT_accessibility(DW_ACCESS_public)
    3567              $C$DW$475       .dwtag  DW_TAG_member
    3568                      .dwattr $C$DW$475, DW_AT_type(*$C$DW$T$56)
    3569                      .dwattr $C$DW$475, DW_AT_name("pid_Iq")
    3570                      .dwattr $C$DW$475, DW_AT_TI_symbol_name("_pid_Iq")
    3571                      .dwattr $C$DW$475, DW_AT_data_member_location[DW_OP_plus_uconst 0x34]
    3572                      .dwattr $C$DW$475, DW_AT_accessibility(DW_ACCESS_public)
    3573              $C$DW$476       .dwtag  DW_TAG_member
    3574                      .dwattr $C$DW$476, DW_AT_type(*$C$DW$T$55)
    3575                      .dwattr $C$DW$476, DW_AT_name("pidHandle_spd")
    3576                      .dwattr $C$DW$476, DW_AT_TI_symbol_name("_pidHandle_spd")
    3577                      .dwattr $C$DW$476, DW_AT_data_member_location[DW_OP_plus_uconst 0x44]
TMS320C2000 Assembler PC v6.2.5 Fri Sep 29 09:29:33 2017

Tools Copyright (c) 1996-2014 Texas Instruments Incorporated
C:\Users\wmj\AppData\Local\Temp\1142410                              PAGE   67

    3578                      .dwattr $C$DW$476, DW_AT_accessibility(DW_ACCESS_public)
    3579              $C$DW$477       .dwtag  DW_TAG_member
    3580                      .dwattr $C$DW$477, DW_AT_type(*$C$DW$T$56)
    3581                      .dwattr $C$DW$477, DW_AT_name("pid_spd")
    3582                      .dwattr $C$DW$477, DW_AT_TI_symbol_name("_pid_spd")
    3583                      .dwattr $C$DW$477, DW_AT_data_member_location[DW_OP_plus_uconst 0x46]
    3584                      .dwattr $C$DW$477, DW_AT_accessibility(DW_ACCESS_public)
    3585              $C$DW$478       .dwtag  DW_TAG_member
    3586                      .dwattr $C$DW$478, DW_AT_type(*$C$DW$T$58)
    3587                      .dwattr $C$DW$478, DW_AT_name("iparkHandle")
    3588                      .dwattr $C$DW$478, DW_AT_TI_symbol_name("_iparkHandle")
    3589                      .dwattr $C$DW$478, DW_AT_data_member_location[DW_OP_plus_uconst 0x56]
    3590                      .dwattr $C$DW$478, DW_AT_accessibility(DW_ACCESS_public)
    3591              $C$DW$479       .dwtag  DW_TAG_member
    3592                      .dwattr $C$DW$479, DW_AT_type(*$C$DW$T$59)
    3593                      .dwattr $C$DW$479, DW_AT_name("ipark")
    3594                      .dwattr $C$DW$479, DW_AT_TI_symbol_name("_ipark")
    3595                      .dwattr $C$DW$479, DW_AT_data_member_location[DW_OP_plus_uconst 0x58]
    3596                      .dwattr $C$DW$479, DW_AT_accessibility(DW_ACCESS_public)
    3597              $C$DW$480       .dwtag  DW_TAG_member
    3598                      .dwattr $C$DW$480, DW_AT_type(*$C$DW$T$61)
    3599                      .dwattr $C$DW$480, DW_AT_name("svgenHandle")
    3600                      .dwattr $C$DW$480, DW_AT_TI_symbol_name("_svgenHandle")
    3601                      .dwattr $C$DW$480, DW_AT_data_member_location[DW_OP_plus_uconst 0x5c]
    3602                      .dwattr $C$DW$480, DW_AT_accessibility(DW_ACCESS_public)
    3603              $C$DW$481       .dwtag  DW_TAG_member
    3604                      .dwattr $C$DW$481, DW_AT_type(*$C$DW$T$62)
    3605                      .dwattr $C$DW$481, DW_AT_name("svgen")
    3606                      .dwattr $C$DW$481, DW_AT_TI_symbol_name("_svgen")
    3607                      .dwattr $C$DW$481, DW_AT_data_member_location[DW_OP_plus_uconst 0x5e]
    3608                      .dwattr $C$DW$481, DW_AT_accessibility(DW_ACCESS_public)
    3609              $C$DW$482       .dwtag  DW_TAG_member
    3610                      .dwattr $C$DW$482, DW_AT_type(*$C$DW$T$64)
    3611                      .dwattr $C$DW$482, DW_AT_name("trajHandle_Id")
    3612                      .dwattr $C$DW$482, DW_AT_TI_symbol_name("_trajHandle_Id")
    3613                      .dwattr $C$DW$482, DW_AT_data_member_location[DW_OP_plus_uconst 0x60]
    3614                      .dwattr $C$DW$482, DW_AT_accessibility(DW_ACCESS_public)
    3615              $C$DW$483       .dwtag  DW_TAG_member
    3616                      .dwattr $C$DW$483, DW_AT_type(*$C$DW$T$65)
    3617                      .dwattr $C$DW$483, DW_AT_name("traj_Id")
    3618                      .dwattr $C$DW$483, DW_AT_TI_symbol_name("_traj_Id")
    3619                      .dwattr $C$DW$483, DW_AT_data_member_location[DW_OP_plus_uconst 0x62]
    3620                      .dwattr $C$DW$483, DW_AT_accessibility(DW_ACCESS_public)
    3621              $C$DW$484       .dwtag  DW_TAG_member
    3622                      .dwattr $C$DW$484, DW_AT_type(*$C$DW$T$64)
    3623                      .dwattr $C$DW$484, DW_AT_name("trajHandle_spd")
    3624                      .dwattr $C$DW$484, DW_AT_TI_symbol_name("_trajHandle_spd")
    3625                      .dwattr $C$DW$484, DW_AT_data_member_location[DW_OP_plus_uconst 0x6c]
    3626                      .dwattr $C$DW$484, DW_AT_accessibility(DW_ACCESS_public)
    3627              $C$DW$485       .dwtag  DW_TAG_member
    3628                      .dwattr $C$DW$485, DW_AT_type(*$C$DW$T$65)
    3629                      .dwattr $C$DW$485, DW_AT_name("traj_spd")
    3630                      .dwattr $C$DW$485, DW_AT_TI_symbol_name("_traj_spd")
    3631                      .dwattr $C$DW$485, DW_AT_data_member_location[DW_OP_plus_uconst 0x6e]
    3632                      .dwattr $C$DW$485, DW_AT_accessibility(DW_ACCESS_public)
TMS320C2000 Assembler PC v6.2.5 Fri Sep 29 09:29:33 2017

Tools Copyright (c) 1996-2014 Texas Instruments Incorporated
C:\Users\wmj\AppData\Local\Temp\1142410                              PAGE   68

    3633              $C$DW$486       .dwtag  DW_TAG_member
    3634                      .dwattr $C$DW$486, DW_AT_type(*$C$DW$T$64)
    3635                      .dwattr $C$DW$486, DW_AT_name("trajHandle_spdMax")
    3636                      .dwattr $C$DW$486, DW_AT_TI_symbol_name("_trajHandle_spdMax")
    3637                      .dwattr $C$DW$486, DW_AT_data_member_location[DW_OP_plus_uconst 0x78]
    3638                      .dwattr $C$DW$486, DW_AT_accessibility(DW_ACCESS_public)
    3639              $C$DW$487       .dwtag  DW_TAG_member
    3640                      .dwattr $C$DW$487, DW_AT_type(*$C$DW$T$65)
    3641                      .dwattr $C$DW$487, DW_AT_name("traj_spdMax")
    3642                      .dwattr $C$DW$487, DW_AT_TI_symbol_name("_traj_spdMax")
    3643                      .dwattr $C$DW$487, DW_AT_data_member_location[DW_OP_plus_uconst 0x7a]
    3644                      .dwattr $C$DW$487, DW_AT_accessibility(DW_ACCESS_public)
    3645              $C$DW$488       .dwtag  DW_TAG_member
    3646                      .dwattr $C$DW$488, DW_AT_type(*$C$DW$T$66)
    3647                      .dwattr $C$DW$488, DW_AT_name("motorParams")
    3648                      .dwattr $C$DW$488, DW_AT_TI_symbol_name("_motorParams")
    3649                      .dwattr $C$DW$488, DW_AT_data_member_location[DW_OP_plus_uconst 0x84]
    3650                      .dwattr $C$DW$488, DW_AT_accessibility(DW_ACCESS_public)
    3651              $C$DW$489       .dwtag  DW_TAG_member
    3652                      .dwattr $C$DW$489, DW_AT_type(*$C$DW$T$69)
    3653                      .dwattr $C$DW$489, DW_AT_name("waitTimes")
    3654                      .dwattr $C$DW$489, DW_AT_TI_symbol_name("_waitTimes")
    3655                      .dwattr $C$DW$489, DW_AT_data_member_location[DW_OP_plus_uconst 0x92]
    3656                      .dwattr $C$DW$489, DW_AT_accessibility(DW_ACCESS_public)
    3657              $C$DW$490       .dwtag  DW_TAG_member
    3658                      .dwattr $C$DW$490, DW_AT_type(*$C$DW$T$68)
    3659                      .dwattr $C$DW$490, DW_AT_name("counter_state")
    3660                      .dwattr $C$DW$490, DW_AT_TI_symbol_name("_counter_state")
    3661                      .dwattr $C$DW$490, DW_AT_data_member_location[DW_OP_plus_uconst 0x9a]
    3662                      .dwattr $C$DW$490, DW_AT_accessibility(DW_ACCESS_public)
    3663              $C$DW$491       .dwtag  DW_TAG_member
    3664                      .dwattr $C$DW$491, DW_AT_type(*$C$DW$T$70)
    3665                      .dwattr $C$DW$491, DW_AT_name("numIsrTicksPerCtrlTick")
    3666                      .dwattr $C$DW$491, DW_AT_TI_symbol_name("_numIsrTicksPerCtrlTick")
    3667                      .dwattr $C$DW$491, DW_AT_data_member_location[DW_OP_plus_uconst 0x9c]
    3668                      .dwattr $C$DW$491, DW_AT_accessibility(DW_ACCESS_public)
    3669              $C$DW$492       .dwtag  DW_TAG_member
    3670                      .dwattr $C$DW$492, DW_AT_type(*$C$DW$T$70)
    3671                      .dwattr $C$DW$492, DW_AT_name("numCtrlTicksPerCurrentTick")
    3672                      .dwattr $C$DW$492, DW_AT_TI_symbol_name("_numCtrlTicksPerCurrentTick")
    3673                      .dwattr $C$DW$492, DW_AT_data_member_location[DW_OP_plus_uconst 0x9d]
    3674                      .dwattr $C$DW$492, DW_AT_accessibility(DW_ACCESS_public)
    3675              $C$DW$493       .dwtag  DW_TAG_member
    3676                      .dwattr $C$DW$493, DW_AT_type(*$C$DW$T$70)
    3677                      .dwattr $C$DW$493, DW_AT_name("numCtrlTicksPerSpeedTick")
    3678                      .dwattr $C$DW$493, DW_AT_TI_symbol_name("_numCtrlTicksPerSpeedTick")
    3679                      .dwattr $C$DW$493, DW_AT_data_member_location[DW_OP_plus_uconst 0x9e]
    3680                      .dwattr $C$DW$493, DW_AT_accessibility(DW_ACCESS_public)
    3681              $C$DW$494       .dwtag  DW_TAG_member
    3682                      .dwattr $C$DW$494, DW_AT_type(*$C$DW$T$70)
    3683                      .dwattr $C$DW$494, DW_AT_name("numCtrlTicksPerTrajTick")
    3684                      .dwattr $C$DW$494, DW_AT_TI_symbol_name("_numCtrlTicksPerTrajTick")
    3685                      .dwattr $C$DW$494, DW_AT_data_member_location[DW_OP_plus_uconst 0x9f]
    3686                      .dwattr $C$DW$494, DW_AT_accessibility(DW_ACCESS_public)
    3687              $C$DW$495       .dwtag  DW_TAG_member
TMS320C2000 Assembler PC v6.2.5 Fri Sep 29 09:29:33 2017

Tools Copyright (c) 1996-2014 Texas Instruments Incorporated
C:\Users\wmj\AppData\Local\Temp\1142410                              PAGE   69

    3688                      .dwattr $C$DW$495, DW_AT_type(*$C$DW$T$68)
    3689                      .dwattr $C$DW$495, DW_AT_name("ctrlFreq_Hz")
    3690                      .dwattr $C$DW$495, DW_AT_TI_symbol_name("_ctrlFreq_Hz")
    3691                      .dwattr $C$DW$495, DW_AT_data_member_location[DW_OP_plus_uconst 0xa0]
    3692                      .dwattr $C$DW$495, DW_AT_accessibility(DW_ACCESS_public)
    3693              $C$DW$496       .dwtag  DW_TAG_member
    3694                      .dwattr $C$DW$496, DW_AT_type(*$C$DW$T$68)
    3695                      .dwattr $C$DW$496, DW_AT_name("trajFreq_Hz")
    3696                      .dwattr $C$DW$496, DW_AT_TI_symbol_name("_trajFreq_Hz")
    3697                      .dwattr $C$DW$496, DW_AT_data_member_location[DW_OP_plus_uconst 0xa2]
    3698                      .dwattr $C$DW$496, DW_AT_accessibility(DW_ACCESS_public)
    3699              $C$DW$497       .dwtag  DW_TAG_member
    3700                      .dwattr $C$DW$497, DW_AT_type(*$C$DW$T$32)
    3701                      .dwattr $C$DW$497, DW_AT_name("trajPeriod_sec")
    3702                      .dwattr $C$DW$497, DW_AT_TI_symbol_name("_trajPeriod_sec")
    3703                      .dwattr $C$DW$497, DW_AT_data_member_location[DW_OP_plus_uconst 0xa4]
    3704                      .dwattr $C$DW$497, DW_AT_accessibility(DW_ACCESS_public)
    3705              $C$DW$498       .dwtag  DW_TAG_member
    3706                      .dwattr $C$DW$498, DW_AT_type(*$C$DW$T$71)
    3707                      .dwattr $C$DW$498, DW_AT_name("ctrlPeriod_sec")
    3708                      .dwattr $C$DW$498, DW_AT_TI_symbol_name("_ctrlPeriod_sec")
    3709                      .dwattr $C$DW$498, DW_AT_data_member_location[DW_OP_plus_uconst 0xa6]
    3710                      .dwattr $C$DW$498, DW_AT_accessibility(DW_ACCESS_public)
    3711              $C$DW$499       .dwtag  DW_TAG_member
    3712                      .dwattr $C$DW$499, DW_AT_type(*$C$DW$T$32)
    3713                      .dwattr $C$DW$499, DW_AT_name("maxVsMag_pu")
    3714                      .dwattr $C$DW$499, DW_AT_TI_symbol_name("_maxVsMag_pu")
    3715                      .dwattr $C$DW$499, DW_AT_data_member_location[DW_OP_plus_uconst 0xa8]
    3716                      .dwattr $C$DW$499, DW_AT_accessibility(DW_ACCESS_public)
    3717              $C$DW$500       .dwtag  DW_TAG_member
    3718                      .dwattr $C$DW$500, DW_AT_type(*$C$DW$T$33)
    3719                      .dwattr $C$DW$500, DW_AT_name("Iab_in")
    3720                      .dwattr $C$DW$500, DW_AT_TI_symbol_name("_Iab_in")
    3721                      .dwattr $C$DW$500, DW_AT_data_member_location[DW_OP_plus_uconst 0xaa]
    3722                      .dwattr $C$DW$500, DW_AT_accessibility(DW_ACCESS_public)
    3723              $C$DW$501       .dwtag  DW_TAG_member
    3724                      .dwattr $C$DW$501, DW_AT_type(*$C$DW$T$33)
    3725                      .dwattr $C$DW$501, DW_AT_name("Iab_filt")
    3726                      .dwattr $C$DW$501, DW_AT_TI_symbol_name("_Iab_filt")
    3727                      .dwattr $C$DW$501, DW_AT_data_member_location[DW_OP_plus_uconst 0xae]
    3728                      .dwattr $C$DW$501, DW_AT_accessibility(DW_ACCESS_public)
    3729              $C$DW$502       .dwtag  DW_TAG_member
    3730                      .dwattr $C$DW$502, DW_AT_type(*$C$DW$T$33)
    3731                      .dwattr $C$DW$502, DW_AT_name("Idq_in")
    3732                      .dwattr $C$DW$502, DW_AT_TI_symbol_name("_Idq_in")
    3733                      .dwattr $C$DW$502, DW_AT_data_member_location[DW_OP_plus_uconst 0xb2]
    3734                      .dwattr $C$DW$502, DW_AT_accessibility(DW_ACCESS_public)
    3735              $C$DW$503       .dwtag  DW_TAG_member
    3736                      .dwattr $C$DW$503, DW_AT_type(*$C$DW$T$33)
    3737                      .dwattr $C$DW$503, DW_AT_name("Vab_in")
    3738                      .dwattr $C$DW$503, DW_AT_TI_symbol_name("_Vab_in")
    3739                      .dwattr $C$DW$503, DW_AT_data_member_location[DW_OP_plus_uconst 0xb6]
    3740                      .dwattr $C$DW$503, DW_AT_accessibility(DW_ACCESS_public)
    3741              $C$DW$504       .dwtag  DW_TAG_member
    3742                      .dwattr $C$DW$504, DW_AT_type(*$C$DW$T$32)
TMS320C2000 Assembler PC v6.2.5 Fri Sep 29 09:29:33 2017

Tools Copyright (c) 1996-2014 Texas Instruments Incorporated
C:\Users\wmj\AppData\Local\Temp\1142410                              PAGE   70

    3743                      .dwattr $C$DW$504, DW_AT_name("spd_out")
    3744                      .dwattr $C$DW$504, DW_AT_TI_symbol_name("_spd_out")
    3745                      .dwattr $C$DW$504, DW_AT_data_member_location[DW_OP_plus_uconst 0xba]
    3746                      .dwattr $C$DW$504, DW_AT_accessibility(DW_ACCESS_public)
    3747              $C$DW$505       .dwtag  DW_TAG_member
    3748                      .dwattr $C$DW$505, DW_AT_type(*$C$DW$T$33)
    3749                      .dwattr $C$DW$505, DW_AT_name("Vab_out")
    3750                      .dwattr $C$DW$505, DW_AT_TI_symbol_name("_Vab_out")
    3751                      .dwattr $C$DW$505, DW_AT_data_member_location[DW_OP_plus_uconst 0xbc]
    3752                      .dwattr $C$DW$505, DW_AT_accessibility(DW_ACCESS_public)
    3753              $C$DW$506       .dwtag  DW_TAG_member
    3754                      .dwattr $C$DW$506, DW_AT_type(*$C$DW$T$33)
    3755                      .dwattr $C$DW$506, DW_AT_name("Vdq_out")
    3756                      .dwattr $C$DW$506, DW_AT_TI_symbol_name("_Vdq_out")
    3757                      .dwattr $C$DW$506, DW_AT_data_member_location[DW_OP_plus_uconst 0xc0]
    3758                      .dwattr $C$DW$506, DW_AT_accessibility(DW_ACCESS_public)
    3759              $C$DW$507       .dwtag  DW_TAG_member
    3760                      .dwattr $C$DW$507, DW_AT_type(*$C$DW$T$71)
    3761                      .dwattr $C$DW$507, DW_AT_name("Rhf")
    3762                      .dwattr $C$DW$507, DW_AT_TI_symbol_name("_Rhf")
    3763                      .dwattr $C$DW$507, DW_AT_data_member_location[DW_OP_plus_uconst 0xc4]
    3764                      .dwattr $C$DW$507, DW_AT_accessibility(DW_ACCESS_public)
    3765              $C$DW$508       .dwtag  DW_TAG_member
    3766                      .dwattr $C$DW$508, DW_AT_type(*$C$DW$T$71)
    3767                      .dwattr $C$DW$508, DW_AT_name("Lhf")
    3768                      .dwattr $C$DW$508, DW_AT_TI_symbol_name("_Lhf")
    3769                      .dwattr $C$DW$508, DW_AT_data_member_location[DW_OP_plus_uconst 0xc6]
    3770                      .dwattr $C$DW$508, DW_AT_accessibility(DW_ACCESS_public)
    3771              $C$DW$509       .dwtag  DW_TAG_member
    3772                      .dwattr $C$DW$509, DW_AT_type(*$C$DW$T$71)
    3773                      .dwattr $C$DW$509, DW_AT_name("RoverL")
    3774                      .dwattr $C$DW$509, DW_AT_TI_symbol_name("_RoverL")
    3775                      .dwattr $C$DW$509, DW_AT_data_member_location[DW_OP_plus_uconst 0xc8]
    3776                      .dwattr $C$DW$509, DW_AT_accessibility(DW_ACCESS_public)
    3777              $C$DW$510       .dwtag  DW_TAG_member
    3778                      .dwattr $C$DW$510, DW_AT_type(*$C$DW$T$32)
    3779                      .dwattr $C$DW$510, DW_AT_name("Kp_Id")
    3780                      .dwattr $C$DW$510, DW_AT_TI_symbol_name("_Kp_Id")
    3781                      .dwattr $C$DW$510, DW_AT_data_member_location[DW_OP_plus_uconst 0xca]
    3782                      .dwattr $C$DW$510, DW_AT_accessibility(DW_ACCESS_public)
    3783              $C$DW$511       .dwtag  DW_TAG_member
    3784                      .dwattr $C$DW$511, DW_AT_type(*$C$DW$T$32)
    3785                      .dwattr $C$DW$511, DW_AT_name("Kp_Iq")
    3786                      .dwattr $C$DW$511, DW_AT_TI_symbol_name("_Kp_Iq")
    3787                      .dwattr $C$DW$511, DW_AT_data_member_location[DW_OP_plus_uconst 0xcc]
    3788                      .dwattr $C$DW$511, DW_AT_accessibility(DW_ACCESS_public)
    3789              $C$DW$512       .dwtag  DW_TAG_member
    3790                      .dwattr $C$DW$512, DW_AT_type(*$C$DW$T$32)
    3791                      .dwattr $C$DW$512, DW_AT_name("Kp_spd")
    3792                      .dwattr $C$DW$512, DW_AT_TI_symbol_name("_Kp_spd")
    3793                      .dwattr $C$DW$512, DW_AT_data_member_location[DW_OP_plus_uconst 0xce]
    3794                      .dwattr $C$DW$512, DW_AT_accessibility(DW_ACCESS_public)
    3795              $C$DW$513       .dwtag  DW_TAG_member
    3796                      .dwattr $C$DW$513, DW_AT_type(*$C$DW$T$32)
    3797                      .dwattr $C$DW$513, DW_AT_name("Ki_Id")
TMS320C2000 Assembler PC v6.2.5 Fri Sep 29 09:29:33 2017

Tools Copyright (c) 1996-2014 Texas Instruments Incorporated
C:\Users\wmj\AppData\Local\Temp\1142410                              PAGE   71

    3798                      .dwattr $C$DW$513, DW_AT_TI_symbol_name("_Ki_Id")
    3799                      .dwattr $C$DW$513, DW_AT_data_member_location[DW_OP_plus_uconst 0xd0]
    3800                      .dwattr $C$DW$513, DW_AT_accessibility(DW_ACCESS_public)
    3801              $C$DW$514       .dwtag  DW_TAG_member
    3802                      .dwattr $C$DW$514, DW_AT_type(*$C$DW$T$32)
    3803                      .dwattr $C$DW$514, DW_AT_name("Ki_Iq")
    3804                      .dwattr $C$DW$514, DW_AT_TI_symbol_name("_Ki_Iq")
    3805                      .dwattr $C$DW$514, DW_AT_data_member_location[DW_OP_plus_uconst 0xd2]
    3806                      .dwattr $C$DW$514, DW_AT_accessibility(DW_ACCESS_public)
    3807              $C$DW$515       .dwtag  DW_TAG_member
    3808                      .dwattr $C$DW$515, DW_AT_type(*$C$DW$T$32)
    3809                      .dwattr $C$DW$515, DW_AT_name("Ki_spd")
    3810                      .dwattr $C$DW$515, DW_AT_TI_symbol_name("_Ki_spd")
    3811                      .dwattr $C$DW$515, DW_AT_data_member_location[DW_OP_plus_uconst 0xd4]
    3812                      .dwattr $C$DW$515, DW_AT_accessibility(DW_ACCESS_public)
    3813              $C$DW$516       .dwtag  DW_TAG_member
    3814                      .dwattr $C$DW$516, DW_AT_type(*$C$DW$T$32)
    3815                      .dwattr $C$DW$516, DW_AT_name("Kd_Id")
    3816                      .dwattr $C$DW$516, DW_AT_TI_symbol_name("_Kd_Id")
    3817                      .dwattr $C$DW$516, DW_AT_data_member_location[DW_OP_plus_uconst 0xd6]
    3818                      .dwattr $C$DW$516, DW_AT_accessibility(DW_ACCESS_public)
    3819              $C$DW$517       .dwtag  DW_TAG_member
    3820                      .dwattr $C$DW$517, DW_AT_type(*$C$DW$T$32)
    3821                      .dwattr $C$DW$517, DW_AT_name("Kd_Iq")
    3822                      .dwattr $C$DW$517, DW_AT_TI_symbol_name("_Kd_Iq")
    3823                      .dwattr $C$DW$517, DW_AT_data_member_location[DW_OP_plus_uconst 0xd8]
    3824                      .dwattr $C$DW$517, DW_AT_accessibility(DW_ACCESS_public)
    3825              $C$DW$518       .dwtag  DW_TAG_member
    3826                      .dwattr $C$DW$518, DW_AT_type(*$C$DW$T$32)
    3827                      .dwattr $C$DW$518, DW_AT_name("Kd_spd")
    3828                      .dwattr $C$DW$518, DW_AT_TI_symbol_name("_Kd_spd")
    3829                      .dwattr $C$DW$518, DW_AT_data_member_location[DW_OP_plus_uconst 0xda]
    3830                      .dwattr $C$DW$518, DW_AT_accessibility(DW_ACCESS_public)
    3831              $C$DW$519       .dwtag  DW_TAG_member
    3832                      .dwattr $C$DW$519, DW_AT_type(*$C$DW$T$32)
    3833                      .dwattr $C$DW$519, DW_AT_name("Ui_Id")
    3834                      .dwattr $C$DW$519, DW_AT_TI_symbol_name("_Ui_Id")
    3835                      .dwattr $C$DW$519, DW_AT_data_member_location[DW_OP_plus_uconst 0xdc]
    3836                      .dwattr $C$DW$519, DW_AT_accessibility(DW_ACCESS_public)
    3837              $C$DW$520       .dwtag  DW_TAG_member
    3838                      .dwattr $C$DW$520, DW_AT_type(*$C$DW$T$32)
    3839                      .dwattr $C$DW$520, DW_AT_name("Ui_Iq")
    3840                      .dwattr $C$DW$520, DW_AT_TI_symbol_name("_Ui_Iq")
    3841                      .dwattr $C$DW$520, DW_AT_data_member_location[DW_OP_plus_uconst 0xde]
    3842                      .dwattr $C$DW$520, DW_AT_accessibility(DW_ACCESS_public)
    3843              $C$DW$521       .dwtag  DW_TAG_member
    3844                      .dwattr $C$DW$521, DW_AT_type(*$C$DW$T$32)
    3845                      .dwattr $C$DW$521, DW_AT_name("Ui_spd")
    3846                      .dwattr $C$DW$521, DW_AT_TI_symbol_name("_Ui_spd")
    3847                      .dwattr $C$DW$521, DW_AT_data_member_location[DW_OP_plus_uconst 0xe0]
    3848                      .dwattr $C$DW$521, DW_AT_accessibility(DW_ACCESS_public)
    3849              $C$DW$522       .dwtag  DW_TAG_member
    3850                      .dwattr $C$DW$522, DW_AT_type(*$C$DW$T$33)
    3851                      .dwattr $C$DW$522, DW_AT_name("Idq_ref")
    3852                      .dwattr $C$DW$522, DW_AT_TI_symbol_name("_Idq_ref")
TMS320C2000 Assembler PC v6.2.5 Fri Sep 29 09:29:33 2017

Tools Copyright (c) 1996-2014 Texas Instruments Incorporated
C:\Users\wmj\AppData\Local\Temp\1142410                              PAGE   72

    3853                      .dwattr $C$DW$522, DW_AT_data_member_location[DW_OP_plus_uconst 0xe2]
    3854                      .dwattr $C$DW$522, DW_AT_accessibility(DW_ACCESS_public)
    3855              $C$DW$523       .dwtag  DW_TAG_member
    3856                      .dwattr $C$DW$523, DW_AT_type(*$C$DW$T$32)
    3857                      .dwattr $C$DW$523, DW_AT_name("IdRated")
    3858                      .dwattr $C$DW$523, DW_AT_TI_symbol_name("_IdRated")
    3859                      .dwattr $C$DW$523, DW_AT_data_member_location[DW_OP_plus_uconst 0xe6]
    3860                      .dwattr $C$DW$523, DW_AT_accessibility(DW_ACCESS_public)
    3861              $C$DW$524       .dwtag  DW_TAG_member
    3862                      .dwattr $C$DW$524, DW_AT_type(*$C$DW$T$32)
    3863                      .dwattr $C$DW$524, DW_AT_name("spd_ref")
    3864                      .dwattr $C$DW$524, DW_AT_TI_symbol_name("_spd_ref")
    3865                      .dwattr $C$DW$524, DW_AT_data_member_location[DW_OP_plus_uconst 0xe8]
    3866                      .dwattr $C$DW$524, DW_AT_accessibility(DW_ACCESS_public)
    3867              $C$DW$525       .dwtag  DW_TAG_member
    3868                      .dwattr $C$DW$525, DW_AT_type(*$C$DW$T$32)
    3869                      .dwattr $C$DW$525, DW_AT_name("spd_max")
    3870                      .dwattr $C$DW$525, DW_AT_TI_symbol_name("_spd_max")
    3871                      .dwattr $C$DW$525, DW_AT_data_member_location[DW_OP_plus_uconst 0xea]
    3872                      .dwattr $C$DW$525, DW_AT_accessibility(DW_ACCESS_public)
    3873              $C$DW$526       .dwtag  DW_TAG_member
    3874                      .dwattr $C$DW$526, DW_AT_type(*$C$DW$T$70)
    3875                      .dwattr $C$DW$526, DW_AT_name("counter_current")
    3876                      .dwattr $C$DW$526, DW_AT_TI_symbol_name("_counter_current")
    3877                      .dwattr $C$DW$526, DW_AT_data_member_location[DW_OP_plus_uconst 0xec]
    3878                      .dwattr $C$DW$526, DW_AT_accessibility(DW_ACCESS_public)
    3879              $C$DW$527       .dwtag  DW_TAG_member
    3880                      .dwattr $C$DW$527, DW_AT_type(*$C$DW$T$70)
    3881                      .dwattr $C$DW$527, DW_AT_name("counter_isr")
    3882                      .dwattr $C$DW$527, DW_AT_TI_symbol_name("_counter_isr")
    3883                      .dwattr $C$DW$527, DW_AT_data_member_location[DW_OP_plus_uconst 0xed]
    3884                      .dwattr $C$DW$527, DW_AT_accessibility(DW_ACCESS_public)
    3885              $C$DW$528       .dwtag  DW_TAG_member
    3886                      .dwattr $C$DW$528, DW_AT_type(*$C$DW$T$70)
    3887                      .dwattr $C$DW$528, DW_AT_name("counter_speed")
    3888                      .dwattr $C$DW$528, DW_AT_TI_symbol_name("_counter_speed")
    3889                      .dwattr $C$DW$528, DW_AT_data_member_location[DW_OP_plus_uconst 0xee]
    3890                      .dwattr $C$DW$528, DW_AT_accessibility(DW_ACCESS_public)
    3891              $C$DW$529       .dwtag  DW_TAG_member
    3892                      .dwattr $C$DW$529, DW_AT_type(*$C$DW$T$70)
    3893                      .dwattr $C$DW$529, DW_AT_name("counter_traj")
    3894                      .dwattr $C$DW$529, DW_AT_TI_symbol_name("_counter_traj")
    3895                      .dwattr $C$DW$529, DW_AT_data_member_location[DW_OP_plus_uconst 0xef]
    3896                      .dwattr $C$DW$529, DW_AT_accessibility(DW_ACCESS_public)
    3897              $C$DW$530       .dwtag  DW_TAG_member
    3898                      .dwattr $C$DW$530, DW_AT_type(*$C$DW$T$34)
    3899                      .dwattr $C$DW$530, DW_AT_name("flag_enableCtrl")
    3900                      .dwattr $C$DW$530, DW_AT_TI_symbol_name("_flag_enableCtrl")
    3901                      .dwattr $C$DW$530, DW_AT_data_member_location[DW_OP_plus_uconst 0xf0]
    3902                      .dwattr $C$DW$530, DW_AT_accessibility(DW_ACCESS_public)
    3903              $C$DW$531       .dwtag  DW_TAG_member
    3904                      .dwattr $C$DW$531, DW_AT_type(*$C$DW$T$34)
    3905                      .dwattr $C$DW$531, DW_AT_name("flag_enableDcBusComp")
    3906                      .dwattr $C$DW$531, DW_AT_TI_symbol_name("_flag_enableDcBusComp")
    3907                      .dwattr $C$DW$531, DW_AT_data_member_location[DW_OP_plus_uconst 0xf1]
TMS320C2000 Assembler PC v6.2.5 Fri Sep 29 09:29:33 2017

Tools Copyright (c) 1996-2014 Texas Instruments Incorporated
C:\Users\wmj\AppData\Local\Temp\1142410                              PAGE   73

    3908                      .dwattr $C$DW$531, DW_AT_accessibility(DW_ACCESS_public)
    3909              $C$DW$532       .dwtag  DW_TAG_member
    3910                      .dwattr $C$DW$532, DW_AT_type(*$C$DW$T$34)
    3911                      .dwattr $C$DW$532, DW_AT_name("flag_enablePowerWarp")
    3912                      .dwattr $C$DW$532, DW_AT_TI_symbol_name("_flag_enablePowerWarp")
    3913                      .dwattr $C$DW$532, DW_AT_data_member_location[DW_OP_plus_uconst 0xf2]
    3914                      .dwattr $C$DW$532, DW_AT_accessibility(DW_ACCESS_public)
    3915              $C$DW$533       .dwtag  DW_TAG_member
    3916                      .dwattr $C$DW$533, DW_AT_type(*$C$DW$T$34)
    3917                      .dwattr $C$DW$533, DW_AT_name("flag_enableOffset")
    3918                      .dwattr $C$DW$533, DW_AT_TI_symbol_name("_flag_enableOffset")
    3919                      .dwattr $C$DW$533, DW_AT_data_member_location[DW_OP_plus_uconst 0xf3]
    3920                      .dwattr $C$DW$533, DW_AT_accessibility(DW_ACCESS_public)
    3921              $C$DW$534       .dwtag  DW_TAG_member
    3922                      .dwattr $C$DW$534, DW_AT_type(*$C$DW$T$34)
    3923                      .dwattr $C$DW$534, DW_AT_name("flag_enableSpeedCtrl")
    3924                      .dwattr $C$DW$534, DW_AT_TI_symbol_name("_flag_enableSpeedCtrl")
    3925                      .dwattr $C$DW$534, DW_AT_data_member_location[DW_OP_plus_uconst 0xf4]
    3926                      .dwattr $C$DW$534, DW_AT_accessibility(DW_ACCESS_public)
    3927              $C$DW$535       .dwtag  DW_TAG_member
    3928                      .dwattr $C$DW$535, DW_AT_type(*$C$DW$T$34)
    3929                      .dwattr $C$DW$535, DW_AT_name("flag_enableUserMotorParams")
    3930                      .dwattr $C$DW$535, DW_AT_TI_symbol_name("_flag_enableUserMotorParams")
    3931                      .dwattr $C$DW$535, DW_AT_data_member_location[DW_OP_plus_uconst 0xf5]
    3932                      .dwattr $C$DW$535, DW_AT_accessibility(DW_ACCESS_public)
    3933              $C$DW$536       .dwtag  DW_TAG_member
    3934                      .dwattr $C$DW$536, DW_AT_type(*$C$DW$T$33)
    3935                      .dwattr $C$DW$536, DW_AT_name("Idq_offset_pu")
    3936                      .dwattr $C$DW$536, DW_AT_TI_symbol_name("_Idq_offset_pu")
    3937                      .dwattr $C$DW$536, DW_AT_data_member_location[DW_OP_plus_uconst 0xf6]
    3938                      .dwattr $C$DW$536, DW_AT_accessibility(DW_ACCESS_public)
    3939              $C$DW$537       .dwtag  DW_TAG_member
    3940                      .dwattr $C$DW$537, DW_AT_type(*$C$DW$T$33)
    3941                      .dwattr $C$DW$537, DW_AT_name("Vdq_offset_pu")
    3942                      .dwattr $C$DW$537, DW_AT_TI_symbol_name("_Vdq_offset_pu")
    3943                      .dwattr $C$DW$537, DW_AT_data_member_location[DW_OP_plus_uconst 0xfa]
    3944                      .dwattr $C$DW$537, DW_AT_accessibility(DW_ACCESS_public)
    3945              $C$DW$538       .dwtag  DW_TAG_member
    3946                      .dwattr $C$DW$538, DW_AT_type(*$C$DW$T$32)
    3947                      .dwattr $C$DW$538, DW_AT_name("angle_pu")
    3948                      .dwattr $C$DW$538, DW_AT_TI_symbol_name("_angle_pu")
    3949                      .dwattr $C$DW$538, DW_AT_data_member_location[DW_OP_plus_uconst 0xfe]
    3950                      .dwattr $C$DW$538, DW_AT_accessibility(DW_ACCESS_public)
    3951              $C$DW$539       .dwtag  DW_TAG_member
    3952                      .dwattr $C$DW$539, DW_AT_type(*$C$DW$T$32)
    3953                      .dwattr $C$DW$539, DW_AT_name("speed_ref_pu")
    3954                      .dwattr $C$DW$539, DW_AT_TI_symbol_name("_speed_ref_pu")
    3955                      .dwattr $C$DW$539, DW_AT_data_member_location[DW_OP_plus_uconst 0x100]
    3956                      .dwattr $C$DW$539, DW_AT_accessibility(DW_ACCESS_public)
    3957              $C$DW$540       .dwtag  DW_TAG_member
    3958                      .dwattr $C$DW$540, DW_AT_type(*$C$DW$T$32)
    3959                      .dwattr $C$DW$540, DW_AT_name("speed_fb_pu")
    3960                      .dwattr $C$DW$540, DW_AT_TI_symbol_name("_speed_fb_pu")
    3961                      .dwattr $C$DW$540, DW_AT_data_member_location[DW_OP_plus_uconst 0x102]
    3962                      .dwattr $C$DW$540, DW_AT_accessibility(DW_ACCESS_public)
TMS320C2000 Assembler PC v6.2.5 Fri Sep 29 09:29:33 2017

Tools Copyright (c) 1996-2014 Texas Instruments Incorporated
C:\Users\wmj\AppData\Local\Temp\1142410                              PAGE   74

    3963              $C$DW$541       .dwtag  DW_TAG_member
    3964                      .dwattr $C$DW$541, DW_AT_type(*$C$DW$T$32)
    3965                      .dwattr $C$DW$541, DW_AT_name("speed_outMax_pu")
    3966                      .dwattr $C$DW$541, DW_AT_TI_symbol_name("_speed_outMax_pu")
    3967                      .dwattr $C$DW$541, DW_AT_data_member_location[DW_OP_plus_uconst 0x104]
    3968                      .dwattr $C$DW$541, DW_AT_accessibility(DW_ACCESS_public)
    3969              $C$DW$542       .dwtag  DW_TAG_member
    3970                      .dwattr $C$DW$542, DW_AT_type(*$C$DW$T$34)
    3971                      .dwattr $C$DW$542, DW_AT_name("flag_enableCurrentCtrl")
    3972                      .dwattr $C$DW$542, DW_AT_TI_symbol_name("_flag_enableCurrentCtrl")
    3973                      .dwattr $C$DW$542, DW_AT_data_member_location[DW_OP_plus_uconst 0x106]
    3974                      .dwattr $C$DW$542, DW_AT_accessibility(DW_ACCESS_public)
    3975              $C$DW$543       .dwtag  DW_TAG_member
    3976                      .dwattr $C$DW$543, DW_AT_type(*$C$DW$T$73)
    3977                      .dwattr $C$DW$543, DW_AT_name("brakeHandle")
    3978                      .dwattr $C$DW$543, DW_AT_TI_symbol_name("_brakeHandle")
    3979                      .dwattr $C$DW$543, DW_AT_data_member_location[DW_OP_plus_uconst 0x108]
    3980                      .dwattr $C$DW$543, DW_AT_accessibility(DW_ACCESS_public)
    3981              $C$DW$544       .dwtag  DW_TAG_member
    3982                      .dwattr $C$DW$544, DW_AT_type(*$C$DW$T$74)
    3983                      .dwattr $C$DW$544, DW_AT_name("brake")
    3984                      .dwattr $C$DW$544, DW_AT_TI_symbol_name("_brake")
    3985                      .dwattr $C$DW$544, DW_AT_data_member_location[DW_OP_plus_uconst 0x10a]
    3986                      .dwattr $C$DW$544, DW_AT_accessibility(DW_ACCESS_public)
    3987                      .dwendtag $C$DW$T$75
    3988              
    3989              $C$DW$T$199     .dwtag  DW_TAG_pointer_type
    3990                      .dwattr $C$DW$T$199, DW_AT_type(*$C$DW$T$75)
    3991                      .dwattr $C$DW$T$199, DW_AT_address_class(0x16)
    3992              $C$DW$T$200     .dwtag  DW_TAG_typedef, DW_AT_name("CTRL_Handle")
    3993                      .dwattr $C$DW$T$200, DW_AT_type(*$C$DW$T$199)
    3994                      .dwattr $C$DW$T$200, DW_AT_language(DW_LANG_C)
    3995              
    3996              $C$DW$T$78      .dwtag  DW_TAG_structure_type
    3997                      .dwattr $C$DW$T$78, DW_AT_name("_CTRL_Version_")
    3998                      .dwattr $C$DW$T$78, DW_AT_byte_size(0x04)
    3999              $C$DW$545       .dwtag  DW_TAG_member
    4000                      .dwattr $C$DW$545, DW_AT_type(*$C$DW$T$23)
    4001                      .dwattr $C$DW$545, DW_AT_name("rsvd")
    4002                      .dwattr $C$DW$545, DW_AT_TI_symbol_name("_rsvd")
    4003                      .dwattr $C$DW$545, DW_AT_data_member_location[DW_OP_plus_uconst 0x0]
    4004                      .dwattr $C$DW$545, DW_AT_accessibility(DW_ACCESS_public)
    4005              $C$DW$546       .dwtag  DW_TAG_member
    4006                      .dwattr $C$DW$546, DW_AT_type(*$C$DW$T$77)
    4007                      .dwattr $C$DW$546, DW_AT_name("targetProc")
    4008                      .dwattr $C$DW$546, DW_AT_TI_symbol_name("_targetProc")
    4009                      .dwattr $C$DW$546, DW_AT_data_member_location[DW_OP_plus_uconst 0x1]
    4010                      .dwattr $C$DW$546, DW_AT_accessibility(DW_ACCESS_public)
    4011              $C$DW$547       .dwtag  DW_TAG_member
    4012                      .dwattr $C$DW$547, DW_AT_type(*$C$DW$T$23)
    4013                      .dwattr $C$DW$547, DW_AT_name("major")
    4014                      .dwattr $C$DW$547, DW_AT_TI_symbol_name("_major")
    4015                      .dwattr $C$DW$547, DW_AT_data_member_location[DW_OP_plus_uconst 0x2]
    4016                      .dwattr $C$DW$547, DW_AT_accessibility(DW_ACCESS_public)
    4017              $C$DW$548       .dwtag  DW_TAG_member
TMS320C2000 Assembler PC v6.2.5 Fri Sep 29 09:29:33 2017

Tools Copyright (c) 1996-2014 Texas Instruments Incorporated
C:\Users\wmj\AppData\Local\Temp\1142410                              PAGE   75

    4018                      .dwattr $C$DW$548, DW_AT_type(*$C$DW$T$23)
    4019                      .dwattr $C$DW$548, DW_AT_name("minor")
    4020                      .dwattr $C$DW$548, DW_AT_TI_symbol_name("_minor")
    4021                      .dwattr $C$DW$548, DW_AT_data_member_location[DW_OP_plus_uconst 0x3]
    4022                      .dwattr $C$DW$548, DW_AT_accessibility(DW_ACCESS_public)
    4023                      .dwendtag $C$DW$T$78
    4024              
    4025              $C$DW$T$41      .dwtag  DW_TAG_typedef, DW_AT_name("CTRL_Version")
    4026                      .dwattr $C$DW$T$41, DW_AT_type(*$C$DW$T$78)
    4027                      .dwattr $C$DW$T$41, DW_AT_language(DW_LANG_C)
    4028              
    4029              $C$DW$T$20      .dwtag  DW_TAG_structure_type
    4030                      .dwattr $C$DW$T$20, DW_AT_name("_EST_Obj_")
    4031                      .dwattr $C$DW$T$20, DW_AT_declaration
    4032                      .dwendtag $C$DW$T$20
    4033              
    4034              $C$DW$T$49      .dwtag  DW_TAG_pointer_type
    4035                      .dwattr $C$DW$T$49, DW_AT_type(*$C$DW$T$20)
    4036                      .dwattr $C$DW$T$49, DW_AT_address_class(0x16)
    4037              $C$DW$T$50      .dwtag  DW_TAG_typedef, DW_AT_name("EST_Handle")
    4038                      .dwattr $C$DW$T$50, DW_AT_type(*$C$DW$T$49)
    4039                      .dwattr $C$DW$T$50, DW_AT_language(DW_LANG_C)
    4040              
    4041              $C$DW$T$79      .dwtag  DW_TAG_structure_type
    4042                      .dwattr $C$DW$T$79, DW_AT_name("_FILTER_FO_")
    4043                      .dwattr $C$DW$T$79, DW_AT_byte_size(0x0a)
    4044              $C$DW$549       .dwtag  DW_TAG_member
    4045                      .dwattr $C$DW$549, DW_AT_type(*$C$DW$T$32)
    4046                      .dwattr $C$DW$549, DW_AT_name("a1")
    4047                      .dwattr $C$DW$549, DW_AT_TI_symbol_name("_a1")
    4048                      .dwattr $C$DW$549, DW_AT_data_member_location[DW_OP_plus_uconst 0x0]
    4049                      .dwattr $C$DW$549, DW_AT_accessibility(DW_ACCESS_public)
    4050              $C$DW$550       .dwtag  DW_TAG_member
    4051                      .dwattr $C$DW$550, DW_AT_type(*$C$DW$T$32)
    4052                      .dwattr $C$DW$550, DW_AT_name("b0")
    4053                      .dwattr $C$DW$550, DW_AT_TI_symbol_name("_b0")
    4054                      .dwattr $C$DW$550, DW_AT_data_member_location[DW_OP_plus_uconst 0x2]
    4055                      .dwattr $C$DW$550, DW_AT_accessibility(DW_ACCESS_public)
    4056              $C$DW$551       .dwtag  DW_TAG_member
    4057                      .dwattr $C$DW$551, DW_AT_type(*$C$DW$T$32)
    4058                      .dwattr $C$DW$551, DW_AT_name("b1")
    4059                      .dwattr $C$DW$551, DW_AT_TI_symbol_name("_b1")
    4060                      .dwattr $C$DW$551, DW_AT_data_member_location[DW_OP_plus_uconst 0x4]
    4061                      .dwattr $C$DW$551, DW_AT_accessibility(DW_ACCESS_public)
    4062              $C$DW$552       .dwtag  DW_TAG_member
    4063                      .dwattr $C$DW$552, DW_AT_type(*$C$DW$T$32)
    4064                      .dwattr $C$DW$552, DW_AT_name("x1")
    4065                      .dwattr $C$DW$552, DW_AT_TI_symbol_name("_x1")
    4066                      .dwattr $C$DW$552, DW_AT_data_member_location[DW_OP_plus_uconst 0x6]
    4067                      .dwattr $C$DW$552, DW_AT_accessibility(DW_ACCESS_public)
    4068              $C$DW$553       .dwtag  DW_TAG_member
    4069                      .dwattr $C$DW$553, DW_AT_type(*$C$DW$T$32)
    4070                      .dwattr $C$DW$553, DW_AT_name("y1")
    4071                      .dwattr $C$DW$553, DW_AT_TI_symbol_name("_y1")
    4072                      .dwattr $C$DW$553, DW_AT_data_member_location[DW_OP_plus_uconst 0x8]
TMS320C2000 Assembler PC v6.2.5 Fri Sep 29 09:29:33 2017

Tools Copyright (c) 1996-2014 Texas Instruments Incorporated
C:\Users\wmj\AppData\Local\Temp\1142410                              PAGE   76

    4073                      .dwattr $C$DW$553, DW_AT_accessibility(DW_ACCESS_public)
    4074                      .dwendtag $C$DW$T$79
    4075              
    4076              $C$DW$T$175     .dwtag  DW_TAG_typedef, DW_AT_name("FILTER_FO_Obj")
    4077                      .dwattr $C$DW$T$175, DW_AT_type(*$C$DW$T$79)
    4078                      .dwattr $C$DW$T$175, DW_AT_language(DW_LANG_C)
    4079              
    4080              $C$DW$T$21      .dwtag  DW_TAG_structure_type
    4081                      .dwattr $C$DW$T$21, DW_AT_name("_FILTER_FO_Obj_")
    4082                      .dwattr $C$DW$T$21, DW_AT_declaration
    4083                      .dwendtag $C$DW$T$21
    4084              
    4085              $C$DW$T$176     .dwtag  DW_TAG_pointer_type
    4086                      .dwattr $C$DW$T$176, DW_AT_type(*$C$DW$T$21)
    4087                      .dwattr $C$DW$T$176, DW_AT_address_class(0x16)
    4088              $C$DW$T$177     .dwtag  DW_TAG_typedef, DW_AT_name("FILTER_FO_Handle")
    4089                      .dwattr $C$DW$T$177, DW_AT_type(*$C$DW$T$176)
    4090                      .dwattr $C$DW$T$177, DW_AT_language(DW_LANG_C)
    4091              
    4092              $C$DW$T$80      .dwtag  DW_TAG_structure_type
    4093                      .dwattr $C$DW$T$80, DW_AT_name("_FLASH_Obj_")
    4094                      .dwattr $C$DW$T$80, DW_AT_byte_size(0x08)
    4095              $C$DW$554       .dwtag  DW_TAG_member
    4096                      .dwattr $C$DW$554, DW_AT_type(*$C$DW$T$24)
    4097                      .dwattr $C$DW$554, DW_AT_name("FOPT")
    4098                      .dwattr $C$DW$554, DW_AT_TI_symbol_name("_FOPT")
    4099                      .dwattr $C$DW$554, DW_AT_data_member_location[DW_OP_plus_uconst 0x0]
    4100                      .dwattr $C$DW$554, DW_AT_accessibility(DW_ACCESS_public)
    4101              $C$DW$555       .dwtag  DW_TAG_member
    4102                      .dwattr $C$DW$555, DW_AT_type(*$C$DW$T$24)
    4103                      .dwattr $C$DW$555, DW_AT_name("rsvd_1")
    4104                      .dwattr $C$DW$555, DW_AT_TI_symbol_name("_rsvd_1")
    4105                      .dwattr $C$DW$555, DW_AT_data_member_location[DW_OP_plus_uconst 0x1]
    4106                      .dwattr $C$DW$555, DW_AT_accessibility(DW_ACCESS_public)
    4107              $C$DW$556       .dwtag  DW_TAG_member
    4108                      .dwattr $C$DW$556, DW_AT_type(*$C$DW$T$24)
    4109                      .dwattr $C$DW$556, DW_AT_name("FPWR")
    4110                      .dwattr $C$DW$556, DW_AT_TI_symbol_name("_FPWR")
    4111                      .dwattr $C$DW$556, DW_AT_data_member_location[DW_OP_plus_uconst 0x2]
    4112                      .dwattr $C$DW$556, DW_AT_accessibility(DW_ACCESS_public)
    4113              $C$DW$557       .dwtag  DW_TAG_member
    4114                      .dwattr $C$DW$557, DW_AT_type(*$C$DW$T$24)
    4115                      .dwattr $C$DW$557, DW_AT_name("FSTATUS")
    4116                      .dwattr $C$DW$557, DW_AT_TI_symbol_name("_FSTATUS")
    4117                      .dwattr $C$DW$557, DW_AT_data_member_location[DW_OP_plus_uconst 0x3]
    4118                      .dwattr $C$DW$557, DW_AT_accessibility(DW_ACCESS_public)
    4119              $C$DW$558       .dwtag  DW_TAG_member
    4120                      .dwattr $C$DW$558, DW_AT_type(*$C$DW$T$24)
    4121                      .dwattr $C$DW$558, DW_AT_name("FSTDBYWAIT")
    4122                      .dwattr $C$DW$558, DW_AT_TI_symbol_name("_FSTDBYWAIT")
    4123                      .dwattr $C$DW$558, DW_AT_data_member_location[DW_OP_plus_uconst 0x4]
    4124                      .dwattr $C$DW$558, DW_AT_accessibility(DW_ACCESS_public)
    4125              $C$DW$559       .dwtag  DW_TAG_member
    4126                      .dwattr $C$DW$559, DW_AT_type(*$C$DW$T$24)
    4127                      .dwattr $C$DW$559, DW_AT_name("FACTIVEWAIT")
TMS320C2000 Assembler PC v6.2.5 Fri Sep 29 09:29:33 2017

Tools Copyright (c) 1996-2014 Texas Instruments Incorporated
C:\Users\wmj\AppData\Local\Temp\1142410                              PAGE   77

    4128                      .dwattr $C$DW$559, DW_AT_TI_symbol_name("_FACTIVEWAIT")
    4129                      .dwattr $C$DW$559, DW_AT_data_member_location[DW_OP_plus_uconst 0x5]
    4130                      .dwattr $C$DW$559, DW_AT_accessibility(DW_ACCESS_public)
    4131              $C$DW$560       .dwtag  DW_TAG_member
    4132                      .dwattr $C$DW$560, DW_AT_type(*$C$DW$T$24)
    4133                      .dwattr $C$DW$560, DW_AT_name("FBANKWAIT")
    4134                      .dwattr $C$DW$560, DW_AT_TI_symbol_name("_FBANKWAIT")
    4135                      .dwattr $C$DW$560, DW_AT_data_member_location[DW_OP_plus_uconst 0x6]
    4136                      .dwattr $C$DW$560, DW_AT_accessibility(DW_ACCESS_public)
    4137              $C$DW$561       .dwtag  DW_TAG_member
    4138                      .dwattr $C$DW$561, DW_AT_type(*$C$DW$T$24)
    4139                      .dwattr $C$DW$561, DW_AT_name("FOTPWAIT")
    4140                      .dwattr $C$DW$561, DW_AT_TI_symbol_name("_FOTPWAIT")
    4141                      .dwattr $C$DW$561, DW_AT_data_member_location[DW_OP_plus_uconst 0x7]
    4142                      .dwattr $C$DW$561, DW_AT_accessibility(DW_ACCESS_public)
    4143                      .dwendtag $C$DW$T$80
    4144              
    4145              $C$DW$T$108     .dwtag  DW_TAG_pointer_type
    4146                      .dwattr $C$DW$T$108, DW_AT_type(*$C$DW$T$80)
    4147                      .dwattr $C$DW$T$108, DW_AT_address_class(0x16)
    4148              $C$DW$T$109     .dwtag  DW_TAG_typedef, DW_AT_name("FLASH_Handle")
    4149                      .dwattr $C$DW$T$109, DW_AT_type(*$C$DW$T$108)
    4150                      .dwattr $C$DW$T$109, DW_AT_language(DW_LANG_C)
    4151              
    4152              $C$DW$T$94      .dwtag  DW_TAG_structure_type
    4153                      .dwattr $C$DW$T$94, DW_AT_name("_FSM_Obj_")
    4154                      .dwattr $C$DW$T$94, DW_AT_byte_size(0x1a)
    4155              $C$DW$562       .dwtag  DW_TAG_member
    4156                      .dwattr $C$DW$562, DW_AT_type(*$C$DW$T$82)
    4157                      .dwattr $C$DW$562, DW_AT_name("MotorHandle")
    4158                      .dwattr $C$DW$562, DW_AT_TI_symbol_name("_MotorHandle")
    4159                      .dwattr $C$DW$562, DW_AT_data_member_location[DW_OP_plus_uconst 0x0]
    4160                      .dwattr $C$DW$562, DW_AT_accessibility(DW_ACCESS_public)
    4161              $C$DW$563       .dwtag  DW_TAG_member
    4162                      .dwattr $C$DW$563, DW_AT_type(*$C$DW$T$84)
    4163                      .dwattr $C$DW$563, DW_AT_name("pca955xHandle")
    4164                      .dwattr $C$DW$563, DW_AT_TI_symbol_name("_pca955xHandle")
    4165                      .dwattr $C$DW$563, DW_AT_data_member_location[DW_OP_plus_uconst 0x2]
    4166                      .dwattr $C$DW$563, DW_AT_accessibility(DW_ACCESS_public)
    4167              $C$DW$564       .dwtag  DW_TAG_member
    4168                      .dwattr $C$DW$564, DW_AT_type(*$C$DW$T$85)
    4169                      .dwattr $C$DW$564, DW_AT_name("pca9555")
    4170                      .dwattr $C$DW$564, DW_AT_TI_symbol_name("_pca9555")
    4171                      .dwattr $C$DW$564, DW_AT_data_member_location[DW_OP_plus_uconst 0x4]
    4172                      .dwattr $C$DW$564, DW_AT_accessibility(DW_ACCESS_public)
    4173              $C$DW$565       .dwtag  DW_TAG_member
    4174                      .dwattr $C$DW$565, DW_AT_type(*$C$DW$T$87)
    4175                      .dwattr $C$DW$565, DW_AT_name("FSM_State")
    4176                      .dwattr $C$DW$565, DW_AT_TI_symbol_name("_FSM_State")
    4177                      .dwattr $C$DW$565, DW_AT_data_member_location[DW_OP_plus_uconst 0xa]
    4178                      .dwattr $C$DW$565, DW_AT_accessibility(DW_ACCESS_public)
    4179              $C$DW$566       .dwtag  DW_TAG_member
    4180                      .dwattr $C$DW$566, DW_AT_type(*$C$DW$T$89)
    4181                      .dwattr $C$DW$566, DW_AT_name("FSM_Trans")
    4182                      .dwattr $C$DW$566, DW_AT_TI_symbol_name("_FSM_Trans")
TMS320C2000 Assembler PC v6.2.5 Fri Sep 29 09:29:33 2017

Tools Copyright (c) 1996-2014 Texas Instruments Incorporated
C:\Users\wmj\AppData\Local\Temp\1142410                              PAGE   78

    4183                      .dwattr $C$DW$566, DW_AT_data_member_location[DW_OP_plus_uconst 0xb]
    4184                      .dwattr $C$DW$566, DW_AT_accessibility(DW_ACCESS_public)
    4185              $C$DW$567       .dwtag  DW_TAG_member
    4186                      .dwattr $C$DW$567, DW_AT_type(*$C$DW$T$91)
    4187                      .dwattr $C$DW$567, DW_AT_name("FSM_Event")
    4188                      .dwattr $C$DW$567, DW_AT_TI_symbol_name("_FSM_Event")
    4189                      .dwattr $C$DW$567, DW_AT_data_member_location[DW_OP_plus_uconst 0xc]
    4190                      .dwattr $C$DW$567, DW_AT_accessibility(DW_ACCESS_public)
    4191              $C$DW$568       .dwtag  DW_TAG_member
    4192                      .dwattr $C$DW$568, DW_AT_type(*$C$DW$T$93)
    4193                      .dwattr $C$DW$568, DW_AT_name("FSM_StMode")
    4194                      .dwattr $C$DW$568, DW_AT_TI_symbol_name("_FSM_StMode")
    4195                      .dwattr $C$DW$568, DW_AT_data_member_location[DW_OP_plus_uconst 0xd]
    4196                      .dwattr $C$DW$568, DW_AT_accessibility(DW_ACCESS_public)
    4197              $C$DW$569       .dwtag  DW_TAG_member
    4198                      .dwattr $C$DW$569, DW_AT_type(*$C$DW$T$34)
    4199                      .dwattr $C$DW$569, DW_AT_name("Accele_Polar")
    4200                      .dwattr $C$DW$569, DW_AT_TI_symbol_name("_Accele_Polar")
    4201                      .dwattr $C$DW$569, DW_AT_data_member_location[DW_OP_plus_uconst 0xe]
    4202                      .dwattr $C$DW$569, DW_AT_accessibility(DW_ACCESS_public)
    4203              $C$DW$570       .dwtag  DW_TAG_member
    4204                      .dwattr $C$DW$570, DW_AT_type(*$C$DW$T$32)
    4205                      .dwattr $C$DW$570, DW_AT_name("Sensor0_Value")
    4206                      .dwattr $C$DW$570, DW_AT_TI_symbol_name("_Sensor0_Value")
    4207                      .dwattr $C$DW$570, DW_AT_data_member_location[DW_OP_plus_uconst 0x10]
    4208                      .dwattr $C$DW$570, DW_AT_accessibility(DW_ACCESS_public)
    4209              $C$DW$571       .dwtag  DW_TAG_member
    4210                      .dwattr $C$DW$571, DW_AT_type(*$C$DW$T$32)
    4211                      .dwattr $C$DW$571, DW_AT_name("Sensor1_Value")
    4212                      .dwattr $C$DW$571, DW_AT_TI_symbol_name("_Sensor1_Value")
    4213                      .dwattr $C$DW$571, DW_AT_data_member_location[DW_OP_plus_uconst 0x12]
    4214                      .dwattr $C$DW$571, DW_AT_accessibility(DW_ACCESS_public)
    4215              $C$DW$572       .dwtag  DW_TAG_member
    4216                      .dwattr $C$DW$572, DW_AT_type(*$C$DW$T$23)
    4217                      .dwattr $C$DW$572, DW_AT_name("Motor_runTime")
    4218                      .dwattr $C$DW$572, DW_AT_TI_symbol_name("_Motor_runTime")
    4219                      .dwattr $C$DW$572, DW_AT_data_member_location[DW_OP_plus_uconst 0x14]
    4220                      .dwattr $C$DW$572, DW_AT_accessibility(DW_ACCESS_public)
    4221              $C$DW$573       .dwtag  DW_TAG_member
    4222                      .dwattr $C$DW$573, DW_AT_type(*$C$DW$T$34)
    4223                      .dwattr $C$DW$573, DW_AT_name("Flag_485Start")
    4224                      .dwattr $C$DW$573, DW_AT_TI_symbol_name("_Flag_485Start")
    4225                      .dwattr $C$DW$573, DW_AT_data_member_location[DW_OP_plus_uconst 0x15]
    4226                      .dwattr $C$DW$573, DW_AT_accessibility(DW_ACCESS_public)
    4227              $C$DW$574       .dwtag  DW_TAG_member
    4228                      .dwattr $C$DW$574, DW_AT_type(*$C$DW$T$34)
    4229                      .dwattr $C$DW$574, DW_AT_name("Flag_485Stop")
    4230                      .dwattr $C$DW$574, DW_AT_TI_symbol_name("_Flag_485Stop")
    4231                      .dwattr $C$DW$574, DW_AT_data_member_location[DW_OP_plus_uconst 0x16]
    4232                      .dwattr $C$DW$574, DW_AT_accessibility(DW_ACCESS_public)
    4233              $C$DW$575       .dwtag  DW_TAG_member
    4234                      .dwattr $C$DW$575, DW_AT_type(*$C$DW$T$34)
    4235                      .dwattr $C$DW$575, DW_AT_name("runTime_Enable")
    4236                      .dwattr $C$DW$575, DW_AT_TI_symbol_name("_runTime_Enable")
    4237                      .dwattr $C$DW$575, DW_AT_data_member_location[DW_OP_plus_uconst 0x17]
TMS320C2000 Assembler PC v6.2.5 Fri Sep 29 09:29:33 2017

Tools Copyright (c) 1996-2014 Texas Instruments Incorporated
C:\Users\wmj\AppData\Local\Temp\1142410                              PAGE   79

    4238                      .dwattr $C$DW$575, DW_AT_accessibility(DW_ACCESS_public)
    4239              $C$DW$576       .dwtag  DW_TAG_member
    4240                      .dwattr $C$DW$576, DW_AT_type(*$C$DW$T$34)
    4241                      .dwattr $C$DW$576, DW_AT_name("Ext_Int_Flag")
    4242                      .dwattr $C$DW$576, DW_AT_TI_symbol_name("_Ext_Int_Flag")
    4243                      .dwattr $C$DW$576, DW_AT_data_member_location[DW_OP_plus_uconst 0x18]
    4244                      .dwattr $C$DW$576, DW_AT_accessibility(DW_ACCESS_public)
    4245              $C$DW$577       .dwtag  DW_TAG_member
    4246                      .dwattr $C$DW$577, DW_AT_type(*$C$DW$T$34)
    4247                      .dwattr $C$DW$577, DW_AT_name("FSM_Enable")
    4248                      .dwattr $C$DW$577, DW_AT_TI_symbol_name("_FSM_Enable")
    4249                      .dwattr $C$DW$577, DW_AT_data_member_location[DW_OP_plus_uconst 0x19]
    4250                      .dwattr $C$DW$577, DW_AT_accessibility(DW_ACCESS_public)
    4251                      .dwendtag $C$DW$T$94
    4252              
    4253              $C$DW$T$205     .dwtag  DW_TAG_typedef, DW_AT_name("FSM_Obj")
    4254                      .dwattr $C$DW$T$205, DW_AT_type(*$C$DW$T$94)
    4255                      .dwattr $C$DW$T$205, DW_AT_language(DW_LANG_C)
    4256              $C$DW$T$206     .dwtag  DW_TAG_pointer_type
    4257                      .dwattr $C$DW$T$206, DW_AT_type(*$C$DW$T$94)
    4258                      .dwattr $C$DW$T$206, DW_AT_address_class(0x16)
    4259              $C$DW$T$207     .dwtag  DW_TAG_typedef, DW_AT_name("FSM_Handle")
    4260                      .dwattr $C$DW$T$207, DW_AT_type(*$C$DW$T$206)
    4261                      .dwattr $C$DW$T$207, DW_AT_language(DW_LANG_C)
    4262              
    4263              $C$DW$T$95      .dwtag  DW_TAG_structure_type
    4264                      .dwattr $C$DW$T$95, DW_AT_name("_FS_Obj_")
    4265                      .dwattr $C$DW$T$95, DW_AT_byte_size(0x12)
    4266              $C$DW$578       .dwtag  DW_TAG_member
    4267                      .dwattr $C$DW$578, DW_AT_type(*$C$DW$T$32)
    4268                      .dwattr $C$DW$578, DW_AT_name("speed_ref_pu")
    4269                      .dwattr $C$DW$578, DW_AT_TI_symbol_name("_speed_ref_pu")
    4270                      .dwattr $C$DW$578, DW_AT_data_member_location[DW_OP_plus_uconst 0x0]
    4271                      .dwattr $C$DW$578, DW_AT_accessibility(DW_ACCESS_public)
    4272              $C$DW$579       .dwtag  DW_TAG_member
    4273                      .dwattr $C$DW$579, DW_AT_type(*$C$DW$T$32)
    4274                      .dwattr $C$DW$579, DW_AT_name("speed_set_pu")
    4275                      .dwattr $C$DW$579, DW_AT_TI_symbol_name("_speed_set_pu")
    4276                      .dwattr $C$DW$579, DW_AT_data_member_location[DW_OP_plus_uconst 0x2]
    4277                      .dwattr $C$DW$579, DW_AT_accessibility(DW_ACCESS_public)
    4278              $C$DW$580       .dwtag  DW_TAG_member
    4279                      .dwattr $C$DW$580, DW_AT_type(*$C$DW$T$32)
    4280                      .dwattr $C$DW$580, DW_AT_name("speed_est_pu")
    4281                      .dwattr $C$DW$580, DW_AT_TI_symbol_name("_speed_est_pu")
    4282                      .dwattr $C$DW$580, DW_AT_data_member_location[DW_OP_plus_uconst 0x4]
    4283                      .dwattr $C$DW$580, DW_AT_accessibility(DW_ACCESS_public)
    4284              $C$DW$581       .dwtag  DW_TAG_member
    4285                      .dwattr $C$DW$581, DW_AT_type(*$C$DW$T$32)
    4286                      .dwattr $C$DW$581, DW_AT_name("speed_est_avg")
    4287                      .dwattr $C$DW$581, DW_AT_TI_symbol_name("_speed_est_avg")
    4288                      .dwattr $C$DW$581, DW_AT_data_member_location[DW_OP_plus_uconst 0x6]
    4289                      .dwattr $C$DW$581, DW_AT_accessibility(DW_ACCESS_public)
    4290              $C$DW$582       .dwtag  DW_TAG_member
    4291                      .dwattr $C$DW$582, DW_AT_type(*$C$DW$T$32)
    4292                      .dwattr $C$DW$582, DW_AT_name("speed_fs_min")
TMS320C2000 Assembler PC v6.2.5 Fri Sep 29 09:29:33 2017

Tools Copyright (c) 1996-2014 Texas Instruments Incorporated
C:\Users\wmj\AppData\Local\Temp\1142410                              PAGE   80

    4293                      .dwattr $C$DW$582, DW_AT_TI_symbol_name("_speed_fs_min")
    4294                      .dwattr $C$DW$582, DW_AT_data_member_location[DW_OP_plus_uconst 0x8]
    4295                      .dwattr $C$DW$582, DW_AT_accessibility(DW_ACCESS_public)
    4296              $C$DW$583       .dwtag  DW_TAG_member
    4297                      .dwattr $C$DW$583, DW_AT_type(*$C$DW$T$32)
    4298                      .dwattr $C$DW$583, DW_AT_name("run_direction")
    4299                      .dwattr $C$DW$583, DW_AT_TI_symbol_name("_run_direction")
    4300                      .dwattr $C$DW$583, DW_AT_data_member_location[DW_OP_plus_uconst 0xa]
    4301                      .dwattr $C$DW$583, DW_AT_accessibility(DW_ACCESS_public)
    4302              $C$DW$584       .dwtag  DW_TAG_member
    4303                      .dwattr $C$DW$584, DW_AT_type(*$C$DW$T$67)
    4304                      .dwattr $C$DW$584, DW_AT_name("cnt_checktime")
    4305                      .dwattr $C$DW$584, DW_AT_TI_symbol_name("_cnt_checktime")
    4306                      .dwattr $C$DW$584, DW_AT_data_member_location[DW_OP_plus_uconst 0xc]
    4307                      .dwattr $C$DW$584, DW_AT_accessibility(DW_ACCESS_public)
    4308              $C$DW$585       .dwtag  DW_TAG_member
    4309                      .dwattr $C$DW$585, DW_AT_type(*$C$DW$T$67)
    4310                      .dwattr $C$DW$585, DW_AT_name("max_checktime")
    4311                      .dwattr $C$DW$585, DW_AT_TI_symbol_name("_max_checktime")
    4312                      .dwattr $C$DW$585, DW_AT_data_member_location[DW_OP_plus_uconst 0xe]
    4313                      .dwattr $C$DW$585, DW_AT_accessibility(DW_ACCESS_public)
    4314              $C$DW$586       .dwtag  DW_TAG_member
    4315                      .dwattr $C$DW$586, DW_AT_type(*$C$DW$T$34)
    4316                      .dwattr $C$DW$586, DW_AT_name("flag_enableSpeedCtrl")
    4317                      .dwattr $C$DW$586, DW_AT_TI_symbol_name("_flag_enableSpeedCtrl")
    4318                      .dwattr $C$DW$586, DW_AT_data_member_location[DW_OP_plus_uconst 0x10]
    4319                      .dwattr $C$DW$586, DW_AT_accessibility(DW_ACCESS_public)
    4320              $C$DW$587       .dwtag  DW_TAG_member
    4321                      .dwattr $C$DW$587, DW_AT_type(*$C$DW$T$34)
    4322                      .dwattr $C$DW$587, DW_AT_name("flag_enableFs")
    4323                      .dwattr $C$DW$587, DW_AT_TI_symbol_name("_flag_enableFs")
    4324                      .dwattr $C$DW$587, DW_AT_data_member_location[DW_OP_plus_uconst 0x11]
    4325                      .dwattr $C$DW$587, DW_AT_accessibility(DW_ACCESS_public)
    4326                      .dwendtag $C$DW$T$95
    4327              
    4328              $C$DW$T$201     .dwtag  DW_TAG_typedef, DW_AT_name("FS_Obj")
    4329                      .dwattr $C$DW$T$201, DW_AT_type(*$C$DW$T$95)
    4330                      .dwattr $C$DW$T$201, DW_AT_language(DW_LANG_C)
    4331              $C$DW$T$202     .dwtag  DW_TAG_pointer_type
    4332                      .dwattr $C$DW$T$202, DW_AT_type(*$C$DW$T$95)
    4333                      .dwattr $C$DW$T$202, DW_AT_address_class(0x16)
    4334              $C$DW$T$203     .dwtag  DW_TAG_typedef, DW_AT_name("FS_Handle")
    4335                      .dwattr $C$DW$T$203, DW_AT_type(*$C$DW$T$202)
    4336                      .dwattr $C$DW$T$203, DW_AT_language(DW_LANG_C)
    4337              
    4338              $C$DW$T$99      .dwtag  DW_TAG_structure_type
    4339                      .dwattr $C$DW$T$99, DW_AT_name("_GPIO_Obj_")
    4340                      .dwattr $C$DW$T$99, DW_AT_byte_size(0x6a)
    4341              $C$DW$588       .dwtag  DW_TAG_member
    4342                      .dwattr $C$DW$588, DW_AT_type(*$C$DW$T$96)
    4343                      .dwattr $C$DW$588, DW_AT_name("GPACTRL")
    4344                      .dwattr $C$DW$588, DW_AT_TI_symbol_name("_GPACTRL")
    4345                      .dwattr $C$DW$588, DW_AT_data_member_location[DW_OP_plus_uconst 0x0]
    4346                      .dwattr $C$DW$588, DW_AT_accessibility(DW_ACCESS_public)
    4347              $C$DW$589       .dwtag  DW_TAG_member
TMS320C2000 Assembler PC v6.2.5 Fri Sep 29 09:29:33 2017

Tools Copyright (c) 1996-2014 Texas Instruments Incorporated
C:\Users\wmj\AppData\Local\Temp\1142410                              PAGE   81

    4348                      .dwattr $C$DW$589, DW_AT_type(*$C$DW$T$96)
    4349                      .dwattr $C$DW$589, DW_AT_name("GPAQSEL1")
    4350                      .dwattr $C$DW$589, DW_AT_TI_symbol_name("_GPAQSEL1")
    4351                      .dwattr $C$DW$589, DW_AT_data_member_location[DW_OP_plus_uconst 0x2]
    4352                      .dwattr $C$DW$589, DW_AT_accessibility(DW_ACCESS_public)
    4353              $C$DW$590       .dwtag  DW_TAG_member
    4354                      .dwattr $C$DW$590, DW_AT_type(*$C$DW$T$96)
    4355                      .dwattr $C$DW$590, DW_AT_name("GPAQSEL2")
    4356                      .dwattr $C$DW$590, DW_AT_TI_symbol_name("_GPAQSEL2")
    4357                      .dwattr $C$DW$590, DW_AT_data_member_location[DW_OP_plus_uconst 0x4]
    4358                      .dwattr $C$DW$590, DW_AT_accessibility(DW_ACCESS_public)
    4359              $C$DW$591       .dwtag  DW_TAG_member
    4360                      .dwattr $C$DW$591, DW_AT_type(*$C$DW$T$96)
    4361                      .dwattr $C$DW$591, DW_AT_name("GPAMUX1")
    4362                      .dwattr $C$DW$591, DW_AT_TI_symbol_name("_GPAMUX1")
    4363                      .dwattr $C$DW$591, DW_AT_data_member_location[DW_OP_plus_uconst 0x6]
    4364                      .dwattr $C$DW$591, DW_AT_accessibility(DW_ACCESS_public)
    4365              $C$DW$592       .dwtag  DW_TAG_member
    4366                      .dwattr $C$DW$592, DW_AT_type(*$C$DW$T$96)
    4367                      .dwattr $C$DW$592, DW_AT_name("GPAMUX2")
    4368                      .dwattr $C$DW$592, DW_AT_TI_symbol_name("_GPAMUX2")
    4369                      .dwattr $C$DW$592, DW_AT_data_member_location[DW_OP_plus_uconst 0x8]
    4370                      .dwattr $C$DW$592, DW_AT_accessibility(DW_ACCESS_public)
    4371              $C$DW$593       .dwtag  DW_TAG_member
    4372                      .dwattr $C$DW$593, DW_AT_type(*$C$DW$T$96)
    4373                      .dwattr $C$DW$593, DW_AT_name("GPADIR")
    4374                      .dwattr $C$DW$593, DW_AT_TI_symbol_name("_GPADIR")
    4375                      .dwattr $C$DW$593, DW_AT_data_member_location[DW_OP_plus_uconst 0xa]
    4376                      .dwattr $C$DW$593, DW_AT_accessibility(DW_ACCESS_public)
    4377              $C$DW$594       .dwtag  DW_TAG_member
    4378                      .dwattr $C$DW$594, DW_AT_type(*$C$DW$T$96)
    4379                      .dwattr $C$DW$594, DW_AT_name("GPAPUD")
    4380                      .dwattr $C$DW$594, DW_AT_TI_symbol_name("_GPAPUD")
    4381                      .dwattr $C$DW$594, DW_AT_data_member_location[DW_OP_plus_uconst 0xc]
    4382                      .dwattr $C$DW$594, DW_AT_accessibility(DW_ACCESS_public)
    4383              $C$DW$595       .dwtag  DW_TAG_member
    4384                      .dwattr $C$DW$595, DW_AT_type(*$C$DW$T$27)
    4385                      .dwattr $C$DW$595, DW_AT_name("rsvd_1")
    4386                      .dwattr $C$DW$595, DW_AT_TI_symbol_name("_rsvd_1")
    4387                      .dwattr $C$DW$595, DW_AT_data_member_location[DW_OP_plus_uconst 0xe]
    4388                      .dwattr $C$DW$595, DW_AT_accessibility(DW_ACCESS_public)
    4389              $C$DW$596       .dwtag  DW_TAG_member
    4390                      .dwattr $C$DW$596, DW_AT_type(*$C$DW$T$96)
    4391                      .dwattr $C$DW$596, DW_AT_name("GPBCTRL")
    4392                      .dwattr $C$DW$596, DW_AT_TI_symbol_name("_GPBCTRL")
    4393                      .dwattr $C$DW$596, DW_AT_data_member_location[DW_OP_plus_uconst 0x10]
    4394                      .dwattr $C$DW$596, DW_AT_accessibility(DW_ACCESS_public)
    4395              $C$DW$597       .dwtag  DW_TAG_member
    4396                      .dwattr $C$DW$597, DW_AT_type(*$C$DW$T$96)
    4397                      .dwattr $C$DW$597, DW_AT_name("GPBQSEL1")
    4398                      .dwattr $C$DW$597, DW_AT_TI_symbol_name("_GPBQSEL1")
    4399                      .dwattr $C$DW$597, DW_AT_data_member_location[DW_OP_plus_uconst 0x12]
    4400                      .dwattr $C$DW$597, DW_AT_accessibility(DW_ACCESS_public)
    4401              $C$DW$598       .dwtag  DW_TAG_member
    4402                      .dwattr $C$DW$598, DW_AT_type(*$C$DW$T$27)
TMS320C2000 Assembler PC v6.2.5 Fri Sep 29 09:29:33 2017

Tools Copyright (c) 1996-2014 Texas Instruments Incorporated
C:\Users\wmj\AppData\Local\Temp\1142410                              PAGE   82

    4403                      .dwattr $C$DW$598, DW_AT_name("rsvd_2")
    4404                      .dwattr $C$DW$598, DW_AT_TI_symbol_name("_rsvd_2")
    4405                      .dwattr $C$DW$598, DW_AT_data_member_location[DW_OP_plus_uconst 0x14]
    4406                      .dwattr $C$DW$598, DW_AT_accessibility(DW_ACCESS_public)
    4407              $C$DW$599       .dwtag  DW_TAG_member
    4408                      .dwattr $C$DW$599, DW_AT_type(*$C$DW$T$96)
    4409                      .dwattr $C$DW$599, DW_AT_name("GPBMUX1")
    4410                      .dwattr $C$DW$599, DW_AT_TI_symbol_name("_GPBMUX1")
    4411                      .dwattr $C$DW$599, DW_AT_data_member_location[DW_OP_plus_uconst 0x16]
    4412                      .dwattr $C$DW$599, DW_AT_accessibility(DW_ACCESS_public)
    4413              $C$DW$600       .dwtag  DW_TAG_member
    4414                      .dwattr $C$DW$600, DW_AT_type(*$C$DW$T$27)
    4415                      .dwattr $C$DW$600, DW_AT_name("rsvd_3")
    4416                      .dwattr $C$DW$600, DW_AT_TI_symbol_name("_rsvd_3")
    4417                      .dwattr $C$DW$600, DW_AT_data_member_location[DW_OP_plus_uconst 0x18]
    4418                      .dwattr $C$DW$600, DW_AT_accessibility(DW_ACCESS_public)
    4419              $C$DW$601       .dwtag  DW_TAG_member
    4420                      .dwattr $C$DW$601, DW_AT_type(*$C$DW$T$96)
    4421                      .dwattr $C$DW$601, DW_AT_name("GPBDIR")
    4422                      .dwattr $C$DW$601, DW_AT_TI_symbol_name("_GPBDIR")
    4423                      .dwattr $C$DW$601, DW_AT_data_member_location[DW_OP_plus_uconst 0x1a]
    4424                      .dwattr $C$DW$601, DW_AT_accessibility(DW_ACCESS_public)
    4425              $C$DW$602       .dwtag  DW_TAG_member
    4426                      .dwattr $C$DW$602, DW_AT_type(*$C$DW$T$96)
    4427                      .dwattr $C$DW$602, DW_AT_name("GPBPUD")
    4428                      .dwattr $C$DW$602, DW_AT_TI_symbol_name("_GPBPUD")
    4429                      .dwattr $C$DW$602, DW_AT_data_member_location[DW_OP_plus_uconst 0x1c]
    4430                      .dwattr $C$DW$602, DW_AT_accessibility(DW_ACCESS_public)
    4431              $C$DW$603       .dwtag  DW_TAG_member
    4432                      .dwattr $C$DW$603, DW_AT_type(*$C$DW$T$97)
    4433                      .dwattr $C$DW$603, DW_AT_name("rsvd_4")
    4434                      .dwattr $C$DW$603, DW_AT_TI_symbol_name("_rsvd_4")
    4435                      .dwattr $C$DW$603, DW_AT_data_member_location[DW_OP_plus_uconst 0x1e]
    4436                      .dwattr $C$DW$603, DW_AT_accessibility(DW_ACCESS_public)
    4437              $C$DW$604       .dwtag  DW_TAG_member
    4438                      .dwattr $C$DW$604, DW_AT_type(*$C$DW$T$96)
    4439                      .dwattr $C$DW$604, DW_AT_name("AIOMUX1")
    4440                      .dwattr $C$DW$604, DW_AT_TI_symbol_name("_AIOMUX1")
    4441                      .dwattr $C$DW$604, DW_AT_data_member_location[DW_OP_plus_uconst 0x36]
    4442                      .dwattr $C$DW$604, DW_AT_accessibility(DW_ACCESS_public)
    4443              $C$DW$605       .dwtag  DW_TAG_member
    4444                      .dwattr $C$DW$605, DW_AT_type(*$C$DW$T$27)
    4445                      .dwattr $C$DW$605, DW_AT_name("rsvd_5")
    4446                      .dwattr $C$DW$605, DW_AT_TI_symbol_name("_rsvd_5")
    4447                      .dwattr $C$DW$605, DW_AT_data_member_location[DW_OP_plus_uconst 0x38]
    4448                      .dwattr $C$DW$605, DW_AT_accessibility(DW_ACCESS_public)
    4449              $C$DW$606       .dwtag  DW_TAG_member
    4450                      .dwattr $C$DW$606, DW_AT_type(*$C$DW$T$96)
    4451                      .dwattr $C$DW$606, DW_AT_name("AIODIR")
    4452                      .dwattr $C$DW$606, DW_AT_TI_symbol_name("_AIODIR")
    4453                      .dwattr $C$DW$606, DW_AT_data_member_location[DW_OP_plus_uconst 0x3a]
    4454                      .dwattr $C$DW$606, DW_AT_accessibility(DW_ACCESS_public)
    4455              $C$DW$607       .dwtag  DW_TAG_member
    4456                      .dwattr $C$DW$607, DW_AT_type(*$C$DW$T$98)
    4457                      .dwattr $C$DW$607, DW_AT_name("rsvd_6")
TMS320C2000 Assembler PC v6.2.5 Fri Sep 29 09:29:33 2017

Tools Copyright (c) 1996-2014 Texas Instruments Incorporated
C:\Users\wmj\AppData\Local\Temp\1142410                              PAGE   83

    4458                      .dwattr $C$DW$607, DW_AT_TI_symbol_name("_rsvd_6")
    4459                      .dwattr $C$DW$607, DW_AT_data_member_location[DW_OP_plus_uconst 0x3c]
    4460                      .dwattr $C$DW$607, DW_AT_accessibility(DW_ACCESS_public)
    4461              $C$DW$608       .dwtag  DW_TAG_member
    4462                      .dwattr $C$DW$608, DW_AT_type(*$C$DW$T$96)
    4463                      .dwattr $C$DW$608, DW_AT_name("GPADAT")
    4464                      .dwattr $C$DW$608, DW_AT_TI_symbol_name("_GPADAT")
    4465                      .dwattr $C$DW$608, DW_AT_data_member_location[DW_OP_plus_uconst 0x40]
    4466                      .dwattr $C$DW$608, DW_AT_accessibility(DW_ACCESS_public)
    4467              $C$DW$609       .dwtag  DW_TAG_member
    4468                      .dwattr $C$DW$609, DW_AT_type(*$C$DW$T$96)
    4469                      .dwattr $C$DW$609, DW_AT_name("GPASET")
    4470                      .dwattr $C$DW$609, DW_AT_TI_symbol_name("_GPASET")
    4471                      .dwattr $C$DW$609, DW_AT_data_member_location[DW_OP_plus_uconst 0x42]
    4472                      .dwattr $C$DW$609, DW_AT_accessibility(DW_ACCESS_public)
    4473              $C$DW$610       .dwtag  DW_TAG_member
    4474                      .dwattr $C$DW$610, DW_AT_type(*$C$DW$T$96)
    4475                      .dwattr $C$DW$610, DW_AT_name("GPACLEAR")
    4476                      .dwattr $C$DW$610, DW_AT_TI_symbol_name("_GPACLEAR")
    4477                      .dwattr $C$DW$610, DW_AT_data_member_location[DW_OP_plus_uconst 0x44]
    4478                      .dwattr $C$DW$610, DW_AT_accessibility(DW_ACCESS_public)
    4479              $C$DW$611       .dwtag  DW_TAG_member
    4480                      .dwattr $C$DW$611, DW_AT_type(*$C$DW$T$96)
    4481                      .dwattr $C$DW$611, DW_AT_name("GPATOGGLE")
    4482                      .dwattr $C$DW$611, DW_AT_TI_symbol_name("_GPATOGGLE")
    4483                      .dwattr $C$DW$611, DW_AT_data_member_location[DW_OP_plus_uconst 0x46]
    4484                      .dwattr $C$DW$611, DW_AT_accessibility(DW_ACCESS_public)
    4485              $C$DW$612       .dwtag  DW_TAG_member
    4486                      .dwattr $C$DW$612, DW_AT_type(*$C$DW$T$96)
    4487                      .dwattr $C$DW$612, DW_AT_name("GPBDAT")
    4488                      .dwattr $C$DW$612, DW_AT_TI_symbol_name("_GPBDAT")
    4489                      .dwattr $C$DW$612, DW_AT_data_member_location[DW_OP_plus_uconst 0x48]
    4490                      .dwattr $C$DW$612, DW_AT_accessibility(DW_ACCESS_public)
    4491              $C$DW$613       .dwtag  DW_TAG_member
    4492                      .dwattr $C$DW$613, DW_AT_type(*$C$DW$T$96)
    4493                      .dwattr $C$DW$613, DW_AT_name("GPBSET")
    4494                      .dwattr $C$DW$613, DW_AT_TI_symbol_name("_GPBSET")
    4495                      .dwattr $C$DW$613, DW_AT_data_member_location[DW_OP_plus_uconst 0x4a]
    4496                      .dwattr $C$DW$613, DW_AT_accessibility(DW_ACCESS_public)
    4497              $C$DW$614       .dwtag  DW_TAG_member
    4498                      .dwattr $C$DW$614, DW_AT_type(*$C$DW$T$96)
    4499                      .dwattr $C$DW$614, DW_AT_name("GPBCLEAR")
    4500                      .dwattr $C$DW$614, DW_AT_TI_symbol_name("_GPBCLEAR")
    4501                      .dwattr $C$DW$614, DW_AT_data_member_location[DW_OP_plus_uconst 0x4c]
    4502                      .dwattr $C$DW$614, DW_AT_accessibility(DW_ACCESS_public)
    4503              $C$DW$615       .dwtag  DW_TAG_member
    4504                      .dwattr $C$DW$615, DW_AT_type(*$C$DW$T$96)
    4505                      .dwattr $C$DW$615, DW_AT_name("GPBTOGGLE")
    4506                      .dwattr $C$DW$615, DW_AT_TI_symbol_name("_GPBTOGGLE")
    4507                      .dwattr $C$DW$615, DW_AT_data_member_location[DW_OP_plus_uconst 0x4e]
    4508                      .dwattr $C$DW$615, DW_AT_accessibility(DW_ACCESS_public)
    4509              $C$DW$616       .dwtag  DW_TAG_member
    4510                      .dwattr $C$DW$616, DW_AT_type(*$C$DW$T$38)
    4511                      .dwattr $C$DW$616, DW_AT_name("rsvd_7")
    4512                      .dwattr $C$DW$616, DW_AT_TI_symbol_name("_rsvd_7")
TMS320C2000 Assembler PC v6.2.5 Fri Sep 29 09:29:33 2017

Tools Copyright (c) 1996-2014 Texas Instruments Incorporated
C:\Users\wmj\AppData\Local\Temp\1142410                              PAGE   84

    4513                      .dwattr $C$DW$616, DW_AT_data_member_location[DW_OP_plus_uconst 0x50]
    4514                      .dwattr $C$DW$616, DW_AT_accessibility(DW_ACCESS_public)
    4515              $C$DW$617       .dwtag  DW_TAG_member
    4516                      .dwattr $C$DW$617, DW_AT_type(*$C$DW$T$96)
    4517                      .dwattr $C$DW$617, DW_AT_name("AIODAT")
    4518                      .dwattr $C$DW$617, DW_AT_TI_symbol_name("_AIODAT")
    4519                      .dwattr $C$DW$617, DW_AT_data_member_location[DW_OP_plus_uconst 0x58]
    4520                      .dwattr $C$DW$617, DW_AT_accessibility(DW_ACCESS_public)
    4521              $C$DW$618       .dwtag  DW_TAG_member
    4522                      .dwattr $C$DW$618, DW_AT_type(*$C$DW$T$96)
    4523                      .dwattr $C$DW$618, DW_AT_name("AIOSET")
    4524                      .dwattr $C$DW$618, DW_AT_TI_symbol_name("_AIOSET")
    4525                      .dwattr $C$DW$618, DW_AT_data_member_location[DW_OP_plus_uconst 0x5a]
    4526                      .dwattr $C$DW$618, DW_AT_accessibility(DW_ACCESS_public)
    4527              $C$DW$619       .dwtag  DW_TAG_member
    4528                      .dwattr $C$DW$619, DW_AT_type(*$C$DW$T$96)
    4529                      .dwattr $C$DW$619, DW_AT_name("AIOCLEAR")
    4530                      .dwattr $C$DW$619, DW_AT_TI_symbol_name("_AIOCLEAR")
    4531                      .dwattr $C$DW$619, DW_AT_data_member_location[DW_OP_plus_uconst 0x5c]
    4532                      .dwattr $C$DW$619, DW_AT_accessibility(DW_ACCESS_public)
    4533              $C$DW$620       .dwtag  DW_TAG_member
    4534                      .dwattr $C$DW$620, DW_AT_type(*$C$DW$T$96)
    4535                      .dwattr $C$DW$620, DW_AT_name("AIOTOGGLE")
    4536                      .dwattr $C$DW$620, DW_AT_TI_symbol_name("_AIOTOGGLE")
    4537                      .dwattr $C$DW$620, DW_AT_data_member_location[DW_OP_plus_uconst 0x5e]
    4538                      .dwattr $C$DW$620, DW_AT_accessibility(DW_ACCESS_public)
    4539              $C$DW$621       .dwtag  DW_TAG_member
    4540                      .dwattr $C$DW$621, DW_AT_type(*$C$DW$T$29)
    4541                      .dwattr $C$DW$621, DW_AT_name("GPIOXINTnSEL")
    4542                      .dwattr $C$DW$621, DW_AT_TI_symbol_name("_GPIOXINTnSEL")
    4543                      .dwattr $C$DW$621, DW_AT_data_member_location[DW_OP_plus_uconst 0x60]
    4544                      .dwattr $C$DW$621, DW_AT_accessibility(DW_ACCESS_public)
    4545              $C$DW$622       .dwtag  DW_TAG_member
    4546                      .dwattr $C$DW$622, DW_AT_type(*$C$DW$T$28)
    4547                      .dwattr $C$DW$622, DW_AT_name("rsvd_8")
    4548                      .dwattr $C$DW$622, DW_AT_TI_symbol_name("_rsvd_8")
    4549                      .dwattr $C$DW$622, DW_AT_data_member_location[DW_OP_plus_uconst 0x63]
    4550                      .dwattr $C$DW$622, DW_AT_accessibility(DW_ACCESS_public)
    4551              $C$DW$623       .dwtag  DW_TAG_member
    4552                      .dwattr $C$DW$623, DW_AT_type(*$C$DW$T$96)
    4553                      .dwattr $C$DW$623, DW_AT_name("GPIOLPMSEL")
    4554                      .dwattr $C$DW$623, DW_AT_TI_symbol_name("_GPIOLPMSEL")
    4555                      .dwattr $C$DW$623, DW_AT_data_member_location[DW_OP_plus_uconst 0x68]
    4556                      .dwattr $C$DW$623, DW_AT_accessibility(DW_ACCESS_public)
    4557                      .dwendtag $C$DW$T$99
    4558              
    4559              $C$DW$T$110     .dwtag  DW_TAG_pointer_type
    4560                      .dwattr $C$DW$T$110, DW_AT_type(*$C$DW$T$99)
    4561                      .dwattr $C$DW$T$110, DW_AT_address_class(0x16)
    4562              $C$DW$T$111     .dwtag  DW_TAG_typedef, DW_AT_name("GPIO_Handle")
    4563                      .dwattr $C$DW$T$111, DW_AT_type(*$C$DW$T$110)
    4564                      .dwattr $C$DW$T$111, DW_AT_language(DW_LANG_C)
    4565              $C$DW$624       .dwtag  DW_TAG_TI_far_type
    4566                      .dwattr $C$DW$624, DW_AT_type(*$C$DW$T$111)
    4567              $C$DW$T$231     .dwtag  DW_TAG_const_type
TMS320C2000 Assembler PC v6.2.5 Fri Sep 29 09:29:33 2017

Tools Copyright (c) 1996-2014 Texas Instruments Incorporated
C:\Users\wmj\AppData\Local\Temp\1142410                              PAGE   85

    4568                      .dwattr $C$DW$T$231, DW_AT_type(*$C$DW$624)
    4569              
    4570              $C$DW$T$101     .dwtag  DW_TAG_structure_type
    4571                      .dwattr $C$DW$T$101, DW_AT_name("_HAL_AdcData_t_")
    4572                      .dwattr $C$DW$T$101, DW_AT_byte_size(0x16)
    4573              $C$DW$625       .dwtag  DW_TAG_member
    4574                      .dwattr $C$DW$625, DW_AT_type(*$C$DW$T$100)
    4575                      .dwattr $C$DW$625, DW_AT_name("I")
    4576                      .dwattr $C$DW$625, DW_AT_TI_symbol_name("_I")
    4577                      .dwattr $C$DW$625, DW_AT_data_member_location[DW_OP_plus_uconst 0x0]
    4578                      .dwattr $C$DW$625, DW_AT_accessibility(DW_ACCESS_public)
    4579              $C$DW$626       .dwtag  DW_TAG_member
    4580                      .dwattr $C$DW$626, DW_AT_type(*$C$DW$T$100)
    4581                      .dwattr $C$DW$626, DW_AT_name("V")
    4582                      .dwattr $C$DW$626, DW_AT_TI_symbol_name("_V")
    4583                      .dwattr $C$DW$626, DW_AT_data_member_location[DW_OP_plus_uconst 0x6]
    4584                      .dwattr $C$DW$626, DW_AT_accessibility(DW_ACCESS_public)
    4585              $C$DW$627       .dwtag  DW_TAG_member
    4586                      .dwattr $C$DW$627, DW_AT_type(*$C$DW$T$32)
    4587                      .dwattr $C$DW$627, DW_AT_name("dcBus")
    4588                      .dwattr $C$DW$627, DW_AT_TI_symbol_name("_dcBus")
    4589                      .dwattr $C$DW$627, DW_AT_data_member_location[DW_OP_plus_uconst 0xc]
    4590                      .dwattr $C$DW$627, DW_AT_accessibility(DW_ACCESS_public)
    4591              $C$DW$628       .dwtag  DW_TAG_member
    4592                      .dwattr $C$DW$628, DW_AT_type(*$C$DW$T$32)
    4593                      .dwattr $C$DW$628, DW_AT_name("analogSensor1")
    4594                      .dwattr $C$DW$628, DW_AT_TI_symbol_name("_analogSensor1")
    4595                      .dwattr $C$DW$628, DW_AT_data_member_location[DW_OP_plus_uconst 0xe]
    4596                      .dwattr $C$DW$628, DW_AT_accessibility(DW_ACCESS_public)
    4597              $C$DW$629       .dwtag  DW_TAG_member
    4598                      .dwattr $C$DW$629, DW_AT_type(*$C$DW$T$32)
    4599                      .dwattr $C$DW$629, DW_AT_name("analogSensor2")
    4600                      .dwattr $C$DW$629, DW_AT_TI_symbol_name("_analogSensor2")
    4601                      .dwattr $C$DW$629, DW_AT_data_member_location[DW_OP_plus_uconst 0x10]
    4602                      .dwattr $C$DW$629, DW_AT_accessibility(DW_ACCESS_public)
    4603              $C$DW$630       .dwtag  DW_TAG_member
    4604                      .dwattr $C$DW$630, DW_AT_type(*$C$DW$T$32)
    4605                      .dwattr $C$DW$630, DW_AT_name("igbtNTC")
    4606                      .dwattr $C$DW$630, DW_AT_TI_symbol_name("_igbtNTC")
    4607                      .dwattr $C$DW$630, DW_AT_data_member_location[DW_OP_plus_uconst 0x12]
    4608                      .dwattr $C$DW$630, DW_AT_accessibility(DW_ACCESS_public)
    4609              $C$DW$631       .dwtag  DW_TAG_member
    4610                      .dwattr $C$DW$631, DW_AT_type(*$C$DW$T$32)
    4611                      .dwattr $C$DW$631, DW_AT_name("boardAddr")
    4612                      .dwattr $C$DW$631, DW_AT_TI_symbol_name("_boardAddr")
    4613                      .dwattr $C$DW$631, DW_AT_data_member_location[DW_OP_plus_uconst 0x14]
    4614                      .dwattr $C$DW$631, DW_AT_accessibility(DW_ACCESS_public)
    4615                      .dwendtag $C$DW$T$101
    4616              
    4617              $C$DW$T$139     .dwtag  DW_TAG_typedef, DW_AT_name("HAL_AdcData_t")
    4618                      .dwattr $C$DW$T$139, DW_AT_type(*$C$DW$T$101)
    4619                      .dwattr $C$DW$T$139, DW_AT_language(DW_LANG_C)
    4620              
    4621              $C$DW$T$142     .dwtag  DW_TAG_structure_type
    4622                      .dwattr $C$DW$T$142, DW_AT_name("_HAL_Obj_")
TMS320C2000 Assembler PC v6.2.5 Fri Sep 29 09:29:33 2017

Tools Copyright (c) 1996-2014 Texas Instruments Incorporated
C:\Users\wmj\AppData\Local\Temp\1142410                              PAGE   86

    4623                      .dwattr $C$DW$T$142, DW_AT_byte_size(0xb6)
    4624              $C$DW$632       .dwtag  DW_TAG_member
    4625                      .dwattr $C$DW$632, DW_AT_type(*$C$DW$T$103)
    4626                      .dwattr $C$DW$632, DW_AT_name("adcHandle")
    4627                      .dwattr $C$DW$632, DW_AT_TI_symbol_name("_adcHandle")
    4628                      .dwattr $C$DW$632, DW_AT_data_member_location[DW_OP_plus_uconst 0x0]
    4629                      .dwattr $C$DW$632, DW_AT_accessibility(DW_ACCESS_public)
    4630              $C$DW$633       .dwtag  DW_TAG_member
    4631                      .dwattr $C$DW$633, DW_AT_type(*$C$DW$T$105)
    4632                      .dwattr $C$DW$633, DW_AT_name("clkHandle")
    4633                      .dwattr $C$DW$633, DW_AT_TI_symbol_name("_clkHandle")
    4634                      .dwattr $C$DW$633, DW_AT_data_member_location[DW_OP_plus_uconst 0x2]
    4635                      .dwattr $C$DW$633, DW_AT_accessibility(DW_ACCESS_public)
    4636              $C$DW$634       .dwtag  DW_TAG_member
    4637                      .dwattr $C$DW$634, DW_AT_type(*$C$DW$T$107)
    4638                      .dwattr $C$DW$634, DW_AT_name("cpuHandle")
    4639                      .dwattr $C$DW$634, DW_AT_TI_symbol_name("_cpuHandle")
    4640                      .dwattr $C$DW$634, DW_AT_data_member_location[DW_OP_plus_uconst 0x4]
    4641                      .dwattr $C$DW$634, DW_AT_accessibility(DW_ACCESS_public)
    4642              $C$DW$635       .dwtag  DW_TAG_member
    4643                      .dwattr $C$DW$635, DW_AT_type(*$C$DW$T$109)
    4644                      .dwattr $C$DW$635, DW_AT_name("flashHandle")
    4645                      .dwattr $C$DW$635, DW_AT_TI_symbol_name("_flashHandle")
    4646                      .dwattr $C$DW$635, DW_AT_data_member_location[DW_OP_plus_uconst 0x6]
    4647                      .dwattr $C$DW$635, DW_AT_accessibility(DW_ACCESS_public)
    4648              $C$DW$636       .dwtag  DW_TAG_member
    4649                      .dwattr $C$DW$636, DW_AT_type(*$C$DW$T$111)
    4650                      .dwattr $C$DW$636, DW_AT_name("gpioHandle")
    4651                      .dwattr $C$DW$636, DW_AT_TI_symbol_name("_gpioHandle")
    4652                      .dwattr $C$DW$636, DW_AT_data_member_location[DW_OP_plus_uconst 0x8]
    4653                      .dwattr $C$DW$636, DW_AT_accessibility(DW_ACCESS_public)
    4654              $C$DW$637       .dwtag  DW_TAG_member
    4655                      .dwattr $C$DW$637, DW_AT_type(*$C$DW$T$114)
    4656                      .dwattr $C$DW$637, DW_AT_name("offsetHandle_I")
    4657                      .dwattr $C$DW$637, DW_AT_TI_symbol_name("_offsetHandle_I")
    4658                      .dwattr $C$DW$637, DW_AT_data_member_location[DW_OP_plus_uconst 0xa]
    4659                      .dwattr $C$DW$637, DW_AT_accessibility(DW_ACCESS_public)
    4660              $C$DW$638       .dwtag  DW_TAG_member
    4661                      .dwattr $C$DW$638, DW_AT_type(*$C$DW$T$116)
    4662                      .dwattr $C$DW$638, DW_AT_name("offset_I")
    4663                      .dwattr $C$DW$638, DW_AT_TI_symbol_name("_offset_I")
    4664                      .dwattr $C$DW$638, DW_AT_data_member_location[DW_OP_plus_uconst 0x10]
    4665                      .dwattr $C$DW$638, DW_AT_accessibility(DW_ACCESS_public)
    4666              $C$DW$639       .dwtag  DW_TAG_member
    4667                      .dwattr $C$DW$639, DW_AT_type(*$C$DW$T$114)
    4668                      .dwattr $C$DW$639, DW_AT_name("offsetHandle_V")
    4669                      .dwattr $C$DW$639, DW_AT_TI_symbol_name("_offsetHandle_V")
    4670                      .dwattr $C$DW$639, DW_AT_data_member_location[DW_OP_plus_uconst 0x40]
    4671                      .dwattr $C$DW$639, DW_AT_accessibility(DW_ACCESS_public)
    4672              $C$DW$640       .dwtag  DW_TAG_member
    4673                      .dwattr $C$DW$640, DW_AT_type(*$C$DW$T$116)
    4674                      .dwattr $C$DW$640, DW_AT_name("offset_V")
    4675                      .dwattr $C$DW$640, DW_AT_TI_symbol_name("_offset_V")
    4676                      .dwattr $C$DW$640, DW_AT_data_member_location[DW_OP_plus_uconst 0x46]
    4677                      .dwattr $C$DW$640, DW_AT_accessibility(DW_ACCESS_public)
TMS320C2000 Assembler PC v6.2.5 Fri Sep 29 09:29:33 2017

Tools Copyright (c) 1996-2014 Texas Instruments Incorporated
C:\Users\wmj\AppData\Local\Temp\1142410                              PAGE   87

    4678              $C$DW$641       .dwtag  DW_TAG_member
    4679                      .dwattr $C$DW$641, DW_AT_type(*$C$DW$T$118)
    4680                      .dwattr $C$DW$641, DW_AT_name("oscHandle")
    4681                      .dwattr $C$DW$641, DW_AT_TI_symbol_name("_oscHandle")
    4682                      .dwattr $C$DW$641, DW_AT_data_member_location[DW_OP_plus_uconst 0x76]
    4683                      .dwattr $C$DW$641, DW_AT_accessibility(DW_ACCESS_public)
    4684              $C$DW$642       .dwtag  DW_TAG_member
    4685                      .dwattr $C$DW$642, DW_AT_type(*$C$DW$T$120)
    4686                      .dwattr $C$DW$642, DW_AT_name("pieHandle")
    4687                      .dwattr $C$DW$642, DW_AT_TI_symbol_name("_pieHandle")
    4688                      .dwattr $C$DW$642, DW_AT_data_member_location[DW_OP_plus_uconst 0x78]
    4689                      .dwattr $C$DW$642, DW_AT_accessibility(DW_ACCESS_public)
    4690              $C$DW$643       .dwtag  DW_TAG_member
    4691                      .dwattr $C$DW$643, DW_AT_type(*$C$DW$T$122)
    4692                      .dwattr $C$DW$643, DW_AT_name("pllHandle")
    4693                      .dwattr $C$DW$643, DW_AT_TI_symbol_name("_pllHandle")
    4694                      .dwattr $C$DW$643, DW_AT_data_member_location[DW_OP_plus_uconst 0x7a]
    4695                      .dwattr $C$DW$643, DW_AT_accessibility(DW_ACCESS_public)
    4696              $C$DW$644       .dwtag  DW_TAG_member
    4697                      .dwattr $C$DW$644, DW_AT_type(*$C$DW$T$125)
    4698                      .dwattr $C$DW$644, DW_AT_name("pwmHandle")
    4699                      .dwattr $C$DW$644, DW_AT_TI_symbol_name("_pwmHandle")
    4700                      .dwattr $C$DW$644, DW_AT_data_member_location[DW_OP_plus_uconst 0x7c]
    4701                      .dwattr $C$DW$644, DW_AT_accessibility(DW_ACCESS_public)
    4702              $C$DW$645       .dwtag  DW_TAG_member
    4703                      .dwattr $C$DW$645, DW_AT_type(*$C$DW$T$125)
    4704                      .dwattr $C$DW$645, DW_AT_name("pwmDacHandle")
    4705                      .dwattr $C$DW$645, DW_AT_TI_symbol_name("_pwmDacHandle")
    4706                      .dwattr $C$DW$645, DW_AT_data_member_location[DW_OP_plus_uconst 0x82]
    4707                      .dwattr $C$DW$645, DW_AT_accessibility(DW_ACCESS_public)
    4708              $C$DW$646       .dwtag  DW_TAG_member
    4709                      .dwattr $C$DW$646, DW_AT_type(*$C$DW$T$127)
    4710                      .dwattr $C$DW$646, DW_AT_name("pwrHandle")
    4711                      .dwattr $C$DW$646, DW_AT_TI_symbol_name("_pwrHandle")
    4712                      .dwattr $C$DW$646, DW_AT_data_member_location[DW_OP_plus_uconst 0x88]
    4713                      .dwattr $C$DW$646, DW_AT_accessibility(DW_ACCESS_public)
    4714              $C$DW$647       .dwtag  DW_TAG_member
    4715                      .dwattr $C$DW$647, DW_AT_type(*$C$DW$T$130)
    4716                      .dwattr $C$DW$647, DW_AT_name("timerHandle")
    4717                      .dwattr $C$DW$647, DW_AT_TI_symbol_name("_timerHandle")
    4718                      .dwattr $C$DW$647, DW_AT_data_member_location[DW_OP_plus_uconst 0x8a]
    4719                      .dwattr $C$DW$647, DW_AT_accessibility(DW_ACCESS_public)
    4720              $C$DW$648       .dwtag  DW_TAG_member
    4721                      .dwattr $C$DW$648, DW_AT_type(*$C$DW$T$132)
    4722                      .dwattr $C$DW$648, DW_AT_name("i2cHandle")
    4723                      .dwattr $C$DW$648, DW_AT_TI_symbol_name("_i2cHandle")
    4724                      .dwattr $C$DW$648, DW_AT_data_member_location[DW_OP_plus_uconst 0x90]
    4725                      .dwattr $C$DW$648, DW_AT_accessibility(DW_ACCESS_public)
    4726              $C$DW$649       .dwtag  DW_TAG_member
    4727                      .dwattr $C$DW$649, DW_AT_type(*$C$DW$T$134)
    4728                      .dwattr $C$DW$649, DW_AT_name("spiAHandle")
    4729                      .dwattr $C$DW$649, DW_AT_TI_symbol_name("_spiAHandle")
    4730                      .dwattr $C$DW$649, DW_AT_data_member_location[DW_OP_plus_uconst 0x92]
    4731                      .dwattr $C$DW$649, DW_AT_accessibility(DW_ACCESS_public)
    4732              $C$DW$650       .dwtag  DW_TAG_member
TMS320C2000 Assembler PC v6.2.5 Fri Sep 29 09:29:33 2017

Tools Copyright (c) 1996-2014 Texas Instruments Incorporated
C:\Users\wmj\AppData\Local\Temp\1142410                              PAGE   88

    4733                      .dwattr $C$DW$650, DW_AT_type(*$C$DW$T$136)
    4734                      .dwattr $C$DW$650, DW_AT_name("wdogHandle")
    4735                      .dwattr $C$DW$650, DW_AT_TI_symbol_name("_wdogHandle")
    4736                      .dwattr $C$DW$650, DW_AT_data_member_location[DW_OP_plus_uconst 0x94]
    4737                      .dwattr $C$DW$650, DW_AT_accessibility(DW_ACCESS_public)
    4738              $C$DW$651       .dwtag  DW_TAG_member
    4739                      .dwattr $C$DW$651, DW_AT_type(*$C$DW$T$138)
    4740                      .dwattr $C$DW$651, DW_AT_name("sciHandle")
    4741                      .dwattr $C$DW$651, DW_AT_TI_symbol_name("_sciHandle")
    4742                      .dwattr $C$DW$651, DW_AT_data_member_location[DW_OP_plus_uconst 0x96]
    4743                      .dwattr $C$DW$651, DW_AT_accessibility(DW_ACCESS_public)
    4744              $C$DW$652       .dwtag  DW_TAG_member
    4745                      .dwattr $C$DW$652, DW_AT_type(*$C$DW$T$139)
    4746                      .dwattr $C$DW$652, DW_AT_name("adcBias")
    4747                      .dwattr $C$DW$652, DW_AT_TI_symbol_name("_adcBias")
    4748                      .dwattr $C$DW$652, DW_AT_data_member_location[DW_OP_plus_uconst 0x98]
    4749                      .dwattr $C$DW$652, DW_AT_accessibility(DW_ACCESS_public)
    4750              $C$DW$653       .dwtag  DW_TAG_member
    4751                      .dwattr $C$DW$653, DW_AT_type(*$C$DW$T$32)
    4752                      .dwattr $C$DW$653, DW_AT_name("current_sf")
    4753                      .dwattr $C$DW$653, DW_AT_TI_symbol_name("_current_sf")
    4754                      .dwattr $C$DW$653, DW_AT_data_member_location[DW_OP_plus_uconst 0xae]
    4755                      .dwattr $C$DW$653, DW_AT_accessibility(DW_ACCESS_public)
    4756              $C$DW$654       .dwtag  DW_TAG_member
    4757                      .dwattr $C$DW$654, DW_AT_type(*$C$DW$T$32)
    4758                      .dwattr $C$DW$654, DW_AT_name("voltage_sf")
    4759                      .dwattr $C$DW$654, DW_AT_TI_symbol_name("_voltage_sf")
    4760                      .dwattr $C$DW$654, DW_AT_data_member_location[DW_OP_plus_uconst 0xb0]
    4761                      .dwattr $C$DW$654, DW_AT_accessibility(DW_ACCESS_public)
    4762              $C$DW$655       .dwtag  DW_TAG_member
    4763                      .dwattr $C$DW$655, DW_AT_type(*$C$DW$T$36)
    4764                      .dwattr $C$DW$655, DW_AT_name("numCurrentSensors")
    4765                      .dwattr $C$DW$655, DW_AT_TI_symbol_name("_numCurrentSensors")
    4766                      .dwattr $C$DW$655, DW_AT_data_member_location[DW_OP_plus_uconst 0xb2]
    4767                      .dwattr $C$DW$655, DW_AT_accessibility(DW_ACCESS_public)
    4768              $C$DW$656       .dwtag  DW_TAG_member
    4769                      .dwattr $C$DW$656, DW_AT_type(*$C$DW$T$36)
    4770                      .dwattr $C$DW$656, DW_AT_name("numVoltageSensors")
    4771                      .dwattr $C$DW$656, DW_AT_TI_symbol_name("_numVoltageSensors")
    4772                      .dwattr $C$DW$656, DW_AT_data_member_location[DW_OP_plus_uconst 0xb3]
    4773                      .dwattr $C$DW$656, DW_AT_accessibility(DW_ACCESS_public)
    4774              $C$DW$657       .dwtag  DW_TAG_member
    4775                      .dwattr $C$DW$657, DW_AT_type(*$C$DW$T$141)
    4776                      .dwattr $C$DW$657, DW_AT_name("boardAddress")
    4777                      .dwattr $C$DW$657, DW_AT_TI_symbol_name("_boardAddress")
    4778                      .dwattr $C$DW$657, DW_AT_data_member_location[DW_OP_plus_uconst 0xb4]
    4779                      .dwattr $C$DW$657, DW_AT_accessibility(DW_ACCESS_public)
    4780                      .dwendtag $C$DW$T$142
    4781              
    4782              $C$DW$T$197     .dwtag  DW_TAG_pointer_type
    4783                      .dwattr $C$DW$T$197, DW_AT_type(*$C$DW$T$142)
    4784                      .dwattr $C$DW$T$197, DW_AT_address_class(0x16)
    4785              $C$DW$T$198     .dwtag  DW_TAG_typedef, DW_AT_name("HAL_Handle")
    4786                      .dwattr $C$DW$T$198, DW_AT_type(*$C$DW$T$197)
    4787                      .dwattr $C$DW$T$198, DW_AT_language(DW_LANG_C)
TMS320C2000 Assembler PC v6.2.5 Fri Sep 29 09:29:33 2017

Tools Copyright (c) 1996-2014 Texas Instruments Incorporated
C:\Users\wmj\AppData\Local\Temp\1142410                              PAGE   89

    4788              
    4789              $C$DW$T$143     .dwtag  DW_TAG_structure_type
    4790                      .dwattr $C$DW$T$143, DW_AT_name("_IPARK_Obj_")
    4791                      .dwattr $C$DW$T$143, DW_AT_byte_size(0x04)
    4792              $C$DW$658       .dwtag  DW_TAG_member
    4793                      .dwattr $C$DW$658, DW_AT_type(*$C$DW$T$32)
    4794                      .dwattr $C$DW$658, DW_AT_name("sinTh")
    4795                      .dwattr $C$DW$658, DW_AT_TI_symbol_name("_sinTh")
    4796                      .dwattr $C$DW$658, DW_AT_data_member_location[DW_OP_plus_uconst 0x0]
    4797                      .dwattr $C$DW$658, DW_AT_accessibility(DW_ACCESS_public)
    4798              $C$DW$659       .dwtag  DW_TAG_member
    4799                      .dwattr $C$DW$659, DW_AT_type(*$C$DW$T$32)
    4800                      .dwattr $C$DW$659, DW_AT_name("cosTh")
    4801                      .dwattr $C$DW$659, DW_AT_TI_symbol_name("_cosTh")
    4802                      .dwattr $C$DW$659, DW_AT_data_member_location[DW_OP_plus_uconst 0x2]
    4803                      .dwattr $C$DW$659, DW_AT_accessibility(DW_ACCESS_public)
    4804                      .dwendtag $C$DW$T$143
    4805              
    4806              $C$DW$T$59      .dwtag  DW_TAG_typedef, DW_AT_name("IPARK_Obj")
    4807                      .dwattr $C$DW$T$59, DW_AT_type(*$C$DW$T$143)
    4808                      .dwattr $C$DW$T$59, DW_AT_language(DW_LANG_C)
    4809              $C$DW$T$57      .dwtag  DW_TAG_pointer_type
    4810                      .dwattr $C$DW$T$57, DW_AT_type(*$C$DW$T$143)
    4811                      .dwattr $C$DW$T$57, DW_AT_address_class(0x16)
    4812              $C$DW$T$58      .dwtag  DW_TAG_typedef, DW_AT_name("IPARK_Handle")
    4813                      .dwattr $C$DW$T$58, DW_AT_type(*$C$DW$T$57)
    4814                      .dwattr $C$DW$T$58, DW_AT_language(DW_LANG_C)
    4815              
    4816              $C$DW$T$145     .dwtag  DW_TAG_structure_type
    4817                      .dwattr $C$DW$T$145, DW_AT_name("_MATH_vec2_")
    4818                      .dwattr $C$DW$T$145, DW_AT_byte_size(0x04)
    4819              $C$DW$660       .dwtag  DW_TAG_member
    4820                      .dwattr $C$DW$660, DW_AT_type(*$C$DW$T$144)
    4821                      .dwattr $C$DW$660, DW_AT_name("value")
    4822                      .dwattr $C$DW$660, DW_AT_TI_symbol_name("_value")
    4823                      .dwattr $C$DW$660, DW_AT_data_member_location[DW_OP_plus_uconst 0x0]
    4824                      .dwattr $C$DW$660, DW_AT_accessibility(DW_ACCESS_public)
    4825                      .dwendtag $C$DW$T$145
    4826              
    4827              $C$DW$T$33      .dwtag  DW_TAG_typedef, DW_AT_name("MATH_vec2")
    4828                      .dwattr $C$DW$T$33, DW_AT_type(*$C$DW$T$145)
    4829                      .dwattr $C$DW$T$33, DW_AT_language(DW_LANG_C)
    4830              
    4831              $C$DW$T$147     .dwtag  DW_TAG_structure_type
    4832                      .dwattr $C$DW$T$147, DW_AT_name("_MATH_vec3_")
    4833                      .dwattr $C$DW$T$147, DW_AT_byte_size(0x06)
    4834              $C$DW$661       .dwtag  DW_TAG_member
    4835                      .dwattr $C$DW$661, DW_AT_type(*$C$DW$T$146)
    4836                      .dwattr $C$DW$661, DW_AT_name("value")
    4837                      .dwattr $C$DW$661, DW_AT_TI_symbol_name("_value")
    4838                      .dwattr $C$DW$661, DW_AT_data_member_location[DW_OP_plus_uconst 0x0]
    4839                      .dwattr $C$DW$661, DW_AT_accessibility(DW_ACCESS_public)
    4840                      .dwendtag $C$DW$T$147
    4841              
    4842              $C$DW$T$100     .dwtag  DW_TAG_typedef, DW_AT_name("MATH_vec3")
TMS320C2000 Assembler PC v6.2.5 Fri Sep 29 09:29:33 2017

Tools Copyright (c) 1996-2014 Texas Instruments Incorporated
C:\Users\wmj\AppData\Local\Temp\1142410                              PAGE   90

    4843                      .dwattr $C$DW$T$100, DW_AT_type(*$C$DW$T$147)
    4844                      .dwattr $C$DW$T$100, DW_AT_language(DW_LANG_C)
    4845              
    4846              $C$DW$T$164     .dwtag  DW_TAG_structure_type
    4847                      .dwattr $C$DW$T$164, DW_AT_name("_MB_Obj_")
    4848                      .dwattr $C$DW$T$164, DW_AT_byte_size(0x1e)
    4849              $C$DW$662       .dwtag  DW_TAG_member
    4850                      .dwattr $C$DW$662, DW_AT_type(*$C$DW$T$111)
    4851                      .dwattr $C$DW$662, DW_AT_name("gpioHandle")
    4852                      .dwattr $C$DW$662, DW_AT_TI_symbol_name("_gpioHandle")
    4853                      .dwattr $C$DW$662, DW_AT_data_member_location[DW_OP_plus_uconst 0x0]
    4854                      .dwattr $C$DW$662, DW_AT_accessibility(DW_ACCESS_public)
    4855              $C$DW$663       .dwtag  DW_TAG_member
    4856                      .dwattr $C$DW$663, DW_AT_type(*$C$DW$T$129)
    4857                      .dwattr $C$DW$663, DW_AT_name("timerHandle")
    4858                      .dwattr $C$DW$663, DW_AT_TI_symbol_name("_timerHandle")
    4859                      .dwattr $C$DW$663, DW_AT_data_member_location[DW_OP_plus_uconst 0x2]
    4860                      .dwattr $C$DW$663, DW_AT_accessibility(DW_ACCESS_public)
    4861              $C$DW$664       .dwtag  DW_TAG_member
    4862                      .dwattr $C$DW$664, DW_AT_type(*$C$DW$T$138)
    4863                      .dwattr $C$DW$664, DW_AT_name("sciHandle")
    4864                      .dwattr $C$DW$664, DW_AT_TI_symbol_name("_sciHandle")
    4865                      .dwattr $C$DW$664, DW_AT_data_member_location[DW_OP_plus_uconst 0x4]
    4866                      .dwattr $C$DW$664, DW_AT_accessibility(DW_ACCESS_public)
    4867              $C$DW$665       .dwtag  DW_TAG_member
    4868                      .dwattr $C$DW$665, DW_AT_type(*$C$DW$T$149)
    4869                      .dwattr $C$DW$665, DW_AT_name("proctrlHandle")
    4870                      .dwattr $C$DW$665, DW_AT_TI_symbol_name("_proctrlHandle")
    4871                      .dwattr $C$DW$665, DW_AT_data_member_location[DW_OP_plus_uconst 0x6]
    4872                      .dwattr $C$DW$665, DW_AT_accessibility(DW_ACCESS_public)
    4873              $C$DW$666       .dwtag  DW_TAG_member
    4874                      .dwattr $C$DW$666, DW_AT_type(*$C$DW$T$151)
    4875                      .dwattr $C$DW$666, DW_AT_name("RTU_Frame")
    4876                      .dwattr $C$DW$666, DW_AT_TI_symbol_name("_RTU_Frame")
    4877                      .dwattr $C$DW$666, DW_AT_data_member_location[DW_OP_plus_uconst 0x8]
    4878                      .dwattr $C$DW$666, DW_AT_accessibility(DW_ACCESS_public)
    4879              $C$DW$667       .dwtag  DW_TAG_member
    4880                      .dwattr $C$DW$667, DW_AT_type(*$C$DW$T$153)
    4881                      .dwattr $C$DW$667, DW_AT_name("RTUBuf")
    4882                      .dwattr $C$DW$667, DW_AT_TI_symbol_name("_RTUBuf")
    4883                      .dwattr $C$DW$667, DW_AT_data_member_location[DW_OP_plus_uconst 0xa]
    4884                      .dwattr $C$DW$667, DW_AT_accessibility(DW_ACCESS_public)
    4885              $C$DW$668       .dwtag  DW_TAG_member
    4886                      .dwattr $C$DW$668, DW_AT_type(*$C$DW$T$152)
    4887                      .dwattr $C$DW$668, DW_AT_name("RcvBufferPos")
    4888                      .dwattr $C$DW$668, DW_AT_TI_symbol_name("_RcvBufferPos")
    4889                      .dwattr $C$DW$668, DW_AT_data_member_location[DW_OP_plus_uconst 0x12]
    4890                      .dwattr $C$DW$668, DW_AT_accessibility(DW_ACCESS_public)
    4891              $C$DW$669       .dwtag  DW_TAG_member
    4892                      .dwattr $C$DW$669, DW_AT_type(*$C$DW$T$154)
    4893                      .dwattr $C$DW$669, DW_AT_name("SndBufferCur")
    4894                      .dwattr $C$DW$669, DW_AT_TI_symbol_name("_SndBufferCur")
    4895                      .dwattr $C$DW$669, DW_AT_data_member_location[DW_OP_plus_uconst 0x14]
    4896                      .dwattr $C$DW$669, DW_AT_accessibility(DW_ACCESS_public)
    4897              $C$DW$670       .dwtag  DW_TAG_member
TMS320C2000 Assembler PC v6.2.5 Fri Sep 29 09:29:33 2017

Tools Copyright (c) 1996-2014 Texas Instruments Incorporated
C:\Users\wmj\AppData\Local\Temp\1142410                              PAGE   91

    4898                      .dwattr $C$DW$670, DW_AT_type(*$C$DW$T$155)
    4899                      .dwattr $C$DW$670, DW_AT_name("SndBufferCount")
    4900                      .dwattr $C$DW$670, DW_AT_TI_symbol_name("_SndBufferCount")
    4901                      .dwattr $C$DW$670, DW_AT_data_member_location[DW_OP_plus_uconst 0x16]
    4902                      .dwattr $C$DW$670, DW_AT_accessibility(DW_ACCESS_public)
    4903              $C$DW$671       .dwtag  DW_TAG_member
    4904                      .dwattr $C$DW$671, DW_AT_type(*$C$DW$T$152)
    4905                      .dwattr $C$DW$671, DW_AT_name("SlaveAddress")
    4906                      .dwattr $C$DW$671, DW_AT_TI_symbol_name("_SlaveAddress")
    4907                      .dwattr $C$DW$671, DW_AT_data_member_location[DW_OP_plus_uconst 0x17]
    4908                      .dwattr $C$DW$671, DW_AT_accessibility(DW_ACCESS_public)
    4909              $C$DW$672       .dwtag  DW_TAG_member
    4910                      .dwattr $C$DW$672, DW_AT_type(*$C$DW$T$157)
    4911                      .dwattr $C$DW$672, DW_AT_name("eStatus")
    4912                      .dwattr $C$DW$672, DW_AT_TI_symbol_name("_eStatus")
    4913                      .dwattr $C$DW$672, DW_AT_data_member_location[DW_OP_plus_uconst 0x18]
    4914                      .dwattr $C$DW$672, DW_AT_accessibility(DW_ACCESS_public)
    4915              $C$DW$673       .dwtag  DW_TAG_member
    4916                      .dwattr $C$DW$673, DW_AT_type(*$C$DW$T$159)
    4917                      .dwattr $C$DW$673, DW_AT_name("eSndState")
    4918                      .dwattr $C$DW$673, DW_AT_TI_symbol_name("_eSndState")
    4919                      .dwattr $C$DW$673, DW_AT_data_member_location[DW_OP_plus_uconst 0x19]
    4920                      .dwattr $C$DW$673, DW_AT_accessibility(DW_ACCESS_public)
    4921              $C$DW$674       .dwtag  DW_TAG_member
    4922                      .dwattr $C$DW$674, DW_AT_type(*$C$DW$T$161)
    4923                      .dwattr $C$DW$674, DW_AT_name("eRcvState")
    4924                      .dwattr $C$DW$674, DW_AT_TI_symbol_name("_eRcvState")
    4925                      .dwattr $C$DW$674, DW_AT_data_member_location[DW_OP_plus_uconst 0x1a]
    4926                      .dwattr $C$DW$674, DW_AT_accessibility(DW_ACCESS_public)
    4927              $C$DW$675       .dwtag  DW_TAG_member
    4928                      .dwattr $C$DW$675, DW_AT_type(*$C$DW$T$34)
    4929                      .dwattr $C$DW$675, DW_AT_name("xEventInQueue")
    4930                      .dwattr $C$DW$675, DW_AT_TI_symbol_name("_xEventInQueue")
    4931                      .dwattr $C$DW$675, DW_AT_data_member_location[DW_OP_plus_uconst 0x1b]
    4932                      .dwattr $C$DW$675, DW_AT_accessibility(DW_ACCESS_public)
    4933              $C$DW$676       .dwtag  DW_TAG_member
    4934                      .dwattr $C$DW$676, DW_AT_type(*$C$DW$T$163)
    4935                      .dwattr $C$DW$676, DW_AT_name("eQueuedEvent")
    4936                      .dwattr $C$DW$676, DW_AT_TI_symbol_name("_eQueuedEvent")
    4937                      .dwattr $C$DW$676, DW_AT_data_member_location[DW_OP_plus_uconst 0x1c]
    4938                      .dwattr $C$DW$676, DW_AT_accessibility(DW_ACCESS_public)
    4939                      .dwendtag $C$DW$T$164
    4940              
    4941              $C$DW$T$233     .dwtag  DW_TAG_typedef, DW_AT_name("MB_Obj")
    4942                      .dwattr $C$DW$T$233, DW_AT_type(*$C$DW$T$164)
    4943                      .dwattr $C$DW$T$233, DW_AT_language(DW_LANG_C)
    4944              $C$DW$T$218     .dwtag  DW_TAG_pointer_type
    4945                      .dwattr $C$DW$T$218, DW_AT_type(*$C$DW$T$164)
    4946                      .dwattr $C$DW$T$218, DW_AT_address_class(0x16)
    4947              $C$DW$T$219     .dwtag  DW_TAG_typedef, DW_AT_name("MB_Handle")
    4948                      .dwattr $C$DW$T$219, DW_AT_type(*$C$DW$T$218)
    4949                      .dwattr $C$DW$T$219, DW_AT_language(DW_LANG_C)
    4950              $C$DW$677       .dwtag  DW_TAG_TI_far_type
    4951                      .dwattr $C$DW$677, DW_AT_type(*$C$DW$T$219)
    4952              $C$DW$T$234     .dwtag  DW_TAG_const_type
TMS320C2000 Assembler PC v6.2.5 Fri Sep 29 09:29:33 2017

Tools Copyright (c) 1996-2014 Texas Instruments Incorporated
C:\Users\wmj\AppData\Local\Temp\1142410                              PAGE   92

    4953                      .dwattr $C$DW$T$234, DW_AT_type(*$C$DW$677)
    4954              
    4955              $C$DW$T$166     .dwtag  DW_TAG_structure_type
    4956                      .dwattr $C$DW$T$166, DW_AT_name("_MB_RTU_t_")
    4957                      .dwattr $C$DW$T$166, DW_AT_byte_size(0x08)
    4958              $C$DW$678       .dwtag  DW_TAG_member
    4959                      .dwattr $C$DW$678, DW_AT_type(*$C$DW$T$152)
    4960                      .dwattr $C$DW$678, DW_AT_name("PDU_Address")
    4961                      .dwattr $C$DW$678, DW_AT_TI_symbol_name("_PDU_Address")
    4962                      .dwattr $C$DW$678, DW_AT_data_member_location[DW_OP_plus_uconst 0x0]
    4963                      .dwattr $C$DW$678, DW_AT_accessibility(DW_ACCESS_public)
    4964              $C$DW$679       .dwtag  DW_TAG_member
    4965                      .dwattr $C$DW$679, DW_AT_type(*$C$DW$T$152)
    4966                      .dwattr $C$DW$679, DW_AT_name("PDU_FunctionCode")
    4967                      .dwattr $C$DW$679, DW_AT_TI_symbol_name("_PDU_FunctionCode")
    4968                      .dwattr $C$DW$679, DW_AT_data_member_location[DW_OP_plus_uconst 0x1]
    4969                      .dwattr $C$DW$679, DW_AT_accessibility(DW_ACCESS_public)
    4970              $C$DW$680       .dwtag  DW_TAG_member
    4971                      .dwattr $C$DW$680, DW_AT_type(*$C$DW$T$165)
    4972                      .dwattr $C$DW$680, DW_AT_name("PDU_RegAddress")
    4973                      .dwattr $C$DW$680, DW_AT_TI_symbol_name("_PDU_RegAddress")
    4974                      .dwattr $C$DW$680, DW_AT_data_member_location[DW_OP_plus_uconst 0x2]
    4975                      .dwattr $C$DW$680, DW_AT_accessibility(DW_ACCESS_public)
    4976              $C$DW$681       .dwtag  DW_TAG_member
    4977                      .dwattr $C$DW$681, DW_AT_type(*$C$DW$T$165)
    4978                      .dwattr $C$DW$681, DW_AT_name("PDU_Data")
    4979                      .dwattr $C$DW$681, DW_AT_TI_symbol_name("_PDU_Data")
    4980                      .dwattr $C$DW$681, DW_AT_data_member_location[DW_OP_plus_uconst 0x4]
    4981                      .dwattr $C$DW$681, DW_AT_accessibility(DW_ACCESS_public)
    4982              $C$DW$682       .dwtag  DW_TAG_member
    4983                      .dwattr $C$DW$682, DW_AT_type(*$C$DW$T$152)
    4984                      .dwattr $C$DW$682, DW_AT_name("PDU_CRC_LByte")
    4985                      .dwattr $C$DW$682, DW_AT_TI_symbol_name("_PDU_CRC_LByte")
    4986                      .dwattr $C$DW$682, DW_AT_data_member_location[DW_OP_plus_uconst 0x6]
    4987                      .dwattr $C$DW$682, DW_AT_accessibility(DW_ACCESS_public)
    4988              $C$DW$683       .dwtag  DW_TAG_member
    4989                      .dwattr $C$DW$683, DW_AT_type(*$C$DW$T$152)
    4990                      .dwattr $C$DW$683, DW_AT_name("PDU_CRC_HByte")
    4991                      .dwattr $C$DW$683, DW_AT_TI_symbol_name("_PDU_CRC_HByte")
    4992                      .dwattr $C$DW$683, DW_AT_data_member_location[DW_OP_plus_uconst 0x7]
    4993                      .dwattr $C$DW$683, DW_AT_accessibility(DW_ACCESS_public)
    4994                      .dwendtag $C$DW$T$166
    4995              
    4996              $C$DW$T$150     .dwtag  DW_TAG_pointer_type
    4997                      .dwattr $C$DW$T$150, DW_AT_type(*$C$DW$T$166)
    4998                      .dwattr $C$DW$T$150, DW_AT_address_class(0x16)
    4999              $C$DW$T$151     .dwtag  DW_TAG_typedef, DW_AT_name("RTU_Frame")
    5000                      .dwattr $C$DW$T$151, DW_AT_type(*$C$DW$T$150)
    5001                      .dwattr $C$DW$T$151, DW_AT_language(DW_LANG_C)
    5002              
    5003              $C$DW$T$169     .dwtag  DW_TAG_structure_type
    5004                      .dwattr $C$DW$T$169, DW_AT_name("_MOTOR_Params_")
    5005                      .dwattr $C$DW$T$169, DW_AT_byte_size(0x0e)
    5006              $C$DW$684       .dwtag  DW_TAG_member
    5007                      .dwattr $C$DW$684, DW_AT_type(*$C$DW$T$168)
TMS320C2000 Assembler PC v6.2.5 Fri Sep 29 09:29:33 2017

Tools Copyright (c) 1996-2014 Texas Instruments Incorporated
C:\Users\wmj\AppData\Local\Temp\1142410                              PAGE   93

    5008                      .dwattr $C$DW$684, DW_AT_name("type")
    5009                      .dwattr $C$DW$684, DW_AT_TI_symbol_name("_type")
    5010                      .dwattr $C$DW$684, DW_AT_data_member_location[DW_OP_plus_uconst 0x0]
    5011                      .dwattr $C$DW$684, DW_AT_accessibility(DW_ACCESS_public)
    5012              $C$DW$685       .dwtag  DW_TAG_member
    5013                      .dwattr $C$DW$685, DW_AT_type(*$C$DW$T$70)
    5014                      .dwattr $C$DW$685, DW_AT_name("numPolePairs")
    5015                      .dwattr $C$DW$685, DW_AT_TI_symbol_name("_numPolePairs")
    5016                      .dwattr $C$DW$685, DW_AT_data_member_location[DW_OP_plus_uconst 0x1]
    5017                      .dwattr $C$DW$685, DW_AT_accessibility(DW_ACCESS_public)
    5018              $C$DW$686       .dwtag  DW_TAG_member
    5019                      .dwattr $C$DW$686, DW_AT_type(*$C$DW$T$71)
    5020                      .dwattr $C$DW$686, DW_AT_name("Lr_H")
    5021                      .dwattr $C$DW$686, DW_AT_TI_symbol_name("_Lr_H")
    5022                      .dwattr $C$DW$686, DW_AT_data_member_location[DW_OP_plus_uconst 0x2]
    5023                      .dwattr $C$DW$686, DW_AT_accessibility(DW_ACCESS_public)
    5024              $C$DW$687       .dwtag  DW_TAG_member
    5025                      .dwattr $C$DW$687, DW_AT_type(*$C$DW$T$71)
    5026                      .dwattr $C$DW$687, DW_AT_name("Ls_d_H")
    5027                      .dwattr $C$DW$687, DW_AT_TI_symbol_name("_Ls_d_H")
    5028                      .dwattr $C$DW$687, DW_AT_data_member_location[DW_OP_plus_uconst 0x4]
    5029                      .dwattr $C$DW$687, DW_AT_accessibility(DW_ACCESS_public)
    5030              $C$DW$688       .dwtag  DW_TAG_member
    5031                      .dwattr $C$DW$688, DW_AT_type(*$C$DW$T$71)
    5032                      .dwattr $C$DW$688, DW_AT_name("Ls_q_H")
    5033                      .dwattr $C$DW$688, DW_AT_TI_symbol_name("_Ls_q_H")
    5034                      .dwattr $C$DW$688, DW_AT_data_member_location[DW_OP_plus_uconst 0x6]
    5035                      .dwattr $C$DW$688, DW_AT_accessibility(DW_ACCESS_public)
    5036              $C$DW$689       .dwtag  DW_TAG_member
    5037                      .dwattr $C$DW$689, DW_AT_type(*$C$DW$T$71)
    5038                      .dwattr $C$DW$689, DW_AT_name("Rr_Ohm")
    5039                      .dwattr $C$DW$689, DW_AT_TI_symbol_name("_Rr_Ohm")
    5040                      .dwattr $C$DW$689, DW_AT_data_member_location[DW_OP_plus_uconst 0x8]
    5041                      .dwattr $C$DW$689, DW_AT_accessibility(DW_ACCESS_public)
    5042              $C$DW$690       .dwtag  DW_TAG_member
    5043                      .dwattr $C$DW$690, DW_AT_type(*$C$DW$T$71)
    5044                      .dwattr $C$DW$690, DW_AT_name("Rs_Ohm")
    5045                      .dwattr $C$DW$690, DW_AT_TI_symbol_name("_Rs_Ohm")
    5046                      .dwattr $C$DW$690, DW_AT_data_member_location[DW_OP_plus_uconst 0xa]
    5047                      .dwattr $C$DW$690, DW_AT_accessibility(DW_ACCESS_public)
    5048              $C$DW$691       .dwtag  DW_TAG_member
    5049                      .dwattr $C$DW$691, DW_AT_type(*$C$DW$T$71)
    5050                      .dwattr $C$DW$691, DW_AT_name("ratedFlux_VpHz")
    5051                      .dwattr $C$DW$691, DW_AT_TI_symbol_name("_ratedFlux_VpHz")
    5052                      .dwattr $C$DW$691, DW_AT_data_member_location[DW_OP_plus_uconst 0xc]
    5053                      .dwattr $C$DW$691, DW_AT_accessibility(DW_ACCESS_public)
    5054                      .dwendtag $C$DW$T$169
    5055              
    5056              $C$DW$T$66      .dwtag  DW_TAG_typedef, DW_AT_name("MOTOR_Params")
    5057                      .dwattr $C$DW$T$66, DW_AT_type(*$C$DW$T$169)
    5058                      .dwattr $C$DW$T$66, DW_AT_language(DW_LANG_C)
    5059              
    5060              $C$DW$T$174     .dwtag  DW_TAG_structure_type
    5061                      .dwattr $C$DW$T$174, DW_AT_name("_Motor_Obj_")
    5062                      .dwattr $C$DW$T$174, DW_AT_byte_size(0x7e)
TMS320C2000 Assembler PC v6.2.5 Fri Sep 29 09:29:33 2017

Tools Copyright (c) 1996-2014 Texas Instruments Incorporated
C:\Users\wmj\AppData\Local\Temp\1142410                              PAGE   94

    5063              $C$DW$692       .dwtag  DW_TAG_member
    5064                      .dwattr $C$DW$692, DW_AT_type(*$C$DW$T$34)
    5065                      .dwattr $C$DW$692, DW_AT_name("Flag_enableSys")
    5066                      .dwattr $C$DW$692, DW_AT_TI_symbol_name("_Flag_enableSys")
    5067                      .dwattr $C$DW$692, DW_AT_data_member_location[DW_OP_plus_uconst 0x0]
    5068                      .dwattr $C$DW$692, DW_AT_accessibility(DW_ACCESS_public)
    5069              $C$DW$693       .dwtag  DW_TAG_member
    5070                      .dwattr $C$DW$693, DW_AT_type(*$C$DW$T$34)
    5071                      .dwattr $C$DW$693, DW_AT_name("Flag_Run_Identify")
    5072                      .dwattr $C$DW$693, DW_AT_TI_symbol_name("_Flag_Run_Identify")
    5073                      .dwattr $C$DW$693, DW_AT_data_member_location[DW_OP_plus_uconst 0x1]
    5074                      .dwattr $C$DW$693, DW_AT_accessibility(DW_ACCESS_public)
    5075              $C$DW$694       .dwtag  DW_TAG_member
    5076                      .dwattr $C$DW$694, DW_AT_type(*$C$DW$T$34)
    5077                      .dwattr $C$DW$694, DW_AT_name("Flag_MotorIdentified")
    5078                      .dwattr $C$DW$694, DW_AT_TI_symbol_name("_Flag_MotorIdentified")
    5079                      .dwattr $C$DW$694, DW_AT_data_member_location[DW_OP_plus_uconst 0x2]
    5080                      .dwattr $C$DW$694, DW_AT_accessibility(DW_ACCESS_public)
    5081              $C$DW$695       .dwtag  DW_TAG_member
    5082                      .dwattr $C$DW$695, DW_AT_type(*$C$DW$T$34)
    5083                      .dwattr $C$DW$695, DW_AT_name("Flag_enableForceAngle")
    5084                      .dwattr $C$DW$695, DW_AT_TI_symbol_name("_Flag_enableForceAngle")
    5085                      .dwattr $C$DW$695, DW_AT_data_member_location[DW_OP_plus_uconst 0x3]
    5086                      .dwattr $C$DW$695, DW_AT_accessibility(DW_ACCESS_public)
    5087              $C$DW$696       .dwtag  DW_TAG_member
    5088                      .dwattr $C$DW$696, DW_AT_type(*$C$DW$T$34)
    5089                      .dwattr $C$DW$696, DW_AT_name("Flag_enableFieldWeakening")
    5090                      .dwattr $C$DW$696, DW_AT_TI_symbol_name("_Flag_enableFieldWeakening")
    5091                      .dwattr $C$DW$696, DW_AT_data_member_location[DW_OP_plus_uconst 0x4]
    5092                      .dwattr $C$DW$696, DW_AT_accessibility(DW_ACCESS_public)
    5093              $C$DW$697       .dwtag  DW_TAG_member
    5094                      .dwattr $C$DW$697, DW_AT_type(*$C$DW$T$34)
    5095                      .dwattr $C$DW$697, DW_AT_name("Flag_enableRsRecalc")
    5096                      .dwattr $C$DW$697, DW_AT_TI_symbol_name("_Flag_enableRsRecalc")
    5097                      .dwattr $C$DW$697, DW_AT_data_member_location[DW_OP_plus_uconst 0x5]
    5098                      .dwattr $C$DW$697, DW_AT_accessibility(DW_ACCESS_public)
    5099              $C$DW$698       .dwtag  DW_TAG_member
    5100                      .dwattr $C$DW$698, DW_AT_type(*$C$DW$T$34)
    5101                      .dwattr $C$DW$698, DW_AT_name("Flag_enableUserParams")
    5102                      .dwattr $C$DW$698, DW_AT_TI_symbol_name("_Flag_enableUserParams")
    5103                      .dwattr $C$DW$698, DW_AT_data_member_location[DW_OP_plus_uconst 0x6]
    5104                      .dwattr $C$DW$698, DW_AT_accessibility(DW_ACCESS_public)
    5105              $C$DW$699       .dwtag  DW_TAG_member
    5106                      .dwattr $C$DW$699, DW_AT_type(*$C$DW$T$34)
    5107                      .dwattr $C$DW$699, DW_AT_name("Flag_enableOffsetcalc")
    5108                      .dwattr $C$DW$699, DW_AT_TI_symbol_name("_Flag_enableOffsetcalc")
    5109                      .dwattr $C$DW$699, DW_AT_data_member_location[DW_OP_plus_uconst 0x7]
    5110                      .dwattr $C$DW$699, DW_AT_accessibility(DW_ACCESS_public)
    5111              $C$DW$700       .dwtag  DW_TAG_member
    5112                      .dwattr $C$DW$700, DW_AT_type(*$C$DW$T$34)
    5113                      .dwattr $C$DW$700, DW_AT_name("Flag_enablePowerWarp")
    5114                      .dwattr $C$DW$700, DW_AT_TI_symbol_name("_Flag_enablePowerWarp")
    5115                      .dwattr $C$DW$700, DW_AT_data_member_location[DW_OP_plus_uconst 0x8]
    5116                      .dwattr $C$DW$700, DW_AT_accessibility(DW_ACCESS_public)
    5117              $C$DW$701       .dwtag  DW_TAG_member
TMS320C2000 Assembler PC v6.2.5 Fri Sep 29 09:29:33 2017

Tools Copyright (c) 1996-2014 Texas Instruments Incorporated
C:\Users\wmj\AppData\Local\Temp\1142410                              PAGE   95

    5118                      .dwattr $C$DW$701, DW_AT_type(*$C$DW$T$34)
    5119                      .dwattr $C$DW$701, DW_AT_name("Flag_enableSpeedCtrl")
    5120                      .dwattr $C$DW$701, DW_AT_TI_symbol_name("_Flag_enableSpeedCtrl")
    5121                      .dwattr $C$DW$701, DW_AT_data_member_location[DW_OP_plus_uconst 0x9]
    5122                      .dwattr $C$DW$701, DW_AT_accessibility(DW_ACCESS_public)
    5123              $C$DW$702       .dwtag  DW_TAG_member
    5124                      .dwattr $C$DW$702, DW_AT_type(*$C$DW$T$34)
    5125                      .dwattr $C$DW$702, DW_AT_name("Flag_enableRun")
    5126                      .dwattr $C$DW$702, DW_AT_TI_symbol_name("_Flag_enableRun")
    5127                      .dwattr $C$DW$702, DW_AT_data_member_location[DW_OP_plus_uconst 0xa]
    5128                      .dwattr $C$DW$702, DW_AT_accessibility(DW_ACCESS_public)
    5129              $C$DW$703       .dwtag  DW_TAG_member
    5130                      .dwattr $C$DW$703, DW_AT_type(*$C$DW$T$34)
    5131                      .dwattr $C$DW$703, DW_AT_name("Flag_RunState")
    5132                      .dwattr $C$DW$703, DW_AT_TI_symbol_name("_Flag_RunState")
    5133                      .dwattr $C$DW$703, DW_AT_data_member_location[DW_OP_plus_uconst 0xb]
    5134                      .dwattr $C$DW$703, DW_AT_accessibility(DW_ACCESS_public)
    5135              $C$DW$704       .dwtag  DW_TAG_member
    5136                      .dwattr $C$DW$704, DW_AT_type(*$C$DW$T$34)
    5137                      .dwattr $C$DW$704, DW_AT_name("Flag_enableFlyingStart")
    5138                      .dwattr $C$DW$704, DW_AT_TI_symbol_name("_Flag_enableFlyingStart")
    5139                      .dwattr $C$DW$704, DW_AT_data_member_location[DW_OP_plus_uconst 0xc]
    5140                      .dwattr $C$DW$704, DW_AT_accessibility(DW_ACCESS_public)
    5141              $C$DW$705       .dwtag  DW_TAG_member
    5142                      .dwattr $C$DW$705, DW_AT_type(*$C$DW$T$43)
    5143                      .dwattr $C$DW$705, DW_AT_name("CtrlState")
    5144                      .dwattr $C$DW$705, DW_AT_TI_symbol_name("_CtrlState")
    5145                      .dwattr $C$DW$705, DW_AT_data_member_location[DW_OP_plus_uconst 0xd]
    5146                      .dwattr $C$DW$705, DW_AT_accessibility(DW_ACCESS_public)
    5147              $C$DW$706       .dwtag  DW_TAG_member
    5148                      .dwattr $C$DW$706, DW_AT_type(*$C$DW$T$171)
    5149                      .dwattr $C$DW$706, DW_AT_name("EstState")
    5150                      .dwattr $C$DW$706, DW_AT_TI_symbol_name("_EstState")
    5151                      .dwattr $C$DW$706, DW_AT_data_member_location[DW_OP_plus_uconst 0xe]
    5152                      .dwattr $C$DW$706, DW_AT_accessibility(DW_ACCESS_public)
    5153              $C$DW$707       .dwtag  DW_TAG_member
    5154                      .dwattr $C$DW$707, DW_AT_type(*$C$DW$T$173)
    5155                      .dwattr $C$DW$707, DW_AT_name("UserErrorCode")
    5156                      .dwattr $C$DW$707, DW_AT_TI_symbol_name("_UserErrorCode")
    5157                      .dwattr $C$DW$707, DW_AT_data_member_location[DW_OP_plus_uconst 0xf]
    5158                      .dwattr $C$DW$707, DW_AT_accessibility(DW_ACCESS_public)
    5159              $C$DW$708       .dwtag  DW_TAG_member
    5160                      .dwattr $C$DW$708, DW_AT_type(*$C$DW$T$41)
    5161                      .dwattr $C$DW$708, DW_AT_name("CtrlVersion")
    5162                      .dwattr $C$DW$708, DW_AT_TI_symbol_name("_CtrlVersion")
    5163                      .dwattr $C$DW$708, DW_AT_data_member_location[DW_OP_plus_uconst 0x10]
    5164                      .dwattr $C$DW$708, DW_AT_accessibility(DW_ACCESS_public)
    5165              $C$DW$709       .dwtag  DW_TAG_member
    5166                      .dwattr $C$DW$709, DW_AT_type(*$C$DW$T$32)
    5167                      .dwattr $C$DW$709, DW_AT_name("IdRef_A")
    5168                      .dwattr $C$DW$709, DW_AT_TI_symbol_name("_IdRef_A")
    5169                      .dwattr $C$DW$709, DW_AT_data_member_location[DW_OP_plus_uconst 0x14]
    5170                      .dwattr $C$DW$709, DW_AT_accessibility(DW_ACCESS_public)
    5171              $C$DW$710       .dwtag  DW_TAG_member
    5172                      .dwattr $C$DW$710, DW_AT_type(*$C$DW$T$32)
TMS320C2000 Assembler PC v6.2.5 Fri Sep 29 09:29:33 2017

Tools Copyright (c) 1996-2014 Texas Instruments Incorporated
C:\Users\wmj\AppData\Local\Temp\1142410                              PAGE   96

    5173                      .dwattr $C$DW$710, DW_AT_name("IqRef_A")
    5174                      .dwattr $C$DW$710, DW_AT_TI_symbol_name("_IqRef_A")
    5175                      .dwattr $C$DW$710, DW_AT_data_member_location[DW_OP_plus_uconst 0x16]
    5176                      .dwattr $C$DW$710, DW_AT_accessibility(DW_ACCESS_public)
    5177              $C$DW$711       .dwtag  DW_TAG_member
    5178                      .dwattr $C$DW$711, DW_AT_type(*$C$DW$T$32)
    5179                      .dwattr $C$DW$711, DW_AT_name("SpeedRef_pu")
    5180                      .dwattr $C$DW$711, DW_AT_TI_symbol_name("_SpeedRef_pu")
    5181                      .dwattr $C$DW$711, DW_AT_data_member_location[DW_OP_plus_uconst 0x18]
    5182                      .dwattr $C$DW$711, DW_AT_accessibility(DW_ACCESS_public)
    5183              $C$DW$712       .dwtag  DW_TAG_member
    5184                      .dwattr $C$DW$712, DW_AT_type(*$C$DW$T$32)
    5185                      .dwattr $C$DW$712, DW_AT_name("SpeedRef_krpm")
    5186                      .dwattr $C$DW$712, DW_AT_TI_symbol_name("_SpeedRef_krpm")
    5187                      .dwattr $C$DW$712, DW_AT_data_member_location[DW_OP_plus_uconst 0x1a]
    5188                      .dwattr $C$DW$712, DW_AT_accessibility(DW_ACCESS_public)
    5189              $C$DW$713       .dwtag  DW_TAG_member
    5190                      .dwattr $C$DW$713, DW_AT_type(*$C$DW$T$32)
    5191                      .dwattr $C$DW$713, DW_AT_name("SpeedTraj_krpm")
    5192                      .dwattr $C$DW$713, DW_AT_TI_symbol_name("_SpeedTraj_krpm")
    5193                      .dwattr $C$DW$713, DW_AT_data_member_location[DW_OP_plus_uconst 0x1c]
    5194                      .dwattr $C$DW$713, DW_AT_accessibility(DW_ACCESS_public)
    5195              $C$DW$714       .dwtag  DW_TAG_member
    5196                      .dwattr $C$DW$714, DW_AT_type(*$C$DW$T$32)
    5197                      .dwattr $C$DW$714, DW_AT_name("MaxAccel_krpmps")
    5198                      .dwattr $C$DW$714, DW_AT_TI_symbol_name("_MaxAccel_krpmps")
    5199                      .dwattr $C$DW$714, DW_AT_data_member_location[DW_OP_plus_uconst 0x1e]
    5200                      .dwattr $C$DW$714, DW_AT_accessibility(DW_ACCESS_public)
    5201              $C$DW$715       .dwtag  DW_TAG_member
    5202                      .dwattr $C$DW$715, DW_AT_type(*$C$DW$T$32)
    5203                      .dwattr $C$DW$715, DW_AT_name("Speed_krpm")
    5204                      .dwattr $C$DW$715, DW_AT_TI_symbol_name("_Speed_krpm")
    5205                      .dwattr $C$DW$715, DW_AT_data_member_location[DW_OP_plus_uconst 0x20]
    5206                      .dwattr $C$DW$715, DW_AT_accessibility(DW_ACCESS_public)
    5207              $C$DW$716       .dwtag  DW_TAG_member
    5208                      .dwattr $C$DW$716, DW_AT_type(*$C$DW$T$32)
    5209                      .dwattr $C$DW$716, DW_AT_name("OverModulation")
    5210                      .dwattr $C$DW$716, DW_AT_TI_symbol_name("_OverModulation")
    5211                      .dwattr $C$DW$716, DW_AT_data_member_location[DW_OP_plus_uconst 0x22]
    5212                      .dwattr $C$DW$716, DW_AT_accessibility(DW_ACCESS_public)
    5213              $C$DW$717       .dwtag  DW_TAG_member
    5214                      .dwattr $C$DW$717, DW_AT_type(*$C$DW$T$32)
    5215                      .dwattr $C$DW$717, DW_AT_name("RsOnLineCurrent_A")
    5216                      .dwattr $C$DW$717, DW_AT_TI_symbol_name("_RsOnLineCurrent_A")
    5217                      .dwattr $C$DW$717, DW_AT_data_member_location[DW_OP_plus_uconst 0x24]
    5218                      .dwattr $C$DW$717, DW_AT_accessibility(DW_ACCESS_public)
    5219              $C$DW$718       .dwtag  DW_TAG_member
    5220                      .dwattr $C$DW$718, DW_AT_type(*$C$DW$T$32)
    5221                      .dwattr $C$DW$718, DW_AT_name("SvgenMaxModulation_ticks")
    5222                      .dwattr $C$DW$718, DW_AT_TI_symbol_name("_SvgenMaxModulation_ticks")
    5223                      .dwattr $C$DW$718, DW_AT_data_member_location[DW_OP_plus_uconst 0x26]
    5224                      .dwattr $C$DW$718, DW_AT_accessibility(DW_ACCESS_public)
    5225              $C$DW$719       .dwtag  DW_TAG_member
    5226                      .dwattr $C$DW$719, DW_AT_type(*$C$DW$T$32)
    5227                      .dwattr $C$DW$719, DW_AT_name("Flux_Wb")
TMS320C2000 Assembler PC v6.2.5 Fri Sep 29 09:29:33 2017

Tools Copyright (c) 1996-2014 Texas Instruments Incorporated
C:\Users\wmj\AppData\Local\Temp\1142410                              PAGE   97

    5228                      .dwattr $C$DW$719, DW_AT_TI_symbol_name("_Flux_Wb")
    5229                      .dwattr $C$DW$719, DW_AT_data_member_location[DW_OP_plus_uconst 0x28]
    5230                      .dwattr $C$DW$719, DW_AT_accessibility(DW_ACCESS_public)
    5231              $C$DW$720       .dwtag  DW_TAG_member
    5232                      .dwattr $C$DW$720, DW_AT_type(*$C$DW$T$32)
    5233                      .dwattr $C$DW$720, DW_AT_name("Torque_Nm")
    5234                      .dwattr $C$DW$720, DW_AT_TI_symbol_name("_Torque_Nm")
    5235                      .dwattr $C$DW$720, DW_AT_data_member_location[DW_OP_plus_uconst 0x2a]
    5236                      .dwattr $C$DW$720, DW_AT_accessibility(DW_ACCESS_public)
    5237              $C$DW$721       .dwtag  DW_TAG_member
    5238                      .dwattr $C$DW$721, DW_AT_type(*$C$DW$T$71)
    5239                      .dwattr $C$DW$721, DW_AT_name("MagnCurr_A")
    5240                      .dwattr $C$DW$721, DW_AT_TI_symbol_name("_MagnCurr_A")
    5241                      .dwattr $C$DW$721, DW_AT_data_member_location[DW_OP_plus_uconst 0x2c]
    5242                      .dwattr $C$DW$721, DW_AT_accessibility(DW_ACCESS_public)
    5243              $C$DW$722       .dwtag  DW_TAG_member
    5244                      .dwattr $C$DW$722, DW_AT_type(*$C$DW$T$71)
    5245                      .dwattr $C$DW$722, DW_AT_name("Rr_Ohm")
    5246                      .dwattr $C$DW$722, DW_AT_TI_symbol_name("_Rr_Ohm")
    5247                      .dwattr $C$DW$722, DW_AT_data_member_location[DW_OP_plus_uconst 0x2e]
    5248                      .dwattr $C$DW$722, DW_AT_accessibility(DW_ACCESS_public)
    5249              $C$DW$723       .dwtag  DW_TAG_member
    5250                      .dwattr $C$DW$723, DW_AT_type(*$C$DW$T$71)
    5251                      .dwattr $C$DW$723, DW_AT_name("Rs_Ohm")
    5252                      .dwattr $C$DW$723, DW_AT_TI_symbol_name("_Rs_Ohm")
    5253                      .dwattr $C$DW$723, DW_AT_data_member_location[DW_OP_plus_uconst 0x30]
    5254                      .dwattr $C$DW$723, DW_AT_accessibility(DW_ACCESS_public)
    5255              $C$DW$724       .dwtag  DW_TAG_member
    5256                      .dwattr $C$DW$724, DW_AT_type(*$C$DW$T$71)
    5257                      .dwattr $C$DW$724, DW_AT_name("RsOnLine_Ohm")
    5258                      .dwattr $C$DW$724, DW_AT_TI_symbol_name("_RsOnLine_Ohm")
    5259                      .dwattr $C$DW$724, DW_AT_data_member_location[DW_OP_plus_uconst 0x32]
    5260                      .dwattr $C$DW$724, DW_AT_accessibility(DW_ACCESS_public)
    5261              $C$DW$725       .dwtag  DW_TAG_member
    5262                      .dwattr $C$DW$725, DW_AT_type(*$C$DW$T$71)
    5263                      .dwattr $C$DW$725, DW_AT_name("Lsd_H")
    5264                      .dwattr $C$DW$725, DW_AT_TI_symbol_name("_Lsd_H")
    5265                      .dwattr $C$DW$725, DW_AT_data_member_location[DW_OP_plus_uconst 0x34]
    5266                      .dwattr $C$DW$725, DW_AT_accessibility(DW_ACCESS_public)
    5267              $C$DW$726       .dwtag  DW_TAG_member
    5268                      .dwattr $C$DW$726, DW_AT_type(*$C$DW$T$71)
    5269                      .dwattr $C$DW$726, DW_AT_name("Lsq_H")
    5270                      .dwattr $C$DW$726, DW_AT_TI_symbol_name("_Lsq_H")
    5271                      .dwattr $C$DW$726, DW_AT_data_member_location[DW_OP_plus_uconst 0x36]
    5272                      .dwattr $C$DW$726, DW_AT_accessibility(DW_ACCESS_public)
    5273              $C$DW$727       .dwtag  DW_TAG_member
    5274                      .dwattr $C$DW$727, DW_AT_type(*$C$DW$T$71)
    5275                      .dwattr $C$DW$727, DW_AT_name("Flux_VpHz")
    5276                      .dwattr $C$DW$727, DW_AT_TI_symbol_name("_Flux_VpHz")
    5277                      .dwattr $C$DW$727, DW_AT_data_member_location[DW_OP_plus_uconst 0x38]
    5278                      .dwattr $C$DW$727, DW_AT_accessibility(DW_ACCESS_public)
    5279              $C$DW$728       .dwtag  DW_TAG_member
    5280                      .dwattr $C$DW$728, DW_AT_type(*$C$DW$T$71)
    5281                      .dwattr $C$DW$728, DW_AT_name("ipd_excFreq_Hz")
    5282                      .dwattr $C$DW$728, DW_AT_TI_symbol_name("_ipd_excFreq_Hz")
TMS320C2000 Assembler PC v6.2.5 Fri Sep 29 09:29:33 2017

Tools Copyright (c) 1996-2014 Texas Instruments Incorporated
C:\Users\wmj\AppData\Local\Temp\1142410                              PAGE   98

    5283                      .dwattr $C$DW$728, DW_AT_data_member_location[DW_OP_plus_uconst 0x3a]
    5284                      .dwattr $C$DW$728, DW_AT_accessibility(DW_ACCESS_public)
    5285              $C$DW$729       .dwtag  DW_TAG_member
    5286                      .dwattr $C$DW$729, DW_AT_type(*$C$DW$T$32)
    5287                      .dwattr $C$DW$729, DW_AT_name("ipd_Kspd")
    5288                      .dwattr $C$DW$729, DW_AT_TI_symbol_name("_ipd_Kspd")
    5289                      .dwattr $C$DW$729, DW_AT_data_member_location[DW_OP_plus_uconst 0x3c]
    5290                      .dwattr $C$DW$729, DW_AT_accessibility(DW_ACCESS_public)
    5291              $C$DW$730       .dwtag  DW_TAG_member
    5292                      .dwattr $C$DW$730, DW_AT_type(*$C$DW$T$32)
    5293                      .dwattr $C$DW$730, DW_AT_name("ipd_excMag_coarse_pu")
    5294                      .dwattr $C$DW$730, DW_AT_TI_symbol_name("_ipd_excMag_coarse_pu")
    5295                      .dwattr $C$DW$730, DW_AT_data_member_location[DW_OP_plus_uconst 0x3e]
    5296                      .dwattr $C$DW$730, DW_AT_accessibility(DW_ACCESS_public)
    5297              $C$DW$731       .dwtag  DW_TAG_member
    5298                      .dwattr $C$DW$731, DW_AT_type(*$C$DW$T$32)
    5299                      .dwattr $C$DW$731, DW_AT_name("ipd_excMag_fine_pu")
    5300                      .dwattr $C$DW$731, DW_AT_TI_symbol_name("_ipd_excMag_fine_pu")
    5301                      .dwattr $C$DW$731, DW_AT_data_member_location[DW_OP_plus_uconst 0x40]
    5302                      .dwattr $C$DW$731, DW_AT_accessibility(DW_ACCESS_public)
    5303              $C$DW$732       .dwtag  DW_TAG_member
    5304                      .dwattr $C$DW$732, DW_AT_type(*$C$DW$T$16)
    5305                      .dwattr $C$DW$732, DW_AT_name("ipd_waitTime_coarse_sec")
    5306                      .dwattr $C$DW$732, DW_AT_TI_symbol_name("_ipd_waitTime_coarse_sec")
    5307                      .dwattr $C$DW$732, DW_AT_data_member_location[DW_OP_plus_uconst 0x42]
    5308                      .dwattr $C$DW$732, DW_AT_accessibility(DW_ACCESS_public)
    5309              $C$DW$733       .dwtag  DW_TAG_member
    5310                      .dwattr $C$DW$733, DW_AT_type(*$C$DW$T$16)
    5311                      .dwattr $C$DW$733, DW_AT_name("ipd_waitTime_fine_sec")
    5312                      .dwattr $C$DW$733, DW_AT_TI_symbol_name("_ipd_waitTime_fine_sec")
    5313                      .dwattr $C$DW$733, DW_AT_data_member_location[DW_OP_plus_uconst 0x44]
    5314                      .dwattr $C$DW$733, DW_AT_accessibility(DW_ACCESS_public)
    5315              $C$DW$734       .dwtag  DW_TAG_member
    5316                      .dwattr $C$DW$734, DW_AT_type(*$C$DW$T$32)
    5317                      .dwattr $C$DW$734, DW_AT_name("Kp_spd")
    5318                      .dwattr $C$DW$734, DW_AT_TI_symbol_name("_Kp_spd")
    5319                      .dwattr $C$DW$734, DW_AT_data_member_location[DW_OP_plus_uconst 0x46]
    5320                      .dwattr $C$DW$734, DW_AT_accessibility(DW_ACCESS_public)
    5321              $C$DW$735       .dwtag  DW_TAG_member
    5322                      .dwattr $C$DW$735, DW_AT_type(*$C$DW$T$32)
    5323                      .dwattr $C$DW$735, DW_AT_name("Ki_spd")
    5324                      .dwattr $C$DW$735, DW_AT_TI_symbol_name("_Ki_spd")
    5325                      .dwattr $C$DW$735, DW_AT_data_member_location[DW_OP_plus_uconst 0x48]
    5326                      .dwattr $C$DW$735, DW_AT_accessibility(DW_ACCESS_public)
    5327              $C$DW$736       .dwtag  DW_TAG_member
    5328                      .dwattr $C$DW$736, DW_AT_type(*$C$DW$T$32)
    5329                      .dwattr $C$DW$736, DW_AT_name("Kp_Idq")
    5330                      .dwattr $C$DW$736, DW_AT_TI_symbol_name("_Kp_Idq")
    5331                      .dwattr $C$DW$736, DW_AT_data_member_location[DW_OP_plus_uconst 0x4a]
    5332                      .dwattr $C$DW$736, DW_AT_accessibility(DW_ACCESS_public)
    5333              $C$DW$737       .dwtag  DW_TAG_member
    5334                      .dwattr $C$DW$737, DW_AT_type(*$C$DW$T$32)
    5335                      .dwattr $C$DW$737, DW_AT_name("Ki_Idq")
    5336                      .dwattr $C$DW$737, DW_AT_TI_symbol_name("_Ki_Idq")
    5337                      .dwattr $C$DW$737, DW_AT_data_member_location[DW_OP_plus_uconst 0x4c]
TMS320C2000 Assembler PC v6.2.5 Fri Sep 29 09:29:33 2017

Tools Copyright (c) 1996-2014 Texas Instruments Incorporated
C:\Users\wmj\AppData\Local\Temp\1142410                              PAGE   99

    5338                      .dwattr $C$DW$737, DW_AT_accessibility(DW_ACCESS_public)
    5339              $C$DW$738       .dwtag  DW_TAG_member
    5340                      .dwattr $C$DW$738, DW_AT_type(*$C$DW$T$32)
    5341                      .dwattr $C$DW$738, DW_AT_name("Vd")
    5342                      .dwattr $C$DW$738, DW_AT_TI_symbol_name("_Vd")
    5343                      .dwattr $C$DW$738, DW_AT_data_member_location[DW_OP_plus_uconst 0x4e]
    5344                      .dwattr $C$DW$738, DW_AT_accessibility(DW_ACCESS_public)
    5345              $C$DW$739       .dwtag  DW_TAG_member
    5346                      .dwattr $C$DW$739, DW_AT_type(*$C$DW$T$32)
    5347                      .dwattr $C$DW$739, DW_AT_name("Vq")
    5348                      .dwattr $C$DW$739, DW_AT_TI_symbol_name("_Vq")
    5349                      .dwattr $C$DW$739, DW_AT_data_member_location[DW_OP_plus_uconst 0x50]
    5350                      .dwattr $C$DW$739, DW_AT_accessibility(DW_ACCESS_public)
    5351              $C$DW$740       .dwtag  DW_TAG_member
    5352                      .dwattr $C$DW$740, DW_AT_type(*$C$DW$T$32)
    5353                      .dwattr $C$DW$740, DW_AT_name("Vs")
    5354                      .dwattr $C$DW$740, DW_AT_TI_symbol_name("_Vs")
    5355                      .dwattr $C$DW$740, DW_AT_data_member_location[DW_OP_plus_uconst 0x52]
    5356                      .dwattr $C$DW$740, DW_AT_accessibility(DW_ACCESS_public)
    5357              $C$DW$741       .dwtag  DW_TAG_member
    5358                      .dwattr $C$DW$741, DW_AT_type(*$C$DW$T$32)
    5359                      .dwattr $C$DW$741, DW_AT_name("VsRef")
    5360                      .dwattr $C$DW$741, DW_AT_TI_symbol_name("_VsRef")
    5361                      .dwattr $C$DW$741, DW_AT_data_member_location[DW_OP_plus_uconst 0x54]
    5362                      .dwattr $C$DW$741, DW_AT_accessibility(DW_ACCESS_public)
    5363              $C$DW$742       .dwtag  DW_TAG_member
    5364                      .dwattr $C$DW$742, DW_AT_type(*$C$DW$T$32)
    5365                      .dwattr $C$DW$742, DW_AT_name("VdcBus_kV")
    5366                      .dwattr $C$DW$742, DW_AT_TI_symbol_name("_VdcBus_kV")
    5367                      .dwattr $C$DW$742, DW_AT_data_member_location[DW_OP_plus_uconst 0x56]
    5368                      .dwattr $C$DW$742, DW_AT_accessibility(DW_ACCESS_public)
    5369              $C$DW$743       .dwtag  DW_TAG_member
    5370                      .dwattr $C$DW$743, DW_AT_type(*$C$DW$T$32)
    5371                      .dwattr $C$DW$743, DW_AT_name("Id_A")
    5372                      .dwattr $C$DW$743, DW_AT_TI_symbol_name("_Id_A")
    5373                      .dwattr $C$DW$743, DW_AT_data_member_location[DW_OP_plus_uconst 0x58]
    5374                      .dwattr $C$DW$743, DW_AT_accessibility(DW_ACCESS_public)
    5375              $C$DW$744       .dwtag  DW_TAG_member
    5376                      .dwattr $C$DW$744, DW_AT_type(*$C$DW$T$32)
    5377                      .dwattr $C$DW$744, DW_AT_name("Iq_A")
    5378                      .dwattr $C$DW$744, DW_AT_TI_symbol_name("_Iq_A")
    5379                      .dwattr $C$DW$744, DW_AT_data_member_location[DW_OP_plus_uconst 0x5a]
    5380                      .dwattr $C$DW$744, DW_AT_accessibility(DW_ACCESS_public)
    5381              $C$DW$745       .dwtag  DW_TAG_member
    5382                      .dwattr $C$DW$745, DW_AT_type(*$C$DW$T$32)
    5383                      .dwattr $C$DW$745, DW_AT_name("Is_A")
    5384                      .dwattr $C$DW$745, DW_AT_TI_symbol_name("_Is_A")
    5385                      .dwattr $C$DW$745, DW_AT_data_member_location[DW_OP_plus_uconst 0x5c]
    5386                      .dwattr $C$DW$745, DW_AT_accessibility(DW_ACCESS_public)
    5387              $C$DW$746       .dwtag  DW_TAG_member
    5388                      .dwattr $C$DW$746, DW_AT_type(*$C$DW$T$100)
    5389                      .dwattr $C$DW$746, DW_AT_name("I_bias")
    5390                      .dwattr $C$DW$746, DW_AT_TI_symbol_name("_I_bias")
    5391                      .dwattr $C$DW$746, DW_AT_data_member_location[DW_OP_plus_uconst 0x5e]
    5392                      .dwattr $C$DW$746, DW_AT_accessibility(DW_ACCESS_public)
TMS320C2000 Assembler PC v6.2.5 Fri Sep 29 09:29:33 2017

Tools Copyright (c) 1996-2014 Texas Instruments Incorporated
C:\Users\wmj\AppData\Local\Temp\1142410                              PAGE  100

    5393              $C$DW$747       .dwtag  DW_TAG_member
    5394                      .dwattr $C$DW$747, DW_AT_type(*$C$DW$T$100)
    5395                      .dwattr $C$DW$747, DW_AT_name("V_bias")
    5396                      .dwattr $C$DW$747, DW_AT_TI_symbol_name("_V_bias")
    5397                      .dwattr $C$DW$747, DW_AT_data_member_location[DW_OP_plus_uconst 0x64]
    5398                      .dwattr $C$DW$747, DW_AT_accessibility(DW_ACCESS_public)
    5399              $C$DW$748       .dwtag  DW_TAG_member
    5400                      .dwattr $C$DW$748, DW_AT_type(*$C$DW$T$32)
    5401                      .dwattr $C$DW$748, DW_AT_name("SpeedSet_krpm")
    5402                      .dwattr $C$DW$748, DW_AT_TI_symbol_name("_SpeedSet_krpm")
    5403                      .dwattr $C$DW$748, DW_AT_data_member_location[DW_OP_plus_uconst 0x6a]
    5404                      .dwattr $C$DW$748, DW_AT_accessibility(DW_ACCESS_public)
    5405              $C$DW$749       .dwtag  DW_TAG_member
    5406                      .dwattr $C$DW$749, DW_AT_type(*$C$DW$T$32)
    5407                      .dwattr $C$DW$749, DW_AT_name("angle_sen_pu")
    5408                      .dwattr $C$DW$749, DW_AT_TI_symbol_name("_angle_sen_pu")
    5409                      .dwattr $C$DW$749, DW_AT_data_member_location[DW_OP_plus_uconst 0x6c]
    5410                      .dwattr $C$DW$749, DW_AT_accessibility(DW_ACCESS_public)
    5411              $C$DW$750       .dwtag  DW_TAG_member
    5412                      .dwattr $C$DW$750, DW_AT_type(*$C$DW$T$32)
    5413                      .dwattr $C$DW$750, DW_AT_name("angle_est_pu")
    5414                      .dwattr $C$DW$750, DW_AT_TI_symbol_name("_angle_est_pu")
    5415                      .dwattr $C$DW$750, DW_AT_data_member_location[DW_OP_plus_uconst 0x6e]
    5416                      .dwattr $C$DW$750, DW_AT_accessibility(DW_ACCESS_public)
    5417              $C$DW$751       .dwtag  DW_TAG_member
    5418                      .dwattr $C$DW$751, DW_AT_type(*$C$DW$T$32)
    5419                      .dwattr $C$DW$751, DW_AT_name("speed_sen_pu")
    5420                      .dwattr $C$DW$751, DW_AT_TI_symbol_name("_speed_sen_pu")
    5421                      .dwattr $C$DW$751, DW_AT_data_member_location[DW_OP_plus_uconst 0x70]
    5422                      .dwattr $C$DW$751, DW_AT_accessibility(DW_ACCESS_public)
    5423              $C$DW$752       .dwtag  DW_TAG_member
    5424                      .dwattr $C$DW$752, DW_AT_type(*$C$DW$T$32)
    5425                      .dwattr $C$DW$752, DW_AT_name("speed_est_pu")
    5426                      .dwattr $C$DW$752, DW_AT_TI_symbol_name("_speed_est_pu")
    5427                      .dwattr $C$DW$752, DW_AT_data_member_location[DW_OP_plus_uconst 0x72]
    5428                      .dwattr $C$DW$752, DW_AT_accessibility(DW_ACCESS_public)
    5429              $C$DW$753       .dwtag  DW_TAG_member
    5430                      .dwattr $C$DW$753, DW_AT_type(*$C$DW$T$32)
    5431                      .dwattr $C$DW$753, DW_AT_name("IdSet_A")
    5432                      .dwattr $C$DW$753, DW_AT_TI_symbol_name("_IdSet_A")
    5433                      .dwattr $C$DW$753, DW_AT_data_member_location[DW_OP_plus_uconst 0x74]
    5434                      .dwattr $C$DW$753, DW_AT_accessibility(DW_ACCESS_public)
    5435              $C$DW$754       .dwtag  DW_TAG_member
    5436                      .dwattr $C$DW$754, DW_AT_type(*$C$DW$T$32)
    5437                      .dwattr $C$DW$754, DW_AT_name("IqSet_A")
    5438                      .dwattr $C$DW$754, DW_AT_TI_symbol_name("_IqSet_A")
    5439                      .dwattr $C$DW$754, DW_AT_data_member_location[DW_OP_plus_uconst 0x76]
    5440                      .dwattr $C$DW$754, DW_AT_accessibility(DW_ACCESS_public)
    5441              $C$DW$755       .dwtag  DW_TAG_member
    5442                      .dwattr $C$DW$755, DW_AT_type(*$C$DW$T$32)
    5443                      .dwattr $C$DW$755, DW_AT_name("IdRef_pu")
    5444                      .dwattr $C$DW$755, DW_AT_TI_symbol_name("_IdRef_pu")
    5445                      .dwattr $C$DW$755, DW_AT_data_member_location[DW_OP_plus_uconst 0x78]
    5446                      .dwattr $C$DW$755, DW_AT_accessibility(DW_ACCESS_public)
    5447              $C$DW$756       .dwtag  DW_TAG_member
TMS320C2000 Assembler PC v6.2.5 Fri Sep 29 09:29:33 2017

Tools Copyright (c) 1996-2014 Texas Instruments Incorporated
C:\Users\wmj\AppData\Local\Temp\1142410                              PAGE  101

    5448                      .dwattr $C$DW$756, DW_AT_type(*$C$DW$T$32)
    5449                      .dwattr $C$DW$756, DW_AT_name("IqRef_pu")
    5450                      .dwattr $C$DW$756, DW_AT_TI_symbol_name("_IqRef_pu")
    5451                      .dwattr $C$DW$756, DW_AT_data_member_location[DW_OP_plus_uconst 0x7a]
    5452                      .dwattr $C$DW$756, DW_AT_accessibility(DW_ACCESS_public)
    5453              $C$DW$757       .dwtag  DW_TAG_member
    5454                      .dwattr $C$DW$757, DW_AT_type(*$C$DW$T$32)
    5455                      .dwattr $C$DW$757, DW_AT_name("ChipTemp")
    5456                      .dwattr $C$DW$757, DW_AT_TI_symbol_name("_ChipTemp")
    5457                      .dwattr $C$DW$757, DW_AT_data_member_location[DW_OP_plus_uconst 0x7c]
    5458                      .dwattr $C$DW$757, DW_AT_accessibility(DW_ACCESS_public)
    5459                      .dwendtag $C$DW$T$174
    5460              
    5461              $C$DW$T$204     .dwtag  DW_TAG_typedef, DW_AT_name("Motor_Obj")
    5462                      .dwattr $C$DW$T$204, DW_AT_type(*$C$DW$T$174)
    5463                      .dwattr $C$DW$T$204, DW_AT_language(DW_LANG_C)
    5464              $C$DW$T$81      .dwtag  DW_TAG_pointer_type
    5465                      .dwattr $C$DW$T$81, DW_AT_type(*$C$DW$T$174)
    5466                      .dwattr $C$DW$T$81, DW_AT_address_class(0x16)
    5467              $C$DW$T$82      .dwtag  DW_TAG_typedef, DW_AT_name("Motor_Handle")
    5468                      .dwattr $C$DW$T$82, DW_AT_type(*$C$DW$T$81)
    5469                      .dwattr $C$DW$T$82, DW_AT_language(DW_LANG_C)
    5470              
    5471              $C$DW$T$178     .dwtag  DW_TAG_structure_type
    5472                      .dwattr $C$DW$T$178, DW_AT_name("_OFFSET_")
    5473                      .dwattr $C$DW$T$178, DW_AT_byte_size(0x10)
    5474              $C$DW$758       .dwtag  DW_TAG_member
    5475                      .dwattr $C$DW$758, DW_AT_type(*$C$DW$T$32)
    5476                      .dwattr $C$DW$758, DW_AT_name("value")
    5477                      .dwattr $C$DW$758, DW_AT_TI_symbol_name("_value")
    5478                      .dwattr $C$DW$758, DW_AT_data_member_location[DW_OP_plus_uconst 0x0]
    5479                      .dwattr $C$DW$758, DW_AT_accessibility(DW_ACCESS_public)
    5480              $C$DW$759       .dwtag  DW_TAG_member
    5481                      .dwattr $C$DW$759, DW_AT_type(*$C$DW$T$32)
    5482                      .dwattr $C$DW$759, DW_AT_name("bias")
    5483                      .dwattr $C$DW$759, DW_AT_TI_symbol_name("_bias")
    5484                      .dwattr $C$DW$759, DW_AT_data_member_location[DW_OP_plus_uconst 0x2]
    5485                      .dwattr $C$DW$759, DW_AT_accessibility(DW_ACCESS_public)
    5486              $C$DW$760       .dwtag  DW_TAG_member
    5487                      .dwattr $C$DW$760, DW_AT_type(*$C$DW$T$175)
    5488                      .dwattr $C$DW$760, DW_AT_name("filter")
    5489                      .dwattr $C$DW$760, DW_AT_TI_symbol_name("_filter")
    5490                      .dwattr $C$DW$760, DW_AT_data_member_location[DW_OP_plus_uconst 0x4]
    5491                      .dwattr $C$DW$760, DW_AT_accessibility(DW_ACCESS_public)
    5492              $C$DW$761       .dwtag  DW_TAG_member
    5493                      .dwattr $C$DW$761, DW_AT_type(*$C$DW$T$177)
    5494                      .dwattr $C$DW$761, DW_AT_name("filterHandle")
    5495                      .dwattr $C$DW$761, DW_AT_TI_symbol_name("_filterHandle")
    5496                      .dwattr $C$DW$761, DW_AT_data_member_location[DW_OP_plus_uconst 0xe]
    5497                      .dwattr $C$DW$761, DW_AT_accessibility(DW_ACCESS_public)
    5498                      .dwendtag $C$DW$T$178
    5499              
    5500              $C$DW$T$115     .dwtag  DW_TAG_typedef, DW_AT_name("OFFSET_Obj")
    5501                      .dwattr $C$DW$T$115, DW_AT_type(*$C$DW$T$178)
    5502                      .dwattr $C$DW$T$115, DW_AT_language(DW_LANG_C)
TMS320C2000 Assembler PC v6.2.5 Fri Sep 29 09:29:33 2017

Tools Copyright (c) 1996-2014 Texas Instruments Incorporated
C:\Users\wmj\AppData\Local\Temp\1142410                              PAGE  102

    5503              
    5504              $C$DW$T$116     .dwtag  DW_TAG_array_type
    5505                      .dwattr $C$DW$T$116, DW_AT_type(*$C$DW$T$115)
    5506                      .dwattr $C$DW$T$116, DW_AT_language(DW_LANG_C)
    5507                      .dwattr $C$DW$T$116, DW_AT_byte_size(0x30)
    5508              $C$DW$762       .dwtag  DW_TAG_subrange_type
    5509                      .dwattr $C$DW$762, DW_AT_upper_bound(0x02)
    5510                      .dwendtag $C$DW$T$116
    5511              
    5512              
    5513              $C$DW$T$22      .dwtag  DW_TAG_structure_type
    5514                      .dwattr $C$DW$T$22, DW_AT_name("_OFFSET_Obj_")
    5515                      .dwattr $C$DW$T$22, DW_AT_declaration
    5516                      .dwendtag $C$DW$T$22
    5517              
    5518              $C$DW$T$112     .dwtag  DW_TAG_pointer_type
    5519                      .dwattr $C$DW$T$112, DW_AT_type(*$C$DW$T$22)
    5520                      .dwattr $C$DW$T$112, DW_AT_address_class(0x16)
    5521              $C$DW$T$113     .dwtag  DW_TAG_typedef, DW_AT_name("OFFSET_Handle")
    5522                      .dwattr $C$DW$T$113, DW_AT_type(*$C$DW$T$112)
    5523                      .dwattr $C$DW$T$113, DW_AT_language(DW_LANG_C)
    5524              
    5525              $C$DW$T$114     .dwtag  DW_TAG_array_type
    5526                      .dwattr $C$DW$T$114, DW_AT_type(*$C$DW$T$113)
    5527                      .dwattr $C$DW$T$114, DW_AT_language(DW_LANG_C)
    5528                      .dwattr $C$DW$T$114, DW_AT_byte_size(0x06)
    5529              $C$DW$763       .dwtag  DW_TAG_subrange_type
    5530                      .dwattr $C$DW$763, DW_AT_upper_bound(0x02)
    5531                      .dwendtag $C$DW$T$114
    5532              
    5533              
    5534              $C$DW$T$179     .dwtag  DW_TAG_structure_type
    5535                      .dwattr $C$DW$T$179, DW_AT_name("_OSC_Obj_")
    5536                      .dwattr $C$DW$T$179, DW_AT_byte_size(0x03)
    5537              $C$DW$764       .dwtag  DW_TAG_member
    5538                      .dwattr $C$DW$764, DW_AT_type(*$C$DW$T$24)
    5539                      .dwattr $C$DW$764, DW_AT_name("INTOSC1TRIM")
    5540                      .dwattr $C$DW$764, DW_AT_TI_symbol_name("_INTOSC1TRIM")
    5541                      .dwattr $C$DW$764, DW_AT_data_member_location[DW_OP_plus_uconst 0x0]
    5542                      .dwattr $C$DW$764, DW_AT_accessibility(DW_ACCESS_public)
    5543              $C$DW$765       .dwtag  DW_TAG_member
    5544                      .dwattr $C$DW$765, DW_AT_type(*$C$DW$T$24)
    5545                      .dwattr $C$DW$765, DW_AT_name("rsvd_1")
    5546                      .dwattr $C$DW$765, DW_AT_TI_symbol_name("_rsvd_1")
    5547                      .dwattr $C$DW$765, DW_AT_data_member_location[DW_OP_plus_uconst 0x1]
    5548                      .dwattr $C$DW$765, DW_AT_accessibility(DW_ACCESS_public)
    5549              $C$DW$766       .dwtag  DW_TAG_member
    5550                      .dwattr $C$DW$766, DW_AT_type(*$C$DW$T$24)
    5551                      .dwattr $C$DW$766, DW_AT_name("INTOSC2TRIM")
    5552                      .dwattr $C$DW$766, DW_AT_TI_symbol_name("_INTOSC2TRIM")
    5553                      .dwattr $C$DW$766, DW_AT_data_member_location[DW_OP_plus_uconst 0x2]
    5554                      .dwattr $C$DW$766, DW_AT_accessibility(DW_ACCESS_public)
    5555                      .dwendtag $C$DW$T$179
    5556              
    5557              $C$DW$T$117     .dwtag  DW_TAG_pointer_type
TMS320C2000 Assembler PC v6.2.5 Fri Sep 29 09:29:33 2017

Tools Copyright (c) 1996-2014 Texas Instruments Incorporated
C:\Users\wmj\AppData\Local\Temp\1142410                              PAGE  103

    5558                      .dwattr $C$DW$T$117, DW_AT_type(*$C$DW$T$179)
    5559                      .dwattr $C$DW$T$117, DW_AT_address_class(0x16)
    5560              $C$DW$T$118     .dwtag  DW_TAG_typedef, DW_AT_name("OSC_Handle")
    5561                      .dwattr $C$DW$T$118, DW_AT_type(*$C$DW$T$117)
    5562                      .dwattr $C$DW$T$118, DW_AT_language(DW_LANG_C)
    5563              
    5564              $C$DW$T$180     .dwtag  DW_TAG_structure_type
    5565                      .dwattr $C$DW$T$180, DW_AT_name("_PARK_Obj_")
    5566                      .dwattr $C$DW$T$180, DW_AT_byte_size(0x04)
    5567              $C$DW$767       .dwtag  DW_TAG_member
    5568                      .dwattr $C$DW$767, DW_AT_type(*$C$DW$T$32)
    5569                      .dwattr $C$DW$767, DW_AT_name("sinTh")
    5570                      .dwattr $C$DW$767, DW_AT_TI_symbol_name("_sinTh")
    5571                      .dwattr $C$DW$767, DW_AT_data_member_location[DW_OP_plus_uconst 0x0]
    5572                      .dwattr $C$DW$767, DW_AT_accessibility(DW_ACCESS_public)
    5573              $C$DW$768       .dwtag  DW_TAG_member
    5574                      .dwattr $C$DW$768, DW_AT_type(*$C$DW$T$32)
    5575                      .dwattr $C$DW$768, DW_AT_name("cosTh")
    5576                      .dwattr $C$DW$768, DW_AT_TI_symbol_name("_cosTh")
    5577                      .dwattr $C$DW$768, DW_AT_data_member_location[DW_OP_plus_uconst 0x2]
    5578                      .dwattr $C$DW$768, DW_AT_accessibility(DW_ACCESS_public)
    5579                      .dwendtag $C$DW$T$180
    5580              
    5581              $C$DW$T$53      .dwtag  DW_TAG_typedef, DW_AT_name("PARK_Obj")
    5582                      .dwattr $C$DW$T$53, DW_AT_type(*$C$DW$T$180)
    5583                      .dwattr $C$DW$T$53, DW_AT_language(DW_LANG_C)
    5584              $C$DW$T$51      .dwtag  DW_TAG_pointer_type
    5585                      .dwattr $C$DW$T$51, DW_AT_type(*$C$DW$T$180)
    5586                      .dwattr $C$DW$T$51, DW_AT_address_class(0x16)
    5587              $C$DW$T$52      .dwtag  DW_TAG_typedef, DW_AT_name("PARK_Handle")
    5588                      .dwattr $C$DW$T$52, DW_AT_type(*$C$DW$T$51)
    5589                      .dwattr $C$DW$T$52, DW_AT_language(DW_LANG_C)
    5590              
    5591              $C$DW$T$182     .dwtag  DW_TAG_structure_type
    5592                      .dwattr $C$DW$T$182, DW_AT_name("_PCA955x_Obj_")
    5593                      .dwattr $C$DW$T$182, DW_AT_byte_size(0x06)
    5594              $C$DW$769       .dwtag  DW_TAG_member
    5595                      .dwattr $C$DW$769, DW_AT_type(*$C$DW$T$132)
    5596                      .dwattr $C$DW$769, DW_AT_name("i2cHandle")
    5597                      .dwattr $C$DW$769, DW_AT_TI_symbol_name("_i2cHandle")
    5598                      .dwattr $C$DW$769, DW_AT_data_member_location[DW_OP_plus_uconst 0x0]
    5599                      .dwattr $C$DW$769, DW_AT_accessibility(DW_ACCESS_public)
    5600              $C$DW$770       .dwtag  DW_TAG_member
    5601                      .dwattr $C$DW$770, DW_AT_type(*$C$DW$T$181)
    5602                      .dwattr $C$DW$770, DW_AT_name("PortData")
    5603                      .dwattr $C$DW$770, DW_AT_TI_symbol_name("_PortData")
    5604                      .dwattr $C$DW$770, DW_AT_data_member_location[DW_OP_plus_uconst 0x2]
    5605                      .dwattr $C$DW$770, DW_AT_accessibility(DW_ACCESS_public)
    5606              $C$DW$771       .dwtag  DW_TAG_member
    5607                      .dwattr $C$DW$771, DW_AT_type(*$C$DW$T$34)
    5608                      .dwattr $C$DW$771, DW_AT_name("RxTimeOut")
    5609                      .dwattr $C$DW$771, DW_AT_TI_symbol_name("_RxTimeOut")
    5610                      .dwattr $C$DW$771, DW_AT_data_member_location[DW_OP_plus_uconst 0x3]
    5611                      .dwattr $C$DW$771, DW_AT_accessibility(DW_ACCESS_public)
    5612              $C$DW$772       .dwtag  DW_TAG_member
TMS320C2000 Assembler PC v6.2.5 Fri Sep 29 09:29:33 2017

Tools Copyright (c) 1996-2014 Texas Instruments Incorporated
C:\Users\wmj\AppData\Local\Temp\1142410                              PAGE  104

    5613                      .dwattr $C$DW$772, DW_AT_type(*$C$DW$T$34)
    5614                      .dwattr $C$DW$772, DW_AT_name("TxTimeOut")
    5615                      .dwattr $C$DW$772, DW_AT_TI_symbol_name("_TxTimeOut")
    5616                      .dwattr $C$DW$772, DW_AT_data_member_location[DW_OP_plus_uconst 0x4]
    5617                      .dwattr $C$DW$772, DW_AT_accessibility(DW_ACCESS_public)
    5618                      .dwendtag $C$DW$T$182
    5619              
    5620              $C$DW$T$85      .dwtag  DW_TAG_typedef, DW_AT_name("PCA955x_Obj")
    5621                      .dwattr $C$DW$T$85, DW_AT_type(*$C$DW$T$182)
    5622                      .dwattr $C$DW$T$85, DW_AT_language(DW_LANG_C)
    5623              $C$DW$T$83      .dwtag  DW_TAG_pointer_type
    5624                      .dwattr $C$DW$T$83, DW_AT_type(*$C$DW$T$182)
    5625                      .dwattr $C$DW$T$83, DW_AT_address_class(0x16)
    5626              $C$DW$T$84      .dwtag  DW_TAG_typedef, DW_AT_name("PCA955x_Handle")
    5627                      .dwattr $C$DW$T$84, DW_AT_type(*$C$DW$T$83)
    5628                      .dwattr $C$DW$T$84, DW_AT_language(DW_LANG_C)
    5629              
    5630              $C$DW$T$183     .dwtag  DW_TAG_structure_type
    5631                      .dwattr $C$DW$T$183, DW_AT_name("_PID_Obj_")
    5632                      .dwattr $C$DW$T$183, DW_AT_byte_size(0x10)
    5633              $C$DW$773       .dwtag  DW_TAG_member
    5634                      .dwattr $C$DW$773, DW_AT_type(*$C$DW$T$32)
    5635                      .dwattr $C$DW$773, DW_AT_name("Kp")
    5636                      .dwattr $C$DW$773, DW_AT_TI_symbol_name("_Kp")
    5637                      .dwattr $C$DW$773, DW_AT_data_member_location[DW_OP_plus_uconst 0x0]
    5638                      .dwattr $C$DW$773, DW_AT_accessibility(DW_ACCESS_public)
    5639              $C$DW$774       .dwtag  DW_TAG_member
    5640                      .dwattr $C$DW$774, DW_AT_type(*$C$DW$T$32)
    5641                      .dwattr $C$DW$774, DW_AT_name("Ki")
    5642                      .dwattr $C$DW$774, DW_AT_TI_symbol_name("_Ki")
    5643                      .dwattr $C$DW$774, DW_AT_data_member_location[DW_OP_plus_uconst 0x2]
    5644                      .dwattr $C$DW$774, DW_AT_accessibility(DW_ACCESS_public)
    5645              $C$DW$775       .dwtag  DW_TAG_member
    5646                      .dwattr $C$DW$775, DW_AT_type(*$C$DW$T$32)
    5647                      .dwattr $C$DW$775, DW_AT_name("Kd")
    5648                      .dwattr $C$DW$775, DW_AT_TI_symbol_name("_Kd")
    5649                      .dwattr $C$DW$775, DW_AT_data_member_location[DW_OP_plus_uconst 0x4]
    5650                      .dwattr $C$DW$775, DW_AT_accessibility(DW_ACCESS_public)
    5651              $C$DW$776       .dwtag  DW_TAG_member
    5652                      .dwattr $C$DW$776, DW_AT_type(*$C$DW$T$32)
    5653                      .dwattr $C$DW$776, DW_AT_name("Ui")
    5654                      .dwattr $C$DW$776, DW_AT_TI_symbol_name("_Ui")
    5655                      .dwattr $C$DW$776, DW_AT_data_member_location[DW_OP_plus_uconst 0x6]
    5656                      .dwattr $C$DW$776, DW_AT_accessibility(DW_ACCESS_public)
    5657              $C$DW$777       .dwtag  DW_TAG_member
    5658                      .dwattr $C$DW$777, DW_AT_type(*$C$DW$T$32)
    5659                      .dwattr $C$DW$777, DW_AT_name("refValue")
    5660                      .dwattr $C$DW$777, DW_AT_TI_symbol_name("_refValue")
    5661                      .dwattr $C$DW$777, DW_AT_data_member_location[DW_OP_plus_uconst 0x8]
    5662                      .dwattr $C$DW$777, DW_AT_accessibility(DW_ACCESS_public)
    5663              $C$DW$778       .dwtag  DW_TAG_member
    5664                      .dwattr $C$DW$778, DW_AT_type(*$C$DW$T$32)
    5665                      .dwattr $C$DW$778, DW_AT_name("fbackValue")
    5666                      .dwattr $C$DW$778, DW_AT_TI_symbol_name("_fbackValue")
    5667                      .dwattr $C$DW$778, DW_AT_data_member_location[DW_OP_plus_uconst 0xa]
TMS320C2000 Assembler PC v6.2.5 Fri Sep 29 09:29:33 2017

Tools Copyright (c) 1996-2014 Texas Instruments Incorporated
C:\Users\wmj\AppData\Local\Temp\1142410                              PAGE  105

    5668                      .dwattr $C$DW$778, DW_AT_accessibility(DW_ACCESS_public)
    5669              $C$DW$779       .dwtag  DW_TAG_member
    5670                      .dwattr $C$DW$779, DW_AT_type(*$C$DW$T$32)
    5671                      .dwattr $C$DW$779, DW_AT_name("outMin")
    5672                      .dwattr $C$DW$779, DW_AT_TI_symbol_name("_outMin")
    5673                      .dwattr $C$DW$779, DW_AT_data_member_location[DW_OP_plus_uconst 0xc]
    5674                      .dwattr $C$DW$779, DW_AT_accessibility(DW_ACCESS_public)
    5675              $C$DW$780       .dwtag  DW_TAG_member
    5676                      .dwattr $C$DW$780, DW_AT_type(*$C$DW$T$32)
    5677                      .dwattr $C$DW$780, DW_AT_name("outMax")
    5678                      .dwattr $C$DW$780, DW_AT_TI_symbol_name("_outMax")
    5679                      .dwattr $C$DW$780, DW_AT_data_member_location[DW_OP_plus_uconst 0xe]
    5680                      .dwattr $C$DW$780, DW_AT_accessibility(DW_ACCESS_public)
    5681                      .dwendtag $C$DW$T$183
    5682              
    5683              $C$DW$T$56      .dwtag  DW_TAG_typedef, DW_AT_name("PID_Obj")
    5684                      .dwattr $C$DW$T$56, DW_AT_type(*$C$DW$T$183)
    5685                      .dwattr $C$DW$T$56, DW_AT_language(DW_LANG_C)
    5686              $C$DW$T$54      .dwtag  DW_TAG_pointer_type
    5687                      .dwattr $C$DW$T$54, DW_AT_type(*$C$DW$T$183)
    5688                      .dwattr $C$DW$T$54, DW_AT_address_class(0x16)
    5689              $C$DW$T$55      .dwtag  DW_TAG_typedef, DW_AT_name("PID_Handle")
    5690                      .dwattr $C$DW$T$55, DW_AT_type(*$C$DW$T$54)
    5691                      .dwattr $C$DW$T$55, DW_AT_language(DW_LANG_C)
    5692              
    5693              $C$DW$T$184     .dwtag  DW_TAG_structure_type
    5694                      .dwattr $C$DW$T$184, DW_AT_name("_PIE_IERIFR_t")
    5695                      .dwattr $C$DW$T$184, DW_AT_byte_size(0x02)
    5696              $C$DW$781       .dwtag  DW_TAG_member
    5697                      .dwattr $C$DW$781, DW_AT_type(*$C$DW$T$24)
    5698                      .dwattr $C$DW$781, DW_AT_name("IER")
    5699                      .dwattr $C$DW$781, DW_AT_TI_symbol_name("_IER")
    5700                      .dwattr $C$DW$781, DW_AT_data_member_location[DW_OP_plus_uconst 0x0]
    5701                      .dwattr $C$DW$781, DW_AT_accessibility(DW_ACCESS_public)
    5702              $C$DW$782       .dwtag  DW_TAG_member
    5703                      .dwattr $C$DW$782, DW_AT_type(*$C$DW$T$24)
    5704                      .dwattr $C$DW$782, DW_AT_name("IFR")
    5705                      .dwattr $C$DW$782, DW_AT_TI_symbol_name("_IFR")
    5706                      .dwattr $C$DW$782, DW_AT_data_member_location[DW_OP_plus_uconst 0x1]
    5707                      .dwattr $C$DW$782, DW_AT_accessibility(DW_ACCESS_public)
    5708                      .dwendtag $C$DW$T$184
    5709              
    5710              $C$DW$T$185     .dwtag  DW_TAG_typedef, DW_AT_name("PIE_IERIFR_t")
    5711                      .dwattr $C$DW$T$185, DW_AT_type(*$C$DW$T$184)
    5712                      .dwattr $C$DW$T$185, DW_AT_language(DW_LANG_C)
    5713              $C$DW$783       .dwtag  DW_TAG_TI_far_type
    5714                      .dwattr $C$DW$783, DW_AT_type(*$C$DW$T$185)
    5715              $C$DW$T$186     .dwtag  DW_TAG_volatile_type
    5716                      .dwattr $C$DW$T$186, DW_AT_type(*$C$DW$783)
    5717              
    5718              $C$DW$T$187     .dwtag  DW_TAG_array_type
    5719                      .dwattr $C$DW$T$187, DW_AT_type(*$C$DW$T$186)
    5720                      .dwattr $C$DW$T$187, DW_AT_language(DW_LANG_C)
    5721                      .dwattr $C$DW$T$187, DW_AT_byte_size(0x18)
    5722              $C$DW$784       .dwtag  DW_TAG_subrange_type
TMS320C2000 Assembler PC v6.2.5 Fri Sep 29 09:29:33 2017

Tools Copyright (c) 1996-2014 Texas Instruments Incorporated
C:\Users\wmj\AppData\Local\Temp\1142410                              PAGE  106

    5723                      .dwattr $C$DW$784, DW_AT_upper_bound(0x0b)
    5724                      .dwendtag $C$DW$T$187
    5725              
    5726              
    5727              $C$DW$T$194     .dwtag  DW_TAG_structure_type
    5728                      .dwattr $C$DW$T$194, DW_AT_name("_PIE_Obj_")
    5729                      .dwattr $C$DW$T$194, DW_AT_byte_size(0x639c)
    5730              $C$DW$785       .dwtag  DW_TAG_member
    5731                      .dwattr $C$DW$785, DW_AT_type(*$C$DW$T$24)
    5732                      .dwattr $C$DW$785, DW_AT_name("PIECTRL")
    5733                      .dwattr $C$DW$785, DW_AT_TI_symbol_name("_PIECTRL")
    5734                      .dwattr $C$DW$785, DW_AT_data_member_location[DW_OP_plus_uconst 0x0]
    5735                      .dwattr $C$DW$785, DW_AT_accessibility(DW_ACCESS_public)
    5736              $C$DW$786       .dwtag  DW_TAG_member
    5737                      .dwattr $C$DW$786, DW_AT_type(*$C$DW$T$24)
    5738                      .dwattr $C$DW$786, DW_AT_name("PIEACK")
    5739                      .dwattr $C$DW$786, DW_AT_TI_symbol_name("_PIEACK")
    5740                      .dwattr $C$DW$786, DW_AT_data_member_location[DW_OP_plus_uconst 0x1]
    5741                      .dwattr $C$DW$786, DW_AT_accessibility(DW_ACCESS_public)
    5742              $C$DW$787       .dwtag  DW_TAG_member
    5743                      .dwattr $C$DW$787, DW_AT_type(*$C$DW$T$187)
    5744                      .dwattr $C$DW$787, DW_AT_name("PIEIER_PIEIFR")
    5745                      .dwattr $C$DW$787, DW_AT_TI_symbol_name("_PIEIER_PIEIFR")
    5746                      .dwattr $C$DW$787, DW_AT_data_member_location[DW_OP_plus_uconst 0x2]
    5747                      .dwattr $C$DW$787, DW_AT_accessibility(DW_ACCESS_public)
    5748              $C$DW$788       .dwtag  DW_TAG_member
    5749                      .dwattr $C$DW$788, DW_AT_type(*$C$DW$T$188)
    5750                      .dwattr $C$DW$788, DW_AT_name("rsvd_1")
    5751                      .dwattr $C$DW$788, DW_AT_TI_symbol_name("_rsvd_1")
    5752                      .dwattr $C$DW$788, DW_AT_data_member_location[DW_OP_plus_uconst 0x1a]
    5753                      .dwattr $C$DW$788, DW_AT_accessibility(DW_ACCESS_public)
    5754              $C$DW$789       .dwtag  DW_TAG_member
    5755                      .dwattr $C$DW$789, DW_AT_type(*$C$DW$T$192)
    5756                      .dwattr $C$DW$789, DW_AT_name("Reset")
    5757                      .dwattr $C$DW$789, DW_AT_TI_symbol_name("_Reset")
    5758                      .dwattr $C$DW$789, DW_AT_data_member_location[DW_OP_plus_uconst 0x20]
    5759                      .dwattr $C$DW$789, DW_AT_accessibility(DW_ACCESS_public)
    5760              $C$DW$790       .dwtag  DW_TAG_member
    5761                      .dwattr $C$DW$790, DW_AT_type(*$C$DW$T$192)
    5762                      .dwattr $C$DW$790, DW_AT_name("INT1")
    5763                      .dwattr $C$DW$790, DW_AT_TI_symbol_name("_INT1")
    5764                      .dwattr $C$DW$790, DW_AT_data_member_location[DW_OP_plus_uconst 0x22]
    5765                      .dwattr $C$DW$790, DW_AT_accessibility(DW_ACCESS_public)
    5766              $C$DW$791       .dwtag  DW_TAG_member
    5767                      .dwattr $C$DW$791, DW_AT_type(*$C$DW$T$192)
    5768                      .dwattr $C$DW$791, DW_AT_name("INT2")
    5769                      .dwattr $C$DW$791, DW_AT_TI_symbol_name("_INT2")
    5770                      .dwattr $C$DW$791, DW_AT_data_member_location[DW_OP_plus_uconst 0x24]
    5771                      .dwattr $C$DW$791, DW_AT_accessibility(DW_ACCESS_public)
    5772              $C$DW$792       .dwtag  DW_TAG_member
    5773                      .dwattr $C$DW$792, DW_AT_type(*$C$DW$T$192)
    5774                      .dwattr $C$DW$792, DW_AT_name("INT3")
    5775                      .dwattr $C$DW$792, DW_AT_TI_symbol_name("_INT3")
    5776                      .dwattr $C$DW$792, DW_AT_data_member_location[DW_OP_plus_uconst 0x26]
    5777                      .dwattr $C$DW$792, DW_AT_accessibility(DW_ACCESS_public)
TMS320C2000 Assembler PC v6.2.5 Fri Sep 29 09:29:33 2017

Tools Copyright (c) 1996-2014 Texas Instruments Incorporated
C:\Users\wmj\AppData\Local\Temp\1142410                              PAGE  107

    5778              $C$DW$793       .dwtag  DW_TAG_member
    5779                      .dwattr $C$DW$793, DW_AT_type(*$C$DW$T$192)
    5780                      .dwattr $C$DW$793, DW_AT_name("INT4")
    5781                      .dwattr $C$DW$793, DW_AT_TI_symbol_name("_INT4")
    5782                      .dwattr $C$DW$793, DW_AT_data_member_location[DW_OP_plus_uconst 0x28]
    5783                      .dwattr $C$DW$793, DW_AT_accessibility(DW_ACCESS_public)
    5784              $C$DW$794       .dwtag  DW_TAG_member
    5785                      .dwattr $C$DW$794, DW_AT_type(*$C$DW$T$192)
    5786                      .dwattr $C$DW$794, DW_AT_name("INT5")
    5787                      .dwattr $C$DW$794, DW_AT_TI_symbol_name("_INT5")
    5788                      .dwattr $C$DW$794, DW_AT_data_member_location[DW_OP_plus_uconst 0x2a]
    5789                      .dwattr $C$DW$794, DW_AT_accessibility(DW_ACCESS_public)
    5790              $C$DW$795       .dwtag  DW_TAG_member
    5791                      .dwattr $C$DW$795, DW_AT_type(*$C$DW$T$192)
    5792                      .dwattr $C$DW$795, DW_AT_name("INT6")
    5793                      .dwattr $C$DW$795, DW_AT_TI_symbol_name("_INT6")
    5794                      .dwattr $C$DW$795, DW_AT_data_member_location[DW_OP_plus_uconst 0x2c]
    5795                      .dwattr $C$DW$795, DW_AT_accessibility(DW_ACCESS_public)
    5796              $C$DW$796       .dwtag  DW_TAG_member
    5797                      .dwattr $C$DW$796, DW_AT_type(*$C$DW$T$192)
    5798                      .dwattr $C$DW$796, DW_AT_name("INT7")
    5799                      .dwattr $C$DW$796, DW_AT_TI_symbol_name("_INT7")
    5800                      .dwattr $C$DW$796, DW_AT_data_member_location[DW_OP_plus_uconst 0x2e]
    5801                      .dwattr $C$DW$796, DW_AT_accessibility(DW_ACCESS_public)
    5802              $C$DW$797       .dwtag  DW_TAG_member
    5803                      .dwattr $C$DW$797, DW_AT_type(*$C$DW$T$192)
    5804                      .dwattr $C$DW$797, DW_AT_name("INT8")
    5805                      .dwattr $C$DW$797, DW_AT_TI_symbol_name("_INT8")
    5806                      .dwattr $C$DW$797, DW_AT_data_member_location[DW_OP_plus_uconst 0x30]
    5807                      .dwattr $C$DW$797, DW_AT_accessibility(DW_ACCESS_public)
    5808              $C$DW$798       .dwtag  DW_TAG_member
    5809                      .dwattr $C$DW$798, DW_AT_type(*$C$DW$T$192)
    5810                      .dwattr $C$DW$798, DW_AT_name("INT9")
    5811                      .dwattr $C$DW$798, DW_AT_TI_symbol_name("_INT9")
    5812                      .dwattr $C$DW$798, DW_AT_data_member_location[DW_OP_plus_uconst 0x32]
    5813                      .dwattr $C$DW$798, DW_AT_accessibility(DW_ACCESS_public)
    5814              $C$DW$799       .dwtag  DW_TAG_member
    5815                      .dwattr $C$DW$799, DW_AT_type(*$C$DW$T$192)
    5816                      .dwattr $C$DW$799, DW_AT_name("INT10")
    5817                      .dwattr $C$DW$799, DW_AT_TI_symbol_name("_INT10")
    5818                      .dwattr $C$DW$799, DW_AT_data_member_location[DW_OP_plus_uconst 0x34]
    5819                      .dwattr $C$DW$799, DW_AT_accessibility(DW_ACCESS_public)
    5820              $C$DW$800       .dwtag  DW_TAG_member
    5821                      .dwattr $C$DW$800, DW_AT_type(*$C$DW$T$192)
    5822                      .dwattr $C$DW$800, DW_AT_name("INT11")
    5823                      .dwattr $C$DW$800, DW_AT_TI_symbol_name("_INT11")
    5824                      .dwattr $C$DW$800, DW_AT_data_member_location[DW_OP_plus_uconst 0x36]
    5825                      .dwattr $C$DW$800, DW_AT_accessibility(DW_ACCESS_public)
    5826              $C$DW$801       .dwtag  DW_TAG_member
    5827                      .dwattr $C$DW$801, DW_AT_type(*$C$DW$T$192)
    5828                      .dwattr $C$DW$801, DW_AT_name("INT12")
    5829                      .dwattr $C$DW$801, DW_AT_TI_symbol_name("_INT12")
    5830                      .dwattr $C$DW$801, DW_AT_data_member_location[DW_OP_plus_uconst 0x38]
    5831                      .dwattr $C$DW$801, DW_AT_accessibility(DW_ACCESS_public)
    5832              $C$DW$802       .dwtag  DW_TAG_member
TMS320C2000 Assembler PC v6.2.5 Fri Sep 29 09:29:33 2017

Tools Copyright (c) 1996-2014 Texas Instruments Incorporated
C:\Users\wmj\AppData\Local\Temp\1142410                              PAGE  108

    5833                      .dwattr $C$DW$802, DW_AT_type(*$C$DW$T$192)
    5834                      .dwattr $C$DW$802, DW_AT_name("TINT1")
    5835                      .dwattr $C$DW$802, DW_AT_TI_symbol_name("_TINT1")
    5836                      .dwattr $C$DW$802, DW_AT_data_member_location[DW_OP_plus_uconst 0x3a]
    5837                      .dwattr $C$DW$802, DW_AT_accessibility(DW_ACCESS_public)
    5838              $C$DW$803       .dwtag  DW_TAG_member
    5839                      .dwattr $C$DW$803, DW_AT_type(*$C$DW$T$192)
    5840                      .dwattr $C$DW$803, DW_AT_name("TINT2")
    5841                      .dwattr $C$DW$803, DW_AT_TI_symbol_name("_TINT2")
    5842                      .dwattr $C$DW$803, DW_AT_data_member_location[DW_OP_plus_uconst 0x3c]
    5843                      .dwattr $C$DW$803, DW_AT_accessibility(DW_ACCESS_public)
    5844              $C$DW$804       .dwtag  DW_TAG_member
    5845                      .dwattr $C$DW$804, DW_AT_type(*$C$DW$T$192)
    5846                      .dwattr $C$DW$804, DW_AT_name("DATALOG")
    5847                      .dwattr $C$DW$804, DW_AT_TI_symbol_name("_DATALOG")
    5848                      .dwattr $C$DW$804, DW_AT_data_member_location[DW_OP_plus_uconst 0x3e]
    5849                      .dwattr $C$DW$804, DW_AT_accessibility(DW_ACCESS_public)
    5850              $C$DW$805       .dwtag  DW_TAG_member
    5851                      .dwattr $C$DW$805, DW_AT_type(*$C$DW$T$192)
    5852                      .dwattr $C$DW$805, DW_AT_name("RTOSINT")
    5853                      .dwattr $C$DW$805, DW_AT_TI_symbol_name("_RTOSINT")
    5854                      .dwattr $C$DW$805, DW_AT_data_member_location[DW_OP_plus_uconst 0x40]
    5855                      .dwattr $C$DW$805, DW_AT_accessibility(DW_ACCESS_public)
    5856              $C$DW$806       .dwtag  DW_TAG_member
    5857                      .dwattr $C$DW$806, DW_AT_type(*$C$DW$T$192)
    5858                      .dwattr $C$DW$806, DW_AT_name("EMUINT")
    5859                      .dwattr $C$DW$806, DW_AT_TI_symbol_name("_EMUINT")
    5860                      .dwattr $C$DW$806, DW_AT_data_member_location[DW_OP_plus_uconst 0x42]
    5861                      .dwattr $C$DW$806, DW_AT_accessibility(DW_ACCESS_public)
    5862              $C$DW$807       .dwtag  DW_TAG_member
    5863                      .dwattr $C$DW$807, DW_AT_type(*$C$DW$T$192)
    5864                      .dwattr $C$DW$807, DW_AT_name("NMI")
    5865                      .dwattr $C$DW$807, DW_AT_TI_symbol_name("_NMI")
    5866                      .dwattr $C$DW$807, DW_AT_data_member_location[DW_OP_plus_uconst 0x44]
    5867                      .dwattr $C$DW$807, DW_AT_accessibility(DW_ACCESS_public)
    5868              $C$DW$808       .dwtag  DW_TAG_member
    5869                      .dwattr $C$DW$808, DW_AT_type(*$C$DW$T$192)
    5870                      .dwattr $C$DW$808, DW_AT_name("ILLEGAL")
    5871                      .dwattr $C$DW$808, DW_AT_TI_symbol_name("_ILLEGAL")
    5872                      .dwattr $C$DW$808, DW_AT_data_member_location[DW_OP_plus_uconst 0x46]
    5873                      .dwattr $C$DW$808, DW_AT_accessibility(DW_ACCESS_public)
    5874              $C$DW$809       .dwtag  DW_TAG_member
    5875                      .dwattr $C$DW$809, DW_AT_type(*$C$DW$T$192)
    5876                      .dwattr $C$DW$809, DW_AT_name("USER1")
    5877                      .dwattr $C$DW$809, DW_AT_TI_symbol_name("_USER1")
    5878                      .dwattr $C$DW$809, DW_AT_data_member_location[DW_OP_plus_uconst 0x48]
    5879                      .dwattr $C$DW$809, DW_AT_accessibility(DW_ACCESS_public)
    5880              $C$DW$810       .dwtag  DW_TAG_member
    5881                      .dwattr $C$DW$810, DW_AT_type(*$C$DW$T$192)
    5882                      .dwattr $C$DW$810, DW_AT_name("USER2")
    5883                      .dwattr $C$DW$810, DW_AT_TI_symbol_name("_USER2")
    5884                      .dwattr $C$DW$810, DW_AT_data_member_location[DW_OP_plus_uconst 0x4a]
    5885                      .dwattr $C$DW$810, DW_AT_accessibility(DW_ACCESS_public)
    5886              $C$DW$811       .dwtag  DW_TAG_member
    5887                      .dwattr $C$DW$811, DW_AT_type(*$C$DW$T$192)
TMS320C2000 Assembler PC v6.2.5 Fri Sep 29 09:29:33 2017

Tools Copyright (c) 1996-2014 Texas Instruments Incorporated
C:\Users\wmj\AppData\Local\Temp\1142410                              PAGE  109

    5888                      .dwattr $C$DW$811, DW_AT_name("USER3")
    5889                      .dwattr $C$DW$811, DW_AT_TI_symbol_name("_USER3")
    5890                      .dwattr $C$DW$811, DW_AT_data_member_location[DW_OP_plus_uconst 0x4c]
    5891                      .dwattr $C$DW$811, DW_AT_accessibility(DW_ACCESS_public)
    5892              $C$DW$812       .dwtag  DW_TAG_member
    5893                      .dwattr $C$DW$812, DW_AT_type(*$C$DW$T$192)
    5894                      .dwattr $C$DW$812, DW_AT_name("USER4")
    5895                      .dwattr $C$DW$812, DW_AT_TI_symbol_name("_USER4")
    5896                      .dwattr $C$DW$812, DW_AT_data_member_location[DW_OP_plus_uconst 0x4e]
    5897                      .dwattr $C$DW$812, DW_AT_accessibility(DW_ACCESS_public)
    5898              $C$DW$813       .dwtag  DW_TAG_member
    5899                      .dwattr $C$DW$813, DW_AT_type(*$C$DW$T$192)
    5900                      .dwattr $C$DW$813, DW_AT_name("USER5")
    5901                      .dwattr $C$DW$813, DW_AT_TI_symbol_name("_USER5")
    5902                      .dwattr $C$DW$813, DW_AT_data_member_location[DW_OP_plus_uconst 0x50]
    5903                      .dwattr $C$DW$813, DW_AT_accessibility(DW_ACCESS_public)
    5904              $C$DW$814       .dwtag  DW_TAG_member
    5905                      .dwattr $C$DW$814, DW_AT_type(*$C$DW$T$192)
    5906                      .dwattr $C$DW$814, DW_AT_name("USER6")
    5907                      .dwattr $C$DW$814, DW_AT_TI_symbol_name("_USER6")
    5908                      .dwattr $C$DW$814, DW_AT_data_member_location[DW_OP_plus_uconst 0x52]
    5909                      .dwattr $C$DW$814, DW_AT_accessibility(DW_ACCESS_public)
    5910              $C$DW$815       .dwtag  DW_TAG_member
    5911                      .dwattr $C$DW$815, DW_AT_type(*$C$DW$T$192)
    5912                      .dwattr $C$DW$815, DW_AT_name("USER7")
    5913                      .dwattr $C$DW$815, DW_AT_TI_symbol_name("_USER7")
    5914                      .dwattr $C$DW$815, DW_AT_data_member_location[DW_OP_plus_uconst 0x54]
    5915                      .dwattr $C$DW$815, DW_AT_accessibility(DW_ACCESS_public)
    5916              $C$DW$816       .dwtag  DW_TAG_member
    5917                      .dwattr $C$DW$816, DW_AT_type(*$C$DW$T$192)
    5918                      .dwattr $C$DW$816, DW_AT_name("USER8")
    5919                      .dwattr $C$DW$816, DW_AT_TI_symbol_name("_USER8")
    5920                      .dwattr $C$DW$816, DW_AT_data_member_location[DW_OP_plus_uconst 0x56]
    5921                      .dwattr $C$DW$816, DW_AT_accessibility(DW_ACCESS_public)
    5922              $C$DW$817       .dwtag  DW_TAG_member
    5923                      .dwattr $C$DW$817, DW_AT_type(*$C$DW$T$192)
    5924                      .dwattr $C$DW$817, DW_AT_name("USER9")
    5925                      .dwattr $C$DW$817, DW_AT_TI_symbol_name("_USER9")
    5926                      .dwattr $C$DW$817, DW_AT_data_member_location[DW_OP_plus_uconst 0x58]
    5927                      .dwattr $C$DW$817, DW_AT_accessibility(DW_ACCESS_public)
    5928              $C$DW$818       .dwtag  DW_TAG_member
    5929                      .dwattr $C$DW$818, DW_AT_type(*$C$DW$T$192)
    5930                      .dwattr $C$DW$818, DW_AT_name("USER10")
    5931                      .dwattr $C$DW$818, DW_AT_TI_symbol_name("_USER10")
    5932                      .dwattr $C$DW$818, DW_AT_data_member_location[DW_OP_plus_uconst 0x5a]
    5933                      .dwattr $C$DW$818, DW_AT_accessibility(DW_ACCESS_public)
    5934              $C$DW$819       .dwtag  DW_TAG_member
    5935                      .dwattr $C$DW$819, DW_AT_type(*$C$DW$T$192)
    5936                      .dwattr $C$DW$819, DW_AT_name("USER11")
    5937                      .dwattr $C$DW$819, DW_AT_TI_symbol_name("_USER11")
    5938                      .dwattr $C$DW$819, DW_AT_data_member_location[DW_OP_plus_uconst 0x5c]
    5939                      .dwattr $C$DW$819, DW_AT_accessibility(DW_ACCESS_public)
    5940              $C$DW$820       .dwtag  DW_TAG_member
    5941                      .dwattr $C$DW$820, DW_AT_type(*$C$DW$T$192)
    5942                      .dwattr $C$DW$820, DW_AT_name("USER12")
TMS320C2000 Assembler PC v6.2.5 Fri Sep 29 09:29:33 2017

Tools Copyright (c) 1996-2014 Texas Instruments Incorporated
C:\Users\wmj\AppData\Local\Temp\1142410                              PAGE  110

    5943                      .dwattr $C$DW$820, DW_AT_TI_symbol_name("_USER12")
    5944                      .dwattr $C$DW$820, DW_AT_data_member_location[DW_OP_plus_uconst 0x5e]
    5945                      .dwattr $C$DW$820, DW_AT_accessibility(DW_ACCESS_public)
    5946              $C$DW$821       .dwtag  DW_TAG_member
    5947                      .dwattr $C$DW$821, DW_AT_type(*$C$DW$T$192)
    5948                      .dwattr $C$DW$821, DW_AT_name("ADCINT1_HP")
    5949                      .dwattr $C$DW$821, DW_AT_TI_symbol_name("_ADCINT1_HP")
    5950                      .dwattr $C$DW$821, DW_AT_data_member_location[DW_OP_plus_uconst 0x60]
    5951                      .dwattr $C$DW$821, DW_AT_accessibility(DW_ACCESS_public)
    5952              $C$DW$822       .dwtag  DW_TAG_member
    5953                      .dwattr $C$DW$822, DW_AT_type(*$C$DW$T$192)
    5954                      .dwattr $C$DW$822, DW_AT_name("ADCINT2_HP")
    5955                      .dwattr $C$DW$822, DW_AT_TI_symbol_name("_ADCINT2_HP")
    5956                      .dwattr $C$DW$822, DW_AT_data_member_location[DW_OP_plus_uconst 0x62]
    5957                      .dwattr $C$DW$822, DW_AT_accessibility(DW_ACCESS_public)
    5958              $C$DW$823       .dwtag  DW_TAG_member
    5959                      .dwattr $C$DW$823, DW_AT_type(*$C$DW$T$192)
    5960                      .dwattr $C$DW$823, DW_AT_name("rsvd1_3")
    5961                      .dwattr $C$DW$823, DW_AT_TI_symbol_name("_rsvd1_3")
    5962                      .dwattr $C$DW$823, DW_AT_data_member_location[DW_OP_plus_uconst 0x64]
    5963                      .dwattr $C$DW$823, DW_AT_accessibility(DW_ACCESS_public)
    5964              $C$DW$824       .dwtag  DW_TAG_member
    5965                      .dwattr $C$DW$824, DW_AT_type(*$C$DW$T$192)
    5966                      .dwattr $C$DW$824, DW_AT_name("XINT1")
    5967                      .dwattr $C$DW$824, DW_AT_TI_symbol_name("_XINT1")
    5968                      .dwattr $C$DW$824, DW_AT_data_member_location[DW_OP_plus_uconst 0x66]
    5969                      .dwattr $C$DW$824, DW_AT_accessibility(DW_ACCESS_public)
    5970              $C$DW$825       .dwtag  DW_TAG_member
    5971                      .dwattr $C$DW$825, DW_AT_type(*$C$DW$T$192)
    5972                      .dwattr $C$DW$825, DW_AT_name("XINT2")
    5973                      .dwattr $C$DW$825, DW_AT_TI_symbol_name("_XINT2")
    5974                      .dwattr $C$DW$825, DW_AT_data_member_location[DW_OP_plus_uconst 0x68]
    5975                      .dwattr $C$DW$825, DW_AT_accessibility(DW_ACCESS_public)
    5976              $C$DW$826       .dwtag  DW_TAG_member
    5977                      .dwattr $C$DW$826, DW_AT_type(*$C$DW$T$192)
    5978                      .dwattr $C$DW$826, DW_AT_name("ADCINT9")
    5979                      .dwattr $C$DW$826, DW_AT_TI_symbol_name("_ADCINT9")
    5980                      .dwattr $C$DW$826, DW_AT_data_member_location[DW_OP_plus_uconst 0x6a]
    5981                      .dwattr $C$DW$826, DW_AT_accessibility(DW_ACCESS_public)
    5982              $C$DW$827       .dwtag  DW_TAG_member
    5983                      .dwattr $C$DW$827, DW_AT_type(*$C$DW$T$192)
    5984                      .dwattr $C$DW$827, DW_AT_name("TINT0")
    5985                      .dwattr $C$DW$827, DW_AT_TI_symbol_name("_TINT0")
    5986                      .dwattr $C$DW$827, DW_AT_data_member_location[DW_OP_plus_uconst 0x6c]
    5987                      .dwattr $C$DW$827, DW_AT_accessibility(DW_ACCESS_public)
    5988              $C$DW$828       .dwtag  DW_TAG_member
    5989                      .dwattr $C$DW$828, DW_AT_type(*$C$DW$T$192)
    5990                      .dwattr $C$DW$828, DW_AT_name("WAKEINT")
    5991                      .dwattr $C$DW$828, DW_AT_TI_symbol_name("_WAKEINT")
    5992                      .dwattr $C$DW$828, DW_AT_data_member_location[DW_OP_plus_uconst 0x6e]
    5993                      .dwattr $C$DW$828, DW_AT_accessibility(DW_ACCESS_public)
    5994              $C$DW$829       .dwtag  DW_TAG_member
    5995                      .dwattr $C$DW$829, DW_AT_type(*$C$DW$T$192)
    5996                      .dwattr $C$DW$829, DW_AT_name("EPWM1_TZINT")
    5997                      .dwattr $C$DW$829, DW_AT_TI_symbol_name("_EPWM1_TZINT")
TMS320C2000 Assembler PC v6.2.5 Fri Sep 29 09:29:33 2017

Tools Copyright (c) 1996-2014 Texas Instruments Incorporated
C:\Users\wmj\AppData\Local\Temp\1142410                              PAGE  111

    5998                      .dwattr $C$DW$829, DW_AT_data_member_location[DW_OP_plus_uconst 0x70]
    5999                      .dwattr $C$DW$829, DW_AT_accessibility(DW_ACCESS_public)
    6000              $C$DW$830       .dwtag  DW_TAG_member
    6001                      .dwattr $C$DW$830, DW_AT_type(*$C$DW$T$192)
    6002                      .dwattr $C$DW$830, DW_AT_name("EPWM2_TZINT")
    6003                      .dwattr $C$DW$830, DW_AT_TI_symbol_name("_EPWM2_TZINT")
    6004                      .dwattr $C$DW$830, DW_AT_data_member_location[DW_OP_plus_uconst 0x72]
    6005                      .dwattr $C$DW$830, DW_AT_accessibility(DW_ACCESS_public)
    6006              $C$DW$831       .dwtag  DW_TAG_member
    6007                      .dwattr $C$DW$831, DW_AT_type(*$C$DW$T$192)
    6008                      .dwattr $C$DW$831, DW_AT_name("EPWM3_TZINT")
    6009                      .dwattr $C$DW$831, DW_AT_TI_symbol_name("_EPWM3_TZINT")
    6010                      .dwattr $C$DW$831, DW_AT_data_member_location[DW_OP_plus_uconst 0x74]
    6011                      .dwattr $C$DW$831, DW_AT_accessibility(DW_ACCESS_public)
    6012              $C$DW$832       .dwtag  DW_TAG_member
    6013                      .dwattr $C$DW$832, DW_AT_type(*$C$DW$T$192)
    6014                      .dwattr $C$DW$832, DW_AT_name("EPWM4_TZINT")
    6015                      .dwattr $C$DW$832, DW_AT_TI_symbol_name("_EPWM4_TZINT")
    6016                      .dwattr $C$DW$832, DW_AT_data_member_location[DW_OP_plus_uconst 0x76]
    6017                      .dwattr $C$DW$832, DW_AT_accessibility(DW_ACCESS_public)
    6018              $C$DW$833       .dwtag  DW_TAG_member
    6019                      .dwattr $C$DW$833, DW_AT_type(*$C$DW$T$192)
    6020                      .dwattr $C$DW$833, DW_AT_name("rsvd2_5")
    6021                      .dwattr $C$DW$833, DW_AT_TI_symbol_name("_rsvd2_5")
    6022                      .dwattr $C$DW$833, DW_AT_data_member_location[DW_OP_plus_uconst 0x78]
    6023                      .dwattr $C$DW$833, DW_AT_accessibility(DW_ACCESS_public)
    6024              $C$DW$834       .dwtag  DW_TAG_member
    6025                      .dwattr $C$DW$834, DW_AT_type(*$C$DW$T$192)
    6026                      .dwattr $C$DW$834, DW_AT_name("rsvd2_6")
    6027                      .dwattr $C$DW$834, DW_AT_TI_symbol_name("_rsvd2_6")
    6028                      .dwattr $C$DW$834, DW_AT_data_member_location[DW_OP_plus_uconst 0x7a]
    6029                      .dwattr $C$DW$834, DW_AT_accessibility(DW_ACCESS_public)
    6030              $C$DW$835       .dwtag  DW_TAG_member
    6031                      .dwattr $C$DW$835, DW_AT_type(*$C$DW$T$192)
    6032                      .dwattr $C$DW$835, DW_AT_name("rsvd2_7")
    6033                      .dwattr $C$DW$835, DW_AT_TI_symbol_name("_rsvd2_7")
    6034                      .dwattr $C$DW$835, DW_AT_data_member_location[DW_OP_plus_uconst 0x7c]
    6035                      .dwattr $C$DW$835, DW_AT_accessibility(DW_ACCESS_public)
    6036              $C$DW$836       .dwtag  DW_TAG_member
    6037                      .dwattr $C$DW$836, DW_AT_type(*$C$DW$T$192)
    6038                      .dwattr $C$DW$836, DW_AT_name("rsvd2_8")
    6039                      .dwattr $C$DW$836, DW_AT_TI_symbol_name("_rsvd2_8")
    6040                      .dwattr $C$DW$836, DW_AT_data_member_location[DW_OP_plus_uconst 0x7e]
    6041                      .dwattr $C$DW$836, DW_AT_accessibility(DW_ACCESS_public)
    6042              $C$DW$837       .dwtag  DW_TAG_member
    6043                      .dwattr $C$DW$837, DW_AT_type(*$C$DW$T$192)
    6044                      .dwattr $C$DW$837, DW_AT_name("EPWM1_INT")
    6045                      .dwattr $C$DW$837, DW_AT_TI_symbol_name("_EPWM1_INT")
    6046                      .dwattr $C$DW$837, DW_AT_data_member_location[DW_OP_plus_uconst 0x80]
    6047                      .dwattr $C$DW$837, DW_AT_accessibility(DW_ACCESS_public)
    6048              $C$DW$838       .dwtag  DW_TAG_member
    6049                      .dwattr $C$DW$838, DW_AT_type(*$C$DW$T$192)
    6050                      .dwattr $C$DW$838, DW_AT_name("EPWM2_INT")
    6051                      .dwattr $C$DW$838, DW_AT_TI_symbol_name("_EPWM2_INT")
    6052                      .dwattr $C$DW$838, DW_AT_data_member_location[DW_OP_plus_uconst 0x82]
TMS320C2000 Assembler PC v6.2.5 Fri Sep 29 09:29:33 2017

Tools Copyright (c) 1996-2014 Texas Instruments Incorporated
C:\Users\wmj\AppData\Local\Temp\1142410                              PAGE  112

    6053                      .dwattr $C$DW$838, DW_AT_accessibility(DW_ACCESS_public)
    6054              $C$DW$839       .dwtag  DW_TAG_member
    6055                      .dwattr $C$DW$839, DW_AT_type(*$C$DW$T$192)
    6056                      .dwattr $C$DW$839, DW_AT_name("EPWM3_INT")
    6057                      .dwattr $C$DW$839, DW_AT_TI_symbol_name("_EPWM3_INT")
    6058                      .dwattr $C$DW$839, DW_AT_data_member_location[DW_OP_plus_uconst 0x84]
    6059                      .dwattr $C$DW$839, DW_AT_accessibility(DW_ACCESS_public)
    6060              $C$DW$840       .dwtag  DW_TAG_member
    6061                      .dwattr $C$DW$840, DW_AT_type(*$C$DW$T$192)
    6062                      .dwattr $C$DW$840, DW_AT_name("EPWM4_INT")
    6063                      .dwattr $C$DW$840, DW_AT_TI_symbol_name("_EPWM4_INT")
    6064                      .dwattr $C$DW$840, DW_AT_data_member_location[DW_OP_plus_uconst 0x86]
    6065                      .dwattr $C$DW$840, DW_AT_accessibility(DW_ACCESS_public)
    6066              $C$DW$841       .dwtag  DW_TAG_member
    6067                      .dwattr $C$DW$841, DW_AT_type(*$C$DW$T$192)
    6068                      .dwattr $C$DW$841, DW_AT_name("rsvd3_5")
    6069                      .dwattr $C$DW$841, DW_AT_TI_symbol_name("_rsvd3_5")
    6070                      .dwattr $C$DW$841, DW_AT_data_member_location[DW_OP_plus_uconst 0x88]
    6071                      .dwattr $C$DW$841, DW_AT_accessibility(DW_ACCESS_public)
    6072              $C$DW$842       .dwtag  DW_TAG_member
    6073                      .dwattr $C$DW$842, DW_AT_type(*$C$DW$T$192)
    6074                      .dwattr $C$DW$842, DW_AT_name("rsvd3_6")
    6075                      .dwattr $C$DW$842, DW_AT_TI_symbol_name("_rsvd3_6")
    6076                      .dwattr $C$DW$842, DW_AT_data_member_location[DW_OP_plus_uconst 0x8a]
    6077                      .dwattr $C$DW$842, DW_AT_accessibility(DW_ACCESS_public)
    6078              $C$DW$843       .dwtag  DW_TAG_member
    6079                      .dwattr $C$DW$843, DW_AT_type(*$C$DW$T$192)
    6080                      .dwattr $C$DW$843, DW_AT_name("rsvd3_7")
    6081                      .dwattr $C$DW$843, DW_AT_TI_symbol_name("_rsvd3_7")
    6082                      .dwattr $C$DW$843, DW_AT_data_member_location[DW_OP_plus_uconst 0x8c]
    6083                      .dwattr $C$DW$843, DW_AT_accessibility(DW_ACCESS_public)
    6084              $C$DW$844       .dwtag  DW_TAG_member
    6085                      .dwattr $C$DW$844, DW_AT_type(*$C$DW$T$192)
    6086                      .dwattr $C$DW$844, DW_AT_name("rsvd3_8")
    6087                      .dwattr $C$DW$844, DW_AT_TI_symbol_name("_rsvd3_8")
    6088                      .dwattr $C$DW$844, DW_AT_data_member_location[DW_OP_plus_uconst 0x8e]
    6089                      .dwattr $C$DW$844, DW_AT_accessibility(DW_ACCESS_public)
    6090              $C$DW$845       .dwtag  DW_TAG_member
    6091                      .dwattr $C$DW$845, DW_AT_type(*$C$DW$T$192)
    6092                      .dwattr $C$DW$845, DW_AT_name("ECAP1_INT")
    6093                      .dwattr $C$DW$845, DW_AT_TI_symbol_name("_ECAP1_INT")
    6094                      .dwattr $C$DW$845, DW_AT_data_member_location[DW_OP_plus_uconst 0x90]
    6095                      .dwattr $C$DW$845, DW_AT_accessibility(DW_ACCESS_public)
    6096              $C$DW$846       .dwtag  DW_TAG_member
    6097                      .dwattr $C$DW$846, DW_AT_type(*$C$DW$T$192)
    6098                      .dwattr $C$DW$846, DW_AT_name("rsvd4_2")
    6099                      .dwattr $C$DW$846, DW_AT_TI_symbol_name("_rsvd4_2")
    6100                      .dwattr $C$DW$846, DW_AT_data_member_location[DW_OP_plus_uconst 0x92]
    6101                      .dwattr $C$DW$846, DW_AT_accessibility(DW_ACCESS_public)
    6102              $C$DW$847       .dwtag  DW_TAG_member
    6103                      .dwattr $C$DW$847, DW_AT_type(*$C$DW$T$192)
    6104                      .dwattr $C$DW$847, DW_AT_name("rsvd4_3")
    6105                      .dwattr $C$DW$847, DW_AT_TI_symbol_name("_rsvd4_3")
    6106                      .dwattr $C$DW$847, DW_AT_data_member_location[DW_OP_plus_uconst 0x94]
    6107                      .dwattr $C$DW$847, DW_AT_accessibility(DW_ACCESS_public)
TMS320C2000 Assembler PC v6.2.5 Fri Sep 29 09:29:33 2017

Tools Copyright (c) 1996-2014 Texas Instruments Incorporated
C:\Users\wmj\AppData\Local\Temp\1142410                              PAGE  113

    6108              $C$DW$848       .dwtag  DW_TAG_member
    6109                      .dwattr $C$DW$848, DW_AT_type(*$C$DW$T$192)
    6110                      .dwattr $C$DW$848, DW_AT_name("rsvd4_4")
    6111                      .dwattr $C$DW$848, DW_AT_TI_symbol_name("_rsvd4_4")
    6112                      .dwattr $C$DW$848, DW_AT_data_member_location[DW_OP_plus_uconst 0x96]
    6113                      .dwattr $C$DW$848, DW_AT_accessibility(DW_ACCESS_public)
    6114              $C$DW$849       .dwtag  DW_TAG_member
    6115                      .dwattr $C$DW$849, DW_AT_type(*$C$DW$T$192)
    6116                      .dwattr $C$DW$849, DW_AT_name("rsvd4_5")
    6117                      .dwattr $C$DW$849, DW_AT_TI_symbol_name("_rsvd4_5")
    6118                      .dwattr $C$DW$849, DW_AT_data_member_location[DW_OP_plus_uconst 0x98]
    6119                      .dwattr $C$DW$849, DW_AT_accessibility(DW_ACCESS_public)
    6120              $C$DW$850       .dwtag  DW_TAG_member
    6121                      .dwattr $C$DW$850, DW_AT_type(*$C$DW$T$192)
    6122                      .dwattr $C$DW$850, DW_AT_name("rsvd4_6")
    6123                      .dwattr $C$DW$850, DW_AT_TI_symbol_name("_rsvd4_6")
    6124                      .dwattr $C$DW$850, DW_AT_data_member_location[DW_OP_plus_uconst 0x9a]
    6125                      .dwattr $C$DW$850, DW_AT_accessibility(DW_ACCESS_public)
    6126              $C$DW$851       .dwtag  DW_TAG_member
    6127                      .dwattr $C$DW$851, DW_AT_type(*$C$DW$T$192)
    6128                      .dwattr $C$DW$851, DW_AT_name("rsvd4_7")
    6129                      .dwattr $C$DW$851, DW_AT_TI_symbol_name("_rsvd4_7")
    6130                      .dwattr $C$DW$851, DW_AT_data_member_location[DW_OP_plus_uconst 0x9c]
    6131                      .dwattr $C$DW$851, DW_AT_accessibility(DW_ACCESS_public)
    6132              $C$DW$852       .dwtag  DW_TAG_member
    6133                      .dwattr $C$DW$852, DW_AT_type(*$C$DW$T$192)
    6134                      .dwattr $C$DW$852, DW_AT_name("rsvd4_8")
    6135                      .dwattr $C$DW$852, DW_AT_TI_symbol_name("_rsvd4_8")
    6136                      .dwattr $C$DW$852, DW_AT_data_member_location[DW_OP_plus_uconst 0x9e]
    6137                      .dwattr $C$DW$852, DW_AT_accessibility(DW_ACCESS_public)
    6138              $C$DW$853       .dwtag  DW_TAG_member
    6139                      .dwattr $C$DW$853, DW_AT_type(*$C$DW$T$192)
    6140                      .dwattr $C$DW$853, DW_AT_name("rsvd5_1")
    6141                      .dwattr $C$DW$853, DW_AT_TI_symbol_name("_rsvd5_1")
    6142                      .dwattr $C$DW$853, DW_AT_data_member_location[DW_OP_plus_uconst 0xa0]
    6143                      .dwattr $C$DW$853, DW_AT_accessibility(DW_ACCESS_public)
    6144              $C$DW$854       .dwtag  DW_TAG_member
    6145                      .dwattr $C$DW$854, DW_AT_type(*$C$DW$T$192)
    6146                      .dwattr $C$DW$854, DW_AT_name("rsvd5_2")
    6147                      .dwattr $C$DW$854, DW_AT_TI_symbol_name("_rsvd5_2")
    6148                      .dwattr $C$DW$854, DW_AT_data_member_location[DW_OP_plus_uconst 0xa2]
    6149                      .dwattr $C$DW$854, DW_AT_accessibility(DW_ACCESS_public)
    6150              $C$DW$855       .dwtag  DW_TAG_member
    6151                      .dwattr $C$DW$855, DW_AT_type(*$C$DW$T$192)
    6152                      .dwattr $C$DW$855, DW_AT_name("rsvd5_3")
    6153                      .dwattr $C$DW$855, DW_AT_TI_symbol_name("_rsvd5_3")
    6154                      .dwattr $C$DW$855, DW_AT_data_member_location[DW_OP_plus_uconst 0xa4]
    6155                      .dwattr $C$DW$855, DW_AT_accessibility(DW_ACCESS_public)
    6156              $C$DW$856       .dwtag  DW_TAG_member
    6157                      .dwattr $C$DW$856, DW_AT_type(*$C$DW$T$192)
    6158                      .dwattr $C$DW$856, DW_AT_name("rsvd5_4")
    6159                      .dwattr $C$DW$856, DW_AT_TI_symbol_name("_rsvd5_4")
    6160                      .dwattr $C$DW$856, DW_AT_data_member_location[DW_OP_plus_uconst 0xa6]
    6161                      .dwattr $C$DW$856, DW_AT_accessibility(DW_ACCESS_public)
    6162              $C$DW$857       .dwtag  DW_TAG_member
TMS320C2000 Assembler PC v6.2.5 Fri Sep 29 09:29:33 2017

Tools Copyright (c) 1996-2014 Texas Instruments Incorporated
C:\Users\wmj\AppData\Local\Temp\1142410                              PAGE  114

    6163                      .dwattr $C$DW$857, DW_AT_type(*$C$DW$T$192)
    6164                      .dwattr $C$DW$857, DW_AT_name("rsvd5_5")
    6165                      .dwattr $C$DW$857, DW_AT_TI_symbol_name("_rsvd5_5")
    6166                      .dwattr $C$DW$857, DW_AT_data_member_location[DW_OP_plus_uconst 0xa8]
    6167                      .dwattr $C$DW$857, DW_AT_accessibility(DW_ACCESS_public)
    6168              $C$DW$858       .dwtag  DW_TAG_member
    6169                      .dwattr $C$DW$858, DW_AT_type(*$C$DW$T$192)
    6170                      .dwattr $C$DW$858, DW_AT_name("rsvd5_6")
    6171                      .dwattr $C$DW$858, DW_AT_TI_symbol_name("_rsvd5_6")
    6172                      .dwattr $C$DW$858, DW_AT_data_member_location[DW_OP_plus_uconst 0xaa]
    6173                      .dwattr $C$DW$858, DW_AT_accessibility(DW_ACCESS_public)
    6174              $C$DW$859       .dwtag  DW_TAG_member
    6175                      .dwattr $C$DW$859, DW_AT_type(*$C$DW$T$192)
    6176                      .dwattr $C$DW$859, DW_AT_name("rsvd5_7")
    6177                      .dwattr $C$DW$859, DW_AT_TI_symbol_name("_rsvd5_7")
    6178                      .dwattr $C$DW$859, DW_AT_data_member_location[DW_OP_plus_uconst 0xac]
    6179                      .dwattr $C$DW$859, DW_AT_accessibility(DW_ACCESS_public)
    6180              $C$DW$860       .dwtag  DW_TAG_member
    6181                      .dwattr $C$DW$860, DW_AT_type(*$C$DW$T$192)
    6182                      .dwattr $C$DW$860, DW_AT_name("rsvd5_8")
    6183                      .dwattr $C$DW$860, DW_AT_TI_symbol_name("_rsvd5_8")
    6184                      .dwattr $C$DW$860, DW_AT_data_member_location[DW_OP_plus_uconst 0xae]
    6185                      .dwattr $C$DW$860, DW_AT_accessibility(DW_ACCESS_public)
    6186              $C$DW$861       .dwtag  DW_TAG_member
    6187                      .dwattr $C$DW$861, DW_AT_type(*$C$DW$T$192)
    6188                      .dwattr $C$DW$861, DW_AT_name("SPIRXINTA")
    6189                      .dwattr $C$DW$861, DW_AT_TI_symbol_name("_SPIRXINTA")
    6190                      .dwattr $C$DW$861, DW_AT_data_member_location[DW_OP_plus_uconst 0xb0]
    6191                      .dwattr $C$DW$861, DW_AT_accessibility(DW_ACCESS_public)
    6192              $C$DW$862       .dwtag  DW_TAG_member
    6193                      .dwattr $C$DW$862, DW_AT_type(*$C$DW$T$192)
    6194                      .dwattr $C$DW$862, DW_AT_name("SPITXINTA")
    6195                      .dwattr $C$DW$862, DW_AT_TI_symbol_name("_SPITXINTA")
    6196                      .dwattr $C$DW$862, DW_AT_data_member_location[DW_OP_plus_uconst 0xb2]
    6197                      .dwattr $C$DW$862, DW_AT_accessibility(DW_ACCESS_public)
    6198              $C$DW$863       .dwtag  DW_TAG_member
    6199                      .dwattr $C$DW$863, DW_AT_type(*$C$DW$T$192)
    6200                      .dwattr $C$DW$863, DW_AT_name("rsvd6_3")
    6201                      .dwattr $C$DW$863, DW_AT_TI_symbol_name("_rsvd6_3")
    6202                      .dwattr $C$DW$863, DW_AT_data_member_location[DW_OP_plus_uconst 0xb4]
    6203                      .dwattr $C$DW$863, DW_AT_accessibility(DW_ACCESS_public)
    6204              $C$DW$864       .dwtag  DW_TAG_member
    6205                      .dwattr $C$DW$864, DW_AT_type(*$C$DW$T$192)
    6206                      .dwattr $C$DW$864, DW_AT_name("rsvd6_4")
    6207                      .dwattr $C$DW$864, DW_AT_TI_symbol_name("_rsvd6_4")
    6208                      .dwattr $C$DW$864, DW_AT_data_member_location[DW_OP_plus_uconst 0xb6]
    6209                      .dwattr $C$DW$864, DW_AT_accessibility(DW_ACCESS_public)
    6210              $C$DW$865       .dwtag  DW_TAG_member
    6211                      .dwattr $C$DW$865, DW_AT_type(*$C$DW$T$192)
    6212                      .dwattr $C$DW$865, DW_AT_name("rsvd6_5")
    6213                      .dwattr $C$DW$865, DW_AT_TI_symbol_name("_rsvd6_5")
    6214                      .dwattr $C$DW$865, DW_AT_data_member_location[DW_OP_plus_uconst 0xb8]
    6215                      .dwattr $C$DW$865, DW_AT_accessibility(DW_ACCESS_public)
    6216              $C$DW$866       .dwtag  DW_TAG_member
    6217                      .dwattr $C$DW$866, DW_AT_type(*$C$DW$T$192)
TMS320C2000 Assembler PC v6.2.5 Fri Sep 29 09:29:33 2017

Tools Copyright (c) 1996-2014 Texas Instruments Incorporated
C:\Users\wmj\AppData\Local\Temp\1142410                              PAGE  115

    6218                      .dwattr $C$DW$866, DW_AT_name("rsvd6_6")
    6219                      .dwattr $C$DW$866, DW_AT_TI_symbol_name("_rsvd6_6")
    6220                      .dwattr $C$DW$866, DW_AT_data_member_location[DW_OP_plus_uconst 0xba]
    6221                      .dwattr $C$DW$866, DW_AT_accessibility(DW_ACCESS_public)
    6222              $C$DW$867       .dwtag  DW_TAG_member
    6223                      .dwattr $C$DW$867, DW_AT_type(*$C$DW$T$192)
    6224                      .dwattr $C$DW$867, DW_AT_name("rsvd6_7")
    6225                      .dwattr $C$DW$867, DW_AT_TI_symbol_name("_rsvd6_7")
    6226                      .dwattr $C$DW$867, DW_AT_data_member_location[DW_OP_plus_uconst 0xbc]
    6227                      .dwattr $C$DW$867, DW_AT_accessibility(DW_ACCESS_public)
    6228              $C$DW$868       .dwtag  DW_TAG_member
    6229                      .dwattr $C$DW$868, DW_AT_type(*$C$DW$T$192)
    6230                      .dwattr $C$DW$868, DW_AT_name("rsvd6_8")
    6231                      .dwattr $C$DW$868, DW_AT_TI_symbol_name("_rsvd6_8")
    6232                      .dwattr $C$DW$868, DW_AT_data_member_location[DW_OP_plus_uconst 0xbe]
    6233                      .dwattr $C$DW$868, DW_AT_accessibility(DW_ACCESS_public)
    6234              $C$DW$869       .dwtag  DW_TAG_member
    6235                      .dwattr $C$DW$869, DW_AT_type(*$C$DW$T$192)
    6236                      .dwattr $C$DW$869, DW_AT_name("rsvd7_1")
    6237                      .dwattr $C$DW$869, DW_AT_TI_symbol_name("_rsvd7_1")
    6238                      .dwattr $C$DW$869, DW_AT_data_member_location[DW_OP_plus_uconst 0xc0]
    6239                      .dwattr $C$DW$869, DW_AT_accessibility(DW_ACCESS_public)
    6240              $C$DW$870       .dwtag  DW_TAG_member
    6241                      .dwattr $C$DW$870, DW_AT_type(*$C$DW$T$192)
    6242                      .dwattr $C$DW$870, DW_AT_name("rsvd7_2")
    6243                      .dwattr $C$DW$870, DW_AT_TI_symbol_name("_rsvd7_2")
    6244                      .dwattr $C$DW$870, DW_AT_data_member_location[DW_OP_plus_uconst 0xc2]
    6245                      .dwattr $C$DW$870, DW_AT_accessibility(DW_ACCESS_public)
    6246              $C$DW$871       .dwtag  DW_TAG_member
    6247                      .dwattr $C$DW$871, DW_AT_type(*$C$DW$T$192)
    6248                      .dwattr $C$DW$871, DW_AT_name("rsvd7_3")
    6249                      .dwattr $C$DW$871, DW_AT_TI_symbol_name("_rsvd7_3")
    6250                      .dwattr $C$DW$871, DW_AT_data_member_location[DW_OP_plus_uconst 0xc4]
    6251                      .dwattr $C$DW$871, DW_AT_accessibility(DW_ACCESS_public)
    6252              $C$DW$872       .dwtag  DW_TAG_member
    6253                      .dwattr $C$DW$872, DW_AT_type(*$C$DW$T$192)
    6254                      .dwattr $C$DW$872, DW_AT_name("rsvd7_4")
    6255                      .dwattr $C$DW$872, DW_AT_TI_symbol_name("_rsvd7_4")
    6256                      .dwattr $C$DW$872, DW_AT_data_member_location[DW_OP_plus_uconst 0xc6]
    6257                      .dwattr $C$DW$872, DW_AT_accessibility(DW_ACCESS_public)
    6258              $C$DW$873       .dwtag  DW_TAG_member
    6259                      .dwattr $C$DW$873, DW_AT_type(*$C$DW$T$192)
    6260                      .dwattr $C$DW$873, DW_AT_name("rsvd7_5")
    6261                      .dwattr $C$DW$873, DW_AT_TI_symbol_name("_rsvd7_5")
    6262                      .dwattr $C$DW$873, DW_AT_data_member_location[DW_OP_plus_uconst 0xc8]
    6263                      .dwattr $C$DW$873, DW_AT_accessibility(DW_ACCESS_public)
    6264              $C$DW$874       .dwtag  DW_TAG_member
    6265                      .dwattr $C$DW$874, DW_AT_type(*$C$DW$T$192)
    6266                      .dwattr $C$DW$874, DW_AT_name("rsvd7_6")
    6267                      .dwattr $C$DW$874, DW_AT_TI_symbol_name("_rsvd7_6")
    6268                      .dwattr $C$DW$874, DW_AT_data_member_location[DW_OP_plus_uconst 0xca]
    6269                      .dwattr $C$DW$874, DW_AT_accessibility(DW_ACCESS_public)
    6270              $C$DW$875       .dwtag  DW_TAG_member
    6271                      .dwattr $C$DW$875, DW_AT_type(*$C$DW$T$192)
    6272                      .dwattr $C$DW$875, DW_AT_name("rsvd7_7")
TMS320C2000 Assembler PC v6.2.5 Fri Sep 29 09:29:33 2017

Tools Copyright (c) 1996-2014 Texas Instruments Incorporated
C:\Users\wmj\AppData\Local\Temp\1142410                              PAGE  116

    6273                      .dwattr $C$DW$875, DW_AT_TI_symbol_name("_rsvd7_7")
    6274                      .dwattr $C$DW$875, DW_AT_data_member_location[DW_OP_plus_uconst 0xcc]
    6275                      .dwattr $C$DW$875, DW_AT_accessibility(DW_ACCESS_public)
    6276              $C$DW$876       .dwtag  DW_TAG_member
    6277                      .dwattr $C$DW$876, DW_AT_type(*$C$DW$T$192)
    6278                      .dwattr $C$DW$876, DW_AT_name("rsvd7_8")
    6279                      .dwattr $C$DW$876, DW_AT_TI_symbol_name("_rsvd7_8")
    6280                      .dwattr $C$DW$876, DW_AT_data_member_location[DW_OP_plus_uconst 0xce]
    6281                      .dwattr $C$DW$876, DW_AT_accessibility(DW_ACCESS_public)
    6282              $C$DW$877       .dwtag  DW_TAG_member
    6283                      .dwattr $C$DW$877, DW_AT_type(*$C$DW$T$192)
    6284                      .dwattr $C$DW$877, DW_AT_name("I2CINT1A")
    6285                      .dwattr $C$DW$877, DW_AT_TI_symbol_name("_I2CINT1A")
    6286                      .dwattr $C$DW$877, DW_AT_data_member_location[DW_OP_plus_uconst 0xd0]
    6287                      .dwattr $C$DW$877, DW_AT_accessibility(DW_ACCESS_public)
    6288              $C$DW$878       .dwtag  DW_TAG_member
    6289                      .dwattr $C$DW$878, DW_AT_type(*$C$DW$T$192)
    6290                      .dwattr $C$DW$878, DW_AT_name("I2CINT2A")
    6291                      .dwattr $C$DW$878, DW_AT_TI_symbol_name("_I2CINT2A")
    6292                      .dwattr $C$DW$878, DW_AT_data_member_location[DW_OP_plus_uconst 0xd2]
    6293                      .dwattr $C$DW$878, DW_AT_accessibility(DW_ACCESS_public)
    6294              $C$DW$879       .dwtag  DW_TAG_member
    6295                      .dwattr $C$DW$879, DW_AT_type(*$C$DW$T$192)
    6296                      .dwattr $C$DW$879, DW_AT_name("rsvd8_3")
    6297                      .dwattr $C$DW$879, DW_AT_TI_symbol_name("_rsvd8_3")
    6298                      .dwattr $C$DW$879, DW_AT_data_member_location[DW_OP_plus_uconst 0xd4]
    6299                      .dwattr $C$DW$879, DW_AT_accessibility(DW_ACCESS_public)
    6300              $C$DW$880       .dwtag  DW_TAG_member
    6301                      .dwattr $C$DW$880, DW_AT_type(*$C$DW$T$192)
    6302                      .dwattr $C$DW$880, DW_AT_name("rsvd8_4")
    6303                      .dwattr $C$DW$880, DW_AT_TI_symbol_name("_rsvd8_4")
    6304                      .dwattr $C$DW$880, DW_AT_data_member_location[DW_OP_plus_uconst 0xd6]
    6305                      .dwattr $C$DW$880, DW_AT_accessibility(DW_ACCESS_public)
    6306              $C$DW$881       .dwtag  DW_TAG_member
    6307                      .dwattr $C$DW$881, DW_AT_type(*$C$DW$T$192)
    6308                      .dwattr $C$DW$881, DW_AT_name("rsvd8_5")
    6309                      .dwattr $C$DW$881, DW_AT_TI_symbol_name("_rsvd8_5")
    6310                      .dwattr $C$DW$881, DW_AT_data_member_location[DW_OP_plus_uconst 0xd8]
    6311                      .dwattr $C$DW$881, DW_AT_accessibility(DW_ACCESS_public)
    6312              $C$DW$882       .dwtag  DW_TAG_member
    6313                      .dwattr $C$DW$882, DW_AT_type(*$C$DW$T$192)
    6314                      .dwattr $C$DW$882, DW_AT_name("rsvd8_6")
    6315                      .dwattr $C$DW$882, DW_AT_TI_symbol_name("_rsvd8_6")
    6316                      .dwattr $C$DW$882, DW_AT_data_member_location[DW_OP_plus_uconst 0xda]
    6317                      .dwattr $C$DW$882, DW_AT_accessibility(DW_ACCESS_public)
    6318              $C$DW$883       .dwtag  DW_TAG_member
    6319                      .dwattr $C$DW$883, DW_AT_type(*$C$DW$T$192)
    6320                      .dwattr $C$DW$883, DW_AT_name("rsvd8_7")
    6321                      .dwattr $C$DW$883, DW_AT_TI_symbol_name("_rsvd8_7")
    6322                      .dwattr $C$DW$883, DW_AT_data_member_location[DW_OP_plus_uconst 0xdc]
    6323                      .dwattr $C$DW$883, DW_AT_accessibility(DW_ACCESS_public)
    6324              $C$DW$884       .dwtag  DW_TAG_member
    6325                      .dwattr $C$DW$884, DW_AT_type(*$C$DW$T$192)
    6326                      .dwattr $C$DW$884, DW_AT_name("rsvd8_8")
    6327                      .dwattr $C$DW$884, DW_AT_TI_symbol_name("_rsvd8_8")
TMS320C2000 Assembler PC v6.2.5 Fri Sep 29 09:29:33 2017

Tools Copyright (c) 1996-2014 Texas Instruments Incorporated
C:\Users\wmj\AppData\Local\Temp\1142410                              PAGE  117

    6328                      .dwattr $C$DW$884, DW_AT_data_member_location[DW_OP_plus_uconst 0xde]
    6329                      .dwattr $C$DW$884, DW_AT_accessibility(DW_ACCESS_public)
    6330              $C$DW$885       .dwtag  DW_TAG_member
    6331                      .dwattr $C$DW$885, DW_AT_type(*$C$DW$T$192)
    6332                      .dwattr $C$DW$885, DW_AT_name("SCIRXINTA")
    6333                      .dwattr $C$DW$885, DW_AT_TI_symbol_name("_SCIRXINTA")
    6334                      .dwattr $C$DW$885, DW_AT_data_member_location[DW_OP_plus_uconst 0xe0]
    6335                      .dwattr $C$DW$885, DW_AT_accessibility(DW_ACCESS_public)
    6336              $C$DW$886       .dwtag  DW_TAG_member
    6337                      .dwattr $C$DW$886, DW_AT_type(*$C$DW$T$192)
    6338                      .dwattr $C$DW$886, DW_AT_name("SCITXINTA")
    6339                      .dwattr $C$DW$886, DW_AT_TI_symbol_name("_SCITXINTA")
    6340                      .dwattr $C$DW$886, DW_AT_data_member_location[DW_OP_plus_uconst 0xe2]
    6341                      .dwattr $C$DW$886, DW_AT_accessibility(DW_ACCESS_public)
    6342              $C$DW$887       .dwtag  DW_TAG_member
    6343                      .dwattr $C$DW$887, DW_AT_type(*$C$DW$T$192)
    6344                      .dwattr $C$DW$887, DW_AT_name("rsvd9_3")
    6345                      .dwattr $C$DW$887, DW_AT_TI_symbol_name("_rsvd9_3")
    6346                      .dwattr $C$DW$887, DW_AT_data_member_location[DW_OP_plus_uconst 0xe4]
    6347                      .dwattr $C$DW$887, DW_AT_accessibility(DW_ACCESS_public)
    6348              $C$DW$888       .dwtag  DW_TAG_member
    6349                      .dwattr $C$DW$888, DW_AT_type(*$C$DW$T$192)
    6350                      .dwattr $C$DW$888, DW_AT_name("rsvd9_4")
    6351                      .dwattr $C$DW$888, DW_AT_TI_symbol_name("_rsvd9_4")
    6352                      .dwattr $C$DW$888, DW_AT_data_member_location[DW_OP_plus_uconst 0xe6]
    6353                      .dwattr $C$DW$888, DW_AT_accessibility(DW_ACCESS_public)
    6354              $C$DW$889       .dwtag  DW_TAG_member
    6355                      .dwattr $C$DW$889, DW_AT_type(*$C$DW$T$192)
    6356                      .dwattr $C$DW$889, DW_AT_name("rsvd9_5")
    6357                      .dwattr $C$DW$889, DW_AT_TI_symbol_name("_rsvd9_5")
    6358                      .dwattr $C$DW$889, DW_AT_data_member_location[DW_OP_plus_uconst 0xe8]
    6359                      .dwattr $C$DW$889, DW_AT_accessibility(DW_ACCESS_public)
    6360              $C$DW$890       .dwtag  DW_TAG_member
    6361                      .dwattr $C$DW$890, DW_AT_type(*$C$DW$T$192)
    6362                      .dwattr $C$DW$890, DW_AT_name("rsvd9_6")
    6363                      .dwattr $C$DW$890, DW_AT_TI_symbol_name("_rsvd9_6")
    6364                      .dwattr $C$DW$890, DW_AT_data_member_location[DW_OP_plus_uconst 0xea]
    6365                      .dwattr $C$DW$890, DW_AT_accessibility(DW_ACCESS_public)
    6366              $C$DW$891       .dwtag  DW_TAG_member
    6367                      .dwattr $C$DW$891, DW_AT_type(*$C$DW$T$192)
    6368                      .dwattr $C$DW$891, DW_AT_name("rsvd9_7")
    6369                      .dwattr $C$DW$891, DW_AT_TI_symbol_name("_rsvd9_7")
    6370                      .dwattr $C$DW$891, DW_AT_data_member_location[DW_OP_plus_uconst 0xec]
    6371                      .dwattr $C$DW$891, DW_AT_accessibility(DW_ACCESS_public)
    6372              $C$DW$892       .dwtag  DW_TAG_member
    6373                      .dwattr $C$DW$892, DW_AT_type(*$C$DW$T$192)
    6374                      .dwattr $C$DW$892, DW_AT_name("rsvd9_8")
    6375                      .dwattr $C$DW$892, DW_AT_TI_symbol_name("_rsvd9_8")
    6376                      .dwattr $C$DW$892, DW_AT_data_member_location[DW_OP_plus_uconst 0xee]
    6377                      .dwattr $C$DW$892, DW_AT_accessibility(DW_ACCESS_public)
    6378              $C$DW$893       .dwtag  DW_TAG_member
    6379                      .dwattr $C$DW$893, DW_AT_type(*$C$DW$T$192)
    6380                      .dwattr $C$DW$893, DW_AT_name("ADCINT1")
    6381                      .dwattr $C$DW$893, DW_AT_TI_symbol_name("_ADCINT1")
    6382                      .dwattr $C$DW$893, DW_AT_data_member_location[DW_OP_plus_uconst 0xf0]
TMS320C2000 Assembler PC v6.2.5 Fri Sep 29 09:29:33 2017

Tools Copyright (c) 1996-2014 Texas Instruments Incorporated
C:\Users\wmj\AppData\Local\Temp\1142410                              PAGE  118

    6383                      .dwattr $C$DW$893, DW_AT_accessibility(DW_ACCESS_public)
    6384              $C$DW$894       .dwtag  DW_TAG_member
    6385                      .dwattr $C$DW$894, DW_AT_type(*$C$DW$T$192)
    6386                      .dwattr $C$DW$894, DW_AT_name("ADCINT2")
    6387                      .dwattr $C$DW$894, DW_AT_TI_symbol_name("_ADCINT2")
    6388                      .dwattr $C$DW$894, DW_AT_data_member_location[DW_OP_plus_uconst 0xf2]
    6389                      .dwattr $C$DW$894, DW_AT_accessibility(DW_ACCESS_public)
    6390              $C$DW$895       .dwtag  DW_TAG_member
    6391                      .dwattr $C$DW$895, DW_AT_type(*$C$DW$T$192)
    6392                      .dwattr $C$DW$895, DW_AT_name("ADCINT3")
    6393                      .dwattr $C$DW$895, DW_AT_TI_symbol_name("_ADCINT3")
    6394                      .dwattr $C$DW$895, DW_AT_data_member_location[DW_OP_plus_uconst 0xf4]
    6395                      .dwattr $C$DW$895, DW_AT_accessibility(DW_ACCESS_public)
    6396              $C$DW$896       .dwtag  DW_TAG_member
    6397                      .dwattr $C$DW$896, DW_AT_type(*$C$DW$T$192)
    6398                      .dwattr $C$DW$896, DW_AT_name("ADCINT4")
    6399                      .dwattr $C$DW$896, DW_AT_TI_symbol_name("_ADCINT4")
    6400                      .dwattr $C$DW$896, DW_AT_data_member_location[DW_OP_plus_uconst 0xf6]
    6401                      .dwattr $C$DW$896, DW_AT_accessibility(DW_ACCESS_public)
    6402              $C$DW$897       .dwtag  DW_TAG_member
    6403                      .dwattr $C$DW$897, DW_AT_type(*$C$DW$T$192)
    6404                      .dwattr $C$DW$897, DW_AT_name("ADCINT5")
    6405                      .dwattr $C$DW$897, DW_AT_TI_symbol_name("_ADCINT5")
    6406                      .dwattr $C$DW$897, DW_AT_data_member_location[DW_OP_plus_uconst 0xf8]
    6407                      .dwattr $C$DW$897, DW_AT_accessibility(DW_ACCESS_public)
    6408              $C$DW$898       .dwtag  DW_TAG_member
    6409                      .dwattr $C$DW$898, DW_AT_type(*$C$DW$T$192)
    6410                      .dwattr $C$DW$898, DW_AT_name("ADCINT6")
    6411                      .dwattr $C$DW$898, DW_AT_TI_symbol_name("_ADCINT6")
    6412                      .dwattr $C$DW$898, DW_AT_data_member_location[DW_OP_plus_uconst 0xfa]
    6413                      .dwattr $C$DW$898, DW_AT_accessibility(DW_ACCESS_public)
    6414              $C$DW$899       .dwtag  DW_TAG_member
    6415                      .dwattr $C$DW$899, DW_AT_type(*$C$DW$T$192)
    6416                      .dwattr $C$DW$899, DW_AT_name("ADCINT7")
    6417                      .dwattr $C$DW$899, DW_AT_TI_symbol_name("_ADCINT7")
    6418                      .dwattr $C$DW$899, DW_AT_data_member_location[DW_OP_plus_uconst 0xfc]
    6419                      .dwattr $C$DW$899, DW_AT_accessibility(DW_ACCESS_public)
    6420              $C$DW$900       .dwtag  DW_TAG_member
    6421                      .dwattr $C$DW$900, DW_AT_type(*$C$DW$T$192)
    6422                      .dwattr $C$DW$900, DW_AT_name("ADCINT8")
    6423                      .dwattr $C$DW$900, DW_AT_TI_symbol_name("_ADCINT8")
    6424                      .dwattr $C$DW$900, DW_AT_data_member_location[DW_OP_plus_uconst 0xfe]
    6425                      .dwattr $C$DW$900, DW_AT_accessibility(DW_ACCESS_public)
    6426              $C$DW$901       .dwtag  DW_TAG_member
    6427                      .dwattr $C$DW$901, DW_AT_type(*$C$DW$T$192)
    6428                      .dwattr $C$DW$901, DW_AT_name("rsvd11_1")
    6429                      .dwattr $C$DW$901, DW_AT_TI_symbol_name("_rsvd11_1")
    6430                      .dwattr $C$DW$901, DW_AT_data_member_location[DW_OP_plus_uconst 0x100]
    6431                      .dwattr $C$DW$901, DW_AT_accessibility(DW_ACCESS_public)
    6432              $C$DW$902       .dwtag  DW_TAG_member
    6433                      .dwattr $C$DW$902, DW_AT_type(*$C$DW$T$192)
    6434                      .dwattr $C$DW$902, DW_AT_name("rsvd11_2")
    6435                      .dwattr $C$DW$902, DW_AT_TI_symbol_name("_rsvd11_2")
    6436                      .dwattr $C$DW$902, DW_AT_data_member_location[DW_OP_plus_uconst 0x102]
    6437                      .dwattr $C$DW$902, DW_AT_accessibility(DW_ACCESS_public)
TMS320C2000 Assembler PC v6.2.5 Fri Sep 29 09:29:33 2017

Tools Copyright (c) 1996-2014 Texas Instruments Incorporated
C:\Users\wmj\AppData\Local\Temp\1142410                              PAGE  119

    6438              $C$DW$903       .dwtag  DW_TAG_member
    6439                      .dwattr $C$DW$903, DW_AT_type(*$C$DW$T$192)
    6440                      .dwattr $C$DW$903, DW_AT_name("rsvd11_3")
    6441                      .dwattr $C$DW$903, DW_AT_TI_symbol_name("_rsvd11_3")
    6442                      .dwattr $C$DW$903, DW_AT_data_member_location[DW_OP_plus_uconst 0x104]
    6443                      .dwattr $C$DW$903, DW_AT_accessibility(DW_ACCESS_public)
    6444              $C$DW$904       .dwtag  DW_TAG_member
    6445                      .dwattr $C$DW$904, DW_AT_type(*$C$DW$T$192)
    6446                      .dwattr $C$DW$904, DW_AT_name("rsvd11_4")
    6447                      .dwattr $C$DW$904, DW_AT_TI_symbol_name("_rsvd11_4")
    6448                      .dwattr $C$DW$904, DW_AT_data_member_location[DW_OP_plus_uconst 0x106]
    6449                      .dwattr $C$DW$904, DW_AT_accessibility(DW_ACCESS_public)
    6450              $C$DW$905       .dwtag  DW_TAG_member
    6451                      .dwattr $C$DW$905, DW_AT_type(*$C$DW$T$192)
    6452                      .dwattr $C$DW$905, DW_AT_name("rsvd11_5")
    6453                      .dwattr $C$DW$905, DW_AT_TI_symbol_name("_rsvd11_5")
    6454                      .dwattr $C$DW$905, DW_AT_data_member_location[DW_OP_plus_uconst 0x108]
    6455                      .dwattr $C$DW$905, DW_AT_accessibility(DW_ACCESS_public)
    6456              $C$DW$906       .dwtag  DW_TAG_member
    6457                      .dwattr $C$DW$906, DW_AT_type(*$C$DW$T$192)
    6458                      .dwattr $C$DW$906, DW_AT_name("rsvd11_6")
    6459                      .dwattr $C$DW$906, DW_AT_TI_symbol_name("_rsvd11_6")
    6460                      .dwattr $C$DW$906, DW_AT_data_member_location[DW_OP_plus_uconst 0x10a]
    6461                      .dwattr $C$DW$906, DW_AT_accessibility(DW_ACCESS_public)
    6462              $C$DW$907       .dwtag  DW_TAG_member
    6463                      .dwattr $C$DW$907, DW_AT_type(*$C$DW$T$192)
    6464                      .dwattr $C$DW$907, DW_AT_name("rsvd11_7")
    6465                      .dwattr $C$DW$907, DW_AT_TI_symbol_name("_rsvd11_7")
    6466                      .dwattr $C$DW$907, DW_AT_data_member_location[DW_OP_plus_uconst 0x10c]
    6467                      .dwattr $C$DW$907, DW_AT_accessibility(DW_ACCESS_public)
    6468              $C$DW$908       .dwtag  DW_TAG_member
    6469                      .dwattr $C$DW$908, DW_AT_type(*$C$DW$T$192)
    6470                      .dwattr $C$DW$908, DW_AT_name("rsvd11_8")
    6471                      .dwattr $C$DW$908, DW_AT_TI_symbol_name("_rsvd11_8")
    6472                      .dwattr $C$DW$908, DW_AT_data_member_location[DW_OP_plus_uconst 0x10e]
    6473                      .dwattr $C$DW$908, DW_AT_accessibility(DW_ACCESS_public)
    6474              $C$DW$909       .dwtag  DW_TAG_member
    6475                      .dwattr $C$DW$909, DW_AT_type(*$C$DW$T$192)
    6476                      .dwattr $C$DW$909, DW_AT_name("XINT3")
    6477                      .dwattr $C$DW$909, DW_AT_TI_symbol_name("_XINT3")
    6478                      .dwattr $C$DW$909, DW_AT_data_member_location[DW_OP_plus_uconst 0x110]
    6479                      .dwattr $C$DW$909, DW_AT_accessibility(DW_ACCESS_public)
    6480              $C$DW$910       .dwtag  DW_TAG_member
    6481                      .dwattr $C$DW$910, DW_AT_type(*$C$DW$T$192)
    6482                      .dwattr $C$DW$910, DW_AT_name("rsvd12_2")
    6483                      .dwattr $C$DW$910, DW_AT_TI_symbol_name("_rsvd12_2")
    6484                      .dwattr $C$DW$910, DW_AT_data_member_location[DW_OP_plus_uconst 0x112]
    6485                      .dwattr $C$DW$910, DW_AT_accessibility(DW_ACCESS_public)
    6486              $C$DW$911       .dwtag  DW_TAG_member
    6487                      .dwattr $C$DW$911, DW_AT_type(*$C$DW$T$192)
    6488                      .dwattr $C$DW$911, DW_AT_name("rsvd12_3")
    6489                      .dwattr $C$DW$911, DW_AT_TI_symbol_name("_rsvd12_3")
    6490                      .dwattr $C$DW$911, DW_AT_data_member_location[DW_OP_plus_uconst 0x114]
    6491                      .dwattr $C$DW$911, DW_AT_accessibility(DW_ACCESS_public)
    6492              $C$DW$912       .dwtag  DW_TAG_member
TMS320C2000 Assembler PC v6.2.5 Fri Sep 29 09:29:33 2017

Tools Copyright (c) 1996-2014 Texas Instruments Incorporated
C:\Users\wmj\AppData\Local\Temp\1142410                              PAGE  120

    6493                      .dwattr $C$DW$912, DW_AT_type(*$C$DW$T$192)
    6494                      .dwattr $C$DW$912, DW_AT_name("rsvd12_4")
    6495                      .dwattr $C$DW$912, DW_AT_TI_symbol_name("_rsvd12_4")
    6496                      .dwattr $C$DW$912, DW_AT_data_member_location[DW_OP_plus_uconst 0x116]
    6497                      .dwattr $C$DW$912, DW_AT_accessibility(DW_ACCESS_public)
    6498              $C$DW$913       .dwtag  DW_TAG_member
    6499                      .dwattr $C$DW$913, DW_AT_type(*$C$DW$T$192)
    6500                      .dwattr $C$DW$913, DW_AT_name("rsvd12_5")
    6501                      .dwattr $C$DW$913, DW_AT_TI_symbol_name("_rsvd12_5")
    6502                      .dwattr $C$DW$913, DW_AT_data_member_location[DW_OP_plus_uconst 0x118]
    6503                      .dwattr $C$DW$913, DW_AT_accessibility(DW_ACCESS_public)
    6504              $C$DW$914       .dwtag  DW_TAG_member
    6505                      .dwattr $C$DW$914, DW_AT_type(*$C$DW$T$192)
    6506                      .dwattr $C$DW$914, DW_AT_name("rsvd12_6")
    6507                      .dwattr $C$DW$914, DW_AT_TI_symbol_name("_rsvd12_6")
    6508                      .dwattr $C$DW$914, DW_AT_data_member_location[DW_OP_plus_uconst 0x11a]
    6509                      .dwattr $C$DW$914, DW_AT_accessibility(DW_ACCESS_public)
    6510              $C$DW$915       .dwtag  DW_TAG_member
    6511                      .dwattr $C$DW$915, DW_AT_type(*$C$DW$T$192)
    6512                      .dwattr $C$DW$915, DW_AT_name("rsvd12_7")
    6513                      .dwattr $C$DW$915, DW_AT_TI_symbol_name("_rsvd12_7")
    6514                      .dwattr $C$DW$915, DW_AT_data_member_location[DW_OP_plus_uconst 0x11c]
    6515                      .dwattr $C$DW$915, DW_AT_accessibility(DW_ACCESS_public)
    6516              $C$DW$916       .dwtag  DW_TAG_member
    6517                      .dwattr $C$DW$916, DW_AT_type(*$C$DW$T$192)
    6518                      .dwattr $C$DW$916, DW_AT_name("rsvd12_8")
    6519                      .dwattr $C$DW$916, DW_AT_TI_symbol_name("_rsvd12_8")
    6520                      .dwattr $C$DW$916, DW_AT_data_member_location[DW_OP_plus_uconst 0x11e]
    6521                      .dwattr $C$DW$916, DW_AT_accessibility(DW_ACCESS_public)
    6522              $C$DW$917       .dwtag  DW_TAG_member
    6523                      .dwattr $C$DW$917, DW_AT_type(*$C$DW$T$193)
    6524                      .dwattr $C$DW$917, DW_AT_name("rsvd13")
    6525                      .dwattr $C$DW$917, DW_AT_TI_symbol_name("_rsvd13")
    6526                      .dwattr $C$DW$917, DW_AT_data_member_location[DW_OP_plus_uconst 0x120]
    6527                      .dwattr $C$DW$917, DW_AT_accessibility(DW_ACCESS_public)
    6528              $C$DW$918       .dwtag  DW_TAG_member
    6529                      .dwattr $C$DW$918, DW_AT_type(*$C$DW$T$29)
    6530                      .dwattr $C$DW$918, DW_AT_name("XINTnCR")
    6531                      .dwattr $C$DW$918, DW_AT_TI_symbol_name("_XINTnCR")
    6532                      .dwattr $C$DW$918, DW_AT_data_member_location[DW_OP_plus_uconst 0x6390]
    6533                      .dwattr $C$DW$918, DW_AT_accessibility(DW_ACCESS_public)
    6534              $C$DW$919       .dwtag  DW_TAG_member
    6535                      .dwattr $C$DW$919, DW_AT_type(*$C$DW$T$28)
    6536                      .dwattr $C$DW$919, DW_AT_name("rsvd14")
    6537                      .dwattr $C$DW$919, DW_AT_TI_symbol_name("_rsvd14")
    6538                      .dwattr $C$DW$919, DW_AT_data_member_location[DW_OP_plus_uconst 0x6393]
    6539                      .dwattr $C$DW$919, DW_AT_accessibility(DW_ACCESS_public)
    6540              $C$DW$920       .dwtag  DW_TAG_member
    6541                      .dwattr $C$DW$920, DW_AT_type(*$C$DW$T$29)
    6542                      .dwattr $C$DW$920, DW_AT_name("XINTnCTR")
    6543                      .dwattr $C$DW$920, DW_AT_TI_symbol_name("_XINTnCTR")
    6544                      .dwattr $C$DW$920, DW_AT_data_member_location[DW_OP_plus_uconst 0x6398]
    6545                      .dwattr $C$DW$920, DW_AT_accessibility(DW_ACCESS_public)
    6546                      .dwendtag $C$DW$T$194
    6547              
TMS320C2000 Assembler PC v6.2.5 Fri Sep 29 09:29:33 2017

Tools Copyright (c) 1996-2014 Texas Instruments Incorporated
C:\Users\wmj\AppData\Local\Temp\1142410                              PAGE  121

    6548              $C$DW$T$119     .dwtag  DW_TAG_pointer_type
    6549                      .dwattr $C$DW$T$119, DW_AT_type(*$C$DW$T$194)
    6550                      .dwattr $C$DW$T$119, DW_AT_address_class(0x16)
    6551              $C$DW$T$120     .dwtag  DW_TAG_typedef, DW_AT_name("PIE_Handle")
    6552                      .dwattr $C$DW$T$120, DW_AT_type(*$C$DW$T$119)
    6553                      .dwattr $C$DW$T$120, DW_AT_language(DW_LANG_C)
    6554              
    6555              $C$DW$T$195     .dwtag  DW_TAG_structure_type
    6556                      .dwattr $C$DW$T$195, DW_AT_name("_PLL_Obj_")
    6557                      .dwattr $C$DW$T$195, DW_AT_byte_size(0x11)
    6558              $C$DW$921       .dwtag  DW_TAG_member
    6559                      .dwattr $C$DW$921, DW_AT_type(*$C$DW$T$24)
    6560                      .dwattr $C$DW$921, DW_AT_name("PLLSTS")
    6561                      .dwattr $C$DW$921, DW_AT_TI_symbol_name("_PLLSTS")
    6562                      .dwattr $C$DW$921, DW_AT_data_member_location[DW_OP_plus_uconst 0x0]
    6563                      .dwattr $C$DW$921, DW_AT_accessibility(DW_ACCESS_public)
    6564              $C$DW$922       .dwtag  DW_TAG_member
    6565                      .dwattr $C$DW$922, DW_AT_type(*$C$DW$T$24)
    6566                      .dwattr $C$DW$922, DW_AT_name("rsvd_1")
    6567                      .dwattr $C$DW$922, DW_AT_TI_symbol_name("_rsvd_1")
    6568                      .dwattr $C$DW$922, DW_AT_data_member_location[DW_OP_plus_uconst 0x1]
    6569                      .dwattr $C$DW$922, DW_AT_accessibility(DW_ACCESS_public)
    6570              $C$DW$923       .dwtag  DW_TAG_member
    6571                      .dwattr $C$DW$923, DW_AT_type(*$C$DW$T$24)
    6572                      .dwattr $C$DW$923, DW_AT_name("PLLLOCKPRD")
    6573                      .dwattr $C$DW$923, DW_AT_TI_symbol_name("_PLLLOCKPRD")
    6574                      .dwattr $C$DW$923, DW_AT_data_member_location[DW_OP_plus_uconst 0x2]
    6575                      .dwattr $C$DW$923, DW_AT_accessibility(DW_ACCESS_public)
    6576              $C$DW$924       .dwtag  DW_TAG_member
    6577                      .dwattr $C$DW$924, DW_AT_type(*$C$DW$T$30)
    6578                      .dwattr $C$DW$924, DW_AT_name("rsvd_2")
    6579                      .dwattr $C$DW$924, DW_AT_TI_symbol_name("_rsvd_2")
    6580                      .dwattr $C$DW$924, DW_AT_data_member_location[DW_OP_plus_uconst 0x3]
    6581                      .dwattr $C$DW$924, DW_AT_accessibility(DW_ACCESS_public)
    6582              $C$DW$925       .dwtag  DW_TAG_member
    6583                      .dwattr $C$DW$925, DW_AT_type(*$C$DW$T$24)
    6584                      .dwattr $C$DW$925, DW_AT_name("PLLCR")
    6585                      .dwattr $C$DW$925, DW_AT_TI_symbol_name("_PLLCR")
    6586                      .dwattr $C$DW$925, DW_AT_data_member_location[DW_OP_plus_uconst 0x10]
    6587                      .dwattr $C$DW$925, DW_AT_accessibility(DW_ACCESS_public)
    6588                      .dwendtag $C$DW$T$195
    6589              
    6590              $C$DW$T$121     .dwtag  DW_TAG_pointer_type
    6591                      .dwattr $C$DW$T$121, DW_AT_type(*$C$DW$T$195)
    6592                      .dwattr $C$DW$T$121, DW_AT_address_class(0x16)
    6593              $C$DW$T$122     .dwtag  DW_TAG_typedef, DW_AT_name("PLL_Handle")
    6594                      .dwattr $C$DW$T$122, DW_AT_type(*$C$DW$T$121)
    6595                      .dwattr $C$DW$T$122, DW_AT_language(DW_LANG_C)
    6596              
    6597              $C$DW$T$196     .dwtag  DW_TAG_structure_type
    6598                      .dwattr $C$DW$T$196, DW_AT_name("_PORT_DATA_t_")
    6599                      .dwattr $C$DW$T$196, DW_AT_byte_size(0x01)
    6600              $C$DW$926       .dwtag  DW_TAG_member
    6601                      .dwattr $C$DW$926, DW_AT_type(*$C$DW$T$23)
    6602                      .dwattr $C$DW$926, DW_AT_name("PORT1_IGBT_OC")
TMS320C2000 Assembler PC v6.2.5 Fri Sep 29 09:29:33 2017

Tools Copyright (c) 1996-2014 Texas Instruments Incorporated
C:\Users\wmj\AppData\Local\Temp\1142410                              PAGE  122

    6603                      .dwattr $C$DW$926, DW_AT_TI_symbol_name("_PORT1_IGBT_OC")
    6604                      .dwattr $C$DW$926, DW_AT_bit_offset(0x0f), DW_AT_bit_size(0x01)
    6605                      .dwattr $C$DW$926, DW_AT_data_member_location[DW_OP_plus_uconst 0x0]
    6606                      .dwattr $C$DW$926, DW_AT_accessibility(DW_ACCESS_public)
    6607              $C$DW$927       .dwtag  DW_TAG_member
    6608                      .dwattr $C$DW$927, DW_AT_type(*$C$DW$T$23)
    6609                      .dwattr $C$DW$927, DW_AT_name("PORT1_IKCM_UV")
    6610                      .dwattr $C$DW$927, DW_AT_TI_symbol_name("_PORT1_IKCM_UV")
    6611                      .dwattr $C$DW$927, DW_AT_bit_offset(0x0e), DW_AT_bit_size(0x01)
    6612                      .dwattr $C$DW$927, DW_AT_data_member_location[DW_OP_plus_uconst 0x0]
    6613                      .dwattr $C$DW$927, DW_AT_accessibility(DW_ACCESS_public)
    6614              $C$DW$928       .dwtag  DW_TAG_member
    6615                      .dwattr $C$DW$928, DW_AT_type(*$C$DW$T$23)
    6616                      .dwattr $C$DW$928, DW_AT_name("PORT1_RELAY_ON")
    6617                      .dwattr $C$DW$928, DW_AT_TI_symbol_name("_PORT1_RELAY_ON")
    6618                      .dwattr $C$DW$928, DW_AT_bit_offset(0x0d), DW_AT_bit_size(0x01)
    6619                      .dwattr $C$DW$928, DW_AT_data_member_location[DW_OP_plus_uconst 0x0]
    6620                      .dwattr $C$DW$928, DW_AT_accessibility(DW_ACCESS_public)
    6621              $C$DW$929       .dwtag  DW_TAG_member
    6622                      .dwattr $C$DW$929, DW_AT_type(*$C$DW$T$23)
    6623                      .dwattr $C$DW$929, DW_AT_name("PORT1_Resv")
    6624                      .dwattr $C$DW$929, DW_AT_TI_symbol_name("_PORT1_Resv")
    6625                      .dwattr $C$DW$929, DW_AT_bit_offset(0x0b), DW_AT_bit_size(0x02)
    6626                      .dwattr $C$DW$929, DW_AT_data_member_location[DW_OP_plus_uconst 0x0]
    6627                      .dwattr $C$DW$929, DW_AT_accessibility(DW_ACCESS_public)
    6628              $C$DW$930       .dwtag  DW_TAG_member
    6629                      .dwattr $C$DW$930, DW_AT_type(*$C$DW$T$23)
    6630                      .dwattr $C$DW$930, DW_AT_name("PORT1_EMERG_STP")
    6631                      .dwattr $C$DW$930, DW_AT_TI_symbol_name("_PORT1_EMERG_STP")
    6632                      .dwattr $C$DW$930, DW_AT_bit_offset(0x0a), DW_AT_bit_size(0x01)
    6633                      .dwattr $C$DW$930, DW_AT_data_member_location[DW_OP_plus_uconst 0x0]
    6634                      .dwattr $C$DW$930, DW_AT_accessibility(DW_ACCESS_public)
    6635              $C$DW$931       .dwtag  DW_TAG_member
    6636                      .dwattr $C$DW$931, DW_AT_type(*$C$DW$T$23)
    6637                      .dwattr $C$DW$931, DW_AT_name("PORT1_SENSOR0")
    6638                      .dwattr $C$DW$931, DW_AT_TI_symbol_name("_PORT1_SENSOR0")
    6639                      .dwattr $C$DW$931, DW_AT_bit_offset(0x09), DW_AT_bit_size(0x01)
    6640                      .dwattr $C$DW$931, DW_AT_data_member_location[DW_OP_plus_uconst 0x0]
    6641                      .dwattr $C$DW$931, DW_AT_accessibility(DW_ACCESS_public)
    6642              $C$DW$932       .dwtag  DW_TAG_member
    6643                      .dwattr $C$DW$932, DW_AT_type(*$C$DW$T$23)
    6644                      .dwattr $C$DW$932, DW_AT_name("PORT1_SENSOR1")
    6645                      .dwattr $C$DW$932, DW_AT_TI_symbol_name("_PORT1_SENSOR1")
    6646                      .dwattr $C$DW$932, DW_AT_bit_offset(0x08), DW_AT_bit_size(0x01)
    6647                      .dwattr $C$DW$932, DW_AT_data_member_location[DW_OP_plus_uconst 0x0]
    6648                      .dwattr $C$DW$932, DW_AT_accessibility(DW_ACCESS_public)
    6649              $C$DW$933       .dwtag  DW_TAG_member
    6650                      .dwattr $C$DW$933, DW_AT_type(*$C$DW$T$23)
    6651                      .dwattr $C$DW$933, DW_AT_name("PORT0_SD")
    6652                      .dwattr $C$DW$933, DW_AT_TI_symbol_name("_PORT0_SD")
    6653                      .dwattr $C$DW$933, DW_AT_bit_offset(0x07), DW_AT_bit_size(0x01)
    6654                      .dwattr $C$DW$933, DW_AT_data_member_location[DW_OP_plus_uconst 0x0]
    6655                      .dwattr $C$DW$933, DW_AT_accessibility(DW_ACCESS_public)
    6656              $C$DW$934       .dwtag  DW_TAG_member
    6657                      .dwattr $C$DW$934, DW_AT_type(*$C$DW$T$23)
TMS320C2000 Assembler PC v6.2.5 Fri Sep 29 09:29:33 2017

Tools Copyright (c) 1996-2014 Texas Instruments Incorporated
C:\Users\wmj\AppData\Local\Temp\1142410                              PAGE  123

    6658                      .dwattr $C$DW$934, DW_AT_name("PORT0_RELAY_OPEN")
    6659                      .dwattr $C$DW$934, DW_AT_TI_symbol_name("_PORT0_RELAY_OPEN")
    6660                      .dwattr $C$DW$934, DW_AT_bit_offset(0x06), DW_AT_bit_size(0x01)
    6661                      .dwattr $C$DW$934, DW_AT_data_member_location[DW_OP_plus_uconst 0x0]
    6662                      .dwattr $C$DW$934, DW_AT_accessibility(DW_ACCESS_public)
    6663              $C$DW$935       .dwtag  DW_TAG_member
    6664                      .dwattr $C$DW$935, DW_AT_type(*$C$DW$T$23)
    6665                      .dwattr $C$DW$935, DW_AT_name("PORT0_CLR_OC")
    6666                      .dwattr $C$DW$935, DW_AT_TI_symbol_name("_PORT0_CLR_OC")
    6667                      .dwattr $C$DW$935, DW_AT_bit_offset(0x05), DW_AT_bit_size(0x01)
    6668                      .dwattr $C$DW$935, DW_AT_data_member_location[DW_OP_plus_uconst 0x0]
    6669                      .dwattr $C$DW$935, DW_AT_accessibility(DW_ACCESS_public)
    6670              $C$DW$936       .dwtag  DW_TAG_member
    6671                      .dwattr $C$DW$936, DW_AT_type(*$C$DW$T$23)
    6672                      .dwattr $C$DW$936, DW_AT_name("PORT0_CPLD_RST")
    6673                      .dwattr $C$DW$936, DW_AT_TI_symbol_name("_PORT0_CPLD_RST")
    6674                      .dwattr $C$DW$936, DW_AT_bit_offset(0x04), DW_AT_bit_size(0x01)
    6675                      .dwattr $C$DW$936, DW_AT_data_member_location[DW_OP_plus_uconst 0x0]
    6676                      .dwattr $C$DW$936, DW_AT_accessibility(DW_ACCESS_public)
    6677              $C$DW$937       .dwtag  DW_TAG_member
    6678                      .dwattr $C$DW$937, DW_AT_type(*$C$DW$T$23)
    6679                      .dwattr $C$DW$937, DW_AT_name("PORT0_LEDR")
    6680                      .dwattr $C$DW$937, DW_AT_TI_symbol_name("_PORT0_LEDR")
    6681                      .dwattr $C$DW$937, DW_AT_bit_offset(0x03), DW_AT_bit_size(0x01)
    6682                      .dwattr $C$DW$937, DW_AT_data_member_location[DW_OP_plus_uconst 0x0]
    6683                      .dwattr $C$DW$937, DW_AT_accessibility(DW_ACCESS_public)
    6684              $C$DW$938       .dwtag  DW_TAG_member
    6685                      .dwattr $C$DW$938, DW_AT_type(*$C$DW$T$23)
    6686                      .dwattr $C$DW$938, DW_AT_name("PORT0_LEDY")
    6687                      .dwattr $C$DW$938, DW_AT_TI_symbol_name("_PORT0_LEDY")
    6688                      .dwattr $C$DW$938, DW_AT_bit_offset(0x02), DW_AT_bit_size(0x01)
    6689                      .dwattr $C$DW$938, DW_AT_data_member_location[DW_OP_plus_uconst 0x0]
    6690                      .dwattr $C$DW$938, DW_AT_accessibility(DW_ACCESS_public)
    6691              $C$DW$939       .dwtag  DW_TAG_member
    6692                      .dwattr $C$DW$939, DW_AT_type(*$C$DW$T$23)
    6693                      .dwattr $C$DW$939, DW_AT_name("PORT0_LEDG")
    6694                      .dwattr $C$DW$939, DW_AT_TI_symbol_name("_PORT0_LEDG")
    6695                      .dwattr $C$DW$939, DW_AT_bit_offset(0x01), DW_AT_bit_size(0x01)
    6696                      .dwattr $C$DW$939, DW_AT_data_member_location[DW_OP_plus_uconst 0x0]
    6697                      .dwattr $C$DW$939, DW_AT_accessibility(DW_ACCESS_public)
    6698              $C$DW$940       .dwtag  DW_TAG_member
    6699                      .dwattr $C$DW$940, DW_AT_type(*$C$DW$T$23)
    6700                      .dwattr $C$DW$940, DW_AT_name("PORT0_LEDB")
    6701                      .dwattr $C$DW$940, DW_AT_TI_symbol_name("_PORT0_LEDB")
    6702                      .dwattr $C$DW$940, DW_AT_bit_offset(0x00), DW_AT_bit_size(0x01)
    6703                      .dwattr $C$DW$940, DW_AT_data_member_location[DW_OP_plus_uconst 0x0]
    6704                      .dwattr $C$DW$940, DW_AT_accessibility(DW_ACCESS_public)
    6705                      .dwendtag $C$DW$T$196
    6706              
    6707              $C$DW$T$181     .dwtag  DW_TAG_typedef, DW_AT_name("PORT_DATA_t")
    6708                      .dwattr $C$DW$T$181, DW_AT_type(*$C$DW$T$196)
    6709                      .dwattr $C$DW$T$181, DW_AT_language(DW_LANG_C)
    6710              
    6711              $C$DW$T$208     .dwtag  DW_TAG_structure_type
    6712                      .dwattr $C$DW$T$208, DW_AT_name("_PROCTRL_Obj_")
TMS320C2000 Assembler PC v6.2.5 Fri Sep 29 09:29:33 2017

Tools Copyright (c) 1996-2014 Texas Instruments Incorporated
C:\Users\wmj\AppData\Local\Temp\1142410                              PAGE  124

    6713                      .dwattr $C$DW$T$208, DW_AT_byte_size(0xbc)
    6714              $C$DW$941       .dwtag  DW_TAG_member
    6715                      .dwattr $C$DW$941, DW_AT_type(*$C$DW$T$198)
    6716                      .dwattr $C$DW$941, DW_AT_name("halHandle")
    6717                      .dwattr $C$DW$941, DW_AT_TI_symbol_name("_halHandle")
    6718                      .dwattr $C$DW$941, DW_AT_data_member_location[DW_OP_plus_uconst 0x0]
    6719                      .dwattr $C$DW$941, DW_AT_accessibility(DW_ACCESS_public)
    6720              $C$DW$942       .dwtag  DW_TAG_member
    6721                      .dwattr $C$DW$942, DW_AT_type(*$C$DW$T$200)
    6722                      .dwattr $C$DW$942, DW_AT_name("ctrlHandle")
    6723                      .dwattr $C$DW$942, DW_AT_TI_symbol_name("_ctrlHandle")
    6724                      .dwattr $C$DW$942, DW_AT_data_member_location[DW_OP_plus_uconst 0x2]
    6725                      .dwattr $C$DW$942, DW_AT_accessibility(DW_ACCESS_public)
    6726              $C$DW$943       .dwtag  DW_TAG_member
    6727                      .dwattr $C$DW$943, DW_AT_type(*$C$DW$T$201)
    6728                      .dwattr $C$DW$943, DW_AT_name("fs")
    6729                      .dwattr $C$DW$943, DW_AT_TI_symbol_name("_fs")
    6730                      .dwattr $C$DW$943, DW_AT_data_member_location[DW_OP_plus_uconst 0x4]
    6731                      .dwattr $C$DW$943, DW_AT_accessibility(DW_ACCESS_public)
    6732              $C$DW$944       .dwtag  DW_TAG_member
    6733                      .dwattr $C$DW$944, DW_AT_type(*$C$DW$T$203)
    6734                      .dwattr $C$DW$944, DW_AT_name("fsHandle")
    6735                      .dwattr $C$DW$944, DW_AT_TI_symbol_name("_fsHandle")
    6736                      .dwattr $C$DW$944, DW_AT_data_member_location[DW_OP_plus_uconst 0x16]
    6737                      .dwattr $C$DW$944, DW_AT_accessibility(DW_ACCESS_public)
    6738              $C$DW$945       .dwtag  DW_TAG_member
    6739                      .dwattr $C$DW$945, DW_AT_type(*$C$DW$T$204)
    6740                      .dwattr $C$DW$945, DW_AT_name("MotorVars")
    6741                      .dwattr $C$DW$945, DW_AT_TI_symbol_name("_MotorVars")
    6742                      .dwattr $C$DW$945, DW_AT_data_member_location[DW_OP_plus_uconst 0x18]
    6743                      .dwattr $C$DW$945, DW_AT_accessibility(DW_ACCESS_public)
    6744              $C$DW$946       .dwtag  DW_TAG_member
    6745                      .dwattr $C$DW$946, DW_AT_type(*$C$DW$T$82)
    6746                      .dwattr $C$DW$946, DW_AT_name("MotorHandle")
    6747                      .dwattr $C$DW$946, DW_AT_TI_symbol_name("_MotorHandle")
    6748                      .dwattr $C$DW$946, DW_AT_data_member_location[DW_OP_plus_uconst 0x96]
    6749                      .dwattr $C$DW$946, DW_AT_accessibility(DW_ACCESS_public)
    6750              $C$DW$947       .dwtag  DW_TAG_member
    6751                      .dwattr $C$DW$947, DW_AT_type(*$C$DW$T$205)
    6752                      .dwattr $C$DW$947, DW_AT_name("MyFSM")
    6753                      .dwattr $C$DW$947, DW_AT_TI_symbol_name("_MyFSM")
    6754                      .dwattr $C$DW$947, DW_AT_data_member_location[DW_OP_plus_uconst 0x98]
    6755                      .dwattr $C$DW$947, DW_AT_accessibility(DW_ACCESS_public)
    6756              $C$DW$948       .dwtag  DW_TAG_member
    6757                      .dwattr $C$DW$948, DW_AT_type(*$C$DW$T$207)
    6758                      .dwattr $C$DW$948, DW_AT_name("FsmHandle")
    6759                      .dwattr $C$DW$948, DW_AT_TI_symbol_name("_FsmHandle")
    6760                      .dwattr $C$DW$948, DW_AT_data_member_location[DW_OP_plus_uconst 0xb2]
    6761                      .dwattr $C$DW$948, DW_AT_accessibility(DW_ACCESS_public)
    6762              $C$DW$949       .dwtag  DW_TAG_member
    6763                      .dwattr $C$DW$949, DW_AT_type(*$C$DW$T$32)
    6764                      .dwattr $C$DW$949, DW_AT_name("Flux_pu_to_Wb_sf")
    6765                      .dwattr $C$DW$949, DW_AT_TI_symbol_name("_Flux_pu_to_Wb_sf")
    6766                      .dwattr $C$DW$949, DW_AT_data_member_location[DW_OP_plus_uconst 0xb4]
    6767                      .dwattr $C$DW$949, DW_AT_accessibility(DW_ACCESS_public)
TMS320C2000 Assembler PC v6.2.5 Fri Sep 29 09:29:33 2017

Tools Copyright (c) 1996-2014 Texas Instruments Incorporated
C:\Users\wmj\AppData\Local\Temp\1142410                              PAGE  125

    6768              $C$DW$950       .dwtag  DW_TAG_member
    6769                      .dwattr $C$DW$950, DW_AT_type(*$C$DW$T$32)
    6770                      .dwattr $C$DW$950, DW_AT_name("Flux_pu_to_VpHz_sf")
    6771                      .dwattr $C$DW$950, DW_AT_TI_symbol_name("_Flux_pu_to_VpHz_sf")
    6772                      .dwattr $C$DW$950, DW_AT_data_member_location[DW_OP_plus_uconst 0xb6]
    6773                      .dwattr $C$DW$950, DW_AT_accessibility(DW_ACCESS_public)
    6774              $C$DW$951       .dwtag  DW_TAG_member
    6775                      .dwattr $C$DW$951, DW_AT_type(*$C$DW$T$32)
    6776                      .dwattr $C$DW$951, DW_AT_name("Torque_Ls_Id_Iq_pu_to_Nm_sf")
    6777                      .dwattr $C$DW$951, DW_AT_TI_symbol_name("_Torque_Ls_Id_Iq_pu_to_Nm_sf")
    6778                      .dwattr $C$DW$951, DW_AT_data_member_location[DW_OP_plus_uconst 0xb8]
    6779                      .dwattr $C$DW$951, DW_AT_accessibility(DW_ACCESS_public)
    6780              $C$DW$952       .dwtag  DW_TAG_member
    6781                      .dwattr $C$DW$952, DW_AT_type(*$C$DW$T$32)
    6782                      .dwattr $C$DW$952, DW_AT_name("Torque_Flux_Iq_pu_to_Nm_sf")
    6783                      .dwattr $C$DW$952, DW_AT_TI_symbol_name("_Torque_Flux_Iq_pu_to_Nm_sf")
    6784                      .dwattr $C$DW$952, DW_AT_data_member_location[DW_OP_plus_uconst 0xba]
    6785                      .dwattr $C$DW$952, DW_AT_accessibility(DW_ACCESS_public)
    6786                      .dwendtag $C$DW$T$208
    6787              
    6788              $C$DW$T$240     .dwtag  DW_TAG_typedef, DW_AT_name("PROCTRL_Obj")
    6789                      .dwattr $C$DW$T$240, DW_AT_type(*$C$DW$T$208)
    6790                      .dwattr $C$DW$T$240, DW_AT_language(DW_LANG_C)
    6791              $C$DW$T$148     .dwtag  DW_TAG_pointer_type
    6792                      .dwattr $C$DW$T$148, DW_AT_type(*$C$DW$T$208)
    6793                      .dwattr $C$DW$T$148, DW_AT_address_class(0x16)
    6794              $C$DW$T$149     .dwtag  DW_TAG_typedef, DW_AT_name("PROCTRL_Handle")
    6795                      .dwattr $C$DW$T$149, DW_AT_type(*$C$DW$T$148)
    6796                      .dwattr $C$DW$T$149, DW_AT_language(DW_LANG_C)
    6797              $C$DW$953       .dwtag  DW_TAG_TI_far_type
    6798                      .dwattr $C$DW$953, DW_AT_type(*$C$DW$T$149)
    6799              $C$DW$T$241     .dwtag  DW_TAG_const_type
    6800                      .dwattr $C$DW$T$241, DW_AT_type(*$C$DW$953)
    6801              
    6802              $C$DW$T$209     .dwtag  DW_TAG_structure_type
    6803                      .dwattr $C$DW$T$209, DW_AT_name("_PWM_Obj_")
    6804                      .dwattr $C$DW$T$209, DW_AT_byte_size(0x3a)
    6805              $C$DW$954       .dwtag  DW_TAG_member
    6806                      .dwattr $C$DW$954, DW_AT_type(*$C$DW$T$24)
    6807                      .dwattr $C$DW$954, DW_AT_name("TBCTL")
    6808                      .dwattr $C$DW$954, DW_AT_TI_symbol_name("_TBCTL")
    6809                      .dwattr $C$DW$954, DW_AT_data_member_location[DW_OP_plus_uconst 0x0]
    6810                      .dwattr $C$DW$954, DW_AT_accessibility(DW_ACCESS_public)
    6811              $C$DW$955       .dwtag  DW_TAG_member
    6812                      .dwattr $C$DW$955, DW_AT_type(*$C$DW$T$24)
    6813                      .dwattr $C$DW$955, DW_AT_name("TBSTS")
    6814                      .dwattr $C$DW$955, DW_AT_TI_symbol_name("_TBSTS")
    6815                      .dwattr $C$DW$955, DW_AT_data_member_location[DW_OP_plus_uconst 0x1]
    6816                      .dwattr $C$DW$955, DW_AT_accessibility(DW_ACCESS_public)
    6817              $C$DW$956       .dwtag  DW_TAG_member
    6818                      .dwattr $C$DW$956, DW_AT_type(*$C$DW$T$24)
    6819                      .dwattr $C$DW$956, DW_AT_name("TBPHSHR")
    6820                      .dwattr $C$DW$956, DW_AT_TI_symbol_name("_TBPHSHR")
    6821                      .dwattr $C$DW$956, DW_AT_data_member_location[DW_OP_plus_uconst 0x2]
    6822                      .dwattr $C$DW$956, DW_AT_accessibility(DW_ACCESS_public)
TMS320C2000 Assembler PC v6.2.5 Fri Sep 29 09:29:33 2017

Tools Copyright (c) 1996-2014 Texas Instruments Incorporated
C:\Users\wmj\AppData\Local\Temp\1142410                              PAGE  126

    6823              $C$DW$957       .dwtag  DW_TAG_member
    6824                      .dwattr $C$DW$957, DW_AT_type(*$C$DW$T$24)
    6825                      .dwattr $C$DW$957, DW_AT_name("TBPHS")
    6826                      .dwattr $C$DW$957, DW_AT_TI_symbol_name("_TBPHS")
    6827                      .dwattr $C$DW$957, DW_AT_data_member_location[DW_OP_plus_uconst 0x3]
    6828                      .dwattr $C$DW$957, DW_AT_accessibility(DW_ACCESS_public)
    6829              $C$DW$958       .dwtag  DW_TAG_member
    6830                      .dwattr $C$DW$958, DW_AT_type(*$C$DW$T$24)
    6831                      .dwattr $C$DW$958, DW_AT_name("TBCTR")
    6832                      .dwattr $C$DW$958, DW_AT_TI_symbol_name("_TBCTR")
    6833                      .dwattr $C$DW$958, DW_AT_data_member_location[DW_OP_plus_uconst 0x4]
    6834                      .dwattr $C$DW$958, DW_AT_accessibility(DW_ACCESS_public)
    6835              $C$DW$959       .dwtag  DW_TAG_member
    6836                      .dwattr $C$DW$959, DW_AT_type(*$C$DW$T$24)
    6837                      .dwattr $C$DW$959, DW_AT_name("TBPRD")
    6838                      .dwattr $C$DW$959, DW_AT_TI_symbol_name("_TBPRD")
    6839                      .dwattr $C$DW$959, DW_AT_data_member_location[DW_OP_plus_uconst 0x5]
    6840                      .dwattr $C$DW$959, DW_AT_accessibility(DW_ACCESS_public)
    6841              $C$DW$960       .dwtag  DW_TAG_member
    6842                      .dwattr $C$DW$960, DW_AT_type(*$C$DW$T$24)
    6843                      .dwattr $C$DW$960, DW_AT_name("TBPRDHR")
    6844                      .dwattr $C$DW$960, DW_AT_TI_symbol_name("_TBPRDHR")
    6845                      .dwattr $C$DW$960, DW_AT_data_member_location[DW_OP_plus_uconst 0x6]
    6846                      .dwattr $C$DW$960, DW_AT_accessibility(DW_ACCESS_public)
    6847              $C$DW$961       .dwtag  DW_TAG_member
    6848                      .dwattr $C$DW$961, DW_AT_type(*$C$DW$T$24)
    6849                      .dwattr $C$DW$961, DW_AT_name("CMPCTL")
    6850                      .dwattr $C$DW$961, DW_AT_TI_symbol_name("_CMPCTL")
    6851                      .dwattr $C$DW$961, DW_AT_data_member_location[DW_OP_plus_uconst 0x7]
    6852                      .dwattr $C$DW$961, DW_AT_accessibility(DW_ACCESS_public)
    6853              $C$DW$962       .dwtag  DW_TAG_member
    6854                      .dwattr $C$DW$962, DW_AT_type(*$C$DW$T$24)
    6855                      .dwattr $C$DW$962, DW_AT_name("CMPAHR")
    6856                      .dwattr $C$DW$962, DW_AT_TI_symbol_name("_CMPAHR")
    6857                      .dwattr $C$DW$962, DW_AT_data_member_location[DW_OP_plus_uconst 0x8]
    6858                      .dwattr $C$DW$962, DW_AT_accessibility(DW_ACCESS_public)
    6859              $C$DW$963       .dwtag  DW_TAG_member
    6860                      .dwattr $C$DW$963, DW_AT_type(*$C$DW$T$24)
    6861                      .dwattr $C$DW$963, DW_AT_name("CMPA")
    6862                      .dwattr $C$DW$963, DW_AT_TI_symbol_name("_CMPA")
    6863                      .dwattr $C$DW$963, DW_AT_data_member_location[DW_OP_plus_uconst 0x9]
    6864                      .dwattr $C$DW$963, DW_AT_accessibility(DW_ACCESS_public)
    6865              $C$DW$964       .dwtag  DW_TAG_member
    6866                      .dwattr $C$DW$964, DW_AT_type(*$C$DW$T$24)
    6867                      .dwattr $C$DW$964, DW_AT_name("CMPB")
    6868                      .dwattr $C$DW$964, DW_AT_TI_symbol_name("_CMPB")
    6869                      .dwattr $C$DW$964, DW_AT_data_member_location[DW_OP_plus_uconst 0xa]
    6870                      .dwattr $C$DW$964, DW_AT_accessibility(DW_ACCESS_public)
    6871              $C$DW$965       .dwtag  DW_TAG_member
    6872                      .dwattr $C$DW$965, DW_AT_type(*$C$DW$T$24)
    6873                      .dwattr $C$DW$965, DW_AT_name("AQCTLA")
    6874                      .dwattr $C$DW$965, DW_AT_TI_symbol_name("_AQCTLA")
    6875                      .dwattr $C$DW$965, DW_AT_data_member_location[DW_OP_plus_uconst 0xb]
    6876                      .dwattr $C$DW$965, DW_AT_accessibility(DW_ACCESS_public)
    6877              $C$DW$966       .dwtag  DW_TAG_member
TMS320C2000 Assembler PC v6.2.5 Fri Sep 29 09:29:33 2017

Tools Copyright (c) 1996-2014 Texas Instruments Incorporated
C:\Users\wmj\AppData\Local\Temp\1142410                              PAGE  127

    6878                      .dwattr $C$DW$966, DW_AT_type(*$C$DW$T$24)
    6879                      .dwattr $C$DW$966, DW_AT_name("AQCTLB")
    6880                      .dwattr $C$DW$966, DW_AT_TI_symbol_name("_AQCTLB")
    6881                      .dwattr $C$DW$966, DW_AT_data_member_location[DW_OP_plus_uconst 0xc]
    6882                      .dwattr $C$DW$966, DW_AT_accessibility(DW_ACCESS_public)
    6883              $C$DW$967       .dwtag  DW_TAG_member
    6884                      .dwattr $C$DW$967, DW_AT_type(*$C$DW$T$24)
    6885                      .dwattr $C$DW$967, DW_AT_name("AQSFRC")
    6886                      .dwattr $C$DW$967, DW_AT_TI_symbol_name("_AQSFRC")
    6887                      .dwattr $C$DW$967, DW_AT_data_member_location[DW_OP_plus_uconst 0xd]
    6888                      .dwattr $C$DW$967, DW_AT_accessibility(DW_ACCESS_public)
    6889              $C$DW$968       .dwtag  DW_TAG_member
    6890                      .dwattr $C$DW$968, DW_AT_type(*$C$DW$T$24)
    6891                      .dwattr $C$DW$968, DW_AT_name("AQCSFRC")
    6892                      .dwattr $C$DW$968, DW_AT_TI_symbol_name("_AQCSFRC")
    6893                      .dwattr $C$DW$968, DW_AT_data_member_location[DW_OP_plus_uconst 0xe]
    6894                      .dwattr $C$DW$968, DW_AT_accessibility(DW_ACCESS_public)
    6895              $C$DW$969       .dwtag  DW_TAG_member
    6896                      .dwattr $C$DW$969, DW_AT_type(*$C$DW$T$24)
    6897                      .dwattr $C$DW$969, DW_AT_name("DBCTL")
    6898                      .dwattr $C$DW$969, DW_AT_TI_symbol_name("_DBCTL")
    6899                      .dwattr $C$DW$969, DW_AT_data_member_location[DW_OP_plus_uconst 0xf]
    6900                      .dwattr $C$DW$969, DW_AT_accessibility(DW_ACCESS_public)
    6901              $C$DW$970       .dwtag  DW_TAG_member
    6902                      .dwattr $C$DW$970, DW_AT_type(*$C$DW$T$24)
    6903                      .dwattr $C$DW$970, DW_AT_name("DBRED")
    6904                      .dwattr $C$DW$970, DW_AT_TI_symbol_name("_DBRED")
    6905                      .dwattr $C$DW$970, DW_AT_data_member_location[DW_OP_plus_uconst 0x10]
    6906                      .dwattr $C$DW$970, DW_AT_accessibility(DW_ACCESS_public)
    6907              $C$DW$971       .dwtag  DW_TAG_member
    6908                      .dwattr $C$DW$971, DW_AT_type(*$C$DW$T$24)
    6909                      .dwattr $C$DW$971, DW_AT_name("DBFED")
    6910                      .dwattr $C$DW$971, DW_AT_TI_symbol_name("_DBFED")
    6911                      .dwattr $C$DW$971, DW_AT_data_member_location[DW_OP_plus_uconst 0x11]
    6912                      .dwattr $C$DW$971, DW_AT_accessibility(DW_ACCESS_public)
    6913              $C$DW$972       .dwtag  DW_TAG_member
    6914                      .dwattr $C$DW$972, DW_AT_type(*$C$DW$T$24)
    6915                      .dwattr $C$DW$972, DW_AT_name("TZSEL")
    6916                      .dwattr $C$DW$972, DW_AT_TI_symbol_name("_TZSEL")
    6917                      .dwattr $C$DW$972, DW_AT_data_member_location[DW_OP_plus_uconst 0x12]
    6918                      .dwattr $C$DW$972, DW_AT_accessibility(DW_ACCESS_public)
    6919              $C$DW$973       .dwtag  DW_TAG_member
    6920                      .dwattr $C$DW$973, DW_AT_type(*$C$DW$T$24)
    6921                      .dwattr $C$DW$973, DW_AT_name("TZDCSEL")
    6922                      .dwattr $C$DW$973, DW_AT_TI_symbol_name("_TZDCSEL")
    6923                      .dwattr $C$DW$973, DW_AT_data_member_location[DW_OP_plus_uconst 0x13]
    6924                      .dwattr $C$DW$973, DW_AT_accessibility(DW_ACCESS_public)
    6925              $C$DW$974       .dwtag  DW_TAG_member
    6926                      .dwattr $C$DW$974, DW_AT_type(*$C$DW$T$24)
    6927                      .dwattr $C$DW$974, DW_AT_name("TZCTL")
    6928                      .dwattr $C$DW$974, DW_AT_TI_symbol_name("_TZCTL")
    6929                      .dwattr $C$DW$974, DW_AT_data_member_location[DW_OP_plus_uconst 0x14]
    6930                      .dwattr $C$DW$974, DW_AT_accessibility(DW_ACCESS_public)
    6931              $C$DW$975       .dwtag  DW_TAG_member
    6932                      .dwattr $C$DW$975, DW_AT_type(*$C$DW$T$24)
TMS320C2000 Assembler PC v6.2.5 Fri Sep 29 09:29:33 2017

Tools Copyright (c) 1996-2014 Texas Instruments Incorporated
C:\Users\wmj\AppData\Local\Temp\1142410                              PAGE  128

    6933                      .dwattr $C$DW$975, DW_AT_name("TZEINT")
    6934                      .dwattr $C$DW$975, DW_AT_TI_symbol_name("_TZEINT")
    6935                      .dwattr $C$DW$975, DW_AT_data_member_location[DW_OP_plus_uconst 0x15]
    6936                      .dwattr $C$DW$975, DW_AT_accessibility(DW_ACCESS_public)
    6937              $C$DW$976       .dwtag  DW_TAG_member
    6938                      .dwattr $C$DW$976, DW_AT_type(*$C$DW$T$24)
    6939                      .dwattr $C$DW$976, DW_AT_name("TZFLG")
    6940                      .dwattr $C$DW$976, DW_AT_TI_symbol_name("_TZFLG")
    6941                      .dwattr $C$DW$976, DW_AT_data_member_location[DW_OP_plus_uconst 0x16]
    6942                      .dwattr $C$DW$976, DW_AT_accessibility(DW_ACCESS_public)
    6943              $C$DW$977       .dwtag  DW_TAG_member
    6944                      .dwattr $C$DW$977, DW_AT_type(*$C$DW$T$24)
    6945                      .dwattr $C$DW$977, DW_AT_name("TZCLR")
    6946                      .dwattr $C$DW$977, DW_AT_TI_symbol_name("_TZCLR")
    6947                      .dwattr $C$DW$977, DW_AT_data_member_location[DW_OP_plus_uconst 0x17]
    6948                      .dwattr $C$DW$977, DW_AT_accessibility(DW_ACCESS_public)
    6949              $C$DW$978       .dwtag  DW_TAG_member
    6950                      .dwattr $C$DW$978, DW_AT_type(*$C$DW$T$24)
    6951                      .dwattr $C$DW$978, DW_AT_name("TZFRC")
    6952                      .dwattr $C$DW$978, DW_AT_TI_symbol_name("_TZFRC")
    6953                      .dwattr $C$DW$978, DW_AT_data_member_location[DW_OP_plus_uconst 0x18]
    6954                      .dwattr $C$DW$978, DW_AT_accessibility(DW_ACCESS_public)
    6955              $C$DW$979       .dwtag  DW_TAG_member
    6956                      .dwattr $C$DW$979, DW_AT_type(*$C$DW$T$24)
    6957                      .dwattr $C$DW$979, DW_AT_name("ETSEL")
    6958                      .dwattr $C$DW$979, DW_AT_TI_symbol_name("_ETSEL")
    6959                      .dwattr $C$DW$979, DW_AT_data_member_location[DW_OP_plus_uconst 0x19]
    6960                      .dwattr $C$DW$979, DW_AT_accessibility(DW_ACCESS_public)
    6961              $C$DW$980       .dwtag  DW_TAG_member
    6962                      .dwattr $C$DW$980, DW_AT_type(*$C$DW$T$24)
    6963                      .dwattr $C$DW$980, DW_AT_name("ETPS")
    6964                      .dwattr $C$DW$980, DW_AT_TI_symbol_name("_ETPS")
    6965                      .dwattr $C$DW$980, DW_AT_data_member_location[DW_OP_plus_uconst 0x1a]
    6966                      .dwattr $C$DW$980, DW_AT_accessibility(DW_ACCESS_public)
    6967              $C$DW$981       .dwtag  DW_TAG_member
    6968                      .dwattr $C$DW$981, DW_AT_type(*$C$DW$T$24)
    6969                      .dwattr $C$DW$981, DW_AT_name("ETFLG")
    6970                      .dwattr $C$DW$981, DW_AT_TI_symbol_name("_ETFLG")
    6971                      .dwattr $C$DW$981, DW_AT_data_member_location[DW_OP_plus_uconst 0x1b]
    6972                      .dwattr $C$DW$981, DW_AT_accessibility(DW_ACCESS_public)
    6973              $C$DW$982       .dwtag  DW_TAG_member
    6974                      .dwattr $C$DW$982, DW_AT_type(*$C$DW$T$24)
    6975                      .dwattr $C$DW$982, DW_AT_name("ETCLR")
    6976                      .dwattr $C$DW$982, DW_AT_TI_symbol_name("_ETCLR")
    6977                      .dwattr $C$DW$982, DW_AT_data_member_location[DW_OP_plus_uconst 0x1c]
    6978                      .dwattr $C$DW$982, DW_AT_accessibility(DW_ACCESS_public)
    6979              $C$DW$983       .dwtag  DW_TAG_member
    6980                      .dwattr $C$DW$983, DW_AT_type(*$C$DW$T$24)
    6981                      .dwattr $C$DW$983, DW_AT_name("ETFRC")
    6982                      .dwattr $C$DW$983, DW_AT_TI_symbol_name("_ETFRC")
    6983                      .dwattr $C$DW$983, DW_AT_data_member_location[DW_OP_plus_uconst 0x1d]
    6984                      .dwattr $C$DW$983, DW_AT_accessibility(DW_ACCESS_public)
    6985              $C$DW$984       .dwtag  DW_TAG_member
    6986                      .dwattr $C$DW$984, DW_AT_type(*$C$DW$T$24)
    6987                      .dwattr $C$DW$984, DW_AT_name("PCCTL")
TMS320C2000 Assembler PC v6.2.5 Fri Sep 29 09:29:33 2017

Tools Copyright (c) 1996-2014 Texas Instruments Incorporated
C:\Users\wmj\AppData\Local\Temp\1142410                              PAGE  129

    6988                      .dwattr $C$DW$984, DW_AT_TI_symbol_name("_PCCTL")
    6989                      .dwattr $C$DW$984, DW_AT_data_member_location[DW_OP_plus_uconst 0x1e]
    6990                      .dwattr $C$DW$984, DW_AT_accessibility(DW_ACCESS_public)
    6991              $C$DW$985       .dwtag  DW_TAG_member
    6992                      .dwattr $C$DW$985, DW_AT_type(*$C$DW$T$24)
    6993                      .dwattr $C$DW$985, DW_AT_name("rsvd_1")
    6994                      .dwattr $C$DW$985, DW_AT_TI_symbol_name("_rsvd_1")
    6995                      .dwattr $C$DW$985, DW_AT_data_member_location[DW_OP_plus_uconst 0x1f]
    6996                      .dwattr $C$DW$985, DW_AT_accessibility(DW_ACCESS_public)
    6997              $C$DW$986       .dwtag  DW_TAG_member
    6998                      .dwattr $C$DW$986, DW_AT_type(*$C$DW$T$24)
    6999                      .dwattr $C$DW$986, DW_AT_name("HRCNFG")
    7000                      .dwattr $C$DW$986, DW_AT_TI_symbol_name("_HRCNFG")
    7001                      .dwattr $C$DW$986, DW_AT_data_member_location[DW_OP_plus_uconst 0x20]
    7002                      .dwattr $C$DW$986, DW_AT_accessibility(DW_ACCESS_public)
    7003              $C$DW$987       .dwtag  DW_TAG_member
    7004                      .dwattr $C$DW$987, DW_AT_type(*$C$DW$T$24)
    7005                      .dwattr $C$DW$987, DW_AT_name("HRPWR")
    7006                      .dwattr $C$DW$987, DW_AT_TI_symbol_name("_HRPWR")
    7007                      .dwattr $C$DW$987, DW_AT_data_member_location[DW_OP_plus_uconst 0x21]
    7008                      .dwattr $C$DW$987, DW_AT_accessibility(DW_ACCESS_public)
    7009              $C$DW$988       .dwtag  DW_TAG_member
    7010                      .dwattr $C$DW$988, DW_AT_type(*$C$DW$T$98)
    7011                      .dwattr $C$DW$988, DW_AT_name("rsvd_2")
    7012                      .dwattr $C$DW$988, DW_AT_TI_symbol_name("_rsvd_2")
    7013                      .dwattr $C$DW$988, DW_AT_data_member_location[DW_OP_plus_uconst 0x22]
    7014                      .dwattr $C$DW$988, DW_AT_accessibility(DW_ACCESS_public)
    7015              $C$DW$989       .dwtag  DW_TAG_member
    7016                      .dwattr $C$DW$989, DW_AT_type(*$C$DW$T$24)
    7017                      .dwattr $C$DW$989, DW_AT_name("HRMSTEP")
    7018                      .dwattr $C$DW$989, DW_AT_TI_symbol_name("_HRMSTEP")
    7019                      .dwattr $C$DW$989, DW_AT_data_member_location[DW_OP_plus_uconst 0x26]
    7020                      .dwattr $C$DW$989, DW_AT_accessibility(DW_ACCESS_public)
    7021              $C$DW$990       .dwtag  DW_TAG_member
    7022                      .dwattr $C$DW$990, DW_AT_type(*$C$DW$T$24)
    7023                      .dwattr $C$DW$990, DW_AT_name("rsvd_3")
    7024                      .dwattr $C$DW$990, DW_AT_TI_symbol_name("_rsvd_3")
    7025                      .dwattr $C$DW$990, DW_AT_data_member_location[DW_OP_plus_uconst 0x27]
    7026                      .dwattr $C$DW$990, DW_AT_accessibility(DW_ACCESS_public)
    7027              $C$DW$991       .dwtag  DW_TAG_member
    7028                      .dwattr $C$DW$991, DW_AT_type(*$C$DW$T$24)
    7029                      .dwattr $C$DW$991, DW_AT_name("HRPCTL")
    7030                      .dwattr $C$DW$991, DW_AT_TI_symbol_name("_HRPCTL")
    7031                      .dwattr $C$DW$991, DW_AT_data_member_location[DW_OP_plus_uconst 0x28]
    7032                      .dwattr $C$DW$991, DW_AT_accessibility(DW_ACCESS_public)
    7033              $C$DW$992       .dwtag  DW_TAG_member
    7034                      .dwattr $C$DW$992, DW_AT_type(*$C$DW$T$24)
    7035                      .dwattr $C$DW$992, DW_AT_name("rsvd_4")
    7036                      .dwattr $C$DW$992, DW_AT_TI_symbol_name("_rsvd_4")
    7037                      .dwattr $C$DW$992, DW_AT_data_member_location[DW_OP_plus_uconst 0x29]
    7038                      .dwattr $C$DW$992, DW_AT_accessibility(DW_ACCESS_public)
    7039              $C$DW$993       .dwtag  DW_TAG_member
    7040                      .dwattr $C$DW$993, DW_AT_type(*$C$DW$T$24)
    7041                      .dwattr $C$DW$993, DW_AT_name("TBPRDHRM")
    7042                      .dwattr $C$DW$993, DW_AT_TI_symbol_name("_TBPRDHRM")
TMS320C2000 Assembler PC v6.2.5 Fri Sep 29 09:29:33 2017

Tools Copyright (c) 1996-2014 Texas Instruments Incorporated
C:\Users\wmj\AppData\Local\Temp\1142410                              PAGE  130

    7043                      .dwattr $C$DW$993, DW_AT_data_member_location[DW_OP_plus_uconst 0x2a]
    7044                      .dwattr $C$DW$993, DW_AT_accessibility(DW_ACCESS_public)
    7045              $C$DW$994       .dwtag  DW_TAG_member
    7046                      .dwattr $C$DW$994, DW_AT_type(*$C$DW$T$24)
    7047                      .dwattr $C$DW$994, DW_AT_name("TBPRDM")
    7048                      .dwattr $C$DW$994, DW_AT_TI_symbol_name("_TBPRDM")
    7049                      .dwattr $C$DW$994, DW_AT_data_member_location[DW_OP_plus_uconst 0x2b]
    7050                      .dwattr $C$DW$994, DW_AT_accessibility(DW_ACCESS_public)
    7051              $C$DW$995       .dwtag  DW_TAG_member
    7052                      .dwattr $C$DW$995, DW_AT_type(*$C$DW$T$24)
    7053                      .dwattr $C$DW$995, DW_AT_name("CMPAHRM")
    7054                      .dwattr $C$DW$995, DW_AT_TI_symbol_name("_CMPAHRM")
    7055                      .dwattr $C$DW$995, DW_AT_data_member_location[DW_OP_plus_uconst 0x2c]
    7056                      .dwattr $C$DW$995, DW_AT_accessibility(DW_ACCESS_public)
    7057              $C$DW$996       .dwtag  DW_TAG_member
    7058                      .dwattr $C$DW$996, DW_AT_type(*$C$DW$T$24)
    7059                      .dwattr $C$DW$996, DW_AT_name("CMPAM")
    7060                      .dwattr $C$DW$996, DW_AT_TI_symbol_name("_CMPAM")
    7061                      .dwattr $C$DW$996, DW_AT_data_member_location[DW_OP_plus_uconst 0x2d]
    7062                      .dwattr $C$DW$996, DW_AT_accessibility(DW_ACCESS_public)
    7063              $C$DW$997       .dwtag  DW_TAG_member
    7064                      .dwattr $C$DW$997, DW_AT_type(*$C$DW$T$27)
    7065                      .dwattr $C$DW$997, DW_AT_name("rsvd_5")
    7066                      .dwattr $C$DW$997, DW_AT_TI_symbol_name("_rsvd_5")
    7067                      .dwattr $C$DW$997, DW_AT_data_member_location[DW_OP_plus_uconst 0x2e]
    7068                      .dwattr $C$DW$997, DW_AT_accessibility(DW_ACCESS_public)
    7069              $C$DW$998       .dwtag  DW_TAG_member
    7070                      .dwattr $C$DW$998, DW_AT_type(*$C$DW$T$24)
    7071                      .dwattr $C$DW$998, DW_AT_name("DCTRIPSEL")
    7072                      .dwattr $C$DW$998, DW_AT_TI_symbol_name("_DCTRIPSEL")
    7073                      .dwattr $C$DW$998, DW_AT_data_member_location[DW_OP_plus_uconst 0x30]
    7074                      .dwattr $C$DW$998, DW_AT_accessibility(DW_ACCESS_public)
    7075              $C$DW$999       .dwtag  DW_TAG_member
    7076                      .dwattr $C$DW$999, DW_AT_type(*$C$DW$T$24)
    7077                      .dwattr $C$DW$999, DW_AT_name("DCACTL")
    7078                      .dwattr $C$DW$999, DW_AT_TI_symbol_name("_DCACTL")
    7079                      .dwattr $C$DW$999, DW_AT_data_member_location[DW_OP_plus_uconst 0x31]
    7080                      .dwattr $C$DW$999, DW_AT_accessibility(DW_ACCESS_public)
    7081              $C$DW$1000      .dwtag  DW_TAG_member
    7082                      .dwattr $C$DW$1000, DW_AT_type(*$C$DW$T$24)
    7083                      .dwattr $C$DW$1000, DW_AT_name("DCBCTL")
    7084                      .dwattr $C$DW$1000, DW_AT_TI_symbol_name("_DCBCTL")
    7085                      .dwattr $C$DW$1000, DW_AT_data_member_location[DW_OP_plus_uconst 0x32]
    7086                      .dwattr $C$DW$1000, DW_AT_accessibility(DW_ACCESS_public)
    7087              $C$DW$1001      .dwtag  DW_TAG_member
    7088                      .dwattr $C$DW$1001, DW_AT_type(*$C$DW$T$24)
    7089                      .dwattr $C$DW$1001, DW_AT_name("DCFCTL")
    7090                      .dwattr $C$DW$1001, DW_AT_TI_symbol_name("_DCFCTL")
    7091                      .dwattr $C$DW$1001, DW_AT_data_member_location[DW_OP_plus_uconst 0x33]
    7092                      .dwattr $C$DW$1001, DW_AT_accessibility(DW_ACCESS_public)
    7093              $C$DW$1002      .dwtag  DW_TAG_member
    7094                      .dwattr $C$DW$1002, DW_AT_type(*$C$DW$T$24)
    7095                      .dwattr $C$DW$1002, DW_AT_name("DCCAPCTL")
    7096                      .dwattr $C$DW$1002, DW_AT_TI_symbol_name("_DCCAPCTL")
    7097                      .dwattr $C$DW$1002, DW_AT_data_member_location[DW_OP_plus_uconst 0x34]
TMS320C2000 Assembler PC v6.2.5 Fri Sep 29 09:29:33 2017

Tools Copyright (c) 1996-2014 Texas Instruments Incorporated
C:\Users\wmj\AppData\Local\Temp\1142410                              PAGE  131

    7098                      .dwattr $C$DW$1002, DW_AT_accessibility(DW_ACCESS_public)
    7099              $C$DW$1003      .dwtag  DW_TAG_member
    7100                      .dwattr $C$DW$1003, DW_AT_type(*$C$DW$T$24)
    7101                      .dwattr $C$DW$1003, DW_AT_name("DCFOFFSET")
    7102                      .dwattr $C$DW$1003, DW_AT_TI_symbol_name("_DCFOFFSET")
    7103                      .dwattr $C$DW$1003, DW_AT_data_member_location[DW_OP_plus_uconst 0x35]
    7104                      .dwattr $C$DW$1003, DW_AT_accessibility(DW_ACCESS_public)
    7105              $C$DW$1004      .dwtag  DW_TAG_member
    7106                      .dwattr $C$DW$1004, DW_AT_type(*$C$DW$T$24)
    7107                      .dwattr $C$DW$1004, DW_AT_name("DCFOFFSETCNT")
    7108                      .dwattr $C$DW$1004, DW_AT_TI_symbol_name("_DCFOFFSETCNT")
    7109                      .dwattr $C$DW$1004, DW_AT_data_member_location[DW_OP_plus_uconst 0x36]
    7110                      .dwattr $C$DW$1004, DW_AT_accessibility(DW_ACCESS_public)
    7111              $C$DW$1005      .dwtag  DW_TAG_member
    7112                      .dwattr $C$DW$1005, DW_AT_type(*$C$DW$T$24)
    7113                      .dwattr $C$DW$1005, DW_AT_name("DCFWINDOW")
    7114                      .dwattr $C$DW$1005, DW_AT_TI_symbol_name("_DCFWINDOW")
    7115                      .dwattr $C$DW$1005, DW_AT_data_member_location[DW_OP_plus_uconst 0x37]
    7116                      .dwattr $C$DW$1005, DW_AT_accessibility(DW_ACCESS_public)
    7117              $C$DW$1006      .dwtag  DW_TAG_member
    7118                      .dwattr $C$DW$1006, DW_AT_type(*$C$DW$T$24)
    7119                      .dwattr $C$DW$1006, DW_AT_name("DCFWINDOWCNT")
    7120                      .dwattr $C$DW$1006, DW_AT_TI_symbol_name("_DCFWINDOWCNT")
    7121                      .dwattr $C$DW$1006, DW_AT_data_member_location[DW_OP_plus_uconst 0x38]
    7122                      .dwattr $C$DW$1006, DW_AT_accessibility(DW_ACCESS_public)
    7123              $C$DW$1007      .dwtag  DW_TAG_member
    7124                      .dwattr $C$DW$1007, DW_AT_type(*$C$DW$T$24)
    7125                      .dwattr $C$DW$1007, DW_AT_name("DCCAP")
    7126                      .dwattr $C$DW$1007, DW_AT_TI_symbol_name("_DCCAP")
    7127                      .dwattr $C$DW$1007, DW_AT_data_member_location[DW_OP_plus_uconst 0x39]
    7128                      .dwattr $C$DW$1007, DW_AT_accessibility(DW_ACCESS_public)
    7129                      .dwendtag $C$DW$T$209
    7130              
    7131              $C$DW$T$123     .dwtag  DW_TAG_pointer_type
    7132                      .dwattr $C$DW$T$123, DW_AT_type(*$C$DW$T$209)
    7133                      .dwattr $C$DW$T$123, DW_AT_address_class(0x16)
    7134              $C$DW$T$124     .dwtag  DW_TAG_typedef, DW_AT_name("PWM_Handle")
    7135                      .dwattr $C$DW$T$124, DW_AT_type(*$C$DW$T$123)
    7136                      .dwattr $C$DW$T$124, DW_AT_language(DW_LANG_C)
    7137              
    7138              $C$DW$T$125     .dwtag  DW_TAG_array_type
    7139                      .dwattr $C$DW$T$125, DW_AT_type(*$C$DW$T$124)
    7140                      .dwattr $C$DW$T$125, DW_AT_language(DW_LANG_C)
    7141                      .dwattr $C$DW$T$125, DW_AT_byte_size(0x06)
    7142              $C$DW$1008      .dwtag  DW_TAG_subrange_type
    7143                      .dwattr $C$DW$1008, DW_AT_upper_bound(0x02)
    7144                      .dwendtag $C$DW$T$125
    7145              
    7146              
    7147              $C$DW$T$211     .dwtag  DW_TAG_structure_type
    7148                      .dwattr $C$DW$T$211, DW_AT_name("_PWR_Obj_")
    7149                      .dwattr $C$DW$T$211, DW_AT_byte_size(0x669a)
    7150              $C$DW$1009      .dwtag  DW_TAG_member
    7151                      .dwattr $C$DW$1009, DW_AT_type(*$C$DW$T$24)
    7152                      .dwattr $C$DW$1009, DW_AT_name("BORCFG")
TMS320C2000 Assembler PC v6.2.5 Fri Sep 29 09:29:33 2017

Tools Copyright (c) 1996-2014 Texas Instruments Incorporated
C:\Users\wmj\AppData\Local\Temp\1142410                              PAGE  132

    7153                      .dwattr $C$DW$1009, DW_AT_TI_symbol_name("_BORCFG")
    7154                      .dwattr $C$DW$1009, DW_AT_data_member_location[DW_OP_plus_uconst 0x0]
    7155                      .dwattr $C$DW$1009, DW_AT_accessibility(DW_ACCESS_public)
    7156              $C$DW$1010      .dwtag  DW_TAG_member
    7157                      .dwattr $C$DW$1010, DW_AT_type(*$C$DW$T$210)
    7158                      .dwattr $C$DW$1010, DW_AT_name("rsvd_1")
    7159                      .dwattr $C$DW$1010, DW_AT_TI_symbol_name("_rsvd_1")
    7160                      .dwattr $C$DW$1010, DW_AT_data_member_location[DW_OP_plus_uconst 0x1]
    7161                      .dwattr $C$DW$1010, DW_AT_accessibility(DW_ACCESS_public)
    7162              $C$DW$1011      .dwtag  DW_TAG_member
    7163                      .dwattr $C$DW$1011, DW_AT_type(*$C$DW$T$24)
    7164                      .dwattr $C$DW$1011, DW_AT_name("LPMCR0")
    7165                      .dwattr $C$DW$1011, DW_AT_TI_symbol_name("_LPMCR0")
    7166                      .dwattr $C$DW$1011, DW_AT_data_member_location[DW_OP_plus_uconst 0x6699]
    7167                      .dwattr $C$DW$1011, DW_AT_accessibility(DW_ACCESS_public)
    7168                      .dwendtag $C$DW$T$211
    7169              
    7170              $C$DW$T$126     .dwtag  DW_TAG_pointer_type
    7171                      .dwattr $C$DW$T$126, DW_AT_type(*$C$DW$T$211)
    7172                      .dwattr $C$DW$T$126, DW_AT_address_class(0x16)
    7173              $C$DW$T$127     .dwtag  DW_TAG_typedef, DW_AT_name("PWR_Handle")
    7174                      .dwattr $C$DW$T$127, DW_AT_type(*$C$DW$T$126)
    7175                      .dwattr $C$DW$T$127, DW_AT_language(DW_LANG_C)
    7176              
    7177              $C$DW$T$212     .dwtag  DW_TAG_structure_type
    7178                      .dwattr $C$DW$T$212, DW_AT_name("_SCI_Obj_")
    7179                      .dwattr $C$DW$T$212, DW_AT_byte_size(0x10)
    7180              $C$DW$1012      .dwtag  DW_TAG_member
    7181                      .dwattr $C$DW$1012, DW_AT_type(*$C$DW$T$24)
    7182                      .dwattr $C$DW$1012, DW_AT_name("SCICCR")
    7183                      .dwattr $C$DW$1012, DW_AT_TI_symbol_name("_SCICCR")
    7184                      .dwattr $C$DW$1012, DW_AT_data_member_location[DW_OP_plus_uconst 0x0]
    7185                      .dwattr $C$DW$1012, DW_AT_accessibility(DW_ACCESS_public)
    7186              $C$DW$1013      .dwtag  DW_TAG_member
    7187                      .dwattr $C$DW$1013, DW_AT_type(*$C$DW$T$24)
    7188                      .dwattr $C$DW$1013, DW_AT_name("SCICTL1")
    7189                      .dwattr $C$DW$1013, DW_AT_TI_symbol_name("_SCICTL1")
    7190                      .dwattr $C$DW$1013, DW_AT_data_member_location[DW_OP_plus_uconst 0x1]
    7191                      .dwattr $C$DW$1013, DW_AT_accessibility(DW_ACCESS_public)
    7192              $C$DW$1014      .dwtag  DW_TAG_member
    7193                      .dwattr $C$DW$1014, DW_AT_type(*$C$DW$T$24)
    7194                      .dwattr $C$DW$1014, DW_AT_name("SCIHBAUD")
    7195                      .dwattr $C$DW$1014, DW_AT_TI_symbol_name("_SCIHBAUD")
    7196                      .dwattr $C$DW$1014, DW_AT_data_member_location[DW_OP_plus_uconst 0x2]
    7197                      .dwattr $C$DW$1014, DW_AT_accessibility(DW_ACCESS_public)
    7198              $C$DW$1015      .dwtag  DW_TAG_member
    7199                      .dwattr $C$DW$1015, DW_AT_type(*$C$DW$T$24)
    7200                      .dwattr $C$DW$1015, DW_AT_name("SCILBAUD")
    7201                      .dwattr $C$DW$1015, DW_AT_TI_symbol_name("_SCILBAUD")
    7202                      .dwattr $C$DW$1015, DW_AT_data_member_location[DW_OP_plus_uconst 0x3]
    7203                      .dwattr $C$DW$1015, DW_AT_accessibility(DW_ACCESS_public)
    7204              $C$DW$1016      .dwtag  DW_TAG_member
    7205                      .dwattr $C$DW$1016, DW_AT_type(*$C$DW$T$24)
    7206                      .dwattr $C$DW$1016, DW_AT_name("SCICTL2")
    7207                      .dwattr $C$DW$1016, DW_AT_TI_symbol_name("_SCICTL2")
TMS320C2000 Assembler PC v6.2.5 Fri Sep 29 09:29:33 2017

Tools Copyright (c) 1996-2014 Texas Instruments Incorporated
C:\Users\wmj\AppData\Local\Temp\1142410                              PAGE  133

    7208                      .dwattr $C$DW$1016, DW_AT_data_member_location[DW_OP_plus_uconst 0x4]
    7209                      .dwattr $C$DW$1016, DW_AT_accessibility(DW_ACCESS_public)
    7210              $C$DW$1017      .dwtag  DW_TAG_member
    7211                      .dwattr $C$DW$1017, DW_AT_type(*$C$DW$T$24)
    7212                      .dwattr $C$DW$1017, DW_AT_name("SCIRXST")
    7213                      .dwattr $C$DW$1017, DW_AT_TI_symbol_name("_SCIRXST")
    7214                      .dwattr $C$DW$1017, DW_AT_data_member_location[DW_OP_plus_uconst 0x5]
    7215                      .dwattr $C$DW$1017, DW_AT_accessibility(DW_ACCESS_public)
    7216              $C$DW$1018      .dwtag  DW_TAG_member
    7217                      .dwattr $C$DW$1018, DW_AT_type(*$C$DW$T$24)
    7218                      .dwattr $C$DW$1018, DW_AT_name("SCIRXEMU")
    7219                      .dwattr $C$DW$1018, DW_AT_TI_symbol_name("_SCIRXEMU")
    7220                      .dwattr $C$DW$1018, DW_AT_data_member_location[DW_OP_plus_uconst 0x6]
    7221                      .dwattr $C$DW$1018, DW_AT_accessibility(DW_ACCESS_public)
    7222              $C$DW$1019      .dwtag  DW_TAG_member
    7223                      .dwattr $C$DW$1019, DW_AT_type(*$C$DW$T$24)
    7224                      .dwattr $C$DW$1019, DW_AT_name("SCIRXBUF")
    7225                      .dwattr $C$DW$1019, DW_AT_TI_symbol_name("_SCIRXBUF")
    7226                      .dwattr $C$DW$1019, DW_AT_data_member_location[DW_OP_plus_uconst 0x7]
    7227                      .dwattr $C$DW$1019, DW_AT_accessibility(DW_ACCESS_public)
    7228              $C$DW$1020      .dwtag  DW_TAG_member
    7229                      .dwattr $C$DW$1020, DW_AT_type(*$C$DW$T$24)
    7230                      .dwattr $C$DW$1020, DW_AT_name("rsvd_1")
    7231                      .dwattr $C$DW$1020, DW_AT_TI_symbol_name("_rsvd_1")
    7232                      .dwattr $C$DW$1020, DW_AT_data_member_location[DW_OP_plus_uconst 0x8]
    7233                      .dwattr $C$DW$1020, DW_AT_accessibility(DW_ACCESS_public)
    7234              $C$DW$1021      .dwtag  DW_TAG_member
    7235                      .dwattr $C$DW$1021, DW_AT_type(*$C$DW$T$24)
    7236                      .dwattr $C$DW$1021, DW_AT_name("SCITXBUF")
    7237                      .dwattr $C$DW$1021, DW_AT_TI_symbol_name("_SCITXBUF")
    7238                      .dwattr $C$DW$1021, DW_AT_data_member_location[DW_OP_plus_uconst 0x9]
    7239                      .dwattr $C$DW$1021, DW_AT_accessibility(DW_ACCESS_public)
    7240              $C$DW$1022      .dwtag  DW_TAG_member
    7241                      .dwattr $C$DW$1022, DW_AT_type(*$C$DW$T$24)
    7242                      .dwattr $C$DW$1022, DW_AT_name("SCIFFTX")
    7243                      .dwattr $C$DW$1022, DW_AT_TI_symbol_name("_SCIFFTX")
    7244                      .dwattr $C$DW$1022, DW_AT_data_member_location[DW_OP_plus_uconst 0xa]
    7245                      .dwattr $C$DW$1022, DW_AT_accessibility(DW_ACCESS_public)
    7246              $C$DW$1023      .dwtag  DW_TAG_member
    7247                      .dwattr $C$DW$1023, DW_AT_type(*$C$DW$T$24)
    7248                      .dwattr $C$DW$1023, DW_AT_name("SCIFFRX")
    7249                      .dwattr $C$DW$1023, DW_AT_TI_symbol_name("_SCIFFRX")
    7250                      .dwattr $C$DW$1023, DW_AT_data_member_location[DW_OP_plus_uconst 0xb]
    7251                      .dwattr $C$DW$1023, DW_AT_accessibility(DW_ACCESS_public)
    7252              $C$DW$1024      .dwtag  DW_TAG_member
    7253                      .dwattr $C$DW$1024, DW_AT_type(*$C$DW$T$24)
    7254                      .dwattr $C$DW$1024, DW_AT_name("SCIFFCT")
    7255                      .dwattr $C$DW$1024, DW_AT_TI_symbol_name("_SCIFFCT")
    7256                      .dwattr $C$DW$1024, DW_AT_data_member_location[DW_OP_plus_uconst 0xc]
    7257                      .dwattr $C$DW$1024, DW_AT_accessibility(DW_ACCESS_public)
    7258              $C$DW$1025      .dwtag  DW_TAG_member
    7259                      .dwattr $C$DW$1025, DW_AT_type(*$C$DW$T$27)
    7260                      .dwattr $C$DW$1025, DW_AT_name("rsvd_2")
    7261                      .dwattr $C$DW$1025, DW_AT_TI_symbol_name("_rsvd_2")
    7262                      .dwattr $C$DW$1025, DW_AT_data_member_location[DW_OP_plus_uconst 0xd]
TMS320C2000 Assembler PC v6.2.5 Fri Sep 29 09:29:33 2017

Tools Copyright (c) 1996-2014 Texas Instruments Incorporated
C:\Users\wmj\AppData\Local\Temp\1142410                              PAGE  134

    7263                      .dwattr $C$DW$1025, DW_AT_accessibility(DW_ACCESS_public)
    7264              $C$DW$1026      .dwtag  DW_TAG_member
    7265                      .dwattr $C$DW$1026, DW_AT_type(*$C$DW$T$24)
    7266                      .dwattr $C$DW$1026, DW_AT_name("SCIPRI")
    7267                      .dwattr $C$DW$1026, DW_AT_TI_symbol_name("_SCIPRI")
    7268                      .dwattr $C$DW$1026, DW_AT_data_member_location[DW_OP_plus_uconst 0xf]
    7269                      .dwattr $C$DW$1026, DW_AT_accessibility(DW_ACCESS_public)
    7270                      .dwendtag $C$DW$T$212
    7271              
    7272              $C$DW$T$137     .dwtag  DW_TAG_pointer_type
    7273                      .dwattr $C$DW$T$137, DW_AT_type(*$C$DW$T$212)
    7274                      .dwattr $C$DW$T$137, DW_AT_address_class(0x16)
    7275              $C$DW$T$138     .dwtag  DW_TAG_typedef, DW_AT_name("SCI_Handle")
    7276                      .dwattr $C$DW$T$138, DW_AT_type(*$C$DW$T$137)
    7277                      .dwattr $C$DW$T$138, DW_AT_language(DW_LANG_C)
    7278              $C$DW$1027      .dwtag  DW_TAG_TI_far_type
    7279                      .dwattr $C$DW$1027, DW_AT_type(*$C$DW$T$138)
    7280              $C$DW$T$243     .dwtag  DW_TAG_const_type
    7281                      .dwattr $C$DW$T$243, DW_AT_type(*$C$DW$1027)
    7282              
    7283              $C$DW$T$213     .dwtag  DW_TAG_structure_type
    7284                      .dwattr $C$DW$T$213, DW_AT_name("_SPI_Obj_")
    7285                      .dwattr $C$DW$T$213, DW_AT_byte_size(0x10)
    7286              $C$DW$1028      .dwtag  DW_TAG_member
    7287                      .dwattr $C$DW$1028, DW_AT_type(*$C$DW$T$24)
    7288                      .dwattr $C$DW$1028, DW_AT_name("SPICCR")
    7289                      .dwattr $C$DW$1028, DW_AT_TI_symbol_name("_SPICCR")
    7290                      .dwattr $C$DW$1028, DW_AT_data_member_location[DW_OP_plus_uconst 0x0]
    7291                      .dwattr $C$DW$1028, DW_AT_accessibility(DW_ACCESS_public)
    7292              $C$DW$1029      .dwtag  DW_TAG_member
    7293                      .dwattr $C$DW$1029, DW_AT_type(*$C$DW$T$24)
    7294                      .dwattr $C$DW$1029, DW_AT_name("SPICTL")
    7295                      .dwattr $C$DW$1029, DW_AT_TI_symbol_name("_SPICTL")
    7296                      .dwattr $C$DW$1029, DW_AT_data_member_location[DW_OP_plus_uconst 0x1]
    7297                      .dwattr $C$DW$1029, DW_AT_accessibility(DW_ACCESS_public)
    7298              $C$DW$1030      .dwtag  DW_TAG_member
    7299                      .dwattr $C$DW$1030, DW_AT_type(*$C$DW$T$24)
    7300                      .dwattr $C$DW$1030, DW_AT_name("SPIST")
    7301                      .dwattr $C$DW$1030, DW_AT_TI_symbol_name("_SPIST")
    7302                      .dwattr $C$DW$1030, DW_AT_data_member_location[DW_OP_plus_uconst 0x2]
    7303                      .dwattr $C$DW$1030, DW_AT_accessibility(DW_ACCESS_public)
    7304              $C$DW$1031      .dwtag  DW_TAG_member
    7305                      .dwattr $C$DW$1031, DW_AT_type(*$C$DW$T$24)
    7306                      .dwattr $C$DW$1031, DW_AT_name("rsvd_1")
    7307                      .dwattr $C$DW$1031, DW_AT_TI_symbol_name("_rsvd_1")
    7308                      .dwattr $C$DW$1031, DW_AT_data_member_location[DW_OP_plus_uconst 0x3]
    7309                      .dwattr $C$DW$1031, DW_AT_accessibility(DW_ACCESS_public)
    7310              $C$DW$1032      .dwtag  DW_TAG_member
    7311                      .dwattr $C$DW$1032, DW_AT_type(*$C$DW$T$24)
    7312                      .dwattr $C$DW$1032, DW_AT_name("SPIBRR")
    7313                      .dwattr $C$DW$1032, DW_AT_TI_symbol_name("_SPIBRR")
    7314                      .dwattr $C$DW$1032, DW_AT_data_member_location[DW_OP_plus_uconst 0x4]
    7315                      .dwattr $C$DW$1032, DW_AT_accessibility(DW_ACCESS_public)
    7316              $C$DW$1033      .dwtag  DW_TAG_member
    7317                      .dwattr $C$DW$1033, DW_AT_type(*$C$DW$T$24)
TMS320C2000 Assembler PC v6.2.5 Fri Sep 29 09:29:33 2017

Tools Copyright (c) 1996-2014 Texas Instruments Incorporated
C:\Users\wmj\AppData\Local\Temp\1142410                              PAGE  135

    7318                      .dwattr $C$DW$1033, DW_AT_name("rsvd_2")
    7319                      .dwattr $C$DW$1033, DW_AT_TI_symbol_name("_rsvd_2")
    7320                      .dwattr $C$DW$1033, DW_AT_data_member_location[DW_OP_plus_uconst 0x5]
    7321                      .dwattr $C$DW$1033, DW_AT_accessibility(DW_ACCESS_public)
    7322              $C$DW$1034      .dwtag  DW_TAG_member
    7323                      .dwattr $C$DW$1034, DW_AT_type(*$C$DW$T$24)
    7324                      .dwattr $C$DW$1034, DW_AT_name("SPIEMU")
    7325                      .dwattr $C$DW$1034, DW_AT_TI_symbol_name("_SPIEMU")
    7326                      .dwattr $C$DW$1034, DW_AT_data_member_location[DW_OP_plus_uconst 0x6]
    7327                      .dwattr $C$DW$1034, DW_AT_accessibility(DW_ACCESS_public)
    7328              $C$DW$1035      .dwtag  DW_TAG_member
    7329                      .dwattr $C$DW$1035, DW_AT_type(*$C$DW$T$24)
    7330                      .dwattr $C$DW$1035, DW_AT_name("SPIRXBUF")
    7331                      .dwattr $C$DW$1035, DW_AT_TI_symbol_name("_SPIRXBUF")
    7332                      .dwattr $C$DW$1035, DW_AT_data_member_location[DW_OP_plus_uconst 0x7]
    7333                      .dwattr $C$DW$1035, DW_AT_accessibility(DW_ACCESS_public)
    7334              $C$DW$1036      .dwtag  DW_TAG_member
    7335                      .dwattr $C$DW$1036, DW_AT_type(*$C$DW$T$24)
    7336                      .dwattr $C$DW$1036, DW_AT_name("SPITXBUF")
    7337                      .dwattr $C$DW$1036, DW_AT_TI_symbol_name("_SPITXBUF")
    7338                      .dwattr $C$DW$1036, DW_AT_data_member_location[DW_OP_plus_uconst 0x8]
    7339                      .dwattr $C$DW$1036, DW_AT_accessibility(DW_ACCESS_public)
    7340              $C$DW$1037      .dwtag  DW_TAG_member
    7341                      .dwattr $C$DW$1037, DW_AT_type(*$C$DW$T$24)
    7342                      .dwattr $C$DW$1037, DW_AT_name("SPIDAT")
    7343                      .dwattr $C$DW$1037, DW_AT_TI_symbol_name("_SPIDAT")
    7344                      .dwattr $C$DW$1037, DW_AT_data_member_location[DW_OP_plus_uconst 0x9]
    7345                      .dwattr $C$DW$1037, DW_AT_accessibility(DW_ACCESS_public)
    7346              $C$DW$1038      .dwtag  DW_TAG_member
    7347                      .dwattr $C$DW$1038, DW_AT_type(*$C$DW$T$24)
    7348                      .dwattr $C$DW$1038, DW_AT_name("SPIFFTX")
    7349                      .dwattr $C$DW$1038, DW_AT_TI_symbol_name("_SPIFFTX")
    7350                      .dwattr $C$DW$1038, DW_AT_data_member_location[DW_OP_plus_uconst 0xa]
    7351                      .dwattr $C$DW$1038, DW_AT_accessibility(DW_ACCESS_public)
    7352              $C$DW$1039      .dwtag  DW_TAG_member
    7353                      .dwattr $C$DW$1039, DW_AT_type(*$C$DW$T$24)
    7354                      .dwattr $C$DW$1039, DW_AT_name("SPIFFRX")
    7355                      .dwattr $C$DW$1039, DW_AT_TI_symbol_name("_SPIFFRX")
    7356                      .dwattr $C$DW$1039, DW_AT_data_member_location[DW_OP_plus_uconst 0xb]
    7357                      .dwattr $C$DW$1039, DW_AT_accessibility(DW_ACCESS_public)
    7358              $C$DW$1040      .dwtag  DW_TAG_member
    7359                      .dwattr $C$DW$1040, DW_AT_type(*$C$DW$T$24)
    7360                      .dwattr $C$DW$1040, DW_AT_name("SPIFFCT")
    7361                      .dwattr $C$DW$1040, DW_AT_TI_symbol_name("_SPIFFCT")
    7362                      .dwattr $C$DW$1040, DW_AT_data_member_location[DW_OP_plus_uconst 0xc]
    7363                      .dwattr $C$DW$1040, DW_AT_accessibility(DW_ACCESS_public)
    7364              $C$DW$1041      .dwtag  DW_TAG_member
    7365                      .dwattr $C$DW$1041, DW_AT_type(*$C$DW$T$27)
    7366                      .dwattr $C$DW$1041, DW_AT_name("rsvd_3")
    7367                      .dwattr $C$DW$1041, DW_AT_TI_symbol_name("_rsvd_3")
    7368                      .dwattr $C$DW$1041, DW_AT_data_member_location[DW_OP_plus_uconst 0xd]
    7369                      .dwattr $C$DW$1041, DW_AT_accessibility(DW_ACCESS_public)
    7370              $C$DW$1042      .dwtag  DW_TAG_member
    7371                      .dwattr $C$DW$1042, DW_AT_type(*$C$DW$T$24)
    7372                      .dwattr $C$DW$1042, DW_AT_name("SPIPRI")
TMS320C2000 Assembler PC v6.2.5 Fri Sep 29 09:29:33 2017

Tools Copyright (c) 1996-2014 Texas Instruments Incorporated
C:\Users\wmj\AppData\Local\Temp\1142410                              PAGE  136

    7373                      .dwattr $C$DW$1042, DW_AT_TI_symbol_name("_SPIPRI")
    7374                      .dwattr $C$DW$1042, DW_AT_data_member_location[DW_OP_plus_uconst 0xf]
    7375                      .dwattr $C$DW$1042, DW_AT_accessibility(DW_ACCESS_public)
    7376                      .dwendtag $C$DW$T$213
    7377              
    7378              $C$DW$T$133     .dwtag  DW_TAG_pointer_type
    7379                      .dwattr $C$DW$T$133, DW_AT_type(*$C$DW$T$213)
    7380                      .dwattr $C$DW$T$133, DW_AT_address_class(0x16)
    7381              $C$DW$T$134     .dwtag  DW_TAG_typedef, DW_AT_name("SPI_Handle")
    7382                      .dwattr $C$DW$T$134, DW_AT_type(*$C$DW$T$133)
    7383                      .dwattr $C$DW$T$134, DW_AT_language(DW_LANG_C)
    7384              
    7385              $C$DW$T$214     .dwtag  DW_TAG_structure_type
    7386                      .dwattr $C$DW$T$214, DW_AT_name("_SVGEN_Obj_")
    7387                      .dwattr $C$DW$T$214, DW_AT_byte_size(0x02)
    7388              $C$DW$1043      .dwtag  DW_TAG_member
    7389                      .dwattr $C$DW$1043, DW_AT_type(*$C$DW$T$32)
    7390                      .dwattr $C$DW$1043, DW_AT_name("maxModulation")
    7391                      .dwattr $C$DW$1043, DW_AT_TI_symbol_name("_maxModulation")
    7392                      .dwattr $C$DW$1043, DW_AT_data_member_location[DW_OP_plus_uconst 0x0]
    7393                      .dwattr $C$DW$1043, DW_AT_accessibility(DW_ACCESS_public)
    7394                      .dwendtag $C$DW$T$214
    7395              
    7396              $C$DW$T$62      .dwtag  DW_TAG_typedef, DW_AT_name("SVGEN_Obj")
    7397                      .dwattr $C$DW$T$62, DW_AT_type(*$C$DW$T$214)
    7398                      .dwattr $C$DW$T$62, DW_AT_language(DW_LANG_C)
    7399              $C$DW$T$60      .dwtag  DW_TAG_pointer_type
    7400                      .dwattr $C$DW$T$60, DW_AT_type(*$C$DW$T$214)
    7401                      .dwattr $C$DW$T$60, DW_AT_address_class(0x16)
    7402              $C$DW$T$61      .dwtag  DW_TAG_typedef, DW_AT_name("SVGEN_Handle")
    7403                      .dwattr $C$DW$T$61, DW_AT_type(*$C$DW$T$60)
    7404                      .dwattr $C$DW$T$61, DW_AT_language(DW_LANG_C)
    7405              
    7406              $C$DW$T$215     .dwtag  DW_TAG_structure_type
    7407                      .dwattr $C$DW$T$215, DW_AT_name("_TIMER_Obj_")
    7408                      .dwattr $C$DW$T$215, DW_AT_byte_size(0x08)
    7409              $C$DW$1044      .dwtag  DW_TAG_member
    7410                      .dwattr $C$DW$1044, DW_AT_type(*$C$DW$T$96)
    7411                      .dwattr $C$DW$1044, DW_AT_name("TIM")
    7412                      .dwattr $C$DW$1044, DW_AT_TI_symbol_name("_TIM")
    7413                      .dwattr $C$DW$1044, DW_AT_data_member_location[DW_OP_plus_uconst 0x0]
    7414                      .dwattr $C$DW$1044, DW_AT_accessibility(DW_ACCESS_public)
    7415              $C$DW$1045      .dwtag  DW_TAG_member
    7416                      .dwattr $C$DW$1045, DW_AT_type(*$C$DW$T$96)
    7417                      .dwattr $C$DW$1045, DW_AT_name("PRD")
    7418                      .dwattr $C$DW$1045, DW_AT_TI_symbol_name("_PRD")
    7419                      .dwattr $C$DW$1045, DW_AT_data_member_location[DW_OP_plus_uconst 0x2]
    7420                      .dwattr $C$DW$1045, DW_AT_accessibility(DW_ACCESS_public)
    7421              $C$DW$1046      .dwtag  DW_TAG_member
    7422                      .dwattr $C$DW$1046, DW_AT_type(*$C$DW$T$24)
    7423                      .dwattr $C$DW$1046, DW_AT_name("TCR")
    7424                      .dwattr $C$DW$1046, DW_AT_TI_symbol_name("_TCR")
    7425                      .dwattr $C$DW$1046, DW_AT_data_member_location[DW_OP_plus_uconst 0x4]
    7426                      .dwattr $C$DW$1046, DW_AT_accessibility(DW_ACCESS_public)
    7427              $C$DW$1047      .dwtag  DW_TAG_member
TMS320C2000 Assembler PC v6.2.5 Fri Sep 29 09:29:33 2017

Tools Copyright (c) 1996-2014 Texas Instruments Incorporated
C:\Users\wmj\AppData\Local\Temp\1142410                              PAGE  137

    7428                      .dwattr $C$DW$1047, DW_AT_type(*$C$DW$T$24)
    7429                      .dwattr $C$DW$1047, DW_AT_name("resvd_1")
    7430                      .dwattr $C$DW$1047, DW_AT_TI_symbol_name("_resvd_1")
    7431                      .dwattr $C$DW$1047, DW_AT_data_member_location[DW_OP_plus_uconst 0x5]
    7432                      .dwattr $C$DW$1047, DW_AT_accessibility(DW_ACCESS_public)
    7433              $C$DW$1048      .dwtag  DW_TAG_member
    7434                      .dwattr $C$DW$1048, DW_AT_type(*$C$DW$T$96)
    7435                      .dwattr $C$DW$1048, DW_AT_name("TPR")
    7436                      .dwattr $C$DW$1048, DW_AT_TI_symbol_name("_TPR")
    7437                      .dwattr $C$DW$1048, DW_AT_data_member_location[DW_OP_plus_uconst 0x6]
    7438                      .dwattr $C$DW$1048, DW_AT_accessibility(DW_ACCESS_public)
    7439                      .dwendtag $C$DW$T$215
    7440              
    7441              $C$DW$T$245     .dwtag  DW_TAG_typedef, DW_AT_name("TIMER_Obj")
    7442                      .dwattr $C$DW$T$245, DW_AT_type(*$C$DW$T$215)
    7443                      .dwattr $C$DW$T$245, DW_AT_language(DW_LANG_C)
    7444              $C$DW$T$128     .dwtag  DW_TAG_pointer_type
    7445                      .dwattr $C$DW$T$128, DW_AT_type(*$C$DW$T$215)
    7446                      .dwattr $C$DW$T$128, DW_AT_address_class(0x16)
    7447              $C$DW$T$129     .dwtag  DW_TAG_typedef, DW_AT_name("TIMER_Handle")
    7448                      .dwattr $C$DW$T$129, DW_AT_type(*$C$DW$T$128)
    7449                      .dwattr $C$DW$T$129, DW_AT_language(DW_LANG_C)
    7450              $C$DW$1049      .dwtag  DW_TAG_TI_far_type
    7451                      .dwattr $C$DW$1049, DW_AT_type(*$C$DW$T$129)
    7452              $C$DW$T$246     .dwtag  DW_TAG_const_type
    7453                      .dwattr $C$DW$T$246, DW_AT_type(*$C$DW$1049)
    7454              
    7455              $C$DW$T$130     .dwtag  DW_TAG_array_type
    7456                      .dwattr $C$DW$T$130, DW_AT_type(*$C$DW$T$129)
    7457                      .dwattr $C$DW$T$130, DW_AT_language(DW_LANG_C)
    7458                      .dwattr $C$DW$T$130, DW_AT_byte_size(0x06)
    7459              $C$DW$1050      .dwtag  DW_TAG_subrange_type
    7460                      .dwattr $C$DW$1050, DW_AT_upper_bound(0x02)
    7461                      .dwendtag $C$DW$T$130
    7462              
    7463              
    7464              $C$DW$T$216     .dwtag  DW_TAG_structure_type
    7465                      .dwattr $C$DW$T$216, DW_AT_name("_TRAJ_Obj_")
    7466                      .dwattr $C$DW$T$216, DW_AT_byte_size(0x0a)
    7467              $C$DW$1051      .dwtag  DW_TAG_member
    7468                      .dwattr $C$DW$1051, DW_AT_type(*$C$DW$T$32)
    7469                      .dwattr $C$DW$1051, DW_AT_name("targetValue")
    7470                      .dwattr $C$DW$1051, DW_AT_TI_symbol_name("_targetValue")
    7471                      .dwattr $C$DW$1051, DW_AT_data_member_location[DW_OP_plus_uconst 0x0]
    7472                      .dwattr $C$DW$1051, DW_AT_accessibility(DW_ACCESS_public)
    7473              $C$DW$1052      .dwtag  DW_TAG_member
    7474                      .dwattr $C$DW$1052, DW_AT_type(*$C$DW$T$32)
    7475                      .dwattr $C$DW$1052, DW_AT_name("intValue")
    7476                      .dwattr $C$DW$1052, DW_AT_TI_symbol_name("_intValue")
    7477                      .dwattr $C$DW$1052, DW_AT_data_member_location[DW_OP_plus_uconst 0x2]
    7478                      .dwattr $C$DW$1052, DW_AT_accessibility(DW_ACCESS_public)
    7479              $C$DW$1053      .dwtag  DW_TAG_member
    7480                      .dwattr $C$DW$1053, DW_AT_type(*$C$DW$T$32)
    7481                      .dwattr $C$DW$1053, DW_AT_name("minValue")
    7482                      .dwattr $C$DW$1053, DW_AT_TI_symbol_name("_minValue")
TMS320C2000 Assembler PC v6.2.5 Fri Sep 29 09:29:33 2017

Tools Copyright (c) 1996-2014 Texas Instruments Incorporated
C:\Users\wmj\AppData\Local\Temp\1142410                              PAGE  138

    7483                      .dwattr $C$DW$1053, DW_AT_data_member_location[DW_OP_plus_uconst 0x4]
    7484                      .dwattr $C$DW$1053, DW_AT_accessibility(DW_ACCESS_public)
    7485              $C$DW$1054      .dwtag  DW_TAG_member
    7486                      .dwattr $C$DW$1054, DW_AT_type(*$C$DW$T$32)
    7487                      .dwattr $C$DW$1054, DW_AT_name("maxValue")
    7488                      .dwattr $C$DW$1054, DW_AT_TI_symbol_name("_maxValue")
    7489                      .dwattr $C$DW$1054, DW_AT_data_member_location[DW_OP_plus_uconst 0x6]
    7490                      .dwattr $C$DW$1054, DW_AT_accessibility(DW_ACCESS_public)
    7491              $C$DW$1055      .dwtag  DW_TAG_member
    7492                      .dwattr $C$DW$1055, DW_AT_type(*$C$DW$T$32)
    7493                      .dwattr $C$DW$1055, DW_AT_name("maxDelta")
    7494                      .dwattr $C$DW$1055, DW_AT_TI_symbol_name("_maxDelta")
    7495                      .dwattr $C$DW$1055, DW_AT_data_member_location[DW_OP_plus_uconst 0x8]
    7496                      .dwattr $C$DW$1055, DW_AT_accessibility(DW_ACCESS_public)
    7497                      .dwendtag $C$DW$T$216
    7498              
    7499              $C$DW$T$65      .dwtag  DW_TAG_typedef, DW_AT_name("TRAJ_Obj")
    7500                      .dwattr $C$DW$T$65, DW_AT_type(*$C$DW$T$216)
    7501                      .dwattr $C$DW$T$65, DW_AT_language(DW_LANG_C)
    7502              $C$DW$T$63      .dwtag  DW_TAG_pointer_type
    7503                      .dwattr $C$DW$T$63, DW_AT_type(*$C$DW$T$216)
    7504                      .dwattr $C$DW$T$63, DW_AT_address_class(0x16)
    7505              $C$DW$T$64      .dwtag  DW_TAG_typedef, DW_AT_name("TRAJ_Handle")
    7506                      .dwattr $C$DW$T$64, DW_AT_type(*$C$DW$T$63)
    7507                      .dwattr $C$DW$T$64, DW_AT_language(DW_LANG_C)
    7508              
    7509              $C$DW$T$217     .dwtag  DW_TAG_structure_type
    7510                      .dwattr $C$DW$T$217, DW_AT_name("_WDOG_Obj_")
    7511                      .dwattr $C$DW$T$217, DW_AT_byte_size(0x08)
    7512              $C$DW$1056      .dwtag  DW_TAG_member
    7513                      .dwattr $C$DW$1056, DW_AT_type(*$C$DW$T$24)
    7514                      .dwattr $C$DW$1056, DW_AT_name("SCSR")
    7515                      .dwattr $C$DW$1056, DW_AT_TI_symbol_name("_SCSR")
    7516                      .dwattr $C$DW$1056, DW_AT_data_member_location[DW_OP_plus_uconst 0x0]
    7517                      .dwattr $C$DW$1056, DW_AT_accessibility(DW_ACCESS_public)
    7518              $C$DW$1057      .dwtag  DW_TAG_member
    7519                      .dwattr $C$DW$1057, DW_AT_type(*$C$DW$T$24)
    7520                      .dwattr $C$DW$1057, DW_AT_name("WDCNTR")
    7521                      .dwattr $C$DW$1057, DW_AT_TI_symbol_name("_WDCNTR")
    7522                      .dwattr $C$DW$1057, DW_AT_data_member_location[DW_OP_plus_uconst 0x1]
    7523                      .dwattr $C$DW$1057, DW_AT_accessibility(DW_ACCESS_public)
    7524              $C$DW$1058      .dwtag  DW_TAG_member
    7525                      .dwattr $C$DW$1058, DW_AT_type(*$C$DW$T$24)
    7526                      .dwattr $C$DW$1058, DW_AT_name("rsvd_1")
    7527                      .dwattr $C$DW$1058, DW_AT_TI_symbol_name("_rsvd_1")
    7528                      .dwattr $C$DW$1058, DW_AT_data_member_location[DW_OP_plus_uconst 0x2]
    7529                      .dwattr $C$DW$1058, DW_AT_accessibility(DW_ACCESS_public)
    7530              $C$DW$1059      .dwtag  DW_TAG_member
    7531                      .dwattr $C$DW$1059, DW_AT_type(*$C$DW$T$24)
    7532                      .dwattr $C$DW$1059, DW_AT_name("WDKEY")
    7533                      .dwattr $C$DW$1059, DW_AT_TI_symbol_name("_WDKEY")
    7534                      .dwattr $C$DW$1059, DW_AT_data_member_location[DW_OP_plus_uconst 0x3]
    7535                      .dwattr $C$DW$1059, DW_AT_accessibility(DW_ACCESS_public)
    7536              $C$DW$1060      .dwtag  DW_TAG_member
    7537                      .dwattr $C$DW$1060, DW_AT_type(*$C$DW$T$29)
TMS320C2000 Assembler PC v6.2.5 Fri Sep 29 09:29:33 2017

Tools Copyright (c) 1996-2014 Texas Instruments Incorporated
C:\Users\wmj\AppData\Local\Temp\1142410                              PAGE  139

    7538                      .dwattr $C$DW$1060, DW_AT_name("rsvd_2")
    7539                      .dwattr $C$DW$1060, DW_AT_TI_symbol_name("_rsvd_2")
    7540                      .dwattr $C$DW$1060, DW_AT_data_member_location[DW_OP_plus_uconst 0x4]
    7541                      .dwattr $C$DW$1060, DW_AT_accessibility(DW_ACCESS_public)
    7542              $C$DW$1061      .dwtag  DW_TAG_member
    7543                      .dwattr $C$DW$1061, DW_AT_type(*$C$DW$T$24)
    7544                      .dwattr $C$DW$1061, DW_AT_name("WDCR")
    7545                      .dwattr $C$DW$1061, DW_AT_TI_symbol_name("_WDCR")
    7546                      .dwattr $C$DW$1061, DW_AT_data_member_location[DW_OP_plus_uconst 0x7]
    7547                      .dwattr $C$DW$1061, DW_AT_accessibility(DW_ACCESS_public)
    7548                      .dwendtag $C$DW$T$217
    7549              
    7550              $C$DW$T$135     .dwtag  DW_TAG_pointer_type
    7551                      .dwattr $C$DW$T$135, DW_AT_type(*$C$DW$T$217)
    7552                      .dwattr $C$DW$T$135, DW_AT_address_class(0x16)
    7553              $C$DW$T$136     .dwtag  DW_TAG_typedef, DW_AT_name("WDOG_Handle")
    7554                      .dwattr $C$DW$T$136, DW_AT_type(*$C$DW$T$135)
    7555                      .dwattr $C$DW$T$136, DW_AT_language(DW_LANG_C)
    7556              $C$DW$T$3       .dwtag  DW_TAG_pointer_type
    7557                      .dwattr $C$DW$T$3, DW_AT_address_class(0x16)
    7558              $C$DW$1062      .dwtag  DW_TAG_TI_far_type
    7559                      .dwattr $C$DW$1062, DW_AT_type(*$C$DW$T$3)
    7560              $C$DW$T$248     .dwtag  DW_TAG_const_type
    7561                      .dwattr $C$DW$T$248, DW_AT_type(*$C$DW$1062)
    7562              
    7563              $C$DW$T$189     .dwtag  DW_TAG_subroutine_type
    7564                      .dwattr $C$DW$T$189, DW_AT_language(DW_LANG_C)
    7565              $C$DW$T$190     .dwtag  DW_TAG_pointer_type
    7566                      .dwattr $C$DW$T$190, DW_AT_type(*$C$DW$T$189)
    7567                      .dwattr $C$DW$T$190, DW_AT_address_class(0x16)
    7568              $C$DW$T$191     .dwtag  DW_TAG_typedef, DW_AT_name("PIE_IntVec_t")
    7569                      .dwattr $C$DW$T$191, DW_AT_type(*$C$DW$T$190)
    7570                      .dwattr $C$DW$T$191, DW_AT_language(DW_LANG_C)
    7571              $C$DW$1063      .dwtag  DW_TAG_TI_far_type
    7572                      .dwattr $C$DW$1063, DW_AT_type(*$C$DW$T$191)
    7573              $C$DW$T$192     .dwtag  DW_TAG_volatile_type
    7574                      .dwattr $C$DW$T$192, DW_AT_type(*$C$DW$1063)
    7575              $C$DW$T$4       .dwtag  DW_TAG_base_type
    7576                      .dwattr $C$DW$T$4, DW_AT_encoding(DW_ATE_boolean)
    7577                      .dwattr $C$DW$T$4, DW_AT_name("bool")
    7578                      .dwattr $C$DW$T$4, DW_AT_byte_size(0x01)
    7579              $C$DW$T$5       .dwtag  DW_TAG_base_type
    7580                      .dwattr $C$DW$T$5, DW_AT_encoding(DW_ATE_signed_char)
    7581                      .dwattr $C$DW$T$5, DW_AT_name("signed char")
    7582                      .dwattr $C$DW$T$5, DW_AT_byte_size(0x01)
    7583              $C$DW$T$6       .dwtag  DW_TAG_base_type
    7584                      .dwattr $C$DW$T$6, DW_AT_encoding(DW_ATE_unsigned_char)
    7585                      .dwattr $C$DW$T$6, DW_AT_name("unsigned char")
    7586                      .dwattr $C$DW$T$6, DW_AT_byte_size(0x01)
    7587              $C$DW$T$152     .dwtag  DW_TAG_typedef, DW_AT_name("UCHAR")
    7588                      .dwattr $C$DW$T$152, DW_AT_type(*$C$DW$T$6)
    7589                      .dwattr $C$DW$T$152, DW_AT_language(DW_LANG_C)
    7590              
    7591              $C$DW$T$153     .dwtag  DW_TAG_array_type
    7592                      .dwattr $C$DW$T$153, DW_AT_type(*$C$DW$T$152)
TMS320C2000 Assembler PC v6.2.5 Fri Sep 29 09:29:33 2017

Tools Copyright (c) 1996-2014 Texas Instruments Incorporated
C:\Users\wmj\AppData\Local\Temp\1142410                              PAGE  140

    7593                      .dwattr $C$DW$T$153, DW_AT_language(DW_LANG_C)
    7594                      .dwattr $C$DW$T$153, DW_AT_byte_size(0x08)
    7595              $C$DW$1064      .dwtag  DW_TAG_subrange_type
    7596                      .dwattr $C$DW$1064, DW_AT_upper_bound(0x07)
    7597                      .dwendtag $C$DW$T$153
    7598              
    7599              $C$DW$T$154     .dwtag  DW_TAG_pointer_type
    7600                      .dwattr $C$DW$T$154, DW_AT_type(*$C$DW$T$152)
    7601                      .dwattr $C$DW$T$154, DW_AT_address_class(0x16)
    7602              
    7603              $C$DW$T$165     .dwtag  DW_TAG_array_type
    7604                      .dwattr $C$DW$T$165, DW_AT_type(*$C$DW$T$152)
    7605                      .dwattr $C$DW$T$165, DW_AT_language(DW_LANG_C)
    7606                      .dwattr $C$DW$T$165, DW_AT_byte_size(0x02)
    7607              $C$DW$1065      .dwtag  DW_TAG_subrange_type
    7608                      .dwattr $C$DW$1065, DW_AT_upper_bound(0x01)
    7609                      .dwendtag $C$DW$T$165
    7610              
    7611              $C$DW$T$34      .dwtag  DW_TAG_typedef, DW_AT_name("_Bool")
    7612                      .dwattr $C$DW$T$34, DW_AT_type(*$C$DW$T$6)
    7613                      .dwattr $C$DW$T$34, DW_AT_language(DW_LANG_C)
    7614              $C$DW$1066      .dwtag  DW_TAG_TI_far_type
    7615                      .dwattr $C$DW$1066, DW_AT_type(*$C$DW$T$34)
    7616              $C$DW$T$255     .dwtag  DW_TAG_const_type
    7617                      .dwattr $C$DW$T$255, DW_AT_type(*$C$DW$1066)
    7618              $C$DW$T$276     .dwtag  DW_TAG_pointer_type
    7619                      .dwattr $C$DW$T$276, DW_AT_type(*$C$DW$T$6)
    7620                      .dwattr $C$DW$T$276, DW_AT_address_class(0x16)
    7621              $C$DW$1067      .dwtag  DW_TAG_TI_far_type
    7622                      .dwattr $C$DW$1067, DW_AT_type(*$C$DW$T$6)
    7623              $C$DW$T$277     .dwtag  DW_TAG_const_type
    7624                      .dwattr $C$DW$T$277, DW_AT_type(*$C$DW$1067)
    7625              
    7626              $C$DW$T$278     .dwtag  DW_TAG_array_type
    7627                      .dwattr $C$DW$T$278, DW_AT_type(*$C$DW$T$277)
    7628                      .dwattr $C$DW$T$278, DW_AT_language(DW_LANG_C)
    7629                      .dwattr $C$DW$T$278, DW_AT_byte_size(0x100)
    7630              $C$DW$1068      .dwtag  DW_TAG_subrange_type
    7631                      .dwattr $C$DW$1068, DW_AT_upper_bound(0xff)
    7632                      .dwendtag $C$DW$T$278
    7633              
    7634              $C$DW$T$7       .dwtag  DW_TAG_base_type
    7635                      .dwattr $C$DW$T$7, DW_AT_encoding(DW_ATE_signed_char)
    7636                      .dwattr $C$DW$T$7, DW_AT_name("wchar_t")
    7637                      .dwattr $C$DW$T$7, DW_AT_byte_size(0x01)
    7638              $C$DW$T$8       .dwtag  DW_TAG_base_type
    7639                      .dwattr $C$DW$T$8, DW_AT_encoding(DW_ATE_signed)
    7640                      .dwattr $C$DW$T$8, DW_AT_name("short")
    7641                      .dwattr $C$DW$T$8, DW_AT_byte_size(0x01)
    7642              $C$DW$T$9       .dwtag  DW_TAG_base_type
    7643                      .dwattr $C$DW$T$9, DW_AT_encoding(DW_ATE_unsigned)
    7644                      .dwattr $C$DW$T$9, DW_AT_name("unsigned short")
    7645                      .dwattr $C$DW$T$9, DW_AT_byte_size(0x01)
    7646              $C$DW$T$23      .dwtag  DW_TAG_typedef, DW_AT_name("uint16_t")
    7647                      .dwattr $C$DW$T$23, DW_AT_type(*$C$DW$T$9)
TMS320C2000 Assembler PC v6.2.5 Fri Sep 29 09:29:33 2017

Tools Copyright (c) 1996-2014 Texas Instruments Incorporated
C:\Users\wmj\AppData\Local\Temp\1142410                              PAGE  141

    7648                      .dwattr $C$DW$T$23, DW_AT_language(DW_LANG_C)
    7649              $C$DW$T$155     .dwtag  DW_TAG_typedef, DW_AT_name("USHORT")
    7650                      .dwattr $C$DW$T$155, DW_AT_type(*$C$DW$T$23)
    7651                      .dwattr $C$DW$T$155, DW_AT_language(DW_LANG_C)
    7652              $C$DW$1069      .dwtag  DW_TAG_TI_far_type
    7653                      .dwattr $C$DW$1069, DW_AT_type(*$C$DW$T$23)
    7654              $C$DW$T$24      .dwtag  DW_TAG_volatile_type
    7655                      .dwattr $C$DW$T$24, DW_AT_type(*$C$DW$1069)
    7656              
    7657              $C$DW$T$25      .dwtag  DW_TAG_array_type
    7658                      .dwattr $C$DW$T$25, DW_AT_type(*$C$DW$T$24)
    7659                      .dwattr $C$DW$T$25, DW_AT_language(DW_LANG_C)
    7660                      .dwattr $C$DW$T$25, DW_AT_byte_size(0x10)
    7661              $C$DW$1070      .dwtag  DW_TAG_subrange_type
    7662                      .dwattr $C$DW$1070, DW_AT_upper_bound(0x0f)
    7663                      .dwendtag $C$DW$T$25
    7664              
    7665              
    7666              $C$DW$T$26      .dwtag  DW_TAG_array_type
    7667                      .dwattr $C$DW$T$26, DW_AT_type(*$C$DW$T$24)
    7668                      .dwattr $C$DW$T$26, DW_AT_language(DW_LANG_C)
    7669                      .dwattr $C$DW$T$26, DW_AT_byte_size(0x65f0)
    7670              $C$DW$1071      .dwtag  DW_TAG_subrange_type
    7671                      .dwattr $C$DW$1071, DW_AT_upper_bound(0x65ef)
    7672                      .dwendtag $C$DW$T$26
    7673              
    7674              
    7675              $C$DW$T$27      .dwtag  DW_TAG_array_type
    7676                      .dwattr $C$DW$T$27, DW_AT_type(*$C$DW$T$24)
    7677                      .dwattr $C$DW$T$27, DW_AT_language(DW_LANG_C)
    7678                      .dwattr $C$DW$T$27, DW_AT_byte_size(0x02)
    7679              $C$DW$1072      .dwtag  DW_TAG_subrange_type
    7680                      .dwattr $C$DW$1072, DW_AT_upper_bound(0x01)
    7681                      .dwendtag $C$DW$T$27
    7682              
    7683              
    7684              $C$DW$T$28      .dwtag  DW_TAG_array_type
    7685                      .dwattr $C$DW$T$28, DW_AT_type(*$C$DW$T$24)
    7686                      .dwattr $C$DW$T$28, DW_AT_language(DW_LANG_C)
    7687                      .dwattr $C$DW$T$28, DW_AT_byte_size(0x05)
    7688              $C$DW$1073      .dwtag  DW_TAG_subrange_type
    7689                      .dwattr $C$DW$1073, DW_AT_upper_bound(0x04)
    7690                      .dwendtag $C$DW$T$28
    7691              
    7692              
    7693              $C$DW$T$29      .dwtag  DW_TAG_array_type
    7694                      .dwattr $C$DW$T$29, DW_AT_type(*$C$DW$T$24)
    7695                      .dwattr $C$DW$T$29, DW_AT_language(DW_LANG_C)
    7696                      .dwattr $C$DW$T$29, DW_AT_byte_size(0x03)
    7697              $C$DW$1074      .dwtag  DW_TAG_subrange_type
    7698                      .dwattr $C$DW$1074, DW_AT_upper_bound(0x02)
    7699                      .dwendtag $C$DW$T$29
    7700              
    7701              
    7702              $C$DW$T$30      .dwtag  DW_TAG_array_type
TMS320C2000 Assembler PC v6.2.5 Fri Sep 29 09:29:33 2017

Tools Copyright (c) 1996-2014 Texas Instruments Incorporated
C:\Users\wmj\AppData\Local\Temp\1142410                              PAGE  142

    7703                      .dwattr $C$DW$T$30, DW_AT_type(*$C$DW$T$24)
    7704                      .dwattr $C$DW$T$30, DW_AT_language(DW_LANG_C)
    7705                      .dwattr $C$DW$T$30, DW_AT_byte_size(0x0d)
    7706              $C$DW$1075      .dwtag  DW_TAG_subrange_type
    7707                      .dwattr $C$DW$1075, DW_AT_upper_bound(0x0c)
    7708                      .dwendtag $C$DW$T$30
    7709              
    7710              
    7711              $C$DW$T$38      .dwtag  DW_TAG_array_type
    7712                      .dwattr $C$DW$T$38, DW_AT_type(*$C$DW$T$24)
    7713                      .dwattr $C$DW$T$38, DW_AT_language(DW_LANG_C)
    7714                      .dwattr $C$DW$T$38, DW_AT_byte_size(0x08)
    7715              $C$DW$1076      .dwtag  DW_TAG_subrange_type
    7716                      .dwattr $C$DW$1076, DW_AT_upper_bound(0x07)
    7717                      .dwendtag $C$DW$T$38
    7718              
    7719              
    7720              $C$DW$T$97      .dwtag  DW_TAG_array_type
    7721                      .dwattr $C$DW$T$97, DW_AT_type(*$C$DW$T$24)
    7722                      .dwattr $C$DW$T$97, DW_AT_language(DW_LANG_C)
    7723                      .dwattr $C$DW$T$97, DW_AT_byte_size(0x18)
    7724              $C$DW$1077      .dwtag  DW_TAG_subrange_type
    7725                      .dwattr $C$DW$1077, DW_AT_upper_bound(0x17)
    7726                      .dwendtag $C$DW$T$97
    7727              
    7728              
    7729              $C$DW$T$98      .dwtag  DW_TAG_array_type
    7730                      .dwattr $C$DW$T$98, DW_AT_type(*$C$DW$T$24)
    7731                      .dwattr $C$DW$T$98, DW_AT_language(DW_LANG_C)
    7732                      .dwattr $C$DW$T$98, DW_AT_byte_size(0x04)
    7733              $C$DW$1078      .dwtag  DW_TAG_subrange_type
    7734                      .dwattr $C$DW$1078, DW_AT_upper_bound(0x03)
    7735                      .dwendtag $C$DW$T$98
    7736              
    7737              
    7738              $C$DW$T$188     .dwtag  DW_TAG_array_type
    7739                      .dwattr $C$DW$T$188, DW_AT_type(*$C$DW$T$24)
    7740                      .dwattr $C$DW$T$188, DW_AT_language(DW_LANG_C)
    7741                      .dwattr $C$DW$T$188, DW_AT_byte_size(0x06)
    7742              $C$DW$1079      .dwtag  DW_TAG_subrange_type
    7743                      .dwattr $C$DW$1079, DW_AT_upper_bound(0x05)
    7744                      .dwendtag $C$DW$T$188
    7745              
    7746              
    7747              $C$DW$T$193     .dwtag  DW_TAG_array_type
    7748                      .dwattr $C$DW$T$193, DW_AT_type(*$C$DW$T$24)
    7749                      .dwattr $C$DW$T$193, DW_AT_language(DW_LANG_C)
    7750                      .dwattr $C$DW$T$193, DW_AT_byte_size(0x6270)
    7751              $C$DW$1080      .dwtag  DW_TAG_subrange_type
    7752                      .dwattr $C$DW$1080, DW_AT_upper_bound(0x626f)
    7753                      .dwendtag $C$DW$T$193
    7754              
    7755              
    7756              $C$DW$T$210     .dwtag  DW_TAG_array_type
    7757                      .dwattr $C$DW$T$210, DW_AT_type(*$C$DW$T$24)
TMS320C2000 Assembler PC v6.2.5 Fri Sep 29 09:29:33 2017

Tools Copyright (c) 1996-2014 Texas Instruments Incorporated
C:\Users\wmj\AppData\Local\Temp\1142410                              PAGE  143

    7758                      .dwattr $C$DW$T$210, DW_AT_language(DW_LANG_C)
    7759                      .dwattr $C$DW$T$210, DW_AT_byte_size(0x6698)
    7760              $C$DW$1081      .dwtag  DW_TAG_subrange_type
    7761                      .dwattr $C$DW$1081, DW_AT_upper_bound(0x6697)
    7762                      .dwendtag $C$DW$T$210
    7763              
    7764              $C$DW$T$70      .dwtag  DW_TAG_typedef, DW_AT_name("uint_least16_t")
    7765                      .dwattr $C$DW$T$70, DW_AT_type(*$C$DW$T$23)
    7766                      .dwattr $C$DW$T$70, DW_AT_language(DW_LANG_C)
    7767              $C$DW$T$36      .dwtag  DW_TAG_typedef, DW_AT_name("uint_least8_t")
    7768                      .dwattr $C$DW$T$36, DW_AT_type(*$C$DW$T$23)
    7769                      .dwattr $C$DW$T$36, DW_AT_language(DW_LANG_C)
    7770              $C$DW$T$10      .dwtag  DW_TAG_base_type
    7771                      .dwattr $C$DW$T$10, DW_AT_encoding(DW_ATE_signed)
    7772                      .dwattr $C$DW$T$10, DW_AT_name("int")
    7773                      .dwattr $C$DW$T$10, DW_AT_byte_size(0x01)
    7774              $C$DW$T$11      .dwtag  DW_TAG_base_type
    7775                      .dwattr $C$DW$T$11, DW_AT_encoding(DW_ATE_unsigned)
    7776                      .dwattr $C$DW$T$11, DW_AT_name("unsigned int")
    7777                      .dwattr $C$DW$T$11, DW_AT_byte_size(0x01)
    7778              $C$DW$T$12      .dwtag  DW_TAG_base_type
    7779                      .dwattr $C$DW$T$12, DW_AT_encoding(DW_ATE_signed)
    7780                      .dwattr $C$DW$T$12, DW_AT_name("long")
    7781                      .dwattr $C$DW$T$12, DW_AT_byte_size(0x02)
    7782              $C$DW$T$32      .dwtag  DW_TAG_typedef, DW_AT_name("_iq")
    7783                      .dwattr $C$DW$T$32, DW_AT_type(*$C$DW$T$12)
    7784                      .dwattr $C$DW$T$32, DW_AT_language(DW_LANG_C)
    7785              
    7786              $C$DW$T$144     .dwtag  DW_TAG_array_type
    7787                      .dwattr $C$DW$T$144, DW_AT_type(*$C$DW$T$32)
    7788                      .dwattr $C$DW$T$144, DW_AT_language(DW_LANG_C)
    7789                      .dwattr $C$DW$T$144, DW_AT_byte_size(0x04)
    7790              $C$DW$1082      .dwtag  DW_TAG_subrange_type
    7791                      .dwattr $C$DW$1082, DW_AT_upper_bound(0x01)
    7792                      .dwendtag $C$DW$T$144
    7793              
    7794              
    7795              $C$DW$T$146     .dwtag  DW_TAG_array_type
    7796                      .dwattr $C$DW$T$146, DW_AT_type(*$C$DW$T$32)
    7797                      .dwattr $C$DW$T$146, DW_AT_language(DW_LANG_C)
    7798                      .dwattr $C$DW$T$146, DW_AT_byte_size(0x06)
    7799              $C$DW$1083      .dwtag  DW_TAG_subrange_type
    7800                      .dwattr $C$DW$1083, DW_AT_upper_bound(0x02)
    7801                      .dwendtag $C$DW$T$146
    7802              
    7803              $C$DW$T$13      .dwtag  DW_TAG_base_type
    7804                      .dwattr $C$DW$T$13, DW_AT_encoding(DW_ATE_unsigned)
    7805                      .dwattr $C$DW$T$13, DW_AT_name("unsigned long")
    7806                      .dwattr $C$DW$T$13, DW_AT_byte_size(0x02)
    7807              $C$DW$T$235     .dwtag  DW_TAG_typedef, DW_AT_name("size_t")
    7808                      .dwattr $C$DW$T$235, DW_AT_type(*$C$DW$T$13)
    7809                      .dwattr $C$DW$T$235, DW_AT_language(DW_LANG_C)
    7810              $C$DW$1084      .dwtag  DW_TAG_TI_far_type
    7811                      .dwattr $C$DW$1084, DW_AT_type(*$C$DW$T$235)
    7812              $C$DW$T$236     .dwtag  DW_TAG_const_type
TMS320C2000 Assembler PC v6.2.5 Fri Sep 29 09:29:33 2017

Tools Copyright (c) 1996-2014 Texas Instruments Incorporated
C:\Users\wmj\AppData\Local\Temp\1142410                              PAGE  144

    7813                      .dwattr $C$DW$T$236, DW_AT_type(*$C$DW$1084)
    7814              $C$DW$T$67      .dwtag  DW_TAG_typedef, DW_AT_name("uint32_t")
    7815                      .dwattr $C$DW$T$67, DW_AT_type(*$C$DW$T$13)
    7816                      .dwattr $C$DW$T$67, DW_AT_language(DW_LANG_C)
    7817              $C$DW$1085      .dwtag  DW_TAG_TI_far_type
    7818                      .dwattr $C$DW$1085, DW_AT_type(*$C$DW$T$67)
    7819              $C$DW$T$96      .dwtag  DW_TAG_volatile_type
    7820                      .dwattr $C$DW$T$96, DW_AT_type(*$C$DW$1085)
    7821              $C$DW$T$68      .dwtag  DW_TAG_typedef, DW_AT_name("uint_least32_t")
    7822                      .dwattr $C$DW$T$68, DW_AT_type(*$C$DW$T$67)
    7823                      .dwattr $C$DW$T$68, DW_AT_language(DW_LANG_C)
    7824              
    7825              $C$DW$T$69      .dwtag  DW_TAG_array_type
    7826                      .dwattr $C$DW$T$69, DW_AT_type(*$C$DW$T$68)
    7827                      .dwattr $C$DW$T$69, DW_AT_language(DW_LANG_C)
    7828                      .dwattr $C$DW$T$69, DW_AT_byte_size(0x08)
    7829              $C$DW$1086      .dwtag  DW_TAG_subrange_type
    7830                      .dwattr $C$DW$1086, DW_AT_upper_bound(0x03)
    7831                      .dwendtag $C$DW$T$69
    7832              
    7833              $C$DW$T$14      .dwtag  DW_TAG_base_type
    7834                      .dwattr $C$DW$T$14, DW_AT_encoding(DW_ATE_signed)
    7835                      .dwattr $C$DW$T$14, DW_AT_name("long long")
    7836                      .dwattr $C$DW$T$14, DW_AT_byte_size(0x04)
    7837              $C$DW$T$15      .dwtag  DW_TAG_base_type
    7838                      .dwattr $C$DW$T$15, DW_AT_encoding(DW_ATE_unsigned)
    7839                      .dwattr $C$DW$T$15, DW_AT_name("unsigned long long")
    7840                      .dwattr $C$DW$T$15, DW_AT_byte_size(0x04)
    7841              $C$DW$T$16      .dwtag  DW_TAG_base_type
    7842                      .dwattr $C$DW$T$16, DW_AT_encoding(DW_ATE_float)
    7843                      .dwattr $C$DW$T$16, DW_AT_name("float")
    7844                      .dwattr $C$DW$T$16, DW_AT_byte_size(0x02)
    7845              $C$DW$T$71      .dwtag  DW_TAG_typedef, DW_AT_name("float_t")
    7846                      .dwattr $C$DW$T$71, DW_AT_type(*$C$DW$T$16)
    7847                      .dwattr $C$DW$T$71, DW_AT_language(DW_LANG_C)
    7848              $C$DW$T$17      .dwtag  DW_TAG_base_type
    7849                      .dwattr $C$DW$T$17, DW_AT_encoding(DW_ATE_float)
    7850                      .dwattr $C$DW$T$17, DW_AT_name("double")
    7851                      .dwattr $C$DW$T$17, DW_AT_byte_size(0x02)
    7852              $C$DW$T$18      .dwtag  DW_TAG_base_type
    7853                      .dwattr $C$DW$T$18, DW_AT_encoding(DW_ATE_float)
    7854                      .dwattr $C$DW$T$18, DW_AT_name("long double")
    7855                      .dwattr $C$DW$T$18, DW_AT_byte_size(0x04)
    7856              $C$DW$T$271     .dwtag  DW_TAG_typedef, DW_AT_name("CHAR")
    7857                      .dwattr $C$DW$T$271, DW_AT_type(*$C$DW$T$5)
    7858                      .dwattr $C$DW$T$271, DW_AT_language(DW_LANG_C)
    7859              $C$DW$1087      .dwtag  DW_TAG_TI_far_type
    7860                      .dwattr $C$DW$1087, DW_AT_type(*$C$DW$T$271)
    7861              $C$DW$T$301     .dwtag  DW_TAG_const_type
    7862                      .dwattr $C$DW$T$301, DW_AT_type(*$C$DW$1087)
    7863              $C$DW$T$273     .dwtag  DW_TAG_pointer_type
    7864                      .dwattr $C$DW$T$273, DW_AT_type(*$C$DW$T$271)
    7865                      .dwattr $C$DW$T$273, DW_AT_address_class(0x16)
    7866              $C$DW$1088      .dwtag  DW_TAG_TI_far_type
    7867                      .dwattr $C$DW$1088, DW_AT_type(*$C$DW$T$273)
TMS320C2000 Assembler PC v6.2.5 Fri Sep 29 09:29:33 2017

Tools Copyright (c) 1996-2014 Texas Instruments Incorporated
C:\Users\wmj\AppData\Local\Temp\1142410                              PAGE  145

    7868              $C$DW$T$302     .dwtag  DW_TAG_const_type
    7869                      .dwattr $C$DW$T$302, DW_AT_type(*$C$DW$1088)
    7870                      .dwattr $C$DW$CU, DW_AT_language(DW_LANG_C)
    7871              
    7872              ;***************************************************************
    7873              ;* DWARF CIE ENTRIES                                           *
    7874              ;***************************************************************
    7875              
    7876              $C$DW$CIE       .dwcie 78
    7877                      .dwcfi  cfa_register, 20
    7878                      .dwcfi  cfa_offset, 0
    7879                      .dwcfi  undefined, 0
    7880                      .dwcfi  undefined, 1
    7881                      .dwcfi  undefined, 2
    7882                      .dwcfi  undefined, 3
    7883                      .dwcfi  undefined, 20
    7884                      .dwcfi  undefined, 21
    7885                      .dwcfi  undefined, 22
    7886                      .dwcfi  undefined, 23
    7887                      .dwcfi  undefined, 24
    7888                      .dwcfi  undefined, 25
    7889                      .dwcfi  undefined, 26
    7890                      .dwcfi  same_value, 28
    7891                      .dwcfi  undefined, 29
    7892                      .dwcfi  undefined, 30
    7893                      .dwcfi  undefined, 31
    7894                      .dwcfi  undefined, 32
    7895                      .dwcfi  undefined, 33
    7896                      .dwcfi  undefined, 34
    7897                      .dwcfi  undefined, 35
    7898                      .dwcfi  undefined, 36
    7899                      .dwcfi  undefined, 37
    7900                      .dwcfi  undefined, 38
    7901                      .dwcfi  undefined, 75
    7902                      .dwcfi  undefined, 76
    7903                      .dwcfi  undefined, 77
    7904                      .dwcfi  undefined, 4
    7905                      .dwcfi  same_value, 6
    7906                      .dwcfi  same_value, 8
    7907                      .dwcfi  same_value, 10
    7908                      .dwcfi  undefined, 12
    7909                      .dwcfi  undefined, 14
    7910                      .dwcfi  undefined, 16
    7911                      .dwcfi  undefined, 17
    7912                      .dwcfi  undefined, 18
    7913                      .dwcfi  undefined, 19
    7914                      .dwcfi  undefined, 5
    7915                      .dwcfi  same_value, 7
    7916                      .dwcfi  same_value, 9
    7917                      .dwcfi  same_value, 11
    7918                      .dwcfi  undefined, 13
    7919                      .dwcfi  undefined, 15
    7920                      .dwcfi  undefined, 78
    7921                      .dwendentry
    7922              
TMS320C2000 Assembler PC v6.2.5 Fri Sep 29 09:29:33 2017

Tools Copyright (c) 1996-2014 Texas Instruments Incorporated
C:\Users\wmj\AppData\Local\Temp\1142410                              PAGE  146

    7923              ;***************************************************************
    7924              ;* DWARF REGISTER MAP                                          *
    7925              ;***************************************************************
    7926              
    7927              $C$DW$1089      .dwtag  DW_TAG_TI_assign_register, DW_AT_name("AL")
    7928                      .dwattr $C$DW$1089, DW_AT_location[DW_OP_reg0]
    7929              $C$DW$1090      .dwtag  DW_TAG_TI_assign_register, DW_AT_name("AH")
    7930                      .dwattr $C$DW$1090, DW_AT_location[DW_OP_reg1]
    7931              $C$DW$1091      .dwtag  DW_TAG_TI_assign_register, DW_AT_name("PL")
    7932                      .dwattr $C$DW$1091, DW_AT_location[DW_OP_reg2]
    7933              $C$DW$1092      .dwtag  DW_TAG_TI_assign_register, DW_AT_name("PH")
    7934                      .dwattr $C$DW$1092, DW_AT_location[DW_OP_reg3]
    7935              $C$DW$1093      .dwtag  DW_TAG_TI_assign_register, DW_AT_name("SP")
    7936                      .dwattr $C$DW$1093, DW_AT_location[DW_OP_reg20]
    7937              $C$DW$1094      .dwtag  DW_TAG_TI_assign_register, DW_AT_name("XT")
    7938                      .dwattr $C$DW$1094, DW_AT_location[DW_OP_reg21]
    7939              $C$DW$1095      .dwtag  DW_TAG_TI_assign_register, DW_AT_name("T")
    7940                      .dwattr $C$DW$1095, DW_AT_location[DW_OP_reg22]
    7941              $C$DW$1096      .dwtag  DW_TAG_TI_assign_register, DW_AT_name("ST0")
    7942                      .dwattr $C$DW$1096, DW_AT_location[DW_OP_reg23]
    7943              $C$DW$1097      .dwtag  DW_TAG_TI_assign_register, DW_AT_name("ST1")
    7944                      .dwattr $C$DW$1097, DW_AT_location[DW_OP_reg24]
    7945              $C$DW$1098      .dwtag  DW_TAG_TI_assign_register, DW_AT_name("PC")
    7946                      .dwattr $C$DW$1098, DW_AT_location[DW_OP_reg25]
    7947              $C$DW$1099      .dwtag  DW_TAG_TI_assign_register, DW_AT_name("RPC")
    7948                      .dwattr $C$DW$1099, DW_AT_location[DW_OP_reg26]
    7949              $C$DW$1100      .dwtag  DW_TAG_TI_assign_register, DW_AT_name("FP")
    7950                      .dwattr $C$DW$1100, DW_AT_location[DW_OP_reg28]
    7951              $C$DW$1101      .dwtag  DW_TAG_TI_assign_register, DW_AT_name("DP")
    7952                      .dwattr $C$DW$1101, DW_AT_location[DW_OP_reg29]
    7953              $C$DW$1102      .dwtag  DW_TAG_TI_assign_register, DW_AT_name("SXM")
    7954                      .dwattr $C$DW$1102, DW_AT_location[DW_OP_reg30]
    7955              $C$DW$1103      .dwtag  DW_TAG_TI_assign_register, DW_AT_name("PM")
    7956                      .dwattr $C$DW$1103, DW_AT_location[DW_OP_reg31]
    7957              $C$DW$1104      .dwtag  DW_TAG_TI_assign_register, DW_AT_name("OVM")
    7958                      .dwattr $C$DW$1104, DW_AT_location[DW_OP_regx 0x20]
    7959              $C$DW$1105      .dwtag  DW_TAG_TI_assign_register, DW_AT_name("PAGE0")
    7960                      .dwattr $C$DW$1105, DW_AT_location[DW_OP_regx 0x21]
    7961              $C$DW$1106      .dwtag  DW_TAG_TI_assign_register, DW_AT_name("AMODE")
    7962                      .dwattr $C$DW$1106, DW_AT_location[DW_OP_regx 0x22]
    7963              $C$DW$1107      .dwtag  DW_TAG_TI_assign_register, DW_AT_name("INTM")
    7964                      .dwattr $C$DW$1107, DW_AT_location[DW_OP_regx 0x23]
    7965              $C$DW$1108      .dwtag  DW_TAG_TI_assign_register, DW_AT_name("IFR")
    7966                      .dwattr $C$DW$1108, DW_AT_location[DW_OP_regx 0x24]
    7967              $C$DW$1109      .dwtag  DW_TAG_TI_assign_register, DW_AT_name("IER")
    7968                      .dwattr $C$DW$1109, DW_AT_location[DW_OP_regx 0x25]
    7969              $C$DW$1110      .dwtag  DW_TAG_TI_assign_register, DW_AT_name("V")
    7970                      .dwattr $C$DW$1110, DW_AT_location[DW_OP_regx 0x26]
    7971              $C$DW$1111      .dwtag  DW_TAG_TI_assign_register, DW_AT_name("PSEUDOH")
    7972                      .dwattr $C$DW$1111, DW_AT_location[DW_OP_regx 0x4c]
    7973              $C$DW$1112      .dwtag  DW_TAG_TI_assign_register, DW_AT_name("VOL")
    7974                      .dwattr $C$DW$1112, DW_AT_location[DW_OP_regx 0x4d]
    7975              $C$DW$1113      .dwtag  DW_TAG_TI_assign_register, DW_AT_name("AR0")
    7976                      .dwattr $C$DW$1113, DW_AT_location[DW_OP_reg4]
    7977              $C$DW$1114      .dwtag  DW_TAG_TI_assign_register, DW_AT_name("AR1")
TMS320C2000 Assembler PC v6.2.5 Fri Sep 29 09:29:33 2017

Tools Copyright (c) 1996-2014 Texas Instruments Incorporated
C:\Users\wmj\AppData\Local\Temp\1142410                              PAGE  147

    7978                      .dwattr $C$DW$1114, DW_AT_location[DW_OP_reg6]
    7979              $C$DW$1115      .dwtag  DW_TAG_TI_assign_register, DW_AT_name("AR2")
    7980                      .dwattr $C$DW$1115, DW_AT_location[DW_OP_reg8]
    7981              $C$DW$1116      .dwtag  DW_TAG_TI_assign_register, DW_AT_name("AR3")
    7982                      .dwattr $C$DW$1116, DW_AT_location[DW_OP_reg10]
    7983              $C$DW$1117      .dwtag  DW_TAG_TI_assign_register, DW_AT_name("AR4")
    7984                      .dwattr $C$DW$1117, DW_AT_location[DW_OP_reg12]
    7985              $C$DW$1118      .dwtag  DW_TAG_TI_assign_register, DW_AT_name("AR5")
    7986                      .dwattr $C$DW$1118, DW_AT_location[DW_OP_reg14]
    7987              $C$DW$1119      .dwtag  DW_TAG_TI_assign_register, DW_AT_name("AR6")
    7988                      .dwattr $C$DW$1119, DW_AT_location[DW_OP_reg16]
    7989              $C$DW$1120      .dwtag  DW_TAG_TI_assign_register, DW_AT_name("XAR6")
    7990                      .dwattr $C$DW$1120, DW_AT_location[DW_OP_reg17]
    7991              $C$DW$1121      .dwtag  DW_TAG_TI_assign_register, DW_AT_name("AR7")
    7992                      .dwattr $C$DW$1121, DW_AT_location[DW_OP_reg18]
    7993              $C$DW$1122      .dwtag  DW_TAG_TI_assign_register, DW_AT_name("XAR7")
    7994                      .dwattr $C$DW$1122, DW_AT_location[DW_OP_reg19]
    7995              $C$DW$1123      .dwtag  DW_TAG_TI_assign_register, DW_AT_name("XAR0")
    7996                      .dwattr $C$DW$1123, DW_AT_location[DW_OP_reg5]
    7997              $C$DW$1124      .dwtag  DW_TAG_TI_assign_register, DW_AT_name("XAR1")
    7998                      .dwattr $C$DW$1124, DW_AT_location[DW_OP_reg7]
    7999              $C$DW$1125      .dwtag  DW_TAG_TI_assign_register, DW_AT_name("XAR2")
    8000                      .dwattr $C$DW$1125, DW_AT_location[DW_OP_reg9]
    8001              $C$DW$1126      .dwtag  DW_TAG_TI_assign_register, DW_AT_name("XAR3")
    8002                      .dwattr $C$DW$1126, DW_AT_location[DW_OP_reg11]
    8003              $C$DW$1127      .dwtag  DW_TAG_TI_assign_register, DW_AT_name("XAR4")
    8004                      .dwattr $C$DW$1127, DW_AT_location[DW_OP_reg13]
    8005              $C$DW$1128      .dwtag  DW_TAG_TI_assign_register, DW_AT_name("XAR5")
    8006                      .dwattr $C$DW$1128, DW_AT_location[DW_OP_reg15]
    8007              $C$DW$1129      .dwtag  DW_TAG_TI_assign_register, DW_AT_name("CIE_RETA")
    8008                      .dwattr $C$DW$1129, DW_AT_location[DW_OP_regx 0x4e]
    8009                      .dwendtag $C$DW$CU
    8010              

No Assembly Errors, No Assembly Warnings
