TMS320C2000 Assembler PC v6.2.5 Fri Sep 15 11:07:51 2017

Tools Copyright (c) 1996-2014 Texas Instruments Incorporated
C:\Users\wmj\AppData\Local\Temp\0762011                              PAGE    1

       1              ;***************************************************************
       2              ;* TMS320C2000 C/C++ Codegen                         PC v6.2.5 *
       3              ;* Date/Time created: Fri Sep 15 11:07:50 2017                 *
       4              ;***************************************************************
       5                      .compiler_opts --float_support=softlib --hll_source=on --mem_model:code=flat --mem_model:data=large -
       6        0002  FP      .set    XAR2
       7              
       8              $C$DW$CU        .dwtag  DW_TAG_compile_unit
       9                      .dwattr $C$DW$CU, DW_AT_name("D:/BM1000/sw/drivers/drvic/modbus/mb.c")
      10                      .dwattr $C$DW$CU, DW_AT_producer("TMS320C2000 C/C++ Codegen PC v6.2.5 Copyright (c) 1996-2014 Texas I
      11                      .dwattr $C$DW$CU, DW_AT_TI_version(0x01)
      12                      .dwattr $C$DW$CU, DW_AT_comp_dir("D:\BM1000\sw\solutions\instaspin_foc\boards\hvkit_rev1p1\f28x\f2802
      13              
      14              $C$DW$1 .dwtag  DW_TAG_subprogram, DW_AT_name("SCI_putDataBlocking")
      15                      .dwattr $C$DW$1, DW_AT_TI_symbol_name("_SCI_putDataBlocking")
      16                      .dwattr $C$DW$1, DW_AT_declaration
      17                      .dwattr $C$DW$1, DW_AT_external
      18              $C$DW$2 .dwtag  DW_TAG_formal_parameter
      19                      .dwattr $C$DW$2, DW_AT_type(*$C$DW$T$35)
      20              $C$DW$3 .dwtag  DW_TAG_formal_parameter
      21                      .dwattr $C$DW$3, DW_AT_type(*$C$DW$T$21)
      22                      .dwendtag $C$DW$1
      23              
      24              
      25              $C$DW$4 .dwtag  DW_TAG_subprogram, DW_AT_name("TIMER_clearFlag")
      26                      .dwattr $C$DW$4, DW_AT_TI_symbol_name("_TIMER_clearFlag")
      27                      .dwattr $C$DW$4, DW_AT_declaration
      28                      .dwattr $C$DW$4, DW_AT_external
      29              $C$DW$5 .dwtag  DW_TAG_formal_parameter
      30                      .dwattr $C$DW$5, DW_AT_type(*$C$DW$T$33)
      31                      .dwendtag $C$DW$4
      32              
      33              
      34              $C$DW$6 .dwtag  DW_TAG_subprogram, DW_AT_name("SCI_enableTx")
      35                      .dwattr $C$DW$6, DW_AT_TI_symbol_name("_SCI_enableTx")
      36                      .dwattr $C$DW$6, DW_AT_declaration
      37                      .dwattr $C$DW$6, DW_AT_external
      38              $C$DW$7 .dwtag  DW_TAG_formal_parameter
      39                      .dwattr $C$DW$7, DW_AT_type(*$C$DW$T$35)
      40                      .dwendtag $C$DW$6
      41              
      42              
      43              $C$DW$8 .dwtag  DW_TAG_subprogram, DW_AT_name("SCI_disableTx")
      44                      .dwattr $C$DW$8, DW_AT_TI_symbol_name("_SCI_disableTx")
      45                      .dwattr $C$DW$8, DW_AT_declaration
      46                      .dwattr $C$DW$8, DW_AT_external
      47              $C$DW$9 .dwtag  DW_TAG_formal_parameter
      48                      .dwattr $C$DW$9, DW_AT_type(*$C$DW$T$35)
      49                      .dwendtag $C$DW$8
      50              
      51              
      52              $C$DW$10        .dwtag  DW_TAG_subprogram, DW_AT_name("SCI_enableRx")
      53                      .dwattr $C$DW$10, DW_AT_TI_symbol_name("_SCI_enableRx")
      54                      .dwattr $C$DW$10, DW_AT_declaration
      55                      .dwattr $C$DW$10, DW_AT_external
TMS320C2000 Assembler PC v6.2.5 Fri Sep 15 11:07:51 2017

Tools Copyright (c) 1996-2014 Texas Instruments Incorporated
C:\Users\wmj\AppData\Local\Temp\0762011                              PAGE    2

      56              $C$DW$11        .dwtag  DW_TAG_formal_parameter
      57                      .dwattr $C$DW$11, DW_AT_type(*$C$DW$T$35)
      58                      .dwendtag $C$DW$10
      59              
      60              
      61              $C$DW$12        .dwtag  DW_TAG_subprogram, DW_AT_name("SCI_disableRx")
      62                      .dwattr $C$DW$12, DW_AT_TI_symbol_name("_SCI_disableRx")
      63                      .dwattr $C$DW$12, DW_AT_declaration
      64                      .dwattr $C$DW$12, DW_AT_external
      65              $C$DW$13        .dwtag  DW_TAG_formal_parameter
      66                      .dwattr $C$DW$13, DW_AT_type(*$C$DW$T$35)
      67                      .dwendtag $C$DW$12
      68              
      69 00000000       _ucFunctionCode$2:      .usect  ".ebss",1,1,0
      70 00000001       _eException$4:  .usect  ".ebss",1,1,0
      71              
      72              $C$DW$14        .dwtag  DW_TAG_subprogram, DW_AT_name("SCI_getDataBlocking")
      73                      .dwattr $C$DW$14, DW_AT_TI_symbol_name("_SCI_getDataBlocking")
      74                      .dwattr $C$DW$14, DW_AT_type(*$C$DW$T$21)
      75                      .dwattr $C$DW$14, DW_AT_declaration
      76                      .dwattr $C$DW$14, DW_AT_external
      77              $C$DW$15        .dwtag  DW_TAG_formal_parameter
      78                      .dwattr $C$DW$15, DW_AT_type(*$C$DW$T$35)
      79                      .dwendtag $C$DW$14
      80              
      81 00000002       _ucMBFrame$1:   .usect  ".ebss",2,1,1
      82                      .global _aucCRCHi
      83 00000000               .sect   ".econst:.string:_aucCRCHi"
      84                      .clink
      85                      .align  1
      86 00000000       _aucCRCHi:
      87 00000000 0000          .bits   0,16                    ; _aucCRCHi[0] @ 0
      88 00000001 00C1          .bits   193,16                  ; _aucCRCHi[1] @ 16
      89 00000002 0081          .bits   129,16                  ; _aucCRCHi[2] @ 32
      90 00000003 0040          .bits   64,16                   ; _aucCRCHi[3] @ 48
      91 00000004 0001          .bits   1,16                    ; _aucCRCHi[4] @ 64
      92 00000005 00C0          .bits   192,16                  ; _aucCRCHi[5] @ 80
      93 00000006 0080          .bits   128,16                  ; _aucCRCHi[6] @ 96
      94 00000007 0041          .bits   65,16                   ; _aucCRCHi[7] @ 112
      95 00000008 0001          .bits   1,16                    ; _aucCRCHi[8] @ 128
      96 00000009 00C0          .bits   192,16                  ; _aucCRCHi[9] @ 144
      97 0000000a 0080          .bits   128,16                  ; _aucCRCHi[10] @ 160
      98 0000000b 0041          .bits   65,16                   ; _aucCRCHi[11] @ 176
      99 0000000c 0000          .bits   0,16                    ; _aucCRCHi[12] @ 192
     100 0000000d 00C1          .bits   193,16                  ; _aucCRCHi[13] @ 208
     101 0000000e 0081          .bits   129,16                  ; _aucCRCHi[14] @ 224
     102 0000000f 0040          .bits   64,16                   ; _aucCRCHi[15] @ 240
     103 00000010 0001          .bits   1,16                    ; _aucCRCHi[16] @ 256
     104 00000011 00C0          .bits   192,16                  ; _aucCRCHi[17] @ 272
     105 00000012 0080          .bits   128,16                  ; _aucCRCHi[18] @ 288
     106 00000013 0041          .bits   65,16                   ; _aucCRCHi[19] @ 304
     107 00000014 0000          .bits   0,16                    ; _aucCRCHi[20] @ 320
     108 00000015 00C1          .bits   193,16                  ; _aucCRCHi[21] @ 336
     109 00000016 0081          .bits   129,16                  ; _aucCRCHi[22] @ 352
     110 00000017 0040          .bits   64,16                   ; _aucCRCHi[23] @ 368
TMS320C2000 Assembler PC v6.2.5 Fri Sep 15 11:07:51 2017

Tools Copyright (c) 1996-2014 Texas Instruments Incorporated
C:\Users\wmj\AppData\Local\Temp\0762011                              PAGE    3

     111 00000018 0000          .bits   0,16                    ; _aucCRCHi[24] @ 384
     112 00000019 00C1          .bits   193,16                  ; _aucCRCHi[25] @ 400
     113 0000001a 0081          .bits   129,16                  ; _aucCRCHi[26] @ 416
     114 0000001b 0040          .bits   64,16                   ; _aucCRCHi[27] @ 432
     115 0000001c 0001          .bits   1,16                    ; _aucCRCHi[28] @ 448
     116 0000001d 00C0          .bits   192,16                  ; _aucCRCHi[29] @ 464
     117 0000001e 0080          .bits   128,16                  ; _aucCRCHi[30] @ 480
     118 0000001f 0041          .bits   65,16                   ; _aucCRCHi[31] @ 496
     119 00000020 0001          .bits   1,16                    ; _aucCRCHi[32] @ 512
     120 00000021 00C0          .bits   192,16                  ; _aucCRCHi[33] @ 528
     121 00000022 0080          .bits   128,16                  ; _aucCRCHi[34] @ 544
     122 00000023 0041          .bits   65,16                   ; _aucCRCHi[35] @ 560
     123 00000024 0000          .bits   0,16                    ; _aucCRCHi[36] @ 576
     124 00000025 00C1          .bits   193,16                  ; _aucCRCHi[37] @ 592
     125 00000026 0081          .bits   129,16                  ; _aucCRCHi[38] @ 608
     126 00000027 0040          .bits   64,16                   ; _aucCRCHi[39] @ 624
     127 00000028 0000          .bits   0,16                    ; _aucCRCHi[40] @ 640
     128 00000029 00C1          .bits   193,16                  ; _aucCRCHi[41] @ 656
     129 0000002a 0081          .bits   129,16                  ; _aucCRCHi[42] @ 672
     130 0000002b 0040          .bits   64,16                   ; _aucCRCHi[43] @ 688
     131 0000002c 0001          .bits   1,16                    ; _aucCRCHi[44] @ 704
     132 0000002d 00C0          .bits   192,16                  ; _aucCRCHi[45] @ 720
     133 0000002e 0080          .bits   128,16                  ; _aucCRCHi[46] @ 736
     134 0000002f 0041          .bits   65,16                   ; _aucCRCHi[47] @ 752
     135 00000030 0000          .bits   0,16                    ; _aucCRCHi[48] @ 768
     136 00000031 00C1          .bits   193,16                  ; _aucCRCHi[49] @ 784
     137 00000032 0081          .bits   129,16                  ; _aucCRCHi[50] @ 800
     138 00000033 0040          .bits   64,16                   ; _aucCRCHi[51] @ 816
     139 00000034 0001          .bits   1,16                    ; _aucCRCHi[52] @ 832
     140 00000035 00C0          .bits   192,16                  ; _aucCRCHi[53] @ 848
     141 00000036 0080          .bits   128,16                  ; _aucCRCHi[54] @ 864
     142 00000037 0041          .bits   65,16                   ; _aucCRCHi[55] @ 880
     143 00000038 0001          .bits   1,16                    ; _aucCRCHi[56] @ 896
     144 00000039 00C0          .bits   192,16                  ; _aucCRCHi[57] @ 912
     145 0000003a 0080          .bits   128,16                  ; _aucCRCHi[58] @ 928
     146 0000003b 0041          .bits   65,16                   ; _aucCRCHi[59] @ 944
     147 0000003c 0000          .bits   0,16                    ; _aucCRCHi[60] @ 960
     148 0000003d 00C1          .bits   193,16                  ; _aucCRCHi[61] @ 976
     149 0000003e 0081          .bits   129,16                  ; _aucCRCHi[62] @ 992
     150 0000003f 0040          .bits   64,16                   ; _aucCRCHi[63] @ 1008
     151 00000040 0001          .bits   1,16                    ; _aucCRCHi[64] @ 1024
     152 00000041 00C0          .bits   192,16                  ; _aucCRCHi[65] @ 1040
     153 00000042 0080          .bits   128,16                  ; _aucCRCHi[66] @ 1056
     154 00000043 0041          .bits   65,16                   ; _aucCRCHi[67] @ 1072
     155 00000044 0000          .bits   0,16                    ; _aucCRCHi[68] @ 1088
     156 00000045 00C1          .bits   193,16                  ; _aucCRCHi[69] @ 1104
     157 00000046 0081          .bits   129,16                  ; _aucCRCHi[70] @ 1120
     158 00000047 0040          .bits   64,16                   ; _aucCRCHi[71] @ 1136
     159 00000048 0000          .bits   0,16                    ; _aucCRCHi[72] @ 1152
     160 00000049 00C1          .bits   193,16                  ; _aucCRCHi[73] @ 1168
     161 0000004a 0081          .bits   129,16                  ; _aucCRCHi[74] @ 1184
     162 0000004b 0040          .bits   64,16                   ; _aucCRCHi[75] @ 1200
     163 0000004c 0001          .bits   1,16                    ; _aucCRCHi[76] @ 1216
     164 0000004d 00C0          .bits   192,16                  ; _aucCRCHi[77] @ 1232
     165 0000004e 0080          .bits   128,16                  ; _aucCRCHi[78] @ 1248
TMS320C2000 Assembler PC v6.2.5 Fri Sep 15 11:07:51 2017

Tools Copyright (c) 1996-2014 Texas Instruments Incorporated
C:\Users\wmj\AppData\Local\Temp\0762011                              PAGE    4

     166 0000004f 0041          .bits   65,16                   ; _aucCRCHi[79] @ 1264
     167 00000050 0000          .bits   0,16                    ; _aucCRCHi[80] @ 1280
     168 00000051 00C1          .bits   193,16                  ; _aucCRCHi[81] @ 1296
     169 00000052 0081          .bits   129,16                  ; _aucCRCHi[82] @ 1312
     170 00000053 0040          .bits   64,16                   ; _aucCRCHi[83] @ 1328
     171 00000054 0001          .bits   1,16                    ; _aucCRCHi[84] @ 1344
     172 00000055 00C0          .bits   192,16                  ; _aucCRCHi[85] @ 1360
     173 00000056 0080          .bits   128,16                  ; _aucCRCHi[86] @ 1376
     174 00000057 0041          .bits   65,16                   ; _aucCRCHi[87] @ 1392
     175 00000058 0001          .bits   1,16                    ; _aucCRCHi[88] @ 1408
     176 00000059 00C0          .bits   192,16                  ; _aucCRCHi[89] @ 1424
     177 0000005a 0080          .bits   128,16                  ; _aucCRCHi[90] @ 1440
     178 0000005b 0041          .bits   65,16                   ; _aucCRCHi[91] @ 1456
     179 0000005c 0000          .bits   0,16                    ; _aucCRCHi[92] @ 1472
     180 0000005d 00C1          .bits   193,16                  ; _aucCRCHi[93] @ 1488
     181 0000005e 0081          .bits   129,16                  ; _aucCRCHi[94] @ 1504
     182 0000005f 0040          .bits   64,16                   ; _aucCRCHi[95] @ 1520
     183 00000060 0000          .bits   0,16                    ; _aucCRCHi[96] @ 1536
     184 00000061 00C1          .bits   193,16                  ; _aucCRCHi[97] @ 1552
     185 00000062 0081          .bits   129,16                  ; _aucCRCHi[98] @ 1568
     186 00000063 0040          .bits   64,16                   ; _aucCRCHi[99] @ 1584
     187 00000064 0001          .bits   1,16                    ; _aucCRCHi[100] @ 1600
     188 00000065 00C0          .bits   192,16                  ; _aucCRCHi[101] @ 1616
     189 00000066 0080          .bits   128,16                  ; _aucCRCHi[102] @ 1632
     190 00000067 0041          .bits   65,16                   ; _aucCRCHi[103] @ 1648
     191 00000068 0001          .bits   1,16                    ; _aucCRCHi[104] @ 1664
     192 00000069 00C0          .bits   192,16                  ; _aucCRCHi[105] @ 1680
     193 0000006a 0080          .bits   128,16                  ; _aucCRCHi[106] @ 1696
     194 0000006b 0041          .bits   65,16                   ; _aucCRCHi[107] @ 1712
     195 0000006c 0000          .bits   0,16                    ; _aucCRCHi[108] @ 1728
     196 0000006d 00C1          .bits   193,16                  ; _aucCRCHi[109] @ 1744
     197 0000006e 0081          .bits   129,16                  ; _aucCRCHi[110] @ 1760
     198 0000006f 0040          .bits   64,16                   ; _aucCRCHi[111] @ 1776
     199 00000070 0001          .bits   1,16                    ; _aucCRCHi[112] @ 1792
     200 00000071 00C0          .bits   192,16                  ; _aucCRCHi[113] @ 1808
     201 00000072 0080          .bits   128,16                  ; _aucCRCHi[114] @ 1824
     202 00000073 0041          .bits   65,16                   ; _aucCRCHi[115] @ 1840
     203 00000074 0000          .bits   0,16                    ; _aucCRCHi[116] @ 1856
     204 00000075 00C1          .bits   193,16                  ; _aucCRCHi[117] @ 1872
     205 00000076 0081          .bits   129,16                  ; _aucCRCHi[118] @ 1888
     206 00000077 0040          .bits   64,16                   ; _aucCRCHi[119] @ 1904
     207 00000078 0000          .bits   0,16                    ; _aucCRCHi[120] @ 1920
     208 00000079 00C1          .bits   193,16                  ; _aucCRCHi[121] @ 1936
     209 0000007a 0081          .bits   129,16                  ; _aucCRCHi[122] @ 1952
     210 0000007b 0040          .bits   64,16                   ; _aucCRCHi[123] @ 1968
     211 0000007c 0001          .bits   1,16                    ; _aucCRCHi[124] @ 1984
     212 0000007d 00C0          .bits   192,16                  ; _aucCRCHi[125] @ 2000
     213 0000007e 0080          .bits   128,16                  ; _aucCRCHi[126] @ 2016
     214 0000007f 0041          .bits   65,16                   ; _aucCRCHi[127] @ 2032
     215 00000080 0001          .bits   1,16                    ; _aucCRCHi[128] @ 2048
     216 00000081 00C0          .bits   192,16                  ; _aucCRCHi[129] @ 2064
     217 00000082 0080          .bits   128,16                  ; _aucCRCHi[130] @ 2080
     218 00000083 0041          .bits   65,16                   ; _aucCRCHi[131] @ 2096
     219 00000084 0000          .bits   0,16                    ; _aucCRCHi[132] @ 2112
     220 00000085 00C1          .bits   193,16                  ; _aucCRCHi[133] @ 2128
TMS320C2000 Assembler PC v6.2.5 Fri Sep 15 11:07:51 2017

Tools Copyright (c) 1996-2014 Texas Instruments Incorporated
C:\Users\wmj\AppData\Local\Temp\0762011                              PAGE    5

     221 00000086 0081          .bits   129,16                  ; _aucCRCHi[134] @ 2144
     222 00000087 0040          .bits   64,16                   ; _aucCRCHi[135] @ 2160
     223 00000088 0000          .bits   0,16                    ; _aucCRCHi[136] @ 2176
     224 00000089 00C1          .bits   193,16                  ; _aucCRCHi[137] @ 2192
     225 0000008a 0081          .bits   129,16                  ; _aucCRCHi[138] @ 2208
     226 0000008b 0040          .bits   64,16                   ; _aucCRCHi[139] @ 2224
     227 0000008c 0001          .bits   1,16                    ; _aucCRCHi[140] @ 2240
     228 0000008d 00C0          .bits   192,16                  ; _aucCRCHi[141] @ 2256
     229 0000008e 0080          .bits   128,16                  ; _aucCRCHi[142] @ 2272
     230 0000008f 0041          .bits   65,16                   ; _aucCRCHi[143] @ 2288
     231 00000090 0000          .bits   0,16                    ; _aucCRCHi[144] @ 2304
     232 00000091 00C1          .bits   193,16                  ; _aucCRCHi[145] @ 2320
     233 00000092 0081          .bits   129,16                  ; _aucCRCHi[146] @ 2336
     234 00000093 0040          .bits   64,16                   ; _aucCRCHi[147] @ 2352
     235 00000094 0001          .bits   1,16                    ; _aucCRCHi[148] @ 2368
     236 00000095 00C0          .bits   192,16                  ; _aucCRCHi[149] @ 2384
     237 00000096 0080          .bits   128,16                  ; _aucCRCHi[150] @ 2400
     238 00000097 0041          .bits   65,16                   ; _aucCRCHi[151] @ 2416
     239 00000098 0001          .bits   1,16                    ; _aucCRCHi[152] @ 2432
     240 00000099 00C0          .bits   192,16                  ; _aucCRCHi[153] @ 2448
     241 0000009a 0080          .bits   128,16                  ; _aucCRCHi[154] @ 2464
     242 0000009b 0041          .bits   65,16                   ; _aucCRCHi[155] @ 2480
     243 0000009c 0000          .bits   0,16                    ; _aucCRCHi[156] @ 2496
     244 0000009d 00C1          .bits   193,16                  ; _aucCRCHi[157] @ 2512
     245 0000009e 0081          .bits   129,16                  ; _aucCRCHi[158] @ 2528
     246 0000009f 0040          .bits   64,16                   ; _aucCRCHi[159] @ 2544
     247 000000a0 0000          .bits   0,16                    ; _aucCRCHi[160] @ 2560
     248 000000a1 00C1          .bits   193,16                  ; _aucCRCHi[161] @ 2576
     249 000000a2 0081          .bits   129,16                  ; _aucCRCHi[162] @ 2592
     250 000000a3 0040          .bits   64,16                   ; _aucCRCHi[163] @ 2608
     251 000000a4 0001          .bits   1,16                    ; _aucCRCHi[164] @ 2624
     252 000000a5 00C0          .bits   192,16                  ; _aucCRCHi[165] @ 2640
     253 000000a6 0080          .bits   128,16                  ; _aucCRCHi[166] @ 2656
     254 000000a7 0041          .bits   65,16                   ; _aucCRCHi[167] @ 2672
     255 000000a8 0001          .bits   1,16                    ; _aucCRCHi[168] @ 2688
     256 000000a9 00C0          .bits   192,16                  ; _aucCRCHi[169] @ 2704
     257 000000aa 0080          .bits   128,16                  ; _aucCRCHi[170] @ 2720
     258 000000ab 0041          .bits   65,16                   ; _aucCRCHi[171] @ 2736
     259 000000ac 0000          .bits   0,16                    ; _aucCRCHi[172] @ 2752
     260 000000ad 00C1          .bits   193,16                  ; _aucCRCHi[173] @ 2768
     261 000000ae 0081          .bits   129,16                  ; _aucCRCHi[174] @ 2784
     262 000000af 0040          .bits   64,16                   ; _aucCRCHi[175] @ 2800
     263 000000b0 0001          .bits   1,16                    ; _aucCRCHi[176] @ 2816
     264 000000b1 00C0          .bits   192,16                  ; _aucCRCHi[177] @ 2832
     265 000000b2 0080          .bits   128,16                  ; _aucCRCHi[178] @ 2848
     266 000000b3 0041          .bits   65,16                   ; _aucCRCHi[179] @ 2864
     267 000000b4 0000          .bits   0,16                    ; _aucCRCHi[180] @ 2880
     268 000000b5 00C1          .bits   193,16                  ; _aucCRCHi[181] @ 2896
     269 000000b6 0081          .bits   129,16                  ; _aucCRCHi[182] @ 2912
     270 000000b7 0040          .bits   64,16                   ; _aucCRCHi[183] @ 2928
     271 000000b8 0000          .bits   0,16                    ; _aucCRCHi[184] @ 2944
     272 000000b9 00C1          .bits   193,16                  ; _aucCRCHi[185] @ 2960
     273 000000ba 0081          .bits   129,16                  ; _aucCRCHi[186] @ 2976
     274 000000bb 0040          .bits   64,16                   ; _aucCRCHi[187] @ 2992
     275 000000bc 0001          .bits   1,16                    ; _aucCRCHi[188] @ 3008
TMS320C2000 Assembler PC v6.2.5 Fri Sep 15 11:07:51 2017

Tools Copyright (c) 1996-2014 Texas Instruments Incorporated
C:\Users\wmj\AppData\Local\Temp\0762011                              PAGE    6

     276 000000bd 00C0          .bits   192,16                  ; _aucCRCHi[189] @ 3024
     277 000000be 0080          .bits   128,16                  ; _aucCRCHi[190] @ 3040
     278 000000bf 0041          .bits   65,16                   ; _aucCRCHi[191] @ 3056
     279 000000c0 0000          .bits   0,16                    ; _aucCRCHi[192] @ 3072
     280 000000c1 00C1          .bits   193,16                  ; _aucCRCHi[193] @ 3088
     281 000000c2 0081          .bits   129,16                  ; _aucCRCHi[194] @ 3104
     282 000000c3 0040          .bits   64,16                   ; _aucCRCHi[195] @ 3120
     283 000000c4 0001          .bits   1,16                    ; _aucCRCHi[196] @ 3136
     284 000000c5 00C0          .bits   192,16                  ; _aucCRCHi[197] @ 3152
     285 000000c6 0080          .bits   128,16                  ; _aucCRCHi[198] @ 3168
     286 000000c7 0041          .bits   65,16                   ; _aucCRCHi[199] @ 3184
     287 000000c8 0001          .bits   1,16                    ; _aucCRCHi[200] @ 3200
     288 000000c9 00C0          .bits   192,16                  ; _aucCRCHi[201] @ 3216
     289 000000ca 0080          .bits   128,16                  ; _aucCRCHi[202] @ 3232
     290 000000cb 0041          .bits   65,16                   ; _aucCRCHi[203] @ 3248
     291 000000cc 0000          .bits   0,16                    ; _aucCRCHi[204] @ 3264
     292 000000cd 00C1          .bits   193,16                  ; _aucCRCHi[205] @ 3280
     293 000000ce 0081          .bits   129,16                  ; _aucCRCHi[206] @ 3296
     294 000000cf 0040          .bits   64,16                   ; _aucCRCHi[207] @ 3312
     295 000000d0 0001          .bits   1,16                    ; _aucCRCHi[208] @ 3328
     296 000000d1 00C0          .bits   192,16                  ; _aucCRCHi[209] @ 3344
     297 000000d2 0080          .bits   128,16                  ; _aucCRCHi[210] @ 3360
     298 000000d3 0041          .bits   65,16                   ; _aucCRCHi[211] @ 3376
     299 000000d4 0000          .bits   0,16                    ; _aucCRCHi[212] @ 3392
     300 000000d5 00C1          .bits   193,16                  ; _aucCRCHi[213] @ 3408
     301 000000d6 0081          .bits   129,16                  ; _aucCRCHi[214] @ 3424
     302 000000d7 0040          .bits   64,16                   ; _aucCRCHi[215] @ 3440
     303 000000d8 0000          .bits   0,16                    ; _aucCRCHi[216] @ 3456
     304 000000d9 00C1          .bits   193,16                  ; _aucCRCHi[217] @ 3472
     305 000000da 0081          .bits   129,16                  ; _aucCRCHi[218] @ 3488
     306 000000db 0040          .bits   64,16                   ; _aucCRCHi[219] @ 3504
     307 000000dc 0001          .bits   1,16                    ; _aucCRCHi[220] @ 3520
     308 000000dd 00C0          .bits   192,16                  ; _aucCRCHi[221] @ 3536
     309 000000de 0080          .bits   128,16                  ; _aucCRCHi[222] @ 3552
     310 000000df 0041          .bits   65,16                   ; _aucCRCHi[223] @ 3568
     311 000000e0 0001          .bits   1,16                    ; _aucCRCHi[224] @ 3584
     312 000000e1 00C0          .bits   192,16                  ; _aucCRCHi[225] @ 3600
     313 000000e2 0080          .bits   128,16                  ; _aucCRCHi[226] @ 3616
     314 000000e3 0041          .bits   65,16                   ; _aucCRCHi[227] @ 3632
     315 000000e4 0000          .bits   0,16                    ; _aucCRCHi[228] @ 3648
     316 000000e5 00C1          .bits   193,16                  ; _aucCRCHi[229] @ 3664
     317 000000e6 0081          .bits   129,16                  ; _aucCRCHi[230] @ 3680
     318 000000e7 0040          .bits   64,16                   ; _aucCRCHi[231] @ 3696
     319 000000e8 0000          .bits   0,16                    ; _aucCRCHi[232] @ 3712
     320 000000e9 00C1          .bits   193,16                  ; _aucCRCHi[233] @ 3728
     321 000000ea 0081          .bits   129,16                  ; _aucCRCHi[234] @ 3744
     322 000000eb 0040          .bits   64,16                   ; _aucCRCHi[235] @ 3760
     323 000000ec 0001          .bits   1,16                    ; _aucCRCHi[236] @ 3776
     324 000000ed 00C0          .bits   192,16                  ; _aucCRCHi[237] @ 3792
     325 000000ee 0080          .bits   128,16                  ; _aucCRCHi[238] @ 3808
     326 000000ef 0041          .bits   65,16                   ; _aucCRCHi[239] @ 3824
     327 000000f0 0000          .bits   0,16                    ; _aucCRCHi[240] @ 3840
     328 000000f1 00C1          .bits   193,16                  ; _aucCRCHi[241] @ 3856
     329 000000f2 0081          .bits   129,16                  ; _aucCRCHi[242] @ 3872
     330 000000f3 0040          .bits   64,16                   ; _aucCRCHi[243] @ 3888
TMS320C2000 Assembler PC v6.2.5 Fri Sep 15 11:07:51 2017

Tools Copyright (c) 1996-2014 Texas Instruments Incorporated
C:\Users\wmj\AppData\Local\Temp\0762011                              PAGE    7

     331 000000f4 0001          .bits   1,16                    ; _aucCRCHi[244] @ 3904
     332 000000f5 00C0          .bits   192,16                  ; _aucCRCHi[245] @ 3920
     333 000000f6 0080          .bits   128,16                  ; _aucCRCHi[246] @ 3936
     334 000000f7 0041          .bits   65,16                   ; _aucCRCHi[247] @ 3952
     335 000000f8 0001          .bits   1,16                    ; _aucCRCHi[248] @ 3968
     336 000000f9 00C0          .bits   192,16                  ; _aucCRCHi[249] @ 3984
     337 000000fa 0080          .bits   128,16                  ; _aucCRCHi[250] @ 4000
     338 000000fb 0041          .bits   65,16                   ; _aucCRCHi[251] @ 4016
     339 000000fc 0000          .bits   0,16                    ; _aucCRCHi[252] @ 4032
     340 000000fd 00C1          .bits   193,16                  ; _aucCRCHi[253] @ 4048
     341 000000fe 0081          .bits   129,16                  ; _aucCRCHi[254] @ 4064
     342 000000ff 0040          .bits   64,16                   ; _aucCRCHi[255] @ 4080
     343              
     344              $C$DW$16        .dwtag  DW_TAG_variable, DW_AT_name("aucCRCHi")
     345                      .dwattr $C$DW$16, DW_AT_TI_symbol_name("_aucCRCHi")
     346                      .dwattr $C$DW$16, DW_AT_location[DW_OP_addr _aucCRCHi]
     347                      .dwattr $C$DW$16, DW_AT_type(*$C$DW$T$107)
     348                      .dwattr $C$DW$16, DW_AT_external
     349                      .global _aucCRCLo
     350 00000000               .sect   ".econst:.string:_aucCRCLo"
     351                      .clink
     352                      .align  1
     353 00000000       _aucCRCLo:
     354 00000000 0000          .bits   0,16                    ; _aucCRCLo[0] @ 0
     355 00000001 00C0          .bits   192,16                  ; _aucCRCLo[1] @ 16
     356 00000002 00C1          .bits   193,16                  ; _aucCRCLo[2] @ 32
     357 00000003 0001          .bits   1,16                    ; _aucCRCLo[3] @ 48
     358 00000004 00C3          .bits   195,16                  ; _aucCRCLo[4] @ 64
     359 00000005 0003          .bits   3,16                    ; _aucCRCLo[5] @ 80
     360 00000006 0002          .bits   2,16                    ; _aucCRCLo[6] @ 96
     361 00000007 00C2          .bits   194,16                  ; _aucCRCLo[7] @ 112
     362 00000008 00C6          .bits   198,16                  ; _aucCRCLo[8] @ 128
     363 00000009 0006          .bits   6,16                    ; _aucCRCLo[9] @ 144
     364 0000000a 0007          .bits   7,16                    ; _aucCRCLo[10] @ 160
     365 0000000b 00C7          .bits   199,16                  ; _aucCRCLo[11] @ 176
     366 0000000c 0005          .bits   5,16                    ; _aucCRCLo[12] @ 192
     367 0000000d 00C5          .bits   197,16                  ; _aucCRCLo[13] @ 208
     368 0000000e 00C4          .bits   196,16                  ; _aucCRCLo[14] @ 224
     369 0000000f 0004          .bits   4,16                    ; _aucCRCLo[15] @ 240
     370 00000010 00CC          .bits   204,16                  ; _aucCRCLo[16] @ 256
     371 00000011 000C          .bits   12,16                   ; _aucCRCLo[17] @ 272
     372 00000012 000D          .bits   13,16                   ; _aucCRCLo[18] @ 288
     373 00000013 00CD          .bits   205,16                  ; _aucCRCLo[19] @ 304
     374 00000014 000F          .bits   15,16                   ; _aucCRCLo[20] @ 320
     375 00000015 00CF          .bits   207,16                  ; _aucCRCLo[21] @ 336
     376 00000016 00CE          .bits   206,16                  ; _aucCRCLo[22] @ 352
     377 00000017 000E          .bits   14,16                   ; _aucCRCLo[23] @ 368
     378 00000018 000A          .bits   10,16                   ; _aucCRCLo[24] @ 384
     379 00000019 00CA          .bits   202,16                  ; _aucCRCLo[25] @ 400
     380 0000001a 00CB          .bits   203,16                  ; _aucCRCLo[26] @ 416
     381 0000001b 000B          .bits   11,16                   ; _aucCRCLo[27] @ 432
     382 0000001c 00C9          .bits   201,16                  ; _aucCRCLo[28] @ 448
     383 0000001d 0009          .bits   9,16                    ; _aucCRCLo[29] @ 464
     384 0000001e 0008          .bits   8,16                    ; _aucCRCLo[30] @ 480
     385 0000001f 00C8          .bits   200,16                  ; _aucCRCLo[31] @ 496
TMS320C2000 Assembler PC v6.2.5 Fri Sep 15 11:07:51 2017

Tools Copyright (c) 1996-2014 Texas Instruments Incorporated
C:\Users\wmj\AppData\Local\Temp\0762011                              PAGE    8

     386 00000020 00D8          .bits   216,16                  ; _aucCRCLo[32] @ 512
     387 00000021 0018          .bits   24,16                   ; _aucCRCLo[33] @ 528
     388 00000022 0019          .bits   25,16                   ; _aucCRCLo[34] @ 544
     389 00000023 00D9          .bits   217,16                  ; _aucCRCLo[35] @ 560
     390 00000024 001B          .bits   27,16                   ; _aucCRCLo[36] @ 576
     391 00000025 00DB          .bits   219,16                  ; _aucCRCLo[37] @ 592
     392 00000026 00DA          .bits   218,16                  ; _aucCRCLo[38] @ 608
     393 00000027 001A          .bits   26,16                   ; _aucCRCLo[39] @ 624
     394 00000028 001E          .bits   30,16                   ; _aucCRCLo[40] @ 640
     395 00000029 00DE          .bits   222,16                  ; _aucCRCLo[41] @ 656
     396 0000002a 00DF          .bits   223,16                  ; _aucCRCLo[42] @ 672
     397 0000002b 001F          .bits   31,16                   ; _aucCRCLo[43] @ 688
     398 0000002c 00DD          .bits   221,16                  ; _aucCRCLo[44] @ 704
     399 0000002d 001D          .bits   29,16                   ; _aucCRCLo[45] @ 720
     400 0000002e 001C          .bits   28,16                   ; _aucCRCLo[46] @ 736
     401 0000002f 00DC          .bits   220,16                  ; _aucCRCLo[47] @ 752
     402 00000030 0014          .bits   20,16                   ; _aucCRCLo[48] @ 768
     403 00000031 00D4          .bits   212,16                  ; _aucCRCLo[49] @ 784
     404 00000032 00D5          .bits   213,16                  ; _aucCRCLo[50] @ 800
     405 00000033 0015          .bits   21,16                   ; _aucCRCLo[51] @ 816
     406 00000034 00D7          .bits   215,16                  ; _aucCRCLo[52] @ 832
     407 00000035 0017          .bits   23,16                   ; _aucCRCLo[53] @ 848
     408 00000036 0016          .bits   22,16                   ; _aucCRCLo[54] @ 864
     409 00000037 00D6          .bits   214,16                  ; _aucCRCLo[55] @ 880
     410 00000038 00D2          .bits   210,16                  ; _aucCRCLo[56] @ 896
     411 00000039 0012          .bits   18,16                   ; _aucCRCLo[57] @ 912
     412 0000003a 0013          .bits   19,16                   ; _aucCRCLo[58] @ 928
     413 0000003b 00D3          .bits   211,16                  ; _aucCRCLo[59] @ 944
     414 0000003c 0011          .bits   17,16                   ; _aucCRCLo[60] @ 960
     415 0000003d 00D1          .bits   209,16                  ; _aucCRCLo[61] @ 976
     416 0000003e 00D0          .bits   208,16                  ; _aucCRCLo[62] @ 992
     417 0000003f 0010          .bits   16,16                   ; _aucCRCLo[63] @ 1008
     418 00000040 00F0          .bits   240,16                  ; _aucCRCLo[64] @ 1024
     419 00000041 0030          .bits   48,16                   ; _aucCRCLo[65] @ 1040
     420 00000042 0031          .bits   49,16                   ; _aucCRCLo[66] @ 1056
     421 00000043 00F1          .bits   241,16                  ; _aucCRCLo[67] @ 1072
     422 00000044 0033          .bits   51,16                   ; _aucCRCLo[68] @ 1088
     423 00000045 00F3          .bits   243,16                  ; _aucCRCLo[69] @ 1104
     424 00000046 00F2          .bits   242,16                  ; _aucCRCLo[70] @ 1120
     425 00000047 0032          .bits   50,16                   ; _aucCRCLo[71] @ 1136
     426 00000048 0036          .bits   54,16                   ; _aucCRCLo[72] @ 1152
     427 00000049 00F6          .bits   246,16                  ; _aucCRCLo[73] @ 1168
     428 0000004a 00F7          .bits   247,16                  ; _aucCRCLo[74] @ 1184
     429 0000004b 0037          .bits   55,16                   ; _aucCRCLo[75] @ 1200
     430 0000004c 00F5          .bits   245,16                  ; _aucCRCLo[76] @ 1216
     431 0000004d 0035          .bits   53,16                   ; _aucCRCLo[77] @ 1232
     432 0000004e 0034          .bits   52,16                   ; _aucCRCLo[78] @ 1248
     433 0000004f 00F4          .bits   244,16                  ; _aucCRCLo[79] @ 1264
     434 00000050 003C          .bits   60,16                   ; _aucCRCLo[80] @ 1280
     435 00000051 00FC          .bits   252,16                  ; _aucCRCLo[81] @ 1296
     436 00000052 00FD          .bits   253,16                  ; _aucCRCLo[82] @ 1312
     437 00000053 003D          .bits   61,16                   ; _aucCRCLo[83] @ 1328
     438 00000054 00FF          .bits   255,16                  ; _aucCRCLo[84] @ 1344
     439 00000055 003F          .bits   63,16                   ; _aucCRCLo[85] @ 1360
     440 00000056 003E          .bits   62,16                   ; _aucCRCLo[86] @ 1376
TMS320C2000 Assembler PC v6.2.5 Fri Sep 15 11:07:51 2017

Tools Copyright (c) 1996-2014 Texas Instruments Incorporated
C:\Users\wmj\AppData\Local\Temp\0762011                              PAGE    9

     441 00000057 00FE          .bits   254,16                  ; _aucCRCLo[87] @ 1392
     442 00000058 00FA          .bits   250,16                  ; _aucCRCLo[88] @ 1408
     443 00000059 003A          .bits   58,16                   ; _aucCRCLo[89] @ 1424
     444 0000005a 003B          .bits   59,16                   ; _aucCRCLo[90] @ 1440
     445 0000005b 00FB          .bits   251,16                  ; _aucCRCLo[91] @ 1456
     446 0000005c 0039          .bits   57,16                   ; _aucCRCLo[92] @ 1472
     447 0000005d 00F9          .bits   249,16                  ; _aucCRCLo[93] @ 1488
     448 0000005e 00F8          .bits   248,16                  ; _aucCRCLo[94] @ 1504
     449 0000005f 0038          .bits   56,16                   ; _aucCRCLo[95] @ 1520
     450 00000060 0028          .bits   40,16                   ; _aucCRCLo[96] @ 1536
     451 00000061 00E8          .bits   232,16                  ; _aucCRCLo[97] @ 1552
     452 00000062 00E9          .bits   233,16                  ; _aucCRCLo[98] @ 1568
     453 00000063 0029          .bits   41,16                   ; _aucCRCLo[99] @ 1584
     454 00000064 00EB          .bits   235,16                  ; _aucCRCLo[100] @ 1600
     455 00000065 002B          .bits   43,16                   ; _aucCRCLo[101] @ 1616
     456 00000066 002A          .bits   42,16                   ; _aucCRCLo[102] @ 1632
     457 00000067 00EA          .bits   234,16                  ; _aucCRCLo[103] @ 1648
     458 00000068 00EE          .bits   238,16                  ; _aucCRCLo[104] @ 1664
     459 00000069 002E          .bits   46,16                   ; _aucCRCLo[105] @ 1680
     460 0000006a 002F          .bits   47,16                   ; _aucCRCLo[106] @ 1696
     461 0000006b 00EF          .bits   239,16                  ; _aucCRCLo[107] @ 1712
     462 0000006c 002D          .bits   45,16                   ; _aucCRCLo[108] @ 1728
     463 0000006d 00ED          .bits   237,16                  ; _aucCRCLo[109] @ 1744
     464 0000006e 00EC          .bits   236,16                  ; _aucCRCLo[110] @ 1760
     465 0000006f 002C          .bits   44,16                   ; _aucCRCLo[111] @ 1776
     466 00000070 00E4          .bits   228,16                  ; _aucCRCLo[112] @ 1792
     467 00000071 0024          .bits   36,16                   ; _aucCRCLo[113] @ 1808
     468 00000072 0025          .bits   37,16                   ; _aucCRCLo[114] @ 1824
     469 00000073 00E5          .bits   229,16                  ; _aucCRCLo[115] @ 1840
     470 00000074 0027          .bits   39,16                   ; _aucCRCLo[116] @ 1856
     471 00000075 00E7          .bits   231,16                  ; _aucCRCLo[117] @ 1872
     472 00000076 00E6          .bits   230,16                  ; _aucCRCLo[118] @ 1888
     473 00000077 0026          .bits   38,16                   ; _aucCRCLo[119] @ 1904
     474 00000078 0022          .bits   34,16                   ; _aucCRCLo[120] @ 1920
     475 00000079 00E2          .bits   226,16                  ; _aucCRCLo[121] @ 1936
     476 0000007a 00E3          .bits   227,16                  ; _aucCRCLo[122] @ 1952
     477 0000007b 0023          .bits   35,16                   ; _aucCRCLo[123] @ 1968
     478 0000007c 00E1          .bits   225,16                  ; _aucCRCLo[124] @ 1984
     479 0000007d 0021          .bits   33,16                   ; _aucCRCLo[125] @ 2000
     480 0000007e 0020          .bits   32,16                   ; _aucCRCLo[126] @ 2016
     481 0000007f 00E0          .bits   224,16                  ; _aucCRCLo[127] @ 2032
     482 00000080 00A0          .bits   160,16                  ; _aucCRCLo[128] @ 2048
     483 00000081 0060          .bits   96,16                   ; _aucCRCLo[129] @ 2064
     484 00000082 0061          .bits   97,16                   ; _aucCRCLo[130] @ 2080
     485 00000083 00A1          .bits   161,16                  ; _aucCRCLo[131] @ 2096
     486 00000084 0063          .bits   99,16                   ; _aucCRCLo[132] @ 2112
     487 00000085 00A3          .bits   163,16                  ; _aucCRCLo[133] @ 2128
     488 00000086 00A2          .bits   162,16                  ; _aucCRCLo[134] @ 2144
     489 00000087 0062          .bits   98,16                   ; _aucCRCLo[135] @ 2160
     490 00000088 0066          .bits   102,16                  ; _aucCRCLo[136] @ 2176
     491 00000089 00A6          .bits   166,16                  ; _aucCRCLo[137] @ 2192
     492 0000008a 00A7          .bits   167,16                  ; _aucCRCLo[138] @ 2208
     493 0000008b 0067          .bits   103,16                  ; _aucCRCLo[139] @ 2224
     494 0000008c 00A5          .bits   165,16                  ; _aucCRCLo[140] @ 2240
     495 0000008d 0065          .bits   101,16                  ; _aucCRCLo[141] @ 2256
TMS320C2000 Assembler PC v6.2.5 Fri Sep 15 11:07:51 2017

Tools Copyright (c) 1996-2014 Texas Instruments Incorporated
C:\Users\wmj\AppData\Local\Temp\0762011                              PAGE   10

     496 0000008e 0064          .bits   100,16                  ; _aucCRCLo[142] @ 2272
     497 0000008f 00A4          .bits   164,16                  ; _aucCRCLo[143] @ 2288
     498 00000090 006C          .bits   108,16                  ; _aucCRCLo[144] @ 2304
     499 00000091 00AC          .bits   172,16                  ; _aucCRCLo[145] @ 2320
     500 00000092 00AD          .bits   173,16                  ; _aucCRCLo[146] @ 2336
     501 00000093 006D          .bits   109,16                  ; _aucCRCLo[147] @ 2352
     502 00000094 00AF          .bits   175,16                  ; _aucCRCLo[148] @ 2368
     503 00000095 006F          .bits   111,16                  ; _aucCRCLo[149] @ 2384
     504 00000096 006E          .bits   110,16                  ; _aucCRCLo[150] @ 2400
     505 00000097 00AE          .bits   174,16                  ; _aucCRCLo[151] @ 2416
     506 00000098 00AA          .bits   170,16                  ; _aucCRCLo[152] @ 2432
     507 00000099 006A          .bits   106,16                  ; _aucCRCLo[153] @ 2448
     508 0000009a 006B          .bits   107,16                  ; _aucCRCLo[154] @ 2464
     509 0000009b 00AB          .bits   171,16                  ; _aucCRCLo[155] @ 2480
     510 0000009c 0069          .bits   105,16                  ; _aucCRCLo[156] @ 2496
     511 0000009d 00A9          .bits   169,16                  ; _aucCRCLo[157] @ 2512
     512 0000009e 00A8          .bits   168,16                  ; _aucCRCLo[158] @ 2528
     513 0000009f 0068          .bits   104,16                  ; _aucCRCLo[159] @ 2544
     514 000000a0 0078          .bits   120,16                  ; _aucCRCLo[160] @ 2560
     515 000000a1 00B8          .bits   184,16                  ; _aucCRCLo[161] @ 2576
     516 000000a2 00B9          .bits   185,16                  ; _aucCRCLo[162] @ 2592
     517 000000a3 0079          .bits   121,16                  ; _aucCRCLo[163] @ 2608
     518 000000a4 00BB          .bits   187,16                  ; _aucCRCLo[164] @ 2624
     519 000000a5 007B          .bits   123,16                  ; _aucCRCLo[165] @ 2640
     520 000000a6 007A          .bits   122,16                  ; _aucCRCLo[166] @ 2656
     521 000000a7 00BA          .bits   186,16                  ; _aucCRCLo[167] @ 2672
     522 000000a8 00BE          .bits   190,16                  ; _aucCRCLo[168] @ 2688
     523 000000a9 007E          .bits   126,16                  ; _aucCRCLo[169] @ 2704
     524 000000aa 007F          .bits   127,16                  ; _aucCRCLo[170] @ 2720
     525 000000ab 00BF          .bits   191,16                  ; _aucCRCLo[171] @ 2736
     526 000000ac 007D          .bits   125,16                  ; _aucCRCLo[172] @ 2752
     527 000000ad 00BD          .bits   189,16                  ; _aucCRCLo[173] @ 2768
     528 000000ae 00BC          .bits   188,16                  ; _aucCRCLo[174] @ 2784
     529 000000af 007C          .bits   124,16                  ; _aucCRCLo[175] @ 2800
     530 000000b0 00B4          .bits   180,16                  ; _aucCRCLo[176] @ 2816
     531 000000b1 0074          .bits   116,16                  ; _aucCRCLo[177] @ 2832
     532 000000b2 0075          .bits   117,16                  ; _aucCRCLo[178] @ 2848
     533 000000b3 00B5          .bits   181,16                  ; _aucCRCLo[179] @ 2864
     534 000000b4 0077          .bits   119,16                  ; _aucCRCLo[180] @ 2880
     535 000000b5 00B7          .bits   183,16                  ; _aucCRCLo[181] @ 2896
     536 000000b6 00B6          .bits   182,16                  ; _aucCRCLo[182] @ 2912
     537 000000b7 0076          .bits   118,16                  ; _aucCRCLo[183] @ 2928
     538 000000b8 0072          .bits   114,16                  ; _aucCRCLo[184] @ 2944
     539 000000b9 00B2          .bits   178,16                  ; _aucCRCLo[185] @ 2960
     540 000000ba 00B3          .bits   179,16                  ; _aucCRCLo[186] @ 2976
     541 000000bb 0073          .bits   115,16                  ; _aucCRCLo[187] @ 2992
     542 000000bc 00B1          .bits   177,16                  ; _aucCRCLo[188] @ 3008
     543 000000bd 0071          .bits   113,16                  ; _aucCRCLo[189] @ 3024
     544 000000be 0070          .bits   112,16                  ; _aucCRCLo[190] @ 3040
     545 000000bf 00B0          .bits   176,16                  ; _aucCRCLo[191] @ 3056
     546 000000c0 0050          .bits   80,16                   ; _aucCRCLo[192] @ 3072
     547 000000c1 0090          .bits   144,16                  ; _aucCRCLo[193] @ 3088
     548 000000c2 0091          .bits   145,16                  ; _aucCRCLo[194] @ 3104
     549 000000c3 0051          .bits   81,16                   ; _aucCRCLo[195] @ 3120
     550 000000c4 0093          .bits   147,16                  ; _aucCRCLo[196] @ 3136
TMS320C2000 Assembler PC v6.2.5 Fri Sep 15 11:07:51 2017

Tools Copyright (c) 1996-2014 Texas Instruments Incorporated
C:\Users\wmj\AppData\Local\Temp\0762011                              PAGE   11

     551 000000c5 0053          .bits   83,16                   ; _aucCRCLo[197] @ 3152
     552 000000c6 0052          .bits   82,16                   ; _aucCRCLo[198] @ 3168
     553 000000c7 0092          .bits   146,16                  ; _aucCRCLo[199] @ 3184
     554 000000c8 0096          .bits   150,16                  ; _aucCRCLo[200] @ 3200
     555 000000c9 0056          .bits   86,16                   ; _aucCRCLo[201] @ 3216
     556 000000ca 0057          .bits   87,16                   ; _aucCRCLo[202] @ 3232
     557 000000cb 0097          .bits   151,16                  ; _aucCRCLo[203] @ 3248
     558 000000cc 0055          .bits   85,16                   ; _aucCRCLo[204] @ 3264
     559 000000cd 0095          .bits   149,16                  ; _aucCRCLo[205] @ 3280
     560 000000ce 0094          .bits   148,16                  ; _aucCRCLo[206] @ 3296
     561 000000cf 0054          .bits   84,16                   ; _aucCRCLo[207] @ 3312
     562 000000d0 009C          .bits   156,16                  ; _aucCRCLo[208] @ 3328
     563 000000d1 005C          .bits   92,16                   ; _aucCRCLo[209] @ 3344
     564 000000d2 005D          .bits   93,16                   ; _aucCRCLo[210] @ 3360
     565 000000d3 009D          .bits   157,16                  ; _aucCRCLo[211] @ 3376
     566 000000d4 005F          .bits   95,16                   ; _aucCRCLo[212] @ 3392
     567 000000d5 009F          .bits   159,16                  ; _aucCRCLo[213] @ 3408
     568 000000d6 009E          .bits   158,16                  ; _aucCRCLo[214] @ 3424
     569 000000d7 005E          .bits   94,16                   ; _aucCRCLo[215] @ 3440
     570 000000d8 005A          .bits   90,16                   ; _aucCRCLo[216] @ 3456
     571 000000d9 009A          .bits   154,16                  ; _aucCRCLo[217] @ 3472
     572 000000da 009B          .bits   155,16                  ; _aucCRCLo[218] @ 3488
     573 000000db 005B          .bits   91,16                   ; _aucCRCLo[219] @ 3504
     574 000000dc 0099          .bits   153,16                  ; _aucCRCLo[220] @ 3520
     575 000000dd 0059          .bits   89,16                   ; _aucCRCLo[221] @ 3536
     576 000000de 0058          .bits   88,16                   ; _aucCRCLo[222] @ 3552
     577 000000df 0098          .bits   152,16                  ; _aucCRCLo[223] @ 3568
     578 000000e0 0088          .bits   136,16                  ; _aucCRCLo[224] @ 3584
     579 000000e1 0048          .bits   72,16                   ; _aucCRCLo[225] @ 3600
     580 000000e2 0049          .bits   73,16                   ; _aucCRCLo[226] @ 3616
     581 000000e3 0089          .bits   137,16                  ; _aucCRCLo[227] @ 3632
     582 000000e4 004B          .bits   75,16                   ; _aucCRCLo[228] @ 3648
     583 000000e5 008B          .bits   139,16                  ; _aucCRCLo[229] @ 3664
     584 000000e6 008A          .bits   138,16                  ; _aucCRCLo[230] @ 3680
     585 000000e7 004A          .bits   74,16                   ; _aucCRCLo[231] @ 3696
     586 000000e8 004E          .bits   78,16                   ; _aucCRCLo[232] @ 3712
     587 000000e9 008E          .bits   142,16                  ; _aucCRCLo[233] @ 3728
     588 000000ea 008F          .bits   143,16                  ; _aucCRCLo[234] @ 3744
     589 000000eb 004F          .bits   79,16                   ; _aucCRCLo[235] @ 3760
     590 000000ec 008D          .bits   141,16                  ; _aucCRCLo[236] @ 3776
     591 000000ed 004D          .bits   77,16                   ; _aucCRCLo[237] @ 3792
     592 000000ee 004C          .bits   76,16                   ; _aucCRCLo[238] @ 3808
     593 000000ef 008C          .bits   140,16                  ; _aucCRCLo[239] @ 3824
     594 000000f0 0044          .bits   68,16                   ; _aucCRCLo[240] @ 3840
     595 000000f1 0084          .bits   132,16                  ; _aucCRCLo[241] @ 3856
     596 000000f2 0085          .bits   133,16                  ; _aucCRCLo[242] @ 3872
     597 000000f3 0045          .bits   69,16                   ; _aucCRCLo[243] @ 3888
     598 000000f4 0087          .bits   135,16                  ; _aucCRCLo[244] @ 3904
     599 000000f5 0047          .bits   71,16                   ; _aucCRCLo[245] @ 3920
     600 000000f6 0046          .bits   70,16                   ; _aucCRCLo[246] @ 3936
     601 000000f7 0086          .bits   134,16                  ; _aucCRCLo[247] @ 3952
     602 000000f8 0082          .bits   130,16                  ; _aucCRCLo[248] @ 3968
     603 000000f9 0042          .bits   66,16                   ; _aucCRCLo[249] @ 3984
     604 000000fa 0043          .bits   67,16                   ; _aucCRCLo[250] @ 4000
     605 000000fb 0083          .bits   131,16                  ; _aucCRCLo[251] @ 4016
TMS320C2000 Assembler PC v6.2.5 Fri Sep 15 11:07:51 2017

Tools Copyright (c) 1996-2014 Texas Instruments Incorporated
C:\Users\wmj\AppData\Local\Temp\0762011                              PAGE   12

     606 000000fc 0041          .bits   65,16                   ; _aucCRCLo[252] @ 4032
     607 000000fd 0081          .bits   129,16                  ; _aucCRCLo[253] @ 4048
     608 000000fe 0080          .bits   128,16                  ; _aucCRCLo[254] @ 4064
     609 000000ff 0040          .bits   64,16                   ; _aucCRCLo[255] @ 4080
     610              
     611              $C$DW$17        .dwtag  DW_TAG_variable, DW_AT_name("aucCRCLo")
     612                      .dwattr $C$DW$17, DW_AT_TI_symbol_name("_aucCRCLo")
     613                      .dwattr $C$DW$17, DW_AT_location[DW_OP_addr _aucCRCLo]
     614                      .dwattr $C$DW$17, DW_AT_type(*$C$DW$T$107)
     615                      .dwattr $C$DW$17, DW_AT_external
     616              ;       C:\ti\ccsv6\tools\compiler\c2000_6.2.5\bin\opt2000.exe C:\\Users\\wmj\\AppData\\Local\\Temp\\076203 C
     617              ;       C:\ti\ccsv6\tools\compiler\c2000_6.2.5\bin\ac2000.exe -@C:\\Users\\wmj\\AppData\\Local\\Temp\\0762017
     618 00000000               .sect   ".text"
     619                      .clink
     620                      .global _MB_setTimHandle
     621              
     622              $C$DW$18        .dwtag  DW_TAG_subprogram, DW_AT_name("MB_setTimHandle")
     623                      .dwattr $C$DW$18, DW_AT_low_pc(_MB_setTimHandle)
     624                      .dwattr $C$DW$18, DW_AT_high_pc(0x00)
     625                      .dwattr $C$DW$18, DW_AT_TI_symbol_name("_MB_setTimHandle")
     626                      .dwattr $C$DW$18, DW_AT_external
     627                      .dwattr $C$DW$18, DW_AT_TI_begin_file("D:/BM1000/sw/drivers/drvic/modbus/mb.c")
     628                      .dwattr $C$DW$18, DW_AT_TI_begin_line(0x63)
     629                      .dwattr $C$DW$18, DW_AT_TI_begin_column(0x06)
     630                      .dwattr $C$DW$18, DW_AT_TI_max_frame_size(-2)
     631                      .dwpsn  file "D:/BM1000/sw/drivers/drvic/modbus/mb.c",line 100,column 1,is_stmt,address _MB_setTimHan
     632              
     633                      .dwfde $C$DW$CIE, _MB_setTimHandle
     634              $C$DW$19        .dwtag  DW_TAG_formal_parameter, DW_AT_name("handle")
     635                      .dwattr $C$DW$19, DW_AT_TI_symbol_name("_handle")
     636                      .dwattr $C$DW$19, DW_AT_type(*$C$DW$T$57)
     637                      .dwattr $C$DW$19, DW_AT_location[DW_OP_reg12]
     638              $C$DW$20        .dwtag  DW_TAG_formal_parameter, DW_AT_name("timerHandle")
     639                      .dwattr $C$DW$20, DW_AT_TI_symbol_name("_timerHandle")
     640                      .dwattr $C$DW$20, DW_AT_type(*$C$DW$T$33)
     641                      .dwattr $C$DW$20, DW_AT_location[DW_OP_reg14]
     642              
     643              ;***************************************************************
     644              ;* FNAME: _MB_setTimHandle              FR SIZE:   0           *
     645              ;*                                                             *
     646              ;* FUNCTION ENVIRONMENT                                        *
     647              ;*                                                             *
     648              ;* FUNCTION PROPERTIES                                         *
     649              ;*                            0 Parameter,  0 Auto,  0 SOE     *
     650              ;***************************************************************
     651              
     652              _MB_setTimHandle:
     653              ;* AR4   assigned to _handle
     654              $C$DW$21        .dwtag  DW_TAG_variable, DW_AT_name("handle")
     655                      .dwattr $C$DW$21, DW_AT_TI_symbol_name("_handle")
     656                      .dwattr $C$DW$21, DW_AT_type(*$C$DW$T$71)
     657                      .dwattr $C$DW$21, DW_AT_location[DW_OP_reg12]
     658              ;* AR5   assigned to _timerHandle
     659              $C$DW$22        .dwtag  DW_TAG_variable, DW_AT_name("timerHandle")
     660                      .dwattr $C$DW$22, DW_AT_TI_symbol_name("_timerHandle")
TMS320C2000 Assembler PC v6.2.5 Fri Sep 15 11:07:51 2017

Tools Copyright (c) 1996-2014 Texas Instruments Incorporated
C:\Users\wmj\AppData\Local\Temp\0762011                              PAGE   13

     661                      .dwattr $C$DW$22, DW_AT_type(*$C$DW$T$80)
     662                      .dwattr $C$DW$22, DW_AT_location[DW_OP_reg14]
     663                      .dwcfi  cfa_offset, -2
     664                      .dwcfi  save_reg_to_mem, 26, 0
     665                      .dwcfi  save_reg_to_reg, 78, 26
     666                      .dwpsn  file "D:/BM1000/sw/drivers/drvic/modbus/mb.c",line 103,column 4,is_stmt
     667 00000000 A0D4          MOVL      *+XAR4[2],XAR5        ; [CPU_] |103| 
     668              $C$DW$23        .dwtag  DW_TAG_TI_branch
     669                      .dwattr $C$DW$23, DW_AT_low_pc(0x00)
     670                      .dwattr $C$DW$23, DW_AT_TI_return
     671 00000001 0006          LRETR     ; [CPU_] 
     672                      ; return occurs ; [] 
     673                      .dwattr $C$DW$18, DW_AT_TI_end_file("D:/BM1000/sw/drivers/drvic/modbus/mb.c")
     674                      .dwattr $C$DW$18, DW_AT_TI_end_line(0x6a)
     675                      .dwattr $C$DW$18, DW_AT_TI_end_column(0x01)
     676                      .dwendentry
     677                      .dwendtag $C$DW$18
     678              
     679 00000002               .sect   ".text"
     680                      .clink
     681                      .global _MB_setSciHandle
     682              
     683              $C$DW$24        .dwtag  DW_TAG_subprogram, DW_AT_name("MB_setSciHandle")
     684                      .dwattr $C$DW$24, DW_AT_low_pc(_MB_setSciHandle)
     685                      .dwattr $C$DW$24, DW_AT_high_pc(0x00)
     686                      .dwattr $C$DW$24, DW_AT_TI_symbol_name("_MB_setSciHandle")
     687                      .dwattr $C$DW$24, DW_AT_external
     688                      .dwattr $C$DW$24, DW_AT_TI_begin_file("D:/BM1000/sw/drivers/drvic/modbus/mb.c")
     689                      .dwattr $C$DW$24, DW_AT_TI_begin_line(0x5a)
     690                      .dwattr $C$DW$24, DW_AT_TI_begin_column(0x06)
     691                      .dwattr $C$DW$24, DW_AT_TI_max_frame_size(-2)
     692                      .dwpsn  file "D:/BM1000/sw/drivers/drvic/modbus/mb.c",line 91,column 1,is_stmt,address _MB_setSciHand
     693              
     694                      .dwfde $C$DW$CIE, _MB_setSciHandle
     695              $C$DW$25        .dwtag  DW_TAG_formal_parameter, DW_AT_name("handle")
     696                      .dwattr $C$DW$25, DW_AT_TI_symbol_name("_handle")
     697                      .dwattr $C$DW$25, DW_AT_type(*$C$DW$T$57)
     698                      .dwattr $C$DW$25, DW_AT_location[DW_OP_reg12]
     699              $C$DW$26        .dwtag  DW_TAG_formal_parameter, DW_AT_name("sciHandle")
     700                      .dwattr $C$DW$26, DW_AT_TI_symbol_name("_sciHandle")
     701                      .dwattr $C$DW$26, DW_AT_type(*$C$DW$T$35)
     702                      .dwattr $C$DW$26, DW_AT_location[DW_OP_reg14]
     703              
     704              ;***************************************************************
     705              ;* FNAME: _MB_setSciHandle              FR SIZE:   0           *
     706              ;*                                                             *
     707              ;* FUNCTION ENVIRONMENT                                        *
     708              ;*                                                             *
     709              ;* FUNCTION PROPERTIES                                         *
     710              ;*                            0 Parameter,  0 Auto,  0 SOE     *
     711              ;***************************************************************
     712              
     713              _MB_setSciHandle:
     714              ;* AR4   assigned to _handle
     715              $C$DW$27        .dwtag  DW_TAG_variable, DW_AT_name("handle")
TMS320C2000 Assembler PC v6.2.5 Fri Sep 15 11:07:51 2017

Tools Copyright (c) 1996-2014 Texas Instruments Incorporated
C:\Users\wmj\AppData\Local\Temp\0762011                              PAGE   14

     716                      .dwattr $C$DW$27, DW_AT_TI_symbol_name("_handle")
     717                      .dwattr $C$DW$27, DW_AT_type(*$C$DW$T$71)
     718                      .dwattr $C$DW$27, DW_AT_location[DW_OP_reg12]
     719              ;* AR5   assigned to _sciHandle
     720              $C$DW$28        .dwtag  DW_TAG_variable, DW_AT_name("sciHandle")
     721                      .dwattr $C$DW$28, DW_AT_TI_symbol_name("_sciHandle")
     722                      .dwattr $C$DW$28, DW_AT_type(*$C$DW$T$77)
     723                      .dwattr $C$DW$28, DW_AT_location[DW_OP_reg14]
     724                      .dwcfi  cfa_offset, -2
     725                      .dwcfi  save_reg_to_mem, 26, 0
     726                      .dwcfi  save_reg_to_reg, 78, 26
     727                      .dwpsn  file "D:/BM1000/sw/drivers/drvic/modbus/mb.c",line 94,column 4,is_stmt
     728 00000002 A0E4          MOVL      *+XAR4[4],XAR5        ; [CPU_] |94| 
     729              $C$DW$29        .dwtag  DW_TAG_TI_branch
     730                      .dwattr $C$DW$29, DW_AT_low_pc(0x00)
     731                      .dwattr $C$DW$29, DW_AT_TI_return
     732 00000003 0006          LRETR     ; [CPU_] 
     733                      ; return occurs ; [] 
     734                      .dwattr $C$DW$24, DW_AT_TI_end_file("D:/BM1000/sw/drivers/drvic/modbus/mb.c")
     735                      .dwattr $C$DW$24, DW_AT_TI_end_line(0x61)
     736                      .dwattr $C$DW$24, DW_AT_TI_end_column(0x01)
     737                      .dwendentry
     738                      .dwendtag $C$DW$24
     739              
     740 00000004               .sect   ".text"
     741                      .clink
     742                      .global _MB_setGpioHandle
     743              
     744              $C$DW$30        .dwtag  DW_TAG_subprogram, DW_AT_name("MB_setGpioHandle")
     745                      .dwattr $C$DW$30, DW_AT_low_pc(_MB_setGpioHandle)
     746                      .dwattr $C$DW$30, DW_AT_high_pc(0x00)
     747                      .dwattr $C$DW$30, DW_AT_TI_symbol_name("_MB_setGpioHandle")
     748                      .dwattr $C$DW$30, DW_AT_external
     749                      .dwattr $C$DW$30, DW_AT_TI_begin_file("D:/BM1000/sw/drivers/drvic/modbus/mb.c")
     750                      .dwattr $C$DW$30, DW_AT_TI_begin_line(0x6c)
     751                      .dwattr $C$DW$30, DW_AT_TI_begin_column(0x06)
     752                      .dwattr $C$DW$30, DW_AT_TI_max_frame_size(-2)
     753                      .dwpsn  file "D:/BM1000/sw/drivers/drvic/modbus/mb.c",line 109,column 1,is_stmt,address _MB_setGpioHa
     754              
     755                      .dwfde $C$DW$CIE, _MB_setGpioHandle
     756              $C$DW$31        .dwtag  DW_TAG_formal_parameter, DW_AT_name("handle")
     757                      .dwattr $C$DW$31, DW_AT_TI_symbol_name("_handle")
     758                      .dwattr $C$DW$31, DW_AT_type(*$C$DW$T$57)
     759                      .dwattr $C$DW$31, DW_AT_location[DW_OP_reg12]
     760              $C$DW$32        .dwtag  DW_TAG_formal_parameter, DW_AT_name("gpioHandle")
     761                      .dwattr $C$DW$32, DW_AT_TI_symbol_name("_gpioHandle")
     762                      .dwattr $C$DW$32, DW_AT_type(*$C$DW$T$31)
     763                      .dwattr $C$DW$32, DW_AT_location[DW_OP_reg14]
     764              
     765              ;***************************************************************
     766              ;* FNAME: _MB_setGpioHandle             FR SIZE:   0           *
     767              ;*                                                             *
     768              ;* FUNCTION ENVIRONMENT                                        *
     769              ;*                                                             *
     770              ;* FUNCTION PROPERTIES                                         *
TMS320C2000 Assembler PC v6.2.5 Fri Sep 15 11:07:51 2017

Tools Copyright (c) 1996-2014 Texas Instruments Incorporated
C:\Users\wmj\AppData\Local\Temp\0762011                              PAGE   15

     771              ;*                            0 Parameter,  0 Auto,  0 SOE     *
     772              ;***************************************************************
     773              
     774              _MB_setGpioHandle:
     775              ;* AR4   assigned to _handle
     776              $C$DW$33        .dwtag  DW_TAG_variable, DW_AT_name("handle")
     777                      .dwattr $C$DW$33, DW_AT_TI_symbol_name("_handle")
     778                      .dwattr $C$DW$33, DW_AT_type(*$C$DW$T$71)
     779                      .dwattr $C$DW$33, DW_AT_location[DW_OP_reg12]
     780              ;* AR5   assigned to _gpioHandle
     781              $C$DW$34        .dwtag  DW_TAG_variable, DW_AT_name("gpioHandle")
     782                      .dwattr $C$DW$34, DW_AT_TI_symbol_name("_gpioHandle")
     783                      .dwattr $C$DW$34, DW_AT_type(*$C$DW$T$68)
     784                      .dwattr $C$DW$34, DW_AT_location[DW_OP_reg14]
     785                      .dwcfi  cfa_offset, -2
     786                      .dwcfi  save_reg_to_mem, 26, 0
     787                      .dwcfi  save_reg_to_reg, 78, 26
     788                      .dwpsn  file "D:/BM1000/sw/drivers/drvic/modbus/mb.c",line 112,column 4,is_stmt
     789 00000004 A0C4          MOVL      *+XAR4[0],XAR5        ; [CPU_] |112| 
     790              $C$DW$35        .dwtag  DW_TAG_TI_branch
     791                      .dwattr $C$DW$35, DW_AT_low_pc(0x00)
     792                      .dwattr $C$DW$35, DW_AT_TI_return
     793 00000005 0006          LRETR     ; [CPU_] 
     794                      ; return occurs ; [] 
     795                      .dwattr $C$DW$30, DW_AT_TI_end_file("D:/BM1000/sw/drivers/drvic/modbus/mb.c")
     796                      .dwattr $C$DW$30, DW_AT_TI_end_line(0x73)
     797                      .dwattr $C$DW$30, DW_AT_TI_end_column(0x01)
     798                      .dwendentry
     799                      .dwendtag $C$DW$30
     800              
     801 00000006               .sect   ".text"
     802                      .clink
     803                      .global _MB_init
     804              
     805              $C$DW$36        .dwtag  DW_TAG_subprogram, DW_AT_name("MB_init")
     806                      .dwattr $C$DW$36, DW_AT_low_pc(_MB_init)
     807                      .dwattr $C$DW$36, DW_AT_high_pc(0x00)
     808                      .dwattr $C$DW$36, DW_AT_TI_symbol_name("_MB_init")
     809                      .dwattr $C$DW$36, DW_AT_external
     810                      .dwattr $C$DW$36, DW_AT_type(*$C$DW$T$57)
     811                      .dwattr $C$DW$36, DW_AT_TI_begin_file("D:/BM1000/sw/drivers/drvic/modbus/mb.c")
     812                      .dwattr $C$DW$36, DW_AT_TI_begin_line(0x4a)
     813                      .dwattr $C$DW$36, DW_AT_TI_begin_column(0x0b)
     814                      .dwattr $C$DW$36, DW_AT_TI_max_frame_size(-2)
     815                      .dwpsn  file "D:/BM1000/sw/drivers/drvic/modbus/mb.c",line 75,column 1,is_stmt,address _MB_init
     816              
     817                      .dwfde $C$DW$CIE, _MB_init
     818              $C$DW$37        .dwtag  DW_TAG_formal_parameter, DW_AT_name("pMemory")
     819                      .dwattr $C$DW$37, DW_AT_TI_symbol_name("_pMemory")
     820                      .dwattr $C$DW$37, DW_AT_type(*$C$DW$T$3)
     821                      .dwattr $C$DW$37, DW_AT_location[DW_OP_reg12]
     822              $C$DW$38        .dwtag  DW_TAG_formal_parameter, DW_AT_name("numBytes")
     823                      .dwattr $C$DW$38, DW_AT_TI_symbol_name("_numBytes")
     824                      .dwattr $C$DW$38, DW_AT_type(*$C$DW$T$73)
     825                      .dwattr $C$DW$38, DW_AT_location[DW_OP_reg0]
TMS320C2000 Assembler PC v6.2.5 Fri Sep 15 11:07:51 2017

Tools Copyright (c) 1996-2014 Texas Instruments Incorporated
C:\Users\wmj\AppData\Local\Temp\0762011                              PAGE   16

     826              
     827              ;***************************************************************
     828              ;* FNAME: _MB_init                      FR SIZE:   0           *
     829              ;*                                                             *
     830              ;* FUNCTION ENVIRONMENT                                        *
     831              ;*                                                             *
     832              ;* FUNCTION PROPERTIES                                         *
     833              ;*                            0 Parameter,  0 Auto,  0 SOE     *
     834              ;***************************************************************
     835              
     836              _MB_init:
     837              ;* AR6   assigned to _numBytes
     838              $C$DW$39        .dwtag  DW_TAG_variable, DW_AT_name("numBytes")
     839                      .dwattr $C$DW$39, DW_AT_TI_symbol_name("_numBytes")
     840                      .dwattr $C$DW$39, DW_AT_type(*$C$DW$T$73)
     841                      .dwattr $C$DW$39, DW_AT_location[DW_OP_reg16]
     842              ;* AR4   assigned to _pMemory
     843              $C$DW$40        .dwtag  DW_TAG_variable, DW_AT_name("pMemory")
     844                      .dwattr $C$DW$40, DW_AT_TI_symbol_name("_pMemory")
     845                      .dwattr $C$DW$40, DW_AT_type(*$C$DW$T$82)
     846                      .dwattr $C$DW$40, DW_AT_location[DW_OP_reg12]
     847                      .dwcfi  cfa_offset, -2
     848                      .dwcfi  save_reg_to_mem, 26, 0
     849                      .dwcfi  save_reg_to_reg, 78, 26
     850 00000006 1EA6          MOVL      XAR6,ACC              ; [CPU_] |75| 
     851                      .dwpsn  file "D:/BM1000/sw/drivers/drvic/modbus/mb.c",line 80,column 6,is_stmt
     852 00000007 021C          MOVB      ACC,#28               ; [CPU_] |80| 
     853 00000008 0FA6          CMPL      ACC,XAR6              ; [CPU_] |80| 
     854 00000009 6902          B         $C$L1,LOS             ; [CPU_] |80| 
     855                      ; branchcc occurs ; [] |80| 
     856 0000000a D400          MOVB      XAR4,#0               ; [CPU_] |80| 
     857              $C$L1:    
     858              $C$DW$41        .dwtag  DW_TAG_TI_branch
     859                      .dwattr $C$DW$41, DW_AT_low_pc(0x00)
     860                      .dwattr $C$DW$41, DW_AT_TI_return
     861 0000000b 0006          LRETR     ; [CPU_] 
     862                      ; return occurs ; [] 
     863                      .dwattr $C$DW$36, DW_AT_TI_end_file("D:/BM1000/sw/drivers/drvic/modbus/mb.c")
     864                      .dwattr $C$DW$36, DW_AT_TI_end_line(0x57)
     865                      .dwattr $C$DW$36, DW_AT_TI_end_column(0x01)
     866                      .dwendentry
     867                      .dwendtag $C$DW$36
     868              
     869 0000000c               .sect   ".text"
     870                      .clink
     871                      .global _MB_PortEventPost
     872              
     873              $C$DW$42        .dwtag  DW_TAG_subprogram, DW_AT_name("MB_PortEventPost")
     874                      .dwattr $C$DW$42, DW_AT_low_pc(_MB_PortEventPost)
     875                      .dwattr $C$DW$42, DW_AT_high_pc(0x00)
     876                      .dwattr $C$DW$42, DW_AT_TI_symbol_name("_MB_PortEventPost")
     877                      .dwattr $C$DW$42, DW_AT_external
     878                      .dwattr $C$DW$42, DW_AT_TI_begin_file("D:/BM1000/sw/drivers/drvic/modbus/mb.c")
     879                      .dwattr $C$DW$42, DW_AT_TI_begin_line(0xc4)
     880                      .dwattr $C$DW$42, DW_AT_TI_begin_column(0x06)
TMS320C2000 Assembler PC v6.2.5 Fri Sep 15 11:07:51 2017

Tools Copyright (c) 1996-2014 Texas Instruments Incorporated
C:\Users\wmj\AppData\Local\Temp\0762011                              PAGE   17

     881                      .dwattr $C$DW$42, DW_AT_TI_max_frame_size(-2)
     882                      .dwpsn  file "D:/BM1000/sw/drivers/drvic/modbus/mb.c",line 197,column 1,is_stmt,address _MB_PortEvent
     883              
     884                      .dwfde $C$DW$CIE, _MB_PortEventPost
     885              $C$DW$43        .dwtag  DW_TAG_formal_parameter, DW_AT_name("handle")
     886                      .dwattr $C$DW$43, DW_AT_TI_symbol_name("_handle")
     887                      .dwattr $C$DW$43, DW_AT_type(*$C$DW$T$57)
     888                      .dwattr $C$DW$43, DW_AT_location[DW_OP_reg12]
     889              $C$DW$44        .dwtag  DW_TAG_formal_parameter, DW_AT_name("eEvent")
     890                      .dwattr $C$DW$44, DW_AT_TI_symbol_name("_eEvent")
     891                      .dwattr $C$DW$44, DW_AT_type(*$C$DW$T$50)
     892                      .dwattr $C$DW$44, DW_AT_location[DW_OP_reg0]
     893              
     894              ;***************************************************************
     895              ;* FNAME: _MB_PortEventPost             FR SIZE:   0           *
     896              ;*                                                             *
     897              ;* FUNCTION ENVIRONMENT                                        *
     898              ;*                                                             *
     899              ;* FUNCTION PROPERTIES                                         *
     900              ;*                            0 Parameter,  0 Auto,  0 SOE     *
     901              ;***************************************************************
     902              
     903              _MB_PortEventPost:
     904              ;* AR4   assigned to _handle
     905              $C$DW$45        .dwtag  DW_TAG_variable, DW_AT_name("handle")
     906                      .dwattr $C$DW$45, DW_AT_TI_symbol_name("_handle")
     907                      .dwattr $C$DW$45, DW_AT_type(*$C$DW$T$71)
     908                      .dwattr $C$DW$45, DW_AT_location[DW_OP_reg12]
     909              ;* AL    assigned to _eEvent
     910              $C$DW$46        .dwtag  DW_TAG_variable, DW_AT_name("eEvent")
     911                      .dwattr $C$DW$46, DW_AT_TI_symbol_name("_eEvent")
     912                      .dwattr $C$DW$46, DW_AT_type(*$C$DW$T$65)
     913                      .dwattr $C$DW$46, DW_AT_location[DW_OP_reg0]
     914                      .dwcfi  cfa_offset, -2
     915                      .dwcfi  save_reg_to_mem, 26, 0
     916                      .dwcfi  save_reg_to_reg, 78, 26
     917                      .dwpsn  file "D:/BM1000/sw/drivers/drvic/modbus/mb.c",line 199,column 5,is_stmt
     918 0000000c D019          MOVB      XAR0,#25              ; [CPU_] |199| 
     919 0000000d 56BF          MOVB      *+XAR4[AR0],#1,UNC    ; [CPU_] |199| 
         0000000e 0194 
     920                      .dwpsn  file "D:/BM1000/sw/drivers/drvic/modbus/mb.c",line 200,column 5,is_stmt
     921 0000000f D01A          MOVB      XAR0,#26              ; [CPU_] |200| 
     922 00000010 9694          MOV       *+XAR4[AR0],AL        ; [CPU_] |200| 
     923              $C$DW$47        .dwtag  DW_TAG_TI_branch
     924                      .dwattr $C$DW$47, DW_AT_low_pc(0x00)
     925                      .dwattr $C$DW$47, DW_AT_TI_return
     926 00000011 0006          LRETR     ; [CPU_] 
     927                      ; return occurs ; [] 
     928                      .dwattr $C$DW$42, DW_AT_TI_end_file("D:/BM1000/sw/drivers/drvic/modbus/mb.c")
     929                      .dwattr $C$DW$42, DW_AT_TI_end_line(0xca)
     930                      .dwattr $C$DW$42, DW_AT_TI_end_column(0x01)
     931                      .dwendentry
     932                      .dwendtag $C$DW$42
     933              
     934 00000012               .sect   ".text"
TMS320C2000 Assembler PC v6.2.5 Fri Sep 15 11:07:51 2017

Tools Copyright (c) 1996-2014 Texas Instruments Incorporated
C:\Users\wmj\AppData\Local\Temp\0762011                              PAGE   18

     935                      .clink
     936                      .global _MB_PortSerialEnable
     937              
     938              $C$DW$48        .dwtag  DW_TAG_subprogram, DW_AT_name("MB_PortSerialEnable")
     939                      .dwattr $C$DW$48, DW_AT_low_pc(_MB_PortSerialEnable)
     940                      .dwattr $C$DW$48, DW_AT_high_pc(0x00)
     941                      .dwattr $C$DW$48, DW_AT_TI_symbol_name("_MB_PortSerialEnable")
     942                      .dwattr $C$DW$48, DW_AT_external
     943                      .dwattr $C$DW$48, DW_AT_TI_begin_file("D:/BM1000/sw/drivers/drvic/modbus/mb.c")
     944                      .dwattr $C$DW$48, DW_AT_TI_begin_line(0x8b)
     945                      .dwattr $C$DW$48, DW_AT_TI_begin_column(0x06)
     946                      .dwattr $C$DW$48, DW_AT_TI_max_frame_size(-6)
     947                      .dwpsn  file "D:/BM1000/sw/drivers/drvic/modbus/mb.c",line 140,column 1,is_stmt,address _MB_PortSeria
     948              
     949                      .dwfde $C$DW$CIE, _MB_PortSerialEnable
     950              $C$DW$49        .dwtag  DW_TAG_formal_parameter, DW_AT_name("handle")
     951                      .dwattr $C$DW$49, DW_AT_TI_symbol_name("_handle")
     952                      .dwattr $C$DW$49, DW_AT_type(*$C$DW$T$57)
     953                      .dwattr $C$DW$49, DW_AT_location[DW_OP_reg12]
     954              $C$DW$50        .dwtag  DW_TAG_formal_parameter, DW_AT_name("xRxEnable")
     955                      .dwattr $C$DW$50, DW_AT_TI_symbol_name("_xRxEnable")
     956                      .dwattr $C$DW$50, DW_AT_type(*$C$DW$T$48)
     957                      .dwattr $C$DW$50, DW_AT_location[DW_OP_reg0]
     958              $C$DW$51        .dwtag  DW_TAG_formal_parameter, DW_AT_name("xTxEnable")
     959                      .dwattr $C$DW$51, DW_AT_TI_symbol_name("_xTxEnable")
     960                      .dwattr $C$DW$51, DW_AT_type(*$C$DW$T$48)
     961                      .dwattr $C$DW$51, DW_AT_location[DW_OP_reg1]
     962              
     963              ;***************************************************************
     964              ;* FNAME: _MB_PortSerialEnable          FR SIZE:   4           *
     965              ;*                                                             *
     966              ;* FUNCTION ENVIRONMENT                                        *
     967              ;*                                                             *
     968              ;* FUNCTION PROPERTIES                                         *
     969              ;*                            0 Parameter,  0 Auto,  4 SOE     *
     970              ;***************************************************************
     971              
     972              _MB_PortSerialEnable:
     973              ;* AR1   assigned to _xTxEnable
     974              $C$DW$52        .dwtag  DW_TAG_variable, DW_AT_name("xTxEnable")
     975                      .dwattr $C$DW$52, DW_AT_TI_symbol_name("_xTxEnable")
     976                      .dwattr $C$DW$52, DW_AT_type(*$C$DW$T$98)
     977                      .dwattr $C$DW$52, DW_AT_location[DW_OP_reg6]
     978              ;* AL    assigned to _xRxEnable
     979              $C$DW$53        .dwtag  DW_TAG_variable, DW_AT_name("xRxEnable")
     980                      .dwattr $C$DW$53, DW_AT_TI_symbol_name("_xRxEnable")
     981                      .dwattr $C$DW$53, DW_AT_type(*$C$DW$T$98)
     982                      .dwattr $C$DW$53, DW_AT_location[DW_OP_reg0]
     983              ;* AR2   assigned to _handle
     984              $C$DW$54        .dwtag  DW_TAG_variable, DW_AT_name("handle")
     985                      .dwattr $C$DW$54, DW_AT_TI_symbol_name("_handle")
     986                      .dwattr $C$DW$54, DW_AT_type(*$C$DW$T$71)
     987                      .dwattr $C$DW$54, DW_AT_location[DW_OP_reg8]
     988                      .dwcfi  cfa_offset, -2
     989                      .dwcfi  save_reg_to_mem, 26, 0
TMS320C2000 Assembler PC v6.2.5 Fri Sep 15 11:07:51 2017

Tools Copyright (c) 1996-2014 Texas Instruments Incorporated
C:\Users\wmj\AppData\Local\Temp\0762011                              PAGE   19

     990                      .dwcfi  save_reg_to_reg, 78, 26
     991 00000012 B2BD          MOVL      *SP++,XAR1            ; [CPU_] 
     992                      .dwcfi  save_reg_to_mem, 7, 2
     993                      .dwcfi  cfa_offset, -4
     994                      .dwpsn  file "D:/BM1000/sw/drivers/drvic/modbus/mb.c",line 143,column 3,is_stmt
     995 00000013 5200          CMPB      AL,#0                 ; [CPU_] |143| 
     996                      .dwpsn  file "D:/BM1000/sw/drivers/drvic/modbus/mb.c",line 140,column 1,is_stmt
     997 00000014 59A8          MOVZ      AR1,AH                ; [CPU_] |140| 
     998 00000015 AABD          MOVL      *SP++,XAR2            ; [CPU_] 
     999                      .dwcfi  save_reg_to_mem, 9, 4
    1000                      .dwcfi  cfa_offset, -6
    1001 00000016 86A4          MOVL      XAR2,XAR4             ; [CPU_] |140| 
    1002                      .dwpsn  file "D:/BM1000/sw/drivers/drvic/modbus/mb.c",line 143,column 3,is_stmt
    1003 00000017 ED05          BF        $C$L2,NEQ             ; [CPU_] |143| 
    1004                      ; branchcc occurs ; [] |143| 
    1005                      .dwpsn  file "D:/BM1000/sw/drivers/drvic/modbus/mb.c",line 151,column 3,is_stmt
    1006 00000018 8AE2          MOVL      XAR4,*+XAR2[4]        ; [CPU_] |151| 
    1007              $C$DW$55        .dwtag  DW_TAG_TI_branch
    1008                      .dwattr $C$DW$55, DW_AT_low_pc(0x00)
    1009                      .dwattr $C$DW$55, DW_AT_name("_SCI_disableRx")
    1010                      .dwattr $C$DW$55, DW_AT_TI_call
    1011 00000019 7640!         LCR       #_SCI_disableRx       ; [CPU_] |151| 
         0000001a 0000 
    1012                      ; call occurs [#_SCI_disableRx] ; [] |151| 
    1013 0000001b 6F04          B         $C$L3,UNC             ; [CPU_] |151| 
    1014                      ; branch occurs ; [] |151| 
    1015 0000001c       $C$L2:    
    1016                      .dwpsn  file "D:/BM1000/sw/drivers/drvic/modbus/mb.c",line 146,column 3,is_stmt
    1017 0000001c 8AE2          MOVL      XAR4,*+XAR2[4]        ; [CPU_] |146| 
    1018              $C$DW$56        .dwtag  DW_TAG_TI_branch
    1019                      .dwattr $C$DW$56, DW_AT_low_pc(0x00)
    1020                      .dwattr $C$DW$56, DW_AT_name("_SCI_enableRx")
    1021                      .dwattr $C$DW$56, DW_AT_TI_call
    1022 0000001d 7640!         LCR       #_SCI_enableRx        ; [CPU_] |146| 
         0000001e 0000 
    1023                      ; call occurs [#_SCI_enableRx] ; [] |146| 
    1024 0000001f       $C$L3:    
    1025 0000001f 92A1          MOV       AL,AR1                ; [CPU_] 
    1026                      .dwpsn  file "D:/BM1000/sw/drivers/drvic/modbus/mb.c",line 155,column 3,is_stmt
    1027 00000020 ED05          BF        $C$L4,NEQ             ; [CPU_] |155| 
    1028                      ; branchcc occurs ; [] |155| 
    1029                      .dwpsn  file "D:/BM1000/sw/drivers/drvic/modbus/mb.c",line 162,column 2,is_stmt
    1030 00000021 8AE2          MOVL      XAR4,*+XAR2[4]        ; [CPU_] |162| 
    1031              $C$DW$57        .dwtag  DW_TAG_TI_branch
    1032                      .dwattr $C$DW$57, DW_AT_low_pc(0x00)
    1033                      .dwattr $C$DW$57, DW_AT_name("_SCI_disableTx")
    1034                      .dwattr $C$DW$57, DW_AT_TI_call
    1035 00000022 7640!         LCR       #_SCI_disableTx       ; [CPU_] |162| 
         00000023 0000 
    1036                      ; call occurs [#_SCI_disableTx] ; [] |162| 
    1037 00000024 6F04          B         $C$L5,UNC             ; [CPU_] |162| 
    1038                      ; branch occurs ; [] |162| 
    1039 00000025       $C$L4:    
    1040                      .dwpsn  file "D:/BM1000/sw/drivers/drvic/modbus/mb.c",line 157,column 2,is_stmt
    1041 00000025 8AE2          MOVL      XAR4,*+XAR2[4]        ; [CPU_] |157| 
TMS320C2000 Assembler PC v6.2.5 Fri Sep 15 11:07:51 2017

Tools Copyright (c) 1996-2014 Texas Instruments Incorporated
C:\Users\wmj\AppData\Local\Temp\0762011                              PAGE   20

    1042              $C$DW$58        .dwtag  DW_TAG_TI_branch
    1043                      .dwattr $C$DW$58, DW_AT_low_pc(0x00)
    1044                      .dwattr $C$DW$58, DW_AT_name("_SCI_enableTx")
    1045                      .dwattr $C$DW$58, DW_AT_TI_call
    1046 00000026 7640!         LCR       #_SCI_enableTx        ; [CPU_] |157| 
         00000027 0000 
    1047                      ; call occurs [#_SCI_enableTx] ; [] |157| 
    1048 00000028       $C$L5:    
    1049 00000028 86BE          MOVL      XAR2,*--SP            ; [CPU_] 
    1050                      .dwcfi  cfa_offset, -4
    1051                      .dwcfi  restore_reg, 9
    1052 00000029 8BBE          MOVL      XAR1,*--SP            ; [CPU_] 
    1053                      .dwcfi  cfa_offset, -2
    1054                      .dwcfi  restore_reg, 7
    1055              $C$DW$59        .dwtag  DW_TAG_TI_branch
    1056                      .dwattr $C$DW$59, DW_AT_low_pc(0x00)
    1057                      .dwattr $C$DW$59, DW_AT_TI_return
    1058 0000002a 0006          LRETR     ; [CPU_] 
    1059                      ; return occurs ; [] 
    1060                      .dwattr $C$DW$48, DW_AT_TI_end_file("D:/BM1000/sw/drivers/drvic/modbus/mb.c")
    1061                      .dwattr $C$DW$48, DW_AT_TI_end_line(0xa6)
    1062                      .dwattr $C$DW$48, DW_AT_TI_end_column(0x01)
    1063                      .dwendentry
    1064                      .dwendtag $C$DW$48
    1065              
    1066 0000002b               .sect   ".text"
    1067                      .clink
    1068                      .global _MB_PortSerialPutByte
    1069              
    1070              $C$DW$60        .dwtag  DW_TAG_subprogram, DW_AT_name("MB_PortSerialPutByte")
    1071                      .dwattr $C$DW$60, DW_AT_low_pc(_MB_PortSerialPutByte)
    1072                      .dwattr $C$DW$60, DW_AT_high_pc(0x00)
    1073                      .dwattr $C$DW$60, DW_AT_TI_symbol_name("_MB_PortSerialPutByte")
    1074                      .dwattr $C$DW$60, DW_AT_external
    1075                      .dwattr $C$DW$60, DW_AT_type(*$C$DW$T$48)
    1076                      .dwattr $C$DW$60, DW_AT_TI_begin_file("D:/BM1000/sw/drivers/drvic/modbus/mb.c")
    1077                      .dwattr $C$DW$60, DW_AT_TI_begin_line(0xa9)
    1078                      .dwattr $C$DW$60, DW_AT_TI_begin_column(0x06)
    1079                      .dwattr $C$DW$60, DW_AT_TI_max_frame_size(-2)
    1080                      .dwpsn  file "D:/BM1000/sw/drivers/drvic/modbus/mb.c",line 170,column 1,is_stmt,address _MB_PortSeria
    1081              
    1082                      .dwfde $C$DW$CIE, _MB_PortSerialPutByte
    1083              $C$DW$61        .dwtag  DW_TAG_formal_parameter, DW_AT_name("handle")
    1084                      .dwattr $C$DW$61, DW_AT_TI_symbol_name("_handle")
    1085                      .dwattr $C$DW$61, DW_AT_type(*$C$DW$T$57)
    1086                      .dwattr $C$DW$61, DW_AT_location[DW_OP_reg12]
    1087              $C$DW$62        .dwtag  DW_TAG_formal_parameter, DW_AT_name("putByte")
    1088                      .dwattr $C$DW$62, DW_AT_TI_symbol_name("_putByte")
    1089                      .dwattr $C$DW$62, DW_AT_type(*$C$DW$T$100)
    1090                      .dwattr $C$DW$62, DW_AT_location[DW_OP_reg0]
    1091              
    1092              ;***************************************************************
    1093              ;* FNAME: _MB_PortSerialPutByte         FR SIZE:   0           *
    1094              ;*                                                             *
    1095              ;* FUNCTION ENVIRONMENT                                        *
TMS320C2000 Assembler PC v6.2.5 Fri Sep 15 11:07:51 2017

Tools Copyright (c) 1996-2014 Texas Instruments Incorporated
C:\Users\wmj\AppData\Local\Temp\0762011                              PAGE   21

    1096              ;*                                                             *
    1097              ;* FUNCTION PROPERTIES                                         *
    1098              ;*                            0 Parameter,  0 Auto,  0 SOE     *
    1099              ;***************************************************************
    1100              
    1101              _MB_PortSerialPutByte:
    1102              ;* AR4   assigned to _handle
    1103              $C$DW$63        .dwtag  DW_TAG_variable, DW_AT_name("handle")
    1104                      .dwattr $C$DW$63, DW_AT_TI_symbol_name("_handle")
    1105                      .dwattr $C$DW$63, DW_AT_type(*$C$DW$T$71)
    1106                      .dwattr $C$DW$63, DW_AT_location[DW_OP_reg12]
    1107              ;* AL    assigned to _putByte
    1108              $C$DW$64        .dwtag  DW_TAG_variable, DW_AT_name("putByte")
    1109                      .dwattr $C$DW$64, DW_AT_TI_symbol_name("_putByte")
    1110                      .dwattr $C$DW$64, DW_AT_type(*$C$DW$T$129)
    1111                      .dwattr $C$DW$64, DW_AT_location[DW_OP_reg0]
    1112                      .dwcfi  cfa_offset, -2
    1113                      .dwcfi  save_reg_to_mem, 26, 0
    1114                      .dwcfi  save_reg_to_reg, 78, 26
    1115                      .dwpsn  file "D:/BM1000/sw/drivers/drvic/modbus/mb.c",line 173,column 5,is_stmt
    1116 0000002b 8AE4          MOVL      XAR4,*+XAR4[4]        ; [CPU_] |173| 
    1117              $C$DW$65        .dwtag  DW_TAG_TI_branch
    1118                      .dwattr $C$DW$65, DW_AT_low_pc(0x00)
    1119                      .dwattr $C$DW$65, DW_AT_name("_SCI_putDataBlocking")
    1120                      .dwattr $C$DW$65, DW_AT_TI_call
    1121 0000002c 7640!         LCR       #_SCI_putDataBlocking ; [CPU_] |173| 
         0000002d 0000 
    1122                      ; call occurs [#_SCI_putDataBlocking] ; [] |173| 
    1123                      .dwpsn  file "D:/BM1000/sw/drivers/drvic/modbus/mb.c",line 175,column 5,is_stmt
    1124 0000002e 9A01          MOVB      AL,#1                 ; [CPU_] |175| 
    1125              $C$DW$66        .dwtag  DW_TAG_TI_branch
    1126                      .dwattr $C$DW$66, DW_AT_low_pc(0x00)
    1127                      .dwattr $C$DW$66, DW_AT_TI_return
    1128 0000002f 0006          LRETR     ; [CPU_] 
    1129                      ; return occurs ; [] 
    1130                      .dwattr $C$DW$60, DW_AT_TI_end_file("D:/BM1000/sw/drivers/drvic/modbus/mb.c")
    1131                      .dwattr $C$DW$60, DW_AT_TI_end_line(0xb0)
    1132                      .dwattr $C$DW$60, DW_AT_TI_end_column(0x01)
    1133                      .dwendentry
    1134                      .dwendtag $C$DW$60
    1135              
    1136 00000030               .sect   ".text"
    1137                      .clink
    1138                      .global _MB_RTUTransmitFSM
    1139              
    1140              $C$DW$67        .dwtag  DW_TAG_subprogram, DW_AT_name("MB_RTUTransmitFSM")
    1141                      .dwattr $C$DW$67, DW_AT_low_pc(_MB_RTUTransmitFSM)
    1142                      .dwattr $C$DW$67, DW_AT_high_pc(0x00)
    1143                      .dwattr $C$DW$67, DW_AT_TI_symbol_name("_MB_RTUTransmitFSM")
    1144                      .dwattr $C$DW$67, DW_AT_external
    1145                      .dwattr $C$DW$67, DW_AT_TI_begin_file("D:/BM1000/sw/drivers/drvic/modbus/mb.c")
    1146                      .dwattr $C$DW$67, DW_AT_TI_begin_line(0xee)
    1147                      .dwattr $C$DW$67, DW_AT_TI_begin_column(0x06)
    1148                      .dwattr $C$DW$67, DW_AT_TI_max_frame_size(-4)
    1149                      .dwpsn  file "D:/BM1000/sw/drivers/drvic/modbus/mb.c",line 239,column 1,is_stmt,address _MB_RTUTransm
TMS320C2000 Assembler PC v6.2.5 Fri Sep 15 11:07:51 2017

Tools Copyright (c) 1996-2014 Texas Instruments Incorporated
C:\Users\wmj\AppData\Local\Temp\0762011                              PAGE   22

    1150              
    1151                      .dwfde $C$DW$CIE, _MB_RTUTransmitFSM
    1152              $C$DW$68        .dwtag  DW_TAG_formal_parameter, DW_AT_name("handle")
    1153                      .dwattr $C$DW$68, DW_AT_TI_symbol_name("_handle")
    1154                      .dwattr $C$DW$68, DW_AT_type(*$C$DW$T$57)
    1155                      .dwattr $C$DW$68, DW_AT_location[DW_OP_reg12]
    1156              
    1157              ;***************************************************************
    1158              ;* FNAME: _MB_RTUTransmitFSM            FR SIZE:   2           *
    1159              ;*                                                             *
    1160              ;* FUNCTION ENVIRONMENT                                        *
    1161              ;*                                                             *
    1162              ;* FUNCTION PROPERTIES                                         *
    1163              ;*                            0 Parameter,  0 Auto,  2 SOE     *
    1164              ;***************************************************************
    1165              
    1166              _MB_RTUTransmitFSM:
    1167              ;* AR1   assigned to _handle
    1168              $C$DW$69        .dwtag  DW_TAG_variable, DW_AT_name("handle")
    1169                      .dwattr $C$DW$69, DW_AT_TI_symbol_name("_handle")
    1170                      .dwattr $C$DW$69, DW_AT_type(*$C$DW$T$71)
    1171                      .dwattr $C$DW$69, DW_AT_location[DW_OP_reg6]
    1172                      .dwcfi  cfa_offset, -2
    1173                      .dwcfi  save_reg_to_mem, 26, 0
    1174                      .dwcfi  save_reg_to_reg, 78, 26
    1175 00000030 B2BD          MOVL      *SP++,XAR1            ; [CPU_] 
    1176                      .dwcfi  save_reg_to_mem, 7, 2
    1177                      .dwcfi  cfa_offset, -4
    1178                      .dwpsn  file "D:/BM1000/sw/drivers/drvic/modbus/mb.c",line 244,column 5,is_stmt
    1179 00000031 D017          MOVB      XAR0,#23              ; [CPU_] |244| 
    1180                      .dwpsn  file "D:/BM1000/sw/drivers/drvic/modbus/mb.c",line 239,column 1,is_stmt
    1181 00000032 8BA4          MOVL      XAR1,XAR4             ; [CPU_] |239| 
    1182                      .dwpsn  file "D:/BM1000/sw/drivers/drvic/modbus/mb.c",line 244,column 5,is_stmt
    1183 00000033 9291          MOV       AL,*+XAR1[AR0]        ; [CPU_] |244| 
    1184 00000034 EC1D          BF        $C$L7,EQ              ; [CPU_] |244| 
    1185                      ; branchcc occurs ; [] |244| 
    1186 00000035 5201          CMPB      AL,#1                 ; [CPU_] |244| 
    1187 00000036 ED1F          BF        $C$L8,NEQ             ; [CPU_] |244| 
    1188                      ; branchcc occurs ; [] |244| 
    1189                      .dwpsn  file "D:/BM1000/sw/drivers/drvic/modbus/mb.c",line 252,column 9,is_stmt
    1190 00000037 D014          MOVB      XAR0,#20              ; [CPU_] |252| 
    1191 00000038 9291          MOV       AL,*+XAR1[AR0]        ; [CPU_] |252| 
    1192 00000039 ED0B          BF        $C$L6,NEQ             ; [CPU_] |252| 
    1193                      ; branchcc occurs ; [] |252| 
    1194                      .dwpsn  file "D:/BM1000/sw/drivers/drvic/modbus/mb.c",line 260,column 11,is_stmt
    1195 0000003a 9A03          MOVB      AL,#3                 ; [CPU_] |260| 
    1196              $C$DW$70        .dwtag  DW_TAG_TI_branch
    1197                      .dwattr $C$DW$70, DW_AT_low_pc(0x00)
    1198                      .dwattr $C$DW$70, DW_AT_name("_MB_PortEventPost")
    1199                      .dwattr $C$DW$70, DW_AT_TI_call
    1200 0000003b 7640'         LCR       #_MB_PortEventPost    ; [CPU_] |260| 
         0000003c 000C 
    1201                      ; call occurs [#_MB_PortEventPost] ; [] |260| 
    1202                      .dwpsn  file "D:/BM1000/sw/drivers/drvic/modbus/mb.c",line 262,column 11,is_stmt
    1203 0000003d 9B00          MOVB      AH,#0                 ; [CPU_] |262| 
TMS320C2000 Assembler PC v6.2.5 Fri Sep 15 11:07:51 2017

Tools Copyright (c) 1996-2014 Texas Instruments Incorporated
C:\Users\wmj\AppData\Local\Temp\0762011                              PAGE   23

    1204 0000003e 9A01          MOVB      AL,#1                 ; [CPU_] |262| 
    1205              $C$DW$71        .dwtag  DW_TAG_TI_branch
    1206                      .dwattr $C$DW$71, DW_AT_low_pc(0x00)
    1207                      .dwattr $C$DW$71, DW_AT_name("_MB_PortSerialEnable")
    1208                      .dwattr $C$DW$71, DW_AT_TI_call
    1209 0000003f 7640'         LCR       #_MB_PortSerialEnable ; [CPU_] |262| 
         00000040 0012 
    1210                      ; call occurs [#_MB_PortSerialEnable] ; [] |262| 
    1211                      .dwpsn  file "D:/BM1000/sw/drivers/drvic/modbus/mb.c",line 263,column 11,is_stmt
    1212 00000041 D017          MOVB      XAR0,#23              ; [CPU_] |263| 
    1213 00000042 2B91          MOV       *+XAR1[AR0],#0        ; [CPU_] |263| 
    1214 00000043 6F12          B         $C$L8,UNC             ; [CPU_] |263| 
    1215                      ; branch occurs ; [] |263| 
    1216 00000044       $C$L6:    
    1217                      .dwpsn  file "D:/BM1000/sw/drivers/drvic/modbus/mb.c",line 254,column 12,is_stmt
    1218 00000044 DC12          ADDB      XAR4,#18              ; [CPU_] |254| 
    1219 00000045 0201          MOVB      ACC,#1                ; [CPU_] |254| 
    1220                      .dwpsn  file "D:/BM1000/sw/drivers/drvic/modbus/mb.c",line 255,column 12,is_stmt
    1221 00000046 D012          MOVB      XAR0,#18              ; [CPU_] |255| 
    1222                      .dwpsn  file "D:/BM1000/sw/drivers/drvic/modbus/mb.c",line 254,column 12,is_stmt
    1223 00000047 5601          ADDL      *+XAR4[0],ACC         ; [CPU_] |254| 
         00000048 00C4 
    1224                      .dwpsn  file "D:/BM1000/sw/drivers/drvic/modbus/mb.c",line 255,column 12,is_stmt
    1225 00000049 8A91          MOVL      XAR4,*+XAR1[AR0]      ; [CPU_] |255| 
    1226 0000004a 92C4          MOV       AL,*+XAR4[0]          ; [CPU_] |255| 
    1227 0000004b 8AA1          MOVL      XAR4,XAR1             ; [CPU_] |255| 
    1228              $C$DW$72        .dwtag  DW_TAG_TI_branch
    1229                      .dwattr $C$DW$72, DW_AT_low_pc(0x00)
    1230                      .dwattr $C$DW$72, DW_AT_name("_MB_PortSerialPutByte")
    1231                      .dwattr $C$DW$72, DW_AT_TI_call
    1232 0000004c 7640'         LCR       #_MB_PortSerialPutByte ; [CPU_] |255| 
         0000004d 002B 
    1233                      ; call occurs [#_MB_PortSerialPutByte] ; [] |255| 
    1234                      .dwpsn  file "D:/BM1000/sw/drivers/drvic/modbus/mb.c",line 256,column 12,is_stmt
    1235 0000004e D914          ADDB      XAR1,#20              ; [CPU_] |256| 
    1236 0000004f 0BC1          DEC       *+XAR1[0]             ; [CPU_] |256| 
    1237                      .dwpsn  file "D:/BM1000/sw/drivers/drvic/modbus/mb.c",line 257,column 10,is_stmt
    1238 00000050 6F05          B         $C$L8,UNC             ; [CPU_] |257| 
    1239                      ; branch occurs ; [] |257| 
    1240 00000051       $C$L7:    
    1241                      .dwpsn  file "D:/BM1000/sw/drivers/drvic/modbus/mb.c",line 248,column 9,is_stmt
    1242 00000051 9A01          MOVB      AL,#1                 ; [CPU_] |248| 
    1243 00000052 9B00          MOVB      AH,#0                 ; [CPU_] |248| 
    1244              $C$DW$73        .dwtag  DW_TAG_TI_branch
    1245                      .dwattr $C$DW$73, DW_AT_low_pc(0x00)
    1246                      .dwattr $C$DW$73, DW_AT_name("_MB_PortSerialEnable")
    1247                      .dwattr $C$DW$73, DW_AT_TI_call
    1248 00000053 7640'         LCR       #_MB_PortSerialEnable ; [CPU_] |248| 
         00000054 0012 
    1249                      ; call occurs [#_MB_PortSerialEnable] ; [] |248| 
    1250 00000055       $C$L8:    
    1251 00000055 8BBE          MOVL      XAR1,*--SP            ; [CPU_] 
    1252                      .dwcfi  cfa_offset, -2
    1253                      .dwcfi  restore_reg, 7
    1254              $C$DW$74        .dwtag  DW_TAG_TI_branch
TMS320C2000 Assembler PC v6.2.5 Fri Sep 15 11:07:51 2017

Tools Copyright (c) 1996-2014 Texas Instruments Incorporated
C:\Users\wmj\AppData\Local\Temp\0762011                              PAGE   24

    1255                      .dwattr $C$DW$74, DW_AT_low_pc(0x00)
    1256                      .dwattr $C$DW$74, DW_AT_TI_return
    1257 00000056 0006          LRETR     ; [CPU_] 
    1258                      ; return occurs ; [] 
    1259                      .dwattr $C$DW$67, DW_AT_TI_end_file("D:/BM1000/sw/drivers/drvic/modbus/mb.c")
    1260                      .dwattr $C$DW$67, DW_AT_TI_end_line(0x10d)
    1261                      .dwattr $C$DW$67, DW_AT_TI_end_column(0x01)
    1262                      .dwendentry
    1263                      .dwendtag $C$DW$67
    1264              
    1265 00000057               .sect   ".text"
    1266                      .clink
    1267                      .global _MB_PortTimersDisable
    1268              
    1269              $C$DW$75        .dwtag  DW_TAG_subprogram, DW_AT_name("MB_PortTimersDisable")
    1270                      .dwattr $C$DW$75, DW_AT_low_pc(_MB_PortTimersDisable)
    1271                      .dwattr $C$DW$75, DW_AT_high_pc(0x00)
    1272                      .dwattr $C$DW$75, DW_AT_TI_symbol_name("_MB_PortTimersDisable")
    1273                      .dwattr $C$DW$75, DW_AT_external
    1274                      .dwattr $C$DW$75, DW_AT_TI_begin_file("D:/BM1000/sw/drivers/drvic/modbus/mb.c")
    1275                      .dwattr $C$DW$75, DW_AT_TI_begin_line(0x81)
    1276                      .dwattr $C$DW$75, DW_AT_TI_begin_column(0x06)
    1277                      .dwattr $C$DW$75, DW_AT_TI_max_frame_size(-2)
    1278                      .dwpsn  file "D:/BM1000/sw/drivers/drvic/modbus/mb.c",line 130,column 1,is_stmt,address _MB_PortTimer
    1279              
    1280                      .dwfde $C$DW$CIE, _MB_PortTimersDisable
    1281              $C$DW$76        .dwtag  DW_TAG_formal_parameter, DW_AT_name("handle")
    1282                      .dwattr $C$DW$76, DW_AT_TI_symbol_name("_handle")
    1283                      .dwattr $C$DW$76, DW_AT_type(*$C$DW$T$57)
    1284                      .dwattr $C$DW$76, DW_AT_location[DW_OP_reg12]
    1285              
    1286              ;***************************************************************
    1287              ;* FNAME: _MB_PortTimersDisable         FR SIZE:   0           *
    1288              ;*                                                             *
    1289              ;* FUNCTION ENVIRONMENT                                        *
    1290              ;*                                                             *
    1291              ;* FUNCTION PROPERTIES                                         *
    1292              ;*                            0 Parameter,  0 Auto,  0 SOE     *
    1293              ;***************************************************************
    1294              
    1295              _MB_PortTimersDisable:
    1296              ;* AR4   assigned to _handle
    1297              $C$DW$77        .dwtag  DW_TAG_variable, DW_AT_name("handle")
    1298                      .dwattr $C$DW$77, DW_AT_TI_symbol_name("_handle")
    1299                      .dwattr $C$DW$77, DW_AT_type(*$C$DW$T$71)
    1300                      .dwattr $C$DW$77, DW_AT_location[DW_OP_reg12]
    1301                      .dwcfi  cfa_offset, -2
    1302                      .dwcfi  save_reg_to_mem, 26, 0
    1303                      .dwcfi  save_reg_to_reg, 78, 26
    1304                      .dwpsn  file "D:/BM1000/sw/drivers/timer/src/32b/f28x/f2802x/timer.h",line 276,column 5,is_stmt
    1305 00000057 8AD4          MOVL      XAR4,*+XAR4[2]        ; [CPU_] |276| 
    1306 00000058 1AE4          OR        *+XAR4[4],#0x0010     ; [CPU_] |276| 
         00000059 0010 
    1307              $C$DW$78        .dwtag  DW_TAG_TI_branch
    1308                      .dwattr $C$DW$78, DW_AT_low_pc(0x00)
TMS320C2000 Assembler PC v6.2.5 Fri Sep 15 11:07:51 2017

Tools Copyright (c) 1996-2014 Texas Instruments Incorporated
C:\Users\wmj\AppData\Local\Temp\0762011                              PAGE   25

    1309                      .dwattr $C$DW$78, DW_AT_TI_return
    1310 0000005a 0006          LRETR     ; [CPU_] 
    1311                      ; return occurs ; [] 
    1312                      .dwattr $C$DW$75, DW_AT_TI_end_file("D:/BM1000/sw/drivers/drvic/modbus/mb.c")
    1313                      .dwattr $C$DW$75, DW_AT_TI_end_line(0x88)
    1314                      .dwattr $C$DW$75, DW_AT_TI_end_column(0x01)
    1315                      .dwendentry
    1316                      .dwendtag $C$DW$75
    1317              
    1318 0000005b               .sect   ".text"
    1319                      .clink
    1320                      .global _MB_RTUTimerFSM
    1321              
    1322              $C$DW$79        .dwtag  DW_TAG_subprogram, DW_AT_name("MB_RTUTimerFSM")
    1323                      .dwattr $C$DW$79, DW_AT_low_pc(_MB_RTUTimerFSM)
    1324                      .dwattr $C$DW$79, DW_AT_high_pc(0x00)
    1325                      .dwattr $C$DW$79, DW_AT_TI_symbol_name("_MB_RTUTimerFSM")
    1326                      .dwattr $C$DW$79, DW_AT_external
    1327                      .dwattr $C$DW$79, DW_AT_TI_begin_file("D:/BM1000/sw/drivers/drvic/modbus/mb.c")
    1328                      .dwattr $C$DW$79, DW_AT_TI_begin_line(0xdb)
    1329                      .dwattr $C$DW$79, DW_AT_TI_begin_column(0x06)
    1330                      .dwattr $C$DW$79, DW_AT_TI_max_frame_size(-2)
    1331                      .dwpsn  file "D:/BM1000/sw/drivers/drvic/modbus/mb.c",line 220,column 1,is_stmt,address _MB_RTUTimerF
    1332              
    1333                      .dwfde $C$DW$CIE, _MB_RTUTimerFSM
    1334              $C$DW$80        .dwtag  DW_TAG_formal_parameter, DW_AT_name("handle")
    1335                      .dwattr $C$DW$80, DW_AT_TI_symbol_name("_handle")
    1336                      .dwattr $C$DW$80, DW_AT_type(*$C$DW$T$57)
    1337                      .dwattr $C$DW$80, DW_AT_location[DW_OP_reg12]
    1338              
    1339              ;***************************************************************
    1340              ;* FNAME: _MB_RTUTimerFSM               FR SIZE:   0           *
    1341              ;*                                                             *
    1342              ;* FUNCTION ENVIRONMENT                                        *
    1343              ;*                                                             *
    1344              ;* FUNCTION PROPERTIES                                         *
    1345              ;*                            0 Parameter,  0 Auto,  0 SOE     *
    1346              ;***************************************************************
    1347              
    1348              _MB_RTUTimerFSM:
    1349              ;* AR5   assigned to _handle
    1350              $C$DW$81        .dwtag  DW_TAG_variable, DW_AT_name("handle")
    1351                      .dwattr $C$DW$81, DW_AT_TI_symbol_name("_handle")
    1352                      .dwattr $C$DW$81, DW_AT_type(*$C$DW$T$71)
    1353                      .dwattr $C$DW$81, DW_AT_location[DW_OP_reg14]
    1354                      .dwcfi  cfa_offset, -2
    1355                      .dwcfi  save_reg_to_mem, 26, 0
    1356                      .dwcfi  save_reg_to_reg, 78, 26
    1357 0000005b 83A4          MOVL      XAR5,XAR4             ; [CPU_] |220| 
    1358                      .dwpsn  file "D:/BM1000/sw/drivers/drvic/modbus/mb.c",line 223,column 5,is_stmt
    1359 0000005c D018          MOVB      XAR0,#24              ; [CPU_] |223| 
    1360 0000005d 9295          MOV       AL,*+XAR5[AR0]        ; [CPU_] |223| 
    1361 0000005e EC05          BF        $C$L9,EQ              ; [CPU_] |223| 
    1362                      ; branchcc occurs ; [] |223| 
    1363 0000005f 5202          CMPB      AL,#2                 ; [CPU_] |223| 
TMS320C2000 Assembler PC v6.2.5 Fri Sep 15 11:07:51 2017

Tools Copyright (c) 1996-2014 Texas Instruments Incorporated
C:\Users\wmj\AppData\Local\Temp\0762011                              PAGE   26

    1364 00000060 ED06          BF        $C$L11,NEQ            ; [CPU_] |223| 
    1365                      ; branchcc occurs ; [] |223| 
    1366                      .dwpsn  file "D:/BM1000/sw/drivers/drvic/modbus/mb.c",line 227,column 25,is_stmt
    1367 00000061 9A01          MOVB      AL,#1                 ; [CPU_] |227| 
    1368                      .dwpsn  file "D:/BM1000/sw/drivers/drvic/modbus/mb.c",line 227,column 70,is_stmt
    1369 00000062 6F02          B         $C$L10,UNC            ; [CPU_] |227| 
    1370                      ; branch occurs ; [] |227| 
    1371 00000063       $C$L9:    
    1372                      .dwpsn  file "D:/BM1000/sw/drivers/drvic/modbus/mb.c",line 226,column 25,is_stmt
    1373 00000063 9A00          MOVB      AL,#0                 ; [CPU_] |226| 
    1374              $C$L10:    
    1375              $C$DW$82        .dwtag  DW_TAG_TI_branch
    1376                      .dwattr $C$DW$82, DW_AT_low_pc(0x00)
    1377                      .dwattr $C$DW$82, DW_AT_name("_MB_PortEventPost")
    1378                      .dwattr $C$DW$82, DW_AT_TI_call
    1379 00000064 7640'         LCR       #_MB_PortEventPost    ; [CPU_] |226| 
         00000065 000C 
    1380                      ; call occurs [#_MB_PortEventPost] ; [] |226| 
    1381 00000066       $C$L11:    
    1382                      .dwpsn  file "D:/BM1000/sw/drivers/drvic/modbus/mb.c",line 232,column 5,is_stmt
    1383              $C$DW$83        .dwtag  DW_TAG_TI_branch
    1384                      .dwattr $C$DW$83, DW_AT_low_pc(0x00)
    1385                      .dwattr $C$DW$83, DW_AT_name("_MB_PortTimersDisable")
    1386                      .dwattr $C$DW$83, DW_AT_TI_call
    1387 00000066 7640'         LCR       #_MB_PortTimersDisable ; [CPU_] |232| 
         00000067 0057 
    1388                      ; call occurs [#_MB_PortTimersDisable] ; [] |232| 
    1389                      .dwpsn  file "D:/BM1000/sw/drivers/drvic/modbus/mb.c",line 233,column 5,is_stmt
    1390 00000068 D018          MOVB      XAR0,#24              ; [CPU_] |233| 
    1391 00000069 56BF          MOVB      *+XAR5[AR0],#1,UNC    ; [CPU_] |233| 
         0000006a 0195 
    1392              $C$DW$84        .dwtag  DW_TAG_TI_branch
    1393                      .dwattr $C$DW$84, DW_AT_low_pc(0x00)
    1394                      .dwattr $C$DW$84, DW_AT_TI_return
    1395 0000006b 0006          LRETR     ; [CPU_] 
    1396                      ; return occurs ; [] 
    1397                      .dwattr $C$DW$79, DW_AT_TI_end_file("D:/BM1000/sw/drivers/drvic/modbus/mb.c")
    1398                      .dwattr $C$DW$79, DW_AT_TI_end_line(0xec)
    1399                      .dwattr $C$DW$79, DW_AT_TI_end_column(0x01)
    1400                      .dwendentry
    1401                      .dwendtag $C$DW$79
    1402              
    1403 0000006c               .sect   ".text"
    1404                      .clink
    1405                      .global _MB_CRC16
    1406              
    1407              $C$DW$85        .dwtag  DW_TAG_subprogram, DW_AT_name("MB_CRC16")
    1408                      .dwattr $C$DW$85, DW_AT_low_pc(_MB_CRC16)
    1409                      .dwattr $C$DW$85, DW_AT_high_pc(0x00)
    1410                      .dwattr $C$DW$85, DW_AT_TI_symbol_name("_MB_CRC16")
    1411                      .dwattr $C$DW$85, DW_AT_external
    1412                      .dwattr $C$DW$85, DW_AT_type(*$C$DW$T$21)
    1413                      .dwattr $C$DW$85, DW_AT_TI_begin_file("D:/BM1000/sw/drivers/drvic/modbus/mb.c")
    1414                      .dwattr $C$DW$85, DW_AT_TI_begin_line(0x3b)
    1415                      .dwattr $C$DW$85, DW_AT_TI_begin_column(0x0a)
TMS320C2000 Assembler PC v6.2.5 Fri Sep 15 11:07:51 2017

Tools Copyright (c) 1996-2014 Texas Instruments Incorporated
C:\Users\wmj\AppData\Local\Temp\0762011                              PAGE   27

    1416                      .dwattr $C$DW$85, DW_AT_TI_max_frame_size(-2)
    1417                      .dwpsn  file "D:/BM1000/sw/drivers/drvic/modbus/mb.c",line 60,column 1,is_stmt,address _MB_CRC16
    1418              
    1419                      .dwfde $C$DW$CIE, _MB_CRC16
    1420              $C$DW$86        .dwtag  DW_TAG_formal_parameter, DW_AT_name("PDU_Frame")
    1421                      .dwattr $C$DW$86, DW_AT_TI_symbol_name("_PDU_Frame")
    1422                      .dwattr $C$DW$86, DW_AT_type(*$C$DW$T$105)
    1423                      .dwattr $C$DW$86, DW_AT_location[DW_OP_reg12]
    1424              $C$DW$87        .dwtag  DW_TAG_formal_parameter, DW_AT_name("Length")
    1425                      .dwattr $C$DW$87, DW_AT_TI_symbol_name("_Length")
    1426                      .dwattr $C$DW$87, DW_AT_type(*$C$DW$T$21)
    1427                      .dwattr $C$DW$87, DW_AT_location[DW_OP_reg0]
    1428              
    1429              ;***************************************************************
    1430              ;* FNAME: _MB_CRC16                     FR SIZE:   0           *
    1431              ;*                                                             *
    1432              ;* FUNCTION ENVIRONMENT                                        *
    1433              ;*                                                             *
    1434              ;* FUNCTION PROPERTIES                                         *
    1435              ;*                            0 Parameter,  0 Auto,  0 SOE     *
    1436              ;***************************************************************
    1437              
    1438              _MB_CRC16:
    1439              ;* AL    assigned to _iIndex
    1440              $C$DW$88        .dwtag  DW_TAG_variable, DW_AT_name("iIndex")
    1441                      .dwattr $C$DW$88, DW_AT_TI_symbol_name("_iIndex")
    1442                      .dwattr $C$DW$88, DW_AT_type(*$C$DW$T$10)
    1443                      .dwattr $C$DW$88, DW_AT_location[DW_OP_reg0]
    1444              ;* PL    assigned to _ucCRCLo
    1445              $C$DW$89        .dwtag  DW_TAG_variable, DW_AT_name("ucCRCLo")
    1446                      .dwattr $C$DW$89, DW_AT_TI_symbol_name("_ucCRCLo")
    1447                      .dwattr $C$DW$89, DW_AT_type(*$C$DW$T$6)
    1448                      .dwattr $C$DW$89, DW_AT_location[DW_OP_reg2]
    1449              ;* AR7   assigned to _ucCRCHi
    1450              $C$DW$90        .dwtag  DW_TAG_variable, DW_AT_name("ucCRCHi")
    1451                      .dwattr $C$DW$90, DW_AT_TI_symbol_name("_ucCRCHi")
    1452                      .dwattr $C$DW$90, DW_AT_type(*$C$DW$T$6)
    1453                      .dwattr $C$DW$90, DW_AT_location[DW_OP_reg18]
    1454              ;* AR6   assigned to _Length
    1455              $C$DW$91        .dwtag  DW_TAG_variable, DW_AT_name("Length")
    1456                      .dwattr $C$DW$91, DW_AT_TI_symbol_name("_Length")
    1457                      .dwattr $C$DW$91, DW_AT_type(*$C$DW$T$21)
    1458                      .dwattr $C$DW$91, DW_AT_location[DW_OP_reg16]
    1459              ;* AR4   assigned to _PDU_Frame
    1460              $C$DW$92        .dwtag  DW_TAG_variable, DW_AT_name("PDU_Frame")
    1461                      .dwattr $C$DW$92, DW_AT_TI_symbol_name("_PDU_Frame")
    1462                      .dwattr $C$DW$92, DW_AT_type(*$C$DW$T$105)
    1463                      .dwattr $C$DW$92, DW_AT_location[DW_OP_reg12]
    1464              ;* AR6   assigned to $O$L1
    1465                      .dwcfi  cfa_offset, -2
    1466                      .dwcfi  save_reg_to_mem, 26, 0
    1467                      .dwcfi  save_reg_to_reg, 78, 26
    1468 0000006c 88A9          MOVZ      AR6,AL                ; [CPU_] |60| 
    1469 0000006d 2901          CLRC      SXM                   ; [CPU_] 
    1470                      .dwpsn  file "D:/BM1000/sw/drivers/drvic/modbus/mb.c",line 61,column 29,is_stmt
TMS320C2000 Assembler PC v6.2.5 Fri Sep 15 11:07:51 2017

Tools Copyright (c) 1996-2014 Texas Instruments Incorporated
C:\Users\wmj\AppData\Local\Temp\0762011                              PAGE   28

    1471 0000006e B6FF          MOVB      XAR7,#255             ; [CPU_] |61| 
    1472                      .dwpsn  file "D:/BM1000/sw/drivers/drvic/modbus/mb.c",line 62,column 29,is_stmt
    1473 0000006f 28AB          MOV       PL,#255               ; [CPU_] |62| 
         00000070 00FF 
    1474                      .dwpsn  file "D:/BM1000/sw/drivers/drvic/modbus/mb.c",line 70,column 5,is_stmt
    1475 00000071 DE81          SUBB      XAR6,#1               ; [CPU_U] |70| 
    1476 00000072 FF20          MOV       ACC,#65535            ; [CPU_] |70| 
         00000073 FFFF 
    1477 00000074 58A6          MOVZ      AR0,AR6               ; [CPU_] |70| 
    1478 00000075 0FA0          CMPL      ACC,XAR0              ; [CPU_] |70| 
    1479 00000076 EC14          BF        $C$L13,EQ             ; [CPU_] |70| 
    1480                      ; branchcc occurs ; [] |70| 
    1481 00000077       $C$L12:    
    1482                      .dwpsn  file "D:/BM1000/sw/drivers/drvic/modbus/mb.c",line 67,column 9,is_stmt
    1483 00000077 92AB          MOV       AL,PL                 ; [CPU_] |67| 
    1484 00000078 3B01          SETC      SXM                   ; [CPU_] 
    1485                      .dwpsn  file "D:/BM1000/sw/drivers/drvic/modbus/mb.c",line 68,column 9,is_stmt
    1486 00000079 8F40+         MOVL      XAR5,#_aucCRCHi       ; [CPU_U] |68| 
         0000007a 0000 
    1487                      .dwpsn  file "D:/BM1000/sw/drivers/drvic/modbus/mb.c",line 67,column 9,is_stmt
    1488 0000007b 7084          XOR       AL,*XAR4++            ; [CPU_] |67| 
    1489                      .dwpsn  file "D:/BM1000/sw/drivers/drvic/modbus/mb.c",line 68,column 9,is_stmt
    1490 0000007c 85A9          MOV       ACC,AL                ; [CPU_] |68| 
    1491 0000007d 5601          ADDL      XAR5,ACC              ; [CPU_] |68| 
         0000007e 00A5 
    1492 0000007f 93A7          MOV       AH,AR7                ; [CPU_] |68| 
    1493 00000080 71C5          XOR       AH,*+XAR5[0]          ; [CPU_] |68| 
    1494 00000081 27A8          MOV       PL,AH                 ; [CPU_] |68| 
    1495                      .dwpsn  file "D:/BM1000/sw/drivers/drvic/modbus/mb.c",line 69,column 9,is_stmt
    1496 00000082 8F40+         MOVL      XAR5,#_aucCRCLo       ; [CPU_U] |69| 
         00000083 0000 
    1497 00000084 85A9          MOV       ACC,AL                ; [CPU_] |69| 
    1498 00000085 5601          ADDL      XAR5,ACC              ; [CPU_] |69| 
         00000086 00A5 
    1499 00000087 80C5          MOVZ      AR7,*+XAR5[0]         ; [CPU_] |69| 
    1500 00000088 000E          BANZ      $C$L12,AR6--          ; [CPU_] |69| 
         00000089 FFEF 
    1501                      ; branchcc occurs ; [] |69| 
    1502 0000008a       $C$L13:    
    1503                      .dwpsn  file "D:/BM1000/sw/drivers/drvic/modbus/mb.c",line 71,column 5,is_stmt
    1504 0000008a 5603          MOV       ACC,AR7 << #8         ; [CPU_] |71| 
         0000008b 08A7 
    1505 0000008c CAAB          OR        AL,PL                 ; [CPU_] |71| 
    1506              $C$DW$93        .dwtag  DW_TAG_TI_branch
    1507                      .dwattr $C$DW$93, DW_AT_low_pc(0x00)
    1508                      .dwattr $C$DW$93, DW_AT_TI_return
    1509 0000008d 0006          LRETR     ; [CPU_] 
    1510                      ; return occurs ; [] 
    1511                      .dwattr $C$DW$85, DW_AT_TI_end_file("D:/BM1000/sw/drivers/drvic/modbus/mb.c")
    1512                      .dwattr $C$DW$85, DW_AT_TI_end_line(0x48)
    1513                      .dwattr $C$DW$85, DW_AT_TI_end_column(0x01)
    1514                      .dwendentry
    1515                      .dwendtag $C$DW$85
    1516              
    1517 0000008e               .sect   ".text"
TMS320C2000 Assembler PC v6.2.5 Fri Sep 15 11:07:51 2017

Tools Copyright (c) 1996-2014 Texas Instruments Incorporated
C:\Users\wmj\AppData\Local\Temp\0762011                              PAGE   29

    1518                      .clink
    1519                      .global _MB_RTUSend
    1520              
    1521              $C$DW$94        .dwtag  DW_TAG_subprogram, DW_AT_name("MB_RTUSend")
    1522                      .dwattr $C$DW$94, DW_AT_low_pc(_MB_RTUSend)
    1523                      .dwattr $C$DW$94, DW_AT_high_pc(0x00)
    1524                      .dwattr $C$DW$94, DW_AT_TI_symbol_name("_MB_RTUSend")
    1525                      .dwattr $C$DW$94, DW_AT_external
    1526                      .dwattr $C$DW$94, DW_AT_type(*$C$DW$T$43)
    1527                      .dwattr $C$DW$94, DW_AT_TI_begin_file("D:/BM1000/sw/drivers/drvic/modbus/mb.c")
    1528                      .dwattr $C$DW$94, DW_AT_TI_begin_line(0x149)
    1529                      .dwattr $C$DW$94, DW_AT_TI_begin_column(0x0e)
    1530                      .dwattr $C$DW$94, DW_AT_TI_max_frame_size(-8)
    1531                      .dwpsn  file "D:/BM1000/sw/drivers/drvic/modbus/mb.c",line 330,column 1,is_stmt,address _MB_RTUSend
    1532              
    1533                      .dwfde $C$DW$CIE, _MB_RTUSend
    1534              $C$DW$95        .dwtag  DW_TAG_formal_parameter, DW_AT_name("handle")
    1535                      .dwattr $C$DW$95, DW_AT_TI_symbol_name("_handle")
    1536                      .dwattr $C$DW$95, DW_AT_type(*$C$DW$T$57)
    1537                      .dwattr $C$DW$95, DW_AT_location[DW_OP_reg12]
    1538              
    1539              ;***************************************************************
    1540              ;* FNAME: _MB_RTUSend                   FR SIZE:   6           *
    1541              ;*                                                             *
    1542              ;* FUNCTION ENVIRONMENT                                        *
    1543              ;*                                                             *
    1544              ;* FUNCTION PROPERTIES                                         *
    1545              ;*                            0 Parameter,  0 Auto,  6 SOE     *
    1546              ;***************************************************************
    1547              
    1548              _MB_RTUSend:
    1549              ;* AR3   assigned to $O$C3
    1550              ;* PH    assigned to $O$C4
    1551              ;* AL    assigned to _usCRC16
    1552              $C$DW$96        .dwtag  DW_TAG_variable, DW_AT_name("usCRC16")
    1553                      .dwattr $C$DW$96, DW_AT_TI_symbol_name("_usCRC16")
    1554                      .dwattr $C$DW$96, DW_AT_type(*$C$DW$T$41)
    1555                      .dwattr $C$DW$96, DW_AT_location[DW_OP_reg0]
    1556              ;* AL    assigned to _eStatus
    1557              $C$DW$97        .dwtag  DW_TAG_variable, DW_AT_name("eStatus")
    1558                      .dwattr $C$DW$97, DW_AT_TI_symbol_name("_eStatus")
    1559                      .dwattr $C$DW$97, DW_AT_type(*$C$DW$T$43)
    1560                      .dwattr $C$DW$97, DW_AT_location[DW_OP_reg0]
    1561              ;* AR2   assigned to _handle
    1562              $C$DW$98        .dwtag  DW_TAG_variable, DW_AT_name("handle")
    1563                      .dwattr $C$DW$98, DW_AT_TI_symbol_name("_handle")
    1564                      .dwattr $C$DW$98, DW_AT_type(*$C$DW$T$71)
    1565                      .dwattr $C$DW$98, DW_AT_location[DW_OP_reg8]
    1566              ;* AR0   assigned to $O$T2
    1567              ;* AR0   assigned to $O$T1
    1568                      .dwcfi  cfa_offset, -2
    1569                      .dwcfi  save_reg_to_mem, 26, 0
    1570                      .dwcfi  save_reg_to_reg, 78, 26
    1571 0000008e B2BD          MOVL      *SP++,XAR1            ; [CPU_] 
    1572                      .dwcfi  save_reg_to_mem, 7, 2
TMS320C2000 Assembler PC v6.2.5 Fri Sep 15 11:07:51 2017

Tools Copyright (c) 1996-2014 Texas Instruments Incorporated
C:\Users\wmj\AppData\Local\Temp\0762011                              PAGE   30

    1573                      .dwcfi  cfa_offset, -4
    1574                      .dwpsn  file "D:/BM1000/sw/drivers/drvic/modbus/mb.c",line 336,column 5,is_stmt
    1575 0000008f D018          MOVB      XAR0,#24              ; [CPU_] |336| 
    1576 00000090 AABD          MOVL      *SP++,XAR2            ; [CPU_] 
    1577                      .dwcfi  save_reg_to_mem, 9, 4
    1578                      .dwcfi  cfa_offset, -6
    1579                      .dwpsn  file "D:/BM1000/sw/drivers/drvic/modbus/mb.c",line 330,column 1,is_stmt
    1580 00000091 86A4          MOVL      XAR2,XAR4             ; [CPU_] |330| 
    1581 00000092 A2BD          MOVL      *SP++,XAR3            ; [CPU_] 
    1582                      .dwcfi  save_reg_to_mem, 11, 6
    1583                      .dwcfi  cfa_offset, -8
    1584                      .dwpsn  file "D:/BM1000/sw/drivers/drvic/modbus/mb.c",line 336,column 5,is_stmt
    1585 00000093 9292          MOV       AL,*+XAR2[AR0]        ; [CPU_] |336| 
    1586 00000094 5201          CMPB      AL,#1                 ; [CPU_] |336| 
    1587 00000095 EC03          BF        $C$L14,EQ             ; [CPU_] |336| 
    1588                      ; branchcc occurs ; [] |336| 
    1589                      .dwpsn  file "D:/BM1000/sw/drivers/drvic/modbus/mb.c",line 359,column 9,is_stmt
    1590 00000096 9A05          MOVB      AL,#5                 ; [CPU_] |359| 
    1591 00000097 6F39          B         $C$L15,UNC            ; [CPU_] |359| 
    1592                      ; branch occurs ; [] |359| 
    1593 00000098       $C$L14:    
    1594                      .dwpsn  file "D:/BM1000/sw/drivers/drvic/modbus/mb.c",line 339,column 6,is_stmt
    1595 00000098 82A2          MOVL      XAR3,XAR2             ; [CPU_] |339| 
    1596 00000099 D012          MOVB      XAR0,#18              ; [CPU_] |339| 
    1597                      .dwpsn  file "D:/BM1000/sw/drivers/drvic/modbus/mb.c",line 343,column 6,is_stmt
    1598 0000009a C5A2          MOVL      XAR7,XAR2             ; [CPU_] |343| 
    1599                      .dwpsn  file "D:/BM1000/sw/drivers/drvic/modbus/mb.c",line 339,column 6,is_stmt
    1600 0000009b DB08          ADDB      XAR3,#8               ; [CPU_] |339| 
    1601 0000009c A292          MOVL      *+XAR2[AR0],XAR3      ; [CPU_] |339| 
    1602                      .dwpsn  file "D:/BM1000/sw/drivers/drvic/modbus/mb.c",line 340,column 6,is_stmt
    1603 0000009d D014          MOVB      XAR0,#20              ; [CPU_] |340| 
    1604 0000009e 56BF          MOVB      *+XAR2[AR0],#1,UNC    ; [CPU_] |340| 
         0000009f 0192 
    1605                      .dwpsn  file "D:/BM1000/sw/drivers/drvic/modbus/mb.c",line 343,column 6,is_stmt
    1606 000000a0 D012          MOVB      XAR0,#18              ; [CPU_] |343| 
    1607 000000a1 8A92          MOVL      XAR4,*+XAR2[AR0]      ; [CPU_] |343| 
    1608 000000a2 DF15          ADDB      XAR7,#21              ; [CPU_] |343| 
    1609 000000a3 92C7          MOV       AL,*XAR7              ; [CPU_] |343| 
    1610 000000a4 96C4          MOV       *+XAR4[0],AL          ; [CPU_] |343| 
    1611                      .dwpsn  file "D:/BM1000/sw/drivers/drvic/modbus/mb.c",line 344,column 6,is_stmt
    1612 000000a5 8AA2          MOVL      XAR4,XAR2             ; [CPU_] |344| 
    1613                      .dwpsn  file "D:/BM1000/sw/drivers/drvic/modbus/mb.c",line 347,column 9,is_stmt
    1614 000000a6 D014          MOVB      XAR0,#20              ; [CPU_] |347| 
    1615                      .dwpsn  file "D:/BM1000/sw/drivers/drvic/modbus/mb.c",line 344,column 6,is_stmt
    1616 000000a7 DC14          ADDB      XAR4,#20              ; [CPU_] |344| 
    1617 000000a8 08C4          ADD       *+XAR4[0],#5          ; [CPU_] |344| 
         000000a9 0005 
    1618                      .dwpsn  file "D:/BM1000/sw/drivers/drvic/modbus/mb.c",line 347,column 9,is_stmt
    1619 000000aa 2F92          MOV       PH,*+XAR2[AR0]        ; [CPU_] |347| 
    1620 000000ab D012          MOVB      XAR0,#18              ; [CPU_] |347| 
    1621 000000ac 92AA          MOV       AL,PH                 ; [CPU_] |347| 
    1622 000000ad 8A92          MOVL      XAR4,*+XAR2[AR0]      ; [CPU_] |347| 
    1623              $C$DW$99        .dwtag  DW_TAG_TI_branch
    1624                      .dwattr $C$DW$99, DW_AT_low_pc(0x00)
    1625                      .dwattr $C$DW$99, DW_AT_name("_MB_CRC16")
TMS320C2000 Assembler PC v6.2.5 Fri Sep 15 11:07:51 2017

Tools Copyright (c) 1996-2014 Texas Instruments Incorporated
C:\Users\wmj\AppData\Local\Temp\0762011                              PAGE   31

    1626                      .dwattr $C$DW$99, DW_AT_TI_call
    1627 000000ae 7640'         LCR       #_MB_CRC16            ; [CPU_] |347| 
         000000af 006C 
    1628                      ; call occurs [#_MB_CRC16] ; [] |347| 
    1629                      .dwpsn  file "D:/BM1000/sw/drivers/drvic/modbus/mb.c",line 348,column 9,is_stmt
    1630 000000b0 D114          MOVB      XAR1,#20              ; [CPU_] |348| 
    1631 000000b1 9B01          MOVB      AH,#1                 ; [CPU_] |348| 
    1632 000000b2 58AA          MOVZ      AR0,PH                ; [CPU_] |348| 
    1633 000000b3 95A0          ADD       AH,AR0                ; [CPU_] |348| 
    1634 000000b4 979A          MOV       *+XAR2[AR1],AH        ; [CPU_] |348| 
    1635 000000b5 CDA9          AND       AH,AL,#0x00ff         ; [CPU_] |348| 
         000000b6 00FF 
    1636 000000b7 9793          MOV       *+XAR3[AR0],AH        ; [CPU_] |348| 
    1637                      .dwpsn  file "D:/BM1000/sw/drivers/drvic/modbus/mb.c",line 349,column 9,is_stmt
    1638 000000b8 D014          MOVB      XAR0,#20              ; [CPU_] |349| 
    1639 000000b9 9B01          MOVB      AH,#1                 ; [CPU_] |349| 
    1640 000000ba 5892          MOVZ      AR0,*+XAR2[AR0]       ; [CPU_] |349| 
    1641 000000bb D114          MOVB      XAR1,#20              ; [CPU_] |349| 
    1642 000000bc FFC7          LSR       AL,8                  ; [CPU_] |349| 
    1643                      .dwpsn  file "D:/BM1000/sw/drivers/drvic/modbus/mb.c",line 353,column 9,is_stmt
    1644 000000bd 8AA2          MOVL      XAR4,XAR2             ; [CPU_] |353| 
    1645                      .dwpsn  file "D:/BM1000/sw/drivers/drvic/modbus/mb.c",line 349,column 9,is_stmt
    1646 000000be 95A0          ADD       AH,AR0                ; [CPU_] |349| 
    1647 000000bf 979A          MOV       *+XAR2[AR1],AH        ; [CPU_] |349| 
    1648                      .dwpsn  file "D:/BM1000/sw/drivers/drvic/modbus/mb.c",line 353,column 9,is_stmt
    1649 000000c0 9B01          MOVB      AH,#1                 ; [CPU_] |353| 
    1650                      .dwpsn  file "D:/BM1000/sw/drivers/drvic/modbus/mb.c",line 349,column 9,is_stmt
    1651 000000c1 9693          MOV       *+XAR3[AR0],AL        ; [CPU_] |349| 
    1652                      .dwpsn  file "D:/BM1000/sw/drivers/drvic/modbus/mb.c",line 353,column 9,is_stmt
    1653 000000c2 9A00          MOVB      AL,#0                 ; [CPU_] |353| 
    1654                      .dwpsn  file "D:/BM1000/sw/drivers/drvic/modbus/mb.c",line 352,column 9,is_stmt
    1655 000000c3 D017          MOVB      XAR0,#23              ; [CPU_] |352| 
    1656 000000c4 56BF          MOVB      *+XAR2[AR0],#1,UNC    ; [CPU_] |352| 
         000000c5 0192 
    1657                      .dwpsn  file "D:/BM1000/sw/drivers/drvic/modbus/mb.c",line 353,column 9,is_stmt
    1658              $C$DW$100       .dwtag  DW_TAG_TI_branch
    1659                      .dwattr $C$DW$100, DW_AT_low_pc(0x00)
    1660                      .dwattr $C$DW$100, DW_AT_name("_MB_PortSerialEnable")
    1661                      .dwattr $C$DW$100, DW_AT_TI_call
    1662 000000c6 7640'         LCR       #_MB_PortSerialEnable ; [CPU_] |353| 
         000000c7 0012 
    1663                      ; call occurs [#_MB_PortSerialEnable] ; [] |353| 
    1664                      .dwpsn  file "D:/BM1000/sw/drivers/drvic/modbus/mb.c",line 354,column 9,is_stmt
    1665 000000c8 8AA2          MOVL      XAR4,XAR2             ; [CPU_] |354| 
    1666 000000c9 DC14          ADDB      XAR4,#20              ; [CPU_] |354| 
    1667 000000ca 0BC4          DEC       *+XAR4[0]             ; [CPU_] |354| 
    1668                      .dwpsn  file "D:/BM1000/sw/drivers/drvic/modbus/mb.c",line 355,column 9,is_stmt
    1669 000000cb 8AE2          MOVL      XAR4,*+XAR2[4]        ; [CPU_] |355| 
    1670 000000cc 92C3          MOV       AL,*+XAR3[0]          ; [CPU_] |355| 
    1671              $C$DW$101       .dwtag  DW_TAG_TI_branch
    1672                      .dwattr $C$DW$101, DW_AT_low_pc(0x00)
    1673                      .dwattr $C$DW$101, DW_AT_name("_SCI_putDataBlocking")
    1674                      .dwattr $C$DW$101, DW_AT_TI_call
    1675 000000cd 7640!         LCR       #_SCI_putDataBlocking ; [CPU_] |355| 
         000000ce 0000 
TMS320C2000 Assembler PC v6.2.5 Fri Sep 15 11:07:51 2017

Tools Copyright (c) 1996-2014 Texas Instruments Incorporated
C:\Users\wmj\AppData\Local\Temp\0762011                              PAGE   32

    1676                      ; call occurs [#_SCI_putDataBlocking] ; [] |355| 
    1677                      .dwpsn  file "D:/BM1000/sw/drivers/drvic/modbus/mb.c",line 333,column 29,is_stmt
    1678 000000cf 9A00          MOVB      AL,#0                 ; [CPU_] |333| 
    1679 000000d0       $C$L15:    
    1680 000000d0 82BE          MOVL      XAR3,*--SP            ; [CPU_] 
    1681                      .dwcfi  cfa_offset, -6
    1682                      .dwcfi  restore_reg, 11
    1683 000000d1 86BE          MOVL      XAR2,*--SP            ; [CPU_] 
    1684                      .dwcfi  cfa_offset, -4
    1685                      .dwcfi  restore_reg, 9
    1686 000000d2 8BBE          MOVL      XAR1,*--SP            ; [CPU_] 
    1687                      .dwcfi  cfa_offset, -2
    1688                      .dwcfi  restore_reg, 7
    1689              $C$DW$102       .dwtag  DW_TAG_TI_branch
    1690                      .dwattr $C$DW$102, DW_AT_low_pc(0x00)
    1691                      .dwattr $C$DW$102, DW_AT_TI_return
    1692 000000d3 0006          LRETR     ; [CPU_] 
    1693                      ; return occurs ; [] 
    1694                      .dwattr $C$DW$94, DW_AT_TI_end_file("D:/BM1000/sw/drivers/drvic/modbus/mb.c")
    1695                      .dwattr $C$DW$94, DW_AT_TI_end_line(0x16a)
    1696                      .dwattr $C$DW$94, DW_AT_TI_end_column(0x01)
    1697                      .dwendentry
    1698                      .dwendtag $C$DW$94
    1699              
    1700 000000d4               .sect   ".text"
    1701                      .clink
    1702                      .global _MB_PortSerialGetByte
    1703              
    1704              $C$DW$103       .dwtag  DW_TAG_subprogram, DW_AT_name("MB_PortSerialGetByte")
    1705                      .dwattr $C$DW$103, DW_AT_low_pc(_MB_PortSerialGetByte)
    1706                      .dwattr $C$DW$103, DW_AT_high_pc(0x00)
    1707                      .dwattr $C$DW$103, DW_AT_TI_symbol_name("_MB_PortSerialGetByte")
    1708                      .dwattr $C$DW$103, DW_AT_external
    1709                      .dwattr $C$DW$103, DW_AT_type(*$C$DW$T$48)
    1710                      .dwattr $C$DW$103, DW_AT_TI_begin_file("D:/BM1000/sw/drivers/drvic/modbus/mb.c")
    1711                      .dwattr $C$DW$103, DW_AT_TI_begin_line(0xb2)
    1712                      .dwattr $C$DW$103, DW_AT_TI_begin_column(0x06)
    1713                      .dwattr $C$DW$103, DW_AT_TI_max_frame_size(-4)
    1714                      .dwpsn  file "D:/BM1000/sw/drivers/drvic/modbus/mb.c",line 179,column 1,is_stmt,address _MB_PortSeria
    1715              
    1716                      .dwfde $C$DW$CIE, _MB_PortSerialGetByte
    1717              $C$DW$104       .dwtag  DW_TAG_formal_parameter, DW_AT_name("handle")
    1718                      .dwattr $C$DW$104, DW_AT_TI_symbol_name("_handle")
    1719                      .dwattr $C$DW$104, DW_AT_type(*$C$DW$T$57)
    1720                      .dwattr $C$DW$104, DW_AT_location[DW_OP_reg12]
    1721              $C$DW$105       .dwtag  DW_TAG_formal_parameter, DW_AT_name("getByte")
    1722                      .dwattr $C$DW$105, DW_AT_TI_symbol_name("_getByte")
    1723                      .dwattr $C$DW$105, DW_AT_type(*$C$DW$T$102)
    1724                      .dwattr $C$DW$105, DW_AT_location[DW_OP_reg14]
    1725              
    1726              ;***************************************************************
    1727              ;* FNAME: _MB_PortSerialGetByte         FR SIZE:   2           *
    1728              ;*                                                             *
    1729              ;* FUNCTION ENVIRONMENT                                        *
    1730              ;*                                                             *
TMS320C2000 Assembler PC v6.2.5 Fri Sep 15 11:07:51 2017

Tools Copyright (c) 1996-2014 Texas Instruments Incorporated
C:\Users\wmj\AppData\Local\Temp\0762011                              PAGE   33

    1731              ;* FUNCTION PROPERTIES                                         *
    1732              ;*                            0 Parameter,  0 Auto,  2 SOE     *
    1733              ;***************************************************************
    1734              
    1735              _MB_PortSerialGetByte:
    1736              ;* AR4   assigned to _handle
    1737              $C$DW$106       .dwtag  DW_TAG_variable, DW_AT_name("handle")
    1738                      .dwattr $C$DW$106, DW_AT_TI_symbol_name("_handle")
    1739                      .dwattr $C$DW$106, DW_AT_type(*$C$DW$T$71)
    1740                      .dwattr $C$DW$106, DW_AT_location[DW_OP_reg12]
    1741              ;* AR1   assigned to _getByte
    1742              $C$DW$107       .dwtag  DW_TAG_variable, DW_AT_name("getByte")
    1743                      .dwattr $C$DW$107, DW_AT_TI_symbol_name("_getByte")
    1744                      .dwattr $C$DW$107, DW_AT_type(*$C$DW$T$130)
    1745                      .dwattr $C$DW$107, DW_AT_location[DW_OP_reg6]
    1746                      .dwcfi  cfa_offset, -2
    1747                      .dwcfi  save_reg_to_mem, 26, 0
    1748                      .dwcfi  save_reg_to_reg, 78, 26
    1749 000000d4 B2BD          MOVL      *SP++,XAR1            ; [CPU_] 
    1750                      .dwcfi  save_reg_to_mem, 7, 2
    1751                      .dwcfi  cfa_offset, -4
    1752                      .dwpsn  file "D:/BM1000/sw/drivers/drvic/modbus/mb.c",line 182,column 5,is_stmt
    1753 000000d5 8AE4          MOVL      XAR4,*+XAR4[4]        ; [CPU_] |182| 
    1754                      .dwpsn  file "D:/BM1000/sw/drivers/drvic/modbus/mb.c",line 179,column 1,is_stmt
    1755 000000d6 8BA5          MOVL      XAR1,XAR5             ; [CPU_] |179| 
    1756                      .dwpsn  file "D:/BM1000/sw/drivers/drvic/modbus/mb.c",line 182,column 5,is_stmt
    1757              $C$DW$108       .dwtag  DW_TAG_TI_branch
    1758                      .dwattr $C$DW$108, DW_AT_low_pc(0x00)
    1759                      .dwattr $C$DW$108, DW_AT_name("_SCI_getDataBlocking")
    1760                      .dwattr $C$DW$108, DW_AT_TI_call
    1761 000000d7 7640!         LCR       #_SCI_getDataBlocking ; [CPU_] |182| 
         000000d8 0000 
    1762                      ; call occurs [#_SCI_getDataBlocking] ; [] |182| 
    1763 000000d9 96C1          MOV       *+XAR1[0],AL          ; [CPU_] |182| 
    1764                      .dwpsn  file "D:/BM1000/sw/drivers/drvic/modbus/mb.c",line 184,column 5,is_stmt
    1765 000000da 9A01          MOVB      AL,#1                 ; [CPU_] |184| 
    1766 000000db 8BBE          MOVL      XAR1,*--SP            ; [CPU_] 
    1767                      .dwcfi  cfa_offset, -2
    1768                      .dwcfi  restore_reg, 7
    1769              $C$DW$109       .dwtag  DW_TAG_TI_branch
    1770                      .dwattr $C$DW$109, DW_AT_low_pc(0x00)
    1771                      .dwattr $C$DW$109, DW_AT_TI_return
    1772 000000dc 0006          LRETR     ; [CPU_] 
    1773                      ; return occurs ; [] 
    1774                      .dwattr $C$DW$103, DW_AT_TI_end_file("D:/BM1000/sw/drivers/drvic/modbus/mb.c")
    1775                      .dwattr $C$DW$103, DW_AT_TI_end_line(0xb9)
    1776                      .dwattr $C$DW$103, DW_AT_TI_end_column(0x01)
    1777                      .dwendentry
    1778                      .dwendtag $C$DW$103
    1779              
    1780 000000dd               .sect   ".text"
    1781                      .clink
    1782                      .global _MB_PortTimersEnable
    1783              
    1784              $C$DW$110       .dwtag  DW_TAG_subprogram, DW_AT_name("MB_PortTimersEnable")
TMS320C2000 Assembler PC v6.2.5 Fri Sep 15 11:07:51 2017

Tools Copyright (c) 1996-2014 Texas Instruments Incorporated
C:\Users\wmj\AppData\Local\Temp\0762011                              PAGE   34

    1785                      .dwattr $C$DW$110, DW_AT_low_pc(_MB_PortTimersEnable)
    1786                      .dwattr $C$DW$110, DW_AT_high_pc(0x00)
    1787                      .dwattr $C$DW$110, DW_AT_TI_symbol_name("_MB_PortTimersEnable")
    1788                      .dwattr $C$DW$110, DW_AT_external
    1789                      .dwattr $C$DW$110, DW_AT_TI_begin_file("D:/BM1000/sw/drivers/drvic/modbus/mb.c")
    1790                      .dwattr $C$DW$110, DW_AT_TI_begin_line(0x76)
    1791                      .dwattr $C$DW$110, DW_AT_TI_begin_column(0x06)
    1792                      .dwattr $C$DW$110, DW_AT_TI_max_frame_size(-4)
    1793                      .dwpsn  file "D:/BM1000/sw/drivers/drvic/modbus/mb.c",line 119,column 1,is_stmt,address _MB_PortTimer
    1794              
    1795                      .dwfde $C$DW$CIE, _MB_PortTimersEnable
    1796              $C$DW$111       .dwtag  DW_TAG_formal_parameter, DW_AT_name("handle")
    1797                      .dwattr $C$DW$111, DW_AT_TI_symbol_name("_handle")
    1798                      .dwattr $C$DW$111, DW_AT_type(*$C$DW$T$57)
    1799                      .dwattr $C$DW$111, DW_AT_location[DW_OP_reg12]
    1800              
    1801              ;***************************************************************
    1802              ;* FNAME: _MB_PortTimersEnable          FR SIZE:   2           *
    1803              ;*                                                             *
    1804              ;* FUNCTION ENVIRONMENT                                        *
    1805              ;*                                                             *
    1806              ;* FUNCTION PROPERTIES                                         *
    1807              ;*                            0 Parameter,  0 Auto,  2 SOE     *
    1808              ;***************************************************************
    1809              
    1810              _MB_PortTimersEnable:
    1811              ;* AR1   assigned to _handle
    1812              $C$DW$112       .dwtag  DW_TAG_variable, DW_AT_name("handle")
    1813                      .dwattr $C$DW$112, DW_AT_TI_symbol_name("_handle")
    1814                      .dwattr $C$DW$112, DW_AT_type(*$C$DW$T$71)
    1815                      .dwattr $C$DW$112, DW_AT_location[DW_OP_reg6]
    1816                      .dwcfi  cfa_offset, -2
    1817                      .dwcfi  save_reg_to_mem, 26, 0
    1818                      .dwcfi  save_reg_to_reg, 78, 26
    1819 000000dd B2BD          MOVL      *SP++,XAR1            ; [CPU_] 
    1820                      .dwcfi  save_reg_to_mem, 7, 2
    1821                      .dwcfi  cfa_offset, -4
    1822 000000de 8BA4          MOVL      XAR1,XAR4             ; [CPU_] |119| 
    1823                      .dwpsn  file "D:/BM1000/sw/drivers/drvic/modbus/mb.c",line 122,column 3,is_stmt
    1824 000000df 8AD1          MOVL      XAR4,*+XAR1[2]        ; [CPU_] |122| 
    1825              $C$DW$113       .dwtag  DW_TAG_TI_branch
    1826                      .dwattr $C$DW$113, DW_AT_low_pc(0x00)
    1827                      .dwattr $C$DW$113, DW_AT_name("_TIMER_clearFlag")
    1828                      .dwattr $C$DW$113, DW_AT_TI_call
    1829 000000e0 7640!         LCR       #_TIMER_clearFlag     ; [CPU_] |122| 
         000000e1 0000 
    1830                      ; call occurs [#_TIMER_clearFlag] ; [] |122| 
    1831                      .dwpsn  file "D:/BM1000/sw/drivers/timer/src/32b/f28x/f2802x/timer.h",line 196,column 5,is_stmt
    1832 000000e2 8AD1          MOVL      XAR4,*+XAR1[2]        ; [CPU_] |196| 
    1833 000000e3 1AE4          OR        *+XAR4[4],#0x0020     ; [CPU_] |196| 
         000000e4 0020 
    1834                      .dwpsn  file "D:/BM1000/sw/drivers/timer/src/32b/f28x/f2802x/timer.h",line 262,column 5,is_stmt
    1835 000000e5 8AD1          MOVL      XAR4,*+XAR1[2]        ; [CPU_] |262| 
    1836 000000e6 18E4          AND       *+XAR4[4],#0xffef     ; [CPU_] |262| 
         000000e7 FFEF 
TMS320C2000 Assembler PC v6.2.5 Fri Sep 15 11:07:51 2017

Tools Copyright (c) 1996-2014 Texas Instruments Incorporated
C:\Users\wmj\AppData\Local\Temp\0762011                              PAGE   35

    1837 000000e8 8BBE          MOVL      XAR1,*--SP            ; [CPU_] 
    1838                      .dwcfi  cfa_offset, -2
    1839                      .dwcfi  restore_reg, 7
    1840              $C$DW$114       .dwtag  DW_TAG_TI_branch
    1841                      .dwattr $C$DW$114, DW_AT_low_pc(0x00)
    1842                      .dwattr $C$DW$114, DW_AT_TI_return
    1843 000000e9 0006          LRETR     ; [CPU_] 
    1844                      ; return occurs ; [] 
    1845                      .dwattr $C$DW$110, DW_AT_TI_end_file("D:/BM1000/sw/drivers/drvic/modbus/mb.c")
    1846                      .dwattr $C$DW$110, DW_AT_TI_end_line(0x7f)
    1847                      .dwattr $C$DW$110, DW_AT_TI_end_column(0x01)
    1848                      .dwendentry
    1849                      .dwendtag $C$DW$110
    1850              
    1851 000000ea               .sect   ".text"
    1852                      .clink
    1853                      .global _MB_RTUReceiveFSM
    1854              
    1855              $C$DW$115       .dwtag  DW_TAG_subprogram, DW_AT_name("MB_RTUReceiveFSM")
    1856                      .dwattr $C$DW$115, DW_AT_low_pc(_MB_RTUReceiveFSM)
    1857                      .dwattr $C$DW$115, DW_AT_high_pc(0x00)
    1858                      .dwattr $C$DW$115, DW_AT_TI_symbol_name("_MB_RTUReceiveFSM")
    1859                      .dwattr $C$DW$115, DW_AT_external
    1860                      .dwattr $C$DW$115, DW_AT_TI_begin_file("D:/BM1000/sw/drivers/drvic/modbus/mb.c")
    1861                      .dwattr $C$DW$115, DW_AT_TI_begin_line(0x10f)
    1862                      .dwattr $C$DW$115, DW_AT_TI_begin_column(0x06)
    1863                      .dwattr $C$DW$115, DW_AT_TI_max_frame_size(-6)
    1864                      .dwpsn  file "D:/BM1000/sw/drivers/drvic/modbus/mb.c",line 272,column 1,is_stmt,address _MB_RTUReceiv
    1865              
    1866                      .dwfde $C$DW$CIE, _MB_RTUReceiveFSM
    1867              $C$DW$116       .dwtag  DW_TAG_formal_parameter, DW_AT_name("handle")
    1868                      .dwattr $C$DW$116, DW_AT_TI_symbol_name("_handle")
    1869                      .dwattr $C$DW$116, DW_AT_type(*$C$DW$T$57)
    1870                      .dwattr $C$DW$116, DW_AT_location[DW_OP_reg12]
    1871              
    1872              ;***************************************************************
    1873              ;* FNAME: _MB_RTUReceiveFSM             FR SIZE:   4           *
    1874              ;*                                                             *
    1875              ;* FUNCTION ENVIRONMENT                                        *
    1876              ;*                                                             *
    1877              ;* FUNCTION PROPERTIES                                         *
    1878              ;*                            0 Parameter,  1 Auto,  2 SOE     *
    1879              ;***************************************************************
    1880              
    1881              _MB_RTUReceiveFSM:
    1882              $C$DW$117       .dwtag  DW_TAG_variable, DW_AT_name("ucByte")
    1883                      .dwattr $C$DW$117, DW_AT_TI_symbol_name("_ucByte")
    1884                      .dwattr $C$DW$117, DW_AT_type(*$C$DW$T$38)
    1885                      .dwattr $C$DW$117, DW_AT_location[DW_OP_breg20 -1]
    1886              ;* AR1   assigned to _handle
    1887              $C$DW$118       .dwtag  DW_TAG_variable, DW_AT_name("handle")
    1888                      .dwattr $C$DW$118, DW_AT_TI_symbol_name("_handle")
    1889                      .dwattr $C$DW$118, DW_AT_type(*$C$DW$T$71)
    1890                      .dwattr $C$DW$118, DW_AT_location[DW_OP_reg6]
    1891              ;* AR6   assigned to $O$U6
TMS320C2000 Assembler PC v6.2.5 Fri Sep 15 11:07:51 2017

Tools Copyright (c) 1996-2014 Texas Instruments Incorporated
C:\Users\wmj\AppData\Local\Temp\0762011                              PAGE   36

    1892                      .dwcfi  cfa_offset, -2
    1893                      .dwcfi  save_reg_to_mem, 26, 0
    1894                      .dwcfi  save_reg_to_reg, 78, 26
    1895 000000ea B2BD          MOVL      *SP++,XAR1            ; [CPU_] 
    1896                      .dwcfi  save_reg_to_mem, 7, 2
    1897                      .dwcfi  cfa_offset, -4
    1898 000000eb FE02          ADDB      SP,#2                 ; [CPU_U] 
    1899                      .dwcfi  cfa_offset, -6
    1900                      .dwpsn  file "D:/BM1000/sw/drivers/drvic/modbus/mb.c",line 278,column 5,is_stmt
    1901 000000ec 5DAD          MOVZ      AR5,SP                ; [CPU_U] |278| 
    1902                      .dwpsn  file "D:/BM1000/sw/drivers/drvic/modbus/mb.c",line 272,column 1,is_stmt
    1903 000000ed 8BA4          MOVL      XAR1,XAR4             ; [CPU_] |272| 
    1904                      .dwpsn  file "D:/BM1000/sw/drivers/drvic/modbus/mb.c",line 278,column 5,is_stmt
    1905 000000ee DD81          SUBB      XAR5,#1               ; [CPU_U] |278| 
    1906              $C$DW$119       .dwtag  DW_TAG_TI_branch
    1907                      .dwattr $C$DW$119, DW_AT_low_pc(0x00)
    1908                      .dwattr $C$DW$119, DW_AT_name("_MB_PortSerialGetByte")
    1909                      .dwattr $C$DW$119, DW_AT_TI_call
    1910 000000ef 7640'         LCR       #_MB_PortSerialGetByte ; [CPU_] |278| 
         000000f0 00D4 
    1911                      ; call occurs [#_MB_PortSerialGetByte] ; [] |278| 
    1912                      .dwpsn  file "D:/BM1000/sw/drivers/drvic/modbus/mb.c",line 280,column 5,is_stmt
    1913 000000f1 D018          MOVB      XAR0,#24              ; [CPU_] |280| 
    1914 000000f2 9291          MOV       AL,*+XAR1[AR0]        ; [CPU_] |280| 
    1915 000000f3 EC24          BF        $C$L18,EQ             ; [CPU_] |280| 
    1916                      ; branchcc occurs ; [] |280| 
    1917 000000f4 5201          CMPB      AL,#1                 ; [CPU_] |280| 
    1918 000000f5 EC19          BF        $C$L17,EQ             ; [CPU_] |280| 
    1919                      ; branchcc occurs ; [] |280| 
    1920 000000f6 5202          CMPB      AL,#2                 ; [CPU_] |280| 
    1921 000000f7 EC04          BF        $C$L16,EQ             ; [CPU_] |280| 
    1922                      ; branchcc occurs ; [] |280| 
    1923 000000f8 5203          CMPB      AL,#3                 ; [CPU_] |280| 
    1924 000000f9 EC1E          BF        $C$L18,EQ             ; [CPU_] |280| 
    1925                      ; branchcc occurs ; [] |280| 
    1926 000000fa 6F20          B         $C$L19,UNC            ; [CPU_] |280| 
    1927                      ; branch occurs ; [] |280| 
    1928 000000fb       $C$L16:    
    1929                      .dwpsn  file "D:/BM1000/sw/drivers/drvic/modbus/mb.c",line 294,column 9,is_stmt
    1930 000000fb D010          MOVB      XAR0,#16              ; [CPU_] |294| 
    1931 000000fc 8891          MOVZ      AR6,*+XAR1[AR0]       ; [CPU_] |294| 
    1932 000000fd 92A6          MOV       AL,AR6                ; [CPU_] |294| 
    1933 000000fe 5208          CMPB      AL,#8                 ; [CPU_] |294| 
    1934                      .dwpsn  file "D:/BM1000/sw/drivers/drvic/modbus/mb.c",line 300,column 11,is_stmt
    1935 000000ff 56B7          MOVB      XAR0,#24,HIS          ; [CPU_] |300| 
         00000100 18A0 
    1936 00000101 56B7          MOVB      *+XAR1[AR0],#3,HIS    ; [CPU_] |300| 
         00000102 0391 
    1937 00000103 6714          B         $C$L18,HIS            ; [CPU_] |300| 
    1938                      ; branchcc occurs ; [] |300| 
    1939                      .dwpsn  file "D:/BM1000/sw/drivers/drvic/modbus/mb.c",line 296,column 11,is_stmt
    1940 00000104 8AA1          MOVL      XAR4,XAR1             ; [CPU_] |296| 
    1941 00000105 B2A9          MOVL      ACC,XAR1              ; [CPU_] |296| 
    1942 00000106 0DA6          ADDU      ACC,AR6               ; [CPU_] |296| 
    1943 00000107 DC10          ADDB      XAR4,#16              ; [CPU_] |296| 
TMS320C2000 Assembler PC v6.2.5 Fri Sep 15 11:07:51 2017

Tools Copyright (c) 1996-2014 Texas Instruments Incorporated
C:\Users\wmj\AppData\Local\Temp\0762011                              PAGE   37

    1944 00000108 0AC4          INC       *+XAR4[0]             ; [CPU_] |296| 
    1945 00000109 8841          MOVZ      AR6,*-SP[1]           ; [CPU_] |296| 
    1946 0000010a D008          MOVB      XAR0,#8               ; [CPU_] |296| 
    1947 0000010b 8AA9          MOVL      XAR4,ACC              ; [CPU_] |296| 
    1948 0000010c 7E94          MOV       *+XAR4[AR0],AR6       ; [CPU_] |296| 
    1949                      .dwpsn  file "D:/BM1000/sw/drivers/drvic/modbus/mb.c",line 282,column 56,is_stmt
    1950 0000010d 6F0A          B         $C$L18,UNC            ; [CPU_] |282| 
    1951                      ; branch occurs ; [] |282| 
    1952 0000010e       $C$L17:    
    1953                      .dwpsn  file "D:/BM1000/sw/drivers/drvic/modbus/mb.c",line 287,column 6,is_stmt
    1954 0000010e D010          MOVB      XAR0,#16              ; [CPU_] |287| 
    1955 0000010f 56BF          MOVB      *+XAR1[AR0],#1,UNC    ; [CPU_] |287| 
         00000110 0191 
    1956 00000111 9241          MOV       AL,*-SP[1]            ; [CPU_] |287| 
    1957 00000112 D008          MOVB      XAR0,#8               ; [CPU_] |287| 
    1958 00000113 9691          MOV       *+XAR1[AR0],AL        ; [CPU_] |287| 
    1959                      .dwpsn  file "D:/BM1000/sw/drivers/drvic/modbus/mb.c",line 288,column 9,is_stmt
    1960 00000114 D018          MOVB      XAR0,#24              ; [CPU_] |288| 
    1961 00000115 56BF          MOVB      *+XAR1[AR0],#2,UNC    ; [CPU_] |288| 
         00000116 0291 
    1962 00000117       $C$L18:    
    1963                      .dwpsn  file "D:/BM1000/sw/drivers/drvic/modbus/mb.c",line 290,column 9,is_stmt
    1964 00000117 8AA1          MOVL      XAR4,XAR1             ; [CPU_] |290| 
    1965              $C$DW$120       .dwtag  DW_TAG_TI_branch
    1966                      .dwattr $C$DW$120, DW_AT_low_pc(0x00)
    1967                      .dwattr $C$DW$120, DW_AT_name("_MB_PortTimersEnable")
    1968                      .dwattr $C$DW$120, DW_AT_TI_call
    1969 00000118 7640'         LCR       #_MB_PortTimersEnable ; [CPU_] |290| 
         00000119 00DD 
    1970                      ; call occurs [#_MB_PortTimersEnable] ; [] |290| 
    1971 0000011a       $C$L19:    
    1972 0000011a FE82          SUBB      SP,#2                 ; [CPU_U] 
    1973                      .dwcfi  cfa_offset, -4
    1974 0000011b 8BBE          MOVL      XAR1,*--SP            ; [CPU_] 
    1975                      .dwcfi  cfa_offset, -2
    1976                      .dwcfi  restore_reg, 7
    1977              $C$DW$121       .dwtag  DW_TAG_TI_branch
    1978                      .dwattr $C$DW$121, DW_AT_low_pc(0x00)
    1979                      .dwattr $C$DW$121, DW_AT_TI_return
    1980 0000011c 0006          LRETR     ; [CPU_] 
    1981                      ; return occurs ; [] 
    1982                      .dwattr $C$DW$115, DW_AT_TI_end_file("D:/BM1000/sw/drivers/drvic/modbus/mb.c")
    1983                      .dwattr $C$DW$115, DW_AT_TI_end_line(0x133)
    1984                      .dwattr $C$DW$115, DW_AT_TI_end_column(0x01)
    1985                      .dwendentry
    1986                      .dwendtag $C$DW$115
    1987              
    1988 0000011d               .sect   ".text"
    1989                      .clink
    1990                      .global _MB_RTUReceive
    1991              
    1992              $C$DW$122       .dwtag  DW_TAG_subprogram, DW_AT_name("MB_RTUReceive")
    1993                      .dwattr $C$DW$122, DW_AT_low_pc(_MB_RTUReceive)
    1994                      .dwattr $C$DW$122, DW_AT_high_pc(0x00)
    1995                      .dwattr $C$DW$122, DW_AT_TI_symbol_name("_MB_RTUReceive")
TMS320C2000 Assembler PC v6.2.5 Fri Sep 15 11:07:51 2017

Tools Copyright (c) 1996-2014 Texas Instruments Incorporated
C:\Users\wmj\AppData\Local\Temp\0762011                              PAGE   38

    1996                      .dwattr $C$DW$122, DW_AT_external
    1997                      .dwattr $C$DW$122, DW_AT_type(*$C$DW$T$43)
    1998                      .dwattr $C$DW$122, DW_AT_TI_begin_file("D:/BM1000/sw/drivers/drvic/modbus/mb.c")
    1999                      .dwattr $C$DW$122, DW_AT_TI_begin_line(0x135)
    2000                      .dwattr $C$DW$122, DW_AT_TI_begin_column(0x0e)
    2001                      .dwattr $C$DW$122, DW_AT_TI_max_frame_size(-4)
    2002                      .dwpsn  file "D:/BM1000/sw/drivers/drvic/modbus/mb.c",line 310,column 1,is_stmt,address _MB_RTUReceiv
    2003              
    2004                      .dwfde $C$DW$CIE, _MB_RTUReceive
    2005              $C$DW$123       .dwtag  DW_TAG_formal_parameter, DW_AT_name("handle")
    2006                      .dwattr $C$DW$123, DW_AT_TI_symbol_name("_handle")
    2007                      .dwattr $C$DW$123, DW_AT_type(*$C$DW$T$57)
    2008                      .dwattr $C$DW$123, DW_AT_location[DW_OP_reg12]
    2009              
    2010              ;***************************************************************
    2011              ;* FNAME: _MB_RTUReceive                FR SIZE:   2           *
    2012              ;*                                                             *
    2013              ;* FUNCTION ENVIRONMENT                                        *
    2014              ;*                                                             *
    2015              ;* FUNCTION PROPERTIES                                         *
    2016              ;*                            0 Parameter,  0 Auto,  2 SOE     *
    2017              ;***************************************************************
    2018              
    2019              _MB_RTUReceive:
    2020              ;* AL    assigned to $O$C1
    2021              ;* AL    assigned to _eStatus
    2022              $C$DW$124       .dwtag  DW_TAG_variable, DW_AT_name("eStatus")
    2023                      .dwattr $C$DW$124, DW_AT_TI_symbol_name("_eStatus")
    2024                      .dwattr $C$DW$124, DW_AT_type(*$C$DW$T$43)
    2025                      .dwattr $C$DW$124, DW_AT_location[DW_OP_reg0]
    2026              ;* AR1   assigned to _handle
    2027              $C$DW$125       .dwtag  DW_TAG_variable, DW_AT_name("handle")
    2028                      .dwattr $C$DW$125, DW_AT_TI_symbol_name("_handle")
    2029                      .dwattr $C$DW$125, DW_AT_type(*$C$DW$T$71)
    2030                      .dwattr $C$DW$125, DW_AT_location[DW_OP_reg6]
    2031              ;* XT    assigned to $O$K7
    2032                      .dwcfi  cfa_offset, -2
    2033                      .dwcfi  save_reg_to_mem, 26, 0
    2034                      .dwcfi  save_reg_to_reg, 78, 26
    2035 0000011d B2BD          MOVL      *SP++,XAR1            ; [CPU_] 
    2036                      .dwcfi  save_reg_to_mem, 7, 2
    2037                      .dwcfi  cfa_offset, -4
    2038                      .dwpsn  file "D:/BM1000/sw/drivers/drvic/modbus/mb.c",line 316,column 5,is_stmt
    2039 0000011e D010          MOVB      XAR0,#16              ; [CPU_] |316| 
    2040                      .dwpsn  file "D:/BM1000/sw/drivers/drvic/modbus/mb.c",line 310,column 1,is_stmt
    2041 0000011f 8BA4          MOVL      XAR1,XAR4             ; [CPU_] |310| 
    2042                      .dwpsn  file "D:/BM1000/sw/drivers/drvic/modbus/mb.c",line 316,column 5,is_stmt
    2043 00000120 9291          MOV       AL,*+XAR1[AR0]        ; [CPU_] |316| 
    2044 00000121 5208          CMPB      AL,#8                 ; [CPU_] |316| 
    2045 00000122 ED0A          BF        $C$L20,NEQ            ; [CPU_] |316| 
    2046                      ; branchcc occurs ; [] |316| 
    2047 00000123 DC08          ADDB      XAR4,#8               ; [CPU_] |316| 
    2048 00000124 A8AC          MOVL      XT,XAR4               ; [CPU_] |316| 
    2049              $C$DW$126       .dwtag  DW_TAG_TI_branch
    2050                      .dwattr $C$DW$126, DW_AT_low_pc(0x00)
TMS320C2000 Assembler PC v6.2.5 Fri Sep 15 11:07:51 2017

Tools Copyright (c) 1996-2014 Texas Instruments Incorporated
C:\Users\wmj\AppData\Local\Temp\0762011                              PAGE   39

    2051                      .dwattr $C$DW$126, DW_AT_name("_MB_CRC16")
    2052                      .dwattr $C$DW$126, DW_AT_TI_call
    2053 00000125 7640'         LCR       #_MB_CRC16            ; [CPU_] |316| 
         00000126 006C 
    2054                      ; call occurs [#_MB_CRC16] ; [] |316| 
    2055 00000127 5200          CMPB      AL,#0                 ; [CPU_] |316| 
    2056 00000128 ED04          BF        $C$L20,NEQ            ; [CPU_] |316| 
    2057                      ; branchcc occurs ; [] |316| 
    2058                      .dwpsn  file "D:/BM1000/sw/drivers/drvic/modbus/mb.c",line 319,column 9,is_stmt
    2059 00000129 ABF1          MOVL      *+XAR1[6],XT          ; [CPU_] |319| 
    2060                      .dwpsn  file "D:/BM1000/sw/drivers/drvic/modbus/mb.c",line 313,column 29,is_stmt
    2061 0000012a 9A00          MOVB      AL,#0                 ; [CPU_] |313| 
    2062                      .dwpsn  file "D:/BM1000/sw/drivers/drvic/modbus/mb.c",line 320,column 5,is_stmt
    2063 0000012b 6F02          B         $C$L21,UNC            ; [CPU_] |320| 
    2064                      ; branch occurs ; [] |320| 
    2065 0000012c       $C$L20:    
    2066                      .dwpsn  file "D:/BM1000/sw/drivers/drvic/modbus/mb.c",line 323,column 9,is_stmt
    2067 0000012c 9A05          MOVB      AL,#5                 ; [CPU_] |323| 
    2068 0000012d       $C$L21:    
    2069 0000012d 8BBE          MOVL      XAR1,*--SP            ; [CPU_] 
    2070                      .dwcfi  cfa_offset, -2
    2071                      .dwcfi  restore_reg, 7
    2072              $C$DW$127       .dwtag  DW_TAG_TI_branch
    2073                      .dwattr $C$DW$127, DW_AT_low_pc(0x00)
    2074                      .dwattr $C$DW$127, DW_AT_TI_return
    2075 0000012e 0006          LRETR     ; [CPU_] 
    2076                      ; return occurs ; [] 
    2077                      .dwattr $C$DW$122, DW_AT_TI_end_file("D:/BM1000/sw/drivers/drvic/modbus/mb.c")
    2078                      .dwattr $C$DW$122, DW_AT_TI_end_line(0x147)
    2079                      .dwattr $C$DW$122, DW_AT_TI_end_column(0x01)
    2080                      .dwendentry
    2081                      .dwendtag $C$DW$122
    2082              
    2083 0000012f               .sect   ".text"
    2084                      .clink
    2085                      .global _MB_PortEventInit
    2086              
    2087              $C$DW$128       .dwtag  DW_TAG_subprogram, DW_AT_name("MB_PortEventInit")
    2088                      .dwattr $C$DW$128, DW_AT_low_pc(_MB_PortEventInit)
    2089                      .dwattr $C$DW$128, DW_AT_high_pc(0x00)
    2090                      .dwattr $C$DW$128, DW_AT_TI_symbol_name("_MB_PortEventInit")
    2091                      .dwattr $C$DW$128, DW_AT_external
    2092                      .dwattr $C$DW$128, DW_AT_TI_begin_file("D:/BM1000/sw/drivers/drvic/modbus/mb.c")
    2093                      .dwattr $C$DW$128, DW_AT_TI_begin_line(0xbb)
    2094                      .dwattr $C$DW$128, DW_AT_TI_begin_column(0x06)
    2095                      .dwattr $C$DW$128, DW_AT_TI_max_frame_size(-2)
    2096                      .dwpsn  file "D:/BM1000/sw/drivers/drvic/modbus/mb.c",line 188,column 1,is_stmt,address _MB_PortEvent
    2097              
    2098                      .dwfde $C$DW$CIE, _MB_PortEventInit
    2099              $C$DW$129       .dwtag  DW_TAG_formal_parameter, DW_AT_name("handle")
    2100                      .dwattr $C$DW$129, DW_AT_TI_symbol_name("_handle")
    2101                      .dwattr $C$DW$129, DW_AT_type(*$C$DW$T$57)
    2102                      .dwattr $C$DW$129, DW_AT_location[DW_OP_reg12]
    2103              
    2104              ;***************************************************************
TMS320C2000 Assembler PC v6.2.5 Fri Sep 15 11:07:51 2017

Tools Copyright (c) 1996-2014 Texas Instruments Incorporated
C:\Users\wmj\AppData\Local\Temp\0762011                              PAGE   40

    2105              ;* FNAME: _MB_PortEventInit             FR SIZE:   0           *
    2106              ;*                                                             *
    2107              ;* FUNCTION ENVIRONMENT                                        *
    2108              ;*                                                             *
    2109              ;* FUNCTION PROPERTIES                                         *
    2110              ;*                            0 Parameter,  0 Auto,  0 SOE     *
    2111              ;***************************************************************
    2112              
    2113              _MB_PortEventInit:
    2114              ;* AR4   assigned to _handle
    2115              $C$DW$130       .dwtag  DW_TAG_variable, DW_AT_name("handle")
    2116                      .dwattr $C$DW$130, DW_AT_TI_symbol_name("_handle")
    2117                      .dwattr $C$DW$130, DW_AT_type(*$C$DW$T$71)
    2118                      .dwattr $C$DW$130, DW_AT_location[DW_OP_reg12]
    2119                      .dwcfi  cfa_offset, -2
    2120                      .dwcfi  save_reg_to_mem, 26, 0
    2121                      .dwcfi  save_reg_to_reg, 78, 26
    2122                      .dwpsn  file "D:/BM1000/sw/drivers/drvic/modbus/mb.c",line 191,column 5,is_stmt
    2123 0000012f D019          MOVB      XAR0,#25              ; [CPU_] |191| 
    2124 00000130 2B94          MOV       *+XAR4[AR0],#0        ; [CPU_] |191| 
    2125              $C$DW$131       .dwtag  DW_TAG_TI_branch
    2126                      .dwattr $C$DW$131, DW_AT_low_pc(0x00)
    2127                      .dwattr $C$DW$131, DW_AT_TI_return
    2128 00000131 0006          LRETR     ; [CPU_] 
    2129                      ; return occurs ; [] 
    2130                      .dwattr $C$DW$128, DW_AT_TI_end_file("D:/BM1000/sw/drivers/drvic/modbus/mb.c")
    2131                      .dwattr $C$DW$128, DW_AT_TI_end_line(0xc2)
    2132                      .dwattr $C$DW$128, DW_AT_TI_end_column(0x01)
    2133                      .dwendentry
    2134                      .dwendtag $C$DW$128
    2135              
    2136 00000132               .sect   ".text"
    2137                      .clink
    2138                      .global _MB_PortEventGet
    2139              
    2140              $C$DW$132       .dwtag  DW_TAG_subprogram, DW_AT_name("MB_PortEventGet")
    2141                      .dwattr $C$DW$132, DW_AT_low_pc(_MB_PortEventGet)
    2142                      .dwattr $C$DW$132, DW_AT_high_pc(0x00)
    2143                      .dwattr $C$DW$132, DW_AT_TI_symbol_name("_MB_PortEventGet")
    2144                      .dwattr $C$DW$132, DW_AT_external
    2145                      .dwattr $C$DW$132, DW_AT_type(*$C$DW$T$48)
    2146                      .dwattr $C$DW$132, DW_AT_TI_begin_file("D:/BM1000/sw/drivers/drvic/modbus/mb.c")
    2147                      .dwattr $C$DW$132, DW_AT_TI_begin_line(0xcc)
    2148                      .dwattr $C$DW$132, DW_AT_TI_begin_column(0x06)
    2149                      .dwattr $C$DW$132, DW_AT_TI_max_frame_size(-2)
    2150                      .dwpsn  file "D:/BM1000/sw/drivers/drvic/modbus/mb.c",line 205,column 1,is_stmt,address _MB_PortEvent
    2151              
    2152                      .dwfde $C$DW$CIE, _MB_PortEventGet
    2153              $C$DW$133       .dwtag  DW_TAG_formal_parameter, DW_AT_name("handle")
    2154                      .dwattr $C$DW$133, DW_AT_TI_symbol_name("_handle")
    2155                      .dwattr $C$DW$133, DW_AT_type(*$C$DW$T$57)
    2156                      .dwattr $C$DW$133, DW_AT_location[DW_OP_reg12]
    2157              $C$DW$134       .dwtag  DW_TAG_formal_parameter, DW_AT_name("eEvent")
    2158                      .dwattr $C$DW$134, DW_AT_TI_symbol_name("_eEvent")
    2159                      .dwattr $C$DW$134, DW_AT_type(*$C$DW$T$63)
TMS320C2000 Assembler PC v6.2.5 Fri Sep 15 11:07:51 2017

Tools Copyright (c) 1996-2014 Texas Instruments Incorporated
C:\Users\wmj\AppData\Local\Temp\0762011                              PAGE   41

    2160                      .dwattr $C$DW$134, DW_AT_location[DW_OP_reg14]
    2161              
    2162              ;***************************************************************
    2163              ;* FNAME: _MB_PortEventGet              FR SIZE:   0           *
    2164              ;*                                                             *
    2165              ;* FUNCTION ENVIRONMENT                                        *
    2166              ;*                                                             *
    2167              ;* FUNCTION PROPERTIES                                         *
    2168              ;*                            0 Parameter,  0 Auto,  0 SOE     *
    2169              ;***************************************************************
    2170              
    2171              _MB_PortEventGet:
    2172              ;* AL    assigned to _xEventHappened
    2173              $C$DW$135       .dwtag  DW_TAG_variable, DW_AT_name("xEventHappened")
    2174                      .dwattr $C$DW$135, DW_AT_TI_symbol_name("_xEventHappened")
    2175                      .dwattr $C$DW$135, DW_AT_type(*$C$DW$T$48)
    2176                      .dwattr $C$DW$135, DW_AT_location[DW_OP_reg0]
    2177              ;* AR5   assigned to _eEvent
    2178              $C$DW$136       .dwtag  DW_TAG_variable, DW_AT_name("eEvent")
    2179                      .dwattr $C$DW$136, DW_AT_TI_symbol_name("_eEvent")
    2180                      .dwattr $C$DW$136, DW_AT_type(*$C$DW$T$64)
    2181                      .dwattr $C$DW$136, DW_AT_location[DW_OP_reg14]
    2182              ;* AR4   assigned to _handle
    2183              $C$DW$137       .dwtag  DW_TAG_variable, DW_AT_name("handle")
    2184                      .dwattr $C$DW$137, DW_AT_TI_symbol_name("_handle")
    2185                      .dwattr $C$DW$137, DW_AT_type(*$C$DW$T$71)
    2186                      .dwattr $C$DW$137, DW_AT_location[DW_OP_reg12]
    2187                      .dwcfi  cfa_offset, -2
    2188                      .dwcfi  save_reg_to_mem, 26, 0
    2189                      .dwcfi  save_reg_to_reg, 78, 26
    2190                      .dwpsn  file "D:/BM1000/sw/drivers/drvic/modbus/mb.c",line 209,column 5,is_stmt
    2191 00000132 D019          MOVB      XAR0,#25              ; [CPU_] |209| 
    2192 00000133 9294          MOV       AL,*+XAR4[AR0]        ; [CPU_] |209| 
    2193 00000134 ED03          BF        $C$L22,NEQ            ; [CPU_] |209| 
    2194                      ; branchcc occurs ; [] |209| 
    2195                      .dwpsn  file "D:/BM1000/sw/drivers/drvic/modbus/mb.c",line 207,column 26,is_stmt
    2196 00000135 9A00          MOVB      AL,#0                 ; [CPU_] |207| 
    2197              $C$DW$138       .dwtag  DW_TAG_TI_branch
    2198                      .dwattr $C$DW$138, DW_AT_low_pc(0x00)
    2199                      .dwattr $C$DW$138, DW_AT_TI_return
    2200 00000136 0006          LRETR     ; [CPU_] 
    2201                      ; return occurs ; [] 
    2202 00000137       $C$L22:    
    2203                      .dwpsn  file "D:/BM1000/sw/drivers/drvic/modbus/mb.c",line 211,column 9,is_stmt
    2204 00000137 C5A4          MOVL      XAR7,XAR4             ; [CPU_] |211| 
    2205 00000138 DF1A          ADDB      XAR7,#26              ; [CPU_] |211| 
    2206 00000139 92C7          MOV       AL,*XAR7              ; [CPU_] |211| 
    2207 0000013a 96C5          MOV       *+XAR5[0],AL          ; [CPU_] |211| 
    2208                      .dwpsn  file "D:/BM1000/sw/drivers/drvic/modbus/mb.c",line 213,column 9,is_stmt
    2209 0000013b 9A01          MOVB      AL,#1                 ; [CPU_] |213| 
    2210                      .dwpsn  file "D:/BM1000/sw/drivers/drvic/modbus/mb.c",line 212,column 9,is_stmt
    2211 0000013c D019          MOVB      XAR0,#25              ; [CPU_] |212| 
    2212 0000013d 2B94          MOV       *+XAR4[AR0],#0        ; [CPU_] |212| 
    2213              $C$DW$139       .dwtag  DW_TAG_TI_branch
    2214                      .dwattr $C$DW$139, DW_AT_low_pc(0x00)
TMS320C2000 Assembler PC v6.2.5 Fri Sep 15 11:07:51 2017

Tools Copyright (c) 1996-2014 Texas Instruments Incorporated
C:\Users\wmj\AppData\Local\Temp\0762011                              PAGE   42

    2215                      .dwattr $C$DW$139, DW_AT_TI_return
    2216 0000013e 0006          LRETR     ; [CPU_] 
    2217                      ; return occurs ; [] 
    2218                      .dwattr $C$DW$132, DW_AT_TI_end_file("D:/BM1000/sw/drivers/drvic/modbus/mb.c")
    2219                      .dwattr $C$DW$132, DW_AT_TI_end_line(0xd9)
    2220                      .dwattr $C$DW$132, DW_AT_TI_end_column(0x01)
    2221                      .dwendentry
    2222                      .dwendtag $C$DW$132
    2223              
    2224 0000013f               .sect   ".text"
    2225                      .clink
    2226                      .global _MB_FuncWriteHoldingRegister
    2227              
    2228              $C$DW$140       .dwtag  DW_TAG_subprogram, DW_AT_name("MB_FuncWriteHoldingRegister")
    2229                      .dwattr $C$DW$140, DW_AT_low_pc(_MB_FuncWriteHoldingRegister)
    2230                      .dwattr $C$DW$140, DW_AT_high_pc(0x00)
    2231                      .dwattr $C$DW$140, DW_AT_TI_symbol_name("_MB_FuncWriteHoldingRegister")
    2232                      .dwattr $C$DW$140, DW_AT_external
    2233                      .dwattr $C$DW$140, DW_AT_TI_begin_file("D:/BM1000/sw/drivers/drvic/modbus/mb.c")
    2234                      .dwattr $C$DW$140, DW_AT_TI_begin_line(0x1d6)
    2235                      .dwattr $C$DW$140, DW_AT_TI_begin_column(0x06)
    2236                      .dwattr $C$DW$140, DW_AT_TI_max_frame_size(-2)
    2237                      .dwpsn  file "D:/BM1000/sw/drivers/drvic/modbus/mb.c",line 471,column 1,is_stmt,address _MB_FuncWrite
    2238              
    2239                      .dwfde $C$DW$CIE, _MB_FuncWriteHoldingRegister
    2240              $C$DW$141       .dwtag  DW_TAG_formal_parameter, DW_AT_name("handle")
    2241                      .dwattr $C$DW$141, DW_AT_TI_symbol_name("_handle")
    2242                      .dwattr $C$DW$141, DW_AT_type(*$C$DW$T$57)
    2243                      .dwattr $C$DW$141, DW_AT_location[DW_OP_reg12]
    2244              
    2245              ;***************************************************************
    2246              ;* FNAME: _MB_FuncWriteHoldingRegister  FR SIZE:   0           *
    2247              ;*                                                             *
    2248              ;* FUNCTION ENVIRONMENT                                        *
    2249              ;*                                                             *
    2250              ;* FUNCTION PROPERTIES                                         *
    2251              ;*                            0 Parameter,  0 Auto,  0 SOE     *
    2252              ;***************************************************************
    2253              
    2254 0000013f       _MB_FuncWriteHoldingRegister:
    2255                      .dwcfi  cfa_offset, -2
    2256                      .dwcfi  save_reg_to_mem, 26, 0
    2257                      .dwcfi  save_reg_to_reg, 78, 26
    2258              $C$DW$142       .dwtag  DW_TAG_TI_branch
    2259                      .dwattr $C$DW$142, DW_AT_low_pc(0x00)
    2260                      .dwattr $C$DW$142, DW_AT_TI_return
    2261 0000013f 0006          LRETR     ; [CPU_] 
    2262                      ; return occurs ; [] 
    2263                      .dwattr $C$DW$140, DW_AT_TI_end_file("D:/BM1000/sw/drivers/drvic/modbus/mb.c")
    2264                      .dwattr $C$DW$140, DW_AT_TI_end_line(0x1f0)
    2265                      .dwattr $C$DW$140, DW_AT_TI_end_column(0x01)
    2266                      .dwendentry
    2267                      .dwendtag $C$DW$140
    2268              
    2269 00000140               .sect   ".text"
TMS320C2000 Assembler PC v6.2.5 Fri Sep 15 11:07:51 2017

Tools Copyright (c) 1996-2014 Texas Instruments Incorporated
C:\Users\wmj\AppData\Local\Temp\0762011                              PAGE   43

    2270                      .clink
    2271                      .global _MB_FuncReadHoldingRegister
    2272              
    2273              $C$DW$143       .dwtag  DW_TAG_subprogram, DW_AT_name("MB_FuncReadHoldingRegister")
    2274                      .dwattr $C$DW$143, DW_AT_low_pc(_MB_FuncReadHoldingRegister)
    2275                      .dwattr $C$DW$143, DW_AT_high_pc(0x00)
    2276                      .dwattr $C$DW$143, DW_AT_TI_symbol_name("_MB_FuncReadHoldingRegister")
    2277                      .dwattr $C$DW$143, DW_AT_external
    2278                      .dwattr $C$DW$143, DW_AT_TI_begin_file("D:/BM1000/sw/drivers/drvic/modbus/mb.c")
    2279                      .dwattr $C$DW$143, DW_AT_TI_begin_line(0x1bc)
    2280                      .dwattr $C$DW$143, DW_AT_TI_begin_column(0x06)
    2281                      .dwattr $C$DW$143, DW_AT_TI_max_frame_size(-2)
    2282                      .dwpsn  file "D:/BM1000/sw/drivers/drvic/modbus/mb.c",line 445,column 1,is_stmt,address _MB_FuncReadH
    2283              
    2284                      .dwfde $C$DW$CIE, _MB_FuncReadHoldingRegister
    2285              $C$DW$144       .dwtag  DW_TAG_formal_parameter, DW_AT_name("handle")
    2286                      .dwattr $C$DW$144, DW_AT_TI_symbol_name("_handle")
    2287                      .dwattr $C$DW$144, DW_AT_type(*$C$DW$T$57)
    2288                      .dwattr $C$DW$144, DW_AT_location[DW_OP_reg12]
    2289              
    2290              ;***************************************************************
    2291              ;* FNAME: _MB_FuncReadHoldingRegister   FR SIZE:   0           *
    2292              ;*                                                             *
    2293              ;* FUNCTION ENVIRONMENT                                        *
    2294              ;*                                                             *
    2295              ;* FUNCTION PROPERTIES                                         *
    2296              ;*                            0 Parameter,  0 Auto,  0 SOE     *
    2297              ;***************************************************************
    2298              
    2299              _MB_FuncReadHoldingRegister:
    2300              ;* AR5   assigned to $O$C1
    2301              ;* AR6   assigned to $O$C2
    2302              ;* AL    assigned to _RegData
    2303              $C$DW$145       .dwtag  DW_TAG_variable, DW_AT_name("RegData")
    2304                      .dwattr $C$DW$145, DW_AT_TI_symbol_name("_RegData")
    2305                      .dwattr $C$DW$145, DW_AT_type(*$C$DW$T$21)
    2306                      .dwattr $C$DW$145, DW_AT_location[DW_OP_reg0]
    2307              ;* AL    assigned to _RegAddress
    2308              $C$DW$146       .dwtag  DW_TAG_variable, DW_AT_name("RegAddress")
    2309                      .dwattr $C$DW$146, DW_AT_TI_symbol_name("_RegAddress")
    2310                      .dwattr $C$DW$146, DW_AT_type(*$C$DW$T$21)
    2311                      .dwattr $C$DW$146, DW_AT_location[DW_OP_reg0]
    2312              ;* AR4   assigned to _handle
    2313              $C$DW$147       .dwtag  DW_TAG_variable, DW_AT_name("handle")
    2314                      .dwattr $C$DW$147, DW_AT_TI_symbol_name("_handle")
    2315                      .dwattr $C$DW$147, DW_AT_type(*$C$DW$T$71)
    2316                      .dwattr $C$DW$147, DW_AT_location[DW_OP_reg12]
    2317              ;* AR6   assigned to $O$U2
    2318                      .dwcfi  cfa_offset, -2
    2319                      .dwcfi  save_reg_to_mem, 26, 0
    2320                      .dwcfi  save_reg_to_reg, 78, 26
    2321                      .dwpsn  file "D:/BM1000/sw/drivers/drvic/modbus/mb.c",line 451,column 3,is_stmt
    2322 00000140 C4F4          MOVL      XAR6,*+XAR4[6]        ; [CPU_] |451| 
    2323 00000141 83A6          MOVL      XAR5,XAR6             ; [CPU_] |451| 
    2324 00000142 DD02          ADDB      XAR5,#2               ; [CPU_] |451| 
TMS320C2000 Assembler PC v6.2.5 Fri Sep 15 11:07:51 2017

Tools Copyright (c) 1996-2014 Texas Instruments Incorporated
C:\Users\wmj\AppData\Local\Temp\0762011                              PAGE   44

    2325 00000143 92C5          MOV       AL,*+XAR5[0]          ; [CPU_] |451| 
    2326                      .dwpsn  file "D:/BM1000/sw/drivers/drvic/modbus/mb.c",line 460,column 11,is_stmt
    2327 00000144 5603          MOV       ACC,AL << #8          ; [CPU_] |460| 
         00000145 08A9 
    2328 00000146 CACD          OR        AL,*+XAR5[1]          ; [CPU_] |460| 
    2329 00000147 5202          CMPB      AL,#2                 ; [CPU_] |460| 
    2330 00000148 EC04          BF        $C$L23,EQ             ; [CPU_] |460| 
    2331                      ; branchcc occurs ; [] |460| 
    2332 00000149 28A9          MOV       AL,#65535             ; [CPU_] |460| 
         0000014a FFFF 
    2333 0000014b 6F03          B         $C$L24,UNC            ; [CPU_] |460| 
    2334                      ; branch occurs ; [] |460| 
    2335 0000014c       $C$L23:    
    2336 0000014c 28A9          MOV       AL,#21778             ; [CPU_] |460| 
         0000014d 5512 
    2337 0000014e       $C$L24:    
    2338                      .dwpsn  file "D:/BM1000/sw/drivers/drvic/modbus/mb.c",line 464,column 3,is_stmt
    2339 0000014e CDA9          AND       AH,AL,#0x00ff         ; [CPU_] |464| 
         0000014f 00FF 
    2340 00000150 97E6          MOV       *+XAR6[4],AH          ; [CPU_] |464| 
    2341                      .dwpsn  file "D:/BM1000/sw/drivers/drvic/modbus/mb.c",line 465,column 3,is_stmt
    2342 00000151 8AF4          MOVL      XAR4,*+XAR4[6]        ; [CPU_] |465| 
    2343 00000152 FFC7          LSR       AL,8                  ; [CPU_] |465| 
    2344 00000153 96EC          MOV       *+XAR4[5],AL          ; [CPU_] |465| 
    2345              $C$DW$148       .dwtag  DW_TAG_TI_branch
    2346                      .dwattr $C$DW$148, DW_AT_low_pc(0x00)
    2347                      .dwattr $C$DW$148, DW_AT_TI_return
    2348 00000154 0006          LRETR     ; [CPU_] 
    2349                      ; return occurs ; [] 
    2350                      .dwattr $C$DW$143, DW_AT_TI_end_file("D:/BM1000/sw/drivers/drvic/modbus/mb.c")
    2351                      .dwattr $C$DW$143, DW_AT_TI_end_line(0x1d4)
    2352                      .dwattr $C$DW$143, DW_AT_TI_end_column(0x01)
    2353                      .dwendentry
    2354                      .dwendtag $C$DW$143
    2355              
    2356 00000155               .sect   ".text"
    2357                      .clink
    2358                      .global _MB_Poll
    2359              
    2360              $C$DW$149       .dwtag  DW_TAG_subprogram, DW_AT_name("MB_Poll")
    2361                      .dwattr $C$DW$149, DW_AT_low_pc(_MB_Poll)
    2362                      .dwattr $C$DW$149, DW_AT_high_pc(0x00)
    2363                      .dwattr $C$DW$149, DW_AT_TI_symbol_name("_MB_Poll")
    2364                      .dwattr $C$DW$149, DW_AT_external
    2365                      .dwattr $C$DW$149, DW_AT_type(*$C$DW$T$43)
    2366                      .dwattr $C$DW$149, DW_AT_TI_begin_file("D:/BM1000/sw/drivers/drvic/modbus/mb.c")
    2367                      .dwattr $C$DW$149, DW_AT_TI_begin_line(0x16c)
    2368                      .dwattr $C$DW$149, DW_AT_TI_begin_column(0x0e)
    2369                      .dwattr $C$DW$149, DW_AT_TI_max_frame_size(-4)
    2370                      .dwpsn  file "D:/BM1000/sw/drivers/drvic/modbus/mb.c",line 365,column 1,is_stmt,address _MB_Poll
    2371              
    2372                      .dwfde $C$DW$CIE, _MB_Poll
    2373              $C$DW$150       .dwtag  DW_TAG_variable, DW_AT_name("ucFunctionCode")
    2374                      .dwattr $C$DW$150, DW_AT_TI_symbol_name("_ucFunctionCode$2")
    2375                      .dwattr $C$DW$150, DW_AT_type(*$C$DW$T$38)
TMS320C2000 Assembler PC v6.2.5 Fri Sep 15 11:07:51 2017

Tools Copyright (c) 1996-2014 Texas Instruments Incorporated
C:\Users\wmj\AppData\Local\Temp\0762011                              PAGE   45

    2376                      .dwattr $C$DW$150, DW_AT_location[DW_OP_addr _ucFunctionCode$2]
    2377              $C$DW$151       .dwtag  DW_TAG_variable, DW_AT_name("eException")
    2378                      .dwattr $C$DW$151, DW_AT_TI_symbol_name("_eException$4")
    2379                      .dwattr $C$DW$151, DW_AT_type(*$C$DW$T$67)
    2380                      .dwattr $C$DW$151, DW_AT_location[DW_OP_addr _eException$4]
    2381              $C$DW$152       .dwtag  DW_TAG_variable, DW_AT_name("ucMBFrame")
    2382                      .dwattr $C$DW$152, DW_AT_TI_symbol_name("_ucMBFrame$1")
    2383                      .dwattr $C$DW$152, DW_AT_type(*$C$DW$T$40)
    2384                      .dwattr $C$DW$152, DW_AT_location[DW_OP_addr _ucMBFrame$1]
    2385              $C$DW$153       .dwtag  DW_TAG_formal_parameter, DW_AT_name("handle")
    2386                      .dwattr $C$DW$153, DW_AT_TI_symbol_name("_handle")
    2387                      .dwattr $C$DW$153, DW_AT_type(*$C$DW$T$57)
    2388                      .dwattr $C$DW$153, DW_AT_location[DW_OP_reg12]
    2389              
    2390              ;***************************************************************
    2391              ;* FNAME: _MB_Poll                      FR SIZE:   2           *
    2392              ;*                                                             *
    2393              ;* FUNCTION ENVIRONMENT                                        *
    2394              ;*                                                             *
    2395              ;* FUNCTION PROPERTIES                                         *
    2396              ;*                            0 Parameter,  0 Auto,  2 SOE     *
    2397              ;***************************************************************
    2398              
    2399              _MB_Poll:
    2400              ;* AR6   assigned to $O$C1
    2401              ;* AR4   assigned to $O$C2
    2402              ;* AR4   assigned to $O$C3
    2403              ;* AR7   assigned to $O$y2
    2404              ;* AR1   assigned to _handle
    2405              $C$DW$154       .dwtag  DW_TAG_variable, DW_AT_name("handle")
    2406                      .dwattr $C$DW$154, DW_AT_TI_symbol_name("_handle")
    2407                      .dwattr $C$DW$154, DW_AT_type(*$C$DW$T$71)
    2408                      .dwattr $C$DW$154, DW_AT_location[DW_OP_reg6]
    2409              ;* AR4   assigned to $O$U5
    2410                      .dwcfi  cfa_offset, -2
    2411                      .dwcfi  save_reg_to_mem, 26, 0
    2412                      .dwcfi  save_reg_to_reg, 78, 26
    2413 00000155 83A4          MOVL      XAR5,XAR4             ; [CPU_] |365| 
    2414 00000156 B2BD          MOVL      *SP++,XAR1            ; [CPU_] 
    2415                      .dwcfi  save_reg_to_mem, 7, 2
    2416                      .dwcfi  cfa_offset, -4
    2417                      .dwpsn  file "D:/BM1000/sw/drivers/drvic/modbus/mb.c",line 378,column 5,is_stmt
    2418 00000157 DD1A          ADDB      XAR5,#26              ; [CPU_] |378| 
    2419              $C$DW$155       .dwtag  DW_TAG_TI_branch
    2420                      .dwattr $C$DW$155, DW_AT_low_pc(0x00)
    2421                      .dwattr $C$DW$155, DW_AT_name("_MB_PortEventGet")
    2422                      .dwattr $C$DW$155, DW_AT_TI_call
    2423 00000158 7640'         LCR       #_MB_PortEventGet     ; [CPU_] |378| 
         00000159 0132 
    2424                      ; call occurs [#_MB_PortEventGet] ; [] |378| 
    2425                      .dwpsn  file "D:/BM1000/sw/drivers/drvic/modbus/mb.c",line 365,column 1,is_stmt
    2426 0000015a 8BA4          MOVL      XAR1,XAR4             ; [CPU_] |365| 
    2427                      .dwpsn  file "D:/BM1000/sw/drivers/drvic/modbus/mb.c",line 378,column 5,is_stmt
    2428 0000015b 5201          CMPB      AL,#1                 ; [CPU_] |378| 
    2429 0000015c ED37          BF        $C$L29,NEQ            ; [CPU_] |378| 
TMS320C2000 Assembler PC v6.2.5 Fri Sep 15 11:07:51 2017

Tools Copyright (c) 1996-2014 Texas Instruments Incorporated
C:\Users\wmj\AppData\Local\Temp\0762011                              PAGE   46

    2430                      ; branchcc occurs ; [] |378| 
    2431 0000015d D01A          MOVB      XAR0,#26              ; [CPU_] |378| 
    2432 0000015e 9291          MOV       AL,*+XAR1[AR0]        ; [CPU_] |378| 
    2433 0000015f 5201          CMPB      AL,#1                 ; [CPU_] |378| 
    2434 00000160 EC1F          BF        $C$L27,EQ             ; [CPU_] |378| 
    2435                      ; branchcc occurs ; [] |378| 
    2436 00000161 5202          CMPB      AL,#2                 ; [CPU_] |378| 
    2437 00000162 ED31          BF        $C$L29,NEQ            ; [CPU_] |378| 
    2438                      ; branchcc occurs ; [] |378| 
    2439                      .dwpsn  file "D:/BM1000/sw/drivers/drvic/modbus/mb.c",line 396,column 6,is_stmt
    2440 00000163 8AF1          MOVL      XAR4,*+XAR1[6]        ; [CPU_] |396| 
    2441 00000164 80CC          MOVZ      AR7,*+XAR4[1]         ; [CPU_] |396| 
    2442 00000165 761F-         MOVW      DP,#_ucFunctionCode$2 ; [CPU_U] 
         00000166 0000 
    2443                      .dwpsn  file "D:/BM1000/sw/drivers/drvic/modbus/mb.c",line 398,column 6,is_stmt
    2444 00000167 92A7          MOV       AL,AR7                ; [CPU_] |398| 
    2445 00000168 5203          CMPB      AL,#3                 ; [CPU_] |398| 
    2446                      .dwpsn  file "D:/BM1000/sw/drivers/drvic/modbus/mb.c",line 396,column 6,is_stmt
    2447 00000169 7F00-         MOV       @_ucFunctionCode$2,AR7 ; [CPU_] |396| 
    2448                      .dwpsn  file "D:/BM1000/sw/drivers/drvic/modbus/mb.c",line 398,column 6,is_stmt
    2449 0000016a ED05          BF        $C$L25,NEQ            ; [CPU_] |398| 
    2450                      ; branchcc occurs ; [] |398| 
    2451                      .dwpsn  file "D:/BM1000/sw/drivers/drvic/modbus/mb.c",line 406,column 9,is_stmt
    2452 0000016b 8AA1          MOVL      XAR4,XAR1             ; [CPU_] |406| 
    2453              $C$DW$156       .dwtag  DW_TAG_TI_branch
    2454                      .dwattr $C$DW$156, DW_AT_low_pc(0x00)
    2455                      .dwattr $C$DW$156, DW_AT_name("_MB_FuncReadHoldingRegister")
    2456                      .dwattr $C$DW$156, DW_AT_TI_call
    2457 0000016c 7640'         LCR       #_MB_FuncReadHoldingRegister ; [CPU_] |406| 
         0000016d 0140 
    2458                      ; call occurs [#_MB_FuncReadHoldingRegister] ; [] |406| 
    2459 0000016e 8AF1          MOVL      XAR4,*+XAR1[6]        ; [CPU_] 
    2460 0000016f       $C$L25:    
    2461                      .dwpsn  file "D:/BM1000/sw/drivers/drvic/modbus/mb.c",line 422,column 9,is_stmt
    2462 0000016f 92C4          MOV       AL,*+XAR4[0]          ; [CPU_] |422| 
    2463 00000170 EC23          BF        $C$L29,EQ             ; [CPU_] |422| 
    2464                      ; branchcc occurs ; [] |422| 
    2465                      .dwpsn  file "D:/BM1000/sw/drivers/drvic/modbus/mb.c",line 424,column 13,is_stmt
    2466 00000171 9201-         MOV       AL,@_eException$4     ; [CPU_] |424| 
    2467 00000172 EC07          BF        $C$L26,EQ             ; [CPU_] |424| 
    2468                      ; branchcc occurs ; [] |424| 
    2469                      .dwpsn  file "D:/BM1000/sw/drivers/drvic/modbus/mb.c",line 428,column 17,is_stmt
    2470 00000173 8A02-         MOVL      XAR4,@_ucMBFrame$1    ; [CPU_] |428| 
    2471 00000174 92A7          MOV       AL,AR7                ; [CPU_] |428| 
    2472 00000175 5080          ORB       AL,#0x80              ; [CPU_] |428| 
    2473 00000176 96C4          MOV       *+XAR4[0],AL          ; [CPU_] |428| 
    2474                      .dwpsn  file "D:/BM1000/sw/drivers/drvic/modbus/mb.c",line 429,column 17,is_stmt
    2475 00000177 9201-         MOV       AL,@_eException$4     ; [CPU_] |429| 
    2476 00000178 96CC          MOV       *+XAR4[1],AL          ; [CPU_] |429| 
    2477 00000179       $C$L26:    
    2478                      .dwpsn  file "D:/BM1000/sw/drivers/drvic/modbus/mb.c",line 432,column 13,is_stmt
    2479 00000179 8AA1          MOVL      XAR4,XAR1             ; [CPU_] |432| 
    2480              $C$DW$157       .dwtag  DW_TAG_TI_branch
    2481                      .dwattr $C$DW$157, DW_AT_low_pc(0x00)
    2482                      .dwattr $C$DW$157, DW_AT_name("_MB_RTUSend")
TMS320C2000 Assembler PC v6.2.5 Fri Sep 15 11:07:51 2017

Tools Copyright (c) 1996-2014 Texas Instruments Incorporated
C:\Users\wmj\AppData\Local\Temp\0762011                              PAGE   47

    2483                      .dwattr $C$DW$157, DW_AT_TI_call
    2484 0000017a 7640'         LCR       #_MB_RTUSend          ; [CPU_] |432| 
         0000017b 008E 
    2485                      ; call occurs [#_MB_RTUSend] ; [] |432| 
    2486 0000017c D016          MOVB      XAR0,#22              ; [CPU_] |432| 
    2487 0000017d 9691          MOV       *+XAR1[AR0],AL        ; [CPU_] |432| 
    2488 0000017e 6F15          B         $C$L29,UNC            ; [CPU_] |432| 
    2489                      ; branch occurs ; [] |432| 
    2490 0000017f       $C$L27:    
    2491                      .dwpsn  file "D:/BM1000/sw/drivers/drvic/modbus/mb.c",line 383,column 6,is_stmt
    2492              $C$DW$158       .dwtag  DW_TAG_TI_branch
    2493                      .dwattr $C$DW$158, DW_AT_low_pc(0x00)
    2494                      .dwattr $C$DW$158, DW_AT_name("_MB_RTUReceive")
    2495                      .dwattr $C$DW$158, DW_AT_TI_call
    2496 0000017f 7640'         LCR       #_MB_RTUReceive       ; [CPU_] |383| 
         00000180 011D 
    2497                      ; call occurs [#_MB_RTUReceive] ; [] |383| 
    2498 00000181 D016          MOVB      XAR0,#22              ; [CPU_] |383| 
    2499 00000182 9691          MOV       *+XAR1[AR0],AL        ; [CPU_] |383| 
    2500                      .dwpsn  file "D:/BM1000/sw/drivers/drvic/modbus/mb.c",line 384,column 6,is_stmt
    2501 00000183 D016          MOVB      XAR0,#22              ; [CPU_] |384| 
    2502 00000184 9291          MOV       AL,*+XAR1[AR0]        ; [CPU_] |384| 
    2503 00000185 ED0E          BF        $C$L29,NEQ            ; [CPU_] |384| 
    2504                      ; branchcc occurs ; [] |384| 
    2505                      .dwpsn  file "D:/BM1000/sw/drivers/drvic/modbus/mb.c",line 387,column 3,is_stmt
    2506 00000186 8AF1          MOVL      XAR4,*+XAR1[6]        ; [CPU_] |387| 
    2507 00000187 88C4          MOVZ      AR6,*+XAR4[0]         ; [CPU_] |387| 
    2508 00000188 D015          MOVB      XAR0,#21              ; [CPU_] |387| 
    2509 00000189 0E91          MOVU      ACC,*+XAR1[AR0]       ; [CPU_] |387| 
    2510 0000018a 80A6          MOVZ      AR7,AR6               ; [CPU_] |387| 
    2511 0000018b 0FA7          CMPL      ACC,XAR7              ; [CPU_] |387| 
    2512 0000018c EC03          BF        $C$L28,EQ             ; [CPU_] |387| 
    2513                      ; branchcc occurs ; [] |387| 
    2514 0000018d 92A6          MOV       AL,AR6                ; [CPU_] 
    2515 0000018e ED05          BF        $C$L29,NEQ            ; [CPU_] |387| 
    2516                      ; branchcc occurs ; [] |387| 
    2517 0000018f       $C$L28:    
    2518                      .dwpsn  file "D:/BM1000/sw/drivers/drvic/modbus/mb.c",line 389,column 4,is_stmt
    2519 0000018f 9A02          MOVB      AL,#2                 ; [CPU_] |389| 
    2520 00000190 8AA1          MOVL      XAR4,XAR1             ; [CPU_] |389| 
    2521              $C$DW$159       .dwtag  DW_TAG_TI_branch
    2522                      .dwattr $C$DW$159, DW_AT_low_pc(0x00)
    2523                      .dwattr $C$DW$159, DW_AT_name("_MB_PortEventPost")
    2524                      .dwattr $C$DW$159, DW_AT_TI_call
    2525 00000191 7640'         LCR       #_MB_PortEventPost    ; [CPU_] |389| 
         00000192 000C 
    2526                      ; call occurs [#_MB_PortEventPost] ; [] |389| 
    2527 00000193       $C$L29:    
    2528                      .dwpsn  file "D:/BM1000/sw/drivers/drvic/modbus/mb.c",line 441,column 3,is_stmt
    2529 00000193 9A00          MOVB      AL,#0                 ; [CPU_] |441| 
    2530 00000194 8BBE          MOVL      XAR1,*--SP            ; [CPU_] 
    2531                      .dwcfi  cfa_offset, -2
    2532                      .dwcfi  restore_reg, 7
    2533              $C$DW$160       .dwtag  DW_TAG_TI_branch
    2534                      .dwattr $C$DW$160, DW_AT_low_pc(0x00)
TMS320C2000 Assembler PC v6.2.5 Fri Sep 15 11:07:51 2017

Tools Copyright (c) 1996-2014 Texas Instruments Incorporated
C:\Users\wmj\AppData\Local\Temp\0762011                              PAGE   48

    2535                      .dwattr $C$DW$160, DW_AT_TI_return
    2536 00000195 0006          LRETR     ; [CPU_] 
    2537                      ; return occurs ; [] 
    2538                      .dwattr $C$DW$149, DW_AT_TI_end_file("D:/BM1000/sw/drivers/drvic/modbus/mb.c")
    2539                      .dwattr $C$DW$149, DW_AT_TI_end_line(0x1ba)
    2540                      .dwattr $C$DW$149, DW_AT_TI_end_column(0x01)
    2541                      .dwendentry
    2542                      .dwendtag $C$DW$149
    2543              
    2544              ;**************************************************************
    2545              ;* UNDEFINED EXTERNAL REFERENCES                              *
    2546              ;**************************************************************
    2547                      .global _SCI_putDataBlocking
    2548                      .global _TIMER_clearFlag
    2549                      .global _SCI_enableTx
    2550                      .global _SCI_disableTx
    2551                      .global _SCI_enableRx
    2552                      .global _SCI_disableRx
    2553                      .global _SCI_getDataBlocking
    2554              
    2555              ;***************************************************************
    2556              ;* TYPE INFORMATION                                            *
    2557              ;***************************************************************
    2558              
    2559              $C$DW$T$42      .dwtag  DW_TAG_enumeration_type
    2560                      .dwattr $C$DW$T$42, DW_AT_byte_size(0x01)
    2561              $C$DW$161       .dwtag  DW_TAG_enumerator, DW_AT_name("MB_ENOERR"), DW_AT_const_value(0x00)
    2562              $C$DW$162       .dwtag  DW_TAG_enumerator, DW_AT_name("MB_ENOREG"), DW_AT_const_value(0x01)
    2563              $C$DW$163       .dwtag  DW_TAG_enumerator, DW_AT_name("MB_EINVAL"), DW_AT_const_value(0x02)
    2564              $C$DW$164       .dwtag  DW_TAG_enumerator, DW_AT_name("MB_EPORTERR"), DW_AT_const_value(0x03)
    2565              $C$DW$165       .dwtag  DW_TAG_enumerator, DW_AT_name("MB_ENORES"), DW_AT_const_value(0x04)
    2566              $C$DW$166       .dwtag  DW_TAG_enumerator, DW_AT_name("MB_EIO"), DW_AT_const_value(0x05)
    2567              $C$DW$167       .dwtag  DW_TAG_enumerator, DW_AT_name("MB_EILLSTATE"), DW_AT_const_value(0x06)
    2568              $C$DW$168       .dwtag  DW_TAG_enumerator, DW_AT_name("MB_ETIMEDOUT"), DW_AT_const_value(0x07)
    2569                      .dwendtag $C$DW$T$42
    2570              
    2571              $C$DW$T$43      .dwtag  DW_TAG_typedef, DW_AT_name("eMBErrorCode")
    2572                      .dwattr $C$DW$T$43, DW_AT_type(*$C$DW$T$42)
    2573                      .dwattr $C$DW$T$43, DW_AT_language(DW_LANG_C)
    2574              
    2575              $C$DW$T$44      .dwtag  DW_TAG_enumeration_type
    2576                      .dwattr $C$DW$T$44, DW_AT_byte_size(0x01)
    2577              $C$DW$169       .dwtag  DW_TAG_enumerator, DW_AT_name("STATE_TX_IDLE"), DW_AT_const_value(0x00)
    2578              $C$DW$170       .dwtag  DW_TAG_enumerator, DW_AT_name("STATE_TX_XMIT"), DW_AT_const_value(0x01)
    2579                      .dwendtag $C$DW$T$44
    2580              
    2581              $C$DW$T$45      .dwtag  DW_TAG_typedef, DW_AT_name("eMBSndState")
    2582                      .dwattr $C$DW$T$45, DW_AT_type(*$C$DW$T$44)
    2583                      .dwattr $C$DW$T$45, DW_AT_language(DW_LANG_C)
    2584              
    2585              $C$DW$T$46      .dwtag  DW_TAG_enumeration_type
    2586                      .dwattr $C$DW$T$46, DW_AT_byte_size(0x01)
    2587              $C$DW$171       .dwtag  DW_TAG_enumerator, DW_AT_name("STATE_RX_INIT"), DW_AT_const_value(0x00)
    2588              $C$DW$172       .dwtag  DW_TAG_enumerator, DW_AT_name("STATE_RX_IDLE"), DW_AT_const_value(0x01)
    2589              $C$DW$173       .dwtag  DW_TAG_enumerator, DW_AT_name("STATE_RX_RCV"), DW_AT_const_value(0x02)
TMS320C2000 Assembler PC v6.2.5 Fri Sep 15 11:07:51 2017

Tools Copyright (c) 1996-2014 Texas Instruments Incorporated
C:\Users\wmj\AppData\Local\Temp\0762011                              PAGE   49

    2590              $C$DW$174       .dwtag  DW_TAG_enumerator, DW_AT_name("STATE_RX_ERROR"), DW_AT_const_value(0x03)
    2591                      .dwendtag $C$DW$T$46
    2592              
    2593              $C$DW$T$47      .dwtag  DW_TAG_typedef, DW_AT_name("eMBRcvState")
    2594                      .dwattr $C$DW$T$47, DW_AT_type(*$C$DW$T$46)
    2595                      .dwattr $C$DW$T$47, DW_AT_language(DW_LANG_C)
    2596              
    2597              $C$DW$T$49      .dwtag  DW_TAG_enumeration_type
    2598                      .dwattr $C$DW$T$49, DW_AT_byte_size(0x01)
    2599              $C$DW$175       .dwtag  DW_TAG_enumerator, DW_AT_name("EV_READY"), DW_AT_const_value(0x00)
    2600              $C$DW$176       .dwtag  DW_TAG_enumerator, DW_AT_name("EV_FRAME_RECEIVED"), DW_AT_const_value(0x01)
    2601              $C$DW$177       .dwtag  DW_TAG_enumerator, DW_AT_name("EV_EXECUTE"), DW_AT_const_value(0x02)
    2602              $C$DW$178       .dwtag  DW_TAG_enumerator, DW_AT_name("EV_FRAME_SENT"), DW_AT_const_value(0x03)
    2603                      .dwendtag $C$DW$T$49
    2604              
    2605              $C$DW$T$50      .dwtag  DW_TAG_typedef, DW_AT_name("eMBEventType")
    2606                      .dwattr $C$DW$T$50, DW_AT_type(*$C$DW$T$49)
    2607                      .dwattr $C$DW$T$50, DW_AT_language(DW_LANG_C)
    2608              $C$DW$T$63      .dwtag  DW_TAG_pointer_type
    2609                      .dwattr $C$DW$T$63, DW_AT_type(*$C$DW$T$50)
    2610                      .dwattr $C$DW$T$63, DW_AT_address_class(0x16)
    2611              $C$DW$179       .dwtag  DW_TAG_TI_far_type
    2612                      .dwattr $C$DW$179, DW_AT_type(*$C$DW$T$63)
    2613              $C$DW$T$64      .dwtag  DW_TAG_const_type
    2614                      .dwattr $C$DW$T$64, DW_AT_type(*$C$DW$179)
    2615              $C$DW$180       .dwtag  DW_TAG_TI_far_type
    2616                      .dwattr $C$DW$180, DW_AT_type(*$C$DW$T$50)
    2617              $C$DW$T$65      .dwtag  DW_TAG_const_type
    2618                      .dwattr $C$DW$T$65, DW_AT_type(*$C$DW$180)
    2619              
    2620              $C$DW$T$66      .dwtag  DW_TAG_enumeration_type
    2621                      .dwattr $C$DW$T$66, DW_AT_byte_size(0x01)
    2622              $C$DW$181       .dwtag  DW_TAG_enumerator, DW_AT_name("MB_EX_NONE"), DW_AT_const_value(0x00)
    2623              $C$DW$182       .dwtag  DW_TAG_enumerator, DW_AT_name("MB_EX_ILLEGAL_FUNCTION"), DW_AT_const_value(0x01)
    2624              $C$DW$183       .dwtag  DW_TAG_enumerator, DW_AT_name("MB_EX_ILLEGAL_DATA_ADDRESS"), DW_AT_const_value(0x02)
    2625              $C$DW$184       .dwtag  DW_TAG_enumerator, DW_AT_name("MB_EX_ILLEGAL_DATA_VALUE"), DW_AT_const_value(0x03)
    2626              $C$DW$185       .dwtag  DW_TAG_enumerator, DW_AT_name("MB_EX_SLAVE_DEVICE_FAILURE"), DW_AT_const_value(0x04)
    2627              $C$DW$186       .dwtag  DW_TAG_enumerator, DW_AT_name("MB_EX_ACKNOWLEDGE"), DW_AT_const_value(0x05)
    2628              $C$DW$187       .dwtag  DW_TAG_enumerator, DW_AT_name("MB_EX_SLAVE_BUSY"), DW_AT_const_value(0x06)
    2629              $C$DW$188       .dwtag  DW_TAG_enumerator, DW_AT_name("MB_EX_MEMORY_PARITY_ERROR"), DW_AT_const_value(0x08)
    2630              $C$DW$189       .dwtag  DW_TAG_enumerator, DW_AT_name("MB_EX_GATEWAY_PATH_FAILED"), DW_AT_const_value(0x0a)
    2631              $C$DW$190       .dwtag  DW_TAG_enumerator, DW_AT_name("MB_EX_GATEWAY_TGT_FAILED"), DW_AT_const_value(0x0b)
    2632                      .dwendtag $C$DW$T$66
    2633              
    2634              $C$DW$T$67      .dwtag  DW_TAG_typedef, DW_AT_name("eMBException")
    2635                      .dwattr $C$DW$T$67, DW_AT_type(*$C$DW$T$66)
    2636                      .dwattr $C$DW$T$67, DW_AT_language(DW_LANG_C)
    2637              
    2638              $C$DW$T$29      .dwtag  DW_TAG_structure_type
    2639                      .dwattr $C$DW$T$29, DW_AT_name("_GPIO_Obj_")
    2640                      .dwattr $C$DW$T$29, DW_AT_byte_size(0x6a)
    2641              $C$DW$191       .dwtag  DW_TAG_member
    2642                      .dwattr $C$DW$191, DW_AT_type(*$C$DW$T$20)
    2643                      .dwattr $C$DW$191, DW_AT_name("GPACTRL")
    2644                      .dwattr $C$DW$191, DW_AT_TI_symbol_name("_GPACTRL")
TMS320C2000 Assembler PC v6.2.5 Fri Sep 15 11:07:51 2017

Tools Copyright (c) 1996-2014 Texas Instruments Incorporated
C:\Users\wmj\AppData\Local\Temp\0762011                              PAGE   50

    2645                      .dwattr $C$DW$191, DW_AT_data_member_location[DW_OP_plus_uconst 0x0]
    2646                      .dwattr $C$DW$191, DW_AT_accessibility(DW_ACCESS_public)
    2647              $C$DW$192       .dwtag  DW_TAG_member
    2648                      .dwattr $C$DW$192, DW_AT_type(*$C$DW$T$20)
    2649                      .dwattr $C$DW$192, DW_AT_name("GPAQSEL1")
    2650                      .dwattr $C$DW$192, DW_AT_TI_symbol_name("_GPAQSEL1")
    2651                      .dwattr $C$DW$192, DW_AT_data_member_location[DW_OP_plus_uconst 0x2]
    2652                      .dwattr $C$DW$192, DW_AT_accessibility(DW_ACCESS_public)
    2653              $C$DW$193       .dwtag  DW_TAG_member
    2654                      .dwattr $C$DW$193, DW_AT_type(*$C$DW$T$20)
    2655                      .dwattr $C$DW$193, DW_AT_name("GPAQSEL2")
    2656                      .dwattr $C$DW$193, DW_AT_TI_symbol_name("_GPAQSEL2")
    2657                      .dwattr $C$DW$193, DW_AT_data_member_location[DW_OP_plus_uconst 0x4]
    2658                      .dwattr $C$DW$193, DW_AT_accessibility(DW_ACCESS_public)
    2659              $C$DW$194       .dwtag  DW_TAG_member
    2660                      .dwattr $C$DW$194, DW_AT_type(*$C$DW$T$20)
    2661                      .dwattr $C$DW$194, DW_AT_name("GPAMUX1")
    2662                      .dwattr $C$DW$194, DW_AT_TI_symbol_name("_GPAMUX1")
    2663                      .dwattr $C$DW$194, DW_AT_data_member_location[DW_OP_plus_uconst 0x6]
    2664                      .dwattr $C$DW$194, DW_AT_accessibility(DW_ACCESS_public)
    2665              $C$DW$195       .dwtag  DW_TAG_member
    2666                      .dwattr $C$DW$195, DW_AT_type(*$C$DW$T$20)
    2667                      .dwattr $C$DW$195, DW_AT_name("GPAMUX2")
    2668                      .dwattr $C$DW$195, DW_AT_TI_symbol_name("_GPAMUX2")
    2669                      .dwattr $C$DW$195, DW_AT_data_member_location[DW_OP_plus_uconst 0x8]
    2670                      .dwattr $C$DW$195, DW_AT_accessibility(DW_ACCESS_public)
    2671              $C$DW$196       .dwtag  DW_TAG_member
    2672                      .dwattr $C$DW$196, DW_AT_type(*$C$DW$T$20)
    2673                      .dwattr $C$DW$196, DW_AT_name("GPADIR")
    2674                      .dwattr $C$DW$196, DW_AT_TI_symbol_name("_GPADIR")
    2675                      .dwattr $C$DW$196, DW_AT_data_member_location[DW_OP_plus_uconst 0xa]
    2676                      .dwattr $C$DW$196, DW_AT_accessibility(DW_ACCESS_public)
    2677              $C$DW$197       .dwtag  DW_TAG_member
    2678                      .dwattr $C$DW$197, DW_AT_type(*$C$DW$T$20)
    2679                      .dwattr $C$DW$197, DW_AT_name("GPAPUD")
    2680                      .dwattr $C$DW$197, DW_AT_TI_symbol_name("_GPAPUD")
    2681                      .dwattr $C$DW$197, DW_AT_data_member_location[DW_OP_plus_uconst 0xc]
    2682                      .dwattr $C$DW$197, DW_AT_accessibility(DW_ACCESS_public)
    2683              $C$DW$198       .dwtag  DW_TAG_member
    2684                      .dwattr $C$DW$198, DW_AT_type(*$C$DW$T$23)
    2685                      .dwattr $C$DW$198, DW_AT_name("rsvd_1")
    2686                      .dwattr $C$DW$198, DW_AT_TI_symbol_name("_rsvd_1")
    2687                      .dwattr $C$DW$198, DW_AT_data_member_location[DW_OP_plus_uconst 0xe]
    2688                      .dwattr $C$DW$198, DW_AT_accessibility(DW_ACCESS_public)
    2689              $C$DW$199       .dwtag  DW_TAG_member
    2690                      .dwattr $C$DW$199, DW_AT_type(*$C$DW$T$20)
    2691                      .dwattr $C$DW$199, DW_AT_name("GPBCTRL")
    2692                      .dwattr $C$DW$199, DW_AT_TI_symbol_name("_GPBCTRL")
    2693                      .dwattr $C$DW$199, DW_AT_data_member_location[DW_OP_plus_uconst 0x10]
    2694                      .dwattr $C$DW$199, DW_AT_accessibility(DW_ACCESS_public)
    2695              $C$DW$200       .dwtag  DW_TAG_member
    2696                      .dwattr $C$DW$200, DW_AT_type(*$C$DW$T$20)
    2697                      .dwattr $C$DW$200, DW_AT_name("GPBQSEL1")
    2698                      .dwattr $C$DW$200, DW_AT_TI_symbol_name("_GPBQSEL1")
    2699                      .dwattr $C$DW$200, DW_AT_data_member_location[DW_OP_plus_uconst 0x12]
TMS320C2000 Assembler PC v6.2.5 Fri Sep 15 11:07:51 2017

Tools Copyright (c) 1996-2014 Texas Instruments Incorporated
C:\Users\wmj\AppData\Local\Temp\0762011                              PAGE   51

    2700                      .dwattr $C$DW$200, DW_AT_accessibility(DW_ACCESS_public)
    2701              $C$DW$201       .dwtag  DW_TAG_member
    2702                      .dwattr $C$DW$201, DW_AT_type(*$C$DW$T$23)
    2703                      .dwattr $C$DW$201, DW_AT_name("rsvd_2")
    2704                      .dwattr $C$DW$201, DW_AT_TI_symbol_name("_rsvd_2")
    2705                      .dwattr $C$DW$201, DW_AT_data_member_location[DW_OP_plus_uconst 0x14]
    2706                      .dwattr $C$DW$201, DW_AT_accessibility(DW_ACCESS_public)
    2707              $C$DW$202       .dwtag  DW_TAG_member
    2708                      .dwattr $C$DW$202, DW_AT_type(*$C$DW$T$20)
    2709                      .dwattr $C$DW$202, DW_AT_name("GPBMUX1")
    2710                      .dwattr $C$DW$202, DW_AT_TI_symbol_name("_GPBMUX1")
    2711                      .dwattr $C$DW$202, DW_AT_data_member_location[DW_OP_plus_uconst 0x16]
    2712                      .dwattr $C$DW$202, DW_AT_accessibility(DW_ACCESS_public)
    2713              $C$DW$203       .dwtag  DW_TAG_member
    2714                      .dwattr $C$DW$203, DW_AT_type(*$C$DW$T$23)
    2715                      .dwattr $C$DW$203, DW_AT_name("rsvd_3")
    2716                      .dwattr $C$DW$203, DW_AT_TI_symbol_name("_rsvd_3")
    2717                      .dwattr $C$DW$203, DW_AT_data_member_location[DW_OP_plus_uconst 0x18]
    2718                      .dwattr $C$DW$203, DW_AT_accessibility(DW_ACCESS_public)
    2719              $C$DW$204       .dwtag  DW_TAG_member
    2720                      .dwattr $C$DW$204, DW_AT_type(*$C$DW$T$20)
    2721                      .dwattr $C$DW$204, DW_AT_name("GPBDIR")
    2722                      .dwattr $C$DW$204, DW_AT_TI_symbol_name("_GPBDIR")
    2723                      .dwattr $C$DW$204, DW_AT_data_member_location[DW_OP_plus_uconst 0x1a]
    2724                      .dwattr $C$DW$204, DW_AT_accessibility(DW_ACCESS_public)
    2725              $C$DW$205       .dwtag  DW_TAG_member
    2726                      .dwattr $C$DW$205, DW_AT_type(*$C$DW$T$20)
    2727                      .dwattr $C$DW$205, DW_AT_name("GPBPUD")
    2728                      .dwattr $C$DW$205, DW_AT_TI_symbol_name("_GPBPUD")
    2729                      .dwattr $C$DW$205, DW_AT_data_member_location[DW_OP_plus_uconst 0x1c]
    2730                      .dwattr $C$DW$205, DW_AT_accessibility(DW_ACCESS_public)
    2731              $C$DW$206       .dwtag  DW_TAG_member
    2732                      .dwattr $C$DW$206, DW_AT_type(*$C$DW$T$24)
    2733                      .dwattr $C$DW$206, DW_AT_name("rsvd_4")
    2734                      .dwattr $C$DW$206, DW_AT_TI_symbol_name("_rsvd_4")
    2735                      .dwattr $C$DW$206, DW_AT_data_member_location[DW_OP_plus_uconst 0x1e]
    2736                      .dwattr $C$DW$206, DW_AT_accessibility(DW_ACCESS_public)
    2737              $C$DW$207       .dwtag  DW_TAG_member
    2738                      .dwattr $C$DW$207, DW_AT_type(*$C$DW$T$20)
    2739                      .dwattr $C$DW$207, DW_AT_name("AIOMUX1")
    2740                      .dwattr $C$DW$207, DW_AT_TI_symbol_name("_AIOMUX1")
    2741                      .dwattr $C$DW$207, DW_AT_data_member_location[DW_OP_plus_uconst 0x36]
    2742                      .dwattr $C$DW$207, DW_AT_accessibility(DW_ACCESS_public)
    2743              $C$DW$208       .dwtag  DW_TAG_member
    2744                      .dwattr $C$DW$208, DW_AT_type(*$C$DW$T$23)
    2745                      .dwattr $C$DW$208, DW_AT_name("rsvd_5")
    2746                      .dwattr $C$DW$208, DW_AT_TI_symbol_name("_rsvd_5")
    2747                      .dwattr $C$DW$208, DW_AT_data_member_location[DW_OP_plus_uconst 0x38]
    2748                      .dwattr $C$DW$208, DW_AT_accessibility(DW_ACCESS_public)
    2749              $C$DW$209       .dwtag  DW_TAG_member
    2750                      .dwattr $C$DW$209, DW_AT_type(*$C$DW$T$20)
    2751                      .dwattr $C$DW$209, DW_AT_name("AIODIR")
    2752                      .dwattr $C$DW$209, DW_AT_TI_symbol_name("_AIODIR")
    2753                      .dwattr $C$DW$209, DW_AT_data_member_location[DW_OP_plus_uconst 0x3a]
    2754                      .dwattr $C$DW$209, DW_AT_accessibility(DW_ACCESS_public)
TMS320C2000 Assembler PC v6.2.5 Fri Sep 15 11:07:51 2017

Tools Copyright (c) 1996-2014 Texas Instruments Incorporated
C:\Users\wmj\AppData\Local\Temp\0762011                              PAGE   52

    2755              $C$DW$210       .dwtag  DW_TAG_member
    2756                      .dwattr $C$DW$210, DW_AT_type(*$C$DW$T$25)
    2757                      .dwattr $C$DW$210, DW_AT_name("rsvd_6")
    2758                      .dwattr $C$DW$210, DW_AT_TI_symbol_name("_rsvd_6")
    2759                      .dwattr $C$DW$210, DW_AT_data_member_location[DW_OP_plus_uconst 0x3c]
    2760                      .dwattr $C$DW$210, DW_AT_accessibility(DW_ACCESS_public)
    2761              $C$DW$211       .dwtag  DW_TAG_member
    2762                      .dwattr $C$DW$211, DW_AT_type(*$C$DW$T$20)
    2763                      .dwattr $C$DW$211, DW_AT_name("GPADAT")
    2764                      .dwattr $C$DW$211, DW_AT_TI_symbol_name("_GPADAT")
    2765                      .dwattr $C$DW$211, DW_AT_data_member_location[DW_OP_plus_uconst 0x40]
    2766                      .dwattr $C$DW$211, DW_AT_accessibility(DW_ACCESS_public)
    2767              $C$DW$212       .dwtag  DW_TAG_member
    2768                      .dwattr $C$DW$212, DW_AT_type(*$C$DW$T$20)
    2769                      .dwattr $C$DW$212, DW_AT_name("GPASET")
    2770                      .dwattr $C$DW$212, DW_AT_TI_symbol_name("_GPASET")
    2771                      .dwattr $C$DW$212, DW_AT_data_member_location[DW_OP_plus_uconst 0x42]
    2772                      .dwattr $C$DW$212, DW_AT_accessibility(DW_ACCESS_public)
    2773              $C$DW$213       .dwtag  DW_TAG_member
    2774                      .dwattr $C$DW$213, DW_AT_type(*$C$DW$T$20)
    2775                      .dwattr $C$DW$213, DW_AT_name("GPACLEAR")
    2776                      .dwattr $C$DW$213, DW_AT_TI_symbol_name("_GPACLEAR")
    2777                      .dwattr $C$DW$213, DW_AT_data_member_location[DW_OP_plus_uconst 0x44]
    2778                      .dwattr $C$DW$213, DW_AT_accessibility(DW_ACCESS_public)
    2779              $C$DW$214       .dwtag  DW_TAG_member
    2780                      .dwattr $C$DW$214, DW_AT_type(*$C$DW$T$20)
    2781                      .dwattr $C$DW$214, DW_AT_name("GPATOGGLE")
    2782                      .dwattr $C$DW$214, DW_AT_TI_symbol_name("_GPATOGGLE")
    2783                      .dwattr $C$DW$214, DW_AT_data_member_location[DW_OP_plus_uconst 0x46]
    2784                      .dwattr $C$DW$214, DW_AT_accessibility(DW_ACCESS_public)
    2785              $C$DW$215       .dwtag  DW_TAG_member
    2786                      .dwattr $C$DW$215, DW_AT_type(*$C$DW$T$20)
    2787                      .dwattr $C$DW$215, DW_AT_name("GPBDAT")
    2788                      .dwattr $C$DW$215, DW_AT_TI_symbol_name("_GPBDAT")
    2789                      .dwattr $C$DW$215, DW_AT_data_member_location[DW_OP_plus_uconst 0x48]
    2790                      .dwattr $C$DW$215, DW_AT_accessibility(DW_ACCESS_public)
    2791              $C$DW$216       .dwtag  DW_TAG_member
    2792                      .dwattr $C$DW$216, DW_AT_type(*$C$DW$T$20)
    2793                      .dwattr $C$DW$216, DW_AT_name("GPBSET")
    2794                      .dwattr $C$DW$216, DW_AT_TI_symbol_name("_GPBSET")
    2795                      .dwattr $C$DW$216, DW_AT_data_member_location[DW_OP_plus_uconst 0x4a]
    2796                      .dwattr $C$DW$216, DW_AT_accessibility(DW_ACCESS_public)
    2797              $C$DW$217       .dwtag  DW_TAG_member
    2798                      .dwattr $C$DW$217, DW_AT_type(*$C$DW$T$20)
    2799                      .dwattr $C$DW$217, DW_AT_name("GPBCLEAR")
    2800                      .dwattr $C$DW$217, DW_AT_TI_symbol_name("_GPBCLEAR")
    2801                      .dwattr $C$DW$217, DW_AT_data_member_location[DW_OP_plus_uconst 0x4c]
    2802                      .dwattr $C$DW$217, DW_AT_accessibility(DW_ACCESS_public)
    2803              $C$DW$218       .dwtag  DW_TAG_member
    2804                      .dwattr $C$DW$218, DW_AT_type(*$C$DW$T$20)
    2805                      .dwattr $C$DW$218, DW_AT_name("GPBTOGGLE")
    2806                      .dwattr $C$DW$218, DW_AT_TI_symbol_name("_GPBTOGGLE")
    2807                      .dwattr $C$DW$218, DW_AT_data_member_location[DW_OP_plus_uconst 0x4e]
    2808                      .dwattr $C$DW$218, DW_AT_accessibility(DW_ACCESS_public)
    2809              $C$DW$219       .dwtag  DW_TAG_member
TMS320C2000 Assembler PC v6.2.5 Fri Sep 15 11:07:51 2017

Tools Copyright (c) 1996-2014 Texas Instruments Incorporated
C:\Users\wmj\AppData\Local\Temp\0762011                              PAGE   53

    2810                      .dwattr $C$DW$219, DW_AT_type(*$C$DW$T$26)
    2811                      .dwattr $C$DW$219, DW_AT_name("rsvd_7")
    2812                      .dwattr $C$DW$219, DW_AT_TI_symbol_name("_rsvd_7")
    2813                      .dwattr $C$DW$219, DW_AT_data_member_location[DW_OP_plus_uconst 0x50]
    2814                      .dwattr $C$DW$219, DW_AT_accessibility(DW_ACCESS_public)
    2815              $C$DW$220       .dwtag  DW_TAG_member
    2816                      .dwattr $C$DW$220, DW_AT_type(*$C$DW$T$20)
    2817                      .dwattr $C$DW$220, DW_AT_name("AIODAT")
    2818                      .dwattr $C$DW$220, DW_AT_TI_symbol_name("_AIODAT")
    2819                      .dwattr $C$DW$220, DW_AT_data_member_location[DW_OP_plus_uconst 0x58]
    2820                      .dwattr $C$DW$220, DW_AT_accessibility(DW_ACCESS_public)
    2821              $C$DW$221       .dwtag  DW_TAG_member
    2822                      .dwattr $C$DW$221, DW_AT_type(*$C$DW$T$20)
    2823                      .dwattr $C$DW$221, DW_AT_name("AIOSET")
    2824                      .dwattr $C$DW$221, DW_AT_TI_symbol_name("_AIOSET")
    2825                      .dwattr $C$DW$221, DW_AT_data_member_location[DW_OP_plus_uconst 0x5a]
    2826                      .dwattr $C$DW$221, DW_AT_accessibility(DW_ACCESS_public)
    2827              $C$DW$222       .dwtag  DW_TAG_member
    2828                      .dwattr $C$DW$222, DW_AT_type(*$C$DW$T$20)
    2829                      .dwattr $C$DW$222, DW_AT_name("AIOCLEAR")
    2830                      .dwattr $C$DW$222, DW_AT_TI_symbol_name("_AIOCLEAR")
    2831                      .dwattr $C$DW$222, DW_AT_data_member_location[DW_OP_plus_uconst 0x5c]
    2832                      .dwattr $C$DW$222, DW_AT_accessibility(DW_ACCESS_public)
    2833              $C$DW$223       .dwtag  DW_TAG_member
    2834                      .dwattr $C$DW$223, DW_AT_type(*$C$DW$T$20)
    2835                      .dwattr $C$DW$223, DW_AT_name("AIOTOGGLE")
    2836                      .dwattr $C$DW$223, DW_AT_TI_symbol_name("_AIOTOGGLE")
    2837                      .dwattr $C$DW$223, DW_AT_data_member_location[DW_OP_plus_uconst 0x5e]
    2838                      .dwattr $C$DW$223, DW_AT_accessibility(DW_ACCESS_public)
    2839              $C$DW$224       .dwtag  DW_TAG_member
    2840                      .dwattr $C$DW$224, DW_AT_type(*$C$DW$T$27)
    2841                      .dwattr $C$DW$224, DW_AT_name("GPIOXINTnSEL")
    2842                      .dwattr $C$DW$224, DW_AT_TI_symbol_name("_GPIOXINTnSEL")
    2843                      .dwattr $C$DW$224, DW_AT_data_member_location[DW_OP_plus_uconst 0x60]
    2844                      .dwattr $C$DW$224, DW_AT_accessibility(DW_ACCESS_public)
    2845              $C$DW$225       .dwtag  DW_TAG_member
    2846                      .dwattr $C$DW$225, DW_AT_type(*$C$DW$T$28)
    2847                      .dwattr $C$DW$225, DW_AT_name("rsvd_8")
    2848                      .dwattr $C$DW$225, DW_AT_TI_symbol_name("_rsvd_8")
    2849                      .dwattr $C$DW$225, DW_AT_data_member_location[DW_OP_plus_uconst 0x63]
    2850                      .dwattr $C$DW$225, DW_AT_accessibility(DW_ACCESS_public)
    2851              $C$DW$226       .dwtag  DW_TAG_member
    2852                      .dwattr $C$DW$226, DW_AT_type(*$C$DW$T$20)
    2853                      .dwattr $C$DW$226, DW_AT_name("GPIOLPMSEL")
    2854                      .dwattr $C$DW$226, DW_AT_TI_symbol_name("_GPIOLPMSEL")
    2855                      .dwattr $C$DW$226, DW_AT_data_member_location[DW_OP_plus_uconst 0x68]
    2856                      .dwattr $C$DW$226, DW_AT_accessibility(DW_ACCESS_public)
    2857                      .dwendtag $C$DW$T$29
    2858              
    2859              $C$DW$T$30      .dwtag  DW_TAG_pointer_type
    2860                      .dwattr $C$DW$T$30, DW_AT_type(*$C$DW$T$29)
    2861                      .dwattr $C$DW$T$30, DW_AT_address_class(0x16)
    2862              $C$DW$T$31      .dwtag  DW_TAG_typedef, DW_AT_name("GPIO_Handle")
    2863                      .dwattr $C$DW$T$31, DW_AT_type(*$C$DW$T$30)
    2864                      .dwattr $C$DW$T$31, DW_AT_language(DW_LANG_C)
TMS320C2000 Assembler PC v6.2.5 Fri Sep 15 11:07:51 2017

Tools Copyright (c) 1996-2014 Texas Instruments Incorporated
C:\Users\wmj\AppData\Local\Temp\0762011                              PAGE   54

    2865              $C$DW$227       .dwtag  DW_TAG_TI_far_type
    2866                      .dwattr $C$DW$227, DW_AT_type(*$C$DW$T$31)
    2867              $C$DW$T$68      .dwtag  DW_TAG_const_type
    2868                      .dwattr $C$DW$T$68, DW_AT_type(*$C$DW$227)
    2869              
    2870              $C$DW$T$51      .dwtag  DW_TAG_structure_type
    2871                      .dwattr $C$DW$T$51, DW_AT_name("_MB_Obj_")
    2872                      .dwattr $C$DW$T$51, DW_AT_byte_size(0x1c)
    2873              $C$DW$228       .dwtag  DW_TAG_member
    2874                      .dwattr $C$DW$228, DW_AT_type(*$C$DW$T$31)
    2875                      .dwattr $C$DW$228, DW_AT_name("gpioHandle")
    2876                      .dwattr $C$DW$228, DW_AT_TI_symbol_name("_gpioHandle")
    2877                      .dwattr $C$DW$228, DW_AT_data_member_location[DW_OP_plus_uconst 0x0]
    2878                      .dwattr $C$DW$228, DW_AT_accessibility(DW_ACCESS_public)
    2879              $C$DW$229       .dwtag  DW_TAG_member
    2880                      .dwattr $C$DW$229, DW_AT_type(*$C$DW$T$33)
    2881                      .dwattr $C$DW$229, DW_AT_name("timerHandle")
    2882                      .dwattr $C$DW$229, DW_AT_TI_symbol_name("_timerHandle")
    2883                      .dwattr $C$DW$229, DW_AT_data_member_location[DW_OP_plus_uconst 0x2]
    2884                      .dwattr $C$DW$229, DW_AT_accessibility(DW_ACCESS_public)
    2885              $C$DW$230       .dwtag  DW_TAG_member
    2886                      .dwattr $C$DW$230, DW_AT_type(*$C$DW$T$35)
    2887                      .dwattr $C$DW$230, DW_AT_name("sciHandle")
    2888                      .dwattr $C$DW$230, DW_AT_TI_symbol_name("_sciHandle")
    2889                      .dwattr $C$DW$230, DW_AT_data_member_location[DW_OP_plus_uconst 0x4]
    2890                      .dwattr $C$DW$230, DW_AT_accessibility(DW_ACCESS_public)
    2891              $C$DW$231       .dwtag  DW_TAG_member
    2892                      .dwattr $C$DW$231, DW_AT_type(*$C$DW$T$37)
    2893                      .dwattr $C$DW$231, DW_AT_name("RTU_Frame")
    2894                      .dwattr $C$DW$231, DW_AT_TI_symbol_name("_RTU_Frame")
    2895                      .dwattr $C$DW$231, DW_AT_data_member_location[DW_OP_plus_uconst 0x6]
    2896                      .dwattr $C$DW$231, DW_AT_accessibility(DW_ACCESS_public)
    2897              $C$DW$232       .dwtag  DW_TAG_member
    2898                      .dwattr $C$DW$232, DW_AT_type(*$C$DW$T$39)
    2899                      .dwattr $C$DW$232, DW_AT_name("RTUBuf")
    2900                      .dwattr $C$DW$232, DW_AT_TI_symbol_name("_RTUBuf")
    2901                      .dwattr $C$DW$232, DW_AT_data_member_location[DW_OP_plus_uconst 0x8]
    2902                      .dwattr $C$DW$232, DW_AT_accessibility(DW_ACCESS_public)
    2903              $C$DW$233       .dwtag  DW_TAG_member
    2904                      .dwattr $C$DW$233, DW_AT_type(*$C$DW$T$38)
    2905                      .dwattr $C$DW$233, DW_AT_name("RcvBufferPos")
    2906                      .dwattr $C$DW$233, DW_AT_TI_symbol_name("_RcvBufferPos")
    2907                      .dwattr $C$DW$233, DW_AT_data_member_location[DW_OP_plus_uconst 0x10]
    2908                      .dwattr $C$DW$233, DW_AT_accessibility(DW_ACCESS_public)
    2909              $C$DW$234       .dwtag  DW_TAG_member
    2910                      .dwattr $C$DW$234, DW_AT_type(*$C$DW$T$40)
    2911                      .dwattr $C$DW$234, DW_AT_name("SndBufferCur")
    2912                      .dwattr $C$DW$234, DW_AT_TI_symbol_name("_SndBufferCur")
    2913                      .dwattr $C$DW$234, DW_AT_data_member_location[DW_OP_plus_uconst 0x12]
    2914                      .dwattr $C$DW$234, DW_AT_accessibility(DW_ACCESS_public)
    2915              $C$DW$235       .dwtag  DW_TAG_member
    2916                      .dwattr $C$DW$235, DW_AT_type(*$C$DW$T$41)
    2917                      .dwattr $C$DW$235, DW_AT_name("SndBufferCount")
    2918                      .dwattr $C$DW$235, DW_AT_TI_symbol_name("_SndBufferCount")
    2919                      .dwattr $C$DW$235, DW_AT_data_member_location[DW_OP_plus_uconst 0x14]
TMS320C2000 Assembler PC v6.2.5 Fri Sep 15 11:07:51 2017

Tools Copyright (c) 1996-2014 Texas Instruments Incorporated
C:\Users\wmj\AppData\Local\Temp\0762011                              PAGE   55

    2920                      .dwattr $C$DW$235, DW_AT_accessibility(DW_ACCESS_public)
    2921              $C$DW$236       .dwtag  DW_TAG_member
    2922                      .dwattr $C$DW$236, DW_AT_type(*$C$DW$T$38)
    2923                      .dwattr $C$DW$236, DW_AT_name("SlaveAddress")
    2924                      .dwattr $C$DW$236, DW_AT_TI_symbol_name("_SlaveAddress")
    2925                      .dwattr $C$DW$236, DW_AT_data_member_location[DW_OP_plus_uconst 0x15]
    2926                      .dwattr $C$DW$236, DW_AT_accessibility(DW_ACCESS_public)
    2927              $C$DW$237       .dwtag  DW_TAG_member
    2928                      .dwattr $C$DW$237, DW_AT_type(*$C$DW$T$43)
    2929                      .dwattr $C$DW$237, DW_AT_name("eStatus")
    2930                      .dwattr $C$DW$237, DW_AT_TI_symbol_name("_eStatus")
    2931                      .dwattr $C$DW$237, DW_AT_data_member_location[DW_OP_plus_uconst 0x16]
    2932                      .dwattr $C$DW$237, DW_AT_accessibility(DW_ACCESS_public)
    2933              $C$DW$238       .dwtag  DW_TAG_member
    2934                      .dwattr $C$DW$238, DW_AT_type(*$C$DW$T$45)
    2935                      .dwattr $C$DW$238, DW_AT_name("eSndState")
    2936                      .dwattr $C$DW$238, DW_AT_TI_symbol_name("_eSndState")
    2937                      .dwattr $C$DW$238, DW_AT_data_member_location[DW_OP_plus_uconst 0x17]
    2938                      .dwattr $C$DW$238, DW_AT_accessibility(DW_ACCESS_public)
    2939              $C$DW$239       .dwtag  DW_TAG_member
    2940                      .dwattr $C$DW$239, DW_AT_type(*$C$DW$T$47)
    2941                      .dwattr $C$DW$239, DW_AT_name("eRcvState")
    2942                      .dwattr $C$DW$239, DW_AT_TI_symbol_name("_eRcvState")
    2943                      .dwattr $C$DW$239, DW_AT_data_member_location[DW_OP_plus_uconst 0x18]
    2944                      .dwattr $C$DW$239, DW_AT_accessibility(DW_ACCESS_public)
    2945              $C$DW$240       .dwtag  DW_TAG_member
    2946                      .dwattr $C$DW$240, DW_AT_type(*$C$DW$T$48)
    2947                      .dwattr $C$DW$240, DW_AT_name("xEventInQueue")
    2948                      .dwattr $C$DW$240, DW_AT_TI_symbol_name("_xEventInQueue")
    2949                      .dwattr $C$DW$240, DW_AT_data_member_location[DW_OP_plus_uconst 0x19]
    2950                      .dwattr $C$DW$240, DW_AT_accessibility(DW_ACCESS_public)
    2951              $C$DW$241       .dwtag  DW_TAG_member
    2952                      .dwattr $C$DW$241, DW_AT_type(*$C$DW$T$50)
    2953                      .dwattr $C$DW$241, DW_AT_name("eQueuedEvent")
    2954                      .dwattr $C$DW$241, DW_AT_TI_symbol_name("_eQueuedEvent")
    2955                      .dwattr $C$DW$241, DW_AT_data_member_location[DW_OP_plus_uconst 0x1a]
    2956                      .dwattr $C$DW$241, DW_AT_accessibility(DW_ACCESS_public)
    2957                      .dwendtag $C$DW$T$51
    2958              
    2959              $C$DW$T$70      .dwtag  DW_TAG_typedef, DW_AT_name("MB_Obj")
    2960                      .dwattr $C$DW$T$70, DW_AT_type(*$C$DW$T$51)
    2961                      .dwattr $C$DW$T$70, DW_AT_language(DW_LANG_C)
    2962              $C$DW$T$56      .dwtag  DW_TAG_pointer_type
    2963                      .dwattr $C$DW$T$56, DW_AT_type(*$C$DW$T$51)
    2964                      .dwattr $C$DW$T$56, DW_AT_address_class(0x16)
    2965              $C$DW$T$57      .dwtag  DW_TAG_typedef, DW_AT_name("MB_Handle")
    2966                      .dwattr $C$DW$T$57, DW_AT_type(*$C$DW$T$56)
    2967                      .dwattr $C$DW$T$57, DW_AT_language(DW_LANG_C)
    2968              $C$DW$242       .dwtag  DW_TAG_TI_far_type
    2969                      .dwattr $C$DW$242, DW_AT_type(*$C$DW$T$57)
    2970              $C$DW$T$71      .dwtag  DW_TAG_const_type
    2971                      .dwattr $C$DW$T$71, DW_AT_type(*$C$DW$242)
    2972              
    2973              $C$DW$T$53      .dwtag  DW_TAG_structure_type
    2974                      .dwattr $C$DW$T$53, DW_AT_name("_MB_RTU_t_")
TMS320C2000 Assembler PC v6.2.5 Fri Sep 15 11:07:51 2017

Tools Copyright (c) 1996-2014 Texas Instruments Incorporated
C:\Users\wmj\AppData\Local\Temp\0762011                              PAGE   56

    2975                      .dwattr $C$DW$T$53, DW_AT_byte_size(0x08)
    2976              $C$DW$243       .dwtag  DW_TAG_member
    2977                      .dwattr $C$DW$243, DW_AT_type(*$C$DW$T$38)
    2978                      .dwattr $C$DW$243, DW_AT_name("PDU_Address")
    2979                      .dwattr $C$DW$243, DW_AT_TI_symbol_name("_PDU_Address")
    2980                      .dwattr $C$DW$243, DW_AT_data_member_location[DW_OP_plus_uconst 0x0]
    2981                      .dwattr $C$DW$243, DW_AT_accessibility(DW_ACCESS_public)
    2982              $C$DW$244       .dwtag  DW_TAG_member
    2983                      .dwattr $C$DW$244, DW_AT_type(*$C$DW$T$38)
    2984                      .dwattr $C$DW$244, DW_AT_name("PDU_FunctionCode")
    2985                      .dwattr $C$DW$244, DW_AT_TI_symbol_name("_PDU_FunctionCode")
    2986                      .dwattr $C$DW$244, DW_AT_data_member_location[DW_OP_plus_uconst 0x1]
    2987                      .dwattr $C$DW$244, DW_AT_accessibility(DW_ACCESS_public)
    2988              $C$DW$245       .dwtag  DW_TAG_member
    2989                      .dwattr $C$DW$245, DW_AT_type(*$C$DW$T$52)
    2990                      .dwattr $C$DW$245, DW_AT_name("PDU_RegAddress")
    2991                      .dwattr $C$DW$245, DW_AT_TI_symbol_name("_PDU_RegAddress")
    2992                      .dwattr $C$DW$245, DW_AT_data_member_location[DW_OP_plus_uconst 0x2]
    2993                      .dwattr $C$DW$245, DW_AT_accessibility(DW_ACCESS_public)
    2994              $C$DW$246       .dwtag  DW_TAG_member
    2995                      .dwattr $C$DW$246, DW_AT_type(*$C$DW$T$52)
    2996                      .dwattr $C$DW$246, DW_AT_name("PDU_Data")
    2997                      .dwattr $C$DW$246, DW_AT_TI_symbol_name("_PDU_Data")
    2998                      .dwattr $C$DW$246, DW_AT_data_member_location[DW_OP_plus_uconst 0x4]
    2999                      .dwattr $C$DW$246, DW_AT_accessibility(DW_ACCESS_public)
    3000              $C$DW$247       .dwtag  DW_TAG_member
    3001                      .dwattr $C$DW$247, DW_AT_type(*$C$DW$T$38)
    3002                      .dwattr $C$DW$247, DW_AT_name("PDU_CRC_LByte")
    3003                      .dwattr $C$DW$247, DW_AT_TI_symbol_name("_PDU_CRC_LByte")
    3004                      .dwattr $C$DW$247, DW_AT_data_member_location[DW_OP_plus_uconst 0x6]
    3005                      .dwattr $C$DW$247, DW_AT_accessibility(DW_ACCESS_public)
    3006              $C$DW$248       .dwtag  DW_TAG_member
    3007                      .dwattr $C$DW$248, DW_AT_type(*$C$DW$T$38)
    3008                      .dwattr $C$DW$248, DW_AT_name("PDU_CRC_HByte")
    3009                      .dwattr $C$DW$248, DW_AT_TI_symbol_name("_PDU_CRC_HByte")
    3010                      .dwattr $C$DW$248, DW_AT_data_member_location[DW_OP_plus_uconst 0x7]
    3011                      .dwattr $C$DW$248, DW_AT_accessibility(DW_ACCESS_public)
    3012                      .dwendtag $C$DW$T$53
    3013              
    3014              $C$DW$T$36      .dwtag  DW_TAG_pointer_type
    3015                      .dwattr $C$DW$T$36, DW_AT_type(*$C$DW$T$53)
    3016                      .dwattr $C$DW$T$36, DW_AT_address_class(0x16)
    3017              $C$DW$T$37      .dwtag  DW_TAG_typedef, DW_AT_name("RTU_Frame")
    3018                      .dwattr $C$DW$T$37, DW_AT_type(*$C$DW$T$36)
    3019                      .dwattr $C$DW$T$37, DW_AT_language(DW_LANG_C)
    3020              
    3021              $C$DW$T$54      .dwtag  DW_TAG_structure_type
    3022                      .dwattr $C$DW$T$54, DW_AT_name("_SCI_Obj_")
    3023                      .dwattr $C$DW$T$54, DW_AT_byte_size(0x10)
    3024              $C$DW$249       .dwtag  DW_TAG_member
    3025                      .dwattr $C$DW$249, DW_AT_type(*$C$DW$T$22)
    3026                      .dwattr $C$DW$249, DW_AT_name("SCICCR")
    3027                      .dwattr $C$DW$249, DW_AT_TI_symbol_name("_SCICCR")
    3028                      .dwattr $C$DW$249, DW_AT_data_member_location[DW_OP_plus_uconst 0x0]
    3029                      .dwattr $C$DW$249, DW_AT_accessibility(DW_ACCESS_public)
TMS320C2000 Assembler PC v6.2.5 Fri Sep 15 11:07:51 2017

Tools Copyright (c) 1996-2014 Texas Instruments Incorporated
C:\Users\wmj\AppData\Local\Temp\0762011                              PAGE   57

    3030              $C$DW$250       .dwtag  DW_TAG_member
    3031                      .dwattr $C$DW$250, DW_AT_type(*$C$DW$T$22)
    3032                      .dwattr $C$DW$250, DW_AT_name("SCICTL1")
    3033                      .dwattr $C$DW$250, DW_AT_TI_symbol_name("_SCICTL1")
    3034                      .dwattr $C$DW$250, DW_AT_data_member_location[DW_OP_plus_uconst 0x1]
    3035                      .dwattr $C$DW$250, DW_AT_accessibility(DW_ACCESS_public)
    3036              $C$DW$251       .dwtag  DW_TAG_member
    3037                      .dwattr $C$DW$251, DW_AT_type(*$C$DW$T$22)
    3038                      .dwattr $C$DW$251, DW_AT_name("SCIHBAUD")
    3039                      .dwattr $C$DW$251, DW_AT_TI_symbol_name("_SCIHBAUD")
    3040                      .dwattr $C$DW$251, DW_AT_data_member_location[DW_OP_plus_uconst 0x2]
    3041                      .dwattr $C$DW$251, DW_AT_accessibility(DW_ACCESS_public)
    3042              $C$DW$252       .dwtag  DW_TAG_member
    3043                      .dwattr $C$DW$252, DW_AT_type(*$C$DW$T$22)
    3044                      .dwattr $C$DW$252, DW_AT_name("SCILBAUD")
    3045                      .dwattr $C$DW$252, DW_AT_TI_symbol_name("_SCILBAUD")
    3046                      .dwattr $C$DW$252, DW_AT_data_member_location[DW_OP_plus_uconst 0x3]
    3047                      .dwattr $C$DW$252, DW_AT_accessibility(DW_ACCESS_public)
    3048              $C$DW$253       .dwtag  DW_TAG_member
    3049                      .dwattr $C$DW$253, DW_AT_type(*$C$DW$T$22)
    3050                      .dwattr $C$DW$253, DW_AT_name("SCICTL2")
    3051                      .dwattr $C$DW$253, DW_AT_TI_symbol_name("_SCICTL2")
    3052                      .dwattr $C$DW$253, DW_AT_data_member_location[DW_OP_plus_uconst 0x4]
    3053                      .dwattr $C$DW$253, DW_AT_accessibility(DW_ACCESS_public)
    3054              $C$DW$254       .dwtag  DW_TAG_member
    3055                      .dwattr $C$DW$254, DW_AT_type(*$C$DW$T$22)
    3056                      .dwattr $C$DW$254, DW_AT_name("SCIRXST")
    3057                      .dwattr $C$DW$254, DW_AT_TI_symbol_name("_SCIRXST")
    3058                      .dwattr $C$DW$254, DW_AT_data_member_location[DW_OP_plus_uconst 0x5]
    3059                      .dwattr $C$DW$254, DW_AT_accessibility(DW_ACCESS_public)
    3060              $C$DW$255       .dwtag  DW_TAG_member
    3061                      .dwattr $C$DW$255, DW_AT_type(*$C$DW$T$22)
    3062                      .dwattr $C$DW$255, DW_AT_name("SCIRXEMU")
    3063                      .dwattr $C$DW$255, DW_AT_TI_symbol_name("_SCIRXEMU")
    3064                      .dwattr $C$DW$255, DW_AT_data_member_location[DW_OP_plus_uconst 0x6]
    3065                      .dwattr $C$DW$255, DW_AT_accessibility(DW_ACCESS_public)
    3066              $C$DW$256       .dwtag  DW_TAG_member
    3067                      .dwattr $C$DW$256, DW_AT_type(*$C$DW$T$22)
    3068                      .dwattr $C$DW$256, DW_AT_name("SCIRXBUF")
    3069                      .dwattr $C$DW$256, DW_AT_TI_symbol_name("_SCIRXBUF")
    3070                      .dwattr $C$DW$256, DW_AT_data_member_location[DW_OP_plus_uconst 0x7]
    3071                      .dwattr $C$DW$256, DW_AT_accessibility(DW_ACCESS_public)
    3072              $C$DW$257       .dwtag  DW_TAG_member
    3073                      .dwattr $C$DW$257, DW_AT_type(*$C$DW$T$22)
    3074                      .dwattr $C$DW$257, DW_AT_name("rsvd_1")
    3075                      .dwattr $C$DW$257, DW_AT_TI_symbol_name("_rsvd_1")
    3076                      .dwattr $C$DW$257, DW_AT_data_member_location[DW_OP_plus_uconst 0x8]
    3077                      .dwattr $C$DW$257, DW_AT_accessibility(DW_ACCESS_public)
    3078              $C$DW$258       .dwtag  DW_TAG_member
    3079                      .dwattr $C$DW$258, DW_AT_type(*$C$DW$T$22)
    3080                      .dwattr $C$DW$258, DW_AT_name("SCITXBUF")
    3081                      .dwattr $C$DW$258, DW_AT_TI_symbol_name("_SCITXBUF")
    3082                      .dwattr $C$DW$258, DW_AT_data_member_location[DW_OP_plus_uconst 0x9]
    3083                      .dwattr $C$DW$258, DW_AT_accessibility(DW_ACCESS_public)
    3084              $C$DW$259       .dwtag  DW_TAG_member
TMS320C2000 Assembler PC v6.2.5 Fri Sep 15 11:07:51 2017

Tools Copyright (c) 1996-2014 Texas Instruments Incorporated
C:\Users\wmj\AppData\Local\Temp\0762011                              PAGE   58

    3085                      .dwattr $C$DW$259, DW_AT_type(*$C$DW$T$22)
    3086                      .dwattr $C$DW$259, DW_AT_name("SCIFFTX")
    3087                      .dwattr $C$DW$259, DW_AT_TI_symbol_name("_SCIFFTX")
    3088                      .dwattr $C$DW$259, DW_AT_data_member_location[DW_OP_plus_uconst 0xa]
    3089                      .dwattr $C$DW$259, DW_AT_accessibility(DW_ACCESS_public)
    3090              $C$DW$260       .dwtag  DW_TAG_member
    3091                      .dwattr $C$DW$260, DW_AT_type(*$C$DW$T$22)
    3092                      .dwattr $C$DW$260, DW_AT_name("SCIFFRX")
    3093                      .dwattr $C$DW$260, DW_AT_TI_symbol_name("_SCIFFRX")
    3094                      .dwattr $C$DW$260, DW_AT_data_member_location[DW_OP_plus_uconst 0xb]
    3095                      .dwattr $C$DW$260, DW_AT_accessibility(DW_ACCESS_public)
    3096              $C$DW$261       .dwtag  DW_TAG_member
    3097                      .dwattr $C$DW$261, DW_AT_type(*$C$DW$T$22)
    3098                      .dwattr $C$DW$261, DW_AT_name("SCIFFCT")
    3099                      .dwattr $C$DW$261, DW_AT_TI_symbol_name("_SCIFFCT")
    3100                      .dwattr $C$DW$261, DW_AT_data_member_location[DW_OP_plus_uconst 0xc]
    3101                      .dwattr $C$DW$261, DW_AT_accessibility(DW_ACCESS_public)
    3102              $C$DW$262       .dwtag  DW_TAG_member
    3103                      .dwattr $C$DW$262, DW_AT_type(*$C$DW$T$23)
    3104                      .dwattr $C$DW$262, DW_AT_name("rsvd_2")
    3105                      .dwattr $C$DW$262, DW_AT_TI_symbol_name("_rsvd_2")
    3106                      .dwattr $C$DW$262, DW_AT_data_member_location[DW_OP_plus_uconst 0xd]
    3107                      .dwattr $C$DW$262, DW_AT_accessibility(DW_ACCESS_public)
    3108              $C$DW$263       .dwtag  DW_TAG_member
    3109                      .dwattr $C$DW$263, DW_AT_type(*$C$DW$T$22)
    3110                      .dwattr $C$DW$263, DW_AT_name("SCIPRI")
    3111                      .dwattr $C$DW$263, DW_AT_TI_symbol_name("_SCIPRI")
    3112                      .dwattr $C$DW$263, DW_AT_data_member_location[DW_OP_plus_uconst 0xf]
    3113                      .dwattr $C$DW$263, DW_AT_accessibility(DW_ACCESS_public)
    3114                      .dwendtag $C$DW$T$54
    3115              
    3116              $C$DW$T$34      .dwtag  DW_TAG_pointer_type
    3117                      .dwattr $C$DW$T$34, DW_AT_type(*$C$DW$T$54)
    3118                      .dwattr $C$DW$T$34, DW_AT_address_class(0x16)
    3119              $C$DW$T$35      .dwtag  DW_TAG_typedef, DW_AT_name("SCI_Handle")
    3120                      .dwattr $C$DW$T$35, DW_AT_type(*$C$DW$T$34)
    3121                      .dwattr $C$DW$T$35, DW_AT_language(DW_LANG_C)
    3122              $C$DW$264       .dwtag  DW_TAG_TI_far_type
    3123                      .dwattr $C$DW$264, DW_AT_type(*$C$DW$T$35)
    3124              $C$DW$T$77      .dwtag  DW_TAG_const_type
    3125                      .dwattr $C$DW$T$77, DW_AT_type(*$C$DW$264)
    3126              
    3127              $C$DW$T$55      .dwtag  DW_TAG_structure_type
    3128                      .dwattr $C$DW$T$55, DW_AT_name("_TIMER_Obj_")
    3129                      .dwattr $C$DW$T$55, DW_AT_byte_size(0x08)
    3130              $C$DW$265       .dwtag  DW_TAG_member
    3131                      .dwattr $C$DW$265, DW_AT_type(*$C$DW$T$20)
    3132                      .dwattr $C$DW$265, DW_AT_name("TIM")
    3133                      .dwattr $C$DW$265, DW_AT_TI_symbol_name("_TIM")
    3134                      .dwattr $C$DW$265, DW_AT_data_member_location[DW_OP_plus_uconst 0x0]
    3135                      .dwattr $C$DW$265, DW_AT_accessibility(DW_ACCESS_public)
    3136              $C$DW$266       .dwtag  DW_TAG_member
    3137                      .dwattr $C$DW$266, DW_AT_type(*$C$DW$T$20)
    3138                      .dwattr $C$DW$266, DW_AT_name("PRD")
    3139                      .dwattr $C$DW$266, DW_AT_TI_symbol_name("_PRD")
TMS320C2000 Assembler PC v6.2.5 Fri Sep 15 11:07:51 2017

Tools Copyright (c) 1996-2014 Texas Instruments Incorporated
C:\Users\wmj\AppData\Local\Temp\0762011                              PAGE   59

    3140                      .dwattr $C$DW$266, DW_AT_data_member_location[DW_OP_plus_uconst 0x2]
    3141                      .dwattr $C$DW$266, DW_AT_accessibility(DW_ACCESS_public)
    3142              $C$DW$267       .dwtag  DW_TAG_member
    3143                      .dwattr $C$DW$267, DW_AT_type(*$C$DW$T$22)
    3144                      .dwattr $C$DW$267, DW_AT_name("TCR")
    3145                      .dwattr $C$DW$267, DW_AT_TI_symbol_name("_TCR")
    3146                      .dwattr $C$DW$267, DW_AT_data_member_location[DW_OP_plus_uconst 0x4]
    3147                      .dwattr $C$DW$267, DW_AT_accessibility(DW_ACCESS_public)
    3148              $C$DW$268       .dwtag  DW_TAG_member
    3149                      .dwattr $C$DW$268, DW_AT_type(*$C$DW$T$22)
    3150                      .dwattr $C$DW$268, DW_AT_name("resvd_1")
    3151                      .dwattr $C$DW$268, DW_AT_TI_symbol_name("_resvd_1")
    3152                      .dwattr $C$DW$268, DW_AT_data_member_location[DW_OP_plus_uconst 0x5]
    3153                      .dwattr $C$DW$268, DW_AT_accessibility(DW_ACCESS_public)
    3154              $C$DW$269       .dwtag  DW_TAG_member
    3155                      .dwattr $C$DW$269, DW_AT_type(*$C$DW$T$20)
    3156                      .dwattr $C$DW$269, DW_AT_name("TPR")
    3157                      .dwattr $C$DW$269, DW_AT_TI_symbol_name("_TPR")
    3158                      .dwattr $C$DW$269, DW_AT_data_member_location[DW_OP_plus_uconst 0x6]
    3159                      .dwattr $C$DW$269, DW_AT_accessibility(DW_ACCESS_public)
    3160                      .dwendtag $C$DW$T$55
    3161              
    3162              $C$DW$T$79      .dwtag  DW_TAG_typedef, DW_AT_name("TIMER_Obj")
    3163                      .dwattr $C$DW$T$79, DW_AT_type(*$C$DW$T$55)
    3164                      .dwattr $C$DW$T$79, DW_AT_language(DW_LANG_C)
    3165              $C$DW$T$32      .dwtag  DW_TAG_pointer_type
    3166                      .dwattr $C$DW$T$32, DW_AT_type(*$C$DW$T$55)
    3167                      .dwattr $C$DW$T$32, DW_AT_address_class(0x16)
    3168              $C$DW$T$33      .dwtag  DW_TAG_typedef, DW_AT_name("TIMER_Handle")
    3169                      .dwattr $C$DW$T$33, DW_AT_type(*$C$DW$T$32)
    3170                      .dwattr $C$DW$T$33, DW_AT_language(DW_LANG_C)
    3171              $C$DW$270       .dwtag  DW_TAG_TI_far_type
    3172                      .dwattr $C$DW$270, DW_AT_type(*$C$DW$T$33)
    3173              $C$DW$T$80      .dwtag  DW_TAG_const_type
    3174                      .dwattr $C$DW$T$80, DW_AT_type(*$C$DW$270)
    3175              $C$DW$T$3       .dwtag  DW_TAG_pointer_type
    3176                      .dwattr $C$DW$T$3, DW_AT_address_class(0x16)
    3177              $C$DW$271       .dwtag  DW_TAG_TI_far_type
    3178                      .dwattr $C$DW$271, DW_AT_type(*$C$DW$T$3)
    3179              $C$DW$T$82      .dwtag  DW_TAG_const_type
    3180                      .dwattr $C$DW$T$82, DW_AT_type(*$C$DW$271)
    3181              $C$DW$T$4       .dwtag  DW_TAG_base_type
    3182                      .dwattr $C$DW$T$4, DW_AT_encoding(DW_ATE_boolean)
    3183                      .dwattr $C$DW$T$4, DW_AT_name("bool")
    3184                      .dwattr $C$DW$T$4, DW_AT_byte_size(0x01)
    3185              $C$DW$T$5       .dwtag  DW_TAG_base_type
    3186                      .dwattr $C$DW$T$5, DW_AT_encoding(DW_ATE_signed_char)
    3187                      .dwattr $C$DW$T$5, DW_AT_name("signed char")
    3188                      .dwattr $C$DW$T$5, DW_AT_byte_size(0x01)
    3189              $C$DW$T$6       .dwtag  DW_TAG_base_type
    3190                      .dwattr $C$DW$T$6, DW_AT_encoding(DW_ATE_unsigned_char)
    3191                      .dwattr $C$DW$T$6, DW_AT_name("unsigned char")
    3192                      .dwattr $C$DW$T$6, DW_AT_byte_size(0x01)
    3193              $C$DW$T$38      .dwtag  DW_TAG_typedef, DW_AT_name("UCHAR")
    3194                      .dwattr $C$DW$T$38, DW_AT_type(*$C$DW$T$6)
TMS320C2000 Assembler PC v6.2.5 Fri Sep 15 11:07:51 2017

Tools Copyright (c) 1996-2014 Texas Instruments Incorporated
C:\Users\wmj\AppData\Local\Temp\0762011                              PAGE   60

    3195                      .dwattr $C$DW$T$38, DW_AT_language(DW_LANG_C)
    3196              
    3197              $C$DW$T$39      .dwtag  DW_TAG_array_type
    3198                      .dwattr $C$DW$T$39, DW_AT_type(*$C$DW$T$38)
    3199                      .dwattr $C$DW$T$39, DW_AT_language(DW_LANG_C)
    3200                      .dwattr $C$DW$T$39, DW_AT_byte_size(0x08)
    3201              $C$DW$272       .dwtag  DW_TAG_subrange_type
    3202                      .dwattr $C$DW$272, DW_AT_upper_bound(0x07)
    3203                      .dwendtag $C$DW$T$39
    3204              
    3205              $C$DW$T$40      .dwtag  DW_TAG_pointer_type
    3206                      .dwattr $C$DW$T$40, DW_AT_type(*$C$DW$T$38)
    3207                      .dwattr $C$DW$T$40, DW_AT_address_class(0x16)
    3208              
    3209              $C$DW$T$52      .dwtag  DW_TAG_array_type
    3210                      .dwattr $C$DW$T$52, DW_AT_type(*$C$DW$T$38)
    3211                      .dwattr $C$DW$T$52, DW_AT_language(DW_LANG_C)
    3212                      .dwattr $C$DW$T$52, DW_AT_byte_size(0x02)
    3213              $C$DW$273       .dwtag  DW_TAG_subrange_type
    3214                      .dwattr $C$DW$273, DW_AT_upper_bound(0x01)
    3215                      .dwendtag $C$DW$T$52
    3216              
    3217              $C$DW$T$48      .dwtag  DW_TAG_typedef, DW_AT_name("_Bool")
    3218                      .dwattr $C$DW$T$48, DW_AT_type(*$C$DW$T$6)
    3219                      .dwattr $C$DW$T$48, DW_AT_language(DW_LANG_C)
    3220              $C$DW$274       .dwtag  DW_TAG_TI_far_type
    3221                      .dwattr $C$DW$274, DW_AT_type(*$C$DW$T$48)
    3222              $C$DW$T$98      .dwtag  DW_TAG_const_type
    3223                      .dwattr $C$DW$T$98, DW_AT_type(*$C$DW$274)
    3224              $C$DW$T$105     .dwtag  DW_TAG_pointer_type
    3225                      .dwattr $C$DW$T$105, DW_AT_type(*$C$DW$T$6)
    3226                      .dwattr $C$DW$T$105, DW_AT_address_class(0x16)
    3227              $C$DW$275       .dwtag  DW_TAG_TI_far_type
    3228                      .dwattr $C$DW$275, DW_AT_type(*$C$DW$T$6)
    3229              $C$DW$T$106     .dwtag  DW_TAG_const_type
    3230                      .dwattr $C$DW$T$106, DW_AT_type(*$C$DW$275)
    3231              
    3232              $C$DW$T$107     .dwtag  DW_TAG_array_type
    3233                      .dwattr $C$DW$T$107, DW_AT_type(*$C$DW$T$106)
    3234                      .dwattr $C$DW$T$107, DW_AT_language(DW_LANG_C)
    3235                      .dwattr $C$DW$T$107, DW_AT_byte_size(0x100)
    3236              $C$DW$276       .dwtag  DW_TAG_subrange_type
    3237                      .dwattr $C$DW$276, DW_AT_upper_bound(0xff)
    3238                      .dwendtag $C$DW$T$107
    3239              
    3240              $C$DW$T$7       .dwtag  DW_TAG_base_type
    3241                      .dwattr $C$DW$T$7, DW_AT_encoding(DW_ATE_signed_char)
    3242                      .dwattr $C$DW$T$7, DW_AT_name("wchar_t")
    3243                      .dwattr $C$DW$T$7, DW_AT_byte_size(0x01)
    3244              $C$DW$T$8       .dwtag  DW_TAG_base_type
    3245                      .dwattr $C$DW$T$8, DW_AT_encoding(DW_ATE_signed)
    3246                      .dwattr $C$DW$T$8, DW_AT_name("short")
    3247                      .dwattr $C$DW$T$8, DW_AT_byte_size(0x01)
    3248              $C$DW$T$9       .dwtag  DW_TAG_base_type
    3249                      .dwattr $C$DW$T$9, DW_AT_encoding(DW_ATE_unsigned)
TMS320C2000 Assembler PC v6.2.5 Fri Sep 15 11:07:51 2017

Tools Copyright (c) 1996-2014 Texas Instruments Incorporated
C:\Users\wmj\AppData\Local\Temp\0762011                              PAGE   61

    3250                      .dwattr $C$DW$T$9, DW_AT_name("unsigned short")
    3251                      .dwattr $C$DW$T$9, DW_AT_byte_size(0x01)
    3252              $C$DW$T$21      .dwtag  DW_TAG_typedef, DW_AT_name("uint16_t")
    3253                      .dwattr $C$DW$T$21, DW_AT_type(*$C$DW$T$9)
    3254                      .dwattr $C$DW$T$21, DW_AT_language(DW_LANG_C)
    3255              $C$DW$T$41      .dwtag  DW_TAG_typedef, DW_AT_name("USHORT")
    3256                      .dwattr $C$DW$T$41, DW_AT_type(*$C$DW$T$21)
    3257                      .dwattr $C$DW$T$41, DW_AT_language(DW_LANG_C)
    3258              $C$DW$277       .dwtag  DW_TAG_TI_far_type
    3259                      .dwattr $C$DW$277, DW_AT_type(*$C$DW$T$21)
    3260              $C$DW$T$22      .dwtag  DW_TAG_volatile_type
    3261                      .dwattr $C$DW$T$22, DW_AT_type(*$C$DW$277)
    3262              
    3263              $C$DW$T$23      .dwtag  DW_TAG_array_type
    3264                      .dwattr $C$DW$T$23, DW_AT_type(*$C$DW$T$22)
    3265                      .dwattr $C$DW$T$23, DW_AT_language(DW_LANG_C)
    3266                      .dwattr $C$DW$T$23, DW_AT_byte_size(0x02)
    3267              $C$DW$278       .dwtag  DW_TAG_subrange_type
    3268                      .dwattr $C$DW$278, DW_AT_upper_bound(0x01)
    3269                      .dwendtag $C$DW$T$23
    3270              
    3271              
    3272              $C$DW$T$24      .dwtag  DW_TAG_array_type
    3273                      .dwattr $C$DW$T$24, DW_AT_type(*$C$DW$T$22)
    3274                      .dwattr $C$DW$T$24, DW_AT_language(DW_LANG_C)
    3275                      .dwattr $C$DW$T$24, DW_AT_byte_size(0x18)
    3276              $C$DW$279       .dwtag  DW_TAG_subrange_type
    3277                      .dwattr $C$DW$279, DW_AT_upper_bound(0x17)
    3278                      .dwendtag $C$DW$T$24
    3279              
    3280              
    3281              $C$DW$T$25      .dwtag  DW_TAG_array_type
    3282                      .dwattr $C$DW$T$25, DW_AT_type(*$C$DW$T$22)
    3283                      .dwattr $C$DW$T$25, DW_AT_language(DW_LANG_C)
    3284                      .dwattr $C$DW$T$25, DW_AT_byte_size(0x04)
    3285              $C$DW$280       .dwtag  DW_TAG_subrange_type
    3286                      .dwattr $C$DW$280, DW_AT_upper_bound(0x03)
    3287                      .dwendtag $C$DW$T$25
    3288              
    3289              
    3290              $C$DW$T$26      .dwtag  DW_TAG_array_type
    3291                      .dwattr $C$DW$T$26, DW_AT_type(*$C$DW$T$22)
    3292                      .dwattr $C$DW$T$26, DW_AT_language(DW_LANG_C)
    3293                      .dwattr $C$DW$T$26, DW_AT_byte_size(0x08)
    3294              $C$DW$281       .dwtag  DW_TAG_subrange_type
    3295                      .dwattr $C$DW$281, DW_AT_upper_bound(0x07)
    3296                      .dwendtag $C$DW$T$26
    3297              
    3298              
    3299              $C$DW$T$27      .dwtag  DW_TAG_array_type
    3300                      .dwattr $C$DW$T$27, DW_AT_type(*$C$DW$T$22)
    3301                      .dwattr $C$DW$T$27, DW_AT_language(DW_LANG_C)
    3302                      .dwattr $C$DW$T$27, DW_AT_byte_size(0x03)
    3303              $C$DW$282       .dwtag  DW_TAG_subrange_type
    3304                      .dwattr $C$DW$282, DW_AT_upper_bound(0x02)
TMS320C2000 Assembler PC v6.2.5 Fri Sep 15 11:07:51 2017

Tools Copyright (c) 1996-2014 Texas Instruments Incorporated
C:\Users\wmj\AppData\Local\Temp\0762011                              PAGE   62

    3305                      .dwendtag $C$DW$T$27
    3306              
    3307              
    3308              $C$DW$T$28      .dwtag  DW_TAG_array_type
    3309                      .dwattr $C$DW$T$28, DW_AT_type(*$C$DW$T$22)
    3310                      .dwattr $C$DW$T$28, DW_AT_language(DW_LANG_C)
    3311                      .dwattr $C$DW$T$28, DW_AT_byte_size(0x05)
    3312              $C$DW$283       .dwtag  DW_TAG_subrange_type
    3313                      .dwattr $C$DW$283, DW_AT_upper_bound(0x04)
    3314                      .dwendtag $C$DW$T$28
    3315              
    3316              $C$DW$T$10      .dwtag  DW_TAG_base_type
    3317                      .dwattr $C$DW$T$10, DW_AT_encoding(DW_ATE_signed)
    3318                      .dwattr $C$DW$T$10, DW_AT_name("int")
    3319                      .dwattr $C$DW$T$10, DW_AT_byte_size(0x01)
    3320              $C$DW$T$11      .dwtag  DW_TAG_base_type
    3321                      .dwattr $C$DW$T$11, DW_AT_encoding(DW_ATE_unsigned)
    3322                      .dwattr $C$DW$T$11, DW_AT_name("unsigned int")
    3323                      .dwattr $C$DW$T$11, DW_AT_byte_size(0x01)
    3324              $C$DW$T$12      .dwtag  DW_TAG_base_type
    3325                      .dwattr $C$DW$T$12, DW_AT_encoding(DW_ATE_signed)
    3326                      .dwattr $C$DW$T$12, DW_AT_name("long")
    3327                      .dwattr $C$DW$T$12, DW_AT_byte_size(0x02)
    3328              $C$DW$T$13      .dwtag  DW_TAG_base_type
    3329                      .dwattr $C$DW$T$13, DW_AT_encoding(DW_ATE_unsigned)
    3330                      .dwattr $C$DW$T$13, DW_AT_name("unsigned long")
    3331                      .dwattr $C$DW$T$13, DW_AT_byte_size(0x02)
    3332              $C$DW$T$72      .dwtag  DW_TAG_typedef, DW_AT_name("size_t")
    3333                      .dwattr $C$DW$T$72, DW_AT_type(*$C$DW$T$13)
    3334                      .dwattr $C$DW$T$72, DW_AT_language(DW_LANG_C)
    3335              $C$DW$284       .dwtag  DW_TAG_TI_far_type
    3336                      .dwattr $C$DW$284, DW_AT_type(*$C$DW$T$72)
    3337              $C$DW$T$73      .dwtag  DW_TAG_const_type
    3338                      .dwattr $C$DW$T$73, DW_AT_type(*$C$DW$284)
    3339              $C$DW$T$19      .dwtag  DW_TAG_typedef, DW_AT_name("uint32_t")
    3340                      .dwattr $C$DW$T$19, DW_AT_type(*$C$DW$T$13)
    3341                      .dwattr $C$DW$T$19, DW_AT_language(DW_LANG_C)
    3342              $C$DW$285       .dwtag  DW_TAG_TI_far_type
    3343                      .dwattr $C$DW$285, DW_AT_type(*$C$DW$T$19)
    3344              $C$DW$T$20      .dwtag  DW_TAG_volatile_type
    3345                      .dwattr $C$DW$T$20, DW_AT_type(*$C$DW$285)
    3346              $C$DW$T$14      .dwtag  DW_TAG_base_type
    3347                      .dwattr $C$DW$T$14, DW_AT_encoding(DW_ATE_signed)
    3348                      .dwattr $C$DW$T$14, DW_AT_name("long long")
    3349                      .dwattr $C$DW$T$14, DW_AT_byte_size(0x04)
    3350              $C$DW$T$15      .dwtag  DW_TAG_base_type
    3351                      .dwattr $C$DW$T$15, DW_AT_encoding(DW_ATE_unsigned)
    3352                      .dwattr $C$DW$T$15, DW_AT_name("unsigned long long")
    3353                      .dwattr $C$DW$T$15, DW_AT_byte_size(0x04)
    3354              $C$DW$T$16      .dwtag  DW_TAG_base_type
    3355                      .dwattr $C$DW$T$16, DW_AT_encoding(DW_ATE_float)
    3356                      .dwattr $C$DW$T$16, DW_AT_name("float")
    3357                      .dwattr $C$DW$T$16, DW_AT_byte_size(0x02)
    3358              $C$DW$T$17      .dwtag  DW_TAG_base_type
    3359                      .dwattr $C$DW$T$17, DW_AT_encoding(DW_ATE_float)
TMS320C2000 Assembler PC v6.2.5 Fri Sep 15 11:07:51 2017

Tools Copyright (c) 1996-2014 Texas Instruments Incorporated
C:\Users\wmj\AppData\Local\Temp\0762011                              PAGE   63

    3360                      .dwattr $C$DW$T$17, DW_AT_name("double")
    3361                      .dwattr $C$DW$T$17, DW_AT_byte_size(0x02)
    3362              $C$DW$T$18      .dwtag  DW_TAG_base_type
    3363                      .dwattr $C$DW$T$18, DW_AT_encoding(DW_ATE_float)
    3364                      .dwattr $C$DW$T$18, DW_AT_name("long double")
    3365                      .dwattr $C$DW$T$18, DW_AT_byte_size(0x04)
    3366              $C$DW$T$100     .dwtag  DW_TAG_typedef, DW_AT_name("CHAR")
    3367                      .dwattr $C$DW$T$100, DW_AT_type(*$C$DW$T$5)
    3368                      .dwattr $C$DW$T$100, DW_AT_language(DW_LANG_C)
    3369              $C$DW$286       .dwtag  DW_TAG_TI_far_type
    3370                      .dwattr $C$DW$286, DW_AT_type(*$C$DW$T$100)
    3371              $C$DW$T$129     .dwtag  DW_TAG_const_type
    3372                      .dwattr $C$DW$T$129, DW_AT_type(*$C$DW$286)
    3373              $C$DW$T$102     .dwtag  DW_TAG_pointer_type
    3374                      .dwattr $C$DW$T$102, DW_AT_type(*$C$DW$T$100)
    3375                      .dwattr $C$DW$T$102, DW_AT_address_class(0x16)
    3376              $C$DW$287       .dwtag  DW_TAG_TI_far_type
    3377                      .dwattr $C$DW$287, DW_AT_type(*$C$DW$T$102)
    3378              $C$DW$T$130     .dwtag  DW_TAG_const_type
    3379                      .dwattr $C$DW$T$130, DW_AT_type(*$C$DW$287)
    3380                      .dwattr $C$DW$CU, DW_AT_language(DW_LANG_C)
    3381              
    3382              ;***************************************************************
    3383              ;* DWARF CIE ENTRIES                                           *
    3384              ;***************************************************************
    3385              
    3386              $C$DW$CIE       .dwcie 78
    3387                      .dwcfi  cfa_register, 20
    3388                      .dwcfi  cfa_offset, 0
    3389                      .dwcfi  undefined, 0
    3390                      .dwcfi  undefined, 1
    3391                      .dwcfi  undefined, 2
    3392                      .dwcfi  undefined, 3
    3393                      .dwcfi  undefined, 20
    3394                      .dwcfi  undefined, 21
    3395                      .dwcfi  undefined, 22
    3396                      .dwcfi  undefined, 23
    3397                      .dwcfi  undefined, 24
    3398                      .dwcfi  undefined, 25
    3399                      .dwcfi  undefined, 26
    3400                      .dwcfi  same_value, 28
    3401                      .dwcfi  undefined, 29
    3402                      .dwcfi  undefined, 30
    3403                      .dwcfi  undefined, 31
    3404                      .dwcfi  undefined, 32
    3405                      .dwcfi  undefined, 33
    3406                      .dwcfi  undefined, 34
    3407                      .dwcfi  undefined, 35
    3408                      .dwcfi  undefined, 36
    3409                      .dwcfi  undefined, 37
    3410                      .dwcfi  undefined, 38
    3411                      .dwcfi  undefined, 75
    3412                      .dwcfi  undefined, 76
    3413                      .dwcfi  undefined, 77
    3414                      .dwcfi  undefined, 4
TMS320C2000 Assembler PC v6.2.5 Fri Sep 15 11:07:51 2017

Tools Copyright (c) 1996-2014 Texas Instruments Incorporated
C:\Users\wmj\AppData\Local\Temp\0762011                              PAGE   64

    3415                      .dwcfi  same_value, 6
    3416                      .dwcfi  same_value, 8
    3417                      .dwcfi  same_value, 10
    3418                      .dwcfi  undefined, 12
    3419                      .dwcfi  undefined, 14
    3420                      .dwcfi  undefined, 16
    3421                      .dwcfi  undefined, 17
    3422                      .dwcfi  undefined, 18
    3423                      .dwcfi  undefined, 19
    3424                      .dwcfi  undefined, 5
    3425                      .dwcfi  same_value, 7
    3426                      .dwcfi  same_value, 9
    3427                      .dwcfi  same_value, 11
    3428                      .dwcfi  undefined, 13
    3429                      .dwcfi  undefined, 15
    3430                      .dwcfi  undefined, 78
    3431                      .dwendentry
    3432              
    3433              ;***************************************************************
    3434              ;* DWARF REGISTER MAP                                          *
    3435              ;***************************************************************
    3436              
    3437              $C$DW$288       .dwtag  DW_TAG_TI_assign_register, DW_AT_name("AL")
    3438                      .dwattr $C$DW$288, DW_AT_location[DW_OP_reg0]
    3439              $C$DW$289       .dwtag  DW_TAG_TI_assign_register, DW_AT_name("AH")
    3440                      .dwattr $C$DW$289, DW_AT_location[DW_OP_reg1]
    3441              $C$DW$290       .dwtag  DW_TAG_TI_assign_register, DW_AT_name("PL")
    3442                      .dwattr $C$DW$290, DW_AT_location[DW_OP_reg2]
    3443              $C$DW$291       .dwtag  DW_TAG_TI_assign_register, DW_AT_name("PH")
    3444                      .dwattr $C$DW$291, DW_AT_location[DW_OP_reg3]
    3445              $C$DW$292       .dwtag  DW_TAG_TI_assign_register, DW_AT_name("SP")
    3446                      .dwattr $C$DW$292, DW_AT_location[DW_OP_reg20]
    3447              $C$DW$293       .dwtag  DW_TAG_TI_assign_register, DW_AT_name("XT")
    3448                      .dwattr $C$DW$293, DW_AT_location[DW_OP_reg21]
    3449              $C$DW$294       .dwtag  DW_TAG_TI_assign_register, DW_AT_name("T")
    3450                      .dwattr $C$DW$294, DW_AT_location[DW_OP_reg22]
    3451              $C$DW$295       .dwtag  DW_TAG_TI_assign_register, DW_AT_name("ST0")
    3452                      .dwattr $C$DW$295, DW_AT_location[DW_OP_reg23]
    3453              $C$DW$296       .dwtag  DW_TAG_TI_assign_register, DW_AT_name("ST1")
    3454                      .dwattr $C$DW$296, DW_AT_location[DW_OP_reg24]
    3455              $C$DW$297       .dwtag  DW_TAG_TI_assign_register, DW_AT_name("PC")
    3456                      .dwattr $C$DW$297, DW_AT_location[DW_OP_reg25]
    3457              $C$DW$298       .dwtag  DW_TAG_TI_assign_register, DW_AT_name("RPC")
    3458                      .dwattr $C$DW$298, DW_AT_location[DW_OP_reg26]
    3459              $C$DW$299       .dwtag  DW_TAG_TI_assign_register, DW_AT_name("FP")
    3460                      .dwattr $C$DW$299, DW_AT_location[DW_OP_reg28]
    3461              $C$DW$300       .dwtag  DW_TAG_TI_assign_register, DW_AT_name("DP")
    3462                      .dwattr $C$DW$300, DW_AT_location[DW_OP_reg29]
    3463              $C$DW$301       .dwtag  DW_TAG_TI_assign_register, DW_AT_name("SXM")
    3464                      .dwattr $C$DW$301, DW_AT_location[DW_OP_reg30]
    3465              $C$DW$302       .dwtag  DW_TAG_TI_assign_register, DW_AT_name("PM")
    3466                      .dwattr $C$DW$302, DW_AT_location[DW_OP_reg31]
    3467              $C$DW$303       .dwtag  DW_TAG_TI_assign_register, DW_AT_name("OVM")
    3468                      .dwattr $C$DW$303, DW_AT_location[DW_OP_regx 0x20]
    3469              $C$DW$304       .dwtag  DW_TAG_TI_assign_register, DW_AT_name("PAGE0")
TMS320C2000 Assembler PC v6.2.5 Fri Sep 15 11:07:51 2017

Tools Copyright (c) 1996-2014 Texas Instruments Incorporated
C:\Users\wmj\AppData\Local\Temp\0762011                              PAGE   65

    3470                      .dwattr $C$DW$304, DW_AT_location[DW_OP_regx 0x21]
    3471              $C$DW$305       .dwtag  DW_TAG_TI_assign_register, DW_AT_name("AMODE")
    3472                      .dwattr $C$DW$305, DW_AT_location[DW_OP_regx 0x22]
    3473              $C$DW$306       .dwtag  DW_TAG_TI_assign_register, DW_AT_name("INTM")
    3474                      .dwattr $C$DW$306, DW_AT_location[DW_OP_regx 0x23]
    3475              $C$DW$307       .dwtag  DW_TAG_TI_assign_register, DW_AT_name("IFR")
    3476                      .dwattr $C$DW$307, DW_AT_location[DW_OP_regx 0x24]
    3477              $C$DW$308       .dwtag  DW_TAG_TI_assign_register, DW_AT_name("IER")
    3478                      .dwattr $C$DW$308, DW_AT_location[DW_OP_regx 0x25]
    3479              $C$DW$309       .dwtag  DW_TAG_TI_assign_register, DW_AT_name("V")
    3480                      .dwattr $C$DW$309, DW_AT_location[DW_OP_regx 0x26]
    3481              $C$DW$310       .dwtag  DW_TAG_TI_assign_register, DW_AT_name("PSEUDOH")
    3482                      .dwattr $C$DW$310, DW_AT_location[DW_OP_regx 0x4c]
    3483              $C$DW$311       .dwtag  DW_TAG_TI_assign_register, DW_AT_name("VOL")
    3484                      .dwattr $C$DW$311, DW_AT_location[DW_OP_regx 0x4d]
    3485              $C$DW$312       .dwtag  DW_TAG_TI_assign_register, DW_AT_name("AR0")
    3486                      .dwattr $C$DW$312, DW_AT_location[DW_OP_reg4]
    3487              $C$DW$313       .dwtag  DW_TAG_TI_assign_register, DW_AT_name("AR1")
    3488                      .dwattr $C$DW$313, DW_AT_location[DW_OP_reg6]
    3489              $C$DW$314       .dwtag  DW_TAG_TI_assign_register, DW_AT_name("AR2")
    3490                      .dwattr $C$DW$314, DW_AT_location[DW_OP_reg8]
    3491              $C$DW$315       .dwtag  DW_TAG_TI_assign_register, DW_AT_name("AR3")
    3492                      .dwattr $C$DW$315, DW_AT_location[DW_OP_reg10]
    3493              $C$DW$316       .dwtag  DW_TAG_TI_assign_register, DW_AT_name("AR4")
    3494                      .dwattr $C$DW$316, DW_AT_location[DW_OP_reg12]
    3495              $C$DW$317       .dwtag  DW_TAG_TI_assign_register, DW_AT_name("AR5")
    3496                      .dwattr $C$DW$317, DW_AT_location[DW_OP_reg14]
    3497              $C$DW$318       .dwtag  DW_TAG_TI_assign_register, DW_AT_name("AR6")
    3498                      .dwattr $C$DW$318, DW_AT_location[DW_OP_reg16]
    3499              $C$DW$319       .dwtag  DW_TAG_TI_assign_register, DW_AT_name("XAR6")
    3500                      .dwattr $C$DW$319, DW_AT_location[DW_OP_reg17]
    3501              $C$DW$320       .dwtag  DW_TAG_TI_assign_register, DW_AT_name("AR7")
    3502                      .dwattr $C$DW$320, DW_AT_location[DW_OP_reg18]
    3503              $C$DW$321       .dwtag  DW_TAG_TI_assign_register, DW_AT_name("XAR7")
    3504                      .dwattr $C$DW$321, DW_AT_location[DW_OP_reg19]
    3505              $C$DW$322       .dwtag  DW_TAG_TI_assign_register, DW_AT_name("XAR0")
    3506                      .dwattr $C$DW$322, DW_AT_location[DW_OP_reg5]
    3507              $C$DW$323       .dwtag  DW_TAG_TI_assign_register, DW_AT_name("XAR1")
    3508                      .dwattr $C$DW$323, DW_AT_location[DW_OP_reg7]
    3509              $C$DW$324       .dwtag  DW_TAG_TI_assign_register, DW_AT_name("XAR2")
    3510                      .dwattr $C$DW$324, DW_AT_location[DW_OP_reg9]
    3511              $C$DW$325       .dwtag  DW_TAG_TI_assign_register, DW_AT_name("XAR3")
    3512                      .dwattr $C$DW$325, DW_AT_location[DW_OP_reg11]
    3513              $C$DW$326       .dwtag  DW_TAG_TI_assign_register, DW_AT_name("XAR4")
    3514                      .dwattr $C$DW$326, DW_AT_location[DW_OP_reg13]
    3515              $C$DW$327       .dwtag  DW_TAG_TI_assign_register, DW_AT_name("XAR5")
    3516                      .dwattr $C$DW$327, DW_AT_location[DW_OP_reg15]
    3517              $C$DW$328       .dwtag  DW_TAG_TI_assign_register, DW_AT_name("CIE_RETA")
    3518                      .dwattr $C$DW$328, DW_AT_location[DW_OP_regx 0x4e]
    3519                      .dwendtag $C$DW$CU
    3520              

No Assembly Errors, No Assembly Warnings
