TMS320C2000 Assembler PC v6.2.5 Sat Sep 16 15:51:24 2017

Tools Copyright (c) 1996-2014 Texas Instruments Incorporated
C:\Users\wmj\AppData\Local\Temp\1274411                              PAGE    1

       1              ;***************************************************************
       2              ;* TMS320C2000 C/C++ Codegen                         PC v6.2.5 *
       3              ;* Date/Time created: Sat Sep 16 15:51:24 2017                 *
       4              ;***************************************************************
       5                      .compiler_opts --float_support=softlib --hll_source=on --mem_model:code=flat --mem_model:data=large -
       6        0002  FP      .set    XAR2
       7              
       8              $C$DW$CU        .dwtag  DW_TAG_compile_unit
       9                      .dwattr $C$DW$CU, DW_AT_name("D:/BM1000/sw/drivers/drvic/process_ctrl.c")
      10                      .dwattr $C$DW$CU, DW_AT_producer("TMS320C2000 C/C++ Codegen PC v6.2.5 Copyright (c) 1996-2014 Texas I
      11                      .dwattr $C$DW$CU, DW_AT_TI_version(0x01)
      12                      .dwattr $C$DW$CU, DW_AT_comp_dir("D:\BM1000\sw\solutions\instaspin_foc\boards\hvkit_rev1p1\f28x\f2802
      13              
      14              $C$DW$1 .dwtag  DW_TAG_subprogram, DW_AT_name("LDC161x_Kalman_init")
      15                      .dwattr $C$DW$1, DW_AT_TI_symbol_name("_LDC161x_Kalman_init")
      16                      .dwattr $C$DW$1, DW_AT_declaration
      17                      .dwattr $C$DW$1, DW_AT_external
      18              $C$DW$2 .dwtag  DW_TAG_formal_parameter
      19                      .dwattr $C$DW$2, DW_AT_type(*$C$DW$T$162)
      20              $C$DW$3 .dwtag  DW_TAG_formal_parameter
      21                      .dwattr $C$DW$3, DW_AT_type(*$C$DW$T$49)
      22              $C$DW$4 .dwtag  DW_TAG_formal_parameter
      23                      .dwattr $C$DW$4, DW_AT_type(*$C$DW$T$49)
      24                      .dwendtag $C$DW$1
      25              
      26              
      27              $C$DW$5 .dwtag  DW_TAG_subprogram, DW_AT_name("LDC161x_ResetSensor")
      28                      .dwattr $C$DW$5, DW_AT_TI_symbol_name("_LDC161x_ResetSensor")
      29                      .dwattr $C$DW$5, DW_AT_declaration
      30                      .dwattr $C$DW$5, DW_AT_external
      31              $C$DW$6 .dwtag  DW_TAG_formal_parameter
      32                      .dwattr $C$DW$6, DW_AT_type(*$C$DW$T$162)
      33                      .dwendtag $C$DW$5
      34              
      35              
      36              $C$DW$7 .dwtag  DW_TAG_subprogram, DW_AT_name("LDC161x_writeConfig")
      37                      .dwattr $C$DW$7, DW_AT_TI_symbol_name("_LDC161x_writeConfig")
      38                      .dwattr $C$DW$7, DW_AT_declaration
      39                      .dwattr $C$DW$7, DW_AT_external
      40              $C$DW$8 .dwtag  DW_TAG_formal_parameter
      41                      .dwattr $C$DW$8, DW_AT_type(*$C$DW$T$162)
      42                      .dwendtag $C$DW$7
      43              
      44              
      45              $C$DW$9 .dwtag  DW_TAG_subprogram, DW_AT_name("LDC161x_writeMuxConfig")
      46                      .dwattr $C$DW$9, DW_AT_TI_symbol_name("_LDC161x_writeMuxConfig")
      47                      .dwattr $C$DW$9, DW_AT_declaration
      48                      .dwattr $C$DW$9, DW_AT_external
      49              $C$DW$10        .dwtag  DW_TAG_formal_parameter
      50                      .dwattr $C$DW$10, DW_AT_type(*$C$DW$T$162)
      51                      .dwendtag $C$DW$9
      52              
      53              
      54              $C$DW$11        .dwtag  DW_TAG_subprogram, DW_AT_name("PCA955x_WriteCommand")
      55                      .dwattr $C$DW$11, DW_AT_TI_symbol_name("_PCA955x_WriteCommand")
TMS320C2000 Assembler PC v6.2.5 Sat Sep 16 15:51:24 2017

Tools Copyright (c) 1996-2014 Texas Instruments Incorporated
C:\Users\wmj\AppData\Local\Temp\1274411                              PAGE    2

      56                      .dwattr $C$DW$11, DW_AT_declaration
      57                      .dwattr $C$DW$11, DW_AT_external
      58              $C$DW$12        .dwtag  DW_TAG_formal_parameter
      59                      .dwattr $C$DW$12, DW_AT_type(*$C$DW$T$159)
      60              $C$DW$13        .dwtag  DW_TAG_formal_parameter
      61                      .dwattr $C$DW$13, DW_AT_type(*$C$DW$T$186)
      62              $C$DW$14        .dwtag  DW_TAG_formal_parameter
      63                      .dwattr $C$DW$14, DW_AT_type(*$C$DW$T$23)
      64                      .dwendtag $C$DW$11
      65              
      66              
      67              $C$DW$15        .dwtag  DW_TAG_subprogram, DW_AT_name("PCA955x_setI2cHandle")
      68                      .dwattr $C$DW$15, DW_AT_TI_symbol_name("_PCA955x_setI2cHandle")
      69                      .dwattr $C$DW$15, DW_AT_declaration
      70                      .dwattr $C$DW$15, DW_AT_external
      71              $C$DW$16        .dwtag  DW_TAG_formal_parameter
      72                      .dwattr $C$DW$16, DW_AT_type(*$C$DW$T$159)
      73              $C$DW$17        .dwtag  DW_TAG_formal_parameter
      74                      .dwattr $C$DW$17, DW_AT_type(*$C$DW$T$84)
      75                      .dwendtag $C$DW$15
      76              
      77              
      78              $C$DW$18        .dwtag  DW_TAG_subprogram, DW_AT_name("PCA955x_Configure")
      79                      .dwattr $C$DW$18, DW_AT_TI_symbol_name("_PCA955x_Configure")
      80                      .dwattr $C$DW$18, DW_AT_declaration
      81                      .dwattr $C$DW$18, DW_AT_external
      82              $C$DW$19        .dwtag  DW_TAG_formal_parameter
      83                      .dwattr $C$DW$19, DW_AT_type(*$C$DW$T$159)
      84              $C$DW$20        .dwtag  DW_TAG_formal_parameter
      85                      .dwattr $C$DW$20, DW_AT_type(*$C$DW$T$186)
      86              $C$DW$21        .dwtag  DW_TAG_formal_parameter
      87                      .dwattr $C$DW$21, DW_AT_type(*$C$DW$T$23)
      88                      .dwendtag $C$DW$18
      89              
      90              
      91              $C$DW$22        .dwtag  DW_TAG_subprogram, DW_AT_name("LDC161x_setSettleCnt")
      92                      .dwattr $C$DW$22, DW_AT_TI_symbol_name("_LDC161x_setSettleCnt")
      93                      .dwattr $C$DW$22, DW_AT_declaration
      94                      .dwattr $C$DW$22, DW_AT_external
      95              $C$DW$23        .dwtag  DW_TAG_formal_parameter
      96                      .dwattr $C$DW$23, DW_AT_type(*$C$DW$T$101)
      97              $C$DW$24        .dwtag  DW_TAG_formal_parameter
      98                      .dwattr $C$DW$24, DW_AT_type(*$C$DW$T$210)
      99              $C$DW$25        .dwtag  DW_TAG_formal_parameter
     100                      .dwattr $C$DW$25, DW_AT_type(*$C$DW$T$23)
     101                      .dwendtag $C$DW$22
     102              
     103              
     104              $C$DW$26        .dwtag  DW_TAG_subprogram, DW_AT_name("LDC161x_setClkDivs")
     105                      .dwattr $C$DW$26, DW_AT_TI_symbol_name("_LDC161x_setClkDivs")
     106                      .dwattr $C$DW$26, DW_AT_declaration
     107                      .dwattr $C$DW$26, DW_AT_external
     108              $C$DW$27        .dwtag  DW_TAG_formal_parameter
     109                      .dwattr $C$DW$27, DW_AT_type(*$C$DW$T$101)
     110              $C$DW$28        .dwtag  DW_TAG_formal_parameter
TMS320C2000 Assembler PC v6.2.5 Sat Sep 16 15:51:24 2017

Tools Copyright (c) 1996-2014 Texas Instruments Incorporated
C:\Users\wmj\AppData\Local\Temp\1274411                              PAGE    3

     111                      .dwattr $C$DW$28, DW_AT_type(*$C$DW$T$210)
     112              $C$DW$29        .dwtag  DW_TAG_formal_parameter
     113                      .dwattr $C$DW$29, DW_AT_type(*$C$DW$T$23)
     114                      .dwendtag $C$DW$26
     115              
     116              
     117              $C$DW$30        .dwtag  DW_TAG_subprogram, DW_AT_name("LDC161x_setGpioHandle")
     118                      .dwattr $C$DW$30, DW_AT_TI_symbol_name("_LDC161x_setGpioHandle")
     119                      .dwattr $C$DW$30, DW_AT_declaration
     120                      .dwattr $C$DW$30, DW_AT_external
     121              $C$DW$31        .dwtag  DW_TAG_formal_parameter
     122                      .dwattr $C$DW$31, DW_AT_type(*$C$DW$T$162)
     123              $C$DW$32        .dwtag  DW_TAG_formal_parameter
     124                      .dwattr $C$DW$32, DW_AT_type(*$C$DW$T$40)
     125                      .dwendtag $C$DW$30
     126              
     127              
     128              $C$DW$33        .dwtag  DW_TAG_subprogram, DW_AT_name("LDC161x_setRcount")
     129                      .dwattr $C$DW$33, DW_AT_TI_symbol_name("_LDC161x_setRcount")
     130                      .dwattr $C$DW$33, DW_AT_declaration
     131                      .dwattr $C$DW$33, DW_AT_external
     132              $C$DW$34        .dwtag  DW_TAG_formal_parameter
     133                      .dwattr $C$DW$34, DW_AT_type(*$C$DW$T$101)
     134              $C$DW$35        .dwtag  DW_TAG_formal_parameter
     135                      .dwattr $C$DW$35, DW_AT_type(*$C$DW$T$210)
     136              $C$DW$36        .dwtag  DW_TAG_formal_parameter
     137                      .dwattr $C$DW$36, DW_AT_type(*$C$DW$T$23)
     138                      .dwendtag $C$DW$33
     139              
     140              
     141              $C$DW$37        .dwtag  DW_TAG_subprogram, DW_AT_name("LDC161x_setI2cHandle")
     142                      .dwattr $C$DW$37, DW_AT_TI_symbol_name("_LDC161x_setI2cHandle")
     143                      .dwattr $C$DW$37, DW_AT_declaration
     144                      .dwattr $C$DW$37, DW_AT_external
     145              $C$DW$38        .dwtag  DW_TAG_formal_parameter
     146                      .dwattr $C$DW$38, DW_AT_type(*$C$DW$T$162)
     147              $C$DW$39        .dwtag  DW_TAG_formal_parameter
     148                      .dwattr $C$DW$39, DW_AT_type(*$C$DW$T$84)
     149                      .dwendtag $C$DW$37
     150              
     151              
     152              $C$DW$40        .dwtag  DW_TAG_subprogram, DW_AT_name("LDC161x_writeSettleCnt")
     153                      .dwattr $C$DW$40, DW_AT_TI_symbol_name("_LDC161x_writeSettleCnt")
     154                      .dwattr $C$DW$40, DW_AT_declaration
     155                      .dwattr $C$DW$40, DW_AT_external
     156              $C$DW$41        .dwtag  DW_TAG_formal_parameter
     157                      .dwattr $C$DW$41, DW_AT_type(*$C$DW$T$162)
     158              $C$DW$42        .dwtag  DW_TAG_formal_parameter
     159                      .dwattr $C$DW$42, DW_AT_type(*$C$DW$T$184)
     160                      .dwendtag $C$DW$40
     161              
     162              
     163              $C$DW$43        .dwtag  DW_TAG_subprogram, DW_AT_name("LDC161x_writeClkDivs")
     164                      .dwattr $C$DW$43, DW_AT_TI_symbol_name("_LDC161x_writeClkDivs")
     165                      .dwattr $C$DW$43, DW_AT_declaration
TMS320C2000 Assembler PC v6.2.5 Sat Sep 16 15:51:24 2017

Tools Copyright (c) 1996-2014 Texas Instruments Incorporated
C:\Users\wmj\AppData\Local\Temp\1274411                              PAGE    4

     166                      .dwattr $C$DW$43, DW_AT_external
     167              $C$DW$44        .dwtag  DW_TAG_formal_parameter
     168                      .dwattr $C$DW$44, DW_AT_type(*$C$DW$T$162)
     169              $C$DW$45        .dwtag  DW_TAG_formal_parameter
     170                      .dwattr $C$DW$45, DW_AT_type(*$C$DW$T$184)
     171                      .dwendtag $C$DW$43
     172              
     173              
     174              $C$DW$46        .dwtag  DW_TAG_subprogram, DW_AT_name("LDC161x_writeRcount")
     175                      .dwattr $C$DW$46, DW_AT_TI_symbol_name("_LDC161x_writeRcount")
     176                      .dwattr $C$DW$46, DW_AT_declaration
     177                      .dwattr $C$DW$46, DW_AT_external
     178              $C$DW$47        .dwtag  DW_TAG_formal_parameter
     179                      .dwattr $C$DW$47, DW_AT_type(*$C$DW$T$162)
     180              $C$DW$48        .dwtag  DW_TAG_formal_parameter
     181                      .dwattr $C$DW$48, DW_AT_type(*$C$DW$T$184)
     182                      .dwendtag $C$DW$46
     183              
     184              
     185              $C$DW$49        .dwtag  DW_TAG_subprogram, DW_AT_name("LDC161x_setConfig")
     186                      .dwattr $C$DW$49, DW_AT_TI_symbol_name("_LDC161x_setConfig")
     187                      .dwattr $C$DW$49, DW_AT_declaration
     188                      .dwattr $C$DW$49, DW_AT_external
     189              $C$DW$50        .dwtag  DW_TAG_formal_parameter
     190                      .dwattr $C$DW$50, DW_AT_type(*$C$DW$T$101)
     191              $C$DW$51        .dwtag  DW_TAG_formal_parameter
     192                      .dwattr $C$DW$51, DW_AT_type(*$C$DW$T$23)
     193                      .dwendtag $C$DW$49
     194              
     195              
     196              $C$DW$52        .dwtag  DW_TAG_subprogram, DW_AT_name("LDC161x_setMuxConfig")
     197                      .dwattr $C$DW$52, DW_AT_TI_symbol_name("_LDC161x_setMuxConfig")
     198                      .dwattr $C$DW$52, DW_AT_declaration
     199                      .dwattr $C$DW$52, DW_AT_external
     200              $C$DW$53        .dwtag  DW_TAG_formal_parameter
     201                      .dwattr $C$DW$53, DW_AT_type(*$C$DW$T$101)
     202              $C$DW$54        .dwtag  DW_TAG_formal_parameter
     203                      .dwattr $C$DW$54, DW_AT_type(*$C$DW$T$23)
     204                      .dwendtag $C$DW$52
     205              
     206              
     207              $C$DW$55        .dwtag  DW_TAG_subprogram, DW_AT_name("LDC1612_init")
     208                      .dwattr $C$DW$55, DW_AT_TI_symbol_name("_LDC1612_init")
     209                      .dwattr $C$DW$55, DW_AT_type(*$C$DW$T$162)
     210                      .dwattr $C$DW$55, DW_AT_declaration
     211                      .dwattr $C$DW$55, DW_AT_external
     212              $C$DW$56        .dwtag  DW_TAG_formal_parameter
     213                      .dwattr $C$DW$56, DW_AT_type(*$C$DW$T$3)
     214              $C$DW$57        .dwtag  DW_TAG_formal_parameter
     215                      .dwattr $C$DW$57, DW_AT_type(*$C$DW$T$190)
     216                      .dwendtag $C$DW$55
     217              
     218              
     219              $C$DW$58        .dwtag  DW_TAG_subprogram, DW_AT_name("PCA955x_Init")
     220                      .dwattr $C$DW$58, DW_AT_TI_symbol_name("_PCA955x_Init")
TMS320C2000 Assembler PC v6.2.5 Sat Sep 16 15:51:24 2017

Tools Copyright (c) 1996-2014 Texas Instruments Incorporated
C:\Users\wmj\AppData\Local\Temp\1274411                              PAGE    5

     221                      .dwattr $C$DW$58, DW_AT_type(*$C$DW$T$159)
     222                      .dwattr $C$DW$58, DW_AT_declaration
     223                      .dwattr $C$DW$58, DW_AT_external
     224              $C$DW$59        .dwtag  DW_TAG_formal_parameter
     225                      .dwattr $C$DW$59, DW_AT_type(*$C$DW$T$3)
     226              $C$DW$60        .dwtag  DW_TAG_formal_parameter
     227                      .dwattr $C$DW$60, DW_AT_type(*$C$DW$T$190)
     228                      .dwendtag $C$DW$58
     229              
     230              ;       C:\ti\ccsv6\tools\compiler\c2000_6.2.5\bin\opt2000.exe C:\\Users\\wmj\\AppData\\Local\\Temp\\127443 C
     231              ;       C:\ti\ccsv6\tools\compiler\c2000_6.2.5\bin\ac2000.exe -@C:\\Users\\wmj\\AppData\\Local\\Temp\\1274417
     232 00000000               .sect   ".text"
     233                      .clink
     234                      .global _PROCTRL_setParams
     235              
     236              $C$DW$61        .dwtag  DW_TAG_subprogram, DW_AT_name("PROCTRL_setParams")
     237                      .dwattr $C$DW$61, DW_AT_low_pc(_PROCTRL_setParams)
     238                      .dwattr $C$DW$61, DW_AT_high_pc(0x00)
     239                      .dwattr $C$DW$61, DW_AT_TI_symbol_name("_PROCTRL_setParams")
     240                      .dwattr $C$DW$61, DW_AT_external
     241                      .dwattr $C$DW$61, DW_AT_TI_begin_file("D:/BM1000/sw/drivers/drvic/process_ctrl.c")
     242                      .dwattr $C$DW$61, DW_AT_TI_begin_line(0x27)
     243                      .dwattr $C$DW$61, DW_AT_TI_begin_column(0x06)
     244                      .dwattr $C$DW$61, DW_AT_TI_max_frame_size(-6)
     245                      .dwpsn  file "D:/BM1000/sw/drivers/drvic/process_ctrl.c",line 40,column 1,is_stmt,address _PROCTRL_se
     246              
     247                      .dwfde $C$DW$CIE, _PROCTRL_setParams
     248              $C$DW$62        .dwtag  DW_TAG_formal_parameter, DW_AT_name("handle")
     249                      .dwattr $C$DW$62, DW_AT_TI_symbol_name("_handle")
     250                      .dwattr $C$DW$62, DW_AT_type(*$C$DW$T$200)
     251                      .dwattr $C$DW$62, DW_AT_location[DW_OP_reg12]
     252              
     253              ;***************************************************************
     254              ;* FNAME: _PROCTRL_setParams            FR SIZE:   4           *
     255              ;*                                                             *
     256              ;* FUNCTION ENVIRONMENT                                        *
     257              ;*                                                             *
     258              ;* FUNCTION PROPERTIES                                         *
     259              ;*                            2 Parameter,  0 Auto,  2 SOE     *
     260              ;***************************************************************
     261              
     262              _PROCTRL_setParams:
     263              ;* AR1   assigned to _handle
     264              $C$DW$63        .dwtag  DW_TAG_variable, DW_AT_name("handle")
     265                      .dwattr $C$DW$63, DW_AT_TI_symbol_name("_handle")
     266                      .dwattr $C$DW$63, DW_AT_type(*$C$DW$T$201)
     267                      .dwattr $C$DW$63, DW_AT_location[DW_OP_reg6]
     268              ;* AR4   assigned to $O$v1
     269              ;* AR4   assigned to $O$v2
     270                      .dwcfi  cfa_offset, -2
     271                      .dwcfi  save_reg_to_mem, 26, 0
     272                      .dwcfi  save_reg_to_reg, 78, 26
     273 00000000 B2BD          MOVL      *SP++,XAR1            ; [CPU_] 
     274                      .dwcfi  save_reg_to_mem, 7, 2
     275                      .dwcfi  cfa_offset, -4
TMS320C2000 Assembler PC v6.2.5 Sat Sep 16 15:51:24 2017

Tools Copyright (c) 1996-2014 Texas Instruments Incorporated
C:\Users\wmj\AppData\Local\Temp\1274411                              PAGE    6

     276 00000001 FE02          ADDB      SP,#2                 ; [CPU_U] 
     277                      .dwcfi  cfa_offset, -6
     278 00000002 8BA4          MOVL      XAR1,XAR4             ; [CPU_] |40| 
     279                      .dwpsn  file "D:/BM1000/sw/drivers/drvic/process_ctrl.c",line 44,column 3,is_stmt
     280 00000003 0212          MOVB      ACC,#18               ; [CPU_] |44| 
     281 00000004 DC04          ADDB      XAR4,#4               ; [CPU_] |44| 
     282              $C$DW$64        .dwtag  DW_TAG_TI_branch
     283                      .dwattr $C$DW$64, DW_AT_low_pc(0x00)
     284                      .dwattr $C$DW$64, DW_AT_name("_PCA955x_Init")
     285                      .dwattr $C$DW$64, DW_AT_TI_call
     286 00000005 7640!         LCR       #_PCA955x_Init        ; [CPU_] |44| 
         00000006 0000 
     287                      ; call occurs [#_PCA955x_Init] ; [] |44| 
     288 00000007 A8D1          MOVL      *+XAR1[2],XAR4        ; [CPU_] |44| 
     289                      .dwpsn  file "D:/BM1000/sw/drivers/drvic/process_ctrl.c",line 45,column 3,is_stmt
     290 00000008 83C1          MOVL      XAR5,*+XAR1[0]        ; [CPU_] |45| 
     291 00000009 D090          MOVB      XAR0,#144             ; [CPU_] |45| 
     292 0000000a 8395          MOVL      XAR5,*+XAR5[AR0]      ; [CPU_] |45| 
     293              $C$DW$65        .dwtag  DW_TAG_TI_branch
     294                      .dwattr $C$DW$65, DW_AT_low_pc(0x00)
     295                      .dwattr $C$DW$65, DW_AT_name("_PCA955x_setI2cHandle")
     296                      .dwattr $C$DW$65, DW_AT_TI_call
     297 0000000b 7640!         LCR       #_PCA955x_setI2cHandle ; [CPU_] |45| 
         0000000c 0000 
     298                      ; call occurs [#_PCA955x_setI2cHandle] ; [] |45| 
     299                      .dwpsn  file "D:/BM1000/sw/drivers/drvic/process_ctrl.c",line 50,column 3,is_stmt
     300 0000000d 8AA1          MOVL      XAR4,XAR1             ; [CPU_] |50| 
     301 0000000e 024A          MOVB      ACC,#74               ; [CPU_] |50| 
     302 0000000f DC18          ADDB      XAR4,#24              ; [CPU_] |50| 
     303              $C$DW$66        .dwtag  DW_TAG_TI_branch
     304                      .dwattr $C$DW$66, DW_AT_low_pc(0x00)
     305                      .dwattr $C$DW$66, DW_AT_name("_LDC1612_init")
     306                      .dwattr $C$DW$66, DW_AT_TI_call
     307 00000010 7640!         LCR       #_LDC1612_init        ; [CPU_] |50| 
         00000011 0000 
     308                      ; call occurs [#_LDC1612_init] ; [] |50| 
     309 00000012 D016          MOVB      XAR0,#22              ; [CPU_] |50| 
     310 00000013 A891          MOVL      *+XAR1[AR0],XAR4      ; [CPU_] |50| 
     311                      .dwpsn  file "D:/BM1000/sw/drivers/drvic/process_ctrl.c",line 52,column 3,is_stmt
     312 00000014 83C1          MOVL      XAR5,*+XAR1[0]        ; [CPU_] |52| 
     313 00000015 D090          MOVB      XAR0,#144             ; [CPU_] |52| 
     314 00000016 8395          MOVL      XAR5,*+XAR5[AR0]      ; [CPU_] |52| 
     315              $C$DW$67        .dwtag  DW_TAG_TI_branch
     316                      .dwattr $C$DW$67, DW_AT_low_pc(0x00)
     317                      .dwattr $C$DW$67, DW_AT_name("_LDC161x_setI2cHandle")
     318                      .dwattr $C$DW$67, DW_AT_TI_call
     319 00000017 7640!         LCR       #_LDC161x_setI2cHandle ; [CPU_] |52| 
         00000018 0000 
     320                      ; call occurs [#_LDC161x_setI2cHandle] ; [] |52| 
     321                      .dwpsn  file "D:/BM1000/sw/drivers/drvic/process_ctrl.c",line 53,column 3,is_stmt
     322 00000019 83C1          MOVL      XAR5,*+XAR1[0]        ; [CPU_] |53| 
     323 0000001a D016          MOVB      XAR0,#22              ; [CPU_] |53| 
     324 0000001b 8A91          MOVL      XAR4,*+XAR1[AR0]      ; [CPU_] |53| 
     325 0000001c D008          MOVB      XAR0,#8               ; [CPU_] |53| 
     326 0000001d 8395          MOVL      XAR5,*+XAR5[AR0]      ; [CPU_] |53| 
TMS320C2000 Assembler PC v6.2.5 Sat Sep 16 15:51:24 2017

Tools Copyright (c) 1996-2014 Texas Instruments Incorporated
C:\Users\wmj\AppData\Local\Temp\1274411                              PAGE    7

     327              $C$DW$68        .dwtag  DW_TAG_TI_branch
     328                      .dwattr $C$DW$68, DW_AT_low_pc(0x00)
     329                      .dwattr $C$DW$68, DW_AT_name("_LDC161x_setGpioHandle")
     330                      .dwattr $C$DW$68, DW_AT_TI_call
     331 0000001e 7640!         LCR       #_LDC161x_setGpioHandle ; [CPU_] |53| 
         0000001f 0000 
     332                      ; call occurs [#_LDC161x_setGpioHandle] ; [] |53| 
     333                      .dwpsn  file "D:/BM1000/sw/drivers/drvic/ldc1612.h",line 523,column 4,is_stmt
     334 00000020 D016          MOVB      XAR0,#22              ; [CPU_] |523| 
     335 00000021 8A91          MOVL      XAR4,*+XAR1[AR0]      ; [CPU_] |523| 
     336 00000022 8AE4          MOVL      XAR4,*+XAR4[4]        ; [CPU_] |523| 
     337 00000023 D041          MOVB      XAR0,#65              ; [CPU_] |523| 
     338                      .dwpsn  file "D:/BM1000/sw/drivers/drvic/process_ctrl.c",line 56,column 3,is_stmt
     339 00000024 0296          MOVB      ACC,#150              ; [CPU_] |56| 
     340                      .dwpsn  file "D:/BM1000/sw/drivers/drvic/ldc1612.h",line 523,column 4,is_stmt
     341 00000025 56BF          MOVB      *+XAR4[AR0],#42,UNC   ; [CPU_] |523| 
         00000026 2A94 
     342                      .dwpsn  file "D:/BM1000/sw/drivers/drvic/process_ctrl.c",line 56,column 3,is_stmt
     343 00000027 D016          MOVB      XAR0,#22              ; [CPU_] |56| 
     344 00000028 1E42          MOVL      *-SP[2],ACC           ; [CPU_] |56| 
     345 00000029 FF20          MOV       ACC,#15000            ; [CPU_] |56| 
         0000002a 3A98 
     346 0000002b 8A91          MOVL      XAR4,*+XAR1[AR0]      ; [CPU_] |56| 
     347              $C$DW$69        .dwtag  DW_TAG_TI_branch
     348                      .dwattr $C$DW$69, DW_AT_low_pc(0x00)
     349                      .dwattr $C$DW$69, DW_AT_name("_LDC161x_Kalman_init")
     350                      .dwattr $C$DW$69, DW_AT_TI_call
     351 0000002c 7640!         LCR       #_LDC161x_Kalman_init ; [CPU_] |56| 
         0000002d 0000 
     352                      ; call occurs [#_LDC161x_Kalman_init] ; [] |56| 
     353                      .dwpsn  file "D:/BM1000/sw/drivers/drvic/process_ctrl.c",line 58,column 3,is_stmt
     354 0000002e D016          MOVB      XAR0,#22              ; [CPU_] |58| 
     355 0000002f 8A91          MOVL      XAR4,*+XAR1[AR0]      ; [CPU_] |58| 
     356              $C$DW$70        .dwtag  DW_TAG_TI_branch
     357                      .dwattr $C$DW$70, DW_AT_low_pc(0x00)
     358                      .dwattr $C$DW$70, DW_AT_name("_LDC161x_ResetSensor")
     359                      .dwattr $C$DW$70, DW_AT_TI_call
     360 00000030 7640!         LCR       #_LDC161x_ResetSensor ; [CPU_] |58| 
         00000031 0000 
     361                      ; call occurs [#_LDC161x_ResetSensor] ; [] |58| 
     362                      .dwpsn  file "D:/BM1000/sw/drivers/drvic/process_ctrl.c",line 59,column 3,is_stmt
     363 00000032 D016          MOVB      XAR0,#22              ; [CPU_] |59| 
     364 00000033 8A91          MOVL      XAR4,*+XAR1[AR0]      ; [CPU_] |59| 
     365 00000034 9A00          MOVB      AL,#0                 ; [CPU_] |59| 
     366 00000035 28A8          MOV       AH,#65535             ; [CPU_] |59| 
         00000036 FFFF 
     367 00000037 8AE4          MOVL      XAR4,*+XAR4[4]        ; [CPU_] |59| 
     368              $C$DW$71        .dwtag  DW_TAG_TI_branch
     369                      .dwattr $C$DW$71, DW_AT_low_pc(0x00)
     370                      .dwattr $C$DW$71, DW_AT_name("_LDC161x_setRcount")
     371                      .dwattr $C$DW$71, DW_AT_TI_call
     372 00000038 7640!         LCR       #_LDC161x_setRcount   ; [CPU_] |59| 
         00000039 0000 
     373                      ; call occurs [#_LDC161x_setRcount] ; [] |59| 
     374                      .dwpsn  file "D:/BM1000/sw/drivers/drvic/process_ctrl.c",line 60,column 3,is_stmt
TMS320C2000 Assembler PC v6.2.5 Sat Sep 16 15:51:24 2017

Tools Copyright (c) 1996-2014 Texas Instruments Incorporated
C:\Users\wmj\AppData\Local\Temp\1274411                              PAGE    8

     375 0000003a D016          MOVB      XAR0,#22              ; [CPU_] |60| 
     376 0000003b 8A91          MOVL      XAR4,*+XAR1[AR0]      ; [CPU_] |60| 
     377 0000003c 9A00          MOVB      AL,#0                 ; [CPU_] |60| 
     378 0000003d 9B0A          MOVB      AH,#10                ; [CPU_] |60| 
     379 0000003e 8AE4          MOVL      XAR4,*+XAR4[4]        ; [CPU_] |60| 
     380              $C$DW$72        .dwtag  DW_TAG_TI_branch
     381                      .dwattr $C$DW$72, DW_AT_low_pc(0x00)
     382                      .dwattr $C$DW$72, DW_AT_name("_LDC161x_setSettleCnt")
     383                      .dwattr $C$DW$72, DW_AT_TI_call
     384 0000003f 7640!         LCR       #_LDC161x_setSettleCnt ; [CPU_] |60| 
         00000040 0000 
     385                      ; call occurs [#_LDC161x_setSettleCnt] ; [] |60| 
     386                      .dwpsn  file "D:/BM1000/sw/drivers/drvic/process_ctrl.c",line 61,column 3,is_stmt
     387 00000041 D016          MOVB      XAR0,#22              ; [CPU_] |61| 
     388 00000042 8A91          MOVL      XAR4,*+XAR1[AR0]      ; [CPU_] |61| 
     389 00000043 9A00          MOVB      AL,#0                 ; [CPU_] |61| 
     390 00000044 28A8          MOV       AH,#4097              ; [CPU_] |61| 
         00000045 1001 
     391 00000046 8AE4          MOVL      XAR4,*+XAR4[4]        ; [CPU_] |61| 
     392              $C$DW$73        .dwtag  DW_TAG_TI_branch
     393                      .dwattr $C$DW$73, DW_AT_low_pc(0x00)
     394                      .dwattr $C$DW$73, DW_AT_name("_LDC161x_setClkDivs")
     395                      .dwattr $C$DW$73, DW_AT_TI_call
     396 00000047 7640!         LCR       #_LDC161x_setClkDivs  ; [CPU_] |61| 
         00000048 0000 
     397                      ; call occurs [#_LDC161x_setClkDivs] ; [] |61| 
     398                      .dwpsn  file "D:/BM1000/sw/drivers/drvic/process_ctrl.c",line 62,column 3,is_stmt
     399 00000049 D016          MOVB      XAR0,#22              ; [CPU_] |62| 
     400 0000004a 8A91          MOVL      XAR4,*+XAR1[AR0]      ; [CPU_] |62| 
     401 0000004b 28A9          MOV       AL,#7169              ; [CPU_] |62| 
         0000004c 1C01 
     402 0000004d 8AE4          MOVL      XAR4,*+XAR4[4]        ; [CPU_] |62| 
     403              $C$DW$74        .dwtag  DW_TAG_TI_branch
     404                      .dwattr $C$DW$74, DW_AT_low_pc(0x00)
     405                      .dwattr $C$DW$74, DW_AT_name("_LDC161x_setConfig")
     406                      .dwattr $C$DW$74, DW_AT_TI_call
     407 0000004e 7640!         LCR       #_LDC161x_setConfig   ; [CPU_] |62| 
         0000004f 0000 
     408                      ; call occurs [#_LDC161x_setConfig] ; [] |62| 
     409                      .dwpsn  file "D:/BM1000/sw/drivers/drvic/process_ctrl.c",line 63,column 3,is_stmt
     410 00000050 D016          MOVB      XAR0,#22              ; [CPU_] |63| 
     411 00000051 8A91          MOVL      XAR4,*+XAR1[AR0]      ; [CPU_] |63| 
     412 00000052 28A9          MOV       AL,#524               ; [CPU_] |63| 
         00000053 020C 
     413 00000054 8AE4          MOVL      XAR4,*+XAR4[4]        ; [CPU_] |63| 
     414              $C$DW$75        .dwtag  DW_TAG_TI_branch
     415                      .dwattr $C$DW$75, DW_AT_low_pc(0x00)
     416                      .dwattr $C$DW$75, DW_AT_name("_LDC161x_setMuxConfig")
     417                      .dwattr $C$DW$75, DW_AT_TI_call
     418 00000055 7640!         LCR       #_LDC161x_setMuxConfig ; [CPU_] |63| 
         00000056 0000 
     419                      ; call occurs [#_LDC161x_setMuxConfig] ; [] |63| 
     420                      .dwpsn  file "D:/BM1000/sw/drivers/drvic/process_ctrl.c",line 65,column 3,is_stmt
     421 00000057 D016          MOVB      XAR0,#22              ; [CPU_] |65| 
     422 00000058 9A00          MOVB      AL,#0                 ; [CPU_] |65| 
TMS320C2000 Assembler PC v6.2.5 Sat Sep 16 15:51:24 2017

Tools Copyright (c) 1996-2014 Texas Instruments Incorporated
C:\Users\wmj\AppData\Local\Temp\1274411                              PAGE    9

     423 00000059 8A91          MOVL      XAR4,*+XAR1[AR0]      ; [CPU_] |65| 
     424              $C$DW$76        .dwtag  DW_TAG_TI_branch
     425                      .dwattr $C$DW$76, DW_AT_low_pc(0x00)
     426                      .dwattr $C$DW$76, DW_AT_name("_LDC161x_writeRcount")
     427                      .dwattr $C$DW$76, DW_AT_TI_call
     428 0000005a 7640!         LCR       #_LDC161x_writeRcount ; [CPU_] |65| 
         0000005b 0000 
     429                      ; call occurs [#_LDC161x_writeRcount] ; [] |65| 
     430                      .dwpsn  file "D:/BM1000/sw/drivers/drvic/process_ctrl.c",line 66,column 3,is_stmt
     431 0000005c D016          MOVB      XAR0,#22              ; [CPU_] |66| 
     432 0000005d 9A00          MOVB      AL,#0                 ; [CPU_] |66| 
     433 0000005e 8A91          MOVL      XAR4,*+XAR1[AR0]      ; [CPU_] |66| 
     434              $C$DW$77        .dwtag  DW_TAG_TI_branch
     435                      .dwattr $C$DW$77, DW_AT_low_pc(0x00)
     436                      .dwattr $C$DW$77, DW_AT_name("_LDC161x_writeSettleCnt")
     437                      .dwattr $C$DW$77, DW_AT_TI_call
     438 0000005f 7640!         LCR       #_LDC161x_writeSettleCnt ; [CPU_] |66| 
         00000060 0000 
     439                      ; call occurs [#_LDC161x_writeSettleCnt] ; [] |66| 
     440                      .dwpsn  file "D:/BM1000/sw/drivers/drvic/process_ctrl.c",line 67,column 3,is_stmt
     441 00000061 D016          MOVB      XAR0,#22              ; [CPU_] |67| 
     442 00000062 9A00          MOVB      AL,#0                 ; [CPU_] |67| 
     443 00000063 8A91          MOVL      XAR4,*+XAR1[AR0]      ; [CPU_] |67| 
     444              $C$DW$78        .dwtag  DW_TAG_TI_branch
     445                      .dwattr $C$DW$78, DW_AT_low_pc(0x00)
     446                      .dwattr $C$DW$78, DW_AT_name("_LDC161x_writeClkDivs")
     447                      .dwattr $C$DW$78, DW_AT_TI_call
     448 00000064 7640!         LCR       #_LDC161x_writeClkDivs ; [CPU_] |67| 
         00000065 0000 
     449                      ; call occurs [#_LDC161x_writeClkDivs] ; [] |67| 
     450                      .dwpsn  file "D:/BM1000/sw/drivers/drvic/process_ctrl.c",line 68,column 3,is_stmt
     451 00000066 D016          MOVB      XAR0,#22              ; [CPU_] |68| 
     452 00000067 8A91          MOVL      XAR4,*+XAR1[AR0]      ; [CPU_] |68| 
     453              $C$DW$79        .dwtag  DW_TAG_TI_branch
     454                      .dwattr $C$DW$79, DW_AT_low_pc(0x00)
     455                      .dwattr $C$DW$79, DW_AT_name("_LDC161x_writeConfig")
     456                      .dwattr $C$DW$79, DW_AT_TI_call
     457 00000068 7640!         LCR       #_LDC161x_writeConfig ; [CPU_] |68| 
         00000069 0000 
     458                      ; call occurs [#_LDC161x_writeConfig] ; [] |68| 
     459                      .dwpsn  file "D:/BM1000/sw/drivers/drvic/process_ctrl.c",line 69,column 3,is_stmt
     460 0000006a D016          MOVB      XAR0,#22              ; [CPU_] |69| 
     461 0000006b 8A91          MOVL      XAR4,*+XAR1[AR0]      ; [CPU_] |69| 
     462              $C$DW$80        .dwtag  DW_TAG_TI_branch
     463                      .dwattr $C$DW$80, DW_AT_low_pc(0x00)
     464                      .dwattr $C$DW$80, DW_AT_name("_LDC161x_writeMuxConfig")
     465                      .dwattr $C$DW$80, DW_AT_TI_call
     466 0000006c 7640!         LCR       #_LDC161x_writeMuxConfig ; [CPU_] |69| 
         0000006d 0000 
     467                      ; call occurs [#_LDC161x_writeMuxConfig] ; [] |69| 
     468                      .dwpsn  file "D:/BM1000/sw/drivers/drvic/process_ctrl.c",line 98,column 3,is_stmt
     469 0000006e 9A00          MOVB      AL,#0                 ; [CPU_] |98| 
     470 0000006f 9B00          MOVB      AH,#0                 ; [CPU_] |98| 
     471 00000070 8AD1          MOVL      XAR4,*+XAR1[2]        ; [CPU_] |98| 
     472              $C$DW$81        .dwtag  DW_TAG_TI_branch
TMS320C2000 Assembler PC v6.2.5 Sat Sep 16 15:51:24 2017

Tools Copyright (c) 1996-2014 Texas Instruments Incorporated
C:\Users\wmj\AppData\Local\Temp\1274411                              PAGE   10

     473                      .dwattr $C$DW$81, DW_AT_low_pc(0x00)
     474                      .dwattr $C$DW$81, DW_AT_name("_PCA955x_Configure")
     475                      .dwattr $C$DW$81, DW_AT_TI_call
     476 00000071 7640!         LCR       #_PCA955x_Configure   ; [CPU_] |98| 
         00000072 0000 
     477                      ; call occurs [#_PCA955x_Configure] ; [] |98| 
     478                      .dwpsn  file "D:/BM1000/sw/drivers/drvic/process_ctrl.c",line 99,column 3,is_stmt
     479 00000073 9A01          MOVB      AL,#1                 ; [CPU_] |99| 
     480 00000074 9BFF          MOVB      AH,#255               ; [CPU_] |99| 
     481 00000075 8AD1          MOVL      XAR4,*+XAR1[2]        ; [CPU_] |99| 
     482              $C$DW$82        .dwtag  DW_TAG_TI_branch
     483                      .dwattr $C$DW$82, DW_AT_low_pc(0x00)
     484                      .dwattr $C$DW$82, DW_AT_name("_PCA955x_Configure")
     485                      .dwattr $C$DW$82, DW_AT_TI_call
     486 00000076 7640!         LCR       #_PCA955x_Configure   ; [CPU_] |99| 
         00000077 0000 
     487                      ; call occurs [#_PCA955x_Configure] ; [] |99| 
     488                      .dwpsn  file "D:/BM1000/sw/drivers/drvic/process_ctrl.c",line 100,column 3,is_stmt
     489 00000078 9A00          MOVB      AL,#0                 ; [CPU_] |100| 
     490 00000079 9B50          MOVB      AH,#80                ; [CPU_] |100| 
     491 0000007a 8AD1          MOVL      XAR4,*+XAR1[2]        ; [CPU_] |100| 
     492              $C$DW$83        .dwtag  DW_TAG_TI_branch
     493                      .dwattr $C$DW$83, DW_AT_low_pc(0x00)
     494                      .dwattr $C$DW$83, DW_AT_name("_PCA955x_WriteCommand")
     495                      .dwattr $C$DW$83, DW_AT_TI_call
     496 0000007b 7640!         LCR       #_PCA955x_WriteCommand ; [CPU_] |100| 
         0000007c 0000 
     497                      ; call occurs [#_PCA955x_WriteCommand] ; [] |100| 
     498                      .dwpsn  file "D:/BM1000/sw/drivers/drvic/process_ctrl.c",line 101,column 3,is_stmt
     499 0000007d 9A00          MOVB      AL,#0                 ; [CPU_] |101| 
     500 0000007e 9B5C          MOVB      AH,#92                ; [CPU_] |101| 
     501 0000007f 8AD1          MOVL      XAR4,*+XAR1[2]        ; [CPU_] |101| 
     502              $C$DW$84        .dwtag  DW_TAG_TI_branch
     503                      .dwattr $C$DW$84, DW_AT_low_pc(0x00)
     504                      .dwattr $C$DW$84, DW_AT_name("_PCA955x_WriteCommand")
     505                      .dwattr $C$DW$84, DW_AT_TI_call
     506 00000080 7640!         LCR       #_PCA955x_WriteCommand ; [CPU_] |101| 
         00000081 0000 
     507                      ; call occurs [#_PCA955x_WriteCommand] ; [] |101| 
     508 00000082 FE82          SUBB      SP,#2                 ; [CPU_U] 
     509                      .dwcfi  cfa_offset, -4
     510 00000083 8BBE          MOVL      XAR1,*--SP            ; [CPU_] 
     511                      .dwcfi  cfa_offset, -2
     512                      .dwcfi  restore_reg, 7
     513              $C$DW$85        .dwtag  DW_TAG_TI_branch
     514                      .dwattr $C$DW$85, DW_AT_low_pc(0x00)
     515                      .dwattr $C$DW$85, DW_AT_TI_return
     516 00000084 0006          LRETR     ; [CPU_] 
     517                      ; return occurs ; [] 
     518                      .dwattr $C$DW$61, DW_AT_TI_end_file("D:/BM1000/sw/drivers/drvic/process_ctrl.c")
     519                      .dwattr $C$DW$61, DW_AT_TI_end_line(0x75)
     520                      .dwattr $C$DW$61, DW_AT_TI_end_column(0x01)
     521                      .dwendentry
     522                      .dwendtag $C$DW$61
     523              
TMS320C2000 Assembler PC v6.2.5 Sat Sep 16 15:51:24 2017

Tools Copyright (c) 1996-2014 Texas Instruments Incorporated
C:\Users\wmj\AppData\Local\Temp\1274411                              PAGE   11

     524 00000085               .sect   ".text"
     525                      .clink
     526                      .global _PROCTRL_setHalHandle
     527              
     528              $C$DW$86        .dwtag  DW_TAG_subprogram, DW_AT_name("PROCTRL_setHalHandle")
     529                      .dwattr $C$DW$86, DW_AT_low_pc(_PROCTRL_setHalHandle)
     530                      .dwattr $C$DW$86, DW_AT_high_pc(0x00)
     531                      .dwattr $C$DW$86, DW_AT_TI_symbol_name("_PROCTRL_setHalHandle")
     532                      .dwattr $C$DW$86, DW_AT_external
     533                      .dwattr $C$DW$86, DW_AT_TI_begin_file("D:/BM1000/sw/drivers/drvic/process_ctrl.c")
     534                      .dwattr $C$DW$86, DW_AT_TI_begin_line(0x1c)
     535                      .dwattr $C$DW$86, DW_AT_TI_begin_column(0x06)
     536                      .dwattr $C$DW$86, DW_AT_TI_max_frame_size(-2)
     537                      .dwpsn  file "D:/BM1000/sw/drivers/drvic/process_ctrl.c",line 29,column 1,is_stmt,address _PROCTRL_se
     538              
     539                      .dwfde $C$DW$CIE, _PROCTRL_setHalHandle
     540              $C$DW$87        .dwtag  DW_TAG_formal_parameter, DW_AT_name("handle")
     541                      .dwattr $C$DW$87, DW_AT_TI_symbol_name("_handle")
     542                      .dwattr $C$DW$87, DW_AT_type(*$C$DW$T$200)
     543                      .dwattr $C$DW$87, DW_AT_location[DW_OP_reg12]
     544              $C$DW$88        .dwtag  DW_TAG_formal_parameter, DW_AT_name("halHandle")
     545                      .dwattr $C$DW$88, DW_AT_TI_symbol_name("_halHandle")
     546                      .dwattr $C$DW$88, DW_AT_type(*$C$DW$T$157)
     547                      .dwattr $C$DW$88, DW_AT_location[DW_OP_reg14]
     548              
     549              ;***************************************************************
     550              ;* FNAME: _PROCTRL_setHalHandle         FR SIZE:   0           *
     551              ;*                                                             *
     552              ;* FUNCTION ENVIRONMENT                                        *
     553              ;*                                                             *
     554              ;* FUNCTION PROPERTIES                                         *
     555              ;*                            0 Parameter,  0 Auto,  0 SOE     *
     556              ;***************************************************************
     557              
     558              _PROCTRL_setHalHandle:
     559              ;* AR4   assigned to _handle
     560              $C$DW$89        .dwtag  DW_TAG_variable, DW_AT_name("handle")
     561                      .dwattr $C$DW$89, DW_AT_TI_symbol_name("_handle")
     562                      .dwattr $C$DW$89, DW_AT_type(*$C$DW$T$201)
     563                      .dwattr $C$DW$89, DW_AT_location[DW_OP_reg12]
     564              ;* AR5   assigned to _halHandle
     565              $C$DW$90        .dwtag  DW_TAG_variable, DW_AT_name("halHandle")
     566                      .dwattr $C$DW$90, DW_AT_TI_symbol_name("_halHandle")
     567                      .dwattr $C$DW$90, DW_AT_type(*$C$DW$T$187)
     568                      .dwattr $C$DW$90, DW_AT_location[DW_OP_reg14]
     569                      .dwcfi  cfa_offset, -2
     570                      .dwcfi  save_reg_to_mem, 26, 0
     571                      .dwcfi  save_reg_to_reg, 78, 26
     572                      .dwpsn  file "D:/BM1000/sw/drivers/drvic/process_ctrl.c",line 32,column 3,is_stmt
     573 00000085 A0C4          MOVL      *+XAR4[0],XAR5        ; [CPU_] |32| 
     574              $C$DW$91        .dwtag  DW_TAG_TI_branch
     575                      .dwattr $C$DW$91, DW_AT_low_pc(0x00)
     576                      .dwattr $C$DW$91, DW_AT_TI_return
     577 00000086 0006          LRETR     ; [CPU_] 
     578                      ; return occurs ; [] 
TMS320C2000 Assembler PC v6.2.5 Sat Sep 16 15:51:24 2017

Tools Copyright (c) 1996-2014 Texas Instruments Incorporated
C:\Users\wmj\AppData\Local\Temp\1274411                              PAGE   12

     579                      .dwattr $C$DW$86, DW_AT_TI_end_file("D:/BM1000/sw/drivers/drvic/process_ctrl.c")
     580                      .dwattr $C$DW$86, DW_AT_TI_end_line(0x23)
     581                      .dwattr $C$DW$86, DW_AT_TI_end_column(0x01)
     582                      .dwendentry
     583                      .dwendtag $C$DW$86
     584              
     585 00000087               .sect   ".text"
     586                      .clink
     587                      .global _PROCTRL_init
     588              
     589              $C$DW$92        .dwtag  DW_TAG_subprogram, DW_AT_name("PROCTRL_init")
     590                      .dwattr $C$DW$92, DW_AT_low_pc(_PROCTRL_init)
     591                      .dwattr $C$DW$92, DW_AT_high_pc(0x00)
     592                      .dwattr $C$DW$92, DW_AT_TI_symbol_name("_PROCTRL_init")
     593                      .dwattr $C$DW$92, DW_AT_external
     594                      .dwattr $C$DW$92, DW_AT_type(*$C$DW$T$200)
     595                      .dwattr $C$DW$92, DW_AT_TI_begin_file("D:/BM1000/sw/drivers/drvic/process_ctrl.c")
     596                      .dwattr $C$DW$92, DW_AT_TI_begin_line(0x0e)
     597                      .dwattr $C$DW$92, DW_AT_TI_begin_column(0x10)
     598                      .dwattr $C$DW$92, DW_AT_TI_max_frame_size(-2)
     599                      .dwpsn  file "D:/BM1000/sw/drivers/drvic/process_ctrl.c",line 15,column 1,is_stmt,address _PROCTRL_in
     600              
     601                      .dwfde $C$DW$CIE, _PROCTRL_init
     602              $C$DW$93        .dwtag  DW_TAG_formal_parameter, DW_AT_name("pMemory")
     603                      .dwattr $C$DW$93, DW_AT_TI_symbol_name("_pMemory")
     604                      .dwattr $C$DW$93, DW_AT_type(*$C$DW$T$3)
     605                      .dwattr $C$DW$93, DW_AT_location[DW_OP_reg12]
     606              $C$DW$94        .dwtag  DW_TAG_formal_parameter, DW_AT_name("numBytes")
     607                      .dwattr $C$DW$94, DW_AT_TI_symbol_name("_numBytes")
     608                      .dwattr $C$DW$94, DW_AT_type(*$C$DW$T$190)
     609                      .dwattr $C$DW$94, DW_AT_location[DW_OP_reg0]
     610              
     611              ;***************************************************************
     612              ;* FNAME: _PROCTRL_init                 FR SIZE:   0           *
     613              ;*                                                             *
     614              ;* FUNCTION ENVIRONMENT                                        *
     615              ;*                                                             *
     616              ;* FUNCTION PROPERTIES                                         *
     617              ;*                            0 Parameter,  0 Auto,  0 SOE     *
     618              ;***************************************************************
     619              
     620              _PROCTRL_init:
     621              ;* AR6   assigned to _numBytes
     622              $C$DW$95        .dwtag  DW_TAG_variable, DW_AT_name("numBytes")
     623                      .dwattr $C$DW$95, DW_AT_TI_symbol_name("_numBytes")
     624                      .dwattr $C$DW$95, DW_AT_type(*$C$DW$T$190)
     625                      .dwattr $C$DW$95, DW_AT_location[DW_OP_reg16]
     626              ;* AR4   assigned to _pMemory
     627              $C$DW$96        .dwtag  DW_TAG_variable, DW_AT_name("pMemory")
     628                      .dwattr $C$DW$96, DW_AT_TI_symbol_name("_pMemory")
     629                      .dwattr $C$DW$96, DW_AT_type(*$C$DW$T$205)
     630                      .dwattr $C$DW$96, DW_AT_location[DW_OP_reg12]
     631                      .dwcfi  cfa_offset, -2
     632                      .dwcfi  save_reg_to_mem, 26, 0
     633                      .dwcfi  save_reg_to_reg, 78, 26
TMS320C2000 Assembler PC v6.2.5 Sat Sep 16 15:51:24 2017

Tools Copyright (c) 1996-2014 Texas Instruments Incorporated
C:\Users\wmj\AppData\Local\Temp\1274411                              PAGE   13

     634 00000087 1EA6          MOVL      XAR6,ACC              ; [CPU_] |15| 
     635                      .dwpsn  file "D:/BM1000/sw/drivers/drvic/process_ctrl.c",line 20,column 6,is_stmt
     636 00000088 02E4          MOVB      ACC,#228              ; [CPU_] |20| 
     637 00000089 0FA6          CMPL      ACC,XAR6              ; [CPU_] |20| 
     638 0000008a 6902          B         $C$L1,LOS             ; [CPU_] |20| 
     639                      ; branchcc occurs ; [] |20| 
     640 0000008b D400          MOVB      XAR4,#0               ; [CPU_] |20| 
     641              $C$L1:    
     642              $C$DW$97        .dwtag  DW_TAG_TI_branch
     643                      .dwattr $C$DW$97, DW_AT_low_pc(0x00)
     644                      .dwattr $C$DW$97, DW_AT_TI_return
     645 0000008c 0006          LRETR     ; [CPU_] 
     646                      ; return occurs ; [] 
     647                      .dwattr $C$DW$92, DW_AT_TI_end_file("D:/BM1000/sw/drivers/drvic/process_ctrl.c")
     648                      .dwattr $C$DW$92, DW_AT_TI_end_line(0x1a)
     649                      .dwattr $C$DW$92, DW_AT_TI_end_column(0x01)
     650                      .dwendentry
     651                      .dwendtag $C$DW$92
     652              
     653              ;**************************************************************
     654              ;* UNDEFINED EXTERNAL REFERENCES                              *
     655              ;**************************************************************
     656                      .global _LDC161x_Kalman_init
     657                      .global _LDC161x_ResetSensor
     658                      .global _LDC161x_writeConfig
     659                      .global _LDC161x_writeMuxConfig
     660                      .global _PCA955x_WriteCommand
     661                      .global _PCA955x_setI2cHandle
     662                      .global _PCA955x_Configure
     663                      .global _LDC161x_setSettleCnt
     664                      .global _LDC161x_setClkDivs
     665                      .global _LDC161x_setGpioHandle
     666                      .global _LDC161x_setRcount
     667                      .global _LDC161x_setI2cHandle
     668                      .global _LDC161x_writeSettleCnt
     669                      .global _LDC161x_writeClkDivs
     670                      .global _LDC161x_writeRcount
     671                      .global _LDC161x_setConfig
     672                      .global _LDC161x_setMuxConfig
     673                      .global _LDC1612_init
     674                      .global _PCA955x_Init
     675              
     676              ;***************************************************************
     677              ;* TYPE INFORMATION                                            *
     678              ;***************************************************************
     679              
     680              $C$DW$T$41      .dwtag  DW_TAG_enumeration_type
     681                      .dwattr $C$DW$T$41, DW_AT_byte_size(0x01)
     682              $C$DW$98        .dwtag  DW_TAG_enumerator, DW_AT_name("GPIO_Number_0"), DW_AT_const_value(0x00)
     683              $C$DW$99        .dwtag  DW_TAG_enumerator, DW_AT_name("GPIO_Number_1"), DW_AT_const_value(0x01)
     684              $C$DW$100       .dwtag  DW_TAG_enumerator, DW_AT_name("GPIO_Number_2"), DW_AT_const_value(0x02)
     685              $C$DW$101       .dwtag  DW_TAG_enumerator, DW_AT_name("GPIO_Number_3"), DW_AT_const_value(0x03)
     686              $C$DW$102       .dwtag  DW_TAG_enumerator, DW_AT_name("GPIO_Number_4"), DW_AT_const_value(0x04)
     687              $C$DW$103       .dwtag  DW_TAG_enumerator, DW_AT_name("GPIO_Number_5"), DW_AT_const_value(0x05)
     688              $C$DW$104       .dwtag  DW_TAG_enumerator, DW_AT_name("GPIO_Number_6"), DW_AT_const_value(0x06)
TMS320C2000 Assembler PC v6.2.5 Sat Sep 16 15:51:24 2017

Tools Copyright (c) 1996-2014 Texas Instruments Incorporated
C:\Users\wmj\AppData\Local\Temp\1274411                              PAGE   14

     689              $C$DW$105       .dwtag  DW_TAG_enumerator, DW_AT_name("GPIO_Number_7"), DW_AT_const_value(0x07)
     690              $C$DW$106       .dwtag  DW_TAG_enumerator, DW_AT_name("GPIO_Rsvd_8"), DW_AT_const_value(0x08)
     691              $C$DW$107       .dwtag  DW_TAG_enumerator, DW_AT_name("GPIO_Rsvd_9"), DW_AT_const_value(0x09)
     692              $C$DW$108       .dwtag  DW_TAG_enumerator, DW_AT_name("GPIO_Rsvd_10"), DW_AT_const_value(0x0a)
     693              $C$DW$109       .dwtag  DW_TAG_enumerator, DW_AT_name("GPIO_Rsvd_11"), DW_AT_const_value(0x0b)
     694              $C$DW$110       .dwtag  DW_TAG_enumerator, DW_AT_name("GPIO_Number_12"), DW_AT_const_value(0x0c)
     695              $C$DW$111       .dwtag  DW_TAG_enumerator, DW_AT_name("GPIO_Rsvd_13"), DW_AT_const_value(0x0d)
     696              $C$DW$112       .dwtag  DW_TAG_enumerator, DW_AT_name("GPIO_Rsvd_14"), DW_AT_const_value(0x0e)
     697              $C$DW$113       .dwtag  DW_TAG_enumerator, DW_AT_name("GPIO_Rsvd_15"), DW_AT_const_value(0x0f)
     698              $C$DW$114       .dwtag  DW_TAG_enumerator, DW_AT_name("GPIO_Number_16"), DW_AT_const_value(0x10)
     699              $C$DW$115       .dwtag  DW_TAG_enumerator, DW_AT_name("GPIO_Number_17"), DW_AT_const_value(0x11)
     700              $C$DW$116       .dwtag  DW_TAG_enumerator, DW_AT_name("GPIO_Number_18"), DW_AT_const_value(0x12)
     701              $C$DW$117       .dwtag  DW_TAG_enumerator, DW_AT_name("GPIO_Number_19"), DW_AT_const_value(0x13)
     702              $C$DW$118       .dwtag  DW_TAG_enumerator, DW_AT_name("GPIO_Rsvd_20"), DW_AT_const_value(0x14)
     703              $C$DW$119       .dwtag  DW_TAG_enumerator, DW_AT_name("GPIO_Rsvd_21"), DW_AT_const_value(0x15)
     704              $C$DW$120       .dwtag  DW_TAG_enumerator, DW_AT_name("GPIO_Rsvd_22"), DW_AT_const_value(0x16)
     705              $C$DW$121       .dwtag  DW_TAG_enumerator, DW_AT_name("GPIO_Rsvd_23"), DW_AT_const_value(0x17)
     706              $C$DW$122       .dwtag  DW_TAG_enumerator, DW_AT_name("GPIO_Rsvd_24"), DW_AT_const_value(0x18)
     707              $C$DW$123       .dwtag  DW_TAG_enumerator, DW_AT_name("GPIO_Rsvd_25"), DW_AT_const_value(0x19)
     708              $C$DW$124       .dwtag  DW_TAG_enumerator, DW_AT_name("GPIO_Rsvd_26"), DW_AT_const_value(0x1a)
     709              $C$DW$125       .dwtag  DW_TAG_enumerator, DW_AT_name("GPIO_Rsvd_27"), DW_AT_const_value(0x1b)
     710              $C$DW$126       .dwtag  DW_TAG_enumerator, DW_AT_name("GPIO_Number_28"), DW_AT_const_value(0x1c)
     711              $C$DW$127       .dwtag  DW_TAG_enumerator, DW_AT_name("GPIO_Number_29"), DW_AT_const_value(0x1d)
     712              $C$DW$128       .dwtag  DW_TAG_enumerator, DW_AT_name("GPIO_Rsvd_30"), DW_AT_const_value(0x1e)
     713              $C$DW$129       .dwtag  DW_TAG_enumerator, DW_AT_name("GPIO_Rsvd_31"), DW_AT_const_value(0x1f)
     714              $C$DW$130       .dwtag  DW_TAG_enumerator, DW_AT_name("GPIO_Number_32"), DW_AT_const_value(0x20)
     715              $C$DW$131       .dwtag  DW_TAG_enumerator, DW_AT_name("GPIO_Number_33"), DW_AT_const_value(0x21)
     716              $C$DW$132       .dwtag  DW_TAG_enumerator, DW_AT_name("GPIO_Number_34"), DW_AT_const_value(0x22)
     717              $C$DW$133       .dwtag  DW_TAG_enumerator, DW_AT_name("GPIO_Number_35"), DW_AT_const_value(0x23)
     718              $C$DW$134       .dwtag  DW_TAG_enumerator, DW_AT_name("GPIO_Number_36"), DW_AT_const_value(0x24)
     719              $C$DW$135       .dwtag  DW_TAG_enumerator, DW_AT_name("GPIO_Number_37"), DW_AT_const_value(0x25)
     720              $C$DW$136       .dwtag  DW_TAG_enumerator, DW_AT_name("GPIO_Number_38"), DW_AT_const_value(0x26)
     721              $C$DW$137       .dwtag  DW_TAG_enumerator, DW_AT_name("GPIO_numGpios"), DW_AT_const_value(0x27)
     722                      .dwendtag $C$DW$T$41
     723              
     724              $C$DW$T$42      .dwtag  DW_TAG_typedef, DW_AT_name("GPIO_Number_e")
     725                      .dwattr $C$DW$T$42, DW_AT_type(*$C$DW$T$41)
     726                      .dwattr $C$DW$T$42, DW_AT_language(DW_LANG_C)
     727              
     728              $C$DW$T$90      .dwtag  DW_TAG_enumeration_type
     729                      .dwattr $C$DW$T$90, DW_AT_byte_size(0x01)
     730              $C$DW$138       .dwtag  DW_TAG_enumerator, DW_AT_name("HAL_BoardAddr_Motor1"), DW_AT_const_value(0x00)
     731              $C$DW$139       .dwtag  DW_TAG_enumerator, DW_AT_name("HAL_BoardAddr_Motor2"), DW_AT_const_value(0x01)
     732              $C$DW$140       .dwtag  DW_TAG_enumerator, DW_AT_name("HAL_BoardAddr_Motor3"), DW_AT_const_value(0x02)
     733              $C$DW$141       .dwtag  DW_TAG_enumerator, DW_AT_name("HAL_BoardAddr_Motor4"), DW_AT_const_value(0x03)
     734              $C$DW$142       .dwtag  DW_TAG_enumerator, DW_AT_name("HAL_BoardAddr_Motor5"), DW_AT_const_value(0x04)
     735              $C$DW$143       .dwtag  DW_TAG_enumerator, DW_AT_name("HAL_BoardAddr_Motor6"), DW_AT_const_value(0x05)
     736              $C$DW$144       .dwtag  DW_TAG_enumerator, DW_AT_name("HAL_BoardAddr_Motor7"), DW_AT_const_value(0x06)
     737              $C$DW$145       .dwtag  DW_TAG_enumerator, DW_AT_name("HAL_BoardAddr_Heater"), DW_AT_const_value(0x07)
     738              $C$DW$146       .dwtag  DW_TAG_enumerator, DW_AT_name("HAL_BoardAddr_OpenLoop"), DW_AT_const_value(0x08)
     739              $C$DW$147       .dwtag  DW_TAG_enumerator, DW_AT_name("HAL_BoardAddr_Short"), DW_AT_const_value(0x09)
     740                      .dwendtag $C$DW$T$90
     741              
     742              $C$DW$T$91      .dwtag  DW_TAG_typedef, DW_AT_name("HAL_BdAddr_e")
     743                      .dwattr $C$DW$T$91, DW_AT_type(*$C$DW$T$90)
TMS320C2000 Assembler PC v6.2.5 Sat Sep 16 15:51:24 2017

Tools Copyright (c) 1996-2014 Texas Instruments Incorporated
C:\Users\wmj\AppData\Local\Temp\1274411                              PAGE   15

     744                      .dwattr $C$DW$T$91, DW_AT_language(DW_LANG_C)
     745              
     746              $C$DW$T$116     .dwtag  DW_TAG_enumeration_type
     747                      .dwattr $C$DW$T$116, DW_AT_byte_size(0x01)
     748              $C$DW$148       .dwtag  DW_TAG_enumerator, DW_AT_name("LDC_Type_1612"), DW_AT_const_value(0x00)
     749              $C$DW$149       .dwtag  DW_TAG_enumerator, DW_AT_name("LDC_Type_1614"), DW_AT_const_value(0x01)
     750                      .dwendtag $C$DW$T$116
     751              
     752              $C$DW$T$117     .dwtag  DW_TAG_typedef, DW_AT_name("LDC_SensorType_e")
     753                      .dwattr $C$DW$T$117, DW_AT_type(*$C$DW$T$116)
     754                      .dwattr $C$DW$T$117, DW_AT_language(DW_LANG_C)
     755              
     756              $C$DW$T$118     .dwtag  DW_TAG_enumeration_type
     757                      .dwattr $C$DW$T$118, DW_AT_byte_size(0x01)
     758              $C$DW$150       .dwtag  DW_TAG_enumerator, DW_AT_name("LDC161x_Slave_Addr0"), DW_AT_const_value(0x2a)
     759              $C$DW$151       .dwtag  DW_TAG_enumerator, DW_AT_name("LDC161x_Slave_Addr1"), DW_AT_const_value(0x2b)
     760                      .dwendtag $C$DW$T$118
     761              
     762              $C$DW$T$119     .dwtag  DW_TAG_typedef, DW_AT_name("LDC_SensorSerial_e")
     763                      .dwattr $C$DW$T$119, DW_AT_type(*$C$DW$T$118)
     764                      .dwattr $C$DW$T$119, DW_AT_language(DW_LANG_C)
     765              
     766              $C$DW$T$134     .dwtag  DW_TAG_enumeration_type
     767                      .dwattr $C$DW$T$134, DW_AT_byte_size(0x01)
     768              $C$DW$152       .dwtag  DW_TAG_enumerator, DW_AT_name("OLED_CMD"), DW_AT_const_value(0x00)
     769              $C$DW$153       .dwtag  DW_TAG_enumerator, DW_AT_name("OLED_DATA"), DW_AT_const_value(0x01)
     770                      .dwendtag $C$DW$T$134
     771              
     772              $C$DW$T$135     .dwtag  DW_TAG_typedef, DW_AT_name("OLED_TxType_e")
     773                      .dwattr $C$DW$T$135, DW_AT_type(*$C$DW$T$134)
     774                      .dwattr $C$DW$T$135, DW_AT_language(DW_LANG_C)
     775              
     776              $C$DW$T$170     .dwtag  DW_TAG_enumeration_type
     777                      .dwattr $C$DW$T$170, DW_AT_byte_size(0x01)
     778              $C$DW$154       .dwtag  DW_TAG_enumerator, DW_AT_name("PROCTRL_State_IDLE"), DW_AT_const_value(0x00)
     779              $C$DW$155       .dwtag  DW_TAG_enumerator, DW_AT_name("PROCTRL_State_EditLow"), DW_AT_const_value(0x01)
     780              $C$DW$156       .dwtag  DW_TAG_enumerator, DW_AT_name("PROCTRL_State_EditHigh"), DW_AT_const_value(0x02)
     781              $C$DW$157       .dwtag  DW_TAG_enumerator, DW_AT_name("PROCTRL_State_EditReturn"), DW_AT_const_value(0x03)
     782              $C$DW$158       .dwtag  DW_TAG_enumerator, DW_AT_name("PROCTRL_State_NormalLow"), DW_AT_const_value(0x04)
     783              $C$DW$159       .dwtag  DW_TAG_enumerator, DW_AT_name("PROCTRL_State_NormHiSped"), DW_AT_const_value(0x05)
     784              $C$DW$160       .dwtag  DW_TAG_enumerator, DW_AT_name("PROCTRL_State_NormDecle"), DW_AT_const_value(0x06)
     785              $C$DW$161       .dwtag  DW_TAG_enumerator, DW_AT_name("PROCTRL_State_NormDecle1"), DW_AT_const_value(0x07)
     786              $C$DW$162       .dwtag  DW_TAG_enumerator, DW_AT_name("PROCTRL_State_NormSlow"), DW_AT_const_value(0x08)
     787              $C$DW$163       .dwtag  DW_TAG_enumerator, DW_AT_name("PROCTRL_State_NormAccele"), DW_AT_const_value(0x09)
     788              $C$DW$164       .dwtag  DW_TAG_enumerator, DW_AT_name("PROCTRL_State_NormSate"), DW_AT_const_value(0x0a)
     789              $C$DW$165       .dwtag  DW_TAG_enumerator, DW_AT_name("PROCTRL_State_NormReturn"), DW_AT_const_value(0x0b)
     790              $C$DW$166       .dwtag  DW_TAG_enumerator, DW_AT_name("PROCTRL_State_NormSlow2"), DW_AT_const_value(0x0c)
     791              $C$DW$167       .dwtag  DW_TAG_enumerator, DW_AT_name("PROCTRL_State_NormStop"), DW_AT_const_value(0x0d)
     792              $C$DW$168       .dwtag  DW_TAG_enumerator, DW_AT_name("PROCTRL_State_NormRegulate"), DW_AT_const_value(0x0e)
     793              $C$DW$169       .dwtag  DW_TAG_enumerator, DW_AT_name("PROCTRL_State_ReturnStop"), DW_AT_const_value(0x0f)
     794                      .dwendtag $C$DW$T$170
     795              
     796              $C$DW$T$171     .dwtag  DW_TAG_typedef, DW_AT_name("PROCTRL_State_e")
     797                      .dwattr $C$DW$T$171, DW_AT_type(*$C$DW$T$170)
     798                      .dwattr $C$DW$T$171, DW_AT_language(DW_LANG_C)
TMS320C2000 Assembler PC v6.2.5 Sat Sep 16 15:51:24 2017

Tools Copyright (c) 1996-2014 Texas Instruments Incorporated
C:\Users\wmj\AppData\Local\Temp\1274411                              PAGE   16

     799              
     800              $C$DW$T$183     .dwtag  DW_TAG_enumeration_type
     801                      .dwattr $C$DW$T$183, DW_AT_byte_size(0x01)
     802              $C$DW$170       .dwtag  DW_TAG_enumerator, DW_AT_name("LDC161x_ChNum_CH0"), DW_AT_const_value(0x00)
     803              $C$DW$171       .dwtag  DW_TAG_enumerator, DW_AT_name("LDC161x_ChNum_CH1"), DW_AT_const_value(0x01)
     804              $C$DW$172       .dwtag  DW_TAG_enumerator, DW_AT_name("LDC161x_ChNum_CH2"), DW_AT_const_value(0x02)
     805              $C$DW$173       .dwtag  DW_TAG_enumerator, DW_AT_name("LDC161x_ChNum_CH3"), DW_AT_const_value(0x03)
     806                      .dwendtag $C$DW$T$183
     807              
     808              $C$DW$T$184     .dwtag  DW_TAG_typedef, DW_AT_name("LDC161x_ChNum_e")
     809                      .dwattr $C$DW$T$184, DW_AT_type(*$C$DW$T$183)
     810                      .dwattr $C$DW$T$184, DW_AT_language(DW_LANG_C)
     811              
     812              $C$DW$T$185     .dwtag  DW_TAG_enumeration_type
     813                      .dwattr $C$DW$T$185, DW_AT_byte_size(0x01)
     814              $C$DW$174       .dwtag  DW_TAG_enumerator, DW_AT_name("PCA955x_PortNum_Port0"), DW_AT_const_value(0x00)
     815              $C$DW$175       .dwtag  DW_TAG_enumerator, DW_AT_name("PCA955x_PortNum_Port1"), DW_AT_const_value(0x01)
     816                      .dwendtag $C$DW$T$185
     817              
     818              $C$DW$T$186     .dwtag  DW_TAG_typedef, DW_AT_name("PCA955x_PortNum_e")
     819                      .dwattr $C$DW$T$186, DW_AT_type(*$C$DW$T$185)
     820                      .dwattr $C$DW$T$186, DW_AT_language(DW_LANG_C)
     821              
     822              $C$DW$T$19      .dwtag  DW_TAG_structure_type
     823                      .dwattr $C$DW$T$19, DW_AT_name("I2C_Obj")
     824                      .dwattr $C$DW$T$19, DW_AT_declaration
     825                      .dwendtag $C$DW$T$19
     826              
     827              $C$DW$T$83      .dwtag  DW_TAG_pointer_type
     828                      .dwattr $C$DW$T$83, DW_AT_type(*$C$DW$T$19)
     829                      .dwattr $C$DW$T$83, DW_AT_address_class(0x16)
     830              $C$DW$T$84      .dwtag  DW_TAG_typedef, DW_AT_name("I2C_Handle")
     831                      .dwattr $C$DW$T$84, DW_AT_type(*$C$DW$T$83)
     832                      .dwattr $C$DW$T$84, DW_AT_language(DW_LANG_C)
     833              
     834              $C$DW$T$20      .dwtag  DW_TAG_structure_type
     835                      .dwattr $C$DW$T$20, DW_AT_name("LDC161x_REG_Obj")
     836                      .dwattr $C$DW$T$20, DW_AT_declaration
     837                      .dwendtag $C$DW$T$20
     838              
     839              $C$DW$T$100     .dwtag  DW_TAG_pointer_type
     840                      .dwattr $C$DW$T$100, DW_AT_type(*$C$DW$T$20)
     841                      .dwattr $C$DW$T$100, DW_AT_address_class(0x16)
     842              $C$DW$T$101     .dwtag  DW_TAG_typedef, DW_AT_name("LDC_Handle")
     843                      .dwattr $C$DW$T$101, DW_AT_type(*$C$DW$T$100)
     844                      .dwattr $C$DW$T$101, DW_AT_language(DW_LANG_C)
     845              
     846              $C$DW$T$31      .dwtag  DW_TAG_structure_type
     847                      .dwattr $C$DW$T$31, DW_AT_name("_ADC_Obj_")
     848                      .dwattr $C$DW$T$31, DW_AT_byte_size(0x6650)
     849              $C$DW$176       .dwtag  DW_TAG_member
     850                      .dwattr $C$DW$176, DW_AT_type(*$C$DW$T$25)
     851                      .dwattr $C$DW$176, DW_AT_name("ADCRESULT")
     852                      .dwattr $C$DW$176, DW_AT_TI_symbol_name("_ADCRESULT")
     853                      .dwattr $C$DW$176, DW_AT_data_member_location[DW_OP_plus_uconst 0x0]
TMS320C2000 Assembler PC v6.2.5 Sat Sep 16 15:51:24 2017

Tools Copyright (c) 1996-2014 Texas Instruments Incorporated
C:\Users\wmj\AppData\Local\Temp\1274411                              PAGE   17

     854                      .dwattr $C$DW$176, DW_AT_accessibility(DW_ACCESS_public)
     855              $C$DW$177       .dwtag  DW_TAG_member
     856                      .dwattr $C$DW$177, DW_AT_type(*$C$DW$T$26)
     857                      .dwattr $C$DW$177, DW_AT_name("resvd_1")
     858                      .dwattr $C$DW$177, DW_AT_TI_symbol_name("_resvd_1")
     859                      .dwattr $C$DW$177, DW_AT_data_member_location[DW_OP_plus_uconst 0x10]
     860                      .dwattr $C$DW$177, DW_AT_accessibility(DW_ACCESS_public)
     861              $C$DW$178       .dwtag  DW_TAG_member
     862                      .dwattr $C$DW$178, DW_AT_type(*$C$DW$T$24)
     863                      .dwattr $C$DW$178, DW_AT_name("ADCCTL1")
     864                      .dwattr $C$DW$178, DW_AT_TI_symbol_name("_ADCCTL1")
     865                      .dwattr $C$DW$178, DW_AT_data_member_location[DW_OP_plus_uconst 0x6600]
     866                      .dwattr $C$DW$178, DW_AT_accessibility(DW_ACCESS_public)
     867              $C$DW$179       .dwtag  DW_TAG_member
     868                      .dwattr $C$DW$179, DW_AT_type(*$C$DW$T$24)
     869                      .dwattr $C$DW$179, DW_AT_name("ADCCTL2")
     870                      .dwattr $C$DW$179, DW_AT_TI_symbol_name("_ADCCTL2")
     871                      .dwattr $C$DW$179, DW_AT_data_member_location[DW_OP_plus_uconst 0x6601]
     872                      .dwattr $C$DW$179, DW_AT_accessibility(DW_ACCESS_public)
     873              $C$DW$180       .dwtag  DW_TAG_member
     874                      .dwattr $C$DW$180, DW_AT_type(*$C$DW$T$27)
     875                      .dwattr $C$DW$180, DW_AT_name("rsvd_2")
     876                      .dwattr $C$DW$180, DW_AT_TI_symbol_name("_rsvd_2")
     877                      .dwattr $C$DW$180, DW_AT_data_member_location[DW_OP_plus_uconst 0x6602]
     878                      .dwattr $C$DW$180, DW_AT_accessibility(DW_ACCESS_public)
     879              $C$DW$181       .dwtag  DW_TAG_member
     880                      .dwattr $C$DW$181, DW_AT_type(*$C$DW$T$24)
     881                      .dwattr $C$DW$181, DW_AT_name("ADCINTFLG")
     882                      .dwattr $C$DW$181, DW_AT_TI_symbol_name("_ADCINTFLG")
     883                      .dwattr $C$DW$181, DW_AT_data_member_location[DW_OP_plus_uconst 0x6604]
     884                      .dwattr $C$DW$181, DW_AT_accessibility(DW_ACCESS_public)
     885              $C$DW$182       .dwtag  DW_TAG_member
     886                      .dwattr $C$DW$182, DW_AT_type(*$C$DW$T$24)
     887                      .dwattr $C$DW$182, DW_AT_name("ADCINTFLGCLR")
     888                      .dwattr $C$DW$182, DW_AT_TI_symbol_name("_ADCINTFLGCLR")
     889                      .dwattr $C$DW$182, DW_AT_data_member_location[DW_OP_plus_uconst 0x6605]
     890                      .dwattr $C$DW$182, DW_AT_accessibility(DW_ACCESS_public)
     891              $C$DW$183       .dwtag  DW_TAG_member
     892                      .dwattr $C$DW$183, DW_AT_type(*$C$DW$T$24)
     893                      .dwattr $C$DW$183, DW_AT_name("ADCINTOVF")
     894                      .dwattr $C$DW$183, DW_AT_TI_symbol_name("_ADCINTOVF")
     895                      .dwattr $C$DW$183, DW_AT_data_member_location[DW_OP_plus_uconst 0x6606]
     896                      .dwattr $C$DW$183, DW_AT_accessibility(DW_ACCESS_public)
     897              $C$DW$184       .dwtag  DW_TAG_member
     898                      .dwattr $C$DW$184, DW_AT_type(*$C$DW$T$24)
     899                      .dwattr $C$DW$184, DW_AT_name("ADCINTOVFCLR")
     900                      .dwattr $C$DW$184, DW_AT_TI_symbol_name("_ADCINTOVFCLR")
     901                      .dwattr $C$DW$184, DW_AT_data_member_location[DW_OP_plus_uconst 0x6607]
     902                      .dwattr $C$DW$184, DW_AT_accessibility(DW_ACCESS_public)
     903              $C$DW$185       .dwtag  DW_TAG_member
     904                      .dwattr $C$DW$185, DW_AT_type(*$C$DW$T$28)
     905                      .dwattr $C$DW$185, DW_AT_name("INTSELxNy")
     906                      .dwattr $C$DW$185, DW_AT_TI_symbol_name("_INTSELxNy")
     907                      .dwattr $C$DW$185, DW_AT_data_member_location[DW_OP_plus_uconst 0x6608]
     908                      .dwattr $C$DW$185, DW_AT_accessibility(DW_ACCESS_public)
TMS320C2000 Assembler PC v6.2.5 Sat Sep 16 15:51:24 2017

Tools Copyright (c) 1996-2014 Texas Instruments Incorporated
C:\Users\wmj\AppData\Local\Temp\1274411                              PAGE   18

     909              $C$DW$186       .dwtag  DW_TAG_member
     910                      .dwattr $C$DW$186, DW_AT_type(*$C$DW$T$29)
     911                      .dwattr $C$DW$186, DW_AT_name("rsvd_3")
     912                      .dwattr $C$DW$186, DW_AT_TI_symbol_name("_rsvd_3")
     913                      .dwattr $C$DW$186, DW_AT_data_member_location[DW_OP_plus_uconst 0x660d]
     914                      .dwattr $C$DW$186, DW_AT_accessibility(DW_ACCESS_public)
     915              $C$DW$187       .dwtag  DW_TAG_member
     916                      .dwattr $C$DW$187, DW_AT_type(*$C$DW$T$24)
     917                      .dwattr $C$DW$187, DW_AT_name("SOCPRICTRL")
     918                      .dwattr $C$DW$187, DW_AT_TI_symbol_name("_SOCPRICTRL")
     919                      .dwattr $C$DW$187, DW_AT_data_member_location[DW_OP_plus_uconst 0x6610]
     920                      .dwattr $C$DW$187, DW_AT_accessibility(DW_ACCESS_public)
     921              $C$DW$188       .dwtag  DW_TAG_member
     922                      .dwattr $C$DW$188, DW_AT_type(*$C$DW$T$24)
     923                      .dwattr $C$DW$188, DW_AT_name("rsvd_4")
     924                      .dwattr $C$DW$188, DW_AT_TI_symbol_name("_rsvd_4")
     925                      .dwattr $C$DW$188, DW_AT_data_member_location[DW_OP_plus_uconst 0x6611]
     926                      .dwattr $C$DW$188, DW_AT_accessibility(DW_ACCESS_public)
     927              $C$DW$189       .dwtag  DW_TAG_member
     928                      .dwattr $C$DW$189, DW_AT_type(*$C$DW$T$24)
     929                      .dwattr $C$DW$189, DW_AT_name("ADCSAMPLEMODE")
     930                      .dwattr $C$DW$189, DW_AT_TI_symbol_name("_ADCSAMPLEMODE")
     931                      .dwattr $C$DW$189, DW_AT_data_member_location[DW_OP_plus_uconst 0x6612]
     932                      .dwattr $C$DW$189, DW_AT_accessibility(DW_ACCESS_public)
     933              $C$DW$190       .dwtag  DW_TAG_member
     934                      .dwattr $C$DW$190, DW_AT_type(*$C$DW$T$24)
     935                      .dwattr $C$DW$190, DW_AT_name("rsvd_5")
     936                      .dwattr $C$DW$190, DW_AT_TI_symbol_name("_rsvd_5")
     937                      .dwattr $C$DW$190, DW_AT_data_member_location[DW_OP_plus_uconst 0x6613]
     938                      .dwattr $C$DW$190, DW_AT_accessibility(DW_ACCESS_public)
     939              $C$DW$191       .dwtag  DW_TAG_member
     940                      .dwattr $C$DW$191, DW_AT_type(*$C$DW$T$24)
     941                      .dwattr $C$DW$191, DW_AT_name("ADCINTSOCSEL1")
     942                      .dwattr $C$DW$191, DW_AT_TI_symbol_name("_ADCINTSOCSEL1")
     943                      .dwattr $C$DW$191, DW_AT_data_member_location[DW_OP_plus_uconst 0x6614]
     944                      .dwattr $C$DW$191, DW_AT_accessibility(DW_ACCESS_public)
     945              $C$DW$192       .dwtag  DW_TAG_member
     946                      .dwattr $C$DW$192, DW_AT_type(*$C$DW$T$24)
     947                      .dwattr $C$DW$192, DW_AT_name("ADCINTSOCSEL2")
     948                      .dwattr $C$DW$192, DW_AT_TI_symbol_name("_ADCINTSOCSEL2")
     949                      .dwattr $C$DW$192, DW_AT_data_member_location[DW_OP_plus_uconst 0x6615]
     950                      .dwattr $C$DW$192, DW_AT_accessibility(DW_ACCESS_public)
     951              $C$DW$193       .dwtag  DW_TAG_member
     952                      .dwattr $C$DW$193, DW_AT_type(*$C$DW$T$27)
     953                      .dwattr $C$DW$193, DW_AT_name("rsvd_6")
     954                      .dwattr $C$DW$193, DW_AT_TI_symbol_name("_rsvd_6")
     955                      .dwattr $C$DW$193, DW_AT_data_member_location[DW_OP_plus_uconst 0x6616]
     956                      .dwattr $C$DW$193, DW_AT_accessibility(DW_ACCESS_public)
     957              $C$DW$194       .dwtag  DW_TAG_member
     958                      .dwattr $C$DW$194, DW_AT_type(*$C$DW$T$24)
     959                      .dwattr $C$DW$194, DW_AT_name("ADCSOCFLG1")
     960                      .dwattr $C$DW$194, DW_AT_TI_symbol_name("_ADCSOCFLG1")
     961                      .dwattr $C$DW$194, DW_AT_data_member_location[DW_OP_plus_uconst 0x6618]
     962                      .dwattr $C$DW$194, DW_AT_accessibility(DW_ACCESS_public)
     963              $C$DW$195       .dwtag  DW_TAG_member
TMS320C2000 Assembler PC v6.2.5 Sat Sep 16 15:51:24 2017

Tools Copyright (c) 1996-2014 Texas Instruments Incorporated
C:\Users\wmj\AppData\Local\Temp\1274411                              PAGE   19

     964                      .dwattr $C$DW$195, DW_AT_type(*$C$DW$T$24)
     965                      .dwattr $C$DW$195, DW_AT_name("rsvd_7")
     966                      .dwattr $C$DW$195, DW_AT_TI_symbol_name("_rsvd_7")
     967                      .dwattr $C$DW$195, DW_AT_data_member_location[DW_OP_plus_uconst 0x6619]
     968                      .dwattr $C$DW$195, DW_AT_accessibility(DW_ACCESS_public)
     969              $C$DW$196       .dwtag  DW_TAG_member
     970                      .dwattr $C$DW$196, DW_AT_type(*$C$DW$T$24)
     971                      .dwattr $C$DW$196, DW_AT_name("ADCSOCFRC1")
     972                      .dwattr $C$DW$196, DW_AT_TI_symbol_name("_ADCSOCFRC1")
     973                      .dwattr $C$DW$196, DW_AT_data_member_location[DW_OP_plus_uconst 0x661a]
     974                      .dwattr $C$DW$196, DW_AT_accessibility(DW_ACCESS_public)
     975              $C$DW$197       .dwtag  DW_TAG_member
     976                      .dwattr $C$DW$197, DW_AT_type(*$C$DW$T$24)
     977                      .dwattr $C$DW$197, DW_AT_name("rsvd_8")
     978                      .dwattr $C$DW$197, DW_AT_TI_symbol_name("_rsvd_8")
     979                      .dwattr $C$DW$197, DW_AT_data_member_location[DW_OP_plus_uconst 0x661b]
     980                      .dwattr $C$DW$197, DW_AT_accessibility(DW_ACCESS_public)
     981              $C$DW$198       .dwtag  DW_TAG_member
     982                      .dwattr $C$DW$198, DW_AT_type(*$C$DW$T$24)
     983                      .dwattr $C$DW$198, DW_AT_name("ADCSOCOVF1")
     984                      .dwattr $C$DW$198, DW_AT_TI_symbol_name("_ADCSOCOVF1")
     985                      .dwattr $C$DW$198, DW_AT_data_member_location[DW_OP_plus_uconst 0x661c]
     986                      .dwattr $C$DW$198, DW_AT_accessibility(DW_ACCESS_public)
     987              $C$DW$199       .dwtag  DW_TAG_member
     988                      .dwattr $C$DW$199, DW_AT_type(*$C$DW$T$24)
     989                      .dwattr $C$DW$199, DW_AT_name("rsvd_9")
     990                      .dwattr $C$DW$199, DW_AT_TI_symbol_name("_rsvd_9")
     991                      .dwattr $C$DW$199, DW_AT_data_member_location[DW_OP_plus_uconst 0x661d]
     992                      .dwattr $C$DW$199, DW_AT_accessibility(DW_ACCESS_public)
     993              $C$DW$200       .dwtag  DW_TAG_member
     994                      .dwattr $C$DW$200, DW_AT_type(*$C$DW$T$24)
     995                      .dwattr $C$DW$200, DW_AT_name("ADCSOCOVFCLR1")
     996                      .dwattr $C$DW$200, DW_AT_TI_symbol_name("_ADCSOCOVFCLR1")
     997                      .dwattr $C$DW$200, DW_AT_data_member_location[DW_OP_plus_uconst 0x661e]
     998                      .dwattr $C$DW$200, DW_AT_accessibility(DW_ACCESS_public)
     999              $C$DW$201       .dwtag  DW_TAG_member
    1000                      .dwattr $C$DW$201, DW_AT_type(*$C$DW$T$24)
    1001                      .dwattr $C$DW$201, DW_AT_name("rsvd_10")
    1002                      .dwattr $C$DW$201, DW_AT_TI_symbol_name("_rsvd_10")
    1003                      .dwattr $C$DW$201, DW_AT_data_member_location[DW_OP_plus_uconst 0x661f]
    1004                      .dwattr $C$DW$201, DW_AT_accessibility(DW_ACCESS_public)
    1005              $C$DW$202       .dwtag  DW_TAG_member
    1006                      .dwattr $C$DW$202, DW_AT_type(*$C$DW$T$25)
    1007                      .dwattr $C$DW$202, DW_AT_name("ADCSOCxCTL")
    1008                      .dwattr $C$DW$202, DW_AT_TI_symbol_name("_ADCSOCxCTL")
    1009                      .dwattr $C$DW$202, DW_AT_data_member_location[DW_OP_plus_uconst 0x6620]
    1010                      .dwattr $C$DW$202, DW_AT_accessibility(DW_ACCESS_public)
    1011              $C$DW$203       .dwtag  DW_TAG_member
    1012                      .dwattr $C$DW$203, DW_AT_type(*$C$DW$T$25)
    1013                      .dwattr $C$DW$203, DW_AT_name("rsvd_11")
    1014                      .dwattr $C$DW$203, DW_AT_TI_symbol_name("_rsvd_11")
    1015                      .dwattr $C$DW$203, DW_AT_data_member_location[DW_OP_plus_uconst 0x6630]
    1016                      .dwattr $C$DW$203, DW_AT_accessibility(DW_ACCESS_public)
    1017              $C$DW$204       .dwtag  DW_TAG_member
    1018                      .dwattr $C$DW$204, DW_AT_type(*$C$DW$T$24)
TMS320C2000 Assembler PC v6.2.5 Sat Sep 16 15:51:24 2017

Tools Copyright (c) 1996-2014 Texas Instruments Incorporated
C:\Users\wmj\AppData\Local\Temp\1274411                              PAGE   20

    1019                      .dwattr $C$DW$204, DW_AT_name("ADCREFTRIM")
    1020                      .dwattr $C$DW$204, DW_AT_TI_symbol_name("_ADCREFTRIM")
    1021                      .dwattr $C$DW$204, DW_AT_data_member_location[DW_OP_plus_uconst 0x6640]
    1022                      .dwattr $C$DW$204, DW_AT_accessibility(DW_ACCESS_public)
    1023              $C$DW$205       .dwtag  DW_TAG_member
    1024                      .dwattr $C$DW$205, DW_AT_type(*$C$DW$T$24)
    1025                      .dwattr $C$DW$205, DW_AT_name("ADCOFFTRIM")
    1026                      .dwattr $C$DW$205, DW_AT_TI_symbol_name("_ADCOFFTRIM")
    1027                      .dwattr $C$DW$205, DW_AT_data_member_location[DW_OP_plus_uconst 0x6641]
    1028                      .dwattr $C$DW$205, DW_AT_accessibility(DW_ACCESS_public)
    1029              $C$DW$206       .dwtag  DW_TAG_member
    1030                      .dwattr $C$DW$206, DW_AT_type(*$C$DW$T$30)
    1031                      .dwattr $C$DW$206, DW_AT_name("resvd_12")
    1032                      .dwattr $C$DW$206, DW_AT_TI_symbol_name("_resvd_12")
    1033                      .dwattr $C$DW$206, DW_AT_data_member_location[DW_OP_plus_uconst 0x6642]
    1034                      .dwattr $C$DW$206, DW_AT_accessibility(DW_ACCESS_public)
    1035              $C$DW$207       .dwtag  DW_TAG_member
    1036                      .dwattr $C$DW$207, DW_AT_type(*$C$DW$T$24)
    1037                      .dwattr $C$DW$207, DW_AT_name("ADCREV")
    1038                      .dwattr $C$DW$207, DW_AT_TI_symbol_name("_ADCREV")
    1039                      .dwattr $C$DW$207, DW_AT_data_member_location[DW_OP_plus_uconst 0x664f]
    1040                      .dwattr $C$DW$207, DW_AT_accessibility(DW_ACCESS_public)
    1041                      .dwendtag $C$DW$T$31
    1042              
    1043              $C$DW$T$56      .dwtag  DW_TAG_pointer_type
    1044                      .dwattr $C$DW$T$56, DW_AT_type(*$C$DW$T$31)
    1045                      .dwattr $C$DW$T$56, DW_AT_address_class(0x16)
    1046              $C$DW$T$57      .dwtag  DW_TAG_typedef, DW_AT_name("ADC_Handle")
    1047                      .dwattr $C$DW$T$57, DW_AT_type(*$C$DW$T$56)
    1048                      .dwattr $C$DW$T$57, DW_AT_language(DW_LANG_C)
    1049              
    1050              $C$DW$T$32      .dwtag  DW_TAG_structure_type
    1051                      .dwattr $C$DW$T$32, DW_AT_name("_CLK_DIV_t_")
    1052                      .dwattr $C$DW$T$32, DW_AT_byte_size(0x02)
    1053              $C$DW$208       .dwtag  DW_TAG_member
    1054                      .dwattr $C$DW$208, DW_AT_type(*$C$DW$T$23)
    1055                      .dwattr $C$DW$208, DW_AT_name("FREF_DIVIDER")
    1056                      .dwattr $C$DW$208, DW_AT_TI_symbol_name("_FREF_DIVIDER")
    1057                      .dwattr $C$DW$208, DW_AT_data_member_location[DW_OP_plus_uconst 0x0]
    1058                      .dwattr $C$DW$208, DW_AT_accessibility(DW_ACCESS_public)
    1059              $C$DW$209       .dwtag  DW_TAG_member
    1060                      .dwattr $C$DW$209, DW_AT_type(*$C$DW$T$23)
    1061                      .dwattr $C$DW$209, DW_AT_name("FIN_DIVIDER")
    1062                      .dwattr $C$DW$209, DW_AT_TI_symbol_name("_FIN_DIVIDER")
    1063                      .dwattr $C$DW$209, DW_AT_data_member_location[DW_OP_plus_uconst 0x1]
    1064                      .dwattr $C$DW$209, DW_AT_accessibility(DW_ACCESS_public)
    1065                      .dwendtag $C$DW$T$32
    1066              
    1067              $C$DW$T$94      .dwtag  DW_TAG_typedef, DW_AT_name("CLK_DIV_t_")
    1068                      .dwattr $C$DW$T$94, DW_AT_type(*$C$DW$T$32)
    1069                      .dwattr $C$DW$T$94, DW_AT_language(DW_LANG_C)
    1070              
    1071              $C$DW$T$34      .dwtag  DW_TAG_structure_type
    1072                      .dwattr $C$DW$T$34, DW_AT_name("_CLK_Obj_")
    1073                      .dwattr $C$DW$T$34, DW_AT_byte_size(0x11)
TMS320C2000 Assembler PC v6.2.5 Sat Sep 16 15:51:24 2017

Tools Copyright (c) 1996-2014 Texas Instruments Incorporated
C:\Users\wmj\AppData\Local\Temp\1274411                              PAGE   21

    1074              $C$DW$210       .dwtag  DW_TAG_member
    1075                      .dwattr $C$DW$210, DW_AT_type(*$C$DW$T$24)
    1076                      .dwattr $C$DW$210, DW_AT_name("XCLK")
    1077                      .dwattr $C$DW$210, DW_AT_TI_symbol_name("_XCLK")
    1078                      .dwattr $C$DW$210, DW_AT_data_member_location[DW_OP_plus_uconst 0x0]
    1079                      .dwattr $C$DW$210, DW_AT_accessibility(DW_ACCESS_public)
    1080              $C$DW$211       .dwtag  DW_TAG_member
    1081                      .dwattr $C$DW$211, DW_AT_type(*$C$DW$T$24)
    1082                      .dwattr $C$DW$211, DW_AT_name("rsvd_1")
    1083                      .dwattr $C$DW$211, DW_AT_TI_symbol_name("_rsvd_1")
    1084                      .dwattr $C$DW$211, DW_AT_data_member_location[DW_OP_plus_uconst 0x1]
    1085                      .dwattr $C$DW$211, DW_AT_accessibility(DW_ACCESS_public)
    1086              $C$DW$212       .dwtag  DW_TAG_member
    1087                      .dwattr $C$DW$212, DW_AT_type(*$C$DW$T$24)
    1088                      .dwattr $C$DW$212, DW_AT_name("CLKCTL")
    1089                      .dwattr $C$DW$212, DW_AT_TI_symbol_name("_CLKCTL")
    1090                      .dwattr $C$DW$212, DW_AT_data_member_location[DW_OP_plus_uconst 0x2]
    1091                      .dwattr $C$DW$212, DW_AT_accessibility(DW_ACCESS_public)
    1092              $C$DW$213       .dwtag  DW_TAG_member
    1093                      .dwattr $C$DW$213, DW_AT_type(*$C$DW$T$33)
    1094                      .dwattr $C$DW$213, DW_AT_name("rsvd_2")
    1095                      .dwattr $C$DW$213, DW_AT_TI_symbol_name("_rsvd_2")
    1096                      .dwattr $C$DW$213, DW_AT_data_member_location[DW_OP_plus_uconst 0x3]
    1097                      .dwattr $C$DW$213, DW_AT_accessibility(DW_ACCESS_public)
    1098              $C$DW$214       .dwtag  DW_TAG_member
    1099                      .dwattr $C$DW$214, DW_AT_type(*$C$DW$T$24)
    1100                      .dwattr $C$DW$214, DW_AT_name("LOSPCP")
    1101                      .dwattr $C$DW$214, DW_AT_TI_symbol_name("_LOSPCP")
    1102                      .dwattr $C$DW$214, DW_AT_data_member_location[DW_OP_plus_uconst 0xb]
    1103                      .dwattr $C$DW$214, DW_AT_accessibility(DW_ACCESS_public)
    1104              $C$DW$215       .dwtag  DW_TAG_member
    1105                      .dwattr $C$DW$215, DW_AT_type(*$C$DW$T$24)
    1106                      .dwattr $C$DW$215, DW_AT_name("PCLKCR0")
    1107                      .dwattr $C$DW$215, DW_AT_TI_symbol_name("_PCLKCR0")
    1108                      .dwattr $C$DW$215, DW_AT_data_member_location[DW_OP_plus_uconst 0xc]
    1109                      .dwattr $C$DW$215, DW_AT_accessibility(DW_ACCESS_public)
    1110              $C$DW$216       .dwtag  DW_TAG_member
    1111                      .dwattr $C$DW$216, DW_AT_type(*$C$DW$T$24)
    1112                      .dwattr $C$DW$216, DW_AT_name("PCLKCR1")
    1113                      .dwattr $C$DW$216, DW_AT_TI_symbol_name("_PCLKCR1")
    1114                      .dwattr $C$DW$216, DW_AT_data_member_location[DW_OP_plus_uconst 0xd]
    1115                      .dwattr $C$DW$216, DW_AT_accessibility(DW_ACCESS_public)
    1116              $C$DW$217       .dwtag  DW_TAG_member
    1117                      .dwattr $C$DW$217, DW_AT_type(*$C$DW$T$27)
    1118                      .dwattr $C$DW$217, DW_AT_name("rsvd_3")
    1119                      .dwattr $C$DW$217, DW_AT_TI_symbol_name("_rsvd_3")
    1120                      .dwattr $C$DW$217, DW_AT_data_member_location[DW_OP_plus_uconst 0xe]
    1121                      .dwattr $C$DW$217, DW_AT_accessibility(DW_ACCESS_public)
    1122              $C$DW$218       .dwtag  DW_TAG_member
    1123                      .dwattr $C$DW$218, DW_AT_type(*$C$DW$T$24)
    1124                      .dwattr $C$DW$218, DW_AT_name("PCLKCR3")
    1125                      .dwattr $C$DW$218, DW_AT_TI_symbol_name("_PCLKCR3")
    1126                      .dwattr $C$DW$218, DW_AT_data_member_location[DW_OP_plus_uconst 0x10]
    1127                      .dwattr $C$DW$218, DW_AT_accessibility(DW_ACCESS_public)
    1128                      .dwendtag $C$DW$T$34
TMS320C2000 Assembler PC v6.2.5 Sat Sep 16 15:51:24 2017

Tools Copyright (c) 1996-2014 Texas Instruments Incorporated
C:\Users\wmj\AppData\Local\Temp\1274411                              PAGE   22

    1129              
    1130              $C$DW$T$58      .dwtag  DW_TAG_pointer_type
    1131                      .dwattr $C$DW$T$58, DW_AT_type(*$C$DW$T$34)
    1132                      .dwattr $C$DW$T$58, DW_AT_address_class(0x16)
    1133              $C$DW$T$59      .dwtag  DW_TAG_typedef, DW_AT_name("CLK_Handle")
    1134                      .dwattr $C$DW$T$59, DW_AT_type(*$C$DW$T$58)
    1135                      .dwattr $C$DW$T$59, DW_AT_language(DW_LANG_C)
    1136              
    1137              $C$DW$T$36      .dwtag  DW_TAG_structure_type
    1138                      .dwattr $C$DW$T$36, DW_AT_name("_CPU_Obj_")
    1139                      .dwattr $C$DW$T$36, DW_AT_byte_size(0x01)
    1140              $C$DW$219       .dwtag  DW_TAG_member
    1141                      .dwattr $C$DW$219, DW_AT_type(*$C$DW$T$35)
    1142                      .dwattr $C$DW$219, DW_AT_name("tmp")
    1143                      .dwattr $C$DW$219, DW_AT_TI_symbol_name("_tmp")
    1144                      .dwattr $C$DW$219, DW_AT_data_member_location[DW_OP_plus_uconst 0x0]
    1145                      .dwattr $C$DW$219, DW_AT_accessibility(DW_ACCESS_public)
    1146                      .dwendtag $C$DW$T$36
    1147              
    1148              $C$DW$T$60      .dwtag  DW_TAG_pointer_type
    1149                      .dwattr $C$DW$T$60, DW_AT_type(*$C$DW$T$36)
    1150                      .dwattr $C$DW$T$60, DW_AT_address_class(0x16)
    1151              $C$DW$T$61      .dwtag  DW_TAG_typedef, DW_AT_name("CPU_Handle")
    1152                      .dwattr $C$DW$T$61, DW_AT_type(*$C$DW$T$60)
    1153                      .dwattr $C$DW$T$61, DW_AT_language(DW_LANG_C)
    1154              
    1155              $C$DW$T$44      .dwtag  DW_TAG_structure_type
    1156                      .dwattr $C$DW$T$44, DW_AT_name("_DECODER_Obj_")
    1157                      .dwattr $C$DW$T$44, DW_AT_byte_size(0x06)
    1158              $C$DW$220       .dwtag  DW_TAG_member
    1159                      .dwattr $C$DW$220, DW_AT_type(*$C$DW$T$38)
    1160                      .dwattr $C$DW$220, DW_AT_name("spiHandle")
    1161                      .dwattr $C$DW$220, DW_AT_TI_symbol_name("_spiHandle")
    1162                      .dwattr $C$DW$220, DW_AT_data_member_location[DW_OP_plus_uconst 0x0]
    1163                      .dwattr $C$DW$220, DW_AT_accessibility(DW_ACCESS_public)
    1164              $C$DW$221       .dwtag  DW_TAG_member
    1165                      .dwattr $C$DW$221, DW_AT_type(*$C$DW$T$40)
    1166                      .dwattr $C$DW$221, DW_AT_name("gpioHandle")
    1167                      .dwattr $C$DW$221, DW_AT_TI_symbol_name("_gpioHandle")
    1168                      .dwattr $C$DW$221, DW_AT_data_member_location[DW_OP_plus_uconst 0x2]
    1169                      .dwattr $C$DW$221, DW_AT_accessibility(DW_ACCESS_public)
    1170              $C$DW$222       .dwtag  DW_TAG_member
    1171                      .dwattr $C$DW$222, DW_AT_type(*$C$DW$T$42)
    1172                      .dwattr $C$DW$222, DW_AT_name("gpioNumber")
    1173                      .dwattr $C$DW$222, DW_AT_TI_symbol_name("_gpioNumber")
    1174                      .dwattr $C$DW$222, DW_AT_data_member_location[DW_OP_plus_uconst 0x4]
    1175                      .dwattr $C$DW$222, DW_AT_accessibility(DW_ACCESS_public)
    1176              $C$DW$223       .dwtag  DW_TAG_member
    1177                      .dwattr $C$DW$223, DW_AT_type(*$C$DW$T$43)
    1178                      .dwattr $C$DW$223, DW_AT_name("RxTimeOut")
    1179                      .dwattr $C$DW$223, DW_AT_TI_symbol_name("_RxTimeOut")
    1180                      .dwattr $C$DW$223, DW_AT_data_member_location[DW_OP_plus_uconst 0x5]
    1181                      .dwattr $C$DW$223, DW_AT_accessibility(DW_ACCESS_public)
    1182                      .dwendtag $C$DW$T$44
    1183              
TMS320C2000 Assembler PC v6.2.5 Sat Sep 16 15:51:24 2017

Tools Copyright (c) 1996-2014 Texas Instruments Incorporated
C:\Users\wmj\AppData\Local\Temp\1274411                              PAGE   23

    1184              $C$DW$T$169     .dwtag  DW_TAG_typedef, DW_AT_name("DECODER_Obj")
    1185                      .dwattr $C$DW$T$169, DW_AT_type(*$C$DW$T$44)
    1186                      .dwattr $C$DW$T$169, DW_AT_language(DW_LANG_C)
    1187              $C$DW$T$167     .dwtag  DW_TAG_pointer_type
    1188                      .dwattr $C$DW$T$167, DW_AT_type(*$C$DW$T$44)
    1189                      .dwattr $C$DW$T$167, DW_AT_address_class(0x16)
    1190              $C$DW$T$168     .dwtag  DW_TAG_typedef, DW_AT_name("DECODER_Handle")
    1191                      .dwattr $C$DW$T$168, DW_AT_type(*$C$DW$T$167)
    1192                      .dwattr $C$DW$T$168, DW_AT_language(DW_LANG_C)
    1193              
    1194              $C$DW$T$45      .dwtag  DW_TAG_structure_type
    1195                      .dwattr $C$DW$T$45, DW_AT_name("_DRIVE_CURRENT_t_")
    1196                      .dwattr $C$DW$T$45, DW_AT_byte_size(0x02)
    1197              $C$DW$224       .dwtag  DW_TAG_member
    1198                      .dwattr $C$DW$224, DW_AT_type(*$C$DW$T$23)
    1199                      .dwattr $C$DW$224, DW_AT_name("IDRIVE")
    1200                      .dwattr $C$DW$224, DW_AT_TI_symbol_name("_IDRIVE")
    1201                      .dwattr $C$DW$224, DW_AT_data_member_location[DW_OP_plus_uconst 0x0]
    1202                      .dwattr $C$DW$224, DW_AT_accessibility(DW_ACCESS_public)
    1203              $C$DW$225       .dwtag  DW_TAG_member
    1204                      .dwattr $C$DW$225, DW_AT_type(*$C$DW$T$23)
    1205                      .dwattr $C$DW$225, DW_AT_name("INIT_IDRIVE")
    1206                      .dwattr $C$DW$225, DW_AT_TI_symbol_name("_INIT_IDRIVE")
    1207                      .dwattr $C$DW$225, DW_AT_data_member_location[DW_OP_plus_uconst 0x1]
    1208                      .dwattr $C$DW$225, DW_AT_accessibility(DW_ACCESS_public)
    1209                      .dwendtag $C$DW$T$45
    1210              
    1211              $C$DW$T$114     .dwtag  DW_TAG_typedef, DW_AT_name("DRIVE_CURRENT_t_")
    1212                      .dwattr $C$DW$T$114, DW_AT_type(*$C$DW$T$45)
    1213                      .dwattr $C$DW$T$114, DW_AT_language(DW_LANG_C)
    1214              
    1215              $C$DW$T$47      .dwtag  DW_TAG_structure_type
    1216                      .dwattr $C$DW$T$47, DW_AT_name("_FILTER_FO_")
    1217                      .dwattr $C$DW$T$47, DW_AT_byte_size(0x0a)
    1218              $C$DW$226       .dwtag  DW_TAG_member
    1219                      .dwattr $C$DW$226, DW_AT_type(*$C$DW$T$46)
    1220                      .dwattr $C$DW$226, DW_AT_name("a1")
    1221                      .dwattr $C$DW$226, DW_AT_TI_symbol_name("_a1")
    1222                      .dwattr $C$DW$226, DW_AT_data_member_location[DW_OP_plus_uconst 0x0]
    1223                      .dwattr $C$DW$226, DW_AT_accessibility(DW_ACCESS_public)
    1224              $C$DW$227       .dwtag  DW_TAG_member
    1225                      .dwattr $C$DW$227, DW_AT_type(*$C$DW$T$46)
    1226                      .dwattr $C$DW$227, DW_AT_name("b0")
    1227                      .dwattr $C$DW$227, DW_AT_TI_symbol_name("_b0")
    1228                      .dwattr $C$DW$227, DW_AT_data_member_location[DW_OP_plus_uconst 0x2]
    1229                      .dwattr $C$DW$227, DW_AT_accessibility(DW_ACCESS_public)
    1230              $C$DW$228       .dwtag  DW_TAG_member
    1231                      .dwattr $C$DW$228, DW_AT_type(*$C$DW$T$46)
    1232                      .dwattr $C$DW$228, DW_AT_name("b1")
    1233                      .dwattr $C$DW$228, DW_AT_TI_symbol_name("_b1")
    1234                      .dwattr $C$DW$228, DW_AT_data_member_location[DW_OP_plus_uconst 0x4]
    1235                      .dwattr $C$DW$228, DW_AT_accessibility(DW_ACCESS_public)
    1236              $C$DW$229       .dwtag  DW_TAG_member
    1237                      .dwattr $C$DW$229, DW_AT_type(*$C$DW$T$46)
    1238                      .dwattr $C$DW$229, DW_AT_name("x1")
TMS320C2000 Assembler PC v6.2.5 Sat Sep 16 15:51:24 2017

Tools Copyright (c) 1996-2014 Texas Instruments Incorporated
C:\Users\wmj\AppData\Local\Temp\1274411                              PAGE   24

    1239                      .dwattr $C$DW$229, DW_AT_TI_symbol_name("_x1")
    1240                      .dwattr $C$DW$229, DW_AT_data_member_location[DW_OP_plus_uconst 0x6]
    1241                      .dwattr $C$DW$229, DW_AT_accessibility(DW_ACCESS_public)
    1242              $C$DW$230       .dwtag  DW_TAG_member
    1243                      .dwattr $C$DW$230, DW_AT_type(*$C$DW$T$46)
    1244                      .dwattr $C$DW$230, DW_AT_name("y1")
    1245                      .dwattr $C$DW$230, DW_AT_TI_symbol_name("_y1")
    1246                      .dwattr $C$DW$230, DW_AT_data_member_location[DW_OP_plus_uconst 0x8]
    1247                      .dwattr $C$DW$230, DW_AT_accessibility(DW_ACCESS_public)
    1248                      .dwendtag $C$DW$T$47
    1249              
    1250              $C$DW$T$130     .dwtag  DW_TAG_typedef, DW_AT_name("FILTER_FO_Obj")
    1251                      .dwattr $C$DW$T$130, DW_AT_type(*$C$DW$T$47)
    1252                      .dwattr $C$DW$T$130, DW_AT_language(DW_LANG_C)
    1253              
    1254              $C$DW$T$21      .dwtag  DW_TAG_structure_type
    1255                      .dwattr $C$DW$T$21, DW_AT_name("_FILTER_FO_Obj_")
    1256                      .dwattr $C$DW$T$21, DW_AT_declaration
    1257                      .dwendtag $C$DW$T$21
    1258              
    1259              $C$DW$T$131     .dwtag  DW_TAG_pointer_type
    1260                      .dwattr $C$DW$T$131, DW_AT_type(*$C$DW$T$21)
    1261                      .dwattr $C$DW$T$131, DW_AT_address_class(0x16)
    1262              $C$DW$T$132     .dwtag  DW_TAG_typedef, DW_AT_name("FILTER_FO_Handle")
    1263                      .dwattr $C$DW$T$132, DW_AT_type(*$C$DW$T$131)
    1264                      .dwattr $C$DW$T$132, DW_AT_language(DW_LANG_C)
    1265              
    1266              $C$DW$T$48      .dwtag  DW_TAG_structure_type
    1267                      .dwattr $C$DW$T$48, DW_AT_name("_FLASH_Obj_")
    1268                      .dwattr $C$DW$T$48, DW_AT_byte_size(0x08)
    1269              $C$DW$231       .dwtag  DW_TAG_member
    1270                      .dwattr $C$DW$231, DW_AT_type(*$C$DW$T$24)
    1271                      .dwattr $C$DW$231, DW_AT_name("FOPT")
    1272                      .dwattr $C$DW$231, DW_AT_TI_symbol_name("_FOPT")
    1273                      .dwattr $C$DW$231, DW_AT_data_member_location[DW_OP_plus_uconst 0x0]
    1274                      .dwattr $C$DW$231, DW_AT_accessibility(DW_ACCESS_public)
    1275              $C$DW$232       .dwtag  DW_TAG_member
    1276                      .dwattr $C$DW$232, DW_AT_type(*$C$DW$T$24)
    1277                      .dwattr $C$DW$232, DW_AT_name("rsvd_1")
    1278                      .dwattr $C$DW$232, DW_AT_TI_symbol_name("_rsvd_1")
    1279                      .dwattr $C$DW$232, DW_AT_data_member_location[DW_OP_plus_uconst 0x1]
    1280                      .dwattr $C$DW$232, DW_AT_accessibility(DW_ACCESS_public)
    1281              $C$DW$233       .dwtag  DW_TAG_member
    1282                      .dwattr $C$DW$233, DW_AT_type(*$C$DW$T$24)
    1283                      .dwattr $C$DW$233, DW_AT_name("FPWR")
    1284                      .dwattr $C$DW$233, DW_AT_TI_symbol_name("_FPWR")
    1285                      .dwattr $C$DW$233, DW_AT_data_member_location[DW_OP_plus_uconst 0x2]
    1286                      .dwattr $C$DW$233, DW_AT_accessibility(DW_ACCESS_public)
    1287              $C$DW$234       .dwtag  DW_TAG_member
    1288                      .dwattr $C$DW$234, DW_AT_type(*$C$DW$T$24)
    1289                      .dwattr $C$DW$234, DW_AT_name("FSTATUS")
    1290                      .dwattr $C$DW$234, DW_AT_TI_symbol_name("_FSTATUS")
    1291                      .dwattr $C$DW$234, DW_AT_data_member_location[DW_OP_plus_uconst 0x3]
    1292                      .dwattr $C$DW$234, DW_AT_accessibility(DW_ACCESS_public)
    1293              $C$DW$235       .dwtag  DW_TAG_member
TMS320C2000 Assembler PC v6.2.5 Sat Sep 16 15:51:24 2017

Tools Copyright (c) 1996-2014 Texas Instruments Incorporated
C:\Users\wmj\AppData\Local\Temp\1274411                              PAGE   25

    1294                      .dwattr $C$DW$235, DW_AT_type(*$C$DW$T$24)
    1295                      .dwattr $C$DW$235, DW_AT_name("FSTDBYWAIT")
    1296                      .dwattr $C$DW$235, DW_AT_TI_symbol_name("_FSTDBYWAIT")
    1297                      .dwattr $C$DW$235, DW_AT_data_member_location[DW_OP_plus_uconst 0x4]
    1298                      .dwattr $C$DW$235, DW_AT_accessibility(DW_ACCESS_public)
    1299              $C$DW$236       .dwtag  DW_TAG_member
    1300                      .dwattr $C$DW$236, DW_AT_type(*$C$DW$T$24)
    1301                      .dwattr $C$DW$236, DW_AT_name("FACTIVEWAIT")
    1302                      .dwattr $C$DW$236, DW_AT_TI_symbol_name("_FACTIVEWAIT")
    1303                      .dwattr $C$DW$236, DW_AT_data_member_location[DW_OP_plus_uconst 0x5]
    1304                      .dwattr $C$DW$236, DW_AT_accessibility(DW_ACCESS_public)
    1305              $C$DW$237       .dwtag  DW_TAG_member
    1306                      .dwattr $C$DW$237, DW_AT_type(*$C$DW$T$24)
    1307                      .dwattr $C$DW$237, DW_AT_name("FBANKWAIT")
    1308                      .dwattr $C$DW$237, DW_AT_TI_symbol_name("_FBANKWAIT")
    1309                      .dwattr $C$DW$237, DW_AT_data_member_location[DW_OP_plus_uconst 0x6]
    1310                      .dwattr $C$DW$237, DW_AT_accessibility(DW_ACCESS_public)
    1311              $C$DW$238       .dwtag  DW_TAG_member
    1312                      .dwattr $C$DW$238, DW_AT_type(*$C$DW$T$24)
    1313                      .dwattr $C$DW$238, DW_AT_name("FOTPWAIT")
    1314                      .dwattr $C$DW$238, DW_AT_TI_symbol_name("_FOTPWAIT")
    1315                      .dwattr $C$DW$238, DW_AT_data_member_location[DW_OP_plus_uconst 0x7]
    1316                      .dwattr $C$DW$238, DW_AT_accessibility(DW_ACCESS_public)
    1317                      .dwendtag $C$DW$T$48
    1318              
    1319              $C$DW$T$62      .dwtag  DW_TAG_pointer_type
    1320                      .dwattr $C$DW$T$62, DW_AT_type(*$C$DW$T$48)
    1321                      .dwattr $C$DW$T$62, DW_AT_address_class(0x16)
    1322              $C$DW$T$63      .dwtag  DW_TAG_typedef, DW_AT_name("FLASH_Handle")
    1323                      .dwattr $C$DW$T$63, DW_AT_type(*$C$DW$T$62)
    1324                      .dwattr $C$DW$T$63, DW_AT_language(DW_LANG_C)
    1325              
    1326              $C$DW$T$53      .dwtag  DW_TAG_structure_type
    1327                      .dwattr $C$DW$T$53, DW_AT_name("_GPIO_Obj_")
    1328                      .dwattr $C$DW$T$53, DW_AT_byte_size(0x6a)
    1329              $C$DW$239       .dwtag  DW_TAG_member
    1330                      .dwattr $C$DW$239, DW_AT_type(*$C$DW$T$50)
    1331                      .dwattr $C$DW$239, DW_AT_name("GPACTRL")
    1332                      .dwattr $C$DW$239, DW_AT_TI_symbol_name("_GPACTRL")
    1333                      .dwattr $C$DW$239, DW_AT_data_member_location[DW_OP_plus_uconst 0x0]
    1334                      .dwattr $C$DW$239, DW_AT_accessibility(DW_ACCESS_public)
    1335              $C$DW$240       .dwtag  DW_TAG_member
    1336                      .dwattr $C$DW$240, DW_AT_type(*$C$DW$T$50)
    1337                      .dwattr $C$DW$240, DW_AT_name("GPAQSEL1")
    1338                      .dwattr $C$DW$240, DW_AT_TI_symbol_name("_GPAQSEL1")
    1339                      .dwattr $C$DW$240, DW_AT_data_member_location[DW_OP_plus_uconst 0x2]
    1340                      .dwattr $C$DW$240, DW_AT_accessibility(DW_ACCESS_public)
    1341              $C$DW$241       .dwtag  DW_TAG_member
    1342                      .dwattr $C$DW$241, DW_AT_type(*$C$DW$T$50)
    1343                      .dwattr $C$DW$241, DW_AT_name("GPAQSEL2")
    1344                      .dwattr $C$DW$241, DW_AT_TI_symbol_name("_GPAQSEL2")
    1345                      .dwattr $C$DW$241, DW_AT_data_member_location[DW_OP_plus_uconst 0x4]
    1346                      .dwattr $C$DW$241, DW_AT_accessibility(DW_ACCESS_public)
    1347              $C$DW$242       .dwtag  DW_TAG_member
    1348                      .dwattr $C$DW$242, DW_AT_type(*$C$DW$T$50)
TMS320C2000 Assembler PC v6.2.5 Sat Sep 16 15:51:24 2017

Tools Copyright (c) 1996-2014 Texas Instruments Incorporated
C:\Users\wmj\AppData\Local\Temp\1274411                              PAGE   26

    1349                      .dwattr $C$DW$242, DW_AT_name("GPAMUX1")
    1350                      .dwattr $C$DW$242, DW_AT_TI_symbol_name("_GPAMUX1")
    1351                      .dwattr $C$DW$242, DW_AT_data_member_location[DW_OP_plus_uconst 0x6]
    1352                      .dwattr $C$DW$242, DW_AT_accessibility(DW_ACCESS_public)
    1353              $C$DW$243       .dwtag  DW_TAG_member
    1354                      .dwattr $C$DW$243, DW_AT_type(*$C$DW$T$50)
    1355                      .dwattr $C$DW$243, DW_AT_name("GPAMUX2")
    1356                      .dwattr $C$DW$243, DW_AT_TI_symbol_name("_GPAMUX2")
    1357                      .dwattr $C$DW$243, DW_AT_data_member_location[DW_OP_plus_uconst 0x8]
    1358                      .dwattr $C$DW$243, DW_AT_accessibility(DW_ACCESS_public)
    1359              $C$DW$244       .dwtag  DW_TAG_member
    1360                      .dwattr $C$DW$244, DW_AT_type(*$C$DW$T$50)
    1361                      .dwattr $C$DW$244, DW_AT_name("GPADIR")
    1362                      .dwattr $C$DW$244, DW_AT_TI_symbol_name("_GPADIR")
    1363                      .dwattr $C$DW$244, DW_AT_data_member_location[DW_OP_plus_uconst 0xa]
    1364                      .dwattr $C$DW$244, DW_AT_accessibility(DW_ACCESS_public)
    1365              $C$DW$245       .dwtag  DW_TAG_member
    1366                      .dwattr $C$DW$245, DW_AT_type(*$C$DW$T$50)
    1367                      .dwattr $C$DW$245, DW_AT_name("GPAPUD")
    1368                      .dwattr $C$DW$245, DW_AT_TI_symbol_name("_GPAPUD")
    1369                      .dwattr $C$DW$245, DW_AT_data_member_location[DW_OP_plus_uconst 0xc]
    1370                      .dwattr $C$DW$245, DW_AT_accessibility(DW_ACCESS_public)
    1371              $C$DW$246       .dwtag  DW_TAG_member
    1372                      .dwattr $C$DW$246, DW_AT_type(*$C$DW$T$27)
    1373                      .dwattr $C$DW$246, DW_AT_name("rsvd_1")
    1374                      .dwattr $C$DW$246, DW_AT_TI_symbol_name("_rsvd_1")
    1375                      .dwattr $C$DW$246, DW_AT_data_member_location[DW_OP_plus_uconst 0xe]
    1376                      .dwattr $C$DW$246, DW_AT_accessibility(DW_ACCESS_public)
    1377              $C$DW$247       .dwtag  DW_TAG_member
    1378                      .dwattr $C$DW$247, DW_AT_type(*$C$DW$T$50)
    1379                      .dwattr $C$DW$247, DW_AT_name("GPBCTRL")
    1380                      .dwattr $C$DW$247, DW_AT_TI_symbol_name("_GPBCTRL")
    1381                      .dwattr $C$DW$247, DW_AT_data_member_location[DW_OP_plus_uconst 0x10]
    1382                      .dwattr $C$DW$247, DW_AT_accessibility(DW_ACCESS_public)
    1383              $C$DW$248       .dwtag  DW_TAG_member
    1384                      .dwattr $C$DW$248, DW_AT_type(*$C$DW$T$50)
    1385                      .dwattr $C$DW$248, DW_AT_name("GPBQSEL1")
    1386                      .dwattr $C$DW$248, DW_AT_TI_symbol_name("_GPBQSEL1")
    1387                      .dwattr $C$DW$248, DW_AT_data_member_location[DW_OP_plus_uconst 0x12]
    1388                      .dwattr $C$DW$248, DW_AT_accessibility(DW_ACCESS_public)
    1389              $C$DW$249       .dwtag  DW_TAG_member
    1390                      .dwattr $C$DW$249, DW_AT_type(*$C$DW$T$27)
    1391                      .dwattr $C$DW$249, DW_AT_name("rsvd_2")
    1392                      .dwattr $C$DW$249, DW_AT_TI_symbol_name("_rsvd_2")
    1393                      .dwattr $C$DW$249, DW_AT_data_member_location[DW_OP_plus_uconst 0x14]
    1394                      .dwattr $C$DW$249, DW_AT_accessibility(DW_ACCESS_public)
    1395              $C$DW$250       .dwtag  DW_TAG_member
    1396                      .dwattr $C$DW$250, DW_AT_type(*$C$DW$T$50)
    1397                      .dwattr $C$DW$250, DW_AT_name("GPBMUX1")
    1398                      .dwattr $C$DW$250, DW_AT_TI_symbol_name("_GPBMUX1")
    1399                      .dwattr $C$DW$250, DW_AT_data_member_location[DW_OP_plus_uconst 0x16]
    1400                      .dwattr $C$DW$250, DW_AT_accessibility(DW_ACCESS_public)
    1401              $C$DW$251       .dwtag  DW_TAG_member
    1402                      .dwattr $C$DW$251, DW_AT_type(*$C$DW$T$27)
    1403                      .dwattr $C$DW$251, DW_AT_name("rsvd_3")
TMS320C2000 Assembler PC v6.2.5 Sat Sep 16 15:51:24 2017

Tools Copyright (c) 1996-2014 Texas Instruments Incorporated
C:\Users\wmj\AppData\Local\Temp\1274411                              PAGE   27

    1404                      .dwattr $C$DW$251, DW_AT_TI_symbol_name("_rsvd_3")
    1405                      .dwattr $C$DW$251, DW_AT_data_member_location[DW_OP_plus_uconst 0x18]
    1406                      .dwattr $C$DW$251, DW_AT_accessibility(DW_ACCESS_public)
    1407              $C$DW$252       .dwtag  DW_TAG_member
    1408                      .dwattr $C$DW$252, DW_AT_type(*$C$DW$T$50)
    1409                      .dwattr $C$DW$252, DW_AT_name("GPBDIR")
    1410                      .dwattr $C$DW$252, DW_AT_TI_symbol_name("_GPBDIR")
    1411                      .dwattr $C$DW$252, DW_AT_data_member_location[DW_OP_plus_uconst 0x1a]
    1412                      .dwattr $C$DW$252, DW_AT_accessibility(DW_ACCESS_public)
    1413              $C$DW$253       .dwtag  DW_TAG_member
    1414                      .dwattr $C$DW$253, DW_AT_type(*$C$DW$T$50)
    1415                      .dwattr $C$DW$253, DW_AT_name("GPBPUD")
    1416                      .dwattr $C$DW$253, DW_AT_TI_symbol_name("_GPBPUD")
    1417                      .dwattr $C$DW$253, DW_AT_data_member_location[DW_OP_plus_uconst 0x1c]
    1418                      .dwattr $C$DW$253, DW_AT_accessibility(DW_ACCESS_public)
    1419              $C$DW$254       .dwtag  DW_TAG_member
    1420                      .dwattr $C$DW$254, DW_AT_type(*$C$DW$T$51)
    1421                      .dwattr $C$DW$254, DW_AT_name("rsvd_4")
    1422                      .dwattr $C$DW$254, DW_AT_TI_symbol_name("_rsvd_4")
    1423                      .dwattr $C$DW$254, DW_AT_data_member_location[DW_OP_plus_uconst 0x1e]
    1424                      .dwattr $C$DW$254, DW_AT_accessibility(DW_ACCESS_public)
    1425              $C$DW$255       .dwtag  DW_TAG_member
    1426                      .dwattr $C$DW$255, DW_AT_type(*$C$DW$T$50)
    1427                      .dwattr $C$DW$255, DW_AT_name("AIOMUX1")
    1428                      .dwattr $C$DW$255, DW_AT_TI_symbol_name("_AIOMUX1")
    1429                      .dwattr $C$DW$255, DW_AT_data_member_location[DW_OP_plus_uconst 0x36]
    1430                      .dwattr $C$DW$255, DW_AT_accessibility(DW_ACCESS_public)
    1431              $C$DW$256       .dwtag  DW_TAG_member
    1432                      .dwattr $C$DW$256, DW_AT_type(*$C$DW$T$27)
    1433                      .dwattr $C$DW$256, DW_AT_name("rsvd_5")
    1434                      .dwattr $C$DW$256, DW_AT_TI_symbol_name("_rsvd_5")
    1435                      .dwattr $C$DW$256, DW_AT_data_member_location[DW_OP_plus_uconst 0x38]
    1436                      .dwattr $C$DW$256, DW_AT_accessibility(DW_ACCESS_public)
    1437              $C$DW$257       .dwtag  DW_TAG_member
    1438                      .dwattr $C$DW$257, DW_AT_type(*$C$DW$T$50)
    1439                      .dwattr $C$DW$257, DW_AT_name("AIODIR")
    1440                      .dwattr $C$DW$257, DW_AT_TI_symbol_name("_AIODIR")
    1441                      .dwattr $C$DW$257, DW_AT_data_member_location[DW_OP_plus_uconst 0x3a]
    1442                      .dwattr $C$DW$257, DW_AT_accessibility(DW_ACCESS_public)
    1443              $C$DW$258       .dwtag  DW_TAG_member
    1444                      .dwattr $C$DW$258, DW_AT_type(*$C$DW$T$52)
    1445                      .dwattr $C$DW$258, DW_AT_name("rsvd_6")
    1446                      .dwattr $C$DW$258, DW_AT_TI_symbol_name("_rsvd_6")
    1447                      .dwattr $C$DW$258, DW_AT_data_member_location[DW_OP_plus_uconst 0x3c]
    1448                      .dwattr $C$DW$258, DW_AT_accessibility(DW_ACCESS_public)
    1449              $C$DW$259       .dwtag  DW_TAG_member
    1450                      .dwattr $C$DW$259, DW_AT_type(*$C$DW$T$50)
    1451                      .dwattr $C$DW$259, DW_AT_name("GPADAT")
    1452                      .dwattr $C$DW$259, DW_AT_TI_symbol_name("_GPADAT")
    1453                      .dwattr $C$DW$259, DW_AT_data_member_location[DW_OP_plus_uconst 0x40]
    1454                      .dwattr $C$DW$259, DW_AT_accessibility(DW_ACCESS_public)
    1455              $C$DW$260       .dwtag  DW_TAG_member
    1456                      .dwattr $C$DW$260, DW_AT_type(*$C$DW$T$50)
    1457                      .dwattr $C$DW$260, DW_AT_name("GPASET")
    1458                      .dwattr $C$DW$260, DW_AT_TI_symbol_name("_GPASET")
TMS320C2000 Assembler PC v6.2.5 Sat Sep 16 15:51:24 2017

Tools Copyright (c) 1996-2014 Texas Instruments Incorporated
C:\Users\wmj\AppData\Local\Temp\1274411                              PAGE   28

    1459                      .dwattr $C$DW$260, DW_AT_data_member_location[DW_OP_plus_uconst 0x42]
    1460                      .dwattr $C$DW$260, DW_AT_accessibility(DW_ACCESS_public)
    1461              $C$DW$261       .dwtag  DW_TAG_member
    1462                      .dwattr $C$DW$261, DW_AT_type(*$C$DW$T$50)
    1463                      .dwattr $C$DW$261, DW_AT_name("GPACLEAR")
    1464                      .dwattr $C$DW$261, DW_AT_TI_symbol_name("_GPACLEAR")
    1465                      .dwattr $C$DW$261, DW_AT_data_member_location[DW_OP_plus_uconst 0x44]
    1466                      .dwattr $C$DW$261, DW_AT_accessibility(DW_ACCESS_public)
    1467              $C$DW$262       .dwtag  DW_TAG_member
    1468                      .dwattr $C$DW$262, DW_AT_type(*$C$DW$T$50)
    1469                      .dwattr $C$DW$262, DW_AT_name("GPATOGGLE")
    1470                      .dwattr $C$DW$262, DW_AT_TI_symbol_name("_GPATOGGLE")
    1471                      .dwattr $C$DW$262, DW_AT_data_member_location[DW_OP_plus_uconst 0x46]
    1472                      .dwattr $C$DW$262, DW_AT_accessibility(DW_ACCESS_public)
    1473              $C$DW$263       .dwtag  DW_TAG_member
    1474                      .dwattr $C$DW$263, DW_AT_type(*$C$DW$T$50)
    1475                      .dwattr $C$DW$263, DW_AT_name("GPBDAT")
    1476                      .dwattr $C$DW$263, DW_AT_TI_symbol_name("_GPBDAT")
    1477                      .dwattr $C$DW$263, DW_AT_data_member_location[DW_OP_plus_uconst 0x48]
    1478                      .dwattr $C$DW$263, DW_AT_accessibility(DW_ACCESS_public)
    1479              $C$DW$264       .dwtag  DW_TAG_member
    1480                      .dwattr $C$DW$264, DW_AT_type(*$C$DW$T$50)
    1481                      .dwattr $C$DW$264, DW_AT_name("GPBSET")
    1482                      .dwattr $C$DW$264, DW_AT_TI_symbol_name("_GPBSET")
    1483                      .dwattr $C$DW$264, DW_AT_data_member_location[DW_OP_plus_uconst 0x4a]
    1484                      .dwattr $C$DW$264, DW_AT_accessibility(DW_ACCESS_public)
    1485              $C$DW$265       .dwtag  DW_TAG_member
    1486                      .dwattr $C$DW$265, DW_AT_type(*$C$DW$T$50)
    1487                      .dwattr $C$DW$265, DW_AT_name("GPBCLEAR")
    1488                      .dwattr $C$DW$265, DW_AT_TI_symbol_name("_GPBCLEAR")
    1489                      .dwattr $C$DW$265, DW_AT_data_member_location[DW_OP_plus_uconst 0x4c]
    1490                      .dwattr $C$DW$265, DW_AT_accessibility(DW_ACCESS_public)
    1491              $C$DW$266       .dwtag  DW_TAG_member
    1492                      .dwattr $C$DW$266, DW_AT_type(*$C$DW$T$50)
    1493                      .dwattr $C$DW$266, DW_AT_name("GPBTOGGLE")
    1494                      .dwattr $C$DW$266, DW_AT_TI_symbol_name("_GPBTOGGLE")
    1495                      .dwattr $C$DW$266, DW_AT_data_member_location[DW_OP_plus_uconst 0x4e]
    1496                      .dwattr $C$DW$266, DW_AT_accessibility(DW_ACCESS_public)
    1497              $C$DW$267       .dwtag  DW_TAG_member
    1498                      .dwattr $C$DW$267, DW_AT_type(*$C$DW$T$33)
    1499                      .dwattr $C$DW$267, DW_AT_name("rsvd_7")
    1500                      .dwattr $C$DW$267, DW_AT_TI_symbol_name("_rsvd_7")
    1501                      .dwattr $C$DW$267, DW_AT_data_member_location[DW_OP_plus_uconst 0x50]
    1502                      .dwattr $C$DW$267, DW_AT_accessibility(DW_ACCESS_public)
    1503              $C$DW$268       .dwtag  DW_TAG_member
    1504                      .dwattr $C$DW$268, DW_AT_type(*$C$DW$T$50)
    1505                      .dwattr $C$DW$268, DW_AT_name("AIODAT")
    1506                      .dwattr $C$DW$268, DW_AT_TI_symbol_name("_AIODAT")
    1507                      .dwattr $C$DW$268, DW_AT_data_member_location[DW_OP_plus_uconst 0x58]
    1508                      .dwattr $C$DW$268, DW_AT_accessibility(DW_ACCESS_public)
    1509              $C$DW$269       .dwtag  DW_TAG_member
    1510                      .dwattr $C$DW$269, DW_AT_type(*$C$DW$T$50)
    1511                      .dwattr $C$DW$269, DW_AT_name("AIOSET")
    1512                      .dwattr $C$DW$269, DW_AT_TI_symbol_name("_AIOSET")
    1513                      .dwattr $C$DW$269, DW_AT_data_member_location[DW_OP_plus_uconst 0x5a]
TMS320C2000 Assembler PC v6.2.5 Sat Sep 16 15:51:24 2017

Tools Copyright (c) 1996-2014 Texas Instruments Incorporated
C:\Users\wmj\AppData\Local\Temp\1274411                              PAGE   29

    1514                      .dwattr $C$DW$269, DW_AT_accessibility(DW_ACCESS_public)
    1515              $C$DW$270       .dwtag  DW_TAG_member
    1516                      .dwattr $C$DW$270, DW_AT_type(*$C$DW$T$50)
    1517                      .dwattr $C$DW$270, DW_AT_name("AIOCLEAR")
    1518                      .dwattr $C$DW$270, DW_AT_TI_symbol_name("_AIOCLEAR")
    1519                      .dwattr $C$DW$270, DW_AT_data_member_location[DW_OP_plus_uconst 0x5c]
    1520                      .dwattr $C$DW$270, DW_AT_accessibility(DW_ACCESS_public)
    1521              $C$DW$271       .dwtag  DW_TAG_member
    1522                      .dwattr $C$DW$271, DW_AT_type(*$C$DW$T$50)
    1523                      .dwattr $C$DW$271, DW_AT_name("AIOTOGGLE")
    1524                      .dwattr $C$DW$271, DW_AT_TI_symbol_name("_AIOTOGGLE")
    1525                      .dwattr $C$DW$271, DW_AT_data_member_location[DW_OP_plus_uconst 0x5e]
    1526                      .dwattr $C$DW$271, DW_AT_accessibility(DW_ACCESS_public)
    1527              $C$DW$272       .dwtag  DW_TAG_member
    1528                      .dwattr $C$DW$272, DW_AT_type(*$C$DW$T$29)
    1529                      .dwattr $C$DW$272, DW_AT_name("GPIOXINTnSEL")
    1530                      .dwattr $C$DW$272, DW_AT_TI_symbol_name("_GPIOXINTnSEL")
    1531                      .dwattr $C$DW$272, DW_AT_data_member_location[DW_OP_plus_uconst 0x60]
    1532                      .dwattr $C$DW$272, DW_AT_accessibility(DW_ACCESS_public)
    1533              $C$DW$273       .dwtag  DW_TAG_member
    1534                      .dwattr $C$DW$273, DW_AT_type(*$C$DW$T$28)
    1535                      .dwattr $C$DW$273, DW_AT_name("rsvd_8")
    1536                      .dwattr $C$DW$273, DW_AT_TI_symbol_name("_rsvd_8")
    1537                      .dwattr $C$DW$273, DW_AT_data_member_location[DW_OP_plus_uconst 0x63]
    1538                      .dwattr $C$DW$273, DW_AT_accessibility(DW_ACCESS_public)
    1539              $C$DW$274       .dwtag  DW_TAG_member
    1540                      .dwattr $C$DW$274, DW_AT_type(*$C$DW$T$50)
    1541                      .dwattr $C$DW$274, DW_AT_name("GPIOLPMSEL")
    1542                      .dwattr $C$DW$274, DW_AT_TI_symbol_name("_GPIOLPMSEL")
    1543                      .dwattr $C$DW$274, DW_AT_data_member_location[DW_OP_plus_uconst 0x68]
    1544                      .dwattr $C$DW$274, DW_AT_accessibility(DW_ACCESS_public)
    1545                      .dwendtag $C$DW$T$53
    1546              
    1547              $C$DW$T$39      .dwtag  DW_TAG_pointer_type
    1548                      .dwattr $C$DW$T$39, DW_AT_type(*$C$DW$T$53)
    1549                      .dwattr $C$DW$T$39, DW_AT_address_class(0x16)
    1550              $C$DW$T$40      .dwtag  DW_TAG_typedef, DW_AT_name("GPIO_Handle")
    1551                      .dwattr $C$DW$T$40, DW_AT_type(*$C$DW$T$39)
    1552                      .dwattr $C$DW$T$40, DW_AT_language(DW_LANG_C)
    1553              
    1554              $C$DW$T$55      .dwtag  DW_TAG_structure_type
    1555                      .dwattr $C$DW$T$55, DW_AT_name("_HAL_AdcData_t_")
    1556                      .dwattr $C$DW$T$55, DW_AT_byte_size(0x16)
    1557              $C$DW$275       .dwtag  DW_TAG_member
    1558                      .dwattr $C$DW$275, DW_AT_type(*$C$DW$T$54)
    1559                      .dwattr $C$DW$275, DW_AT_name("I")
    1560                      .dwattr $C$DW$275, DW_AT_TI_symbol_name("_I")
    1561                      .dwattr $C$DW$275, DW_AT_data_member_location[DW_OP_plus_uconst 0x0]
    1562                      .dwattr $C$DW$275, DW_AT_accessibility(DW_ACCESS_public)
    1563              $C$DW$276       .dwtag  DW_TAG_member
    1564                      .dwattr $C$DW$276, DW_AT_type(*$C$DW$T$54)
    1565                      .dwattr $C$DW$276, DW_AT_name("V")
    1566                      .dwattr $C$DW$276, DW_AT_TI_symbol_name("_V")
    1567                      .dwattr $C$DW$276, DW_AT_data_member_location[DW_OP_plus_uconst 0x6]
    1568                      .dwattr $C$DW$276, DW_AT_accessibility(DW_ACCESS_public)
TMS320C2000 Assembler PC v6.2.5 Sat Sep 16 15:51:24 2017

Tools Copyright (c) 1996-2014 Texas Instruments Incorporated
C:\Users\wmj\AppData\Local\Temp\1274411                              PAGE   30

    1569              $C$DW$277       .dwtag  DW_TAG_member
    1570                      .dwattr $C$DW$277, DW_AT_type(*$C$DW$T$46)
    1571                      .dwattr $C$DW$277, DW_AT_name("dcBus")
    1572                      .dwattr $C$DW$277, DW_AT_TI_symbol_name("_dcBus")
    1573                      .dwattr $C$DW$277, DW_AT_data_member_location[DW_OP_plus_uconst 0xc]
    1574                      .dwattr $C$DW$277, DW_AT_accessibility(DW_ACCESS_public)
    1575              $C$DW$278       .dwtag  DW_TAG_member
    1576                      .dwattr $C$DW$278, DW_AT_type(*$C$DW$T$46)
    1577                      .dwattr $C$DW$278, DW_AT_name("analogSensor1")
    1578                      .dwattr $C$DW$278, DW_AT_TI_symbol_name("_analogSensor1")
    1579                      .dwattr $C$DW$278, DW_AT_data_member_location[DW_OP_plus_uconst 0xe]
    1580                      .dwattr $C$DW$278, DW_AT_accessibility(DW_ACCESS_public)
    1581              $C$DW$279       .dwtag  DW_TAG_member
    1582                      .dwattr $C$DW$279, DW_AT_type(*$C$DW$T$46)
    1583                      .dwattr $C$DW$279, DW_AT_name("analogSensor2")
    1584                      .dwattr $C$DW$279, DW_AT_TI_symbol_name("_analogSensor2")
    1585                      .dwattr $C$DW$279, DW_AT_data_member_location[DW_OP_plus_uconst 0x10]
    1586                      .dwattr $C$DW$279, DW_AT_accessibility(DW_ACCESS_public)
    1587              $C$DW$280       .dwtag  DW_TAG_member
    1588                      .dwattr $C$DW$280, DW_AT_type(*$C$DW$T$46)
    1589                      .dwattr $C$DW$280, DW_AT_name("igbtNTC")
    1590                      .dwattr $C$DW$280, DW_AT_TI_symbol_name("_igbtNTC")
    1591                      .dwattr $C$DW$280, DW_AT_data_member_location[DW_OP_plus_uconst 0x12]
    1592                      .dwattr $C$DW$280, DW_AT_accessibility(DW_ACCESS_public)
    1593              $C$DW$281       .dwtag  DW_TAG_member
    1594                      .dwattr $C$DW$281, DW_AT_type(*$C$DW$T$46)
    1595                      .dwattr $C$DW$281, DW_AT_name("boardAddr")
    1596                      .dwattr $C$DW$281, DW_AT_TI_symbol_name("_boardAddr")
    1597                      .dwattr $C$DW$281, DW_AT_data_member_location[DW_OP_plus_uconst 0x14]
    1598                      .dwattr $C$DW$281, DW_AT_accessibility(DW_ACCESS_public)
    1599                      .dwendtag $C$DW$T$55
    1600              
    1601              $C$DW$T$89      .dwtag  DW_TAG_typedef, DW_AT_name("HAL_AdcData_t")
    1602                      .dwattr $C$DW$T$89, DW_AT_type(*$C$DW$T$55)
    1603                      .dwattr $C$DW$T$89, DW_AT_language(DW_LANG_C)
    1604              
    1605              $C$DW$T$92      .dwtag  DW_TAG_structure_type
    1606                      .dwattr $C$DW$T$92, DW_AT_name("_HAL_Obj_")
    1607                      .dwattr $C$DW$T$92, DW_AT_byte_size(0xb6)
    1608              $C$DW$282       .dwtag  DW_TAG_member
    1609                      .dwattr $C$DW$282, DW_AT_type(*$C$DW$T$57)
    1610                      .dwattr $C$DW$282, DW_AT_name("adcHandle")
    1611                      .dwattr $C$DW$282, DW_AT_TI_symbol_name("_adcHandle")
    1612                      .dwattr $C$DW$282, DW_AT_data_member_location[DW_OP_plus_uconst 0x0]
    1613                      .dwattr $C$DW$282, DW_AT_accessibility(DW_ACCESS_public)
    1614              $C$DW$283       .dwtag  DW_TAG_member
    1615                      .dwattr $C$DW$283, DW_AT_type(*$C$DW$T$59)
    1616                      .dwattr $C$DW$283, DW_AT_name("clkHandle")
    1617                      .dwattr $C$DW$283, DW_AT_TI_symbol_name("_clkHandle")
    1618                      .dwattr $C$DW$283, DW_AT_data_member_location[DW_OP_plus_uconst 0x2]
    1619                      .dwattr $C$DW$283, DW_AT_accessibility(DW_ACCESS_public)
    1620              $C$DW$284       .dwtag  DW_TAG_member
    1621                      .dwattr $C$DW$284, DW_AT_type(*$C$DW$T$61)
    1622                      .dwattr $C$DW$284, DW_AT_name("cpuHandle")
    1623                      .dwattr $C$DW$284, DW_AT_TI_symbol_name("_cpuHandle")
TMS320C2000 Assembler PC v6.2.5 Sat Sep 16 15:51:24 2017

Tools Copyright (c) 1996-2014 Texas Instruments Incorporated
C:\Users\wmj\AppData\Local\Temp\1274411                              PAGE   31

    1624                      .dwattr $C$DW$284, DW_AT_data_member_location[DW_OP_plus_uconst 0x4]
    1625                      .dwattr $C$DW$284, DW_AT_accessibility(DW_ACCESS_public)
    1626              $C$DW$285       .dwtag  DW_TAG_member
    1627                      .dwattr $C$DW$285, DW_AT_type(*$C$DW$T$63)
    1628                      .dwattr $C$DW$285, DW_AT_name("flashHandle")
    1629                      .dwattr $C$DW$285, DW_AT_TI_symbol_name("_flashHandle")
    1630                      .dwattr $C$DW$285, DW_AT_data_member_location[DW_OP_plus_uconst 0x6]
    1631                      .dwattr $C$DW$285, DW_AT_accessibility(DW_ACCESS_public)
    1632              $C$DW$286       .dwtag  DW_TAG_member
    1633                      .dwattr $C$DW$286, DW_AT_type(*$C$DW$T$40)
    1634                      .dwattr $C$DW$286, DW_AT_name("gpioHandle")
    1635                      .dwattr $C$DW$286, DW_AT_TI_symbol_name("_gpioHandle")
    1636                      .dwattr $C$DW$286, DW_AT_data_member_location[DW_OP_plus_uconst 0x8]
    1637                      .dwattr $C$DW$286, DW_AT_accessibility(DW_ACCESS_public)
    1638              $C$DW$287       .dwtag  DW_TAG_member
    1639                      .dwattr $C$DW$287, DW_AT_type(*$C$DW$T$66)
    1640                      .dwattr $C$DW$287, DW_AT_name("offsetHandle_I")
    1641                      .dwattr $C$DW$287, DW_AT_TI_symbol_name("_offsetHandle_I")
    1642                      .dwattr $C$DW$287, DW_AT_data_member_location[DW_OP_plus_uconst 0xa]
    1643                      .dwattr $C$DW$287, DW_AT_accessibility(DW_ACCESS_public)
    1644              $C$DW$288       .dwtag  DW_TAG_member
    1645                      .dwattr $C$DW$288, DW_AT_type(*$C$DW$T$68)
    1646                      .dwattr $C$DW$288, DW_AT_name("offset_I")
    1647                      .dwattr $C$DW$288, DW_AT_TI_symbol_name("_offset_I")
    1648                      .dwattr $C$DW$288, DW_AT_data_member_location[DW_OP_plus_uconst 0x10]
    1649                      .dwattr $C$DW$288, DW_AT_accessibility(DW_ACCESS_public)
    1650              $C$DW$289       .dwtag  DW_TAG_member
    1651                      .dwattr $C$DW$289, DW_AT_type(*$C$DW$T$66)
    1652                      .dwattr $C$DW$289, DW_AT_name("offsetHandle_V")
    1653                      .dwattr $C$DW$289, DW_AT_TI_symbol_name("_offsetHandle_V")
    1654                      .dwattr $C$DW$289, DW_AT_data_member_location[DW_OP_plus_uconst 0x40]
    1655                      .dwattr $C$DW$289, DW_AT_accessibility(DW_ACCESS_public)
    1656              $C$DW$290       .dwtag  DW_TAG_member
    1657                      .dwattr $C$DW$290, DW_AT_type(*$C$DW$T$68)
    1658                      .dwattr $C$DW$290, DW_AT_name("offset_V")
    1659                      .dwattr $C$DW$290, DW_AT_TI_symbol_name("_offset_V")
    1660                      .dwattr $C$DW$290, DW_AT_data_member_location[DW_OP_plus_uconst 0x46]
    1661                      .dwattr $C$DW$290, DW_AT_accessibility(DW_ACCESS_public)
    1662              $C$DW$291       .dwtag  DW_TAG_member
    1663                      .dwattr $C$DW$291, DW_AT_type(*$C$DW$T$70)
    1664                      .dwattr $C$DW$291, DW_AT_name("oscHandle")
    1665                      .dwattr $C$DW$291, DW_AT_TI_symbol_name("_oscHandle")
    1666                      .dwattr $C$DW$291, DW_AT_data_member_location[DW_OP_plus_uconst 0x76]
    1667                      .dwattr $C$DW$291, DW_AT_accessibility(DW_ACCESS_public)
    1668              $C$DW$292       .dwtag  DW_TAG_member
    1669                      .dwattr $C$DW$292, DW_AT_type(*$C$DW$T$72)
    1670                      .dwattr $C$DW$292, DW_AT_name("pieHandle")
    1671                      .dwattr $C$DW$292, DW_AT_TI_symbol_name("_pieHandle")
    1672                      .dwattr $C$DW$292, DW_AT_data_member_location[DW_OP_plus_uconst 0x78]
    1673                      .dwattr $C$DW$292, DW_AT_accessibility(DW_ACCESS_public)
    1674              $C$DW$293       .dwtag  DW_TAG_member
    1675                      .dwattr $C$DW$293, DW_AT_type(*$C$DW$T$74)
    1676                      .dwattr $C$DW$293, DW_AT_name("pllHandle")
    1677                      .dwattr $C$DW$293, DW_AT_TI_symbol_name("_pllHandle")
    1678                      .dwattr $C$DW$293, DW_AT_data_member_location[DW_OP_plus_uconst 0x7a]
TMS320C2000 Assembler PC v6.2.5 Sat Sep 16 15:51:24 2017

Tools Copyright (c) 1996-2014 Texas Instruments Incorporated
C:\Users\wmj\AppData\Local\Temp\1274411                              PAGE   32

    1679                      .dwattr $C$DW$293, DW_AT_accessibility(DW_ACCESS_public)
    1680              $C$DW$294       .dwtag  DW_TAG_member
    1681                      .dwattr $C$DW$294, DW_AT_type(*$C$DW$T$77)
    1682                      .dwattr $C$DW$294, DW_AT_name("pwmHandle")
    1683                      .dwattr $C$DW$294, DW_AT_TI_symbol_name("_pwmHandle")
    1684                      .dwattr $C$DW$294, DW_AT_data_member_location[DW_OP_plus_uconst 0x7c]
    1685                      .dwattr $C$DW$294, DW_AT_accessibility(DW_ACCESS_public)
    1686              $C$DW$295       .dwtag  DW_TAG_member
    1687                      .dwattr $C$DW$295, DW_AT_type(*$C$DW$T$77)
    1688                      .dwattr $C$DW$295, DW_AT_name("pwmDacHandle")
    1689                      .dwattr $C$DW$295, DW_AT_TI_symbol_name("_pwmDacHandle")
    1690                      .dwattr $C$DW$295, DW_AT_data_member_location[DW_OP_plus_uconst 0x82]
    1691                      .dwattr $C$DW$295, DW_AT_accessibility(DW_ACCESS_public)
    1692              $C$DW$296       .dwtag  DW_TAG_member
    1693                      .dwattr $C$DW$296, DW_AT_type(*$C$DW$T$79)
    1694                      .dwattr $C$DW$296, DW_AT_name("pwrHandle")
    1695                      .dwattr $C$DW$296, DW_AT_TI_symbol_name("_pwrHandle")
    1696                      .dwattr $C$DW$296, DW_AT_data_member_location[DW_OP_plus_uconst 0x88]
    1697                      .dwattr $C$DW$296, DW_AT_accessibility(DW_ACCESS_public)
    1698              $C$DW$297       .dwtag  DW_TAG_member
    1699                      .dwattr $C$DW$297, DW_AT_type(*$C$DW$T$82)
    1700                      .dwattr $C$DW$297, DW_AT_name("timerHandle")
    1701                      .dwattr $C$DW$297, DW_AT_TI_symbol_name("_timerHandle")
    1702                      .dwattr $C$DW$297, DW_AT_data_member_location[DW_OP_plus_uconst 0x8a]
    1703                      .dwattr $C$DW$297, DW_AT_accessibility(DW_ACCESS_public)
    1704              $C$DW$298       .dwtag  DW_TAG_member
    1705                      .dwattr $C$DW$298, DW_AT_type(*$C$DW$T$84)
    1706                      .dwattr $C$DW$298, DW_AT_name("i2cHandle")
    1707                      .dwattr $C$DW$298, DW_AT_TI_symbol_name("_i2cHandle")
    1708                      .dwattr $C$DW$298, DW_AT_data_member_location[DW_OP_plus_uconst 0x90]
    1709                      .dwattr $C$DW$298, DW_AT_accessibility(DW_ACCESS_public)
    1710              $C$DW$299       .dwtag  DW_TAG_member
    1711                      .dwattr $C$DW$299, DW_AT_type(*$C$DW$T$38)
    1712                      .dwattr $C$DW$299, DW_AT_name("spiAHandle")
    1713                      .dwattr $C$DW$299, DW_AT_TI_symbol_name("_spiAHandle")
    1714                      .dwattr $C$DW$299, DW_AT_data_member_location[DW_OP_plus_uconst 0x92]
    1715                      .dwattr $C$DW$299, DW_AT_accessibility(DW_ACCESS_public)
    1716              $C$DW$300       .dwtag  DW_TAG_member
    1717                      .dwattr $C$DW$300, DW_AT_type(*$C$DW$T$86)
    1718                      .dwattr $C$DW$300, DW_AT_name("wdogHandle")
    1719                      .dwattr $C$DW$300, DW_AT_TI_symbol_name("_wdogHandle")
    1720                      .dwattr $C$DW$300, DW_AT_data_member_location[DW_OP_plus_uconst 0x94]
    1721                      .dwattr $C$DW$300, DW_AT_accessibility(DW_ACCESS_public)
    1722              $C$DW$301       .dwtag  DW_TAG_member
    1723                      .dwattr $C$DW$301, DW_AT_type(*$C$DW$T$88)
    1724                      .dwattr $C$DW$301, DW_AT_name("sciHandle")
    1725                      .dwattr $C$DW$301, DW_AT_TI_symbol_name("_sciHandle")
    1726                      .dwattr $C$DW$301, DW_AT_data_member_location[DW_OP_plus_uconst 0x96]
    1727                      .dwattr $C$DW$301, DW_AT_accessibility(DW_ACCESS_public)
    1728              $C$DW$302       .dwtag  DW_TAG_member
    1729                      .dwattr $C$DW$302, DW_AT_type(*$C$DW$T$89)
    1730                      .dwattr $C$DW$302, DW_AT_name("adcBias")
    1731                      .dwattr $C$DW$302, DW_AT_TI_symbol_name("_adcBias")
    1732                      .dwattr $C$DW$302, DW_AT_data_member_location[DW_OP_plus_uconst 0x98]
    1733                      .dwattr $C$DW$302, DW_AT_accessibility(DW_ACCESS_public)
TMS320C2000 Assembler PC v6.2.5 Sat Sep 16 15:51:24 2017

Tools Copyright (c) 1996-2014 Texas Instruments Incorporated
C:\Users\wmj\AppData\Local\Temp\1274411                              PAGE   33

    1734              $C$DW$303       .dwtag  DW_TAG_member
    1735                      .dwattr $C$DW$303, DW_AT_type(*$C$DW$T$46)
    1736                      .dwattr $C$DW$303, DW_AT_name("current_sf")
    1737                      .dwattr $C$DW$303, DW_AT_TI_symbol_name("_current_sf")
    1738                      .dwattr $C$DW$303, DW_AT_data_member_location[DW_OP_plus_uconst 0xae]
    1739                      .dwattr $C$DW$303, DW_AT_accessibility(DW_ACCESS_public)
    1740              $C$DW$304       .dwtag  DW_TAG_member
    1741                      .dwattr $C$DW$304, DW_AT_type(*$C$DW$T$46)
    1742                      .dwattr $C$DW$304, DW_AT_name("voltage_sf")
    1743                      .dwattr $C$DW$304, DW_AT_TI_symbol_name("_voltage_sf")
    1744                      .dwattr $C$DW$304, DW_AT_data_member_location[DW_OP_plus_uconst 0xb0]
    1745                      .dwattr $C$DW$304, DW_AT_accessibility(DW_ACCESS_public)
    1746              $C$DW$305       .dwtag  DW_TAG_member
    1747                      .dwattr $C$DW$305, DW_AT_type(*$C$DW$T$35)
    1748                      .dwattr $C$DW$305, DW_AT_name("numCurrentSensors")
    1749                      .dwattr $C$DW$305, DW_AT_TI_symbol_name("_numCurrentSensors")
    1750                      .dwattr $C$DW$305, DW_AT_data_member_location[DW_OP_plus_uconst 0xb2]
    1751                      .dwattr $C$DW$305, DW_AT_accessibility(DW_ACCESS_public)
    1752              $C$DW$306       .dwtag  DW_TAG_member
    1753                      .dwattr $C$DW$306, DW_AT_type(*$C$DW$T$35)
    1754                      .dwattr $C$DW$306, DW_AT_name("numVoltageSensors")
    1755                      .dwattr $C$DW$306, DW_AT_TI_symbol_name("_numVoltageSensors")
    1756                      .dwattr $C$DW$306, DW_AT_data_member_location[DW_OP_plus_uconst 0xb3]
    1757                      .dwattr $C$DW$306, DW_AT_accessibility(DW_ACCESS_public)
    1758              $C$DW$307       .dwtag  DW_TAG_member
    1759                      .dwattr $C$DW$307, DW_AT_type(*$C$DW$T$91)
    1760                      .dwattr $C$DW$307, DW_AT_name("boardAddress")
    1761                      .dwattr $C$DW$307, DW_AT_TI_symbol_name("_boardAddress")
    1762                      .dwattr $C$DW$307, DW_AT_data_member_location[DW_OP_plus_uconst 0xb4]
    1763                      .dwattr $C$DW$307, DW_AT_accessibility(DW_ACCESS_public)
    1764                      .dwendtag $C$DW$T$92
    1765              
    1766              $C$DW$T$156     .dwtag  DW_TAG_pointer_type
    1767                      .dwattr $C$DW$T$156, DW_AT_type(*$C$DW$T$92)
    1768                      .dwattr $C$DW$T$156, DW_AT_address_class(0x16)
    1769              $C$DW$T$157     .dwtag  DW_TAG_typedef, DW_AT_name("HAL_Handle")
    1770                      .dwattr $C$DW$T$157, DW_AT_type(*$C$DW$T$156)
    1771                      .dwattr $C$DW$T$157, DW_AT_language(DW_LANG_C)
    1772              $C$DW$308       .dwtag  DW_TAG_TI_far_type
    1773                      .dwattr $C$DW$308, DW_AT_type(*$C$DW$T$157)
    1774              $C$DW$T$187     .dwtag  DW_TAG_const_type
    1775                      .dwattr $C$DW$T$187, DW_AT_type(*$C$DW$308)
    1776              
    1777              $C$DW$T$93      .dwtag  DW_TAG_structure_type
    1778                      .dwattr $C$DW$T$93, DW_AT_name("_LDC1612_CONFIG_t_")
    1779                      .dwattr $C$DW$T$93, DW_AT_byte_size(0x09)
    1780              $C$DW$309       .dwtag  DW_TAG_member
    1781                      .dwattr $C$DW$309, DW_AT_type(*$C$DW$T$43)
    1782                      .dwattr $C$DW$309, DW_AT_name("ACTIVE_CHAN_0")
    1783                      .dwattr $C$DW$309, DW_AT_TI_symbol_name("_ACTIVE_CHAN_0")
    1784                      .dwattr $C$DW$309, DW_AT_data_member_location[DW_OP_plus_uconst 0x0]
    1785                      .dwattr $C$DW$309, DW_AT_accessibility(DW_ACCESS_public)
    1786              $C$DW$310       .dwtag  DW_TAG_member
    1787                      .dwattr $C$DW$310, DW_AT_type(*$C$DW$T$43)
    1788                      .dwattr $C$DW$310, DW_AT_name("ACTIVE_CHAN_1")
TMS320C2000 Assembler PC v6.2.5 Sat Sep 16 15:51:24 2017

Tools Copyright (c) 1996-2014 Texas Instruments Incorporated
C:\Users\wmj\AppData\Local\Temp\1274411                              PAGE   34

    1789                      .dwattr $C$DW$310, DW_AT_TI_symbol_name("_ACTIVE_CHAN_1")
    1790                      .dwattr $C$DW$310, DW_AT_data_member_location[DW_OP_plus_uconst 0x1]
    1791                      .dwattr $C$DW$310, DW_AT_accessibility(DW_ACCESS_public)
    1792              $C$DW$311       .dwtag  DW_TAG_member
    1793                      .dwattr $C$DW$311, DW_AT_type(*$C$DW$T$43)
    1794                      .dwattr $C$DW$311, DW_AT_name("SLEEP_MODE_EN")
    1795                      .dwattr $C$DW$311, DW_AT_TI_symbol_name("_SLEEP_MODE_EN")
    1796                      .dwattr $C$DW$311, DW_AT_data_member_location[DW_OP_plus_uconst 0x2]
    1797                      .dwattr $C$DW$311, DW_AT_accessibility(DW_ACCESS_public)
    1798              $C$DW$312       .dwtag  DW_TAG_member
    1799                      .dwattr $C$DW$312, DW_AT_type(*$C$DW$T$43)
    1800                      .dwattr $C$DW$312, DW_AT_name("RP_OVERRIDE_EN")
    1801                      .dwattr $C$DW$312, DW_AT_TI_symbol_name("_RP_OVERRIDE_EN")
    1802                      .dwattr $C$DW$312, DW_AT_data_member_location[DW_OP_plus_uconst 0x3]
    1803                      .dwattr $C$DW$312, DW_AT_accessibility(DW_ACCESS_public)
    1804              $C$DW$313       .dwtag  DW_TAG_member
    1805                      .dwattr $C$DW$313, DW_AT_type(*$C$DW$T$43)
    1806                      .dwattr $C$DW$313, DW_AT_name("SENSOR_ACTV_SEL")
    1807                      .dwattr $C$DW$313, DW_AT_TI_symbol_name("_SENSOR_ACTV_SEL")
    1808                      .dwattr $C$DW$313, DW_AT_data_member_location[DW_OP_plus_uconst 0x4]
    1809                      .dwattr $C$DW$313, DW_AT_accessibility(DW_ACCESS_public)
    1810              $C$DW$314       .dwtag  DW_TAG_member
    1811                      .dwattr $C$DW$314, DW_AT_type(*$C$DW$T$43)
    1812                      .dwattr $C$DW$314, DW_AT_name("AUTO_AMP_DIS")
    1813                      .dwattr $C$DW$314, DW_AT_TI_symbol_name("_AUTO_AMP_DIS")
    1814                      .dwattr $C$DW$314, DW_AT_data_member_location[DW_OP_plus_uconst 0x5]
    1815                      .dwattr $C$DW$314, DW_AT_accessibility(DW_ACCESS_public)
    1816              $C$DW$315       .dwtag  DW_TAG_member
    1817                      .dwattr $C$DW$315, DW_AT_type(*$C$DW$T$43)
    1818                      .dwattr $C$DW$315, DW_AT_name("REF_CLK_SRC")
    1819                      .dwattr $C$DW$315, DW_AT_TI_symbol_name("_REF_CLK_SRC")
    1820                      .dwattr $C$DW$315, DW_AT_data_member_location[DW_OP_plus_uconst 0x6]
    1821                      .dwattr $C$DW$315, DW_AT_accessibility(DW_ACCESS_public)
    1822              $C$DW$316       .dwtag  DW_TAG_member
    1823                      .dwattr $C$DW$316, DW_AT_type(*$C$DW$T$43)
    1824                      .dwattr $C$DW$316, DW_AT_name("INTB_DIS")
    1825                      .dwattr $C$DW$316, DW_AT_TI_symbol_name("_INTB_DIS")
    1826                      .dwattr $C$DW$316, DW_AT_data_member_location[DW_OP_plus_uconst 0x7]
    1827                      .dwattr $C$DW$316, DW_AT_accessibility(DW_ACCESS_public)
    1828              $C$DW$317       .dwtag  DW_TAG_member
    1829                      .dwattr $C$DW$317, DW_AT_type(*$C$DW$T$43)
    1830                      .dwattr $C$DW$317, DW_AT_name("HIGH_CURRENT_DRV")
    1831                      .dwattr $C$DW$317, DW_AT_TI_symbol_name("_HIGH_CURRENT_DRV")
    1832                      .dwattr $C$DW$317, DW_AT_data_member_location[DW_OP_plus_uconst 0x8]
    1833                      .dwattr $C$DW$317, DW_AT_accessibility(DW_ACCESS_public)
    1834                      .dwendtag $C$DW$T$93
    1835              
    1836              $C$DW$T$112     .dwtag  DW_TAG_typedef, DW_AT_name("LDC1612_CONFIG_t_")
    1837                      .dwattr $C$DW$T$112, DW_AT_type(*$C$DW$T$93)
    1838                      .dwattr $C$DW$T$112, DW_AT_language(DW_LANG_C)
    1839              
    1840              $C$DW$T$95      .dwtag  DW_TAG_structure_type
    1841                      .dwattr $C$DW$T$95, DW_AT_name("_LDC161x_CLK_DIVS_t_")
    1842                      .dwattr $C$DW$T$95, DW_AT_byte_size(0x02)
    1843              $C$DW$318       .dwtag  DW_TAG_member
TMS320C2000 Assembler PC v6.2.5 Sat Sep 16 15:51:24 2017

Tools Copyright (c) 1996-2014 Texas Instruments Incorporated
C:\Users\wmj\AppData\Local\Temp\1274411                              PAGE   35

    1844                      .dwattr $C$DW$318, DW_AT_type(*$C$DW$T$94)
    1845                      .dwattr $C$DW$318, DW_AT_name("CLK_DIVS_CH0")
    1846                      .dwattr $C$DW$318, DW_AT_TI_symbol_name("_CLK_DIVS_CH0")
    1847                      .dwattr $C$DW$318, DW_AT_data_member_location[DW_OP_plus_uconst 0x0]
    1848                      .dwattr $C$DW$318, DW_AT_accessibility(DW_ACCESS_public)
    1849                      .dwendtag $C$DW$T$95
    1850              
    1851              $C$DW$T$109     .dwtag  DW_TAG_typedef, DW_AT_name("LDC161x_CLK_DIVS_t_")
    1852                      .dwattr $C$DW$T$109, DW_AT_type(*$C$DW$T$95)
    1853                      .dwattr $C$DW$T$109, DW_AT_language(DW_LANG_C)
    1854              
    1855              $C$DW$T$96      .dwtag  DW_TAG_structure_type
    1856                      .dwattr $C$DW$T$96, DW_AT_name("_LDC161x_ERROR_CONFIG_t_")
    1857                      .dwattr $C$DW$T$96, DW_AT_byte_size(0x0c)
    1858              $C$DW$319       .dwtag  DW_TAG_member
    1859                      .dwattr $C$DW$319, DW_AT_type(*$C$DW$T$43)
    1860                      .dwattr $C$DW$319, DW_AT_name("UR_ERR2OUT")
    1861                      .dwattr $C$DW$319, DW_AT_TI_symbol_name("_UR_ERR2OUT")
    1862                      .dwattr $C$DW$319, DW_AT_data_member_location[DW_OP_plus_uconst 0x0]
    1863                      .dwattr $C$DW$319, DW_AT_accessibility(DW_ACCESS_public)
    1864              $C$DW$320       .dwtag  DW_TAG_member
    1865                      .dwattr $C$DW$320, DW_AT_type(*$C$DW$T$43)
    1866                      .dwattr $C$DW$320, DW_AT_name("OR_ERR2OUT")
    1867                      .dwattr $C$DW$320, DW_AT_TI_symbol_name("_OR_ERR2OUT")
    1868                      .dwattr $C$DW$320, DW_AT_data_member_location[DW_OP_plus_uconst 0x1]
    1869                      .dwattr $C$DW$320, DW_AT_accessibility(DW_ACCESS_public)
    1870              $C$DW$321       .dwtag  DW_TAG_member
    1871                      .dwattr $C$DW$321, DW_AT_type(*$C$DW$T$43)
    1872                      .dwattr $C$DW$321, DW_AT_name("WD_ERR2OUT")
    1873                      .dwattr $C$DW$321, DW_AT_TI_symbol_name("_WD_ERR2OUT")
    1874                      .dwattr $C$DW$321, DW_AT_data_member_location[DW_OP_plus_uconst 0x2]
    1875                      .dwattr $C$DW$321, DW_AT_accessibility(DW_ACCESS_public)
    1876              $C$DW$322       .dwtag  DW_TAG_member
    1877                      .dwattr $C$DW$322, DW_AT_type(*$C$DW$T$43)
    1878                      .dwattr $C$DW$322, DW_AT_name("AH_ERR2OUT")
    1879                      .dwattr $C$DW$322, DW_AT_TI_symbol_name("_AH_ERR2OUT")
    1880                      .dwattr $C$DW$322, DW_AT_data_member_location[DW_OP_plus_uconst 0x3]
    1881                      .dwattr $C$DW$322, DW_AT_accessibility(DW_ACCESS_public)
    1882              $C$DW$323       .dwtag  DW_TAG_member
    1883                      .dwattr $C$DW$323, DW_AT_type(*$C$DW$T$43)
    1884                      .dwattr $C$DW$323, DW_AT_name("AL_ERR2OUT")
    1885                      .dwattr $C$DW$323, DW_AT_TI_symbol_name("_AL_ERR2OUT")
    1886                      .dwattr $C$DW$323, DW_AT_data_member_location[DW_OP_plus_uconst 0x4]
    1887                      .dwattr $C$DW$323, DW_AT_accessibility(DW_ACCESS_public)
    1888              $C$DW$324       .dwtag  DW_TAG_member
    1889                      .dwattr $C$DW$324, DW_AT_type(*$C$DW$T$43)
    1890                      .dwattr $C$DW$324, DW_AT_name("UR_ERR2INT")
    1891                      .dwattr $C$DW$324, DW_AT_TI_symbol_name("_UR_ERR2INT")
    1892                      .dwattr $C$DW$324, DW_AT_data_member_location[DW_OP_plus_uconst 0x5]
    1893                      .dwattr $C$DW$324, DW_AT_accessibility(DW_ACCESS_public)
    1894              $C$DW$325       .dwtag  DW_TAG_member
    1895                      .dwattr $C$DW$325, DW_AT_type(*$C$DW$T$43)
    1896                      .dwattr $C$DW$325, DW_AT_name("OR_ERR2INT")
    1897                      .dwattr $C$DW$325, DW_AT_TI_symbol_name("_OR_ERR2INT")
    1898                      .dwattr $C$DW$325, DW_AT_data_member_location[DW_OP_plus_uconst 0x6]
TMS320C2000 Assembler PC v6.2.5 Sat Sep 16 15:51:24 2017

Tools Copyright (c) 1996-2014 Texas Instruments Incorporated
C:\Users\wmj\AppData\Local\Temp\1274411                              PAGE   36

    1899                      .dwattr $C$DW$325, DW_AT_accessibility(DW_ACCESS_public)
    1900              $C$DW$326       .dwtag  DW_TAG_member
    1901                      .dwattr $C$DW$326, DW_AT_type(*$C$DW$T$43)
    1902                      .dwattr $C$DW$326, DW_AT_name("WD_ERR2INT")
    1903                      .dwattr $C$DW$326, DW_AT_TI_symbol_name("_WD_ERR2INT")
    1904                      .dwattr $C$DW$326, DW_AT_data_member_location[DW_OP_plus_uconst 0x7]
    1905                      .dwattr $C$DW$326, DW_AT_accessibility(DW_ACCESS_public)
    1906              $C$DW$327       .dwtag  DW_TAG_member
    1907                      .dwattr $C$DW$327, DW_AT_type(*$C$DW$T$43)
    1908                      .dwattr $C$DW$327, DW_AT_name("AH_ERR2INT")
    1909                      .dwattr $C$DW$327, DW_AT_TI_symbol_name("_AH_ERR2INT")
    1910                      .dwattr $C$DW$327, DW_AT_data_member_location[DW_OP_plus_uconst 0x8]
    1911                      .dwattr $C$DW$327, DW_AT_accessibility(DW_ACCESS_public)
    1912              $C$DW$328       .dwtag  DW_TAG_member
    1913                      .dwattr $C$DW$328, DW_AT_type(*$C$DW$T$43)
    1914                      .dwattr $C$DW$328, DW_AT_name("AL_ERR2INT")
    1915                      .dwattr $C$DW$328, DW_AT_TI_symbol_name("_AL_ERR2INT")
    1916                      .dwattr $C$DW$328, DW_AT_data_member_location[DW_OP_plus_uconst 0x9]
    1917                      .dwattr $C$DW$328, DW_AT_accessibility(DW_ACCESS_public)
    1918              $C$DW$329       .dwtag  DW_TAG_member
    1919                      .dwattr $C$DW$329, DW_AT_type(*$C$DW$T$43)
    1920                      .dwattr $C$DW$329, DW_AT_name("ZC_ERR2INT")
    1921                      .dwattr $C$DW$329, DW_AT_TI_symbol_name("_ZC_ERR2INT")
    1922                      .dwattr $C$DW$329, DW_AT_data_member_location[DW_OP_plus_uconst 0xa]
    1923                      .dwattr $C$DW$329, DW_AT_accessibility(DW_ACCESS_public)
    1924              $C$DW$330       .dwtag  DW_TAG_member
    1925                      .dwattr $C$DW$330, DW_AT_type(*$C$DW$T$43)
    1926                      .dwattr $C$DW$330, DW_AT_name("DRDY_2INT")
    1927                      .dwattr $C$DW$330, DW_AT_TI_symbol_name("_DRDY_2INT")
    1928                      .dwattr $C$DW$330, DW_AT_data_member_location[DW_OP_plus_uconst 0xb]
    1929                      .dwattr $C$DW$330, DW_AT_accessibility(DW_ACCESS_public)
    1930                      .dwendtag $C$DW$T$96
    1931              
    1932              $C$DW$T$111     .dwtag  DW_TAG_typedef, DW_AT_name("LDC161x_ERROR_CONFIG_t_")
    1933                      .dwattr $C$DW$T$111, DW_AT_type(*$C$DW$T$96)
    1934                      .dwattr $C$DW$T$111, DW_AT_language(DW_LANG_C)
    1935              
    1936              $C$DW$T$97      .dwtag  DW_TAG_structure_type
    1937                      .dwattr $C$DW$T$97, DW_AT_name("_LDC161x_Kalman_t_")
    1938                      .dwattr $C$DW$T$97, DW_AT_byte_size(0x0a)
    1939              $C$DW$331       .dwtag  DW_TAG_member
    1940                      .dwattr $C$DW$331, DW_AT_type(*$C$DW$T$49)
    1941                      .dwattr $C$DW$331, DW_AT_name("x_Last")
    1942                      .dwattr $C$DW$331, DW_AT_TI_symbol_name("_x_Last")
    1943                      .dwattr $C$DW$331, DW_AT_data_member_location[DW_OP_plus_uconst 0x0]
    1944                      .dwattr $C$DW$331, DW_AT_accessibility(DW_ACCESS_public)
    1945              $C$DW$332       .dwtag  DW_TAG_member
    1946                      .dwattr $C$DW$332, DW_AT_type(*$C$DW$T$49)
    1947                      .dwattr $C$DW$332, DW_AT_name("p_Last")
    1948                      .dwattr $C$DW$332, DW_AT_TI_symbol_name("_p_Last")
    1949                      .dwattr $C$DW$332, DW_AT_data_member_location[DW_OP_plus_uconst 0x2]
    1950                      .dwattr $C$DW$332, DW_AT_accessibility(DW_ACCESS_public)
    1951              $C$DW$333       .dwtag  DW_TAG_member
    1952                      .dwattr $C$DW$333, DW_AT_type(*$C$DW$T$49)
    1953                      .dwattr $C$DW$333, DW_AT_name("data_Last")
TMS320C2000 Assembler PC v6.2.5 Sat Sep 16 15:51:24 2017

Tools Copyright (c) 1996-2014 Texas Instruments Incorporated
C:\Users\wmj\AppData\Local\Temp\1274411                              PAGE   37

    1954                      .dwattr $C$DW$333, DW_AT_TI_symbol_name("_data_Last")
    1955                      .dwattr $C$DW$333, DW_AT_data_member_location[DW_OP_plus_uconst 0x4]
    1956                      .dwattr $C$DW$333, DW_AT_accessibility(DW_ACCESS_public)
    1957              $C$DW$334       .dwtag  DW_TAG_member
    1958                      .dwattr $C$DW$334, DW_AT_type(*$C$DW$T$49)
    1959                      .dwattr $C$DW$334, DW_AT_name("Ldc_Kalman_R")
    1960                      .dwattr $C$DW$334, DW_AT_TI_symbol_name("_Ldc_Kalman_R")
    1961                      .dwattr $C$DW$334, DW_AT_data_member_location[DW_OP_plus_uconst 0x6]
    1962                      .dwattr $C$DW$334, DW_AT_accessibility(DW_ACCESS_public)
    1963              $C$DW$335       .dwtag  DW_TAG_member
    1964                      .dwattr $C$DW$335, DW_AT_type(*$C$DW$T$49)
    1965                      .dwattr $C$DW$335, DW_AT_name("Ldc_Kalman_Q")
    1966                      .dwattr $C$DW$335, DW_AT_TI_symbol_name("_Ldc_Kalman_Q")
    1967                      .dwattr $C$DW$335, DW_AT_data_member_location[DW_OP_plus_uconst 0x8]
    1968                      .dwattr $C$DW$335, DW_AT_accessibility(DW_ACCESS_public)
    1969                      .dwendtag $C$DW$T$97
    1970              
    1971              $C$DW$T$115     .dwtag  DW_TAG_typedef, DW_AT_name("LDC161x_Kalman_t_")
    1972                      .dwattr $C$DW$T$115, DW_AT_type(*$C$DW$T$97)
    1973                      .dwattr $C$DW$T$115, DW_AT_language(DW_LANG_C)
    1974              
    1975              $C$DW$T$98      .dwtag  DW_TAG_structure_type
    1976                      .dwattr $C$DW$T$98, DW_AT_name("_LDC161x_MUX_CONFIG_t_")
    1977                      .dwattr $C$DW$T$98, DW_AT_byte_size(0x06)
    1978              $C$DW$336       .dwtag  DW_TAG_member
    1979                      .dwattr $C$DW$336, DW_AT_type(*$C$DW$T$43)
    1980                      .dwattr $C$DW$336, DW_AT_name("AUTOSCAN_EN")
    1981                      .dwattr $C$DW$336, DW_AT_TI_symbol_name("_AUTOSCAN_EN")
    1982                      .dwattr $C$DW$336, DW_AT_data_member_location[DW_OP_plus_uconst 0x0]
    1983                      .dwattr $C$DW$336, DW_AT_accessibility(DW_ACCESS_public)
    1984              $C$DW$337       .dwtag  DW_TAG_member
    1985                      .dwattr $C$DW$337, DW_AT_type(*$C$DW$T$43)
    1986                      .dwattr $C$DW$337, DW_AT_name("RR_SEQUENCE_0")
    1987                      .dwattr $C$DW$337, DW_AT_TI_symbol_name("_RR_SEQUENCE_0")
    1988                      .dwattr $C$DW$337, DW_AT_data_member_location[DW_OP_plus_uconst 0x1]
    1989                      .dwattr $C$DW$337, DW_AT_accessibility(DW_ACCESS_public)
    1990              $C$DW$338       .dwtag  DW_TAG_member
    1991                      .dwattr $C$DW$338, DW_AT_type(*$C$DW$T$43)
    1992                      .dwattr $C$DW$338, DW_AT_name("RR_SEQUENCE_1")
    1993                      .dwattr $C$DW$338, DW_AT_TI_symbol_name("_RR_SEQUENCE_1")
    1994                      .dwattr $C$DW$338, DW_AT_data_member_location[DW_OP_plus_uconst 0x2]
    1995                      .dwattr $C$DW$338, DW_AT_accessibility(DW_ACCESS_public)
    1996              $C$DW$339       .dwtag  DW_TAG_member
    1997                      .dwattr $C$DW$339, DW_AT_type(*$C$DW$T$43)
    1998                      .dwattr $C$DW$339, DW_AT_name("DEGLITCH_0")
    1999                      .dwattr $C$DW$339, DW_AT_TI_symbol_name("_DEGLITCH_0")
    2000                      .dwattr $C$DW$339, DW_AT_data_member_location[DW_OP_plus_uconst 0x3]
    2001                      .dwattr $C$DW$339, DW_AT_accessibility(DW_ACCESS_public)
    2002              $C$DW$340       .dwtag  DW_TAG_member
    2003                      .dwattr $C$DW$340, DW_AT_type(*$C$DW$T$43)
    2004                      .dwattr $C$DW$340, DW_AT_name("DEGLITCH_1")
    2005                      .dwattr $C$DW$340, DW_AT_TI_symbol_name("_DEGLITCH_1")
    2006                      .dwattr $C$DW$340, DW_AT_data_member_location[DW_OP_plus_uconst 0x4]
    2007                      .dwattr $C$DW$340, DW_AT_accessibility(DW_ACCESS_public)
    2008              $C$DW$341       .dwtag  DW_TAG_member
TMS320C2000 Assembler PC v6.2.5 Sat Sep 16 15:51:24 2017

Tools Copyright (c) 1996-2014 Texas Instruments Incorporated
C:\Users\wmj\AppData\Local\Temp\1274411                              PAGE   38

    2009                      .dwattr $C$DW$341, DW_AT_type(*$C$DW$T$43)
    2010                      .dwattr $C$DW$341, DW_AT_name("DEGLITCH_2")
    2011                      .dwattr $C$DW$341, DW_AT_TI_symbol_name("_DEGLITCH_2")
    2012                      .dwattr $C$DW$341, DW_AT_data_member_location[DW_OP_plus_uconst 0x5]
    2013                      .dwattr $C$DW$341, DW_AT_accessibility(DW_ACCESS_public)
    2014                      .dwendtag $C$DW$T$98
    2015              
    2016              $C$DW$T$113     .dwtag  DW_TAG_typedef, DW_AT_name("LDC161x_MUX_CONFIG_t_")
    2017                      .dwattr $C$DW$T$113, DW_AT_type(*$C$DW$T$98)
    2018                      .dwattr $C$DW$T$113, DW_AT_language(DW_LANG_C)
    2019              
    2020              $C$DW$T$99      .dwtag  DW_TAG_structure_type
    2021                      .dwattr $C$DW$T$99, DW_AT_name("_LDC161x_OFFSET_t_")
    2022                      .dwattr $C$DW$T$99, DW_AT_byte_size(0x01)
    2023              $C$DW$342       .dwtag  DW_TAG_member
    2024                      .dwattr $C$DW$342, DW_AT_type(*$C$DW$T$23)
    2025                      .dwattr $C$DW$342, DW_AT_name("OFFSET_CH0")
    2026                      .dwattr $C$DW$342, DW_AT_TI_symbol_name("_OFFSET_CH0")
    2027                      .dwattr $C$DW$342, DW_AT_data_member_location[DW_OP_plus_uconst 0x0]
    2028                      .dwattr $C$DW$342, DW_AT_accessibility(DW_ACCESS_public)
    2029                      .dwendtag $C$DW$T$99
    2030              
    2031              $C$DW$T$107     .dwtag  DW_TAG_typedef, DW_AT_name("LDC161x_OFFSET_t_")
    2032                      .dwattr $C$DW$T$107, DW_AT_type(*$C$DW$T$99)
    2033                      .dwattr $C$DW$T$107, DW_AT_language(DW_LANG_C)
    2034              
    2035              $C$DW$T$103     .dwtag  DW_TAG_structure_type
    2036                      .dwattr $C$DW$T$103, DW_AT_name("_LDC161x_Obj_")
    2037                      .dwattr $C$DW$T$103, DW_AT_byte_size(0x4a)
    2038              $C$DW$343       .dwtag  DW_TAG_member
    2039                      .dwattr $C$DW$343, DW_AT_type(*$C$DW$T$84)
    2040                      .dwattr $C$DW$343, DW_AT_name("i2cHandle")
    2041                      .dwattr $C$DW$343, DW_AT_TI_symbol_name("_i2cHandle")
    2042                      .dwattr $C$DW$343, DW_AT_data_member_location[DW_OP_plus_uconst 0x0]
    2043                      .dwattr $C$DW$343, DW_AT_accessibility(DW_ACCESS_public)
    2044              $C$DW$344       .dwtag  DW_TAG_member
    2045                      .dwattr $C$DW$344, DW_AT_type(*$C$DW$T$40)
    2046                      .dwattr $C$DW$344, DW_AT_name("gpioHandle")
    2047                      .dwattr $C$DW$344, DW_AT_TI_symbol_name("_gpioHandle")
    2048                      .dwattr $C$DW$344, DW_AT_data_member_location[DW_OP_plus_uconst 0x2]
    2049                      .dwattr $C$DW$344, DW_AT_accessibility(DW_ACCESS_public)
    2050              $C$DW$345       .dwtag  DW_TAG_member
    2051                      .dwattr $C$DW$345, DW_AT_type(*$C$DW$T$101)
    2052                      .dwattr $C$DW$345, DW_AT_name("ldcHandle")
    2053                      .dwattr $C$DW$345, DW_AT_TI_symbol_name("_ldcHandle")
    2054                      .dwattr $C$DW$345, DW_AT_data_member_location[DW_OP_plus_uconst 0x4]
    2055                      .dwattr $C$DW$345, DW_AT_accessibility(DW_ACCESS_public)
    2056              $C$DW$346       .dwtag  DW_TAG_member
    2057                      .dwattr $C$DW$346, DW_AT_type(*$C$DW$T$102)
    2058                      .dwattr $C$DW$346, DW_AT_name("ldc161x")
    2059                      .dwattr $C$DW$346, DW_AT_TI_symbol_name("_ldc161x")
    2060                      .dwattr $C$DW$346, DW_AT_data_member_location[DW_OP_plus_uconst 0x6]
    2061                      .dwattr $C$DW$346, DW_AT_accessibility(DW_ACCESS_public)
    2062              $C$DW$347       .dwtag  DW_TAG_member
    2063                      .dwattr $C$DW$347, DW_AT_type(*$C$DW$T$43)
TMS320C2000 Assembler PC v6.2.5 Sat Sep 16 15:51:24 2017

Tools Copyright (c) 1996-2014 Texas Instruments Incorporated
C:\Users\wmj\AppData\Local\Temp\1274411                              PAGE   39

    2064                      .dwattr $C$DW$347, DW_AT_name("RxTimeOut")
    2065                      .dwattr $C$DW$347, DW_AT_TI_symbol_name("_RxTimeOut")
    2066                      .dwattr $C$DW$347, DW_AT_data_member_location[DW_OP_plus_uconst 0x48]
    2067                      .dwattr $C$DW$347, DW_AT_accessibility(DW_ACCESS_public)
    2068              $C$DW$348       .dwtag  DW_TAG_member
    2069                      .dwattr $C$DW$348, DW_AT_type(*$C$DW$T$43)
    2070                      .dwattr $C$DW$348, DW_AT_name("TxTimeOut")
    2071                      .dwattr $C$DW$348, DW_AT_TI_symbol_name("_TxTimeOut")
    2072                      .dwattr $C$DW$348, DW_AT_data_member_location[DW_OP_plus_uconst 0x49]
    2073                      .dwattr $C$DW$348, DW_AT_accessibility(DW_ACCESS_public)
    2074                      .dwendtag $C$DW$T$103
    2075              
    2076              $C$DW$T$163     .dwtag  DW_TAG_typedef, DW_AT_name("LDC161x_Obj")
    2077                      .dwattr $C$DW$T$163, DW_AT_type(*$C$DW$T$103)
    2078                      .dwattr $C$DW$T$163, DW_AT_language(DW_LANG_C)
    2079              $C$DW$T$161     .dwtag  DW_TAG_pointer_type
    2080                      .dwattr $C$DW$T$161, DW_AT_type(*$C$DW$T$103)
    2081                      .dwattr $C$DW$T$161, DW_AT_address_class(0x16)
    2082              $C$DW$T$162     .dwtag  DW_TAG_typedef, DW_AT_name("LDC161x_Handle")
    2083                      .dwattr $C$DW$T$162, DW_AT_type(*$C$DW$T$161)
    2084                      .dwattr $C$DW$T$162, DW_AT_language(DW_LANG_C)
    2085              
    2086              $C$DW$T$104     .dwtag  DW_TAG_structure_type
    2087                      .dwattr $C$DW$T$104, DW_AT_name("_LDC161x_RCOUNT_t_")
    2088                      .dwattr $C$DW$T$104, DW_AT_byte_size(0x01)
    2089              $C$DW$349       .dwtag  DW_TAG_member
    2090                      .dwattr $C$DW$349, DW_AT_type(*$C$DW$T$23)
    2091                      .dwattr $C$DW$349, DW_AT_name("RCOUNT_CH0")
    2092                      .dwattr $C$DW$349, DW_AT_TI_symbol_name("_RCOUNT_CH0")
    2093                      .dwattr $C$DW$349, DW_AT_data_member_location[DW_OP_plus_uconst 0x0]
    2094                      .dwattr $C$DW$349, DW_AT_accessibility(DW_ACCESS_public)
    2095                      .dwendtag $C$DW$T$104
    2096              
    2097              $C$DW$T$106     .dwtag  DW_TAG_typedef, DW_AT_name("LDC161x_RCOUNT_t_")
    2098                      .dwattr $C$DW$T$106, DW_AT_type(*$C$DW$T$104)
    2099                      .dwattr $C$DW$T$106, DW_AT_language(DW_LANG_C)
    2100              
    2101              $C$DW$T$120     .dwtag  DW_TAG_structure_type
    2102                      .dwattr $C$DW$T$120, DW_AT_name("_LDC161x_REG_Obj_")
    2103                      .dwattr $C$DW$T$120, DW_AT_byte_size(0x42)
    2104              $C$DW$350       .dwtag  DW_TAG_member
    2105                      .dwattr $C$DW$350, DW_AT_type(*$C$DW$T$105)
    2106                      .dwattr $C$DW$350, DW_AT_name("LdcChData")
    2107                      .dwattr $C$DW$350, DW_AT_TI_symbol_name("_LdcChData")
    2108                      .dwattr $C$DW$350, DW_AT_data_member_location[DW_OP_plus_uconst 0x0]
    2109                      .dwattr $C$DW$350, DW_AT_accessibility(DW_ACCESS_public)
    2110              $C$DW$351       .dwtag  DW_TAG_member
    2111                      .dwattr $C$DW$351, DW_AT_type(*$C$DW$T$106)
    2112                      .dwattr $C$DW$351, DW_AT_name("LdcRcount")
    2113                      .dwattr $C$DW$351, DW_AT_TI_symbol_name("_LdcRcount")
    2114                      .dwattr $C$DW$351, DW_AT_data_member_location[DW_OP_plus_uconst 0x6]
    2115                      .dwattr $C$DW$351, DW_AT_accessibility(DW_ACCESS_public)
    2116              $C$DW$352       .dwtag  DW_TAG_member
    2117                      .dwattr $C$DW$352, DW_AT_type(*$C$DW$T$107)
    2118                      .dwattr $C$DW$352, DW_AT_name("LdcOffset")
TMS320C2000 Assembler PC v6.2.5 Sat Sep 16 15:51:24 2017

Tools Copyright (c) 1996-2014 Texas Instruments Incorporated
C:\Users\wmj\AppData\Local\Temp\1274411                              PAGE   40

    2119                      .dwattr $C$DW$352, DW_AT_TI_symbol_name("_LdcOffset")
    2120                      .dwattr $C$DW$352, DW_AT_data_member_location[DW_OP_plus_uconst 0x7]
    2121                      .dwattr $C$DW$352, DW_AT_accessibility(DW_ACCESS_public)
    2122              $C$DW$353       .dwtag  DW_TAG_member
    2123                      .dwattr $C$DW$353, DW_AT_type(*$C$DW$T$108)
    2124                      .dwattr $C$DW$353, DW_AT_name("LdcSettleCnt")
    2125                      .dwattr $C$DW$353, DW_AT_TI_symbol_name("_LdcSettleCnt")
    2126                      .dwattr $C$DW$353, DW_AT_data_member_location[DW_OP_plus_uconst 0x8]
    2127                      .dwattr $C$DW$353, DW_AT_accessibility(DW_ACCESS_public)
    2128              $C$DW$354       .dwtag  DW_TAG_member
    2129                      .dwattr $C$DW$354, DW_AT_type(*$C$DW$T$109)
    2130                      .dwattr $C$DW$354, DW_AT_name("LdcClkDiv")
    2131                      .dwattr $C$DW$354, DW_AT_TI_symbol_name("_LdcClkDiv")
    2132                      .dwattr $C$DW$354, DW_AT_data_member_location[DW_OP_plus_uconst 0x9]
    2133                      .dwattr $C$DW$354, DW_AT_accessibility(DW_ACCESS_public)
    2134              $C$DW$355       .dwtag  DW_TAG_member
    2135                      .dwattr $C$DW$355, DW_AT_type(*$C$DW$T$110)
    2136                      .dwattr $C$DW$355, DW_AT_name("LdcStatus")
    2137                      .dwattr $C$DW$355, DW_AT_TI_symbol_name("_LdcStatus")
    2138                      .dwattr $C$DW$355, DW_AT_data_member_location[DW_OP_plus_uconst 0xb]
    2139                      .dwattr $C$DW$355, DW_AT_accessibility(DW_ACCESS_public)
    2140              $C$DW$356       .dwtag  DW_TAG_member
    2141                      .dwattr $C$DW$356, DW_AT_type(*$C$DW$T$111)
    2142                      .dwattr $C$DW$356, DW_AT_name("LdcError")
    2143                      .dwattr $C$DW$356, DW_AT_TI_symbol_name("_LdcError")
    2144                      .dwattr $C$DW$356, DW_AT_data_member_location[DW_OP_plus_uconst 0x18]
    2145                      .dwattr $C$DW$356, DW_AT_accessibility(DW_ACCESS_public)
    2146              $C$DW$357       .dwtag  DW_TAG_member
    2147                      .dwattr $C$DW$357, DW_AT_type(*$C$DW$T$112)
    2148                      .dwattr $C$DW$357, DW_AT_name("LdcConfig")
    2149                      .dwattr $C$DW$357, DW_AT_TI_symbol_name("_LdcConfig")
    2150                      .dwattr $C$DW$357, DW_AT_data_member_location[DW_OP_plus_uconst 0x24]
    2151                      .dwattr $C$DW$357, DW_AT_accessibility(DW_ACCESS_public)
    2152              $C$DW$358       .dwtag  DW_TAG_member
    2153                      .dwattr $C$DW$358, DW_AT_type(*$C$DW$T$113)
    2154                      .dwattr $C$DW$358, DW_AT_name("LdcMuxConf")
    2155                      .dwattr $C$DW$358, DW_AT_TI_symbol_name("_LdcMuxConf")
    2156                      .dwattr $C$DW$358, DW_AT_data_member_location[DW_OP_plus_uconst 0x2d]
    2157                      .dwattr $C$DW$358, DW_AT_accessibility(DW_ACCESS_public)
    2158              $C$DW$359       .dwtag  DW_TAG_member
    2159                      .dwattr $C$DW$359, DW_AT_type(*$C$DW$T$114)
    2160                      .dwattr $C$DW$359, DW_AT_name("LdcDriveCurrent")
    2161                      .dwattr $C$DW$359, DW_AT_TI_symbol_name("_LdcDriveCurrent")
    2162                      .dwattr $C$DW$359, DW_AT_data_member_location[DW_OP_plus_uconst 0x33]
    2163                      .dwattr $C$DW$359, DW_AT_accessibility(DW_ACCESS_public)
    2164              $C$DW$360       .dwtag  DW_TAG_member
    2165                      .dwattr $C$DW$360, DW_AT_type(*$C$DW$T$115)
    2166                      .dwattr $C$DW$360, DW_AT_name("LdcKalman")
    2167                      .dwattr $C$DW$360, DW_AT_TI_symbol_name("_LdcKalman")
    2168                      .dwattr $C$DW$360, DW_AT_data_member_location[DW_OP_plus_uconst 0x36]
    2169                      .dwattr $C$DW$360, DW_AT_accessibility(DW_ACCESS_public)
    2170              $C$DW$361       .dwtag  DW_TAG_member
    2171                      .dwattr $C$DW$361, DW_AT_type(*$C$DW$T$117)
    2172                      .dwattr $C$DW$361, DW_AT_name("LdcType")
    2173                      .dwattr $C$DW$361, DW_AT_TI_symbol_name("_LdcType")
TMS320C2000 Assembler PC v6.2.5 Sat Sep 16 15:51:24 2017

Tools Copyright (c) 1996-2014 Texas Instruments Incorporated
C:\Users\wmj\AppData\Local\Temp\1274411                              PAGE   41

    2174                      .dwattr $C$DW$361, DW_AT_data_member_location[DW_OP_plus_uconst 0x40]
    2175                      .dwattr $C$DW$361, DW_AT_accessibility(DW_ACCESS_public)
    2176              $C$DW$362       .dwtag  DW_TAG_member
    2177                      .dwattr $C$DW$362, DW_AT_type(*$C$DW$T$119)
    2178                      .dwattr $C$DW$362, DW_AT_name("LdcSerial")
    2179                      .dwattr $C$DW$362, DW_AT_TI_symbol_name("_LdcSerial")
    2180                      .dwattr $C$DW$362, DW_AT_data_member_location[DW_OP_plus_uconst 0x41]
    2181                      .dwattr $C$DW$362, DW_AT_accessibility(DW_ACCESS_public)
    2182                      .dwendtag $C$DW$T$120
    2183              
    2184              $C$DW$T$102     .dwtag  DW_TAG_typedef, DW_AT_name("LDC161x_REG_Obj")
    2185                      .dwattr $C$DW$T$102, DW_AT_type(*$C$DW$T$120)
    2186                      .dwattr $C$DW$T$102, DW_AT_language(DW_LANG_C)
    2187              
    2188              $C$DW$T$121     .dwtag  DW_TAG_structure_type
    2189                      .dwattr $C$DW$T$121, DW_AT_name("_LDC161x_SETTLECOUNT_t_")
    2190                      .dwattr $C$DW$T$121, DW_AT_byte_size(0x01)
    2191              $C$DW$363       .dwtag  DW_TAG_member
    2192                      .dwattr $C$DW$363, DW_AT_type(*$C$DW$T$23)
    2193                      .dwattr $C$DW$363, DW_AT_name("SETTLECOUNT_CH0")
    2194                      .dwattr $C$DW$363, DW_AT_TI_symbol_name("_SETTLECOUNT_CH0")
    2195                      .dwattr $C$DW$363, DW_AT_data_member_location[DW_OP_plus_uconst 0x0]
    2196                      .dwattr $C$DW$363, DW_AT_accessibility(DW_ACCESS_public)
    2197                      .dwendtag $C$DW$T$121
    2198              
    2199              $C$DW$T$108     .dwtag  DW_TAG_typedef, DW_AT_name("LDC161x_SETTLECOUNT_t_")
    2200                      .dwattr $C$DW$T$108, DW_AT_type(*$C$DW$T$121)
    2201                      .dwattr $C$DW$T$108, DW_AT_language(DW_LANG_C)
    2202              
    2203              $C$DW$T$122     .dwtag  DW_TAG_structure_type
    2204                      .dwattr $C$DW$T$122, DW_AT_name("_LDC161x_STATUS_t_")
    2205                      .dwattr $C$DW$T$122, DW_AT_byte_size(0x0d)
    2206              $C$DW$364       .dwtag  DW_TAG_member
    2207                      .dwattr $C$DW$364, DW_AT_type(*$C$DW$T$43)
    2208                      .dwattr $C$DW$364, DW_AT_name("UNRDCONV_CH3")
    2209                      .dwattr $C$DW$364, DW_AT_TI_symbol_name("_UNRDCONV_CH3")
    2210                      .dwattr $C$DW$364, DW_AT_data_member_location[DW_OP_plus_uconst 0x0]
    2211                      .dwattr $C$DW$364, DW_AT_accessibility(DW_ACCESS_public)
    2212              $C$DW$365       .dwtag  DW_TAG_member
    2213                      .dwattr $C$DW$365, DW_AT_type(*$C$DW$T$43)
    2214                      .dwattr $C$DW$365, DW_AT_name("UNRDCONV_CH2")
    2215                      .dwattr $C$DW$365, DW_AT_TI_symbol_name("_UNRDCONV_CH2")
    2216                      .dwattr $C$DW$365, DW_AT_data_member_location[DW_OP_plus_uconst 0x1]
    2217                      .dwattr $C$DW$365, DW_AT_accessibility(DW_ACCESS_public)
    2218              $C$DW$366       .dwtag  DW_TAG_member
    2219                      .dwattr $C$DW$366, DW_AT_type(*$C$DW$T$43)
    2220                      .dwattr $C$DW$366, DW_AT_name("UNRDCONV_CH1")
    2221                      .dwattr $C$DW$366, DW_AT_TI_symbol_name("_UNRDCONV_CH1")
    2222                      .dwattr $C$DW$366, DW_AT_data_member_location[DW_OP_plus_uconst 0x2]
    2223                      .dwattr $C$DW$366, DW_AT_accessibility(DW_ACCESS_public)
    2224              $C$DW$367       .dwtag  DW_TAG_member
    2225                      .dwattr $C$DW$367, DW_AT_type(*$C$DW$T$43)
    2226                      .dwattr $C$DW$367, DW_AT_name("UNRDCONV_CH0")
    2227                      .dwattr $C$DW$367, DW_AT_TI_symbol_name("_UNRDCONV_CH0")
    2228                      .dwattr $C$DW$367, DW_AT_data_member_location[DW_OP_plus_uconst 0x3]
TMS320C2000 Assembler PC v6.2.5 Sat Sep 16 15:51:24 2017

Tools Copyright (c) 1996-2014 Texas Instruments Incorporated
C:\Users\wmj\AppData\Local\Temp\1274411                              PAGE   42

    2229                      .dwattr $C$DW$367, DW_AT_accessibility(DW_ACCESS_public)
    2230              $C$DW$368       .dwtag  DW_TAG_member
    2231                      .dwattr $C$DW$368, DW_AT_type(*$C$DW$T$43)
    2232                      .dwattr $C$DW$368, DW_AT_name("DRDY")
    2233                      .dwattr $C$DW$368, DW_AT_TI_symbol_name("_DRDY")
    2234                      .dwattr $C$DW$368, DW_AT_data_member_location[DW_OP_plus_uconst 0x4]
    2235                      .dwattr $C$DW$368, DW_AT_accessibility(DW_ACCESS_public)
    2236              $C$DW$369       .dwtag  DW_TAG_member
    2237                      .dwattr $C$DW$369, DW_AT_type(*$C$DW$T$43)
    2238                      .dwattr $C$DW$369, DW_AT_name("ERR_ZC")
    2239                      .dwattr $C$DW$369, DW_AT_TI_symbol_name("_ERR_ZC")
    2240                      .dwattr $C$DW$369, DW_AT_data_member_location[DW_OP_plus_uconst 0x5]
    2241                      .dwattr $C$DW$369, DW_AT_accessibility(DW_ACCESS_public)
    2242              $C$DW$370       .dwtag  DW_TAG_member
    2243                      .dwattr $C$DW$370, DW_AT_type(*$C$DW$T$43)
    2244                      .dwattr $C$DW$370, DW_AT_name("ERR_ALE")
    2245                      .dwattr $C$DW$370, DW_AT_TI_symbol_name("_ERR_ALE")
    2246                      .dwattr $C$DW$370, DW_AT_data_member_location[DW_OP_plus_uconst 0x6]
    2247                      .dwattr $C$DW$370, DW_AT_accessibility(DW_ACCESS_public)
    2248              $C$DW$371       .dwtag  DW_TAG_member
    2249                      .dwattr $C$DW$371, DW_AT_type(*$C$DW$T$43)
    2250                      .dwattr $C$DW$371, DW_AT_name("ERR_AHE")
    2251                      .dwattr $C$DW$371, DW_AT_TI_symbol_name("_ERR_AHE")
    2252                      .dwattr $C$DW$371, DW_AT_data_member_location[DW_OP_plus_uconst 0x7]
    2253                      .dwattr $C$DW$371, DW_AT_accessibility(DW_ACCESS_public)
    2254              $C$DW$372       .dwtag  DW_TAG_member
    2255                      .dwattr $C$DW$372, DW_AT_type(*$C$DW$T$43)
    2256                      .dwattr $C$DW$372, DW_AT_name("ERR_WD")
    2257                      .dwattr $C$DW$372, DW_AT_TI_symbol_name("_ERR_WD")
    2258                      .dwattr $C$DW$372, DW_AT_data_member_location[DW_OP_plus_uconst 0x8]
    2259                      .dwattr $C$DW$372, DW_AT_accessibility(DW_ACCESS_public)
    2260              $C$DW$373       .dwtag  DW_TAG_member
    2261                      .dwattr $C$DW$373, DW_AT_type(*$C$DW$T$43)
    2262                      .dwattr $C$DW$373, DW_AT_name("ERR_OR")
    2263                      .dwattr $C$DW$373, DW_AT_TI_symbol_name("_ERR_OR")
    2264                      .dwattr $C$DW$373, DW_AT_data_member_location[DW_OP_plus_uconst 0x9]
    2265                      .dwattr $C$DW$373, DW_AT_accessibility(DW_ACCESS_public)
    2266              $C$DW$374       .dwtag  DW_TAG_member
    2267                      .dwattr $C$DW$374, DW_AT_type(*$C$DW$T$43)
    2268                      .dwattr $C$DW$374, DW_AT_name("ERR_UR")
    2269                      .dwattr $C$DW$374, DW_AT_TI_symbol_name("_ERR_UR")
    2270                      .dwattr $C$DW$374, DW_AT_data_member_location[DW_OP_plus_uconst 0xa]
    2271                      .dwattr $C$DW$374, DW_AT_accessibility(DW_ACCESS_public)
    2272              $C$DW$375       .dwtag  DW_TAG_member
    2273                      .dwattr $C$DW$375, DW_AT_type(*$C$DW$T$43)
    2274                      .dwattr $C$DW$375, DW_AT_name("ERR_CHAN_0")
    2275                      .dwattr $C$DW$375, DW_AT_TI_symbol_name("_ERR_CHAN_0")
    2276                      .dwattr $C$DW$375, DW_AT_data_member_location[DW_OP_plus_uconst 0xb]
    2277                      .dwattr $C$DW$375, DW_AT_accessibility(DW_ACCESS_public)
    2278              $C$DW$376       .dwtag  DW_TAG_member
    2279                      .dwattr $C$DW$376, DW_AT_type(*$C$DW$T$43)
    2280                      .dwattr $C$DW$376, DW_AT_name("ERR_CHAN_1")
    2281                      .dwattr $C$DW$376, DW_AT_TI_symbol_name("_ERR_CHAN_1")
    2282                      .dwattr $C$DW$376, DW_AT_data_member_location[DW_OP_plus_uconst 0xc]
    2283                      .dwattr $C$DW$376, DW_AT_accessibility(DW_ACCESS_public)
TMS320C2000 Assembler PC v6.2.5 Sat Sep 16 15:51:24 2017

Tools Copyright (c) 1996-2014 Texas Instruments Incorporated
C:\Users\wmj\AppData\Local\Temp\1274411                              PAGE   43

    2284                      .dwendtag $C$DW$T$122
    2285              
    2286              $C$DW$T$110     .dwtag  DW_TAG_typedef, DW_AT_name("LDC161x_STATUS_t_")
    2287                      .dwattr $C$DW$T$110, DW_AT_type(*$C$DW$T$122)
    2288                      .dwattr $C$DW$T$110, DW_AT_language(DW_LANG_C)
    2289              
    2290              $C$DW$T$123     .dwtag  DW_TAG_structure_type
    2291                      .dwattr $C$DW$T$123, DW_AT_name("_LDC_161x_CHDATA_MSB_t_")
    2292                      .dwattr $C$DW$T$123, DW_AT_byte_size(0x05)
    2293              $C$DW$377       .dwtag  DW_TAG_member
    2294                      .dwattr $C$DW$377, DW_AT_type(*$C$DW$T$43)
    2295                      .dwattr $C$DW$377, DW_AT_name("ERR_UR")
    2296                      .dwattr $C$DW$377, DW_AT_TI_symbol_name("_ERR_UR")
    2297                      .dwattr $C$DW$377, DW_AT_data_member_location[DW_OP_plus_uconst 0x0]
    2298                      .dwattr $C$DW$377, DW_AT_accessibility(DW_ACCESS_public)
    2299              $C$DW$378       .dwtag  DW_TAG_member
    2300                      .dwattr $C$DW$378, DW_AT_type(*$C$DW$T$43)
    2301                      .dwattr $C$DW$378, DW_AT_name("ERR_OR")
    2302                      .dwattr $C$DW$378, DW_AT_TI_symbol_name("_ERR_OR")
    2303                      .dwattr $C$DW$378, DW_AT_data_member_location[DW_OP_plus_uconst 0x1]
    2304                      .dwattr $C$DW$378, DW_AT_accessibility(DW_ACCESS_public)
    2305              $C$DW$379       .dwtag  DW_TAG_member
    2306                      .dwattr $C$DW$379, DW_AT_type(*$C$DW$T$43)
    2307                      .dwattr $C$DW$379, DW_AT_name("ERR_WD")
    2308                      .dwattr $C$DW$379, DW_AT_TI_symbol_name("_ERR_WD")
    2309                      .dwattr $C$DW$379, DW_AT_data_member_location[DW_OP_plus_uconst 0x2]
    2310                      .dwattr $C$DW$379, DW_AT_accessibility(DW_ACCESS_public)
    2311              $C$DW$380       .dwtag  DW_TAG_member
    2312                      .dwattr $C$DW$380, DW_AT_type(*$C$DW$T$43)
    2313                      .dwattr $C$DW$380, DW_AT_name("ERR_AE")
    2314                      .dwattr $C$DW$380, DW_AT_TI_symbol_name("_ERR_AE")
    2315                      .dwattr $C$DW$380, DW_AT_data_member_location[DW_OP_plus_uconst 0x3]
    2316                      .dwattr $C$DW$380, DW_AT_accessibility(DW_ACCESS_public)
    2317              $C$DW$381       .dwtag  DW_TAG_member
    2318                      .dwattr $C$DW$381, DW_AT_type(*$C$DW$T$23)
    2319                      .dwattr $C$DW$381, DW_AT_name("DAT_MB")
    2320                      .dwattr $C$DW$381, DW_AT_TI_symbol_name("_DAT_MB")
    2321                      .dwattr $C$DW$381, DW_AT_data_member_location[DW_OP_plus_uconst 0x4]
    2322                      .dwattr $C$DW$381, DW_AT_accessibility(DW_ACCESS_public)
    2323                      .dwendtag $C$DW$T$123
    2324              
    2325              $C$DW$T$124     .dwtag  DW_TAG_typedef, DW_AT_name("LDC_161x_CHDATA_MSB_t_")
    2326                      .dwattr $C$DW$T$124, DW_AT_type(*$C$DW$T$123)
    2327                      .dwattr $C$DW$T$124, DW_AT_language(DW_LANG_C)
    2328              
    2329              $C$DW$T$125     .dwtag  DW_TAG_structure_type
    2330                      .dwattr $C$DW$T$125, DW_AT_name("_LDC_161x_CHDATA_t_")
    2331                      .dwattr $C$DW$T$125, DW_AT_byte_size(0x06)
    2332              $C$DW$382       .dwtag  DW_TAG_member
    2333                      .dwattr $C$DW$382, DW_AT_type(*$C$DW$T$124)
    2334                      .dwattr $C$DW$382, DW_AT_name("MSB")
    2335                      .dwattr $C$DW$382, DW_AT_TI_symbol_name("_MSB")
    2336                      .dwattr $C$DW$382, DW_AT_data_member_location[DW_OP_plus_uconst 0x0]
    2337                      .dwattr $C$DW$382, DW_AT_accessibility(DW_ACCESS_public)
    2338              $C$DW$383       .dwtag  DW_TAG_member
TMS320C2000 Assembler PC v6.2.5 Sat Sep 16 15:51:24 2017

Tools Copyright (c) 1996-2014 Texas Instruments Incorporated
C:\Users\wmj\AppData\Local\Temp\1274411                              PAGE   44

    2339                      .dwattr $C$DW$383, DW_AT_type(*$C$DW$T$23)
    2340                      .dwattr $C$DW$383, DW_AT_name("LSB")
    2341                      .dwattr $C$DW$383, DW_AT_TI_symbol_name("_LSB")
    2342                      .dwattr $C$DW$383, DW_AT_data_member_location[DW_OP_plus_uconst 0x5]
    2343                      .dwattr $C$DW$383, DW_AT_accessibility(DW_ACCESS_public)
    2344                      .dwendtag $C$DW$T$125
    2345              
    2346              $C$DW$T$126     .dwtag  DW_TAG_typedef, DW_AT_name("LDC_161x_CHDATA_t_")
    2347                      .dwattr $C$DW$T$126, DW_AT_type(*$C$DW$T$125)
    2348                      .dwattr $C$DW$T$126, DW_AT_language(DW_LANG_C)
    2349              
    2350              $C$DW$T$127     .dwtag  DW_TAG_structure_type
    2351                      .dwattr $C$DW$T$127, DW_AT_name("_LDC_161x_DATA_t_")
    2352                      .dwattr $C$DW$T$127, DW_AT_byte_size(0x06)
    2353              $C$DW$384       .dwtag  DW_TAG_member
    2354                      .dwattr $C$DW$384, DW_AT_type(*$C$DW$T$126)
    2355                      .dwattr $C$DW$384, DW_AT_name("CH0_DATA")
    2356                      .dwattr $C$DW$384, DW_AT_TI_symbol_name("_CH0_DATA")
    2357                      .dwattr $C$DW$384, DW_AT_data_member_location[DW_OP_plus_uconst 0x0]
    2358                      .dwattr $C$DW$384, DW_AT_accessibility(DW_ACCESS_public)
    2359                      .dwendtag $C$DW$T$127
    2360              
    2361              $C$DW$T$105     .dwtag  DW_TAG_typedef, DW_AT_name("LDC_161x_DATA_t_")
    2362                      .dwattr $C$DW$T$105, DW_AT_type(*$C$DW$T$127)
    2363                      .dwattr $C$DW$T$105, DW_AT_language(DW_LANG_C)
    2364              
    2365              $C$DW$T$129     .dwtag  DW_TAG_structure_type
    2366                      .dwattr $C$DW$T$129, DW_AT_name("_MATH_vec3_")
    2367                      .dwattr $C$DW$T$129, DW_AT_byte_size(0x06)
    2368              $C$DW$385       .dwtag  DW_TAG_member
    2369                      .dwattr $C$DW$385, DW_AT_type(*$C$DW$T$128)
    2370                      .dwattr $C$DW$385, DW_AT_name("value")
    2371                      .dwattr $C$DW$385, DW_AT_TI_symbol_name("_value")
    2372                      .dwattr $C$DW$385, DW_AT_data_member_location[DW_OP_plus_uconst 0x0]
    2373                      .dwattr $C$DW$385, DW_AT_accessibility(DW_ACCESS_public)
    2374                      .dwendtag $C$DW$T$129
    2375              
    2376              $C$DW$T$54      .dwtag  DW_TAG_typedef, DW_AT_name("MATH_vec3")
    2377                      .dwattr $C$DW$T$54, DW_AT_type(*$C$DW$T$129)
    2378                      .dwattr $C$DW$T$54, DW_AT_language(DW_LANG_C)
    2379              
    2380              $C$DW$T$133     .dwtag  DW_TAG_structure_type
    2381                      .dwattr $C$DW$T$133, DW_AT_name("_OFFSET_")
    2382                      .dwattr $C$DW$T$133, DW_AT_byte_size(0x10)
    2383              $C$DW$386       .dwtag  DW_TAG_member
    2384                      .dwattr $C$DW$386, DW_AT_type(*$C$DW$T$46)
    2385                      .dwattr $C$DW$386, DW_AT_name("value")
    2386                      .dwattr $C$DW$386, DW_AT_TI_symbol_name("_value")
    2387                      .dwattr $C$DW$386, DW_AT_data_member_location[DW_OP_plus_uconst 0x0]
    2388                      .dwattr $C$DW$386, DW_AT_accessibility(DW_ACCESS_public)
    2389              $C$DW$387       .dwtag  DW_TAG_member
    2390                      .dwattr $C$DW$387, DW_AT_type(*$C$DW$T$46)
    2391                      .dwattr $C$DW$387, DW_AT_name("bias")
    2392                      .dwattr $C$DW$387, DW_AT_TI_symbol_name("_bias")
    2393                      .dwattr $C$DW$387, DW_AT_data_member_location[DW_OP_plus_uconst 0x2]
TMS320C2000 Assembler PC v6.2.5 Sat Sep 16 15:51:24 2017

Tools Copyright (c) 1996-2014 Texas Instruments Incorporated
C:\Users\wmj\AppData\Local\Temp\1274411                              PAGE   45

    2394                      .dwattr $C$DW$387, DW_AT_accessibility(DW_ACCESS_public)
    2395              $C$DW$388       .dwtag  DW_TAG_member
    2396                      .dwattr $C$DW$388, DW_AT_type(*$C$DW$T$130)
    2397                      .dwattr $C$DW$388, DW_AT_name("filter")
    2398                      .dwattr $C$DW$388, DW_AT_TI_symbol_name("_filter")
    2399                      .dwattr $C$DW$388, DW_AT_data_member_location[DW_OP_plus_uconst 0x4]
    2400                      .dwattr $C$DW$388, DW_AT_accessibility(DW_ACCESS_public)
    2401              $C$DW$389       .dwtag  DW_TAG_member
    2402                      .dwattr $C$DW$389, DW_AT_type(*$C$DW$T$132)
    2403                      .dwattr $C$DW$389, DW_AT_name("filterHandle")
    2404                      .dwattr $C$DW$389, DW_AT_TI_symbol_name("_filterHandle")
    2405                      .dwattr $C$DW$389, DW_AT_data_member_location[DW_OP_plus_uconst 0xe]
    2406                      .dwattr $C$DW$389, DW_AT_accessibility(DW_ACCESS_public)
    2407                      .dwendtag $C$DW$T$133
    2408              
    2409              $C$DW$T$67      .dwtag  DW_TAG_typedef, DW_AT_name("OFFSET_Obj")
    2410                      .dwattr $C$DW$T$67, DW_AT_type(*$C$DW$T$133)
    2411                      .dwattr $C$DW$T$67, DW_AT_language(DW_LANG_C)
    2412              
    2413              $C$DW$T$68      .dwtag  DW_TAG_array_type
    2414                      .dwattr $C$DW$T$68, DW_AT_type(*$C$DW$T$67)
    2415                      .dwattr $C$DW$T$68, DW_AT_language(DW_LANG_C)
    2416                      .dwattr $C$DW$T$68, DW_AT_byte_size(0x30)
    2417              $C$DW$390       .dwtag  DW_TAG_subrange_type
    2418                      .dwattr $C$DW$390, DW_AT_upper_bound(0x02)
    2419                      .dwendtag $C$DW$T$68
    2420              
    2421              
    2422              $C$DW$T$22      .dwtag  DW_TAG_structure_type
    2423                      .dwattr $C$DW$T$22, DW_AT_name("_OFFSET_Obj_")
    2424                      .dwattr $C$DW$T$22, DW_AT_declaration
    2425                      .dwendtag $C$DW$T$22
    2426              
    2427              $C$DW$T$64      .dwtag  DW_TAG_pointer_type
    2428                      .dwattr $C$DW$T$64, DW_AT_type(*$C$DW$T$22)
    2429                      .dwattr $C$DW$T$64, DW_AT_address_class(0x16)
    2430              $C$DW$T$65      .dwtag  DW_TAG_typedef, DW_AT_name("OFFSET_Handle")
    2431                      .dwattr $C$DW$T$65, DW_AT_type(*$C$DW$T$64)
    2432                      .dwattr $C$DW$T$65, DW_AT_language(DW_LANG_C)
    2433              
    2434              $C$DW$T$66      .dwtag  DW_TAG_array_type
    2435                      .dwattr $C$DW$T$66, DW_AT_type(*$C$DW$T$65)
    2436                      .dwattr $C$DW$T$66, DW_AT_language(DW_LANG_C)
    2437                      .dwattr $C$DW$T$66, DW_AT_byte_size(0x06)
    2438              $C$DW$391       .dwtag  DW_TAG_subrange_type
    2439                      .dwattr $C$DW$391, DW_AT_upper_bound(0x02)
    2440                      .dwendtag $C$DW$T$66
    2441              
    2442              
    2443              $C$DW$T$137     .dwtag  DW_TAG_structure_type
    2444                      .dwattr $C$DW$T$137, DW_AT_name("_OLED_Obj_")
    2445                      .dwattr $C$DW$T$137, DW_AT_byte_size(0x06)
    2446              $C$DW$392       .dwtag  DW_TAG_member
    2447                      .dwattr $C$DW$392, DW_AT_type(*$C$DW$T$84)
    2448                      .dwattr $C$DW$392, DW_AT_name("i2cHandle")
TMS320C2000 Assembler PC v6.2.5 Sat Sep 16 15:51:24 2017

Tools Copyright (c) 1996-2014 Texas Instruments Incorporated
C:\Users\wmj\AppData\Local\Temp\1274411                              PAGE   46

    2449                      .dwattr $C$DW$392, DW_AT_TI_symbol_name("_i2cHandle")
    2450                      .dwattr $C$DW$392, DW_AT_data_member_location[DW_OP_plus_uconst 0x0]
    2451                      .dwattr $C$DW$392, DW_AT_accessibility(DW_ACCESS_public)
    2452              $C$DW$393       .dwtag  DW_TAG_member
    2453                      .dwattr $C$DW$393, DW_AT_type(*$C$DW$T$135)
    2454                      .dwattr $C$DW$393, DW_AT_name("TxType")
    2455                      .dwattr $C$DW$393, DW_AT_TI_symbol_name("_TxType")
    2456                      .dwattr $C$DW$393, DW_AT_data_member_location[DW_OP_plus_uconst 0x2]
    2457                      .dwattr $C$DW$393, DW_AT_accessibility(DW_ACCESS_public)
    2458              $C$DW$394       .dwtag  DW_TAG_member
    2459                      .dwattr $C$DW$394, DW_AT_type(*$C$DW$T$136)
    2460                      .dwattr $C$DW$394, DW_AT_name("OledPos")
    2461                      .dwattr $C$DW$394, DW_AT_TI_symbol_name("_OledPos")
    2462                      .dwattr $C$DW$394, DW_AT_data_member_location[DW_OP_plus_uconst 0x3]
    2463                      .dwattr $C$DW$394, DW_AT_accessibility(DW_ACCESS_public)
    2464              $C$DW$395       .dwtag  DW_TAG_member
    2465                      .dwattr $C$DW$395, DW_AT_type(*$C$DW$T$43)
    2466                      .dwattr $C$DW$395, DW_AT_name("TxTimeOut")
    2467                      .dwattr $C$DW$395, DW_AT_TI_symbol_name("_TxTimeOut")
    2468                      .dwattr $C$DW$395, DW_AT_data_member_location[DW_OP_plus_uconst 0x4]
    2469                      .dwattr $C$DW$395, DW_AT_accessibility(DW_ACCESS_public)
    2470                      .dwendtag $C$DW$T$137
    2471              
    2472              $C$DW$T$166     .dwtag  DW_TAG_typedef, DW_AT_name("OLED_Obj")
    2473                      .dwattr $C$DW$T$166, DW_AT_type(*$C$DW$T$137)
    2474                      .dwattr $C$DW$T$166, DW_AT_language(DW_LANG_C)
    2475              $C$DW$T$164     .dwtag  DW_TAG_pointer_type
    2476                      .dwattr $C$DW$T$164, DW_AT_type(*$C$DW$T$137)
    2477                      .dwattr $C$DW$T$164, DW_AT_address_class(0x16)
    2478              $C$DW$T$165     .dwtag  DW_TAG_typedef, DW_AT_name("OLED_Handle")
    2479                      .dwattr $C$DW$T$165, DW_AT_type(*$C$DW$T$164)
    2480                      .dwattr $C$DW$T$165, DW_AT_language(DW_LANG_C)
    2481              
    2482              $C$DW$T$138     .dwtag  DW_TAG_structure_type
    2483                      .dwattr $C$DW$T$138, DW_AT_name("_OLED_Pos_t")
    2484                      .dwattr $C$DW$T$138, DW_AT_byte_size(0x01)
    2485              $C$DW$396       .dwtag  DW_TAG_member
    2486                      .dwattr $C$DW$396, DW_AT_type(*$C$DW$T$23)
    2487                      .dwattr $C$DW$396, DW_AT_name("Xpos")
    2488                      .dwattr $C$DW$396, DW_AT_TI_symbol_name("_Xpos")
    2489                      .dwattr $C$DW$396, DW_AT_bit_offset(0x08), DW_AT_bit_size(0x08)
    2490                      .dwattr $C$DW$396, DW_AT_data_member_location[DW_OP_plus_uconst 0x0]
    2491                      .dwattr $C$DW$396, DW_AT_accessibility(DW_ACCESS_public)
    2492              $C$DW$397       .dwtag  DW_TAG_member
    2493                      .dwattr $C$DW$397, DW_AT_type(*$C$DW$T$23)
    2494                      .dwattr $C$DW$397, DW_AT_name("Ypos")
    2495                      .dwattr $C$DW$397, DW_AT_TI_symbol_name("_Ypos")
    2496                      .dwattr $C$DW$397, DW_AT_bit_offset(0x00), DW_AT_bit_size(0x08)
    2497                      .dwattr $C$DW$397, DW_AT_data_member_location[DW_OP_plus_uconst 0x0]
    2498                      .dwattr $C$DW$397, DW_AT_accessibility(DW_ACCESS_public)
    2499                      .dwendtag $C$DW$T$138
    2500              
    2501              $C$DW$T$136     .dwtag  DW_TAG_typedef, DW_AT_name("OLED_Pos_t")
    2502                      .dwattr $C$DW$T$136, DW_AT_type(*$C$DW$T$138)
    2503                      .dwattr $C$DW$T$136, DW_AT_language(DW_LANG_C)
TMS320C2000 Assembler PC v6.2.5 Sat Sep 16 15:51:24 2017

Tools Copyright (c) 1996-2014 Texas Instruments Incorporated
C:\Users\wmj\AppData\Local\Temp\1274411                              PAGE   47

    2504              
    2505              $C$DW$T$139     .dwtag  DW_TAG_structure_type
    2506                      .dwattr $C$DW$T$139, DW_AT_name("_OSC_Obj_")
    2507                      .dwattr $C$DW$T$139, DW_AT_byte_size(0x03)
    2508              $C$DW$398       .dwtag  DW_TAG_member
    2509                      .dwattr $C$DW$398, DW_AT_type(*$C$DW$T$24)
    2510                      .dwattr $C$DW$398, DW_AT_name("INTOSC1TRIM")
    2511                      .dwattr $C$DW$398, DW_AT_TI_symbol_name("_INTOSC1TRIM")
    2512                      .dwattr $C$DW$398, DW_AT_data_member_location[DW_OP_plus_uconst 0x0]
    2513                      .dwattr $C$DW$398, DW_AT_accessibility(DW_ACCESS_public)
    2514              $C$DW$399       .dwtag  DW_TAG_member
    2515                      .dwattr $C$DW$399, DW_AT_type(*$C$DW$T$24)
    2516                      .dwattr $C$DW$399, DW_AT_name("rsvd_1")
    2517                      .dwattr $C$DW$399, DW_AT_TI_symbol_name("_rsvd_1")
    2518                      .dwattr $C$DW$399, DW_AT_data_member_location[DW_OP_plus_uconst 0x1]
    2519                      .dwattr $C$DW$399, DW_AT_accessibility(DW_ACCESS_public)
    2520              $C$DW$400       .dwtag  DW_TAG_member
    2521                      .dwattr $C$DW$400, DW_AT_type(*$C$DW$T$24)
    2522                      .dwattr $C$DW$400, DW_AT_name("INTOSC2TRIM")
    2523                      .dwattr $C$DW$400, DW_AT_TI_symbol_name("_INTOSC2TRIM")
    2524                      .dwattr $C$DW$400, DW_AT_data_member_location[DW_OP_plus_uconst 0x2]
    2525                      .dwattr $C$DW$400, DW_AT_accessibility(DW_ACCESS_public)
    2526                      .dwendtag $C$DW$T$139
    2527              
    2528              $C$DW$T$69      .dwtag  DW_TAG_pointer_type
    2529                      .dwattr $C$DW$T$69, DW_AT_type(*$C$DW$T$139)
    2530                      .dwattr $C$DW$T$69, DW_AT_address_class(0x16)
    2531              $C$DW$T$70      .dwtag  DW_TAG_typedef, DW_AT_name("OSC_Handle")
    2532                      .dwattr $C$DW$T$70, DW_AT_type(*$C$DW$T$69)
    2533                      .dwattr $C$DW$T$70, DW_AT_language(DW_LANG_C)
    2534              
    2535              $C$DW$T$141     .dwtag  DW_TAG_structure_type
    2536                      .dwattr $C$DW$T$141, DW_AT_name("_PCA955x_Obj_")
    2537                      .dwattr $C$DW$T$141, DW_AT_byte_size(0x12)
    2538              $C$DW$401       .dwtag  DW_TAG_member
    2539                      .dwattr $C$DW$401, DW_AT_type(*$C$DW$T$84)
    2540                      .dwattr $C$DW$401, DW_AT_name("i2cHandle")
    2541                      .dwattr $C$DW$401, DW_AT_TI_symbol_name("_i2cHandle")
    2542                      .dwattr $C$DW$401, DW_AT_data_member_location[DW_OP_plus_uconst 0x0]
    2543                      .dwattr $C$DW$401, DW_AT_accessibility(DW_ACCESS_public)
    2544              $C$DW$402       .dwtag  DW_TAG_member
    2545                      .dwattr $C$DW$402, DW_AT_type(*$C$DW$T$140)
    2546                      .dwattr $C$DW$402, DW_AT_name("PortData")
    2547                      .dwattr $C$DW$402, DW_AT_TI_symbol_name("_PortData")
    2548                      .dwattr $C$DW$402, DW_AT_data_member_location[DW_OP_plus_uconst 0x2]
    2549                      .dwattr $C$DW$402, DW_AT_accessibility(DW_ACCESS_public)
    2550              $C$DW$403       .dwtag  DW_TAG_member
    2551                      .dwattr $C$DW$403, DW_AT_type(*$C$DW$T$43)
    2552                      .dwattr $C$DW$403, DW_AT_name("RxTimeOut")
    2553                      .dwattr $C$DW$403, DW_AT_TI_symbol_name("_RxTimeOut")
    2554                      .dwattr $C$DW$403, DW_AT_data_member_location[DW_OP_plus_uconst 0x10]
    2555                      .dwattr $C$DW$403, DW_AT_accessibility(DW_ACCESS_public)
    2556              $C$DW$404       .dwtag  DW_TAG_member
    2557                      .dwattr $C$DW$404, DW_AT_type(*$C$DW$T$43)
    2558                      .dwattr $C$DW$404, DW_AT_name("TxTimeOut")
TMS320C2000 Assembler PC v6.2.5 Sat Sep 16 15:51:24 2017

Tools Copyright (c) 1996-2014 Texas Instruments Incorporated
C:\Users\wmj\AppData\Local\Temp\1274411                              PAGE   48

    2559                      .dwattr $C$DW$404, DW_AT_TI_symbol_name("_TxTimeOut")
    2560                      .dwattr $C$DW$404, DW_AT_data_member_location[DW_OP_plus_uconst 0x11]
    2561                      .dwattr $C$DW$404, DW_AT_accessibility(DW_ACCESS_public)
    2562                      .dwendtag $C$DW$T$141
    2563              
    2564              $C$DW$T$160     .dwtag  DW_TAG_typedef, DW_AT_name("PCA955x_Obj")
    2565                      .dwattr $C$DW$T$160, DW_AT_type(*$C$DW$T$141)
    2566                      .dwattr $C$DW$T$160, DW_AT_language(DW_LANG_C)
    2567              $C$DW$T$158     .dwtag  DW_TAG_pointer_type
    2568                      .dwattr $C$DW$T$158, DW_AT_type(*$C$DW$T$141)
    2569                      .dwattr $C$DW$T$158, DW_AT_address_class(0x16)
    2570              $C$DW$T$159     .dwtag  DW_TAG_typedef, DW_AT_name("PCA955x_Handle")
    2571                      .dwattr $C$DW$T$159, DW_AT_type(*$C$DW$T$158)
    2572                      .dwattr $C$DW$T$159, DW_AT_language(DW_LANG_C)
    2573              
    2574              $C$DW$T$142     .dwtag  DW_TAG_structure_type
    2575                      .dwattr $C$DW$T$142, DW_AT_name("_PIE_IERIFR_t")
    2576                      .dwattr $C$DW$T$142, DW_AT_byte_size(0x02)
    2577              $C$DW$405       .dwtag  DW_TAG_member
    2578                      .dwattr $C$DW$405, DW_AT_type(*$C$DW$T$24)
    2579                      .dwattr $C$DW$405, DW_AT_name("IER")
    2580                      .dwattr $C$DW$405, DW_AT_TI_symbol_name("_IER")
    2581                      .dwattr $C$DW$405, DW_AT_data_member_location[DW_OP_plus_uconst 0x0]
    2582                      .dwattr $C$DW$405, DW_AT_accessibility(DW_ACCESS_public)
    2583              $C$DW$406       .dwtag  DW_TAG_member
    2584                      .dwattr $C$DW$406, DW_AT_type(*$C$DW$T$24)
    2585                      .dwattr $C$DW$406, DW_AT_name("IFR")
    2586                      .dwattr $C$DW$406, DW_AT_TI_symbol_name("_IFR")
    2587                      .dwattr $C$DW$406, DW_AT_data_member_location[DW_OP_plus_uconst 0x1]
    2588                      .dwattr $C$DW$406, DW_AT_accessibility(DW_ACCESS_public)
    2589                      .dwendtag $C$DW$T$142
    2590              
    2591              $C$DW$T$143     .dwtag  DW_TAG_typedef, DW_AT_name("PIE_IERIFR_t")
    2592                      .dwattr $C$DW$T$143, DW_AT_type(*$C$DW$T$142)
    2593                      .dwattr $C$DW$T$143, DW_AT_language(DW_LANG_C)
    2594              $C$DW$407       .dwtag  DW_TAG_TI_far_type
    2595                      .dwattr $C$DW$407, DW_AT_type(*$C$DW$T$143)
    2596              $C$DW$T$144     .dwtag  DW_TAG_volatile_type
    2597                      .dwattr $C$DW$T$144, DW_AT_type(*$C$DW$407)
    2598              
    2599              $C$DW$T$145     .dwtag  DW_TAG_array_type
    2600                      .dwattr $C$DW$T$145, DW_AT_type(*$C$DW$T$144)
    2601                      .dwattr $C$DW$T$145, DW_AT_language(DW_LANG_C)
    2602                      .dwattr $C$DW$T$145, DW_AT_byte_size(0x18)
    2603              $C$DW$408       .dwtag  DW_TAG_subrange_type
    2604                      .dwattr $C$DW$408, DW_AT_upper_bound(0x0b)
    2605                      .dwendtag $C$DW$T$145
    2606              
    2607              
    2608              $C$DW$T$152     .dwtag  DW_TAG_structure_type
    2609                      .dwattr $C$DW$T$152, DW_AT_name("_PIE_Obj_")
    2610                      .dwattr $C$DW$T$152, DW_AT_byte_size(0x639c)
    2611              $C$DW$409       .dwtag  DW_TAG_member
    2612                      .dwattr $C$DW$409, DW_AT_type(*$C$DW$T$24)
    2613                      .dwattr $C$DW$409, DW_AT_name("PIECTRL")
TMS320C2000 Assembler PC v6.2.5 Sat Sep 16 15:51:24 2017

Tools Copyright (c) 1996-2014 Texas Instruments Incorporated
C:\Users\wmj\AppData\Local\Temp\1274411                              PAGE   49

    2614                      .dwattr $C$DW$409, DW_AT_TI_symbol_name("_PIECTRL")
    2615                      .dwattr $C$DW$409, DW_AT_data_member_location[DW_OP_plus_uconst 0x0]
    2616                      .dwattr $C$DW$409, DW_AT_accessibility(DW_ACCESS_public)
    2617              $C$DW$410       .dwtag  DW_TAG_member
    2618                      .dwattr $C$DW$410, DW_AT_type(*$C$DW$T$24)
    2619                      .dwattr $C$DW$410, DW_AT_name("PIEACK")
    2620                      .dwattr $C$DW$410, DW_AT_TI_symbol_name("_PIEACK")
    2621                      .dwattr $C$DW$410, DW_AT_data_member_location[DW_OP_plus_uconst 0x1]
    2622                      .dwattr $C$DW$410, DW_AT_accessibility(DW_ACCESS_public)
    2623              $C$DW$411       .dwtag  DW_TAG_member
    2624                      .dwattr $C$DW$411, DW_AT_type(*$C$DW$T$145)
    2625                      .dwattr $C$DW$411, DW_AT_name("PIEIER_PIEIFR")
    2626                      .dwattr $C$DW$411, DW_AT_TI_symbol_name("_PIEIER_PIEIFR")
    2627                      .dwattr $C$DW$411, DW_AT_data_member_location[DW_OP_plus_uconst 0x2]
    2628                      .dwattr $C$DW$411, DW_AT_accessibility(DW_ACCESS_public)
    2629              $C$DW$412       .dwtag  DW_TAG_member
    2630                      .dwattr $C$DW$412, DW_AT_type(*$C$DW$T$146)
    2631                      .dwattr $C$DW$412, DW_AT_name("rsvd_1")
    2632                      .dwattr $C$DW$412, DW_AT_TI_symbol_name("_rsvd_1")
    2633                      .dwattr $C$DW$412, DW_AT_data_member_location[DW_OP_plus_uconst 0x1a]
    2634                      .dwattr $C$DW$412, DW_AT_accessibility(DW_ACCESS_public)
    2635              $C$DW$413       .dwtag  DW_TAG_member
    2636                      .dwattr $C$DW$413, DW_AT_type(*$C$DW$T$150)
    2637                      .dwattr $C$DW$413, DW_AT_name("Reset")
    2638                      .dwattr $C$DW$413, DW_AT_TI_symbol_name("_Reset")
    2639                      .dwattr $C$DW$413, DW_AT_data_member_location[DW_OP_plus_uconst 0x20]
    2640                      .dwattr $C$DW$413, DW_AT_accessibility(DW_ACCESS_public)
    2641              $C$DW$414       .dwtag  DW_TAG_member
    2642                      .dwattr $C$DW$414, DW_AT_type(*$C$DW$T$150)
    2643                      .dwattr $C$DW$414, DW_AT_name("INT1")
    2644                      .dwattr $C$DW$414, DW_AT_TI_symbol_name("_INT1")
    2645                      .dwattr $C$DW$414, DW_AT_data_member_location[DW_OP_plus_uconst 0x22]
    2646                      .dwattr $C$DW$414, DW_AT_accessibility(DW_ACCESS_public)
    2647              $C$DW$415       .dwtag  DW_TAG_member
    2648                      .dwattr $C$DW$415, DW_AT_type(*$C$DW$T$150)
    2649                      .dwattr $C$DW$415, DW_AT_name("INT2")
    2650                      .dwattr $C$DW$415, DW_AT_TI_symbol_name("_INT2")
    2651                      .dwattr $C$DW$415, DW_AT_data_member_location[DW_OP_plus_uconst 0x24]
    2652                      .dwattr $C$DW$415, DW_AT_accessibility(DW_ACCESS_public)
    2653              $C$DW$416       .dwtag  DW_TAG_member
    2654                      .dwattr $C$DW$416, DW_AT_type(*$C$DW$T$150)
    2655                      .dwattr $C$DW$416, DW_AT_name("INT3")
    2656                      .dwattr $C$DW$416, DW_AT_TI_symbol_name("_INT3")
    2657                      .dwattr $C$DW$416, DW_AT_data_member_location[DW_OP_plus_uconst 0x26]
    2658                      .dwattr $C$DW$416, DW_AT_accessibility(DW_ACCESS_public)
    2659              $C$DW$417       .dwtag  DW_TAG_member
    2660                      .dwattr $C$DW$417, DW_AT_type(*$C$DW$T$150)
    2661                      .dwattr $C$DW$417, DW_AT_name("INT4")
    2662                      .dwattr $C$DW$417, DW_AT_TI_symbol_name("_INT4")
    2663                      .dwattr $C$DW$417, DW_AT_data_member_location[DW_OP_plus_uconst 0x28]
    2664                      .dwattr $C$DW$417, DW_AT_accessibility(DW_ACCESS_public)
    2665              $C$DW$418       .dwtag  DW_TAG_member
    2666                      .dwattr $C$DW$418, DW_AT_type(*$C$DW$T$150)
    2667                      .dwattr $C$DW$418, DW_AT_name("INT5")
    2668                      .dwattr $C$DW$418, DW_AT_TI_symbol_name("_INT5")
TMS320C2000 Assembler PC v6.2.5 Sat Sep 16 15:51:24 2017

Tools Copyright (c) 1996-2014 Texas Instruments Incorporated
C:\Users\wmj\AppData\Local\Temp\1274411                              PAGE   50

    2669                      .dwattr $C$DW$418, DW_AT_data_member_location[DW_OP_plus_uconst 0x2a]
    2670                      .dwattr $C$DW$418, DW_AT_accessibility(DW_ACCESS_public)
    2671              $C$DW$419       .dwtag  DW_TAG_member
    2672                      .dwattr $C$DW$419, DW_AT_type(*$C$DW$T$150)
    2673                      .dwattr $C$DW$419, DW_AT_name("INT6")
    2674                      .dwattr $C$DW$419, DW_AT_TI_symbol_name("_INT6")
    2675                      .dwattr $C$DW$419, DW_AT_data_member_location[DW_OP_plus_uconst 0x2c]
    2676                      .dwattr $C$DW$419, DW_AT_accessibility(DW_ACCESS_public)
    2677              $C$DW$420       .dwtag  DW_TAG_member
    2678                      .dwattr $C$DW$420, DW_AT_type(*$C$DW$T$150)
    2679                      .dwattr $C$DW$420, DW_AT_name("INT7")
    2680                      .dwattr $C$DW$420, DW_AT_TI_symbol_name("_INT7")
    2681                      .dwattr $C$DW$420, DW_AT_data_member_location[DW_OP_plus_uconst 0x2e]
    2682                      .dwattr $C$DW$420, DW_AT_accessibility(DW_ACCESS_public)
    2683              $C$DW$421       .dwtag  DW_TAG_member
    2684                      .dwattr $C$DW$421, DW_AT_type(*$C$DW$T$150)
    2685                      .dwattr $C$DW$421, DW_AT_name("INT8")
    2686                      .dwattr $C$DW$421, DW_AT_TI_symbol_name("_INT8")
    2687                      .dwattr $C$DW$421, DW_AT_data_member_location[DW_OP_plus_uconst 0x30]
    2688                      .dwattr $C$DW$421, DW_AT_accessibility(DW_ACCESS_public)
    2689              $C$DW$422       .dwtag  DW_TAG_member
    2690                      .dwattr $C$DW$422, DW_AT_type(*$C$DW$T$150)
    2691                      .dwattr $C$DW$422, DW_AT_name("INT9")
    2692                      .dwattr $C$DW$422, DW_AT_TI_symbol_name("_INT9")
    2693                      .dwattr $C$DW$422, DW_AT_data_member_location[DW_OP_plus_uconst 0x32]
    2694                      .dwattr $C$DW$422, DW_AT_accessibility(DW_ACCESS_public)
    2695              $C$DW$423       .dwtag  DW_TAG_member
    2696                      .dwattr $C$DW$423, DW_AT_type(*$C$DW$T$150)
    2697                      .dwattr $C$DW$423, DW_AT_name("INT10")
    2698                      .dwattr $C$DW$423, DW_AT_TI_symbol_name("_INT10")
    2699                      .dwattr $C$DW$423, DW_AT_data_member_location[DW_OP_plus_uconst 0x34]
    2700                      .dwattr $C$DW$423, DW_AT_accessibility(DW_ACCESS_public)
    2701              $C$DW$424       .dwtag  DW_TAG_member
    2702                      .dwattr $C$DW$424, DW_AT_type(*$C$DW$T$150)
    2703                      .dwattr $C$DW$424, DW_AT_name("INT11")
    2704                      .dwattr $C$DW$424, DW_AT_TI_symbol_name("_INT11")
    2705                      .dwattr $C$DW$424, DW_AT_data_member_location[DW_OP_plus_uconst 0x36]
    2706                      .dwattr $C$DW$424, DW_AT_accessibility(DW_ACCESS_public)
    2707              $C$DW$425       .dwtag  DW_TAG_member
    2708                      .dwattr $C$DW$425, DW_AT_type(*$C$DW$T$150)
    2709                      .dwattr $C$DW$425, DW_AT_name("INT12")
    2710                      .dwattr $C$DW$425, DW_AT_TI_symbol_name("_INT12")
    2711                      .dwattr $C$DW$425, DW_AT_data_member_location[DW_OP_plus_uconst 0x38]
    2712                      .dwattr $C$DW$425, DW_AT_accessibility(DW_ACCESS_public)
    2713              $C$DW$426       .dwtag  DW_TAG_member
    2714                      .dwattr $C$DW$426, DW_AT_type(*$C$DW$T$150)
    2715                      .dwattr $C$DW$426, DW_AT_name("TINT1")
    2716                      .dwattr $C$DW$426, DW_AT_TI_symbol_name("_TINT1")
    2717                      .dwattr $C$DW$426, DW_AT_data_member_location[DW_OP_plus_uconst 0x3a]
    2718                      .dwattr $C$DW$426, DW_AT_accessibility(DW_ACCESS_public)
    2719              $C$DW$427       .dwtag  DW_TAG_member
    2720                      .dwattr $C$DW$427, DW_AT_type(*$C$DW$T$150)
    2721                      .dwattr $C$DW$427, DW_AT_name("TINT2")
    2722                      .dwattr $C$DW$427, DW_AT_TI_symbol_name("_TINT2")
    2723                      .dwattr $C$DW$427, DW_AT_data_member_location[DW_OP_plus_uconst 0x3c]
TMS320C2000 Assembler PC v6.2.5 Sat Sep 16 15:51:24 2017

Tools Copyright (c) 1996-2014 Texas Instruments Incorporated
C:\Users\wmj\AppData\Local\Temp\1274411                              PAGE   51

    2724                      .dwattr $C$DW$427, DW_AT_accessibility(DW_ACCESS_public)
    2725              $C$DW$428       .dwtag  DW_TAG_member
    2726                      .dwattr $C$DW$428, DW_AT_type(*$C$DW$T$150)
    2727                      .dwattr $C$DW$428, DW_AT_name("DATALOG")
    2728                      .dwattr $C$DW$428, DW_AT_TI_symbol_name("_DATALOG")
    2729                      .dwattr $C$DW$428, DW_AT_data_member_location[DW_OP_plus_uconst 0x3e]
    2730                      .dwattr $C$DW$428, DW_AT_accessibility(DW_ACCESS_public)
    2731              $C$DW$429       .dwtag  DW_TAG_member
    2732                      .dwattr $C$DW$429, DW_AT_type(*$C$DW$T$150)
    2733                      .dwattr $C$DW$429, DW_AT_name("RTOSINT")
    2734                      .dwattr $C$DW$429, DW_AT_TI_symbol_name("_RTOSINT")
    2735                      .dwattr $C$DW$429, DW_AT_data_member_location[DW_OP_plus_uconst 0x40]
    2736                      .dwattr $C$DW$429, DW_AT_accessibility(DW_ACCESS_public)
    2737              $C$DW$430       .dwtag  DW_TAG_member
    2738                      .dwattr $C$DW$430, DW_AT_type(*$C$DW$T$150)
    2739                      .dwattr $C$DW$430, DW_AT_name("EMUINT")
    2740                      .dwattr $C$DW$430, DW_AT_TI_symbol_name("_EMUINT")
    2741                      .dwattr $C$DW$430, DW_AT_data_member_location[DW_OP_plus_uconst 0x42]
    2742                      .dwattr $C$DW$430, DW_AT_accessibility(DW_ACCESS_public)
    2743              $C$DW$431       .dwtag  DW_TAG_member
    2744                      .dwattr $C$DW$431, DW_AT_type(*$C$DW$T$150)
    2745                      .dwattr $C$DW$431, DW_AT_name("NMI")
    2746                      .dwattr $C$DW$431, DW_AT_TI_symbol_name("_NMI")
    2747                      .dwattr $C$DW$431, DW_AT_data_member_location[DW_OP_plus_uconst 0x44]
    2748                      .dwattr $C$DW$431, DW_AT_accessibility(DW_ACCESS_public)
    2749              $C$DW$432       .dwtag  DW_TAG_member
    2750                      .dwattr $C$DW$432, DW_AT_type(*$C$DW$T$150)
    2751                      .dwattr $C$DW$432, DW_AT_name("ILLEGAL")
    2752                      .dwattr $C$DW$432, DW_AT_TI_symbol_name("_ILLEGAL")
    2753                      .dwattr $C$DW$432, DW_AT_data_member_location[DW_OP_plus_uconst 0x46]
    2754                      .dwattr $C$DW$432, DW_AT_accessibility(DW_ACCESS_public)
    2755              $C$DW$433       .dwtag  DW_TAG_member
    2756                      .dwattr $C$DW$433, DW_AT_type(*$C$DW$T$150)
    2757                      .dwattr $C$DW$433, DW_AT_name("USER1")
    2758                      .dwattr $C$DW$433, DW_AT_TI_symbol_name("_USER1")
    2759                      .dwattr $C$DW$433, DW_AT_data_member_location[DW_OP_plus_uconst 0x48]
    2760                      .dwattr $C$DW$433, DW_AT_accessibility(DW_ACCESS_public)
    2761              $C$DW$434       .dwtag  DW_TAG_member
    2762                      .dwattr $C$DW$434, DW_AT_type(*$C$DW$T$150)
    2763                      .dwattr $C$DW$434, DW_AT_name("USER2")
    2764                      .dwattr $C$DW$434, DW_AT_TI_symbol_name("_USER2")
    2765                      .dwattr $C$DW$434, DW_AT_data_member_location[DW_OP_plus_uconst 0x4a]
    2766                      .dwattr $C$DW$434, DW_AT_accessibility(DW_ACCESS_public)
    2767              $C$DW$435       .dwtag  DW_TAG_member
    2768                      .dwattr $C$DW$435, DW_AT_type(*$C$DW$T$150)
    2769                      .dwattr $C$DW$435, DW_AT_name("USER3")
    2770                      .dwattr $C$DW$435, DW_AT_TI_symbol_name("_USER3")
    2771                      .dwattr $C$DW$435, DW_AT_data_member_location[DW_OP_plus_uconst 0x4c]
    2772                      .dwattr $C$DW$435, DW_AT_accessibility(DW_ACCESS_public)
    2773              $C$DW$436       .dwtag  DW_TAG_member
    2774                      .dwattr $C$DW$436, DW_AT_type(*$C$DW$T$150)
    2775                      .dwattr $C$DW$436, DW_AT_name("USER4")
    2776                      .dwattr $C$DW$436, DW_AT_TI_symbol_name("_USER4")
    2777                      .dwattr $C$DW$436, DW_AT_data_member_location[DW_OP_plus_uconst 0x4e]
    2778                      .dwattr $C$DW$436, DW_AT_accessibility(DW_ACCESS_public)
TMS320C2000 Assembler PC v6.2.5 Sat Sep 16 15:51:24 2017

Tools Copyright (c) 1996-2014 Texas Instruments Incorporated
C:\Users\wmj\AppData\Local\Temp\1274411                              PAGE   52

    2779              $C$DW$437       .dwtag  DW_TAG_member
    2780                      .dwattr $C$DW$437, DW_AT_type(*$C$DW$T$150)
    2781                      .dwattr $C$DW$437, DW_AT_name("USER5")
    2782                      .dwattr $C$DW$437, DW_AT_TI_symbol_name("_USER5")
    2783                      .dwattr $C$DW$437, DW_AT_data_member_location[DW_OP_plus_uconst 0x50]
    2784                      .dwattr $C$DW$437, DW_AT_accessibility(DW_ACCESS_public)
    2785              $C$DW$438       .dwtag  DW_TAG_member
    2786                      .dwattr $C$DW$438, DW_AT_type(*$C$DW$T$150)
    2787                      .dwattr $C$DW$438, DW_AT_name("USER6")
    2788                      .dwattr $C$DW$438, DW_AT_TI_symbol_name("_USER6")
    2789                      .dwattr $C$DW$438, DW_AT_data_member_location[DW_OP_plus_uconst 0x52]
    2790                      .dwattr $C$DW$438, DW_AT_accessibility(DW_ACCESS_public)
    2791              $C$DW$439       .dwtag  DW_TAG_member
    2792                      .dwattr $C$DW$439, DW_AT_type(*$C$DW$T$150)
    2793                      .dwattr $C$DW$439, DW_AT_name("USER7")
    2794                      .dwattr $C$DW$439, DW_AT_TI_symbol_name("_USER7")
    2795                      .dwattr $C$DW$439, DW_AT_data_member_location[DW_OP_plus_uconst 0x54]
    2796                      .dwattr $C$DW$439, DW_AT_accessibility(DW_ACCESS_public)
    2797              $C$DW$440       .dwtag  DW_TAG_member
    2798                      .dwattr $C$DW$440, DW_AT_type(*$C$DW$T$150)
    2799                      .dwattr $C$DW$440, DW_AT_name("USER8")
    2800                      .dwattr $C$DW$440, DW_AT_TI_symbol_name("_USER8")
    2801                      .dwattr $C$DW$440, DW_AT_data_member_location[DW_OP_plus_uconst 0x56]
    2802                      .dwattr $C$DW$440, DW_AT_accessibility(DW_ACCESS_public)
    2803              $C$DW$441       .dwtag  DW_TAG_member
    2804                      .dwattr $C$DW$441, DW_AT_type(*$C$DW$T$150)
    2805                      .dwattr $C$DW$441, DW_AT_name("USER9")
    2806                      .dwattr $C$DW$441, DW_AT_TI_symbol_name("_USER9")
    2807                      .dwattr $C$DW$441, DW_AT_data_member_location[DW_OP_plus_uconst 0x58]
    2808                      .dwattr $C$DW$441, DW_AT_accessibility(DW_ACCESS_public)
    2809              $C$DW$442       .dwtag  DW_TAG_member
    2810                      .dwattr $C$DW$442, DW_AT_type(*$C$DW$T$150)
    2811                      .dwattr $C$DW$442, DW_AT_name("USER10")
    2812                      .dwattr $C$DW$442, DW_AT_TI_symbol_name("_USER10")
    2813                      .dwattr $C$DW$442, DW_AT_data_member_location[DW_OP_plus_uconst 0x5a]
    2814                      .dwattr $C$DW$442, DW_AT_accessibility(DW_ACCESS_public)
    2815              $C$DW$443       .dwtag  DW_TAG_member
    2816                      .dwattr $C$DW$443, DW_AT_type(*$C$DW$T$150)
    2817                      .dwattr $C$DW$443, DW_AT_name("USER11")
    2818                      .dwattr $C$DW$443, DW_AT_TI_symbol_name("_USER11")
    2819                      .dwattr $C$DW$443, DW_AT_data_member_location[DW_OP_plus_uconst 0x5c]
    2820                      .dwattr $C$DW$443, DW_AT_accessibility(DW_ACCESS_public)
    2821              $C$DW$444       .dwtag  DW_TAG_member
    2822                      .dwattr $C$DW$444, DW_AT_type(*$C$DW$T$150)
    2823                      .dwattr $C$DW$444, DW_AT_name("USER12")
    2824                      .dwattr $C$DW$444, DW_AT_TI_symbol_name("_USER12")
    2825                      .dwattr $C$DW$444, DW_AT_data_member_location[DW_OP_plus_uconst 0x5e]
    2826                      .dwattr $C$DW$444, DW_AT_accessibility(DW_ACCESS_public)
    2827              $C$DW$445       .dwtag  DW_TAG_member
    2828                      .dwattr $C$DW$445, DW_AT_type(*$C$DW$T$150)
    2829                      .dwattr $C$DW$445, DW_AT_name("ADCINT1_HP")
    2830                      .dwattr $C$DW$445, DW_AT_TI_symbol_name("_ADCINT1_HP")
    2831                      .dwattr $C$DW$445, DW_AT_data_member_location[DW_OP_plus_uconst 0x60]
    2832                      .dwattr $C$DW$445, DW_AT_accessibility(DW_ACCESS_public)
    2833              $C$DW$446       .dwtag  DW_TAG_member
TMS320C2000 Assembler PC v6.2.5 Sat Sep 16 15:51:24 2017

Tools Copyright (c) 1996-2014 Texas Instruments Incorporated
C:\Users\wmj\AppData\Local\Temp\1274411                              PAGE   53

    2834                      .dwattr $C$DW$446, DW_AT_type(*$C$DW$T$150)
    2835                      .dwattr $C$DW$446, DW_AT_name("ADCINT2_HP")
    2836                      .dwattr $C$DW$446, DW_AT_TI_symbol_name("_ADCINT2_HP")
    2837                      .dwattr $C$DW$446, DW_AT_data_member_location[DW_OP_plus_uconst 0x62]
    2838                      .dwattr $C$DW$446, DW_AT_accessibility(DW_ACCESS_public)
    2839              $C$DW$447       .dwtag  DW_TAG_member
    2840                      .dwattr $C$DW$447, DW_AT_type(*$C$DW$T$150)
    2841                      .dwattr $C$DW$447, DW_AT_name("rsvd1_3")
    2842                      .dwattr $C$DW$447, DW_AT_TI_symbol_name("_rsvd1_3")
    2843                      .dwattr $C$DW$447, DW_AT_data_member_location[DW_OP_plus_uconst 0x64]
    2844                      .dwattr $C$DW$447, DW_AT_accessibility(DW_ACCESS_public)
    2845              $C$DW$448       .dwtag  DW_TAG_member
    2846                      .dwattr $C$DW$448, DW_AT_type(*$C$DW$T$150)
    2847                      .dwattr $C$DW$448, DW_AT_name("XINT1")
    2848                      .dwattr $C$DW$448, DW_AT_TI_symbol_name("_XINT1")
    2849                      .dwattr $C$DW$448, DW_AT_data_member_location[DW_OP_plus_uconst 0x66]
    2850                      .dwattr $C$DW$448, DW_AT_accessibility(DW_ACCESS_public)
    2851              $C$DW$449       .dwtag  DW_TAG_member
    2852                      .dwattr $C$DW$449, DW_AT_type(*$C$DW$T$150)
    2853                      .dwattr $C$DW$449, DW_AT_name("XINT2")
    2854                      .dwattr $C$DW$449, DW_AT_TI_symbol_name("_XINT2")
    2855                      .dwattr $C$DW$449, DW_AT_data_member_location[DW_OP_plus_uconst 0x68]
    2856                      .dwattr $C$DW$449, DW_AT_accessibility(DW_ACCESS_public)
    2857              $C$DW$450       .dwtag  DW_TAG_member
    2858                      .dwattr $C$DW$450, DW_AT_type(*$C$DW$T$150)
    2859                      .dwattr $C$DW$450, DW_AT_name("ADCINT9")
    2860                      .dwattr $C$DW$450, DW_AT_TI_symbol_name("_ADCINT9")
    2861                      .dwattr $C$DW$450, DW_AT_data_member_location[DW_OP_plus_uconst 0x6a]
    2862                      .dwattr $C$DW$450, DW_AT_accessibility(DW_ACCESS_public)
    2863              $C$DW$451       .dwtag  DW_TAG_member
    2864                      .dwattr $C$DW$451, DW_AT_type(*$C$DW$T$150)
    2865                      .dwattr $C$DW$451, DW_AT_name("TINT0")
    2866                      .dwattr $C$DW$451, DW_AT_TI_symbol_name("_TINT0")
    2867                      .dwattr $C$DW$451, DW_AT_data_member_location[DW_OP_plus_uconst 0x6c]
    2868                      .dwattr $C$DW$451, DW_AT_accessibility(DW_ACCESS_public)
    2869              $C$DW$452       .dwtag  DW_TAG_member
    2870                      .dwattr $C$DW$452, DW_AT_type(*$C$DW$T$150)
    2871                      .dwattr $C$DW$452, DW_AT_name("WAKEINT")
    2872                      .dwattr $C$DW$452, DW_AT_TI_symbol_name("_WAKEINT")
    2873                      .dwattr $C$DW$452, DW_AT_data_member_location[DW_OP_plus_uconst 0x6e]
    2874                      .dwattr $C$DW$452, DW_AT_accessibility(DW_ACCESS_public)
    2875              $C$DW$453       .dwtag  DW_TAG_member
    2876                      .dwattr $C$DW$453, DW_AT_type(*$C$DW$T$150)
    2877                      .dwattr $C$DW$453, DW_AT_name("EPWM1_TZINT")
    2878                      .dwattr $C$DW$453, DW_AT_TI_symbol_name("_EPWM1_TZINT")
    2879                      .dwattr $C$DW$453, DW_AT_data_member_location[DW_OP_plus_uconst 0x70]
    2880                      .dwattr $C$DW$453, DW_AT_accessibility(DW_ACCESS_public)
    2881              $C$DW$454       .dwtag  DW_TAG_member
    2882                      .dwattr $C$DW$454, DW_AT_type(*$C$DW$T$150)
    2883                      .dwattr $C$DW$454, DW_AT_name("EPWM2_TZINT")
    2884                      .dwattr $C$DW$454, DW_AT_TI_symbol_name("_EPWM2_TZINT")
    2885                      .dwattr $C$DW$454, DW_AT_data_member_location[DW_OP_plus_uconst 0x72]
    2886                      .dwattr $C$DW$454, DW_AT_accessibility(DW_ACCESS_public)
    2887              $C$DW$455       .dwtag  DW_TAG_member
    2888                      .dwattr $C$DW$455, DW_AT_type(*$C$DW$T$150)
TMS320C2000 Assembler PC v6.2.5 Sat Sep 16 15:51:24 2017

Tools Copyright (c) 1996-2014 Texas Instruments Incorporated
C:\Users\wmj\AppData\Local\Temp\1274411                              PAGE   54

    2889                      .dwattr $C$DW$455, DW_AT_name("EPWM3_TZINT")
    2890                      .dwattr $C$DW$455, DW_AT_TI_symbol_name("_EPWM3_TZINT")
    2891                      .dwattr $C$DW$455, DW_AT_data_member_location[DW_OP_plus_uconst 0x74]
    2892                      .dwattr $C$DW$455, DW_AT_accessibility(DW_ACCESS_public)
    2893              $C$DW$456       .dwtag  DW_TAG_member
    2894                      .dwattr $C$DW$456, DW_AT_type(*$C$DW$T$150)
    2895                      .dwattr $C$DW$456, DW_AT_name("EPWM4_TZINT")
    2896                      .dwattr $C$DW$456, DW_AT_TI_symbol_name("_EPWM4_TZINT")
    2897                      .dwattr $C$DW$456, DW_AT_data_member_location[DW_OP_plus_uconst 0x76]
    2898                      .dwattr $C$DW$456, DW_AT_accessibility(DW_ACCESS_public)
    2899              $C$DW$457       .dwtag  DW_TAG_member
    2900                      .dwattr $C$DW$457, DW_AT_type(*$C$DW$T$150)
    2901                      .dwattr $C$DW$457, DW_AT_name("rsvd2_5")
    2902                      .dwattr $C$DW$457, DW_AT_TI_symbol_name("_rsvd2_5")
    2903                      .dwattr $C$DW$457, DW_AT_data_member_location[DW_OP_plus_uconst 0x78]
    2904                      .dwattr $C$DW$457, DW_AT_accessibility(DW_ACCESS_public)
    2905              $C$DW$458       .dwtag  DW_TAG_member
    2906                      .dwattr $C$DW$458, DW_AT_type(*$C$DW$T$150)
    2907                      .dwattr $C$DW$458, DW_AT_name("rsvd2_6")
    2908                      .dwattr $C$DW$458, DW_AT_TI_symbol_name("_rsvd2_6")
    2909                      .dwattr $C$DW$458, DW_AT_data_member_location[DW_OP_plus_uconst 0x7a]
    2910                      .dwattr $C$DW$458, DW_AT_accessibility(DW_ACCESS_public)
    2911              $C$DW$459       .dwtag  DW_TAG_member
    2912                      .dwattr $C$DW$459, DW_AT_type(*$C$DW$T$150)
    2913                      .dwattr $C$DW$459, DW_AT_name("rsvd2_7")
    2914                      .dwattr $C$DW$459, DW_AT_TI_symbol_name("_rsvd2_7")
    2915                      .dwattr $C$DW$459, DW_AT_data_member_location[DW_OP_plus_uconst 0x7c]
    2916                      .dwattr $C$DW$459, DW_AT_accessibility(DW_ACCESS_public)
    2917              $C$DW$460       .dwtag  DW_TAG_member
    2918                      .dwattr $C$DW$460, DW_AT_type(*$C$DW$T$150)
    2919                      .dwattr $C$DW$460, DW_AT_name("rsvd2_8")
    2920                      .dwattr $C$DW$460, DW_AT_TI_symbol_name("_rsvd2_8")
    2921                      .dwattr $C$DW$460, DW_AT_data_member_location[DW_OP_plus_uconst 0x7e]
    2922                      .dwattr $C$DW$460, DW_AT_accessibility(DW_ACCESS_public)
    2923              $C$DW$461       .dwtag  DW_TAG_member
    2924                      .dwattr $C$DW$461, DW_AT_type(*$C$DW$T$150)
    2925                      .dwattr $C$DW$461, DW_AT_name("EPWM1_INT")
    2926                      .dwattr $C$DW$461, DW_AT_TI_symbol_name("_EPWM1_INT")
    2927                      .dwattr $C$DW$461, DW_AT_data_member_location[DW_OP_plus_uconst 0x80]
    2928                      .dwattr $C$DW$461, DW_AT_accessibility(DW_ACCESS_public)
    2929              $C$DW$462       .dwtag  DW_TAG_member
    2930                      .dwattr $C$DW$462, DW_AT_type(*$C$DW$T$150)
    2931                      .dwattr $C$DW$462, DW_AT_name("EPWM2_INT")
    2932                      .dwattr $C$DW$462, DW_AT_TI_symbol_name("_EPWM2_INT")
    2933                      .dwattr $C$DW$462, DW_AT_data_member_location[DW_OP_plus_uconst 0x82]
    2934                      .dwattr $C$DW$462, DW_AT_accessibility(DW_ACCESS_public)
    2935              $C$DW$463       .dwtag  DW_TAG_member
    2936                      .dwattr $C$DW$463, DW_AT_type(*$C$DW$T$150)
    2937                      .dwattr $C$DW$463, DW_AT_name("EPWM3_INT")
    2938                      .dwattr $C$DW$463, DW_AT_TI_symbol_name("_EPWM3_INT")
    2939                      .dwattr $C$DW$463, DW_AT_data_member_location[DW_OP_plus_uconst 0x84]
    2940                      .dwattr $C$DW$463, DW_AT_accessibility(DW_ACCESS_public)
    2941              $C$DW$464       .dwtag  DW_TAG_member
    2942                      .dwattr $C$DW$464, DW_AT_type(*$C$DW$T$150)
    2943                      .dwattr $C$DW$464, DW_AT_name("EPWM4_INT")
TMS320C2000 Assembler PC v6.2.5 Sat Sep 16 15:51:24 2017

Tools Copyright (c) 1996-2014 Texas Instruments Incorporated
C:\Users\wmj\AppData\Local\Temp\1274411                              PAGE   55

    2944                      .dwattr $C$DW$464, DW_AT_TI_symbol_name("_EPWM4_INT")
    2945                      .dwattr $C$DW$464, DW_AT_data_member_location[DW_OP_plus_uconst 0x86]
    2946                      .dwattr $C$DW$464, DW_AT_accessibility(DW_ACCESS_public)
    2947              $C$DW$465       .dwtag  DW_TAG_member
    2948                      .dwattr $C$DW$465, DW_AT_type(*$C$DW$T$150)
    2949                      .dwattr $C$DW$465, DW_AT_name("rsvd3_5")
    2950                      .dwattr $C$DW$465, DW_AT_TI_symbol_name("_rsvd3_5")
    2951                      .dwattr $C$DW$465, DW_AT_data_member_location[DW_OP_plus_uconst 0x88]
    2952                      .dwattr $C$DW$465, DW_AT_accessibility(DW_ACCESS_public)
    2953              $C$DW$466       .dwtag  DW_TAG_member
    2954                      .dwattr $C$DW$466, DW_AT_type(*$C$DW$T$150)
    2955                      .dwattr $C$DW$466, DW_AT_name("rsvd3_6")
    2956                      .dwattr $C$DW$466, DW_AT_TI_symbol_name("_rsvd3_6")
    2957                      .dwattr $C$DW$466, DW_AT_data_member_location[DW_OP_plus_uconst 0x8a]
    2958                      .dwattr $C$DW$466, DW_AT_accessibility(DW_ACCESS_public)
    2959              $C$DW$467       .dwtag  DW_TAG_member
    2960                      .dwattr $C$DW$467, DW_AT_type(*$C$DW$T$150)
    2961                      .dwattr $C$DW$467, DW_AT_name("rsvd3_7")
    2962                      .dwattr $C$DW$467, DW_AT_TI_symbol_name("_rsvd3_7")
    2963                      .dwattr $C$DW$467, DW_AT_data_member_location[DW_OP_plus_uconst 0x8c]
    2964                      .dwattr $C$DW$467, DW_AT_accessibility(DW_ACCESS_public)
    2965              $C$DW$468       .dwtag  DW_TAG_member
    2966                      .dwattr $C$DW$468, DW_AT_type(*$C$DW$T$150)
    2967                      .dwattr $C$DW$468, DW_AT_name("rsvd3_8")
    2968                      .dwattr $C$DW$468, DW_AT_TI_symbol_name("_rsvd3_8")
    2969                      .dwattr $C$DW$468, DW_AT_data_member_location[DW_OP_plus_uconst 0x8e]
    2970                      .dwattr $C$DW$468, DW_AT_accessibility(DW_ACCESS_public)
    2971              $C$DW$469       .dwtag  DW_TAG_member
    2972                      .dwattr $C$DW$469, DW_AT_type(*$C$DW$T$150)
    2973                      .dwattr $C$DW$469, DW_AT_name("ECAP1_INT")
    2974                      .dwattr $C$DW$469, DW_AT_TI_symbol_name("_ECAP1_INT")
    2975                      .dwattr $C$DW$469, DW_AT_data_member_location[DW_OP_plus_uconst 0x90]
    2976                      .dwattr $C$DW$469, DW_AT_accessibility(DW_ACCESS_public)
    2977              $C$DW$470       .dwtag  DW_TAG_member
    2978                      .dwattr $C$DW$470, DW_AT_type(*$C$DW$T$150)
    2979                      .dwattr $C$DW$470, DW_AT_name("rsvd4_2")
    2980                      .dwattr $C$DW$470, DW_AT_TI_symbol_name("_rsvd4_2")
    2981                      .dwattr $C$DW$470, DW_AT_data_member_location[DW_OP_plus_uconst 0x92]
    2982                      .dwattr $C$DW$470, DW_AT_accessibility(DW_ACCESS_public)
    2983              $C$DW$471       .dwtag  DW_TAG_member
    2984                      .dwattr $C$DW$471, DW_AT_type(*$C$DW$T$150)
    2985                      .dwattr $C$DW$471, DW_AT_name("rsvd4_3")
    2986                      .dwattr $C$DW$471, DW_AT_TI_symbol_name("_rsvd4_3")
    2987                      .dwattr $C$DW$471, DW_AT_data_member_location[DW_OP_plus_uconst 0x94]
    2988                      .dwattr $C$DW$471, DW_AT_accessibility(DW_ACCESS_public)
    2989              $C$DW$472       .dwtag  DW_TAG_member
    2990                      .dwattr $C$DW$472, DW_AT_type(*$C$DW$T$150)
    2991                      .dwattr $C$DW$472, DW_AT_name("rsvd4_4")
    2992                      .dwattr $C$DW$472, DW_AT_TI_symbol_name("_rsvd4_4")
    2993                      .dwattr $C$DW$472, DW_AT_data_member_location[DW_OP_plus_uconst 0x96]
    2994                      .dwattr $C$DW$472, DW_AT_accessibility(DW_ACCESS_public)
    2995              $C$DW$473       .dwtag  DW_TAG_member
    2996                      .dwattr $C$DW$473, DW_AT_type(*$C$DW$T$150)
    2997                      .dwattr $C$DW$473, DW_AT_name("rsvd4_5")
    2998                      .dwattr $C$DW$473, DW_AT_TI_symbol_name("_rsvd4_5")
TMS320C2000 Assembler PC v6.2.5 Sat Sep 16 15:51:24 2017

Tools Copyright (c) 1996-2014 Texas Instruments Incorporated
C:\Users\wmj\AppData\Local\Temp\1274411                              PAGE   56

    2999                      .dwattr $C$DW$473, DW_AT_data_member_location[DW_OP_plus_uconst 0x98]
    3000                      .dwattr $C$DW$473, DW_AT_accessibility(DW_ACCESS_public)
    3001              $C$DW$474       .dwtag  DW_TAG_member
    3002                      .dwattr $C$DW$474, DW_AT_type(*$C$DW$T$150)
    3003                      .dwattr $C$DW$474, DW_AT_name("rsvd4_6")
    3004                      .dwattr $C$DW$474, DW_AT_TI_symbol_name("_rsvd4_6")
    3005                      .dwattr $C$DW$474, DW_AT_data_member_location[DW_OP_plus_uconst 0x9a]
    3006                      .dwattr $C$DW$474, DW_AT_accessibility(DW_ACCESS_public)
    3007              $C$DW$475       .dwtag  DW_TAG_member
    3008                      .dwattr $C$DW$475, DW_AT_type(*$C$DW$T$150)
    3009                      .dwattr $C$DW$475, DW_AT_name("rsvd4_7")
    3010                      .dwattr $C$DW$475, DW_AT_TI_symbol_name("_rsvd4_7")
    3011                      .dwattr $C$DW$475, DW_AT_data_member_location[DW_OP_plus_uconst 0x9c]
    3012                      .dwattr $C$DW$475, DW_AT_accessibility(DW_ACCESS_public)
    3013              $C$DW$476       .dwtag  DW_TAG_member
    3014                      .dwattr $C$DW$476, DW_AT_type(*$C$DW$T$150)
    3015                      .dwattr $C$DW$476, DW_AT_name("rsvd4_8")
    3016                      .dwattr $C$DW$476, DW_AT_TI_symbol_name("_rsvd4_8")
    3017                      .dwattr $C$DW$476, DW_AT_data_member_location[DW_OP_plus_uconst 0x9e]
    3018                      .dwattr $C$DW$476, DW_AT_accessibility(DW_ACCESS_public)
    3019              $C$DW$477       .dwtag  DW_TAG_member
    3020                      .dwattr $C$DW$477, DW_AT_type(*$C$DW$T$150)
    3021                      .dwattr $C$DW$477, DW_AT_name("rsvd5_1")
    3022                      .dwattr $C$DW$477, DW_AT_TI_symbol_name("_rsvd5_1")
    3023                      .dwattr $C$DW$477, DW_AT_data_member_location[DW_OP_plus_uconst 0xa0]
    3024                      .dwattr $C$DW$477, DW_AT_accessibility(DW_ACCESS_public)
    3025              $C$DW$478       .dwtag  DW_TAG_member
    3026                      .dwattr $C$DW$478, DW_AT_type(*$C$DW$T$150)
    3027                      .dwattr $C$DW$478, DW_AT_name("rsvd5_2")
    3028                      .dwattr $C$DW$478, DW_AT_TI_symbol_name("_rsvd5_2")
    3029                      .dwattr $C$DW$478, DW_AT_data_member_location[DW_OP_plus_uconst 0xa2]
    3030                      .dwattr $C$DW$478, DW_AT_accessibility(DW_ACCESS_public)
    3031              $C$DW$479       .dwtag  DW_TAG_member
    3032                      .dwattr $C$DW$479, DW_AT_type(*$C$DW$T$150)
    3033                      .dwattr $C$DW$479, DW_AT_name("rsvd5_3")
    3034                      .dwattr $C$DW$479, DW_AT_TI_symbol_name("_rsvd5_3")
    3035                      .dwattr $C$DW$479, DW_AT_data_member_location[DW_OP_plus_uconst 0xa4]
    3036                      .dwattr $C$DW$479, DW_AT_accessibility(DW_ACCESS_public)
    3037              $C$DW$480       .dwtag  DW_TAG_member
    3038                      .dwattr $C$DW$480, DW_AT_type(*$C$DW$T$150)
    3039                      .dwattr $C$DW$480, DW_AT_name("rsvd5_4")
    3040                      .dwattr $C$DW$480, DW_AT_TI_symbol_name("_rsvd5_4")
    3041                      .dwattr $C$DW$480, DW_AT_data_member_location[DW_OP_plus_uconst 0xa6]
    3042                      .dwattr $C$DW$480, DW_AT_accessibility(DW_ACCESS_public)
    3043              $C$DW$481       .dwtag  DW_TAG_member
    3044                      .dwattr $C$DW$481, DW_AT_type(*$C$DW$T$150)
    3045                      .dwattr $C$DW$481, DW_AT_name("rsvd5_5")
    3046                      .dwattr $C$DW$481, DW_AT_TI_symbol_name("_rsvd5_5")
    3047                      .dwattr $C$DW$481, DW_AT_data_member_location[DW_OP_plus_uconst 0xa8]
    3048                      .dwattr $C$DW$481, DW_AT_accessibility(DW_ACCESS_public)
    3049              $C$DW$482       .dwtag  DW_TAG_member
    3050                      .dwattr $C$DW$482, DW_AT_type(*$C$DW$T$150)
    3051                      .dwattr $C$DW$482, DW_AT_name("rsvd5_6")
    3052                      .dwattr $C$DW$482, DW_AT_TI_symbol_name("_rsvd5_6")
    3053                      .dwattr $C$DW$482, DW_AT_data_member_location[DW_OP_plus_uconst 0xaa]
TMS320C2000 Assembler PC v6.2.5 Sat Sep 16 15:51:24 2017

Tools Copyright (c) 1996-2014 Texas Instruments Incorporated
C:\Users\wmj\AppData\Local\Temp\1274411                              PAGE   57

    3054                      .dwattr $C$DW$482, DW_AT_accessibility(DW_ACCESS_public)
    3055              $C$DW$483       .dwtag  DW_TAG_member
    3056                      .dwattr $C$DW$483, DW_AT_type(*$C$DW$T$150)
    3057                      .dwattr $C$DW$483, DW_AT_name("rsvd5_7")
    3058                      .dwattr $C$DW$483, DW_AT_TI_symbol_name("_rsvd5_7")
    3059                      .dwattr $C$DW$483, DW_AT_data_member_location[DW_OP_plus_uconst 0xac]
    3060                      .dwattr $C$DW$483, DW_AT_accessibility(DW_ACCESS_public)
    3061              $C$DW$484       .dwtag  DW_TAG_member
    3062                      .dwattr $C$DW$484, DW_AT_type(*$C$DW$T$150)
    3063                      .dwattr $C$DW$484, DW_AT_name("rsvd5_8")
    3064                      .dwattr $C$DW$484, DW_AT_TI_symbol_name("_rsvd5_8")
    3065                      .dwattr $C$DW$484, DW_AT_data_member_location[DW_OP_plus_uconst 0xae]
    3066                      .dwattr $C$DW$484, DW_AT_accessibility(DW_ACCESS_public)
    3067              $C$DW$485       .dwtag  DW_TAG_member
    3068                      .dwattr $C$DW$485, DW_AT_type(*$C$DW$T$150)
    3069                      .dwattr $C$DW$485, DW_AT_name("SPIRXINTA")
    3070                      .dwattr $C$DW$485, DW_AT_TI_symbol_name("_SPIRXINTA")
    3071                      .dwattr $C$DW$485, DW_AT_data_member_location[DW_OP_plus_uconst 0xb0]
    3072                      .dwattr $C$DW$485, DW_AT_accessibility(DW_ACCESS_public)
    3073              $C$DW$486       .dwtag  DW_TAG_member
    3074                      .dwattr $C$DW$486, DW_AT_type(*$C$DW$T$150)
    3075                      .dwattr $C$DW$486, DW_AT_name("SPITXINTA")
    3076                      .dwattr $C$DW$486, DW_AT_TI_symbol_name("_SPITXINTA")
    3077                      .dwattr $C$DW$486, DW_AT_data_member_location[DW_OP_plus_uconst 0xb2]
    3078                      .dwattr $C$DW$486, DW_AT_accessibility(DW_ACCESS_public)
    3079              $C$DW$487       .dwtag  DW_TAG_member
    3080                      .dwattr $C$DW$487, DW_AT_type(*$C$DW$T$150)
    3081                      .dwattr $C$DW$487, DW_AT_name("rsvd6_3")
    3082                      .dwattr $C$DW$487, DW_AT_TI_symbol_name("_rsvd6_3")
    3083                      .dwattr $C$DW$487, DW_AT_data_member_location[DW_OP_plus_uconst 0xb4]
    3084                      .dwattr $C$DW$487, DW_AT_accessibility(DW_ACCESS_public)
    3085              $C$DW$488       .dwtag  DW_TAG_member
    3086                      .dwattr $C$DW$488, DW_AT_type(*$C$DW$T$150)
    3087                      .dwattr $C$DW$488, DW_AT_name("rsvd6_4")
    3088                      .dwattr $C$DW$488, DW_AT_TI_symbol_name("_rsvd6_4")
