TMS320C2000 Assembler PC v6.2.5 Tue Sep 26 10:29:40 2017

Tools Copyright (c) 1996-2014 Texas Instruments Incorporated
C:\Users\wmj\AppData\Local\Temp\1168813                              PAGE    1

       1              ;***************************************************************
       2              ;* TMS320C2000 C/C++ Codegen                         PC v6.2.5 *
       3              ;* Date/Time created: Tue Sep 26 10:29:39 2017                 *
       4              ;***************************************************************
       5                      .compiler_opts --float_support=softlib --hll_source=on --mem_model:code=flat --mem_model:data=large -
       6        0002  FP      .set    XAR2
       7              
       8              $C$DW$CU        .dwtag  DW_TAG_compile_unit
       9                      .dwattr $C$DW$CU, DW_AT_name("D:/BM1000/sw/solutions/instaspin_foc/src/proj_lab05b.c")
      10                      .dwattr $C$DW$CU, DW_AT_producer("TMS320C2000 C/C++ Codegen PC v6.2.5 Copyright (c) 1996-2014 Texas I
      11                      .dwattr $C$DW$CU, DW_AT_TI_version(0x01)
      12                      .dwattr $C$DW$CU, DW_AT_comp_dir("D:\BM1000\sw\solutions\instaspin_foc\boards\hvkit_rev1p1\f28x\f2802
      13              ;**************************************************************
      14              ;* CINIT RECORDS                                              *
      15              ;**************************************************************
      16 00000000               .sect   ".cinit"
      17                      .align  1
      18 00000000 FFFF          .field          -1,16
      19 00000001 0000-         .field          _gLEDcnt+0,32
         00000002 0000 
      20 00000003 0000          .bits   0,16                    ; _gLEDcnt @ 0
      21              
      22 00000004               .sect   ".cinit"
      23                      .align  1
      24 00000004 FFFF          .field          -1,16
      25 00000005 0001-         .field          _gCounter_updateGlobals+0,32
         00000006 0000 
      26 00000007 0000          .bits   0,16                    ; _gCounter_updateGlobals @ 0
      27              
      28 00000008               .sect   ".cinit"
      29                      .align  1
      30 00000008 FFFF          .field          -1,16
      31 00000009 0002-         .field          _Flag_Latch_softwareUpdate+0,32
         0000000a 0000 
      32 0000000b 0001          .bits   1,16                    ; _Flag_Latch_softwareUpdate @ 0
      33              
      34 0000000c               .sect   ".cinit"
      35                      .align  1
      36 0000000c FFFE          .field          -2,16
      37 0000000d 000E-         .field          _gMaxCurrentSlope+0,32
         0000000e 0000 
      38 0000000f 0000          .bits   0,32                    ; _gMaxCurrentSlope @ 0
         00000010 0000 
      39              
      40 00000011               .sect   ".cinit"
      41                      .align  1
      42 00000011 FFFA          .field          -$C$IR_1,16
      43 00000012 001C-         .field          _gPwmData+0,32
         00000013 0000 
      44 00000014 0000          .bits   0,32                    ; _gPwmData._Tabc._value[0] @ 0
         00000015 0000 
      45 00000016 0000          .bits   0,32                    ; _gPwmData._Tabc._value[1] @ 32
         00000017 0000 
      46 00000018 0000          .bits   0,32                    ; _gPwmData._Tabc._value[2] @ 64
         00000019 0000 
TMS320C2000 Assembler PC v6.2.5 Tue Sep 26 10:29:40 2017

Tools Copyright (c) 1996-2014 Texas Instruments Incorporated
C:\Users\wmj\AppData\Local\Temp\1168813                              PAGE    2

      47        0006  $C$IR_1:        .set    6
      48              
      49 0000001a               .sect   ".cinit"
      50                      .align  1
      51 0000001a FF80          .field          -$C$IR_2,16
      52 0000001b 0100-         .field          _gMotorVars+0,32
         0000001c 0000 
      53 0000001d 0000          .bits   0,16                    ; _gMotorVars._Flag_enableSys @ 0
      54 0000001e 0000          .bits   0,16                    ; _gMotorVars._Flag_Run_Identify @ 16
      55 0000001f 0000          .bits   0,16                    ; _gMotorVars._Flag_MotorIdentified @ 32
      56 00000020 0001          .bits   1,16                    ; _gMotorVars._Flag_enableForceAngle @ 48
      57 00000021 0000          .bits   0,16                    ; _gMotorVars._Flag_enableFieldWeakening @ 64
      58 00000022 0000          .bits   0,16                    ; _gMotorVars._Flag_enableRsRecalc @ 80
      59 00000023 0001          .bits   1,16                    ; _gMotorVars._Flag_enableUserParams @ 96
      60 00000024 0001          .bits   1,16                    ; _gMotorVars._Flag_enableOffsetcalc @ 112
      61 00000025 0000          .bits   0,16                    ; _gMotorVars._Flag_enablePowerWarp @ 128
      62 00000026 0000          .bits   0,16                    ; _gMotorVars._Flag_enableSpeedCtrl @ 144
      63 00000027 0000          .bits   0,16                    ; _gMotorVars._Flag_enableRun @ 160
      64 00000028 0000          .bits   0,16                    ; _gMotorVars._Flag_RunState @ 176
      65 00000029 0000          .bits   0,16                    ; _gMotorVars._Flag_enableFlyingStart @ 192
      66 0000002a 0001          .bits   1,16                    ; _gMotorVars._CtrlState @ 208
      67 0000002b 0001          .bits   1,16                    ; _gMotorVars._EstState @ 224
      68 0000002c 0000          .bits   0,16                    ; _gMotorVars._UserErrorCode @ 240
      69 0000002d 0000          .bits   0,16                    ; _gMotorVars._CtrlVersion._rsvd @ 256
      70 0000002e 0004          .bits   4,16                    ; _gMotorVars._CtrlVersion._targetProc @ 272
      71 0000002f 0000          .bits   0,16                    ; _gMotorVars._CtrlVersion._major @ 288
      72 00000030 0000          .bits   0,16                    ; _gMotorVars._CtrlVersion._minor @ 304
      73 00000031 0000          .bits   0,32                    ; _gMotorVars._IdRef_A @ 320
         00000032 0000 
      74 00000033 0000          .bits   0,32                    ; _gMotorVars._IqRef_A @ 352
         00000034 0000 
      75 00000035 0000          .bits   0,32                    ; _gMotorVars._SpeedRef_pu @ 384
         00000036 0000 
      76 00000037 9999          .bits   1677721,32                      ; _gMotorVars._SpeedRef_krpm @ 416
         00000038 0019 
      77 00000039 0000          .bits   0,32                    ; _gMotorVars._SpeedTraj_krpm @ 448
         0000003a 0000 
      78 0000003b 3333          .bits   3355443,32                      ; _gMotorVars._MaxAccel_krpmps @ 480
         0000003c 0033 
      79 0000003d 0000          .bits   0,32                    ; _gMotorVars._Speed_krpm @ 512
         0000003e 0000 
      80 0000003f 0000          .bits   8388608,32                      ; _gMotorVars._OverModulation @ 544
         00000040 0080 
      81 00000041 3333          .bits   3355443,32                      ; _gMotorVars._RsOnLineCurrent_A @ 576
         00000042 0033 
      82 00000043 0190          .bits   400,32                  ; _gMotorVars._SvgenMaxModulation_ticks @ 608
         00000044 0000 
      83 00000045 0000          .bits   0,32                    ; _gMotorVars._Flux_Wb @ 640
         00000046 0000 
      84 00000047 0000          .bits   0,32                    ; _gMotorVars._Torque_Nm @ 672
         00000048 0000 
      85 00000049 0000          .xfloat $strtod("0x0p+0")               ; _gMotorVars._MagnCurr_A @ 704
         0000004a 0000 
      86 0000004b 0000          .xfloat $strtod("0x0p+0")               ; _gMotorVars._Rr_Ohm @ 736
         0000004c 0000 
TMS320C2000 Assembler PC v6.2.5 Tue Sep 26 10:29:40 2017

Tools Copyright (c) 1996-2014 Texas Instruments Incorporated
C:\Users\wmj\AppData\Local\Temp\1168813                              PAGE    3

      87 0000004d 0000          .xfloat $strtod("0x0p+0")               ; _gMotorVars._Rs_Ohm @ 768
         0000004e 0000 
      88 0000004f 0000          .xfloat $strtod("0x0p+0")               ; _gMotorVars._RsOnLine_Ohm @ 800
         00000050 0000 
      89 00000051 0000          .xfloat $strtod("0x0p+0")               ; _gMotorVars._Lsd_H @ 832
         00000052 0000 
      90 00000053 0000          .xfloat $strtod("0x0p+0")               ; _gMotorVars._Lsq_H @ 864
         00000054 0000 
      91 00000055 0000          .xfloat $strtod("0x0p+0")               ; _gMotorVars._Flux_VpHz @ 896
         00000056 0000 
      92 00000057 0000          .xfloat $strtod("0x0p+0")               ; _gMotorVars._ipd_excFreq_Hz @ 928
         00000058 0000 
      93 00000059 0000          .bits   0,32                    ; _gMotorVars._ipd_Kspd @ 960
         0000005a 0000 
      94 0000005b 0000          .bits   0,32                    ; _gMotorVars._ipd_excMag_coarse_pu @ 992
         0000005c 0000 
      95 0000005d 0000          .bits   0,32                    ; _gMotorVars._ipd_excMag_fine_pu @ 1024
         0000005e 0000 
      96 0000005f 0000          .xfloat $strtod("0x0p+0")               ; _gMotorVars._ipd_waitTime_coarse_sec @ 1056
         00000060 0000 
      97 00000061 0000          .xfloat $strtod("0x0p+0")               ; _gMotorVars._ipd_waitTime_fine_sec @ 1088
         00000062 0000 
      98 00000063 0000          .bits   0,32                    ; _gMotorVars._Kp_spd @ 1120
         00000064 0000 
      99 00000065 0000          .bits   0,32                    ; _gMotorVars._Ki_spd @ 1152
         00000066 0000 
     100 00000067 0000          .bits   0,32                    ; _gMotorVars._Kp_Idq @ 1184
         00000068 0000 
     101 00000069 0000          .bits   0,32                    ; _gMotorVars._Ki_Idq @ 1216
         0000006a 0000 
     102 0000006b 0000          .bits   0,32                    ; _gMotorVars._Vd @ 1248
         0000006c 0000 
     103 0000006d 0000          .bits   0,32                    ; _gMotorVars._Vq @ 1280
         0000006e 0000 
     104 0000006f 0000          .bits   0,32                    ; _gMotorVars._Vs @ 1312
         00000070 0000 
     105 00000071 6666          .bits   6710886,32                      ; _gMotorVars._VsRef @ 1344
         00000072 0066 
     106 00000073 0000          .bits   0,32                    ; _gMotorVars._VdcBus_kV @ 1376
         00000074 0000 
     107 00000075 0000          .bits   0,32                    ; _gMotorVars._Id_A @ 1408
         00000076 0000 
     108 00000077 0000          .bits   0,32                    ; _gMotorVars._Iq_A @ 1440
         00000078 0000 
     109 00000079 0000          .bits   0,32                    ; _gMotorVars._Is_A @ 1472
         0000007a 0000 
     110 0000007b 0000          .bits   0,32                    ; _gMotorVars._I_bias._value[0] @ 1504
         0000007c 0000 
     111 0000007d 0000          .bits   0,32                    ; _gMotorVars._I_bias._value[1] @ 1536
         0000007e 0000 
     112 0000007f 0000          .bits   0,32                    ; _gMotorVars._I_bias._value[2] @ 1568
         00000080 0000 
     113 00000081 0000          .bits   0,32                    ; _gMotorVars._V_bias._value[0] @ 1600
         00000082 0000 
     114 00000083 0000          .bits   0,32                    ; _gMotorVars._V_bias._value[1] @ 1632
TMS320C2000 Assembler PC v6.2.5 Tue Sep 26 10:29:40 2017

Tools Copyright (c) 1996-2014 Texas Instruments Incorporated
C:\Users\wmj\AppData\Local\Temp\1168813                              PAGE    4

         00000084 0000 
     115 00000085 0000          .bits   0,32                    ; _gMotorVars._V_bias._value[2] @ 1664
         00000086 0000 
     116 00000087 999A          .bits   10066330,32                     ; _gMotorVars._SpeedSet_krpm @ 1696
         00000088 0099 
     117 00000089 0000          .bits   0,32                    ; _gMotorVars._angle_sen_pu @ 1728
         0000008a 0000 
     118 0000008b 0000          .bits   0,32                    ; _gMotorVars._angle_est_pu @ 1760
         0000008c 0000 
     119 0000008d 0000          .bits   0,32                    ; _gMotorVars._speed_sen_pu @ 1792
         0000008e 0000 
     120 0000008f 0000          .bits   0,32                    ; _gMotorVars._speed_est_pu @ 1824
         00000090 0000 
     121 00000091 0000          .bits   0,32                    ; _gMotorVars._speedHigh_hall2fast_pu @ 1856
         00000092 0000 
     122 00000093 0000          .bits   0,32                    ; _gMotorVars._speedLow_hall2fast_pu @ 1888
         00000094 0000 
     123 00000095 0000          .bits   0,32                    ; _gMotorVars._IdSet_A @ 1920
         00000096 0000 
     124 00000097 0000          .bits   0,32                    ; _gMotorVars._IqSet_A @ 1952
         00000098 0000 
     125 00000099 0000          .bits   0,32                    ; _gMotorVars._IdRef_pu @ 1984
         0000009a 0000 
     126 0000009b 0000          .bits   0,32                    ; _gMotorVars._IqRef_pu @ 2016
         0000009c 0000 
     127        0080  $C$IR_2:        .set    128
     128              
     129              
     130              $C$DW$1 .dwtag  DW_TAG_subprogram, DW_AT_name("HAL_enableAdcInts")
     131                      .dwattr $C$DW$1, DW_AT_TI_symbol_name("_HAL_enableAdcInts")
     132                      .dwattr $C$DW$1, DW_AT_declaration
     133                      .dwattr $C$DW$1, DW_AT_external
     134              $C$DW$2 .dwtag  DW_TAG_formal_parameter
     135                      .dwattr $C$DW$2, DW_AT_type(*$C$DW$T$184)
     136                      .dwendtag $C$DW$1
     137              
     138              
     139              $C$DW$3 .dwtag  DW_TAG_subprogram, DW_AT_name("HAL_enableDebugInt")
     140                      .dwattr $C$DW$3, DW_AT_TI_symbol_name("_HAL_enableDebugInt")
     141                      .dwattr $C$DW$3, DW_AT_declaration
     142                      .dwattr $C$DW$3, DW_AT_external
     143              $C$DW$4 .dwtag  DW_TAG_formal_parameter
     144                      .dwattr $C$DW$4, DW_AT_type(*$C$DW$T$184)
     145                      .dwendtag $C$DW$3
     146              
     147              
     148              $C$DW$5 .dwtag  DW_TAG_subprogram, DW_AT_name("CTRL_setup")
     149                      .dwattr $C$DW$5, DW_AT_TI_symbol_name("_CTRL_setup")
     150                      .dwattr $C$DW$5, DW_AT_declaration
     151                      .dwattr $C$DW$5, DW_AT_external
     152              $C$DW$6 .dwtag  DW_TAG_formal_parameter
     153                      .dwattr $C$DW$6, DW_AT_type(*$C$DW$T$186)
     154                      .dwendtag $C$DW$5
     155              
     156              
TMS320C2000 Assembler PC v6.2.5 Tue Sep 26 10:29:40 2017

Tools Copyright (c) 1996-2014 Texas Instruments Incorporated
C:\Users\wmj\AppData\Local\Temp\1168813                              PAGE    5

     157              $C$DW$7 .dwtag  DW_TAG_subprogram, DW_AT_name("CTRL_setSpd_ref_krpm")
     158                      .dwattr $C$DW$7, DW_AT_TI_symbol_name("_CTRL_setSpd_ref_krpm")
     159                      .dwattr $C$DW$7, DW_AT_declaration
     160                      .dwattr $C$DW$7, DW_AT_external
     161              $C$DW$8 .dwtag  DW_TAG_formal_parameter
     162                      .dwattr $C$DW$8, DW_AT_type(*$C$DW$T$186)
     163              $C$DW$9 .dwtag  DW_TAG_formal_parameter
     164                      .dwattr $C$DW$9, DW_AT_type(*$C$DW$T$302)
     165                      .dwendtag $C$DW$7
     166              
     167              
     168              $C$DW$10        .dwtag  DW_TAG_subprogram, DW_AT_name("HAL_setupFaults")
     169                      .dwattr $C$DW$10, DW_AT_TI_symbol_name("_HAL_setupFaults")
     170                      .dwattr $C$DW$10, DW_AT_declaration
     171                      .dwattr $C$DW$10, DW_AT_external
     172              $C$DW$11        .dwtag  DW_TAG_formal_parameter
     173                      .dwattr $C$DW$11, DW_AT_type(*$C$DW$T$184)
     174                      .dwendtag $C$DW$10
     175              
     176              
     177              $C$DW$12        .dwtag  DW_TAG_subprogram, DW_AT_name("HAL_enableGlobalInts")
     178                      .dwattr $C$DW$12, DW_AT_TI_symbol_name("_HAL_enableGlobalInts")
     179                      .dwattr $C$DW$12, DW_AT_declaration
     180                      .dwattr $C$DW$12, DW_AT_external
     181              $C$DW$13        .dwtag  DW_TAG_formal_parameter
     182                      .dwattr $C$DW$13, DW_AT_type(*$C$DW$T$184)
     183                      .dwendtag $C$DW$12
     184              
     185              
     186              $C$DW$14        .dwtag  DW_TAG_subprogram, DW_AT_name("CTRL_run")
     187                      .dwattr $C$DW$14, DW_AT_TI_symbol_name("_CTRL_run")
     188                      .dwattr $C$DW$14, DW_AT_declaration
     189                      .dwattr $C$DW$14, DW_AT_external
     190              $C$DW$15        .dwtag  DW_TAG_formal_parameter
     191                      .dwattr $C$DW$15, DW_AT_type(*$C$DW$T$186)
     192              $C$DW$16        .dwtag  DW_TAG_formal_parameter
     193                      .dwattr $C$DW$16, DW_AT_type(*$C$DW$T$184)
     194              $C$DW$17        .dwtag  DW_TAG_formal_parameter
     195                      .dwattr $C$DW$17, DW_AT_type(*$C$DW$T$259)
     196              $C$DW$18        .dwtag  DW_TAG_formal_parameter
     197                      .dwattr $C$DW$18, DW_AT_type(*$C$DW$T$268)
     198                      .dwendtag $C$DW$14
     199              
     200              
     201              $C$DW$19        .dwtag  DW_TAG_subprogram, DW_AT_name("CTRL_getVersion")
     202                      .dwattr $C$DW$19, DW_AT_TI_symbol_name("_CTRL_getVersion")
     203                      .dwattr $C$DW$19, DW_AT_declaration
     204                      .dwattr $C$DW$19, DW_AT_external
     205              $C$DW$20        .dwtag  DW_TAG_formal_parameter
     206                      .dwattr $C$DW$20, DW_AT_type(*$C$DW$T$186)
     207              $C$DW$21        .dwtag  DW_TAG_formal_parameter
     208                      .dwattr $C$DW$21, DW_AT_type(*$C$DW$T$255)
     209                      .dwendtag $C$DW$19
     210              
     211              
TMS320C2000 Assembler PC v6.2.5 Tue Sep 26 10:29:40 2017

Tools Copyright (c) 1996-2014 Texas Instruments Incorporated
C:\Users\wmj\AppData\Local\Temp\1168813                              PAGE    6

     212              $C$DW$22        .dwtag  DW_TAG_subprogram, DW_AT_name("CTRL_setParams")
     213                      .dwattr $C$DW$22, DW_AT_TI_symbol_name("_CTRL_setParams")
     214                      .dwattr $C$DW$22, DW_AT_declaration
     215                      .dwattr $C$DW$22, DW_AT_external
     216              $C$DW$23        .dwtag  DW_TAG_formal_parameter
     217                      .dwattr $C$DW$23, DW_AT_type(*$C$DW$T$186)
     218              $C$DW$24        .dwtag  DW_TAG_formal_parameter
     219                      .dwattr $C$DW$24, DW_AT_type(*$C$DW$T$225)
     220                      .dwendtag $C$DW$22
     221              
     222              
     223              $C$DW$25        .dwtag  DW_TAG_subprogram, DW_AT_name("MB_RTUReceiveFSM")
     224                      .dwattr $C$DW$25, DW_AT_TI_symbol_name("_MB_RTUReceiveFSM")
     225                      .dwattr $C$DW$25, DW_AT_declaration
     226                      .dwattr $C$DW$25, DW_AT_external
     227              $C$DW$26        .dwtag  DW_TAG_formal_parameter
     228                      .dwattr $C$DW$26, DW_AT_type(*$C$DW$T$216)
     229                      .dwendtag $C$DW$25
     230              
     231              
     232              $C$DW$27        .dwtag  DW_TAG_subprogram, DW_AT_name("MB_RTUTransmitFSM")
     233                      .dwattr $C$DW$27, DW_AT_TI_symbol_name("_MB_RTUTransmitFSM")
     234                      .dwattr $C$DW$27, DW_AT_declaration
     235                      .dwattr $C$DW$27, DW_AT_external
     236              $C$DW$28        .dwtag  DW_TAG_formal_parameter
     237                      .dwattr $C$DW$28, DW_AT_type(*$C$DW$T$216)
     238                      .dwendtag $C$DW$27
     239              
     240              
     241              $C$DW$29        .dwtag  DW_TAG_subprogram, DW_AT_name("MB_setGpioHandle")
     242                      .dwattr $C$DW$29, DW_AT_TI_symbol_name("_MB_setGpioHandle")
     243                      .dwattr $C$DW$29, DW_AT_declaration
     244                      .dwattr $C$DW$29, DW_AT_external
     245              $C$DW$30        .dwtag  DW_TAG_formal_parameter
     246                      .dwattr $C$DW$30, DW_AT_type(*$C$DW$T$216)
     247              $C$DW$31        .dwtag  DW_TAG_formal_parameter
     248                      .dwattr $C$DW$31, DW_AT_type(*$C$DW$T$97)
     249                      .dwendtag $C$DW$29
     250              
     251              
     252              $C$DW$32        .dwtag  DW_TAG_subprogram, DW_AT_name("MB_RTUTimerFSM")
     253                      .dwattr $C$DW$32, DW_AT_TI_symbol_name("_MB_RTUTimerFSM")
     254                      .dwattr $C$DW$32, DW_AT_declaration
     255                      .dwattr $C$DW$32, DW_AT_external
     256              $C$DW$33        .dwtag  DW_TAG_formal_parameter
     257                      .dwattr $C$DW$33, DW_AT_type(*$C$DW$T$216)
     258                      .dwendtag $C$DW$32
     259              
     260              
     261              $C$DW$34        .dwtag  DW_TAG_subprogram, DW_AT_name("MB_setTimHandle")
     262                      .dwattr $C$DW$34, DW_AT_TI_symbol_name("_MB_setTimHandle")
     263                      .dwattr $C$DW$34, DW_AT_declaration
     264                      .dwattr $C$DW$34, DW_AT_external
     265              $C$DW$35        .dwtag  DW_TAG_formal_parameter
     266                      .dwattr $C$DW$35, DW_AT_type(*$C$DW$T$216)
TMS320C2000 Assembler PC v6.2.5 Tue Sep 26 10:29:40 2017

Tools Copyright (c) 1996-2014 Texas Instruments Incorporated
C:\Users\wmj\AppData\Local\Temp\1168813                              PAGE    7

     267              $C$DW$36        .dwtag  DW_TAG_formal_parameter
     268                      .dwattr $C$DW$36, DW_AT_type(*$C$DW$T$115)
     269                      .dwendtag $C$DW$34
     270              
     271              
     272              $C$DW$37        .dwtag  DW_TAG_subprogram, DW_AT_name("HAL_enableSciaInt")
     273                      .dwattr $C$DW$37, DW_AT_TI_symbol_name("_HAL_enableSciaInt")
     274                      .dwattr $C$DW$37, DW_AT_declaration
     275                      .dwattr $C$DW$37, DW_AT_external
     276              $C$DW$38        .dwtag  DW_TAG_formal_parameter
     277                      .dwattr $C$DW$38, DW_AT_type(*$C$DW$T$184)
     278                      .dwendtag $C$DW$37
     279              
     280              
     281              $C$DW$39        .dwtag  DW_TAG_subprogram, DW_AT_name("HAL_enableTimer1Int")
     282                      .dwattr $C$DW$39, DW_AT_TI_symbol_name("_HAL_enableTimer1Int")
     283                      .dwattr $C$DW$39, DW_AT_declaration
     284                      .dwattr $C$DW$39, DW_AT_external
     285              $C$DW$40        .dwtag  DW_TAG_formal_parameter
     286                      .dwattr $C$DW$40, DW_AT_type(*$C$DW$T$184)
     287              $C$DW$41        .dwtag  DW_TAG_formal_parameter
     288                      .dwattr $C$DW$41, DW_AT_type(*$C$DW$T$294)
     289                      .dwendtag $C$DW$39
     290              
     291              
     292              $C$DW$42        .dwtag  DW_TAG_subprogram, DW_AT_name("HAL_setParams")
     293                      .dwattr $C$DW$42, DW_AT_TI_symbol_name("_HAL_setParams")
     294                      .dwattr $C$DW$42, DW_AT_declaration
     295                      .dwattr $C$DW$42, DW_AT_external
     296              $C$DW$43        .dwtag  DW_TAG_formal_parameter
     297                      .dwattr $C$DW$43, DW_AT_type(*$C$DW$T$184)
     298              $C$DW$44        .dwtag  DW_TAG_formal_parameter
     299                      .dwattr $C$DW$44, DW_AT_type(*$C$DW$T$292)
     300                      .dwendtag $C$DW$42
     301              
     302              
     303              $C$DW$45        .dwtag  DW_TAG_subprogram, DW_AT_name("acim_Dir_qFmtCalc")
     304                      .dwattr $C$DW$45, DW_AT_TI_symbol_name("_acim_Dir_qFmtCalc")
     305                      .dwattr $C$DW$45, DW_AT_declaration
     306                      .dwattr $C$DW$45, DW_AT_external
     307              $C$DW$46        .dwtag  DW_TAG_formal_parameter
     308                      .dwattr $C$DW$46, DW_AT_type(*$C$DW$T$186)
     309                      .dwendtag $C$DW$45
     310              
     311              
     312              $C$DW$47        .dwtag  DW_TAG_subprogram, DW_AT_name("MB_setSciHandle")
     313                      .dwattr $C$DW$47, DW_AT_TI_symbol_name("_MB_setSciHandle")
     314                      .dwattr $C$DW$47, DW_AT_declaration
     315                      .dwattr $C$DW$47, DW_AT_external
     316              $C$DW$48        .dwtag  DW_TAG_formal_parameter
     317                      .dwattr $C$DW$48, DW_AT_type(*$C$DW$T$216)
     318              $C$DW$49        .dwtag  DW_TAG_formal_parameter
     319                      .dwattr $C$DW$49, DW_AT_type(*$C$DW$T$124)
     320                      .dwendtag $C$DW$47
     321              
TMS320C2000 Assembler PC v6.2.5 Tue Sep 26 10:29:40 2017

Tools Copyright (c) 1996-2014 Texas Instruments Incorporated
C:\Users\wmj\AppData\Local\Temp\1168813                              PAGE    8

     322              
     323              $C$DW$50        .dwtag  DW_TAG_subprogram, DW_AT_name("setFeLimitZero")
     324                      .dwattr $C$DW$50, DW_AT_TI_symbol_name("_setFeLimitZero")
     325                      .dwattr $C$DW$50, DW_AT_declaration
     326                      .dwattr $C$DW$50, DW_AT_external
     327              $C$DW$51        .dwtag  DW_TAG_formal_parameter
     328                      .dwattr $C$DW$51, DW_AT_type(*$C$DW$T$186)
     329                      .dwendtag $C$DW$50
     330              
     331              
     332              $C$DW$52        .dwtag  DW_TAG_subprogram, DW_AT_name("PROCTRL_setParams")
     333                      .dwattr $C$DW$52, DW_AT_TI_symbol_name("_PROCTRL_setParams")
     334                      .dwattr $C$DW$52, DW_AT_declaration
     335                      .dwattr $C$DW$52, DW_AT_external
     336              $C$DW$53        .dwtag  DW_TAG_formal_parameter
     337                      .dwattr $C$DW$53, DW_AT_type(*$C$DW$T$284)
     338                      .dwendtag $C$DW$52
     339              
     340              
     341              $C$DW$54        .dwtag  DW_TAG_subprogram, DW_AT_name("recalcKpKi")
     342                      .dwattr $C$DW$54, DW_AT_TI_symbol_name("_recalcKpKi")
     343                      .dwattr $C$DW$54, DW_AT_declaration
     344                      .dwattr $C$DW$54, DW_AT_external
     345              $C$DW$55        .dwtag  DW_TAG_formal_parameter
     346                      .dwattr $C$DW$55, DW_AT_type(*$C$DW$T$186)
     347                      .dwendtag $C$DW$54
     348              
     349              
     350              $C$DW$56        .dwtag  DW_TAG_subprogram, DW_AT_name("PROCTRL_setHalHandle")
     351                      .dwattr $C$DW$56, DW_AT_TI_symbol_name("_PROCTRL_setHalHandle")
     352                      .dwattr $C$DW$56, DW_AT_declaration
     353                      .dwattr $C$DW$56, DW_AT_external
     354              $C$DW$57        .dwtag  DW_TAG_formal_parameter
     355                      .dwattr $C$DW$57, DW_AT_type(*$C$DW$T$284)
     356              $C$DW$58        .dwtag  DW_TAG_formal_parameter
     357                      .dwattr $C$DW$58, DW_AT_type(*$C$DW$T$184)
     358                      .dwendtag $C$DW$56
     359              
     360              
     361              $C$DW$59        .dwtag  DW_TAG_subprogram, DW_AT_name("SCI_clearTxFifoInt")
     362                      .dwattr $C$DW$59, DW_AT_TI_symbol_name("_SCI_clearTxFifoInt")
     363                      .dwattr $C$DW$59, DW_AT_declaration
     364                      .dwattr $C$DW$59, DW_AT_external
     365              $C$DW$60        .dwtag  DW_TAG_formal_parameter
     366                      .dwattr $C$DW$60, DW_AT_type(*$C$DW$T$124)
     367                      .dwendtag $C$DW$59
     368              
     369              
     370              $C$DW$61        .dwtag  DW_TAG_subprogram, DW_AT_name("USER_setParams")
     371                      .dwattr $C$DW$61, DW_AT_TI_symbol_name("_USER_setParams")
     372                      .dwattr $C$DW$61, DW_AT_declaration
     373                      .dwattr $C$DW$61, DW_AT_external
     374              $C$DW$62        .dwtag  DW_TAG_formal_parameter
     375                      .dwattr $C$DW$62, DW_AT_type(*$C$DW$T$225)
     376                      .dwendtag $C$DW$61
TMS320C2000 Assembler PC v6.2.5 Tue Sep 26 10:29:40 2017

Tools Copyright (c) 1996-2014 Texas Instruments Incorporated
C:\Users\wmj\AppData\Local\Temp\1168813                              PAGE    9

     377              
     378              
     379              $C$DW$63        .dwtag  DW_TAG_subprogram, DW_AT_name("SCI_clearRxFifoOvf")
     380                      .dwattr $C$DW$63, DW_AT_TI_symbol_name("_SCI_clearRxFifoOvf")
     381                      .dwattr $C$DW$63, DW_AT_declaration
     382                      .dwattr $C$DW$63, DW_AT_external
     383              $C$DW$64        .dwtag  DW_TAG_formal_parameter
     384                      .dwattr $C$DW$64, DW_AT_type(*$C$DW$T$124)
     385                      .dwendtag $C$DW$63
     386              
     387              
     388              $C$DW$65        .dwtag  DW_TAG_subprogram, DW_AT_name("SCI_clearRxFifoInt")
     389                      .dwattr $C$DW$65, DW_AT_TI_symbol_name("_SCI_clearRxFifoInt")
     390                      .dwattr $C$DW$65, DW_AT_declaration
     391                      .dwattr $C$DW$65, DW_AT_external
     392              $C$DW$66        .dwtag  DW_TAG_formal_parameter
     393                      .dwattr $C$DW$66, DW_AT_type(*$C$DW$T$124)
     394                      .dwendtag $C$DW$65
     395              
     396              
     397              $C$DW$67        .dwtag  DW_TAG_subprogram, DW_AT_name("USER_setMotorIDs")
     398                      .dwattr $C$DW$67, DW_AT_TI_symbol_name("_USER_setMotorIDs")
     399                      .dwattr $C$DW$67, DW_AT_declaration
     400                      .dwattr $C$DW$67, DW_AT_external
     401              $C$DW$68        .dwtag  DW_TAG_formal_parameter
     402                      .dwattr $C$DW$68, DW_AT_type(*$C$DW$T$225)
     403              $C$DW$69        .dwtag  DW_TAG_formal_parameter
     404                      .dwattr $C$DW$69, DW_AT_type(*$C$DW$T$248)
     405                      .dwendtag $C$DW$67
     406              
     407              
     408              $C$DW$70        .dwtag  DW_TAG_subprogram, DW_AT_name("USER_checkForErrors")
     409                      .dwattr $C$DW$70, DW_AT_TI_symbol_name("_USER_checkForErrors")
     410                      .dwattr $C$DW$70, DW_AT_declaration
     411                      .dwattr $C$DW$70, DW_AT_external
     412              $C$DW$71        .dwtag  DW_TAG_formal_parameter
     413                      .dwattr $C$DW$71, DW_AT_type(*$C$DW$T$225)
     414                      .dwendtag $C$DW$70
     415              
     416              
     417              $C$DW$72        .dwtag  DW_TAG_subprogram, DW_AT_name("USER_setWaitTimeParams")
     418                      .dwattr $C$DW$72, DW_AT_TI_symbol_name("_USER_setWaitTimeParams")
     419                      .dwattr $C$DW$72, DW_AT_declaration
     420                      .dwattr $C$DW$72, DW_AT_external
     421              $C$DW$73        .dwtag  DW_TAG_formal_parameter
     422                      .dwattr $C$DW$73, DW_AT_type(*$C$DW$T$225)
     423                      .dwendtag $C$DW$72
     424              
     425              
     426              $C$DW$74        .dwtag  DW_TAG_subprogram, DW_AT_name("USER_setMotorParams")
     427                      .dwattr $C$DW$74, DW_AT_TI_symbol_name("_USER_setMotorParams")
     428                      .dwattr $C$DW$74, DW_AT_declaration
     429                      .dwattr $C$DW$74, DW_AT_external
     430              $C$DW$75        .dwtag  DW_TAG_formal_parameter
     431                      .dwattr $C$DW$75, DW_AT_type(*$C$DW$T$225)
TMS320C2000 Assembler PC v6.2.5 Tue Sep 26 10:29:40 2017

Tools Copyright (c) 1996-2014 Texas Instruments Incorporated
C:\Users\wmj\AppData\Local\Temp\1168813                              PAGE   10

     432                      .dwendtag $C$DW$74
     433              
     434              
     435              $C$DW$76        .dwtag  DW_TAG_subprogram, DW_AT_name("TIMER_clearFlag")
     436                      .dwattr $C$DW$76, DW_AT_TI_symbol_name("_TIMER_clearFlag")
     437                      .dwattr $C$DW$76, DW_AT_declaration
     438                      .dwattr $C$DW$76, DW_AT_external
     439              $C$DW$77        .dwtag  DW_TAG_formal_parameter
     440                      .dwattr $C$DW$77, DW_AT_type(*$C$DW$T$115)
     441                      .dwendtag $C$DW$76
     442              
     443              
     444              $C$DW$78        .dwtag  DW_TAG_subprogram, DW_AT_name("EST_setMaxCurrentSlope_pu")
     445                      .dwattr $C$DW$78, DW_AT_TI_symbol_name("_EST_setMaxCurrentSlope_pu")
     446                      .dwattr $C$DW$78, DW_AT_declaration
     447                      .dwattr $C$DW$78, DW_AT_external
     448              $C$DW$79        .dwtag  DW_TAG_formal_parameter
     449                      .dwattr $C$DW$79, DW_AT_type(*$C$DW$T$50)
     450              $C$DW$80        .dwtag  DW_TAG_formal_parameter
     451                      .dwattr $C$DW$80, DW_AT_type(*$C$DW$T$302)
     452                      .dwendtag $C$DW$78
     453              
     454              
     455              $C$DW$81        .dwtag  DW_TAG_subprogram, DW_AT_name("EST_setFlag_enableForceAngle")
     456                      .dwattr $C$DW$81, DW_AT_TI_symbol_name("_EST_setFlag_enableForceAngle")
     457                      .dwattr $C$DW$81, DW_AT_declaration
     458                      .dwattr $C$DW$81, DW_AT_external
     459              $C$DW$82        .dwtag  DW_TAG_formal_parameter
     460                      .dwattr $C$DW$82, DW_AT_type(*$C$DW$T$50)
     461              $C$DW$83        .dwtag  DW_TAG_formal_parameter
     462                      .dwattr $C$DW$83, DW_AT_type(*$C$DW$T$299)
     463                      .dwendtag $C$DW$81
     464              
     465              
     466              $C$DW$84        .dwtag  DW_TAG_subprogram, DW_AT_name("EST_setFlag_enableRsRecalc")
     467                      .dwattr $C$DW$84, DW_AT_TI_symbol_name("_EST_setFlag_enableRsRecalc")
     468                      .dwattr $C$DW$84, DW_AT_declaration
     469                      .dwattr $C$DW$84, DW_AT_external
     470              $C$DW$85        .dwtag  DW_TAG_formal_parameter
     471                      .dwattr $C$DW$85, DW_AT_type(*$C$DW$T$50)
     472              $C$DW$86        .dwtag  DW_TAG_formal_parameter
     473                      .dwattr $C$DW$86, DW_AT_type(*$C$DW$T$299)
     474                      .dwendtag $C$DW$84
     475              
     476              
     477              $C$DW$87        .dwtag  DW_TAG_subprogram, DW_AT_name("memCopy")
     478                      .dwattr $C$DW$87, DW_AT_TI_symbol_name("_memCopy")
     479                      .dwattr $C$DW$87, DW_AT_declaration
     480                      .dwattr $C$DW$87, DW_AT_external
     481              $C$DW$88        .dwtag  DW_TAG_formal_parameter
     482                      .dwattr $C$DW$88, DW_AT_type(*$C$DW$T$296)
     483              $C$DW$89        .dwtag  DW_TAG_formal_parameter
     484                      .dwattr $C$DW$89, DW_AT_type(*$C$DW$T$296)
     485              $C$DW$90        .dwtag  DW_TAG_formal_parameter
     486                      .dwattr $C$DW$90, DW_AT_type(*$C$DW$T$296)
TMS320C2000 Assembler PC v6.2.5 Tue Sep 26 10:29:40 2017

Tools Copyright (c) 1996-2014 Texas Instruments Incorporated
C:\Users\wmj\AppData\Local\Temp\1168813                              PAGE   11

     487                      .dwendtag $C$DW$87
     488              
     489              
     490              $C$DW$91        .dwtag  DW_TAG_subprogram, DW_AT_name("USER_softwareUpdate1p6")
     491                      .dwattr $C$DW$91, DW_AT_TI_symbol_name("_USER_softwareUpdate1p6")
     492                      .dwattr $C$DW$91, DW_AT_declaration
     493                      .dwattr $C$DW$91, DW_AT_external
     494              $C$DW$92        .dwtag  DW_TAG_formal_parameter
     495                      .dwattr $C$DW$92, DW_AT_type(*$C$DW$T$186)
     496                      .dwendtag $C$DW$91
     497              
     498              
     499              $C$DW$93        .dwtag  DW_TAG_subprogram, DW_AT_name("USER_calcPIgains")
     500                      .dwattr $C$DW$93, DW_AT_TI_symbol_name("_USER_calcPIgains")
     501                      .dwattr $C$DW$93, DW_AT_declaration
     502                      .dwattr $C$DW$93, DW_AT_external
     503              $C$DW$94        .dwtag  DW_TAG_formal_parameter
     504                      .dwattr $C$DW$94, DW_AT_type(*$C$DW$T$186)
     505                      .dwendtag $C$DW$93
     506              
     507              
     508              $C$DW$95        .dwtag  DW_TAG_subprogram, DW_AT_name("USER_checkDefErrors")
     509                      .dwattr $C$DW$95, DW_AT_TI_symbol_name("_USER_checkDefErrors")
     510                      .dwattr $C$DW$95, DW_AT_declaration
     511                      .dwattr $C$DW$95, DW_AT_external
     512              $C$DW$96        .dwtag  DW_TAG_formal_parameter
     513                      .dwattr $C$DW$96, DW_AT_type(*$C$DW$T$225)
     514                      .dwendtag $C$DW$95
     515              
     516                      .global _gLEDcnt
     517 00000000       _gLEDcnt:       .usect  ".ebss",1,1,0
     518              $C$DW$97        .dwtag  DW_TAG_variable, DW_AT_name("gLEDcnt")
     519                      .dwattr $C$DW$97, DW_AT_TI_symbol_name("_gLEDcnt")
     520                      .dwattr $C$DW$97, DW_AT_location[DW_OP_addr _gLEDcnt]
     521                      .dwattr $C$DW$97, DW_AT_type(*$C$DW$T$23)
     522                      .dwattr $C$DW$97, DW_AT_external
     523              
     524              $C$DW$98        .dwtag  DW_TAG_subprogram, DW_AT_name("MB_Poll")
     525                      .dwattr $C$DW$98, DW_AT_TI_symbol_name("_MB_Poll")
     526                      .dwattr $C$DW$98, DW_AT_type(*$C$DW$T$142)
     527                      .dwattr $C$DW$98, DW_AT_declaration
     528                      .dwattr $C$DW$98, DW_AT_external
     529              $C$DW$99        .dwtag  DW_TAG_formal_parameter
     530                      .dwattr $C$DW$99, DW_AT_type(*$C$DW$T$216)
     531                      .dwendtag $C$DW$98
     532              
     533              
     534              $C$DW$100       .dwtag  DW_TAG_subprogram, DW_AT_name("EST_getState")
     535                      .dwattr $C$DW$100, DW_AT_TI_symbol_name("_EST_getState")
     536                      .dwattr $C$DW$100, DW_AT_type(*$C$DW$T$156)
     537                      .dwattr $C$DW$100, DW_AT_declaration
     538                      .dwattr $C$DW$100, DW_AT_external
     539              $C$DW$101       .dwtag  DW_TAG_formal_parameter
     540                      .dwattr $C$DW$101, DW_AT_type(*$C$DW$T$50)
     541                      .dwendtag $C$DW$100
TMS320C2000 Assembler PC v6.2.5 Tue Sep 26 10:29:40 2017

Tools Copyright (c) 1996-2014 Texas Instruments Incorporated
C:\Users\wmj\AppData\Local\Temp\1168813                              PAGE   12

     542              
     543              
     544              $C$DW$102       .dwtag  DW_TAG_subprogram, DW_AT_name("EST_isMotorIdentified")
     545                      .dwattr $C$DW$102, DW_AT_TI_symbol_name("_EST_isMotorIdentified")
     546                      .dwattr $C$DW$102, DW_AT_type(*$C$DW$T$34)
     547                      .dwattr $C$DW$102, DW_AT_declaration
     548                      .dwattr $C$DW$102, DW_AT_external
     549              $C$DW$103       .dwtag  DW_TAG_formal_parameter
     550                      .dwattr $C$DW$103, DW_AT_type(*$C$DW$T$50)
     551                      .dwendtag $C$DW$102
     552              
     553                      .global _gCounter_updateGlobals
     554 00000001       _gCounter_updateGlobals:        .usect  ".ebss",1,1,0
     555              $C$DW$104       .dwtag  DW_TAG_variable, DW_AT_name("gCounter_updateGlobals")
     556                      .dwattr $C$DW$104, DW_AT_TI_symbol_name("_gCounter_updateGlobals")
     557                      .dwattr $C$DW$104, DW_AT_location[DW_OP_addr _gCounter_updateGlobals]
     558                      .dwattr $C$DW$104, DW_AT_type(*$C$DW$T$70)
     559                      .dwattr $C$DW$104, DW_AT_external
     560                      .global _Flag_Latch_softwareUpdate
     561 00000002       _Flag_Latch_softwareUpdate:     .usect  ".ebss",1,1,0
     562              $C$DW$105       .dwtag  DW_TAG_variable, DW_AT_name("Flag_Latch_softwareUpdate")
     563                      .dwattr $C$DW$105, DW_AT_TI_symbol_name("_Flag_Latch_softwareUpdate")
     564                      .dwattr $C$DW$105, DW_AT_location[DW_OP_addr _Flag_Latch_softwareUpdate]
     565                      .dwattr $C$DW$105, DW_AT_type(*$C$DW$T$34)
     566                      .dwattr $C$DW$105, DW_AT_external
     567              
     568              $C$DW$106       .dwtag  DW_TAG_subprogram, DW_AT_name("USER_getErrorCode")
     569                      .dwattr $C$DW$106, DW_AT_TI_symbol_name("_USER_getErrorCode")
     570                      .dwattr $C$DW$106, DW_AT_type(*$C$DW$T$158)
     571                      .dwattr $C$DW$106, DW_AT_declaration
     572                      .dwattr $C$DW$106, DW_AT_external
     573              $C$DW$107       .dwtag  DW_TAG_formal_parameter
     574                      .dwattr $C$DW$107, DW_AT_type(*$C$DW$T$225)
     575                      .dwendtag $C$DW$106
     576              
     577              
     578              $C$DW$108       .dwtag  DW_TAG_subprogram, DW_AT_name("CTRL_updateState")
     579                      .dwattr $C$DW$108, DW_AT_TI_symbol_name("_CTRL_updateState")
     580                      .dwattr $C$DW$108, DW_AT_type(*$C$DW$T$34)
     581                      .dwattr $C$DW$108, DW_AT_declaration
     582                      .dwattr $C$DW$108, DW_AT_external
     583              $C$DW$109       .dwtag  DW_TAG_formal_parameter
     584                      .dwattr $C$DW$109, DW_AT_type(*$C$DW$T$186)
     585                      .dwendtag $C$DW$108
     586              
     587              
     588              $C$DW$110       .dwtag  DW_TAG_subprogram, DW_AT_name("__IQmpy")
     589                      .dwattr $C$DW$110, DW_AT_TI_symbol_name("___IQmpy")
     590                      .dwattr $C$DW$110, DW_AT_type(*$C$DW$T$12)
     591                      .dwattr $C$DW$110, DW_AT_declaration
     592                      .dwattr $C$DW$110, DW_AT_external
     593              $C$DW$111       .dwtag  DW_TAG_formal_parameter
     594                      .dwattr $C$DW$111, DW_AT_type(*$C$DW$T$12)
     595              $C$DW$112       .dwtag  DW_TAG_formal_parameter
     596                      .dwattr $C$DW$112, DW_AT_type(*$C$DW$T$12)
TMS320C2000 Assembler PC v6.2.5 Tue Sep 26 10:29:40 2017

Tools Copyright (c) 1996-2014 Texas Instruments Incorporated
C:\Users\wmj\AppData\Local\Temp\1168813                              PAGE   13

     597              $C$DW$113       .dwtag  DW_TAG_formal_parameter
     598                      .dwattr $C$DW$113, DW_AT_type(*$C$DW$T$10)
     599                      .dwendtag $C$DW$110
     600              
     601                      .global _gTorque_Flux_Iq_pu_to_Nm_sf
     602 00000004       _gTorque_Flux_Iq_pu_to_Nm_sf:   .usect  ".ebss",2,1,1
     603              $C$DW$114       .dwtag  DW_TAG_variable, DW_AT_name("gTorque_Flux_Iq_pu_to_Nm_sf")
     604                      .dwattr $C$DW$114, DW_AT_TI_symbol_name("_gTorque_Flux_Iq_pu_to_Nm_sf")
     605                      .dwattr $C$DW$114, DW_AT_location[DW_OP_addr _gTorque_Flux_Iq_pu_to_Nm_sf]
     606                      .dwattr $C$DW$114, DW_AT_type(*$C$DW$T$32)
     607                      .dwattr $C$DW$114, DW_AT_external
     608                      .global _gTorque_Ls_Id_Iq_pu_to_Nm_sf
     609 00000006       _gTorque_Ls_Id_Iq_pu_to_Nm_sf:  .usect  ".ebss",2,1,1
     610              $C$DW$115       .dwtag  DW_TAG_variable, DW_AT_name("gTorque_Ls_Id_Iq_pu_to_Nm_sf")
     611                      .dwattr $C$DW$115, DW_AT_TI_symbol_name("_gTorque_Ls_Id_Iq_pu_to_Nm_sf")
     612                      .dwattr $C$DW$115, DW_AT_location[DW_OP_addr _gTorque_Ls_Id_Iq_pu_to_Nm_sf]
     613                      .dwattr $C$DW$115, DW_AT_type(*$C$DW$T$32)
     614                      .dwattr $C$DW$115, DW_AT_external
     615                      .global _gFlux_pu_to_Wb_sf
     616 00000008       _gFlux_pu_to_Wb_sf:     .usect  ".ebss",2,1,1
     617              $C$DW$116       .dwtag  DW_TAG_variable, DW_AT_name("gFlux_pu_to_Wb_sf")
     618                      .dwattr $C$DW$116, DW_AT_TI_symbol_name("_gFlux_pu_to_Wb_sf")
     619                      .dwattr $C$DW$116, DW_AT_location[DW_OP_addr _gFlux_pu_to_Wb_sf]
     620                      .dwattr $C$DW$116, DW_AT_type(*$C$DW$T$32)
     621                      .dwattr $C$DW$116, DW_AT_external
     622              
     623              $C$DW$117       .dwtag  DW_TAG_subprogram, DW_AT_name("EST_getFlux_VpHz")
     624                      .dwattr $C$DW$117, DW_AT_TI_symbol_name("_EST_getFlux_VpHz")
     625                      .dwattr $C$DW$117, DW_AT_type(*$C$DW$T$71)
     626                      .dwattr $C$DW$117, DW_AT_declaration
     627                      .dwattr $C$DW$117, DW_AT_external
     628              $C$DW$118       .dwtag  DW_TAG_formal_parameter
     629                      .dwattr $C$DW$118, DW_AT_type(*$C$DW$T$50)
     630                      .dwendtag $C$DW$117
     631              
     632              
     633              $C$DW$119       .dwtag  DW_TAG_subprogram, DW_AT_name("EST_get_pu_to_krpm_sf")
     634                      .dwattr $C$DW$119, DW_AT_TI_symbol_name("_EST_get_pu_to_krpm_sf")
     635                      .dwattr $C$DW$119, DW_AT_type(*$C$DW$T$32)
     636                      .dwattr $C$DW$119, DW_AT_declaration
     637                      .dwattr $C$DW$119, DW_AT_external
     638              $C$DW$120       .dwtag  DW_TAG_formal_parameter
     639                      .dwattr $C$DW$120, DW_AT_type(*$C$DW$T$50)
     640                      .dwendtag $C$DW$119
     641              
     642              
     643              $C$DW$121       .dwtag  DW_TAG_subprogram, DW_AT_name("__IQsat")
     644                      .dwattr $C$DW$121, DW_AT_TI_symbol_name("___IQsat")
     645                      .dwattr $C$DW$121, DW_AT_type(*$C$DW$T$12)
     646                      .dwattr $C$DW$121, DW_AT_declaration
     647                      .dwattr $C$DW$121, DW_AT_external
     648              $C$DW$122       .dwtag  DW_TAG_formal_parameter
     649                      .dwattr $C$DW$122, DW_AT_type(*$C$DW$T$12)
     650              $C$DW$123       .dwtag  DW_TAG_formal_parameter
     651                      .dwattr $C$DW$123, DW_AT_type(*$C$DW$T$12)
TMS320C2000 Assembler PC v6.2.5 Tue Sep 26 10:29:40 2017

Tools Copyright (c) 1996-2014 Texas Instruments Incorporated
C:\Users\wmj\AppData\Local\Temp\1168813                              PAGE   14

     652              $C$DW$124       .dwtag  DW_TAG_formal_parameter
     653                      .dwattr $C$DW$124, DW_AT_type(*$C$DW$T$12)
     654                      .dwendtag $C$DW$121
     655              
     656              
     657              $C$DW$125       .dwtag  DW_TAG_subprogram, DW_AT_name("EST_getIdRated")
     658                      .dwattr $C$DW$125, DW_AT_TI_symbol_name("_EST_getIdRated")
     659                      .dwattr $C$DW$125, DW_AT_type(*$C$DW$T$71)
     660                      .dwattr $C$DW$125, DW_AT_declaration
     661                      .dwattr $C$DW$125, DW_AT_external
     662              $C$DW$126       .dwtag  DW_TAG_formal_parameter
     663                      .dwattr $C$DW$126, DW_AT_type(*$C$DW$T$50)
     664                      .dwendtag $C$DW$125
     665              
     666                      .global _gFlux_pu_to_VpHz_sf
     667 0000000a       _gFlux_pu_to_VpHz_sf:   .usect  ".ebss",2,1,1
     668              $C$DW$127       .dwtag  DW_TAG_variable, DW_AT_name("gFlux_pu_to_VpHz_sf")
     669                      .dwattr $C$DW$127, DW_AT_TI_symbol_name("_gFlux_pu_to_VpHz_sf")
     670                      .dwattr $C$DW$127, DW_AT_location[DW_OP_addr _gFlux_pu_to_VpHz_sf]
     671                      .dwattr $C$DW$127, DW_AT_type(*$C$DW$T$32)
     672                      .dwattr $C$DW$127, DW_AT_external
     673              $C$DW$128       .dwtag  DW_TAG_variable, DW_AT_name("RamfuncsLoadEnd")
     674                      .dwattr $C$DW$128, DW_AT_TI_symbol_name("_RamfuncsLoadEnd")
     675                      .dwattr $C$DW$128, DW_AT_type(*$C$DW$T$296)
     676                      .dwattr $C$DW$128, DW_AT_declaration
     677                      .dwattr $C$DW$128, DW_AT_external
     678                      .global _DispData
     679 0000000c       _DispData:      .usect  ".ebss",2,1,1
     680              $C$DW$129       .dwtag  DW_TAG_variable, DW_AT_name("DispData")
     681                      .dwattr $C$DW$129, DW_AT_TI_symbol_name("_DispData")
     682                      .dwattr $C$DW$129, DW_AT_location[DW_OP_addr _DispData]
     683                      .dwattr $C$DW$129, DW_AT_type(*$C$DW$T$67)
     684                      .dwattr $C$DW$129, DW_AT_external
     685                      .global _gMaxCurrentSlope
     686 0000000e       _gMaxCurrentSlope:      .usect  ".ebss",2,1,1
     687              $C$DW$130       .dwtag  DW_TAG_variable, DW_AT_name("gMaxCurrentSlope")
     688                      .dwattr $C$DW$130, DW_AT_TI_symbol_name("_gMaxCurrentSlope")
     689                      .dwattr $C$DW$130, DW_AT_location[DW_OP_addr _gMaxCurrentSlope]
     690                      .dwattr $C$DW$130, DW_AT_type(*$C$DW$T$32)
     691                      .dwattr $C$DW$130, DW_AT_external
     692                      .global _rdataA
     693 00000010       _rdataA:        .usect  ".ebss",2,1,0
     694              $C$DW$131       .dwtag  DW_TAG_variable, DW_AT_name("rdataA")
     695                      .dwattr $C$DW$131, DW_AT_TI_symbol_name("_rdataA")
     696                      .dwattr $C$DW$131, DW_AT_location[DW_OP_addr _rdataA]
     697                      .dwattr $C$DW$131, DW_AT_type(*$C$DW$T$395)
     698                      .dwattr $C$DW$131, DW_AT_external
     699              $C$DW$132       .dwtag  DW_TAG_variable, DW_AT_name("RamfuncsLoadStart")
     700                      .dwattr $C$DW$132, DW_AT_TI_symbol_name("_RamfuncsLoadStart")
     701                      .dwattr $C$DW$132, DW_AT_type(*$C$DW$T$296)
     702                      .dwattr $C$DW$132, DW_AT_declaration
     703                      .dwattr $C$DW$132, DW_AT_external
     704                      .global _ctrlHandle
     705 00000012       _ctrlHandle:    .usect  ".ebss",2,1,1
     706              $C$DW$133       .dwtag  DW_TAG_variable, DW_AT_name("ctrlHandle")
TMS320C2000 Assembler PC v6.2.5 Tue Sep 26 10:29:40 2017

Tools Copyright (c) 1996-2014 Texas Instruments Incorporated
C:\Users\wmj\AppData\Local\Temp\1168813                              PAGE   15

     707                      .dwattr $C$DW$133, DW_AT_TI_symbol_name("_ctrlHandle")
     708                      .dwattr $C$DW$133, DW_AT_location[DW_OP_addr _ctrlHandle]
     709                      .dwattr $C$DW$133, DW_AT_type(*$C$DW$T$186)
     710                      .dwattr $C$DW$133, DW_AT_external
     711              $C$DW$134       .dwtag  DW_TAG_variable, DW_AT_name("RamfuncsRunStart")
     712                      .dwattr $C$DW$134, DW_AT_TI_symbol_name("_RamfuncsRunStart")
     713                      .dwattr $C$DW$134, DW_AT_type(*$C$DW$T$296)
     714                      .dwattr $C$DW$134, DW_AT_declaration
     715                      .dwattr $C$DW$134, DW_AT_external
     716                      .global _halHandle
     717 00000014       _halHandle:     .usect  ".ebss",2,1,1
     718              $C$DW$135       .dwtag  DW_TAG_variable, DW_AT_name("halHandle")
     719                      .dwattr $C$DW$135, DW_AT_TI_symbol_name("_halHandle")
     720                      .dwattr $C$DW$135, DW_AT_location[DW_OP_addr _halHandle]
     721                      .dwattr $C$DW$135, DW_AT_type(*$C$DW$T$184)
     722                      .dwattr $C$DW$135, DW_AT_external
     723                      .global _MyMBhandle
     724 00000016       _MyMBhandle:    .usect  ".ebss",2,1,1
     725              $C$DW$136       .dwtag  DW_TAG_variable, DW_AT_name("MyMBhandle")
     726                      .dwattr $C$DW$136, DW_AT_TI_symbol_name("_MyMBhandle")
     727                      .dwattr $C$DW$136, DW_AT_location[DW_OP_addr _MyMBhandle]
     728                      .dwattr $C$DW$136, DW_AT_type(*$C$DW$T$216)
     729                      .dwattr $C$DW$136, DW_AT_external
     730                      .global _proctrlHandle
     731 00000018       _proctrlHandle: .usect  ".ebss",2,1,1
     732              $C$DW$137       .dwtag  DW_TAG_variable, DW_AT_name("proctrlHandle")
     733                      .dwattr $C$DW$137, DW_AT_TI_symbol_name("_proctrlHandle")
     734                      .dwattr $C$DW$137, DW_AT_location[DW_OP_addr _proctrlHandle]
     735                      .dwattr $C$DW$137, DW_AT_type(*$C$DW$T$284)
     736                      .dwattr $C$DW$137, DW_AT_external
     737                      .global _sdataA
     738 0000001a       _sdataA:        .usect  ".ebss",2,1,0
     739              $C$DW$138       .dwtag  DW_TAG_variable, DW_AT_name("sdataA")
     740                      .dwattr $C$DW$138, DW_AT_TI_symbol_name("_sdataA")
     741                      .dwattr $C$DW$138, DW_AT_location[DW_OP_addr _sdataA]
     742                      .dwattr $C$DW$138, DW_AT_type(*$C$DW$T$355)
     743                      .dwattr $C$DW$138, DW_AT_external
     744              
     745              $C$DW$139       .dwtag  DW_TAG_subprogram, DW_AT_name("USER_computeTorque_Flux_Iq_pu_to_Nm_sf")
     746                      .dwattr $C$DW$139, DW_AT_TI_symbol_name("_USER_computeTorque_Flux_Iq_pu_to_Nm_sf")
     747                      .dwattr $C$DW$139, DW_AT_type(*$C$DW$T$32)
     748                      .dwattr $C$DW$139, DW_AT_declaration
     749                      .dwattr $C$DW$139, DW_AT_external
     750              $C$DW$140       .dwtag  DW_TAG_formal_parameter
     751                      .dwattr $C$DW$140, DW_AT_type(*$C$DW$T$225)
     752                      .dwendtag $C$DW$139
     753              
     754              
     755              $C$DW$141       .dwtag  DW_TAG_subprogram, DW_AT_name("CTRL_initCtrl")
     756                      .dwattr $C$DW$141, DW_AT_TI_symbol_name("_CTRL_initCtrl")
     757                      .dwattr $C$DW$141, DW_AT_type(*$C$DW$T$186)
     758                      .dwattr $C$DW$141, DW_AT_declaration
     759                      .dwattr $C$DW$141, DW_AT_external
     760              $C$DW$142       .dwtag  DW_TAG_formal_parameter
     761                      .dwattr $C$DW$142, DW_AT_type(*$C$DW$T$248)
TMS320C2000 Assembler PC v6.2.5 Tue Sep 26 10:29:40 2017

Tools Copyright (c) 1996-2014 Texas Instruments Incorporated
C:\Users\wmj\AppData\Local\Temp\1168813                              PAGE   16

     762              $C$DW$143       .dwtag  DW_TAG_formal_parameter
     763                      .dwattr $C$DW$143, DW_AT_type(*$C$DW$T$3)
     764              $C$DW$144       .dwtag  DW_TAG_formal_parameter
     765                      .dwattr $C$DW$144, DW_AT_type(*$C$DW$T$250)
     766                      .dwendtag $C$DW$141
     767              
     768              
     769              $C$DW$145       .dwtag  DW_TAG_subprogram, DW_AT_name("PROCTRL_init")
     770                      .dwattr $C$DW$145, DW_AT_TI_symbol_name("_PROCTRL_init")
     771                      .dwattr $C$DW$145, DW_AT_type(*$C$DW$T$284)
     772                      .dwattr $C$DW$145, DW_AT_declaration
     773                      .dwattr $C$DW$145, DW_AT_external
     774              $C$DW$146       .dwtag  DW_TAG_formal_parameter
     775                      .dwattr $C$DW$146, DW_AT_type(*$C$DW$T$3)
     776              $C$DW$147       .dwtag  DW_TAG_formal_parameter
     777                      .dwattr $C$DW$147, DW_AT_type(*$C$DW$T$250)
     778                      .dwendtag $C$DW$145
     779              
     780              
     781              $C$DW$148       .dwtag  DW_TAG_subprogram, DW_AT_name("USER_computeFlux_pu_to_VpHz_sf")
     782                      .dwattr $C$DW$148, DW_AT_TI_symbol_name("_USER_computeFlux_pu_to_VpHz_sf")
     783                      .dwattr $C$DW$148, DW_AT_type(*$C$DW$T$32)
     784                      .dwattr $C$DW$148, DW_AT_declaration
     785                      .dwattr $C$DW$148, DW_AT_external
     786              $C$DW$149       .dwtag  DW_TAG_formal_parameter
     787                      .dwattr $C$DW$149, DW_AT_type(*$C$DW$T$225)
     788                      .dwendtag $C$DW$148
     789              
     790              
     791              $C$DW$150       .dwtag  DW_TAG_subprogram, DW_AT_name("HAL_init")
     792                      .dwattr $C$DW$150, DW_AT_TI_symbol_name("_HAL_init")
     793                      .dwattr $C$DW$150, DW_AT_type(*$C$DW$T$184)
     794                      .dwattr $C$DW$150, DW_AT_declaration
     795                      .dwattr $C$DW$150, DW_AT_external
     796              $C$DW$151       .dwtag  DW_TAG_formal_parameter
     797                      .dwattr $C$DW$151, DW_AT_type(*$C$DW$T$3)
     798              $C$DW$152       .dwtag  DW_TAG_formal_parameter
     799                      .dwattr $C$DW$152, DW_AT_type(*$C$DW$T$250)
     800                      .dwendtag $C$DW$150
     801              
     802              
     803              $C$DW$153       .dwtag  DW_TAG_subprogram, DW_AT_name("USER_computeTorque_Nm")
     804                      .dwattr $C$DW$153, DW_AT_TI_symbol_name("_USER_computeTorque_Nm")
     805                      .dwattr $C$DW$153, DW_AT_type(*$C$DW$T$32)
     806                      .dwattr $C$DW$153, DW_AT_declaration
     807                      .dwattr $C$DW$153, DW_AT_external
     808              $C$DW$154       .dwtag  DW_TAG_formal_parameter
     809                      .dwattr $C$DW$154, DW_AT_type(*$C$DW$T$186)
     810              $C$DW$155       .dwtag  DW_TAG_formal_parameter
     811                      .dwattr $C$DW$155, DW_AT_type(*$C$DW$T$302)
     812              $C$DW$156       .dwtag  DW_TAG_formal_parameter
     813                      .dwattr $C$DW$156, DW_AT_type(*$C$DW$T$302)
     814                      .dwendtag $C$DW$153
     815              
     816              
TMS320C2000 Assembler PC v6.2.5 Tue Sep 26 10:29:40 2017

Tools Copyright (c) 1996-2014 Texas Instruments Incorporated
C:\Users\wmj\AppData\Local\Temp\1168813                              PAGE   17

     817              $C$DW$157       .dwtag  DW_TAG_subprogram, DW_AT_name("USER_computeFlux")
     818                      .dwattr $C$DW$157, DW_AT_TI_symbol_name("_USER_computeFlux")
     819                      .dwattr $C$DW$157, DW_AT_type(*$C$DW$T$32)
     820                      .dwattr $C$DW$157, DW_AT_declaration
     821                      .dwattr $C$DW$157, DW_AT_external
     822              $C$DW$158       .dwtag  DW_TAG_formal_parameter
     823                      .dwattr $C$DW$158, DW_AT_type(*$C$DW$T$186)
     824              $C$DW$159       .dwtag  DW_TAG_formal_parameter
     825                      .dwattr $C$DW$159, DW_AT_type(*$C$DW$T$302)
     826                      .dwendtag $C$DW$157
     827              
     828              
     829              $C$DW$160       .dwtag  DW_TAG_subprogram, DW_AT_name("USER_computeFlux_pu_to_Wb_sf")
     830                      .dwattr $C$DW$160, DW_AT_TI_symbol_name("_USER_computeFlux_pu_to_Wb_sf")
     831                      .dwattr $C$DW$160, DW_AT_type(*$C$DW$T$32)
     832                      .dwattr $C$DW$160, DW_AT_declaration
     833                      .dwattr $C$DW$160, DW_AT_external
     834              $C$DW$161       .dwtag  DW_TAG_formal_parameter
     835                      .dwattr $C$DW$161, DW_AT_type(*$C$DW$T$225)
     836                      .dwendtag $C$DW$160
     837              
     838              
     839              $C$DW$162       .dwtag  DW_TAG_subprogram, DW_AT_name("EST_getRs_Ohm")
     840                      .dwattr $C$DW$162, DW_AT_TI_symbol_name("_EST_getRs_Ohm")
     841                      .dwattr $C$DW$162, DW_AT_type(*$C$DW$T$71)
     842                      .dwattr $C$DW$162, DW_AT_declaration
     843                      .dwattr $C$DW$162, DW_AT_external
     844              $C$DW$163       .dwtag  DW_TAG_formal_parameter
     845                      .dwattr $C$DW$163, DW_AT_type(*$C$DW$T$50)
     846                      .dwendtag $C$DW$162
     847              
     848              
     849              $C$DW$164       .dwtag  DW_TAG_subprogram, DW_AT_name("EST_getRr_Ohm")
     850                      .dwattr $C$DW$164, DW_AT_TI_symbol_name("_EST_getRr_Ohm")
     851                      .dwattr $C$DW$164, DW_AT_type(*$C$DW$T$71)
     852                      .dwattr $C$DW$164, DW_AT_declaration
     853                      .dwattr $C$DW$164, DW_AT_external
     854              $C$DW$165       .dwtag  DW_TAG_formal_parameter
     855                      .dwattr $C$DW$165, DW_AT_type(*$C$DW$T$50)
     856                      .dwendtag $C$DW$164
     857              
     858              
     859              $C$DW$166       .dwtag  DW_TAG_subprogram, DW_AT_name("USER_computeTorque_Ls_Id_Iq_pu_to_Nm_sf")
     860                      .dwattr $C$DW$166, DW_AT_TI_symbol_name("_USER_computeTorque_Ls_Id_Iq_pu_to_Nm_sf")
     861                      .dwattr $C$DW$166, DW_AT_type(*$C$DW$T$32)
     862                      .dwattr $C$DW$166, DW_AT_declaration
     863                      .dwattr $C$DW$166, DW_AT_external
     864              $C$DW$167       .dwtag  DW_TAG_formal_parameter
     865                      .dwattr $C$DW$167, DW_AT_type(*$C$DW$T$225)
     866                      .dwendtag $C$DW$166
     867              
     868              
     869              $C$DW$168       .dwtag  DW_TAG_subprogram, DW_AT_name("EST_getLs_q_H")
     870                      .dwattr $C$DW$168, DW_AT_TI_symbol_name("_EST_getLs_q_H")
     871                      .dwattr $C$DW$168, DW_AT_type(*$C$DW$T$71)
TMS320C2000 Assembler PC v6.2.5 Tue Sep 26 10:29:40 2017

Tools Copyright (c) 1996-2014 Texas Instruments Incorporated
C:\Users\wmj\AppData\Local\Temp\1168813                              PAGE   18

     872                      .dwattr $C$DW$168, DW_AT_declaration
     873                      .dwattr $C$DW$168, DW_AT_external
     874              $C$DW$169       .dwtag  DW_TAG_formal_parameter
     875                      .dwattr $C$DW$169, DW_AT_type(*$C$DW$T$50)
     876                      .dwendtag $C$DW$168
     877              
     878              
     879              $C$DW$170       .dwtag  DW_TAG_subprogram, DW_AT_name("EST_getLs_d_H")
     880                      .dwattr $C$DW$170, DW_AT_TI_symbol_name("_EST_getLs_d_H")
     881                      .dwattr $C$DW$170, DW_AT_type(*$C$DW$T$71)
     882                      .dwattr $C$DW$170, DW_AT_declaration
     883                      .dwattr $C$DW$170, DW_AT_external
     884              $C$DW$171       .dwtag  DW_TAG_formal_parameter
     885                      .dwattr $C$DW$171, DW_AT_type(*$C$DW$T$50)
     886                      .dwendtag $C$DW$170
     887              
     888              
     889              $C$DW$172       .dwtag  DW_TAG_subprogram, DW_AT_name("EST_getSpeed_krpm")
     890                      .dwattr $C$DW$172, DW_AT_TI_symbol_name("_EST_getSpeed_krpm")
     891                      .dwattr $C$DW$172, DW_AT_type(*$C$DW$T$32)
     892                      .dwattr $C$DW$172, DW_AT_declaration
     893                      .dwattr $C$DW$172, DW_AT_external
     894              $C$DW$173       .dwtag  DW_TAG_formal_parameter
     895                      .dwattr $C$DW$173, DW_AT_type(*$C$DW$T$50)
     896                      .dwendtag $C$DW$172
     897              
     898              
     899              $C$DW$174       .dwtag  DW_TAG_subprogram, DW_AT_name("EST_getMaxCurrentSlope_pu")
     900                      .dwattr $C$DW$174, DW_AT_TI_symbol_name("_EST_getMaxCurrentSlope_pu")
     901                      .dwattr $C$DW$174, DW_AT_type(*$C$DW$T$32)
     902                      .dwattr $C$DW$174, DW_AT_declaration
     903                      .dwattr $C$DW$174, DW_AT_external
     904              $C$DW$175       .dwtag  DW_TAG_formal_parameter
     905                      .dwattr $C$DW$175, DW_AT_type(*$C$DW$T$50)
     906                      .dwendtag $C$DW$174
     907              
     908              
     909              $C$DW$176       .dwtag  DW_TAG_subprogram, DW_AT_name("MB_init")
     910                      .dwattr $C$DW$176, DW_AT_TI_symbol_name("_MB_init")
     911                      .dwattr $C$DW$176, DW_AT_type(*$C$DW$T$216)
     912                      .dwattr $C$DW$176, DW_AT_declaration
     913                      .dwattr $C$DW$176, DW_AT_external
     914              $C$DW$177       .dwtag  DW_TAG_formal_parameter
     915                      .dwattr $C$DW$177, DW_AT_type(*$C$DW$T$3)
     916              $C$DW$178       .dwtag  DW_TAG_formal_parameter
     917                      .dwattr $C$DW$178, DW_AT_type(*$C$DW$T$250)
     918                      .dwendtag $C$DW$176
     919              
     920                      .global _gPwmData
     921 0000001c       _gPwmData:      .usect  ".ebss",6,1,1
     922              $C$DW$179       .dwtag  DW_TAG_variable, DW_AT_name("gPwmData")
     923                      .dwattr $C$DW$179, DW_AT_TI_symbol_name("_gPwmData")
     924                      .dwattr $C$DW$179, DW_AT_location[DW_OP_addr _gPwmData]
     925                      .dwattr $C$DW$179, DW_AT_type(*$C$DW$T$267)
     926                      .dwattr $C$DW$179, DW_AT_external
TMS320C2000 Assembler PC v6.2.5 Tue Sep 26 10:29:40 2017

Tools Copyright (c) 1996-2014 Texas Instruments Incorporated
C:\Users\wmj\AppData\Local\Temp\1168813                              PAGE   19

     927                      .global _gAdcData
     928 00000022       _gAdcData:      .usect  ".ebss",22,1,1
     929              $C$DW$180       .dwtag  DW_TAG_variable, DW_AT_name("gAdcData")
     930                      .dwattr $C$DW$180, DW_AT_TI_symbol_name("_gAdcData")
     931                      .dwattr $C$DW$180, DW_AT_location[DW_OP_addr _gAdcData]
     932                      .dwattr $C$DW$180, DW_AT_type(*$C$DW$T$125)
     933                      .dwattr $C$DW$180, DW_AT_external
     934                      .global _My_ModBus
     935 00000040       _My_ModBus:     .usect  ".ebss",28,1,1
     936              $C$DW$181       .dwtag  DW_TAG_variable, DW_AT_name("My_ModBus")
     937                      .dwattr $C$DW$181, DW_AT_TI_symbol_name("_My_ModBus")
     938                      .dwattr $C$DW$181, DW_AT_location[DW_OP_addr _My_ModBus]
     939                      .dwattr $C$DW$181, DW_AT_type(*$C$DW$T$270)
     940                      .dwattr $C$DW$181, DW_AT_external
     941                      .global _MyProcessCtrl
     942 00000080       _MyProcessCtrl: .usect  ".ebss",76,1,1
     943              $C$DW$182       .dwtag  DW_TAG_variable, DW_AT_name("MyProcessCtrl")
     944                      .dwattr $C$DW$182, DW_AT_TI_symbol_name("_MyProcessCtrl")
     945                      .dwattr $C$DW$182, DW_AT_location[DW_OP_addr _MyProcessCtrl]
     946                      .dwattr $C$DW$182, DW_AT_type(*$C$DW$T$282)
     947                      .dwattr $C$DW$182, DW_AT_external
     948                      .global _gMotorVars
     949 00000100       _gMotorVars:    .usect  ".ebss",128,1,1
     950              $C$DW$183       .dwtag  DW_TAG_variable, DW_AT_name("gMotorVars")
     951                      .dwattr $C$DW$183, DW_AT_TI_symbol_name("_gMotorVars")
     952                      .dwattr $C$DW$183, DW_AT_location[DW_OP_addr _gMotorVars]
     953                      .dwattr $C$DW$183, DW_AT_type(*$C$DW$T$275)
     954                      .dwattr $C$DW$183, DW_AT_external
     955                      .global _gUserParams
     956 00000180       _gUserParams:   .usect  ".ebss",172,1,1
     957              $C$DW$184       .dwtag  DW_TAG_variable, DW_AT_name("gUserParams")
     958                      .dwattr $C$DW$184, DW_AT_TI_symbol_name("_gUserParams")
     959                      .dwattr $C$DW$184, DW_AT_location[DW_OP_addr _gUserParams]
     960                      .dwattr $C$DW$184, DW_AT_type(*$C$DW$T$224)
     961                      .dwattr $C$DW$184, DW_AT_external
     962              $C$DW$185       .dwtag  DW_TAG_variable, DW_AT_name("hal")
     963                      .dwattr $C$DW$185, DW_AT_TI_symbol_name("_hal")
     964                      .dwattr $C$DW$185, DW_AT_type(*$C$DW$T$262)
     965                      .dwattr $C$DW$185, DW_AT_declaration
     966                      .dwattr $C$DW$185, DW_AT_external
     967                      .global _ctrl
     968 00000240       _ctrl:  .usect  ".ebss",274,1,1
     969              $C$DW$186       .dwtag  DW_TAG_variable, DW_AT_name("ctrl")
     970                      .dwattr $C$DW$186, DW_AT_TI_symbol_name("_ctrl")
     971                      .dwattr $C$DW$186, DW_AT_location[DW_OP_addr _ctrl]
     972                      .dwattr $C$DW$186, DW_AT_type(*$C$DW$T$245)
     973                      .dwattr $C$DW$186, DW_AT_external
     974              ;       C:\ti\ccsv6\tools\compiler\c2000_6.2.5\bin\opt2000.exe C:\\Users\\wmj\\AppData\\Local\\Temp\\116885 C
     975              ;       C:\ti\ccsv6\tools\compiler\c2000_6.2.5\bin\ac2000.exe -@C:\\Users\\wmj\\AppData\\Local\\Temp\\1168819
     976 00000000               .sect   ".text"
     977                      .clink
     978                      .global _updateKpKiGains
     979              
     980              $C$DW$187       .dwtag  DW_TAG_subprogram, DW_AT_name("updateKpKiGains")
     981                      .dwattr $C$DW$187, DW_AT_low_pc(_updateKpKiGains)
TMS320C2000 Assembler PC v6.2.5 Tue Sep 26 10:29:40 2017

Tools Copyright (c) 1996-2014 Texas Instruments Incorporated
C:\Users\wmj\AppData\Local\Temp\1168813                              PAGE   20

     982                      .dwattr $C$DW$187, DW_AT_high_pc(0x00)
     983                      .dwattr $C$DW$187, DW_AT_TI_symbol_name("_updateKpKiGains")
     984                      .dwattr $C$DW$187, DW_AT_external
     985                      .dwattr $C$DW$187, DW_AT_TI_begin_file("D:/BM1000/sw/solutions/instaspin_foc/src/proj_lab05b.c")
     986                      .dwattr $C$DW$187, DW_AT_TI_begin_line(0x24f)
     987                      .dwattr $C$DW$187, DW_AT_TI_begin_column(0x06)
     988                      .dwattr $C$DW$187, DW_AT_TI_max_frame_size(-2)
     989                      .dwpsn  file "D:/BM1000/sw/solutions/instaspin_foc/src/proj_lab05b.c",line 592,column 1,is_stmt,addre
     990              
     991                      .dwfde $C$DW$CIE, _updateKpKiGains
     992              $C$DW$188       .dwtag  DW_TAG_formal_parameter, DW_AT_name("handle")
     993                      .dwattr $C$DW$188, DW_AT_TI_symbol_name("_handle")
     994                      .dwattr $C$DW$188, DW_AT_type(*$C$DW$T$186)
     995                      .dwattr $C$DW$188, DW_AT_location[DW_OP_reg12]
     996              
     997              ;***************************************************************
     998              ;* FNAME: _updateKpKiGains              FR SIZE:   0           *
     999              ;*                                                             *
    1000              ;* FUNCTION ENVIRONMENT                                        *
    1001              ;*                                                             *
    1002              ;* FUNCTION PROPERTIES                                         *
    1003              ;*                            0 Parameter,  0 Auto,  0 SOE     *
    1004              ;***************************************************************
    1005              
    1006              _updateKpKiGains:
    1007              ;* AR4   assigned to _handle
    1008              $C$DW$189       .dwtag  DW_TAG_variable, DW_AT_name("handle")
    1009                      .dwattr $C$DW$189, DW_AT_TI_symbol_name("_handle")
    1010                      .dwattr $C$DW$189, DW_AT_type(*$C$DW$T$247)
    1011                      .dwattr $C$DW$189, DW_AT_location[DW_OP_reg12]
    1012              ;* AL    assigned to _Ki
    1013              $C$DW$190       .dwtag  DW_TAG_variable, DW_AT_name("Ki")
    1014                      .dwattr $C$DW$190, DW_AT_TI_symbol_name("_Ki")
    1015                      .dwattr $C$DW$190, DW_AT_type(*$C$DW$T$32)
    1016                      .dwattr $C$DW$190, DW_AT_location[DW_OP_reg0]
    1017              ;* AL    assigned to _Kp
    1018              $C$DW$191       .dwtag  DW_TAG_variable, DW_AT_name("Kp")
    1019                      .dwattr $C$DW$191, DW_AT_TI_symbol_name("_Kp")
    1020                      .dwattr $C$DW$191, DW_AT_type(*$C$DW$T$32)
    1021                      .dwattr $C$DW$191, DW_AT_location[DW_OP_reg0]
    1022              ;* AL    assigned to _Ki
    1023              $C$DW$192       .dwtag  DW_TAG_variable, DW_AT_name("Ki")
    1024                      .dwattr $C$DW$192, DW_AT_TI_symbol_name("_Ki")
    1025                      .dwattr $C$DW$192, DW_AT_type(*$C$DW$T$32)
    1026                      .dwattr $C$DW$192, DW_AT_location[DW_OP_reg0]
    1027              ;* AL    assigned to _Kp
    1028              $C$DW$193       .dwtag  DW_TAG_variable, DW_AT_name("Kp")
    1029                      .dwattr $C$DW$193, DW_AT_TI_symbol_name("_Kp")
    1030                      .dwattr $C$DW$193, DW_AT_type(*$C$DW$T$32)
    1031                      .dwattr $C$DW$193, DW_AT_location[DW_OP_reg0]
    1032              ;* AL    assigned to _Ki
    1033              $C$DW$194       .dwtag  DW_TAG_variable, DW_AT_name("Ki")
    1034                      .dwattr $C$DW$194, DW_AT_TI_symbol_name("_Ki")
    1035                      .dwattr $C$DW$194, DW_AT_type(*$C$DW$T$32)
    1036                      .dwattr $C$DW$194, DW_AT_location[DW_OP_reg0]
TMS320C2000 Assembler PC v6.2.5 Tue Sep 26 10:29:40 2017

Tools Copyright (c) 1996-2014 Texas Instruments Incorporated
C:\Users\wmj\AppData\Local\Temp\1168813                              PAGE   21

    1037              ;* AL    assigned to _Kp
    1038              $C$DW$195       .dwtag  DW_TAG_variable, DW_AT_name("Kp")
    1039                      .dwattr $C$DW$195, DW_AT_TI_symbol_name("_Kp")
    1040                      .dwattr $C$DW$195, DW_AT_type(*$C$DW$T$32)
    1041                      .dwattr $C$DW$195, DW_AT_location[DW_OP_reg0]
    1042                      .dwcfi  cfa_offset, -2
    1043                      .dwcfi  save_reg_to_mem, 26, 0
    1044                      .dwcfi  save_reg_to_reg, 78, 26
    1045 00000000 761F-         MOVW      DP,#_gMotorVars+13    ; [CPU_U] 
         00000001 0004 
    1046                      .dwpsn  file "D:/BM1000/sw/solutions/instaspin_foc/src/proj_lab05b.c",line 593,column 3,is_stmt
    1047 00000002 920D-         MOV       AL,@_gMotorVars+13    ; [CPU_] |593| 
    1048 00000003 5203          CMPB      AL,#3                 ; [CPU_] |593| 
    1049 00000004 ED1C          BF        $C$L1,NEQ             ; [CPU_] |593| 
    1050                      ; branchcc occurs ; [] |593| 
    1051 00000005 9202-         MOV       AL,@_gMotorVars+2     ; [CPU_] |593| 
    1052 00000006 5201          CMPB      AL,#1                 ; [CPU_] |593| 
    1053 00000007 ED19          BF        $C$L1,NEQ             ; [CPU_] |593| 
    1054                      ; branchcc occurs ; [] |593| 
    1055 00000008 761F-         MOVW      DP,#_Flag_Latch_softwareUpdate ; [CPU_U] 
         00000009 0000 
    1056 0000000a 9202-         MOV       AL,@_Flag_Latch_softwareUpdate ; [CPU_] |593| 
    1057 0000000b ED15          BF        $C$L1,NEQ             ; [CPU_] |593| 
    1058                      ; branchcc occurs ; [] |593| 
    1059 0000000c 761F-         MOVW      DP,#_gMotorVars+70    ; [CPU_U] 
         0000000d 0005 
    1060                      .dwpsn  file "D:/BM1000/sw/modules/ctrl/src/32b/ctrl.h",line 1505,column 7,is_stmt
    1061 0000000e D0CE          MOVB      XAR0,#206             ; [CPU_] |1505| 
    1062                      .dwpsn  file "D:/BM1000/sw/solutions/instaspin_foc/src/proj_lab05b.c",line 596,column 7,is_stmt
    1063 0000000f 0606-         MOVL      ACC,@_gMotorVars+70   ; [CPU_] |596| 
    1064                      .dwpsn  file "D:/BM1000/sw/modules/ctrl/src/32b/ctrl.h",line 1505,column 7,is_stmt
    1065 00000010 1E94          MOVL      *+XAR4[AR0],ACC       ; [CPU_] |1505| 
    1066                      .dwpsn  file "D:/BM1000/sw/modules/ctrl/src/32b/ctrl.h",line 1480,column 7,is_stmt
    1067 00000011 D0D4          MOVB      XAR0,#212             ; [CPU_] |1480| 
    1068                      .dwpsn  file "D:/BM1000/sw/solutions/instaspin_foc/src/proj_lab05b.c",line 597,column 7,is_stmt
    1069 00000012 0608-         MOVL      ACC,@_gMotorVars+72   ; [CPU_] |597| 
    1070                      .dwpsn  file "D:/BM1000/sw/modules/ctrl/src/32b/ctrl.h",line 1480,column 7,is_stmt
    1071 00000013 1E94          MOVL      *+XAR4[AR0],ACC       ; [CPU_] |1480| 
    1072                      .dwpsn  file "D:/BM1000/sw/modules/ctrl/src/32b/ctrl.h",line 1509,column 7,is_stmt
    1073 00000014 D0CA          MOVB      XAR0,#202             ; [CPU_] |1509| 
    1074                      .dwpsn  file "D:/BM1000/sw/solutions/instaspin_foc/src/proj_lab05b.c",line 600,column 7,is_stmt
    1075 00000015 060A-         MOVL      ACC,@_gMotorVars+74   ; [CPU_] |600| 
    1076                      .dwpsn  file "D:/BM1000/sw/modules/ctrl/src/32b/ctrl.h",line 1509,column 7,is_stmt
    1077 00000016 1E94          MOVL      *+XAR4[AR0],ACC       ; [CPU_] |1509| 
    1078                      .dwpsn  file "D:/BM1000/sw/modules/ctrl/src/32b/ctrl.h",line 1484,column 7,is_stmt
    1079 00000017 D0D0          MOVB      XAR0,#208             ; [CPU_] |1484| 
    1080                      .dwpsn  file "D:/BM1000/sw/solutions/instaspin_foc/src/proj_lab05b.c",line 601,column 7,is_stmt
    1081 00000018 060C-         MOVL      ACC,@_gMotorVars+76   ; [CPU_] |601| 
    1082                      .dwpsn  file "D:/BM1000/sw/modules/ctrl/src/32b/ctrl.h",line 1484,column 7,is_stmt
    1083 00000019 1E94          MOVL      *+XAR4[AR0],ACC       ; [CPU_] |1484| 
    1084                      .dwpsn  file "D:/BM1000/sw/modules/ctrl/src/32b/ctrl.h",line 1513,column 7,is_stmt
    1085 0000001a D0CC          MOVB      XAR0,#204             ; [CPU_] |1513| 
    1086                      .dwpsn  file "D:/BM1000/sw/solutions/instaspin_foc/src/proj_lab05b.c",line 602,column 7,is_stmt
    1087 0000001b 060A-         MOVL      ACC,@_gMotorVars+74   ; [CPU_] |602| 
    1088                      .dwpsn  file "D:/BM1000/sw/modules/ctrl/src/32b/ctrl.h",line 1513,column 7,is_stmt
TMS320C2000 Assembler PC v6.2.5 Tue Sep 26 10:29:40 2017

Tools Copyright (c) 1996-2014 Texas Instruments Incorporated
C:\Users\wmj\AppData\Local\Temp\1168813                              PAGE   22

    1089 0000001c 1E94          MOVL      *+XAR4[AR0],ACC       ; [CPU_] |1513| 
    1090                      .dwpsn  file "D:/BM1000/sw/solutions/instaspin_foc/src/proj_lab05b.c",line 603,column 7,is_stmt
    1091 0000001d 060C-         MOVL      ACC,@_gMotorVars+76   ; [CPU_] |603| 
    1092                      .dwpsn  file "D:/BM1000/sw/modules/ctrl/src/32b/ctrl.h",line 1488,column 7,is_stmt
    1093 0000001e D0D2          MOVB      XAR0,#210             ; [CPU_] |1488| 
    1094 0000001f 1E94          MOVL      *+XAR4[AR0],ACC       ; [CPU_] |1488| 
    1095              $C$L1:    
    1096              $C$DW$196       .dwtag  DW_TAG_TI_branch
    1097                      .dwattr $C$DW$196, DW_AT_low_pc(0x00)
    1098                      .dwattr $C$DW$196, DW_AT_TI_return
    1099 00000020 0006          LRETR     ; [CPU_] 
    1100                      ; return occurs ; [] 
    1101                      .dwattr $C$DW$187, DW_AT_TI_end_file("D:/BM1000/sw/solutions/instaspin_foc/src/proj_lab05b.c")
    1102                      .dwattr $C$DW$187, DW_AT_TI_end_line(0x25f)
    1103                      .dwattr $C$DW$187, DW_AT_TI_end_column(0x01)
    1104                      .dwendentry
    1105                      .dwendtag $C$DW$187
    1106              
    1107 00000021               .sect   ".text"
    1108                      .clink
    1109                      .global _updateGlobalVariables_motor
    1110              
    1111              $C$DW$197       .dwtag  DW_TAG_subprogram, DW_AT_name("updateGlobalVariables_motor")
    1112                      .dwattr $C$DW$197, DW_AT_low_pc(_updateGlobalVariables_motor)
    1113                      .dwattr $C$DW$197, DW_AT_high_pc(0x00)
    1114                      .dwattr $C$DW$197, DW_AT_TI_symbol_name("_updateGlobalVariables_motor")
    1115                      .dwattr $C$DW$197, DW_AT_external
    1116                      .dwattr $C$DW$197, DW_AT_TI_begin_file("D:/BM1000/sw/solutions/instaspin_foc/src/proj_lab05b.c")
    1117                      .dwattr $C$DW$197, DW_AT_TI_begin_line(0x220)
    1118                      .dwattr $C$DW$197, DW_AT_TI_begin_column(0x06)
    1119                      .dwattr $C$DW$197, DW_AT_TI_max_frame_size(-8)
    1120                      .dwpsn  file "D:/BM1000/sw/solutions/instaspin_foc/src/proj_lab05b.c",line 545,column 1,is_stmt,addre
    1121              
    1122                      .dwfde $C$DW$CIE, _updateGlobalVariables_motor
    1123              $C$DW$198       .dwtag  DW_TAG_formal_parameter, DW_AT_name("handle")
    1124                      .dwattr $C$DW$198, DW_AT_TI_symbol_name("_handle")
    1125                      .dwattr $C$DW$198, DW_AT_type(*$C$DW$T$186)
    1126                      .dwattr $C$DW$198, DW_AT_location[DW_OP_reg12]
    1127              
    1128              ;***************************************************************
    1129              ;* FNAME: _updateGlobalVariables_motor  FR SIZE:   6           *
    1130              ;*                                                             *
    1131              ;* FUNCTION ENVIRONMENT                                        *
    1132              ;*                                                             *
    1133              ;* FUNCTION PROPERTIES                                         *
    1134              ;*                            2 Parameter,  0 Auto,  4 SOE     *
    1135              ;***************************************************************
    1136              
    1137              _updateGlobalVariables_motor:
    1138              ;* XT    assigned to $O$R2
    1139              ;* AR2   assigned to _handle
    1140              $C$DW$199       .dwtag  DW_TAG_variable, DW_AT_name("handle")
    1141                      .dwattr $C$DW$199, DW_AT_TI_symbol_name("_handle")
    1142                      .dwattr $C$DW$199, DW_AT_type(*$C$DW$T$247)
    1143                      .dwattr $C$DW$199, DW_AT_location[DW_OP_reg8]
TMS320C2000 Assembler PC v6.2.5 Tue Sep 26 10:29:40 2017

Tools Copyright (c) 1996-2014 Texas Instruments Incorporated
C:\Users\wmj\AppData\Local\Temp\1168813                              PAGE   23

    1144                      .dwcfi  cfa_offset, -2
    1145                      .dwcfi  save_reg_to_mem, 26, 0
    1146                      .dwcfi  save_reg_to_reg, 78, 26
    1147 00000021 B2BD          MOVL      *SP++,XAR1            ; [CPU_] 
    1148                      .dwcfi  save_reg_to_mem, 7, 2
    1149                      .dwcfi  cfa_offset, -4
    1150 00000022 AABD          MOVL      *SP++,XAR2            ; [CPU_] 
    1151                      .dwcfi  save_reg_to_mem, 9, 4
    1152                      .dwcfi  cfa_offset, -6
    1153 00000023 FE02          ADDB      SP,#2                 ; [CPU_U] 
    1154                      .dwcfi  cfa_offset, -8
    1155                      .dwpsn  file "D:/BM1000/sw/solutions/instaspin_foc/src/proj_lab05b.c",line 549,column 3,is_stmt
    1156 00000024 D018          MOVB      XAR0,#24              ; [CPU_] |549| 
    1157                      .dwpsn  file "D:/BM1000/sw/solutions/instaspin_foc/src/proj_lab05b.c",line 545,column 1,is_stmt
    1158 00000025 86A4          MOVL      XAR2,XAR4             ; [CPU_] |545| 
    1159                      .dwpsn  file "D:/BM1000/sw/solutions/instaspin_foc/src/proj_lab05b.c",line 549,column 3,is_stmt
    1160 00000026 8A92          MOVL      XAR4,*+XAR2[AR0]      ; [CPU_] |549| 
    1161              $C$DW$200       .dwtag  DW_TAG_TI_branch
    1162                      .dwattr $C$DW$200, DW_AT_low_pc(0x00)
    1163                      .dwattr $C$DW$200, DW_AT_name("_EST_getSpeed_krpm")
    1164                      .dwattr $C$DW$200, DW_AT_TI_call
    1165 00000027 7640!         LCR       #_EST_getSpeed_krpm   ; [CPU_] |549| 
         00000028 0000 
    1166                      ; call occurs [#_EST_getSpeed_krpm] ; [] |549| 
    1167 00000029 761F-         MOVW      DP,#_gMotorVars+32    ; [CPU_U] 
         0000002a 0004 
    1168                      .dwpsn  file "D:/BM1000/sw/modules/traj/src/32b/traj.h",line 96,column 3,is_stmt
    1169 0000002b D06C          MOVB      XAR0,#108             ; [CPU_] |96| 
    1170                      .dwpsn  file "D:/BM1000/sw/solutions/instaspin_foc/src/proj_lab05b.c",line 549,column 3,is_stmt
    1171 0000002c 1E20-         MOVL      @_gMotorVars+32,ACC   ; [CPU_] |549| 
    1172                      .dwpsn  file "D:/BM1000/sw/modules/traj/src/32b/traj.h",line 96,column 3,is_stmt
    1173 0000002d 8A92          MOVL      XAR4,*+XAR2[AR0]      ; [CPU_] |96| 
    1174                      .dwpsn  file "D:/BM1000/sw/solutions/instaspin_foc/src/proj_lab05b.c",line 552,column 3,is_stmt
    1175 0000002e D018          MOVB      XAR0,#24              ; [CPU_] |552| 
    1176                      .dwpsn  file "D:/BM1000/sw/modules/traj/src/32b/traj.h",line 96,column 3,is_stmt
    1177 0000002f 8BD4          MOVL      XAR1,*+XAR4[2]        ; [CPU_] |96| 
    1178                      .dwpsn  file "D:/BM1000/sw/solutions/instaspin_foc/src/proj_lab05b.c",line 552,column 3,is_stmt
    1179 00000030 8A92          MOVL      XAR4,*+XAR2[AR0]      ; [CPU_] |552| 
    1180              $C$DW$201       .dwtag  DW_TAG_TI_branch
    1181                      .dwattr $C$DW$201, DW_AT_low_pc(0x00)
    1182                      .dwattr $C$DW$201, DW_AT_name("_EST_get_pu_to_krpm_sf")
    1183                      .dwattr $C$DW$201, DW_AT_TI_call
    1184 00000031 7640!         LCR       #_EST_get_pu_to_krpm_sf ; [CPU_] |552| 
         00000032 0000 
    1185                      ; call occurs [#_EST_get_pu_to_krpm_sf] ; [] |552| 
    1186 00000033 761F-         MOVW      DP,#_gMotorVars+28    ; [CPU_U] 
         00000034 0004 
    1187 00000035 B2AC          MOVL      XT,XAR1               ; [CPU_] |552| 
    1188                      .dwpsn  file "D:/BM1000/sw/solutions/instaspin_foc/src/proj_lab05b.c",line 555,column 3,is_stmt
    1189 00000036 8AA2          MOVL      XAR4,XAR2             ; [CPU_] |555| 
    1190                      .dwpsn  file "D:/BM1000/sw/solutions/instaspin_foc/src/proj_lab05b.c",line 552,column 3,is_stmt
    1191 00000037 5605          IMPYL     P,XT,ACC              ; [CPU_] |552| 
         00000038 00A9 
    1192 00000039 5663          QMPYL     ACC,XT,ACC            ; [CPU_] |552| 
         0000003a 00A9 
TMS320C2000 Assembler PC v6.2.5 Tue Sep 26 10:29:40 2017

Tools Copyright (c) 1996-2014 Texas Instruments Incorporated
C:\Users\wmj\AppData\Local\Temp\1168813                              PAGE   24

    1193 0000003b 56A7          LSL64     ACC:P,#8              ; [CPU_] |552| 
    1194 0000003c 1E1C-         MOVL      @_gMotorVars+28,ACC   ; [CPU_] |552| 
    1195 0000003d 761F-         MOVW      DP,#_gTorque_Ls_Id_Iq_pu_to_Nm_sf ; [CPU_U] 
         0000003e 0000 
    1196                      .dwpsn  file "D:/BM1000/sw/solutions/instaspin_foc/src/proj_lab05b.c",line 555,column 3,is_stmt
    1197 0000003f 0606-         MOVL      ACC,@_gTorque_Ls_Id_Iq_pu_to_Nm_sf ; [CPU_] |555| 
    1198 00000040 1E42          MOVL      *-SP[2],ACC           ; [CPU_] |555| 
    1199 00000041 0604-         MOVL      ACC,@_gTorque_Flux_Iq_pu_to_Nm_sf ; [CPU_] |555| 
    1200              $C$DW$202       .dwtag  DW_TAG_TI_branch
    1201                      .dwattr $C$DW$202, DW_AT_low_pc(0x00)
    1202                      .dwattr $C$DW$202, DW_AT_name("_USER_computeTorque_Nm")
    1203                      .dwattr $C$DW$202, DW_AT_TI_call
    1204 00000042 7640!         LCR       #_USER_computeTorque_Nm ; [CPU_] |555| 
         00000043 0000 
    1205                      ; call occurs [#_USER_computeTorque_Nm] ; [] |555| 
    1206 00000044 761F-         MOVW      DP,#_gMotorVars+42    ; [CPU_U] 
         00000045 0004 
    1207                      .dwpsn  file "D:/BM1000/sw/solutions/instaspin_foc/src/proj_lab05b.c",line 558,column 3,is_stmt
    1208 00000046 D018          MOVB      XAR0,#24              ; [CPU_] |558| 
    1209                      .dwpsn  file "D:/BM1000/sw/solutions/instaspin_foc/src/proj_lab05b.c",line 555,column 3,is_stmt
    1210 00000047 1E2A-         MOVL      @_gMotorVars+42,ACC   ; [CPU_] |555| 
    1211                      .dwpsn  file "D:/BM1000/sw/solutions/instaspin_foc/src/proj_lab05b.c",line 558,column 3,is_stmt
    1212 00000048 8A92          MOVL      XAR4,*+XAR2[AR0]      ; [CPU_] |558| 
    1213              $C$DW$203       .dwtag  DW_TAG_TI_branch
    1214                      .dwattr $C$DW$203, DW_AT_low_pc(0x00)
    1215                      .dwattr $C$DW$203, DW_AT_name("_EST_getIdRated")
    1216                      .dwattr $C$DW$203, DW_AT_TI_call
    1217 00000049 7640!         LCR       #_EST_getIdRated      ; [CPU_] |558| 
         0000004a 0000 
    1218                      ; call occurs [#_EST_getIdRated] ; [] |558| 
    1219 0000004b 761F-         MOVW      DP,#_gMotorVars+44    ; [CPU_U] 
         0000004c 0004 
    1220                      .dwpsn  file "D:/BM1000/sw/solutions/instaspin_foc/src/proj_lab05b.c",line 561,column 3,is_stmt
    1221 0000004d D018          MOVB      XAR0,#24              ; [CPU_] |561| 
    1222                      .dwpsn  file "D:/BM1000/sw/solutions/instaspin_foc/src/proj_lab05b.c",line 558,column 3,is_stmt
    1223 0000004e 1E2C-         MOVL      @_gMotorVars+44,ACC   ; [CPU_] |558| 
    1224                      .dwpsn  file "D:/BM1000/sw/solutions/instaspin_foc/src/proj_lab05b.c",line 561,column 3,is_stmt
    1225 0000004f 8A92          MOVL      XAR4,*+XAR2[AR0]      ; [CPU_] |561| 
    1226              $C$DW$204       .dwtag  DW_TAG_TI_branch
    1227                      .dwattr $C$DW$204, DW_AT_low_pc(0x00)
    1228                      .dwattr $C$DW$204, DW_AT_name("_EST_getRr_Ohm")
    1229                      .dwattr $C$DW$204, DW_AT_TI_call
    1230 00000050 7640!         LCR       #_EST_getRr_Ohm       ; [CPU_] |561| 
         00000051 0000 
    1231                      ; call occurs [#_EST_getRr_Ohm] ; [] |561| 
    1232 00000052 761F-         MOVW      DP,#_gMotorVars+46    ; [CPU_U] 
         00000053 0004 
    1233                      .dwpsn  file "D:/BM1000/sw/solutions/instaspin_foc/src/proj_lab05b.c",line 564,column 3,is_stmt
    1234 00000054 D018          MOVB      XAR0,#24              ; [CPU_] |564| 
    1235                      .dwpsn  file "D:/BM1000/sw/solutions/instaspin_foc/src/proj_lab05b.c",line 561,column 3,is_stmt
    1236 00000055 1E2E-         MOVL      @_gMotorVars+46,ACC   ; [CPU_] |561| 
    1237                      .dwpsn  file "D:/BM1000/sw/solutions/instaspin_foc/src/proj_lab05b.c",line 564,column 3,is_stmt
    1238 00000056 8A92          MOVL      XAR4,*+XAR2[AR0]      ; [CPU_] |564| 
    1239              $C$DW$205       .dwtag  DW_TAG_TI_branch
    1240                      .dwattr $C$DW$205, DW_AT_low_pc(0x00)
TMS320C2000 Assembler PC v6.2.5 Tue Sep 26 10:29:40 2017

Tools Copyright (c) 1996-2014 Texas Instruments Incorporated
C:\Users\wmj\AppData\Local\Temp\1168813                              PAGE   25

    1241                      .dwattr $C$DW$205, DW_AT_name("_EST_getRs_Ohm")
    1242                      .dwattr $C$DW$205, DW_AT_TI_call
    1243 00000057 7640!         LCR       #_EST_getRs_Ohm       ; [CPU_] |564| 
         00000058 0000 
    1244                      ; call occurs [#_EST_getRs_Ohm] ; [] |564| 
    1245 00000059 761F-         MOVW      DP,#_gMotorVars+48    ; [CPU_U] 
         0000005a 0004 
    1246                      .dwpsn  file "D:/BM1000/sw/solutions/instaspin_foc/src/proj_lab05b.c",line 567,column 3,is_stmt
    1247 0000005b D018          MOVB      XAR0,#24              ; [CPU_] |567| 
    1248                      .dwpsn  file "D:/BM1000/sw/solutions/instaspin_foc/src/proj_lab05b.c",line 564,column 3,is_stmt
    1249 0000005c 1E30-         MOVL      @_gMotorVars+48,ACC   ; [CPU_] |564| 
    1250                      .dwpsn  file "D:/BM1000/sw/solutions/instaspin_foc/src/proj_lab05b.c",line 567,column 3,is_stmt
    1251 0000005d 8A92          MOVL      XAR4,*+XAR2[AR0]      ; [CPU_] |567| 
    1252              $C$DW$206       .dwtag  DW_TAG_TI_branch
    1253                      .dwattr $C$DW$206, DW_AT_low_pc(0x00)
    1254                      .dwattr $C$DW$206, DW_AT_name("_EST_getLs_d_H")
    1255                      .dwattr $C$DW$206, DW_AT_TI_call
    1256 0000005e 7640!         LCR       #_EST_getLs_d_H       ; [CPU_] |567| 
         0000005f 0000 
    1257                      ; call occurs [#_EST_getLs_d_H] ; [] |567| 
    1258 00000060 761F-         MOVW      DP,#_gMotorVars+52    ; [CPU_U] 
         00000061 0004 
    1259                      .dwpsn  file "D:/BM1000/sw/solutions/instaspin_foc/src/proj_lab05b.c",line 570,column 3,is_stmt
    1260 00000062 D018          MOVB      XAR0,#24              ; [CPU_] |570| 
    1261                      .dwpsn  file "D:/BM1000/sw/solutions/instaspin_foc/src/proj_lab05b.c",line 567,column 3,is_stmt
    1262 00000063 1E34-         MOVL      @_gMotorVars+52,ACC   ; [CPU_] |567| 
    1263                      .dwpsn  file "D:/BM1000/sw/solutions/instaspin_foc/src/proj_lab05b.c",line 570,column 3,is_stmt
    1264 00000064 8A92          MOVL      XAR4,*+XAR2[AR0]      ; [CPU_] |570| 
    1265              $C$DW$207       .dwtag  DW_TAG_TI_branch
    1266                      .dwattr $C$DW$207, DW_AT_low_pc(0x00)
    1267                      .dwattr $C$DW$207, DW_AT_name("_EST_getLs_q_H")
    1268                      .dwattr $C$DW$207, DW_AT_TI_call
    1269 00000065 7640!         LCR       #_EST_getLs_q_H       ; [CPU_] |570| 
         00000066 0000 
    1270                      ; call occurs [#_EST_getLs_q_H] ; [] |570| 
    1271 00000067 761F-         MOVW      DP,#_gMotorVars+54    ; [CPU_U] 
         00000068 0004 
    1272                      .dwpsn  file "D:/BM1000/sw/solutions/instaspin_foc/src/proj_lab05b.c",line 573,column 3,is_stmt
    1273 00000069 D018          MOVB      XAR0,#24              ; [CPU_] |573| 
    1274                      .dwpsn  file "D:/BM1000/sw/solutions/instaspin_foc/src/proj_lab05b.c",line 570,column 3,is_stmt
    1275 0000006a 1E36-         MOVL      @_gMotorVars+54,ACC   ; [CPU_] |570| 
    1276                      .dwpsn  file "D:/BM1000/sw/solutions/instaspin_foc/src/proj_lab05b.c",line 573,column 3,is_stmt
    1277 0000006b 8A92          MOVL      XAR4,*+XAR2[AR0]      ; [CPU_] |573| 
    1278              $C$DW$208       .dwtag  DW_TAG_TI_branch
    1279                      .dwattr $C$DW$208, DW_AT_low_pc(0x00)
    1280                      .dwattr $C$DW$208, DW_AT_name("_EST_getFlux_VpHz")
    1281                      .dwattr $C$DW$208, DW_AT_TI_call
    1282 0000006c 7640!         LCR       #_EST_getFlux_VpHz    ; [CPU_] |573| 
         0000006d 0000 
    1283                      ; call occurs [#_EST_getFlux_VpHz] ; [] |573| 
    1284 0000006e 761F-         MOVW      DP,#_gMotorVars+56    ; [CPU_U] 
         0000006f 0004 
    1285                      .dwpsn  file "D:/BM1000/sw/solutions/instaspin_foc/src/proj_lab05b.c",line 576,column 3,is_stmt
    1286 00000070 8AA2          MOVL      XAR4,XAR2             ; [CPU_] |576| 
    1287                      .dwpsn  file "D:/BM1000/sw/solutions/instaspin_foc/src/proj_lab05b.c",line 573,column 3,is_stmt
TMS320C2000 Assembler PC v6.2.5 Tue Sep 26 10:29:40 2017

Tools Copyright (c) 1996-2014 Texas Instruments Incorporated
C:\Users\wmj\AppData\Local\Temp\1168813                              PAGE   26

    1288 00000071 1E38-         MOVL      @_gMotorVars+56,ACC   ; [CPU_] |573| 
    1289 00000072 761F-         MOVW      DP,#_gFlux_pu_to_Wb_sf ; [CPU_U] 
         00000073 0000 
    1290                      .dwpsn  file "D:/BM1000/sw/solutions/instaspin_foc/src/proj_lab05b.c",line 576,column 3,is_stmt
    1291 00000074 0608-         MOVL      ACC,@_gFlux_pu_to_Wb_sf ; [CPU_] |576| 
    1292              $C$DW$209       .dwtag  DW_TAG_TI_branch
    1293                      .dwattr $C$DW$209, DW_AT_low_pc(0x00)
    1294                      .dwattr $C$DW$209, DW_AT_name("_USER_computeFlux")
    1295                      .dwattr $C$DW$209, DW_AT_TI_call
    1296 00000075 7640!         LCR       #_USER_computeFlux    ; [CPU_] |576| 
         00000076 0000 
    1297                      ; call occurs [#_USER_computeFlux] ; [] |576| 
    1298 00000077 761F-         MOVW      DP,#_gMotorVars+40    ; [CPU_U] 
         00000078 0004 
    1299                      .dwpsn  file "D:/BM1000/sw/solutions/instaspin_foc/src/proj_lab05b.c",line 582,column 3,is_stmt
    1300 00000079 D018          MOVB      XAR0,#24              ; [CPU_] |582| 
    1301                      .dwpsn  file "D:/BM1000/sw/solutions/instaspin_foc/src/proj_lab05b.c",line 576,column 3,is_stmt
    1302 0000007a 1E28-         MOVL      @_gMotorVars+40,ACC   ; [CPU_] |576| 
    1303                      .dwpsn  file "D:/BM1000/sw/solutions/instaspin_foc/src/proj_lab05b.c",line 579,column 3,is_stmt
    1304 0000007b 92E2          MOV       AL,*+XAR2[4]          ; [CPU_] |579| 
    1305 0000007c 960D-         MOV       @_gMotorVars+13,AL    ; [CPU_] |579| 
    1306                      .dwpsn  file "D:/BM1000/sw/solutions/instaspin_foc/src/proj_lab05b.c",line 582,column 3,is_stmt
    1307 0000007d 8A92          MOVL      XAR4,*+XAR2[AR0]      ; [CPU_] |582| 
    1308              $C$DW$210       .dwtag  DW_TAG_TI_branch
    1309                      .dwattr $C$DW$210, DW_AT_low_pc(0x00)
    1310                      .dwattr $C$DW$210, DW_AT_name("_EST_getState")
    1311                      .dwattr $C$DW$210, DW_AT_TI_call
    1312 0000007e 7640!         LCR       #_EST_getState        ; [CPU_] |582| 
         0000007f 0000 
    1313                      ; call occurs [#_EST_getState] ; [] |582| 
    1314 00000080 761F-         MOVW      DP,#_gMotorVars+14    ; [CPU_U] 
         00000081 0004 
    1315 00000082 960E-         MOV       @_gMotorVars+14,AL    ; [CPU_] |582| 
    1316                      .dwpsn  file "D:/BM1000/sw/solutions/instaspin_foc/src/proj_lab05b.c",line 585,column 3,is_stmt
    1317 00000083 9B73          MOV       AH,#115               ; [CPU_] |585| 
    1318 00000084 761F-         MOVW      DP,#_gAdcData+12      ; [CPU_U] 
         00000085 0000 
    1319 00000086 28A9          MOV       AL,#13107             ; [CPU_] |585| 
         00000087 3333 
    1320 00000088 872E-         MOVL      XT,@_gAdcData+12      ; [CPU_] |585| 
    1321 00000089 FE82          SUBB      SP,#2                 ; [CPU_U] 
    1322                      .dwcfi  cfa_offset, -6
    1323 0000008a 86BE          MOVL      XAR2,*--SP            ; [CPU_] 
    1324                      .dwcfi  cfa_offset, -4
    1325                      .dwcfi  restore_reg, 9
    1326 0000008b 5605          IMPYL     P,XT,ACC              ; [CPU_] |585| 
         0000008c 00A9 
    1327 0000008d 8BBE          MOVL      XAR1,*--SP            ; [CPU_] 
    1328                      .dwcfi  cfa_offset, -2
    1329                      .dwcfi  restore_reg, 7
    1330 0000008e 5663          QMPYL     ACC,XT,ACC            ; [CPU_] |585| 
         0000008f 00A9 
    1331 00000090 56A7          LSL64     ACC:P,#8              ; [CPU_] |585| 
    1332 00000091 761F-         MOVW      DP,#_gMotorVars+86    ; [CPU_U] 
         00000092 0005 
TMS320C2000 Assembler PC v6.2.5 Tue Sep 26 10:29:40 2017

Tools Copyright (c) 1996-2014 Texas Instruments Incorporated
C:\Users\wmj\AppData\Local\Temp\1168813                              PAGE   27

    1333 00000093 1E16-         MOVL      @_gMotorVars+86,ACC   ; [CPU_] |585| 
    1334              $C$DW$211       .dwtag  DW_TAG_TI_branch
    1335                      .dwattr $C$DW$211, DW_AT_low_pc(0x00)
    1336                      .dwattr $C$DW$211, DW_AT_TI_return
    1337 00000094 0006          LRETR     ; [CPU_] 
    1338                      ; return occurs ; [] 
    1339                      .dwattr $C$DW$197, DW_AT_TI_end_file("D:/BM1000/sw/solutions/instaspin_foc/src/proj_lab05b.c")
    1340                      .dwattr $C$DW$197, DW_AT_TI_end_line(0x24c)
    1341                      .dwattr $C$DW$197, DW_AT_TI_end_column(0x01)
    1342                      .dwendentry
    1343                      .dwendtag $C$DW$197
    1344              
    1345 00000000               .sect   "ramfuncs:retain"
    1346                      .retain
    1347                      .retainrefs
    1348                      .global _mainISR
    1349              
    1350              $C$DW$212       .dwtag  DW_TAG_subprogram, DW_AT_name("mainISR")
    1351                      .dwattr $C$DW$212, DW_AT_low_pc(_mainISR)
    1352                      .dwattr $C$DW$212, DW_AT_high_pc(0x00)
    1353                      .dwattr $C$DW$212, DW_AT_TI_symbol_name("_mainISR")
    1354                      .dwattr $C$DW$212, DW_AT_external
    1355                      .dwattr $C$DW$212, DW_AT_TI_begin_file("D:/BM1000/sw/solutions/instaspin_foc/src/proj_lab05b.c")
    1356                      .dwattr $C$DW$212, DW_AT_TI_begin_line(0x1fe)
    1357                      .dwattr $C$DW$212, DW_AT_TI_begin_column(0x10)
    1358                      .dwattr $C$DW$212, DW_AT_TI_interrupt
    1359                      .dwattr $C$DW$212, DW_AT_TI_max_frame_size(-20)
    1360                      .dwpsn  file "D:/BM1000/sw/solutions/instaspin_foc/src/proj_lab05b.c",line 511,column 1,is_stmt,addre
    1361              
    1362                      .dwfde $C$DW$CIE, _mainISR
    1363              
    1364              ;***************************************************************
    1365              ;* FNAME: _mainISR                      FR SIZE:  18           *
    1366              ;*                                                             *
    1367              ;* FUNCTION ENVIRONMENT                                        *
    1368              ;*                                                             *
    1369              ;* FUNCTION PROPERTIES                                         *
    1370              ;*                            4 Parameter,  0 Auto, 14 SOE     *
    1371              ;***************************************************************
    1372              
    1373              _mainISR:
    1374              ;* AR5   assigned to $O$C1
    1375              ;* AR4   assigned to $O$C2
    1376              ;* AR1   assigned to $O$C3
    1377              ;* AR0   assigned to $O$C4
    1378              ;* AR7   assigned to $O$C5
    1379              ;* AR6   assigned to $O$C6
    1380              ;* AR4   assigned to $O$C7
    1381              ;* AR7   assigned to $O$C8
    1382              ;* AR6   assigned to $O$C9
    1383              ;* AR5   assigned to $O$v1
    1384              ;* AL    assigned to _value
    1385              $C$DW$213       .dwtag  DW_TAG_variable, DW_AT_name("value")
    1386                      .dwattr $C$DW$213, DW_AT_TI_symbol_name("_value")
    1387                      .dwattr $C$DW$213, DW_AT_type(*$C$DW$T$32)
TMS320C2000 Assembler PC v6.2.5 Tue Sep 26 10:29:40 2017

Tools Copyright (c) 1996-2014 Texas Instruments Incorporated
C:\Users\wmj\AppData\Local\Temp\1168813                              PAGE   28

    1388                      .dwattr $C$DW$213, DW_AT_location[DW_OP_reg0]
    1389              ;* AL    assigned to _value
    1390              $C$DW$214       .dwtag  DW_TAG_variable, DW_AT_name("value")
    1391                      .dwattr $C$DW$214, DW_AT_TI_symbol_name("_value")
    1392                      .dwattr $C$DW$214, DW_AT_type(*$C$DW$T$32)
    1393                      .dwattr $C$DW$214, DW_AT_location[DW_OP_reg0]
    1394              ;* AL    assigned to _value
    1395              $C$DW$215       .dwtag  DW_TAG_variable, DW_AT_name("value")
    1396                      .dwattr $C$DW$215, DW_AT_TI_symbol_name("_value")
    1397                      .dwattr $C$DW$215, DW_AT_type(*$C$DW$T$32)
    1398                      .dwattr $C$DW$215, DW_AT_location[DW_OP_reg0]
    1399              ;* AL    assigned to _value
    1400              $C$DW$216       .dwtag  DW_TAG_variable, DW_AT_name("value")
    1401                      .dwattr $C$DW$216, DW_AT_TI_symbol_name("_value")
    1402                      .dwattr $C$DW$216, DW_AT_type(*$C$DW$T$32)
    1403                      .dwattr $C$DW$216, DW_AT_location[DW_OP_reg0]
    1404              ;* XT    assigned to _value
    1405              $C$DW$217       .dwtag  DW_TAG_variable, DW_AT_name("value")
    1406                      .dwattr $C$DW$217, DW_AT_TI_symbol_name("_value")
    1407                      .dwattr $C$DW$217, DW_AT_type(*$C$DW$T$32)
    1408                      .dwattr $C$DW$217, DW_AT_location[DW_OP_reg21]
    1409              ;* XT    assigned to _value
    1410              $C$DW$218       .dwtag  DW_TAG_variable, DW_AT_name("value")
    1411                      .dwattr $C$DW$218, DW_AT_TI_symbol_name("_value")
    1412                      .dwattr $C$DW$218, DW_AT_type(*$C$DW$T$32)
    1413                      .dwattr $C$DW$218, DW_AT_location[DW_OP_reg21]
    1414              ;* XT    assigned to _value
    1415              $C$DW$219       .dwtag  DW_TAG_variable, DW_AT_name("value")
    1416                      .dwattr $C$DW$219, DW_AT_TI_symbol_name("_value")
    1417                      .dwattr $C$DW$219, DW_AT_type(*$C$DW$T$32)
    1418                      .dwattr $C$DW$219, DW_AT_location[DW_OP_reg21]
    1419              ;* XT    assigned to _value
    1420              $C$DW$220       .dwtag  DW_TAG_variable, DW_AT_name("value")
    1421                      .dwattr $C$DW$220, DW_AT_TI_symbol_name("_value")
    1422                      .dwattr $C$DW$220, DW_AT_type(*$C$DW$T$32)
    1423                      .dwattr $C$DW$220, DW_AT_location[DW_OP_reg21]
    1424              ;* XT    assigned to _value
    1425              $C$DW$221       .dwtag  DW_TAG_variable, DW_AT_name("value")
    1426                      .dwattr $C$DW$221, DW_AT_TI_symbol_name("_value")
    1427                      .dwattr $C$DW$221, DW_AT_type(*$C$DW$T$32)
    1428                      .dwattr $C$DW$221, DW_AT_location[DW_OP_reg21]
    1429              ;* XT    assigned to _value
    1430              $C$DW$222       .dwtag  DW_TAG_variable, DW_AT_name("value")
    1431                      .dwattr $C$DW$222, DW_AT_TI_symbol_name("_value")
    1432                      .dwattr $C$DW$222, DW_AT_type(*$C$DW$T$32)
    1433                      .dwattr $C$DW$222, DW_AT_location[DW_OP_reg21]
    1434              ;* XT    assigned to _value
    1435              $C$DW$223       .dwtag  DW_TAG_variable, DW_AT_name("value")
    1436                      .dwattr $C$DW$223, DW_AT_TI_symbol_name("_value")
    1437                      .dwattr $C$DW$223, DW_AT_type(*$C$DW$T$32)
    1438                      .dwattr $C$DW$223, DW_AT_location[DW_OP_reg21]
    1439              ;* AR0   assigned to _period
    1440              $C$DW$224       .dwtag  DW_TAG_variable, DW_AT_name("period")
    1441                      .dwattr $C$DW$224, DW_AT_TI_symbol_name("_period")
    1442                      .dwattr $C$DW$224, DW_AT_type(*$C$DW$T$32)
TMS320C2000 Assembler PC v6.2.5 Tue Sep 26 10:29:40 2017

Tools Copyright (c) 1996-2014 Texas Instruments Incorporated
C:\Users\wmj\AppData\Local\Temp\1168813                              PAGE   29

    1443                      .dwattr $C$DW$224, DW_AT_location[DW_OP_reg4]
    1444              ;* AR5   assigned to _obj
    1445              $C$DW$225       .dwtag  DW_TAG_variable, DW_AT_name("obj")
    1446                      .dwattr $C$DW$225, DW_AT_TI_symbol_name("_obj")
    1447                      .dwattr $C$DW$225, DW_AT_type(*$C$DW$T$263)
    1448                      .dwattr $C$DW$225, DW_AT_location[DW_OP_reg14]
    1449              ;* AR6   assigned to $O$L1
    1450              ;* AR4   assigned to $O$U105
    1451              ;* AR7   assigned to $O$U120
    1452              ;* AR4   assigned to $O$U106
    1453                      .dwcfi  cfa_offset, -2
    1454                      .dwcfi  save_reg_to_mem, 26, 0
    1455                      .dwcfi  save_reg_to_reg, 78, 26
    1456 00000000 761B          ASP       ; [CPU_] 
    1457 00000001 0005          PUSH      AR1H:AR0H             ; [CPU_] 
    1458                      .dwcfi  save_reg_to_mem, 5, 2
    1459                      .dwcfi  save_reg_to_mem, 7, 3
    1460                      .dwcfi  cfa_offset, -4
    1461 00000002 ABBD          MOVL      *SP++,XT              ; [CPU_] 
    1462                      .dwcfi  save_reg_to_mem, 21, 4
    1463                      .dwcfi  save_reg_to_mem, 22, 5
    1464                      .dwcfi  cfa_offset, -6
    1465 00000003 AABD          MOVL      *SP++,XAR2            ; [CPU_] 
    1466                      .dwcfi  save_reg_to_mem, 8, 6
    1467                      .dwcfi  save_reg_to_mem, 9, 7
    1468                      .dwcfi  cfa_offset, -8
    1469 00000004 A8BD          MOVL      *SP++,XAR4            ; [CPU_] 
    1470                      .dwcfi  save_reg_to_mem, 12, 8
    1471                      .dwcfi  save_reg_to_mem, 13, 9
    1472                      .dwcfi  cfa_offset, -10
    1473 00000005 A0BD          MOVL      *SP++,XAR5            ; [CPU_] 
    1474                      .dwcfi  save_reg_to_mem, 14, 10
    1475                      .dwcfi  save_reg_to_mem, 15, 11
    1476                      .dwcfi  cfa_offset, -12
    1477 00000006 C2BD          MOVL      *SP++,XAR6            ; [CPU_] 
    1478                      .dwcfi  save_reg_to_mem, 16, 12
    1479                      .dwcfi  save_reg_to_mem, 17, 13
    1480                      .dwcfi  cfa_offset, -14
    1481 00000007 C3BD          MOVL      *SP++,XAR7            ; [CPU_] 
    1482                      .dwcfi  save_reg_to_mem, 18, 14
    1483                      .dwcfi  save_reg_to_mem, 19, 15
    1484                      .dwcfi  cfa_offset, -16
    1485 00000008 FE04          ADDB      SP,#4                 ; [CPU_U] 
    1486                      .dwcfi  cfa_offset, -20
    1487 00000009 FF69          SPM       0                     ; [CPU_] 
    1488 0000000a 2942          CLRC      PAGE0,OVM             ; [CPU_] 
    1489 0000000b 5616          CLRC      AMODE                 ; [CPU_] 
    1490 0000000c 761F-         MOVW      DP,#_gLEDcnt          ; [CPU_U] 
         0000000d 0000 
    1491                      .dwpsn  file "D:/BM1000/sw/solutions/instaspin_foc/src/proj_lab05b.c",line 513,column 3,is_stmt
    1492 0000000e 0A00-         INC       @_gLEDcnt             ; [CPU_] |513| 
    1493 0000000f 1B00-         CMP       @_gLEDcnt,#2000       ; [CPU_] |513| 
         00000010 07D0 
    1494 00000011 6802          B         $C$L2,LO              ; [CPU_] |513| 
    1495                      ; branchcc occurs ; [] |513| 
TMS320C2000 Assembler PC v6.2.5 Tue Sep 26 10:29:40 2017

Tools Copyright (c) 1996-2014 Texas Instruments Incorporated
C:\Users\wmj\AppData\Local\Temp\1168813                              PAGE   30

    1496                      .dwpsn  file "D:/BM1000/sw/solutions/instaspin_foc/src/proj_lab05b.c",line 516,column 5,is_stmt
    1497 00000012 2B00-         MOV       @_gLEDcnt,#0          ; [CPU_] |516| 
    1498 00000013       $C$L2:    
    1499                      .dwpsn  file "D:/BM1000/sw/solutions/instaspin_foc/src/proj_lab05b.c",line 521,column 3,is_stmt
    1500 00000013 8314-         MOVL      XAR5,@_halHandle      ; [CPU_] |521| 
    1501                      .dwpsn  file "D:/BM1000/sw/drivers/adc/src/32b/f28x/f2802x/adc.h",line 571,column 3,is_stmt
    1502 00000014 8AC5          MOVL      XAR4,*+XAR5[0]        ; [CPU_] |571| 
    1503 00000015 8D00          MOVL      XAR0,#26117           ; [CPU_] |571| 
         00000016 6605 
    1504 00000017 56BF          MOVB      *+XAR4[AR0],#1,UNC    ; [CPU_] |571| 
         00000018 0194 
    1505                      .dwpsn  file "D:/BM1000/sw/drivers/pie/src/32b/f28x/f2802x/pie.h",line 757,column 5,is_stmt
    1506 00000019 D078          MOVB      XAR0,#120             ; [CPU_] |757| 
    1507 0000001a 8A95          MOVL      XAR4,*+XAR5[AR0]      ; [CPU_] |757| 
    1508 0000001b 56BF          MOVB      *+XAR4[1],#1,UNC      ; [CPU_] |757| 
         0000001c 01CC 
    1509                      .dwpsn  file "D:/BM1000/sw/drivers/adc/src/32b/f28x/f2802x/adc.h",line 684,column 3,is_stmt
    1510 0000001d 8BC5          MOVL      XAR1,*+XAR5[0]        ; [CPU_] |684| 
    1511                      .dwpsn  file "D:/BM1000/sw/modules/hal/boards/hvkit_rev1p1/f28x/f2802x/src/hal.h",line 532,column 3,i
    1512 0000001e D0AE          MOVB      XAR0,#174             ; [CPU_] |532| 
    1513 0000001f C595          MOVL      XAR7,*+XAR5[AR0]      ; [CPU_] |532| 
    1514                      .dwpsn  file "D:/BM1000/sw/modules/hal/boards/hvkit_rev1p1/f28x/f2802x/src/hal.h",line 533,column 3,i
    1515 00000020 8F00-         MOVL      XAR4,#_gAdcData       ; [CPU_U] |533| 
         00000021 0022 
    1516                      .dwpsn  file "D:/BM1000/sw/drivers/adc/src/32b/f28x/f2802x/adc.h",line 684,column 3,is_stmt
    1517 00000022 0EC9          MOVU      ACC,*+XAR1[1]         ; [CPU_] |684| 
    1518 00000023 1EAC          MOVL      XT,ACC                ; [CPU_] |684| 
    1519                      .dwpsn  file "D:/BM1000/sw/modules/hal/boards/hvkit_rev1p1/f28x/f2802x/src/hal.h",line 532,column 3,i
    1520 00000024 0298          MOVB      ACC,#152              ; [CPU_] |532| 
    1521 00000025 5605          IMPYL     P,XT,XAR7             ; [CPU_] |532| 
         00000026 00A7 
    1522 00000027 07A5          ADDL      ACC,XAR5              ; [CPU_] |532| 
    1523 00000028 1EA6          MOVL      XAR6,ACC              ; [CPU_] |532| 
    1524 00000029 5663          QMPYL     ACC,XT,XAR7           ; [CPU_] |532| 
         0000002a 00A7 
    1525 0000002b 568B          ASR64     ACC:P,#12             ; [CPU_] |532| 
    1526 0000002c A9A9          MOVL      ACC,P                 ; [CPU_] |532| 
    1527 0000002d 03C6          SUBL      ACC,*+XAR6[0]         ; [CPU_] |532| 
    1528                      .dwpsn  file "D:/BM1000/sw/modules/hal/boards/hvkit_rev1p1/f28x/f2802x/src/hal.h",line 533,column 3,i
    1529 0000002e 1EC4          MOVL      *+XAR4[0],ACC         ; [CPU_] |533| 
    1530                      .dwpsn  file "D:/BM1000/sw/drivers/adc/src/32b/f28x/f2802x/adc.h",line 684,column 3,is_stmt
    1531 0000002f 0ED1          MOVU      ACC,*+XAR1[2]         ; [CPU_] |684| 
    1532 00000030 1EAC          MOVL      XT,ACC                ; [CPU_] |684| 
    1533                      .dwpsn  file "D:/BM1000/sw/modules/hal/boards/hvkit_rev1p1/f28x/f2802x/src/hal.h",line 537,column 3,i
    1534 00000031 5605          IMPYL     P,XT,XAR7             ; [CPU_] |537| 
         00000032 00A7 
    1535 00000033 5663          QMPYL     ACC,XT,XAR7           ; [CPU_] |537| 
         00000034 00A7 
    1536 00000035 568B          ASR64     ACC:P,#12             ; [CPU_] |537| 
    1537 00000036 A9A9          MOVL      ACC,P                 ; [CPU_] |537| 
    1538 00000037 03D6          SUBL      ACC,*+XAR6[2]         ; [CPU_] |537| 
    1539                      .dwpsn  file "D:/BM1000/sw/modules/hal/boards/hvkit_rev1p1/f28x/f2802x/src/hal.h",line 538,column 3,i
    1540 00000038 1ED4          MOVL      *+XAR4[2],ACC         ; [CPU_] |538| 
    1541                      .dwpsn  file "D:/BM1000/sw/drivers/adc/src/32b/f28x/f2802x/adc.h",line 684,column 3,is_stmt
    1542 00000039 0ED9          MOVU      ACC,*+XAR1[3]         ; [CPU_] |684| 
TMS320C2000 Assembler PC v6.2.5 Tue Sep 26 10:29:40 2017

Tools Copyright (c) 1996-2014 Texas Instruments Incorporated
C:\Users\wmj\AppData\Local\Temp\1168813                              PAGE   31

    1543 0000003a 1EAC          MOVL      XT,ACC                ; [CPU_] |684| 
    1544                      .dwpsn  file "D:/BM1000/sw/modules/hal/boards/hvkit_rev1p1/f28x/f2802x/src/hal.h",line 542,column 3,i
    1545 0000003b 5605          IMPYL     P,XT,XAR7             ; [CPU_] |542| 
         0000003c 00A7 
    1546 0000003d 5663          QMPYL     ACC,XT,XAR7           ; [CPU_] |542| 
         0000003e 00A7 
    1547 0000003f 568B          ASR64     ACC:P,#12             ; [CPU_] |542| 
    1548                      .dwpsn  file "D:/BM1000/sw/modules/hal/boards/hvkit_rev1p1/f28x/f2802x/src/hal.h",line 548,column 3,i
    1549 00000040 C5A4          MOVL      XAR7,XAR4             ; [CPU_] |548| 
    1550                      .dwpsn  file "D:/BM1000/sw/modules/hal/boards/hvkit_rev1p1/f28x/f2802x/src/hal.h",line 542,column 3,i
    1551 00000041 A9A9          MOVL      ACC,P                 ; [CPU_] |542| 
    1552                      .dwpsn  file "D:/BM1000/sw/modules/hal/boards/hvkit_rev1p1/f28x/f2802x/src/hal.h",line 547,column 3,i
    1553 00000042 D0B0          MOVB      XAR0,#176             ; [CPU_] |547| 
    1554                      .dwpsn  file "D:/BM1000/sw/modules/hal/boards/hvkit_rev1p1/f28x/f2802x/src/hal.h",line 542,column 3,i
    1555 00000043 03E6          SUBL      ACC,*+XAR6[4]         ; [CPU_] |542| 
    1556                      .dwpsn  file "D:/BM1000/sw/modules/hal/boards/hvkit_rev1p1/f28x/f2802x/src/hal.h",line 548,column 3,i
    1557 00000044 DF06          ADDB      XAR7,#6               ; [CPU_] |548| 
    1558                      .dwpsn  file "D:/BM1000/sw/modules/hal/boards/hvkit_rev1p1/f28x/f2802x/src/hal.h",line 543,column 3,i
    1559 00000045 1EE4          MOVL      *+XAR4[4],ACC         ; [CPU_] |543| 
    1560                      .dwpsn  file "D:/BM1000/sw/modules/hal/boards/hvkit_rev1p1/f28x/f2802x/src/hal.h",line 547,column 3,i
    1561 00000046 8E95          MOVL      XAR0,*+XAR5[AR0]      ; [CPU_] |547| 
    1562                      .dwpsn  file "D:/BM1000/sw/drivers/adc/src/32b/f28x/f2802x/adc.h",line 684,column 3,is_stmt
    1563 00000047 0EE1          MOVU      ACC,*+XAR1[4]         ; [CPU_] |684| 
    1564 00000048 1EAC          MOVL      XT,ACC                ; [CPU_] |684| 
    1565                      .dwpsn  file "D:/BM1000/sw/modules/hal/boards/hvkit_rev1p1/f28x/f2802x/src/hal.h",line 547,column 3,i
    1566 00000049 029E          MOVB      ACC,#158              ; [CPU_] |547| 
    1567 0000004a 5605          IMPYL     P,XT,XAR0             ; [CPU_] |547| 
         0000004b 00A0 
    1568 0000004c 07A5          ADDL      ACC,XAR5              ; [CPU_] |547| 
    1569 0000004d 1EA6          MOVL      XAR6,ACC              ; [CPU_] |547| 
    1570 0000004e 5663          QMPYL     ACC,XT,XAR0           ; [CPU_] |547| 
         0000004f 00A0 
    1571 00000050 568B          ASR64     ACC:P,#12             ; [CPU_] |547| 
    1572 00000051 A9A9          MOVL      ACC,P                 ; [CPU_] |547| 
    1573 00000052 03C6          SUBL      ACC,*+XAR6[0]         ; [CPU_] |547| 
    1574                      .dwpsn  file "D:/BM1000/sw/modules/hal/boards/hvkit_rev1p1/f28x/f2802x/src/hal.h",line 548,column 3,i
    1575 00000053 1EC7          MOVL      *+XAR7[0],ACC         ; [CPU_] |548| 
    1576                      .dwpsn  file "D:/BM1000/sw/drivers/adc/src/32b/f28x/f2802x/adc.h",line 684,column 3,is_stmt
    1577 00000054 0EE9          MOVU      ACC,*+XAR1[5]         ; [CPU_] |684| 
    1578 00000055 1EAC          MOVL      XT,ACC                ; [CPU_] |684| 
    1579                      .dwpsn  file "D:/BM1000/sw/modules/hal/boards/hvkit_rev1p1/f28x/f2802x/src/hal.h",line 552,column 3,i
    1580 00000056 5605          IMPYL     P,XT,XAR0             ; [CPU_] |552| 
         00000057 00A0 
    1581 00000058 5663          QMPYL     ACC,XT,XAR0           ; [CPU_] |552| 
         00000059 00A0 
    1582 0000005a 568B          ASR64     ACC:P,#12             ; [CPU_] |552| 
    1583 0000005b A9A9          MOVL      ACC,P                 ; [CPU_] |552| 
    1584 0000005c 03D6          SUBL      ACC,*+XAR6[2]         ; [CPU_] |552| 
    1585                      .dwpsn  file "D:/BM1000/sw/modules/hal/boards/hvkit_rev1p1/f28x/f2802x/src/hal.h",line 553,column 3,i
    1586 0000005d 1ED7          MOVL      *+XAR7[2],ACC         ; [CPU_] |553| 
    1587                      .dwpsn  file "D:/BM1000/sw/drivers/adc/src/32b/f28x/f2802x/adc.h",line 684,column 3,is_stmt
    1588 0000005e 0EF1          MOVU      ACC,*+XAR1[6]         ; [CPU_] |684| 
    1589 0000005f 1EAC          MOVL      XT,ACC                ; [CPU_] |684| 
    1590                      .dwpsn  file "D:/BM1000/sw/modules/hal/boards/hvkit_rev1p1/f28x/f2802x/src/hal.h",line 557,column 3,i
    1591 00000060 5605          IMPYL     P,XT,XAR0             ; [CPU_] |557| 
TMS320C2000 Assembler PC v6.2.5 Tue Sep 26 10:29:40 2017

Tools Copyright (c) 1996-2014 Texas Instruments Incorporated
C:\Users\wmj\AppData\Local\Temp\1168813                              PAGE   32

         00000061 00A0 
    1592 00000062 5663          QMPYL     ACC,XT,XAR0           ; [CPU_] |557| 
         00000063 00A0 
    1593 00000064 568B          ASR64     ACC:P,#12             ; [CPU_] |557| 
    1594 00000065 A9A9          MOVL      ACC,P                 ; [CPU_] |557| 
    1595 00000066 03E6          SUBL      ACC,*+XAR6[4]         ; [CPU_] |557| 
    1596                      .dwpsn  file "D:/BM1000/sw/modules/hal/boards/hvkit_rev1p1/f28x/f2802x/src/hal.h",line 558,column 3,i
    1597 00000067 1EE7          MOVL      *+XAR7[4],ACC         ; [CPU_] |558| 
    1598                      .dwpsn  file "D:/BM1000/sw/drivers/adc/src/32b/f28x/f2802x/adc.h",line 684,column 3,is_stmt
    1599 00000068 0EF9          MOVU      ACC,*+XAR1[7]         ; [CPU_] |684| 
    1600 00000069 1EAC          MOVL      XT,ACC                ; [CPU_] |684| 
    1601                      .dwpsn  file "D:/BM1000/sw/modules/hal/boards/hvkit_rev1p1/f28x/f2802x/src/hal.h",line 562,column 3,i
    1602 0000006a 5605          IMPYL     P,XT,XAR0             ; [CPU_] |562| 
         0000006b 00A0 
    1603 0000006c 5663          QMPYL     ACC,XT,XAR0           ; [CPU_] |562| 
         0000006d 00A0 
    1604                      .dwpsn  file "D:/BM1000/sw/modules/hal/boards/hvkit_rev1p1/f28x/f2802x/src/hal.h",line 563,column 3,i
    1605 0000006e D00C          MOVB      XAR0,#12              ; [CPU_] |563| 
    1606                      .dwpsn  file "D:/BM1000/sw/modules/hal/boards/hvkit_rev1p1/f28x/f2802x/src/hal.h",line 562,column 3,i
    1607 0000006f 568B          ASR64     ACC:P,#12             ; [CPU_] |562| 
    1608                      .dwpsn  file "D:/BM1000/sw/modules/hal/boards/hvkit_rev1p1/f28x/f2802x/src/hal.h",line 563,column 3,i
    1609 00000070 A994          MOVL      *+XAR4[AR0],P         ; [CPU_] |563| 
    1610                      .dwpsn  file "D:/BM1000/sw/drivers/adc/src/32b/f28x/f2802x/adc.h",line 684,column 3,is_stmt
    1611 00000071 D008          MOVB      XAR0,#8               ; [CPU_] |684| 
    1612 00000072 0E91          MOVU      ACC,*+XAR1[AR0]       ; [CPU_] |684| 
    1613                      .dwpsn  file "D:/BM1000/sw/modules/hal/boards/hvkit_rev1p1/f28x/f2802x/src/hal.h",line 567,column 4,i
    1614 00000073 D00E          MOVB      XAR0,#14              ; [CPU_] |567| 
    1615 00000074 1E94          MOVL      *+XAR4[AR0],ACC       ; [CPU_] |567| 
    1616                      .dwpsn  file "D:/BM1000/sw/drivers/adc/src/32b/f28x/f2802x/adc.h",line 684,column 3,is_stmt
    1617 00000075 D009          MOVB      XAR0,#9               ; [CPU_] |684| 
    1618 00000076 0E91          MOVU      ACC,*+XAR1[AR0]       ; [CPU_] |684| 
    1619                      .dwpsn  file "D:/BM1000/sw/modules/hal/boards/hvkit_rev1p1/f28x/f2802x/src/hal.h",line 571,column 4,i
    1620 00000077 D010          MOVB      XAR0,#16              ; [CPU_] |571| 
    1621 00000078 1E94          MOVL      *+XAR4[AR0],ACC       ; [CPU_] |571| 
    1622                      .dwpsn  file "D:/BM1000/sw/drivers/adc/src/32b/f28x/f2802x/adc.h",line 684,column 3,is_stmt
    1623 00000079 D00A          MOVB      XAR0,#10              ; [CPU_] |684| 
    1624 0000007a 0E91          MOVU      ACC,*+XAR1[AR0]       ; [CPU_] |684| 
    1625                      .dwpsn  file "D:/BM1000/sw/modules/hal/boards/hvkit_rev1p1/f28x/f2802x/src/hal.h",line 574,column 4,i
    1626 0000007b D014          MOVB      XAR0,#20              ; [CPU_] |574| 
    1627 0000007c 1E94          MOVL      *+XAR4[AR0],ACC       ; [CPU_] |574| 
    1628                      .dwpsn  file "D:/BM1000/sw/drivers/adc/src/32b/f28x/f2802x/adc.h",line 684,column 3,is_stmt
    1629 0000007d D00B          MOVB      XAR0,#11              ; [CPU_] |684| 
    1630 0000007e 0E91          MOVU      ACC,*+XAR1[AR0]       ; [CPU_] |684| 
    1631                      .dwpsn  file "D:/BM1000/sw/modules/hal/boards/hvkit_rev1p1/f28x/f2802x/src/hal.h",line 577,column 4,i
    1632 0000007f D012          MOVB      XAR0,#18              ; [CPU_] |577| 
    1633 00000080 1E94          MOVL      *+XAR4[AR0],ACC       ; [CPU_] |577| 
    1634                      .dwpsn  file "D:/BM1000/sw/solutions/instaspin_foc/src/proj_lab05b.c",line 529,column 3,is_stmt
    1635 00000081 A842          MOVL      *-SP[2],XAR4          ; [CPU_] |529| 
    1636 00000082 8F00-         MOVL      XAR4,#_gPwmData       ; [CPU_U] |529| 
         00000083 001C 
    1637 00000084 A844          MOVL      *-SP[4],XAR4          ; [CPU_] |529| 
    1638 00000085 8A12-         MOVL      XAR4,@_ctrlHandle     ; [CPU_] |529| 
    1639              $C$DW$226       .dwtag  DW_TAG_TI_branch
    1640                      .dwattr $C$DW$226, DW_AT_low_pc(0x00)
    1641                      .dwattr $C$DW$226, DW_AT_name("_CTRL_run")
TMS320C2000 Assembler PC v6.2.5 Tue Sep 26 10:29:40 2017

Tools Copyright (c) 1996-2014 Texas Instruments Incorporated
C:\Users\wmj\AppData\Local\Temp\1168813                              PAGE   33

    1642                      .dwattr $C$DW$226, DW_AT_TI_call
    1643 00000086 7640!         LCR       #_CTRL_run            ; [CPU_] |529| 
         00000087 0000 
    1644                      ; call occurs [#_CTRL_run] ; [] |529| 
    1645 00000088 761F-         MOVW      DP,#_halHandle        ; [CPU_U] 
         00000089 0000 
    1646 0000008a BE02          MOVB      XAR6,#2               ; [CPU_] 
    1647 0000008b 3B01          SETC      SXM                   ; [CPU_] 
    1648 0000008c 76C0-         MOVL      XAR7,#_gPwmData       ; [CPU_U] 
         0000008d 001C 
    1649 0000008e 0614-         MOVL      ACC,@_halHandle       ; [CPU_] 
    1650 0000008f 097C          ADDB      ACC,#124              ; [CPU_] 
    1651 00000090 8AA9          MOVL      XAR4,ACC              ; [CPU_] 
    1652 00000091       $C$L3:    
    1653                      .dwpsn  file "D:/BM1000/sw/modules/hal/boards/hvkit_rev1p1/f28x/f2802x/src/hal.h",line 1112,column 7,
    1654 00000091 83C4          MOVL      XAR5,*+XAR4[0]        ; [CPU_] |1112| 
    1655                      .dwpsn  file "D:/BM1000/sw/drivers/pwm/src/32b/f28x/f2802x/pwm.h",line 1717,column 3,is_stmt
    1656 00000092 FF2F          MOV       ACC,#-512 << 15       ; [CPU_] |1717| 
         00000093 FE00 
    1657 00000094 8787          MOVL      XT,*XAR7++            ; [CPU_] |1717| 
    1658 00000095 5605          IMPYL     P,XT,ACC              ; [CPU_] |1717| 
         00000096 00A9 
    1659                      .dwpsn  file "D:/BM1000/sw/modules/hal/boards/hvkit_rev1p1/f28x/f2802x/src/hal.h",line 1112,column 7,
    1660 00000097 58ED          MOVZ      AR0,*+XAR5[5]         ; [CPU_] |1112| 
    1661                      .dwpsn  file "D:/BM1000/sw/drivers/pwm/src/32b/f28x/f2802x/pwm.h",line 1717,column 3,is_stmt
    1662 00000098 5663          QMPYL     ACC,XT,ACC            ; [CPU_] |1717| 
         00000099 00A9 
    1663                      .dwpsn  file "D:/BM1000/sw/modules/hal/boards/hvkit_rev1p1/f28x/f2802x/src/hal.h",line 1109,column 13
    1664 0000009a DC02          ADDB      XAR4,#2               ; [CPU_] |1109| 
    1665                      .dwpsn  file "D:/BM1000/sw/drivers/pwm/src/32b/f28x/f2802x/pwm.h",line 1717,column 3,is_stmt
    1666 0000009b 56A7          LSL64     ACC:P,#8              ; [CPU_] |1717| 
    1667 0000009c 2BAB          MOV       PL,#0                 ; [CPU_] |1717| 
    1668 0000009d 28AA          MOV       PH,#128               ; [CPU_] |1717| 
         0000009e 0080 
    1669 0000009f A9A2          MOVL      XAR2,P                ; [CPU_] |1717| 
    1670 000000a0 2BAB          MOV       PL,#0                 ; [CPU_] |1717| 
    1671 000000a1 28AA          MOV       PH,#65408             ; [CPU_] |1717| 
         000000a2 FF80 
    1672 000000a3 5650          MINL      ACC,XAR2              ; [CPU_] |1717| 
         000000a4 00A2 
    1673 000000a5 5661          MAXL      ACC,P                 ; [CPU_] |1717| 
         000000a6 00AB 
    1674 000000a7 FF1F          ADD       ACC,#256 << 15        ; [CPU_] |1717| 
         000000a8 0100 
    1675 000000a9 1EAC          MOVL      XT,ACC                ; [CPU_] |1717| 
    1676 000000aa 5605          IMPYL     P,XT,XAR0             ; [CPU_] |1717| 
         000000ab 00A0 
    1677 000000ac 5663          QMPYL     ACC,XT,XAR0           ; [CPU_] |1717| 
         000000ad 00A0 
    1678 000000ae 56A7          LSL64     ACC:P,#8              ; [CPU_] |1717| 
    1679 000000af 3100          MOV       P,#0                  ; [CPU_] |1717| 
    1680 000000b0 5650          MINL      ACC,XAR0              ; [CPU_] |1717| 
         000000b1 00A0 
    1681 000000b2 D009          MOVB      XAR0,#9               ; [CPU_] |1717| 
    1682 000000b3 5661          MAXL      ACC,P                 ; [CPU_] |1717| 
TMS320C2000 Assembler PC v6.2.5 Tue Sep 26 10:29:40 2017

Tools Copyright (c) 1996-2014 Texas Instruments Incorporated
C:\Users\wmj\AppData\Local\Temp\1168813                              PAGE   34

         000000b4 00AB 
    1683 000000b5 9695          MOV       *+XAR5[AR0],AL        ; [CPU_] |1717| 
    1684                      .dwpsn  file "D:/BM1000/sw/modules/hal/boards/hvkit_rev1p1/f28x/f2802x/src/hal.h",line 1109,column 13
    1685 000000b6 000E          BANZ      $C$L3,AR6--           ; [CPU_] |1109| 
         000000b7 FFDB 
    1686                      ; branchcc occurs ; [] |1109| 
    1687 000000b8 761F-         MOVW      DP,#_ctrlHandle       ; [CPU_U] 
         000000b9 0000 
    1688                      .dwpsn  file "D:/BM1000/sw/solutions/instaspin_foc/src/proj_lab05b.c",line 537,column 3,is_stmt
    1689 000000ba 8A12-         MOVL      XAR4,@_ctrlHandle     ; [CPU_] |537| 
    1690              $C$DW$227       .dwtag  DW_TAG_TI_branch
    1691                      .dwattr $C$DW$227, DW_AT_low_pc(0x00)
    1692                      .dwattr $C$DW$227, DW_AT_name("_CTRL_setup")
    1693                      .dwattr $C$DW$227, DW_AT_TI_call
    1694 000000bb 7640!         LCR       #_CTRL_setup          ; [CPU_] |537| 
         000000bc 0000 
    1695                      ; call occurs [#_CTRL_setup] ; [] |537| 
    1696 000000bd FE84          SUBB      SP,#4                 ; [CPU_U] 
    1697                      .dwcfi  cfa_offset, -16
    1698 000000be C5BE          MOVL      XAR7,*--SP            ; [CPU_] 
    1699                      .dwcfi  cfa_offset, -14
    1700                      .dwcfi  restore_reg, 18
    1701 000000bf C4BE          MOVL      XAR6,*--SP            ; [CPU_] 
    1702                      .dwcfi  cfa_offset, -12
    1703                      .dwcfi  restore_reg, 16
    1704 000000c0 83BE          MOVL      XAR5,*--SP            ; [CPU_] 
    1705                      .dwcfi  cfa_offset, -10
    1706                      .dwcfi  restore_reg, 14
    1707 000000c1 8ABE          MOVL      XAR4,*--SP            ; [CPU_] 
    1708                      .dwcfi  cfa_offset, -8
    1709                      .dwcfi  restore_reg, 12
    1710 000000c2 86BE          MOVL      XAR2,*--SP            ; [CPU_] 
    1711                      .dwcfi  cfa_offset, -6
    1712                      .dwcfi  restore_reg, 8
    1713 000000c3 87BE          MOVL      XT,*--SP              ; [CPU_] 
    1714                      .dwcfi  cfa_offset, -4
    1715                      .dwcfi  restore_reg, 22
    1716                      .dwcfi  restore_reg, 21
    1717 000000c4 0003          POP       AR1H:AR0H             ; [CPU_] 
    1718                      .dwcfi  cfa_offset, -2
    1719                      .dwcfi  restore_reg, 5
    1720                      .dwcfi  restore_reg, 7
    1721 000000c5 7617          NASP      ; [CPU_] 
    1722              $C$DW$228       .dwtag  DW_TAG_TI_branch
    1723                      .dwattr $C$DW$228, DW_AT_low_pc(0x00)
    1724                      .dwattr $C$DW$228, DW_AT_TI_return
    1725 000000c6 7602          IRET      ; [CPU_] 
    1726                      ; return occurs ; [] 
    1727                      .dwattr $C$DW$212, DW_AT_TI_end_file("D:/BM1000/sw/solutions/instaspin_foc/src/proj_lab05b.c")
    1728                      .dwattr $C$DW$212, DW_AT_TI_end_line(0x21d)
    1729                      .dwattr $C$DW$212, DW_AT_TI_end_column(0x01)
    1730                      .dwendentry
    1731                      .dwendtag $C$DW$212
    1732              
    1733 00000095               .sect   ".text"
TMS320C2000 Assembler PC v6.2.5 Tue Sep 26 10:29:40 2017

Tools Copyright (c) 1996-2014 Texas Instruments Incorporated
C:\Users\wmj\AppData\Local\Temp\1168813                              PAGE   35

    1734                      .clink
    1735                      .global _main
    1736              
    1737              $C$DW$229       .dwtag  DW_TAG_subprogram, DW_AT_name("main")
    1738                      .dwattr $C$DW$229, DW_AT_low_pc(_main)
    1739                      .dwattr $C$DW$229, DW_AT_high_pc(0x00)
    1740                      .dwattr $C$DW$229, DW_AT_TI_symbol_name("_main")
    1741                      .dwattr $C$DW$229, DW_AT_external
    1742                      .dwattr $C$DW$229, DW_AT_TI_begin_file("D:/BM1000/sw/solutions/instaspin_foc/src/proj_lab05b.c")
    1743                      .dwattr $C$DW$229, DW_AT_TI_begin_line(0x92)
    1744                      .dwattr $C$DW$229, DW_AT_TI_begin_column(0x06)
    1745                      .dwattr $C$DW$229, DW_AT_TI_max_frame_size(-24)
    1746                      .dwpsn  file "D:/BM1000/sw/solutions/instaspin_foc/src/proj_lab05b.c",line 147,column 1,is_stmt,addre
    1747              
    1748                      .dwfde $C$DW$CIE, _main
    1749              
    1750              ;***************************************************************
    1751              ;* FNAME: _main                         FR SIZE:  22           *
    1752              ;*                                                             *
    1753              ;* FUNCTION ENVIRONMENT                                        *
    1754              ;*                                                             *
    1755              ;* FUNCTION PROPERTIES                                         *
    1756              ;*                            2 Parameter, 14 Auto,  6 SOE     *
    1757              ;***************************************************************
    1758              
    1759              _main:
    1760              ;* AR4   assigned to $O$C18
    1761              ;* AR4   assigned to $O$C19
    1762              ;* AR5   assigned to $O$C20
    1763              ;* AR5   assigned to $O$C21
    1764              ;* AR7   assigned to $O$C22
    1765              ;* AR5   assigned to $O$C23
    1766              ;* AR6   assigned to $O$C24
    1767              ;* AR5   assigned to $O$C25
    1768              ;* AR7   assigned to $O$C26
    1769              ;* AR0   assigned to $O$C27
    1770              ;* AR7   assigned to $O$C28
    1771              ;* AR0   assigned to $O$C29
    1772              ;* AR6   assigned to $O$C30
    1773              ;* XT    assigned to $O$C31
    1774              ;* AR6   assigned to $O$C32
    1775              ;* AR5   assigned to $O$C33
    1776              ;* AR4   assigned to $O$C34
    1777              ;* AR4   assigned to $O$C35
    1778              ;* XT    assigned to $O$U9
    1779              ;* AR5   assigned to _pie
    1780              $C$DW$230       .dwtag  DW_TAG_variable, DW_AT_name("pie")
    1781                      .dwattr $C$DW$230, DW_AT_TI_symbol_name("_pie")
    1782                      .dwattr $C$DW$230, DW_AT_type(*$C$DW$T$281)
    1783                      .dwattr $C$DW$230, DW_AT_location[DW_OP_reg14]
    1784              ;* AR5   assigned to _pwmHandle
    1785              $C$DW$231       .dwtag  DW_TAG_variable, DW_AT_name("pwmHandle")
    1786                      .dwattr $C$DW$231, DW_AT_TI_symbol_name("_pwmHandle")
    1787                      .dwattr $C$DW$231, DW_AT_type(*$C$DW$T$110)
    1788                      .dwattr $C$DW$231, DW_AT_location[DW_OP_reg14]
TMS320C2000 Assembler PC v6.2.5 Tue Sep 26 10:29:40 2017

Tools Copyright (c) 1996-2014 Texas Instruments Incorporated
C:\Users\wmj\AppData\Local\Temp\1168813                              PAGE   36

    1789              ;* AR5   assigned to _pwmHandle
    1790              $C$DW$232       .dwtag  DW_TAG_variable, DW_AT_name("pwmHandle")
    1791                      .dwattr $C$DW$232, DW_AT_TI_symbol_name("_pwmHandle")
    1792                      .dwattr $C$DW$232, DW_AT_type(*$C$DW$T$110)
    1793                      .dwattr $C$DW$232, DW_AT_location[DW_OP_reg14]
    1794              ;* AR4   assigned to _pwmHandle
    1795              $C$DW$233       .dwtag  DW_TAG_variable, DW_AT_name("pwmHandle")
    1796                      .dwattr $C$DW$233, DW_AT_TI_symbol_name("_pwmHandle")
    1797                      .dwattr $C$DW$233, DW_AT_type(*$C$DW$T$110)
    1798                      .dwattr $C$DW$233, DW_AT_location[DW_OP_reg12]
    1799              ;* AR4   assigned to _obj
    1800              $C$DW$234       .dwtag  DW_TAG_variable, DW_AT_name("obj")
    1801                      .dwattr $C$DW$234, DW_AT_TI_symbol_name("_obj")
    1802                      .dwattr $C$DW$234, DW_AT_type(*$C$DW$T$263)
    1803                      .dwattr $C$DW$234, DW_AT_location[DW_OP_reg12]
    1804              ;* AL    assigned to _state
    1805              $C$DW$235       .dwtag  DW_TAG_variable, DW_AT_name("state")
    1806                      .dwattr $C$DW$235, DW_AT_TI_symbol_name("_state")
    1807                      .dwattr $C$DW$235, DW_AT_type(*$C$DW$T$34)
    1808                      .dwattr $C$DW$235, DW_AT_location[DW_OP_reg0]
    1809              ;* AL    assigned to _state
    1810              $C$DW$236       .dwtag  DW_TAG_variable, DW_AT_name("state")
    1811                      .dwattr $C$DW$236, DW_AT_TI_symbol_name("_state")
    1812                      .dwattr $C$DW$236, DW_AT_type(*$C$DW$T$34)
    1813                      .dwattr $C$DW$236, DW_AT_location[DW_OP_reg0]
    1814              ;* AR5   assigned to _pwmHandle
    1815              $C$DW$237       .dwtag  DW_TAG_variable, DW_AT_name("pwmHandle")
    1816                      .dwattr $C$DW$237, DW_AT_TI_symbol_name("_pwmHandle")
    1817                      .dwattr $C$DW$237, DW_AT_type(*$C$DW$T$110)
    1818                      .dwattr $C$DW$237, DW_AT_location[DW_OP_reg14]
    1819              ;* AR5   assigned to _pwmHandle
    1820              $C$DW$238       .dwtag  DW_TAG_variable, DW_AT_name("pwmHandle")
    1821                      .dwattr $C$DW$238, DW_AT_TI_symbol_name("_pwmHandle")
    1822                      .dwattr $C$DW$238, DW_AT_type(*$C$DW$T$110)
    1823                      .dwattr $C$DW$238, DW_AT_location[DW_OP_reg14]
    1824              ;* AR4   assigned to _pwmHandle
    1825              $C$DW$239       .dwtag  DW_TAG_variable, DW_AT_name("pwmHandle")
    1826                      .dwattr $C$DW$239, DW_AT_TI_symbol_name("_pwmHandle")
    1827                      .dwattr $C$DW$239, DW_AT_type(*$C$DW$T$110)
    1828                      .dwattr $C$DW$239, DW_AT_location[DW_OP_reg12]
    1829              ;* AR4   assigned to _obj
    1830              $C$DW$240       .dwtag  DW_TAG_variable, DW_AT_name("obj")
    1831                      .dwattr $C$DW$240, DW_AT_TI_symbol_name("_obj")
    1832                      .dwattr $C$DW$240, DW_AT_type(*$C$DW$T$263)
    1833                      .dwattr $C$DW$240, DW_AT_location[DW_OP_reg12]
    1834              ;* AH    assigned to _state
    1835              $C$DW$241       .dwtag  DW_TAG_variable, DW_AT_name("state")
    1836                      .dwattr $C$DW$241, DW_AT_TI_symbol_name("_state")
    1837                      .dwattr $C$DW$241, DW_AT_type(*$C$DW$T$34)
    1838                      .dwattr $C$DW$241, DW_AT_location[DW_OP_reg1]
    1839              ;* AR6   assigned to _pwmHandle
    1840              $C$DW$242       .dwtag  DW_TAG_variable, DW_AT_name("pwmHandle")
    1841                      .dwattr $C$DW$242, DW_AT_TI_symbol_name("_pwmHandle")
    1842                      .dwattr $C$DW$242, DW_AT_type(*$C$DW$T$110)
    1843                      .dwattr $C$DW$242, DW_AT_location[DW_OP_reg16]
TMS320C2000 Assembler PC v6.2.5 Tue Sep 26 10:29:40 2017

Tools Copyright (c) 1996-2014 Texas Instruments Incorporated
C:\Users\wmj\AppData\Local\Temp\1168813                              PAGE   37

    1844              ;* AR6   assigned to _pwmHandle
    1845              $C$DW$243       .dwtag  DW_TAG_variable, DW_AT_name("pwmHandle")
    1846                      .dwattr $C$DW$243, DW_AT_TI_symbol_name("_pwmHandle")
    1847                      .dwattr $C$DW$243, DW_AT_type(*$C$DW$T$110)
    1848                      .dwattr $C$DW$243, DW_AT_location[DW_OP_reg16]
    1849              ;* AR5   assigned to _pwmHandle
    1850              $C$DW$244       .dwtag  DW_TAG_variable, DW_AT_name("pwmHandle")
    1851                      .dwattr $C$DW$244, DW_AT_TI_symbol_name("_pwmHandle")
    1852                      .dwattr $C$DW$244, DW_AT_type(*$C$DW$T$110)
    1853                      .dwattr $C$DW$244, DW_AT_location[DW_OP_reg14]
    1854              ;* AR5   assigned to _obj
    1855              $C$DW$245       .dwtag  DW_TAG_variable, DW_AT_name("obj")
    1856                      .dwattr $C$DW$245, DW_AT_TI_symbol_name("_obj")
    1857                      .dwattr $C$DW$245, DW_AT_type(*$C$DW$T$263)
    1858                      .dwattr $C$DW$245, DW_AT_location[DW_OP_reg14]
    1859              ;* AR6   assigned to _handle
    1860              $C$DW$246       .dwtag  DW_TAG_variable, DW_AT_name("handle")
    1861                      .dwattr $C$DW$246, DW_AT_TI_symbol_name("_handle")
    1862                      .dwattr $C$DW$246, DW_AT_type(*$C$DW$T$99)
    1863                      .dwattr $C$DW$246, DW_AT_location[DW_OP_reg16]
    1864              ;* AR2   assigned to _bias
    1865              $C$DW$247       .dwtag  DW_TAG_variable, DW_AT_name("bias")
    1866                      .dwattr $C$DW$247, DW_AT_TI_symbol_name("_bias")
    1867                      .dwattr $C$DW$247, DW_AT_type(*$C$DW$T$32)
    1868                      .dwattr $C$DW$247, DW_AT_location[DW_OP_reg8]
    1869              ;* AR6   assigned to _handle
    1870              $C$DW$248       .dwtag  DW_TAG_variable, DW_AT_name("handle")
    1871                      .dwattr $C$DW$248, DW_AT_TI_symbol_name("_handle")
    1872                      .dwattr $C$DW$248, DW_AT_type(*$C$DW$T$99)
    1873                      .dwattr $C$DW$248, DW_AT_location[DW_OP_reg16]
    1874              ;* AR5   assigned to _handle
    1875              $C$DW$249       .dwtag  DW_TAG_variable, DW_AT_name("handle")
    1876                      .dwattr $C$DW$249, DW_AT_TI_symbol_name("_handle")
    1877                      .dwattr $C$DW$249, DW_AT_type(*$C$DW$T$184)
    1878                      .dwattr $C$DW$249, DW_AT_location[DW_OP_reg14]
    1879              ;* XT    assigned to _obj
    1880              $C$DW$250       .dwtag  DW_TAG_variable, DW_AT_name("obj")
    1881                      .dwattr $C$DW$250, DW_AT_TI_symbol_name("_obj")
    1882                      .dwattr $C$DW$250, DW_AT_type(*$C$DW$T$263)
    1883                      .dwattr $C$DW$250, DW_AT_location[DW_OP_reg21]
    1884              ;* AL    assigned to _bias
    1885              $C$DW$251       .dwtag  DW_TAG_variable, DW_AT_name("bias")
    1886                      .dwattr $C$DW$251, DW_AT_TI_symbol_name("_bias")
    1887                      .dwattr $C$DW$251, DW_AT_type(*$C$DW$T$32)
    1888                      .dwattr $C$DW$251, DW_AT_location[DW_OP_reg0]
    1889              ;* AL    assigned to _bias
    1890              $C$DW$252       .dwtag  DW_TAG_variable, DW_AT_name("bias")
    1891                      .dwattr $C$DW$252, DW_AT_TI_symbol_name("_bias")
    1892                      .dwattr $C$DW$252, DW_AT_type(*$C$DW$T$32)
    1893                      .dwattr $C$DW$252, DW_AT_location[DW_OP_reg0]
    1894              ;* AL    assigned to _bias
    1895              $C$DW$253       .dwtag  DW_TAG_variable, DW_AT_name("bias")
    1896                      .dwattr $C$DW$253, DW_AT_TI_symbol_name("_bias")
    1897                      .dwattr $C$DW$253, DW_AT_type(*$C$DW$T$32)
    1898                      .dwattr $C$DW$253, DW_AT_location[DW_OP_reg0]
TMS320C2000 Assembler PC v6.2.5 Tue Sep 26 10:29:40 2017

Tools Copyright (c) 1996-2014 Texas Instruments Incorporated
C:\Users\wmj\AppData\Local\Temp\1168813                              PAGE   38

    1899              ;* AR6   assigned to _pwmHandle
    1900              $C$DW$254       .dwtag  DW_TAG_variable, DW_AT_name("pwmHandle")
    1901                      .dwattr $C$DW$254, DW_AT_TI_symbol_name("_pwmHandle")
    1902                      .dwattr $C$DW$254, DW_AT_type(*$C$DW$T$110)
    1903                      .dwattr $C$DW$254, DW_AT_location[DW_OP_reg16]
    1904              ;* AR6   assigned to _pwmHandle
    1905              $C$DW$255       .dwtag  DW_TAG_variable, DW_AT_name("pwmHandle")
    1906                      .dwattr $C$DW$255, DW_AT_TI_symbol_name("_pwmHandle")
    1907                      .dwattr $C$DW$255, DW_AT_type(*$C$DW$T$110)
    1908                      .dwattr $C$DW$255, DW_AT_location[DW_OP_reg16]
    1909              ;* AR5   assigned to _pwmHandle
    1910              $C$DW$256       .dwtag  DW_TAG_variable, DW_AT_name("pwmHandle")
    1911                      .dwattr $C$DW$256, DW_AT_TI_symbol_name("_pwmHandle")
    1912                      .dwattr $C$DW$256, DW_AT_type(*$C$DW$T$110)
    1913                      .dwattr $C$DW$256, DW_AT_location[DW_OP_reg14]
    1914              ;* AR6   assigned to _pwmHandle
    1915              $C$DW$257       .dwtag  DW_TAG_variable, DW_AT_name("pwmHandle")
    1916                      .dwattr $C$DW$257, DW_AT_TI_symbol_name("_pwmHandle")
    1917                      .dwattr $C$DW$257, DW_AT_type(*$C$DW$T$110)
    1918                      .dwattr $C$DW$257, DW_AT_location[DW_OP_reg16]
    1919              ;* AR6   assigned to _pwmHandle
    1920              $C$DW$258       .dwtag  DW_TAG_variable, DW_AT_name("pwmHandle")
    1921                      .dwattr $C$DW$258, DW_AT_TI_symbol_name("_pwmHandle")
    1922                      .dwattr $C$DW$258, DW_AT_type(*$C$DW$T$110)
    1923                      .dwattr $C$DW$258, DW_AT_location[DW_OP_reg16]
    1924              ;* AR5   assigned to _pwmHandle
    1925              $C$DW$259       .dwtag  DW_TAG_variable, DW_AT_name("pwmHandle")
    1926                      .dwattr $C$DW$259, DW_AT_TI_symbol_name("_pwmHandle")
    1927                      .dwattr $C$DW$259, DW_AT_type(*$C$DW$T$110)
    1928                      .dwattr $C$DW$259, DW_AT_location[DW_OP_reg14]
    1929              ;* AR5   assigned to _obj
    1930              $C$DW$260       .dwtag  DW_TAG_variable, DW_AT_name("obj")
    1931                      .dwattr $C$DW$260, DW_AT_TI_symbol_name("_obj")
    1932                      .dwattr $C$DW$260, DW_AT_type(*$C$DW$T$263)
    1933                      .dwattr $C$DW$260, DW_AT_location[DW_OP_reg14]
    1934              ;* AL    assigned to _maxAccel_pu
    1935              $C$DW$261       .dwtag  DW_TAG_variable, DW_AT_name("maxAccel_pu")
    1936                      .dwattr $C$DW$261, DW_AT_TI_symbol_name("_maxAccel_pu")
    1937                      .dwattr $C$DW$261, DW_AT_type(*$C$DW$T$32)
    1938                      .dwattr $C$DW$261, DW_AT_location[DW_OP_reg0]
    1939              ;* AL    assigned to _state
    1940              $C$DW$262       .dwtag  DW_TAG_variable, DW_AT_name("state")
    1941                      .dwattr $C$DW$262, DW_AT_TI_symbol_name("_state")
    1942                      .dwattr $C$DW$262, DW_AT_type(*$C$DW$T$34)
    1943                      .dwattr $C$DW$262, DW_AT_location[DW_OP_reg0]
    1944              ;* AR5   assigned to _pwmHandle
    1945              $C$DW$263       .dwtag  DW_TAG_variable, DW_AT_name("pwmHandle")
    1946                      .dwattr $C$DW$263, DW_AT_TI_symbol_name("_pwmHandle")
    1947                      .dwattr $C$DW$263, DW_AT_type(*$C$DW$T$110)
    1948                      .dwattr $C$DW$263, DW_AT_location[DW_OP_reg14]
    1949              ;* AR5   assigned to _pwmHandle
    1950              $C$DW$264       .dwtag  DW_TAG_variable, DW_AT_name("pwmHandle")
    1951                      .dwattr $C$DW$264, DW_AT_TI_symbol_name("_pwmHandle")
    1952                      .dwattr $C$DW$264, DW_AT_type(*$C$DW$T$110)
    1953                      .dwattr $C$DW$264, DW_AT_location[DW_OP_reg14]
TMS320C2000 Assembler PC v6.2.5 Tue Sep 26 10:29:40 2017

Tools Copyright (c) 1996-2014 Texas Instruments Incorporated
C:\Users\wmj\AppData\Local\Temp\1168813                              PAGE   39

    1954              ;* AR4   assigned to _pwmHandle
    1955              $C$DW$265       .dwtag  DW_TAG_variable, DW_AT_name("pwmHandle")
    1956                      .dwattr $C$DW$265, DW_AT_TI_symbol_name("_pwmHandle")
    1957                      .dwattr $C$DW$265, DW_AT_type(*$C$DW$T$110)
    1958                      .dwattr $C$DW$265, DW_AT_location[DW_OP_reg12]
    1959              ;* AR4   assigned to _obj
    1960              $C$DW$266       .dwtag  DW_TAG_variable, DW_AT_name("obj")
    1961                      .dwattr $C$DW$266, DW_AT_TI_symbol_name("_obj")
    1962                      .dwattr $C$DW$266, DW_AT_type(*$C$DW$T$263)
    1963                      .dwattr $C$DW$266, DW_AT_location[DW_OP_reg12]
    1964              ;* PH    assigned to _ctrlState
    1965              $C$DW$267       .dwtag  DW_TAG_variable, DW_AT_name("ctrlState")
    1966                      .dwattr $C$DW$267, DW_AT_TI_symbol_name("_ctrlState")
    1967                      .dwattr $C$DW$267, DW_AT_type(*$C$DW$T$43)
    1968                      .dwattr $C$DW$267, DW_AT_location[DW_OP_reg3]
    1969              ;* AL    assigned to _flag_ctrlStateChanged
    1970              $C$DW$268       .dwtag  DW_TAG_variable, DW_AT_name("flag_ctrlStateChanged")
    1971                      .dwattr $C$DW$268, DW_AT_TI_symbol_name("_flag_ctrlStateChanged")
    1972                      .dwattr $C$DW$268, DW_AT_type(*$C$DW$T$34)
    1973                      .dwattr $C$DW$268, DW_AT_location[DW_OP_reg0]
    1974              ;* AR1   assigned to _obj
    1975              $C$DW$269       .dwtag  DW_TAG_variable, DW_AT_name("obj")
    1976                      .dwattr $C$DW$269, DW_AT_TI_symbol_name("_obj")
    1977                      .dwattr $C$DW$269, DW_AT_type(*$C$DW$T$246)
    1978                      .dwattr $C$DW$269, DW_AT_location[DW_OP_reg6]
    1979              ;* AR2   assigned to _bias
    1980              $C$DW$270       .dwtag  DW_TAG_variable, DW_AT_name("bias")
    1981                      .dwattr $C$DW$270, DW_AT_TI_symbol_name("_bias")
    1982                      .dwattr $C$DW$270, DW_AT_type(*$C$DW$T$32)
    1983                      .dwattr $C$DW$270, DW_AT_location[DW_OP_reg8]
    1984              ;* PL    assigned to _cnt
    1985              $C$DW$271       .dwtag  DW_TAG_variable, DW_AT_name("cnt")
    1986                      .dwattr $C$DW$271, DW_AT_TI_symbol_name("_cnt")
    1987                      .dwattr $C$DW$271, DW_AT_type(*$C$DW$T$36)
    1988                      .dwattr $C$DW$271, DW_AT_location[DW_OP_reg2]
    1989              ;* PL    assigned to _cnt
    1990              $C$DW$272       .dwtag  DW_TAG_variable, DW_AT_name("cnt")
    1991                      .dwattr $C$DW$272, DW_AT_TI_symbol_name("_cnt")
    1992                      .dwattr $C$DW$272, DW_AT_type(*$C$DW$T$36)
    1993                      .dwattr $C$DW$272, DW_AT_location[DW_OP_reg2]
    1994              ;* AR2   assigned to _bias
    1995              $C$DW$273       .dwtag  DW_TAG_variable, DW_AT_name("bias")
    1996                      .dwattr $C$DW$273, DW_AT_TI_symbol_name("_bias")
    1997                      .dwattr $C$DW$273, DW_AT_type(*$C$DW$T$32)
    1998                      .dwattr $C$DW$273, DW_AT_location[DW_OP_reg8]
    1999              ;* AR2   assigned to _bias
    2000              $C$DW$274       .dwtag  DW_TAG_variable, DW_AT_name("bias")
    2001                      .dwattr $C$DW$274, DW_AT_TI_symbol_name("_bias")
    2002                      .dwattr $C$DW$274, DW_AT_type(*$C$DW$T$32)
    2003                      .dwattr $C$DW$274, DW_AT_location[DW_OP_reg8]
    2004              ;* AL    assigned to _bias
    2005              $C$DW$275       .dwtag  DW_TAG_variable, DW_AT_name("bias")
    2006                      .dwattr $C$DW$275, DW_AT_TI_symbol_name("_bias")
    2007                      .dwattr $C$DW$275, DW_AT_type(*$C$DW$T$32)
    2008                      .dwattr $C$DW$275, DW_AT_location[DW_OP_reg0]
TMS320C2000 Assembler PC v6.2.5 Tue Sep 26 10:29:40 2017

Tools Copyright (c) 1996-2014 Texas Instruments Incorporated
C:\Users\wmj\AppData\Local\Temp\1168813                              PAGE   40

    2009              ;* AL    assigned to _bias
    2010              $C$DW$276       .dwtag  DW_TAG_variable, DW_AT_name("bias")
    2011                      .dwattr $C$DW$276, DW_AT_TI_symbol_name("_bias")
    2012                      .dwattr $C$DW$276, DW_AT_type(*$C$DW$T$32)
    2013                      .dwattr $C$DW$276, DW_AT_location[DW_OP_reg0]
    2014              ;* AL    assigned to _bias
    2015              $C$DW$277       .dwtag  DW_TAG_variable, DW_AT_name("bias")
    2016                      .dwattr $C$DW$277, DW_AT_TI_symbol_name("_bias")
    2017                      .dwattr $C$DW$277, DW_AT_type(*$C$DW$T$32)
    2018                      .dwattr $C$DW$277, DW_AT_location[DW_OP_reg0]
    2019              ;* AR4   assigned to $O$v1
    2020              ;* AR4   assigned to $O$v2
    2021              ;* AR1   assigned to $O$K32
    2022              ;* AR2   assigned to $O$K32
    2023              ;* AR7   assigned to $O$K32
    2024              ;* AR3   assigned to $O$K32
    2025              ;* AR2   assigned to $O$K32
    2026              ;* AR4   assigned to $O$v3
    2027              ;* AR4   assigned to $O$v3
    2028              ;* AR4   assigned to $O$v3
    2029              ;* AR2   assigned to $O$v3
    2030              ;* AR4   assigned to $O$v3
    2031              ;* AR1   assigned to $O$v3
    2032              $C$DW$278       .dwtag  DW_TAG_variable, DW_AT_name("version")
    2033                      .dwattr $C$DW$278, DW_AT_TI_symbol_name("_version")
    2034                      .dwattr $C$DW$278, DW_AT_type(*$C$DW$T$41)
    2035                      .dwattr $C$DW$278, DW_AT_location[DW_OP_breg20 -6]
    2036                      .dwcfi  cfa_offset, -2
    2037                      .dwcfi  save_reg_to_mem, 26, 0
    2038                      .dwcfi  save_reg_to_reg, 78, 26
    2039 00000095 B2BD          MOVL      *SP++,XAR1            ; [CPU_] 
    2040                      .dwcfi  save_reg_to_mem, 7, 2
    2041                      .dwcfi  cfa_offset, -4
    2042 00000096 AABD          MOVL      *SP++,XAR2            ; [CPU_] 
    2043                      .dwcfi  save_reg_to_mem, 9, 4
    2044                      .dwcfi  cfa_offset, -6
    2045 00000097 A2BD          MOVL      *SP++,XAR3            ; [CPU_] 
    2046                      .dwcfi  save_reg_to_mem, 11, 6
    2047                      .dwcfi  cfa_offset, -8
    2048 00000098 FE10          ADDB      SP,#16                ; [CPU_U] 
    2049                      .dwcfi  cfa_offset, -24
    2050                      .dwpsn  file "D:/BM1000/sw/solutions/instaspin_foc/src/proj_lab05b.c",line 160,column 3,is_stmt
    2051 00000099 8F00!         MOVL      XAR4,#_RamfuncsRunStart ; [CPU_U] |160| 
         0000009a 0000 
    2052 0000009b 8F40!         MOVL      XAR5,#_RamfuncsLoadEnd ; [CPU_U] |160| 
         0000009c 0000 
    2053 0000009d A842          MOVL      *-SP[2],XAR4          ; [CPU_] |160| 
    2054 0000009e 8F00!         MOVL      XAR4,#_RamfuncsLoadStart ; [CPU_U] |160| 
         0000009f 0000 
    2055              $C$DW$279       .dwtag  DW_TAG_TI_branch
    2056                      .dwattr $C$DW$279, DW_AT_low_pc(0x00)
    2057                      .dwattr $C$DW$279, DW_AT_name("_memCopy")
    2058                      .dwattr $C$DW$279, DW_AT_TI_call
    2059 000000a0 7640!         LCR       #_memCopy             ; [CPU_] |160| 
         000000a1 0000 
TMS320C2000 Assembler PC v6.2.5 Tue Sep 26 10:29:40 2017

Tools Copyright (c) 1996-2014 Texas Instruments Incorporated
C:\Users\wmj\AppData\Local\Temp\1168813                              PAGE   41

    2060                      ; call occurs [#_memCopy] ; [] |160| 
    2061                      .dwpsn  file "D:/BM1000/sw/solutions/instaspin_foc/src/proj_lab05b.c",line 178,column 3,is_stmt
    2062 000000a2 8F00!         MOVL      XAR4,#_hal            ; [CPU_U] |178| 
         000000a3 0000 
    2063 000000a4 02B6          MOVB      ACC,#182              ; [CPU_] |178| 
    2064              $C$DW$280       .dwtag  DW_TAG_TI_branch
    2065                      .dwattr $C$DW$280, DW_AT_low_pc(0x00)
    2066                      .dwattr $C$DW$280, DW_AT_name("_HAL_init")
    2067                      .dwattr $C$DW$280, DW_AT_TI_call
    2068 000000a5 7640!         LCR       #_HAL_init            ; [CPU_] |178| 
         000000a6 0000 
    2069                      ; call occurs [#_HAL_init] ; [] |178| 
    2070 000000a7 761F-         MOVW      DP,#_halHandle        ; [CPU_U] 
         000000a8 0000 
    2071                      .dwpsn  file "D:/BM1000/sw/solutions/instaspin_foc/src/proj_lab05b.c",line 180,column 3,is_stmt
    2072 000000a9 024C          MOVB      ACC,#76               ; [CPU_] |180| 
    2073                      .dwpsn  file "D:/BM1000/sw/solutions/instaspin_foc/src/proj_lab05b.c",line 178,column 3,is_stmt
    2074 000000aa A814-         MOVL      @_halHandle,XAR4      ; [CPU_] |178| 
    2075                      .dwpsn  file "D:/BM1000/sw/solutions/instaspin_foc/src/proj_lab05b.c",line 180,column 3,is_stmt
    2076 000000ab 8F00-         MOVL      XAR4,#_MyProcessCtrl  ; [CPU_U] |180| 
         000000ac 0080 
    2077              $C$DW$281       .dwtag  DW_TAG_TI_branch
    2078                      .dwattr $C$DW$281, DW_AT_low_pc(0x00)
    2079                      .dwattr $C$DW$281, DW_AT_name("_PROCTRL_init")
    2080                      .dwattr $C$DW$281, DW_AT_TI_call
    2081 000000ad 7640!         LCR       #_PROCTRL_init        ; [CPU_] |180| 
         000000ae 0000 
    2082                      ; call occurs [#_PROCTRL_init] ; [] |180| 
    2083 000000af 761F-         MOVW      DP,#_proctrlHandle    ; [CPU_U] 
         000000b0 0000 
    2084                      .dwpsn  file "D:/BM1000/sw/solutions/instaspin_foc/src/proj_lab05b.c",line 181,column 3,is_stmt
    2085 000000b1 8314-         MOVL      XAR5,@_halHandle      ; [CPU_] |181| 
    2086                      .dwpsn  file "D:/BM1000/sw/solutions/instaspin_foc/src/proj_lab05b.c",line 180,column 3,is_stmt
    2087 000000b2 A818-         MOVL      @_proctrlHandle,XAR4  ; [CPU_] |180| 
    2088                      .dwpsn  file "D:/BM1000/sw/solutions/instaspin_foc/src/proj_lab05b.c",line 181,column 3,is_stmt
    2089              $C$DW$282       .dwtag  DW_TAG_TI_branch
    2090                      .dwattr $C$DW$282, DW_AT_low_pc(0x00)
    2091                      .dwattr $C$DW$282, DW_AT_name("_PROCTRL_setHalHandle")
    2092                      .dwattr $C$DW$282, DW_AT_TI_call
    2093 000000b3 7640!         LCR       #_PROCTRL_setHalHandle ; [CPU_] |181| 
         000000b4 0000 
    2094                      ; call occurs [#_PROCTRL_setHalHandle] ; [] |181| 
    2095                      .dwpsn  file "D:/BM1000/sw/solutions/instaspin_foc/src/proj_lab05b.c",line 183,column 3,is_stmt
    2096 000000b5 8F00-         MOVL      XAR4,#_My_ModBus      ; [CPU_U] |183| 
         000000b6 0040 
    2097 000000b7 021C          MOVB      ACC,#28               ; [CPU_] |183| 
    2098              $C$DW$283       .dwtag  DW_TAG_TI_branch
    2099                      .dwattr $C$DW$283, DW_AT_low_pc(0x00)
    2100                      .dwattr $C$DW$283, DW_AT_name("_MB_init")
    2101                      .dwattr $C$DW$283, DW_AT_TI_call
    2102 000000b8 7640!         LCR       #_MB_init             ; [CPU_] |183| 
         000000b9 0000 
    2103                      ; call occurs [#_MB_init] ; [] |183| 
    2104 000000ba 761F-         MOVW      DP,#_MyMBhandle       ; [CPU_U] 
         000000bb 0000 
TMS320C2000 Assembler PC v6.2.5 Tue Sep 26 10:29:40 2017

Tools Copyright (c) 1996-2014 Texas Instruments Incorporated
C:\Users\wmj\AppData\Local\Temp\1168813                              PAGE   42

    2105                      .dwpsn  file "D:/BM1000/sw/solutions/instaspin_foc/src/proj_lab05b.c",line 184,column 3,is_stmt
    2106 000000bc 8314-         MOVL      XAR5,@_halHandle      ; [CPU_] |184| 
    2107 000000bd D096          MOVB      XAR0,#150             ; [CPU_] |184| 
    2108                      .dwpsn  file "D:/BM1000/sw/solutions/instaspin_foc/src/proj_lab05b.c",line 183,column 3,is_stmt
    2109 000000be A816-         MOVL      @_MyMBhandle,XAR4     ; [CPU_] |183| 
    2110                      .dwpsn  file "D:/BM1000/sw/solutions/instaspin_foc/src/proj_lab05b.c",line 184,column 3,is_stmt
    2111 000000bf 8395          MOVL      XAR5,*+XAR5[AR0]      ; [CPU_] |184| 
    2112              $C$DW$284       .dwtag  DW_TAG_TI_branch
    2113                      .dwattr $C$DW$284, DW_AT_low_pc(0x00)
    2114                      .dwattr $C$DW$284, DW_AT_name("_MB_setSciHandle")
    2115                      .dwattr $C$DW$284, DW_AT_TI_call
    2116 000000c0 7640!         LCR       #_MB_setSciHandle     ; [CPU_] |184| 
         000000c1 0000 
    2117                      ; call occurs [#_MB_setSciHandle] ; [] |184| 
    2118 000000c2 761F-         MOVW      DP,#_halHandle        ; [CPU_U] 
         000000c3 0000 
    2119                      .dwpsn  file "D:/BM1000/sw/solutions/instaspin_foc/src/proj_lab05b.c",line 185,column 3,is_stmt
    2120 000000c4 8A14-         MOVL      XAR4,@_halHandle      ; [CPU_] |185| 
    2121 000000c5 D08C          MOVB      XAR0,#140             ; [CPU_] |185| 
    2122 000000c6 8394          MOVL      XAR5,*+XAR4[AR0]      ; [CPU_] |185| 
    2123 000000c7 8A16-         MOVL      XAR4,@_MyMBhandle     ; [CPU_] |185| 
    2124              $C$DW$285       .dwtag  DW_TAG_TI_branch
    2125                      .dwattr $C$DW$285, DW_AT_low_pc(0x00)
    2126                      .dwattr $C$DW$285, DW_AT_name("_MB_setTimHandle")
    2127                      .dwattr $C$DW$285, DW_AT_TI_call
    2128 000000c8 7640!         LCR       #_MB_setTimHandle     ; [CPU_] |185| 
         000000c9 0000 
    2129                      ; call occurs [#_MB_setTimHandle] ; [] |185| 
    2130 000000ca 761F-         MOVW      DP,#_halHandle        ; [CPU_U] 
         000000cb 0000 
    2131                      .dwpsn  file "D:/BM1000/sw/solutions/instaspin_foc/src/proj_lab05b.c",line 186,column 3,is_stmt
    2132 000000cc 8A14-         MOVL      XAR4,@_halHandle      ; [CPU_] |186| 
    2133 000000cd D008          MOVB      XAR0,#8               ; [CPU_] |186| 
    2134 000000ce 8394          MOVL      XAR5,*+XAR4[AR0]      ; [CPU_] |186| 
    2135 000000cf 8A16-         MOVL      XAR4,@_MyMBhandle     ; [CPU_] |186| 
    2136              $C$DW$286       .dwtag  DW_TAG_TI_branch
    2137                      .dwattr $C$DW$286, DW_AT_low_pc(0x00)
    2138                      .dwattr $C$DW$286, DW_AT_name("_MB_setGpioHandle")
    2139                      .dwattr $C$DW$286, DW_AT_TI_call
    2140 000000d0 7640!         LCR       #_MB_setGpioHandle    ; [CPU_] |186| 
         000000d1 0000 
    2141                      ; call occurs [#_MB_setGpioHandle] ; [] |186| 
    2142                      .dwpsn  file "D:/BM1000/sw/solutions/instaspin_foc/src/proj_lab05b.c",line 190,column 3,is_stmt
    2143 000000d2 8D40-         MOVL      XAR1,#_gUserParams    ; [CPU_U] |190| 
         000000d3 0180 
    2144 000000d4 B250          MOVL      *-SP[16],XAR1         ; [CPU_] |190| 
    2145 000000d5 8AA1          MOVL      XAR4,XAR1             ; [CPU_] |190| 
    2146              $C$DW$287       .dwtag  DW_TAG_TI_branch
    2147                      .dwattr $C$DW$287, DW_AT_low_pc(0x00)
    2148                      .dwattr $C$DW$287, DW_AT_name("_USER_checkDefErrors")
    2149                      .dwattr $C$DW$287, DW_AT_TI_call
    2150 000000d6 7640!         LCR       #_USER_checkDefErrors ; [CPU_] |190| 
         000000d7 0000 
    2151                      ; call occurs [#_USER_checkDefErrors] ; [] |190| 
    2152                      .dwpsn  file "D:/BM1000/sw/solutions/instaspin_foc/src/proj_lab05b.c",line 193,column 3,is_stmt
TMS320C2000 Assembler PC v6.2.5 Tue Sep 26 10:29:40 2017

Tools Copyright (c) 1996-2014 Texas Instruments Incorporated
C:\Users\wmj\AppData\Local\Temp\1168813                              PAGE   43

    2153 000000d8 8AA1          MOVL      XAR4,XAR1             ; [CPU_] |193| 
    2154              $C$DW$288       .dwtag  DW_TAG_TI_branch
    2155                      .dwattr $C$DW$288, DW_AT_low_pc(0x00)
    2156                      .dwattr $C$DW$288, DW_AT_name("_USER_setParams")
    2157                      .dwattr $C$DW$288, DW_AT_TI_call
    2158 000000d9 7640!         LCR       #_USER_setParams      ; [CPU_] |193| 
         000000da 0000 
    2159                      ; call occurs [#_USER_setParams] ; [] |193| 
    2160 000000db 761F-         MOVW      DP,#_halHandle        ; [CPU_U] 
         000000dc 0000 
    2161                      .dwpsn  file "D:/BM1000/sw/solutions/instaspin_foc/src/proj_lab05b.c",line 196,column 3,is_stmt
    2162 000000dd 83A1          MOVL      XAR5,XAR1             ; [CPU_] |196| 
    2163 000000de 8A14-         MOVL      XAR4,@_halHandle      ; [CPU_] |196| 
    2164              $C$DW$289       .dwtag  DW_TAG_TI_branch
    2165                      .dwattr $C$DW$289, DW_AT_low_pc(0x00)
    2166                      .dwattr $C$DW$289, DW_AT_name("_HAL_setParams")
    2167                      .dwattr $C$DW$289, DW_AT_TI_call
    2168 000000df 7640!         LCR       #_HAL_setParams       ; [CPU_] |196| 
         000000e0 0000 
    2169                      ; call occurs [#_HAL_setParams] ; [] |196| 
    2170 000000e1 761F-         MOVW      DP,#_halHandle        ; [CPU_U] 
         000000e2 0000 
    2171                      .dwpsn  file "D:/BM1000/sw/solutions/instaspin_foc/src/proj_lab05b.c",line 199,column 3,is_stmt
    2172 000000e3 8A14-         MOVL      XAR4,@_halHandle      ; [CPU_] |199| 
    2173 000000e4 8B50          MOVL      XAR1,*-SP[16]         ; [CPU_] |199| 
    2174 000000e5 D0B4          MOVB      XAR0,#180             ; [CPU_] |199| 
    2175 000000e6 9294          MOV       AL,*+XAR4[AR0]        ; [CPU_] |199| 
    2176 000000e7 8AA1          MOVL      XAR4,XAR1             ; [CPU_] |199| 
    2177              $C$DW$290       .dwtag  DW_TAG_TI_branch
    2178                      .dwattr $C$DW$290, DW_AT_low_pc(0x00)
    2179                      .dwattr $C$DW$290, DW_AT_name("_USER_setMotorIDs")
    2180                      .dwattr $C$DW$290, DW_AT_TI_call
    2181 000000e8 7640!         LCR       #_USER_setMotorIDs    ; [CPU_] |199| 
         000000e9 0000 
    2182                      ; call occurs [#_USER_setMotorIDs] ; [] |199| 
    2183                      .dwpsn  file "D:/BM1000/sw/solutions/instaspin_foc/src/proj_lab05b.c",line 201,column 3,is_stmt
    2184 000000ea 8AA1          MOVL      XAR4,XAR1             ; [CPU_] |201| 
    2185              $C$DW$291       .dwtag  DW_TAG_TI_branch
    2186                      .dwattr $C$DW$291, DW_AT_low_pc(0x00)
    2187                      .dwattr $C$DW$291, DW_AT_name("_USER_setMotorParams")
    2188                      .dwattr $C$DW$291, DW_AT_TI_call
    2189 000000eb 7640!         LCR       #_USER_setMotorParams ; [CPU_] |201| 
         000000ec 0000 
    2190                      ; call occurs [#_USER_setMotorParams] ; [] |201| 
    2191                      .dwpsn  file "D:/BM1000/sw/solutions/instaspin_foc/src/proj_lab05b.c",line 203,column 3,is_stmt
    2192 000000ed 8AA1          MOVL      XAR4,XAR1             ; [CPU_] |203| 
    2193              $C$DW$292       .dwtag  DW_TAG_TI_branch
    2194                      .dwattr $C$DW$292, DW_AT_low_pc(0x00)
    2195                      .dwattr $C$DW$292, DW_AT_name("_USER_setWaitTimeParams")
    2196                      .dwattr $C$DW$292, DW_AT_TI_call
    2197 000000ee 7640!         LCR       #_USER_setWaitTimeParams ; [CPU_] |203| 
         000000ef 0000 
    2198                      ; call occurs [#_USER_setWaitTimeParams] ; [] |203| 
    2199                      .dwpsn  file "D:/BM1000/sw/solutions/instaspin_foc/src/proj_lab05b.c",line 206,column 3,is_stmt
    2200 000000f0 8AA1          MOVL      XAR4,XAR1             ; [CPU_] |206| 
TMS320C2000 Assembler PC v6.2.5 Tue Sep 26 10:29:40 2017

Tools Copyright (c) 1996-2014 Texas Instruments Incorporated
C:\Users\wmj\AppData\Local\Temp\1168813                              PAGE   44

    2201              $C$DW$293       .dwtag  DW_TAG_TI_branch
    2202                      .dwattr $C$DW$293, DW_AT_low_pc(0x00)
    2203                      .dwattr $C$DW$293, DW_AT_name("_USER_checkForErrors")
    2204                      .dwattr $C$DW$293, DW_AT_TI_call
    2205 000000f1 7640!         LCR       #_USER_checkForErrors ; [CPU_] |206| 
         000000f2 0000 
    2206                      ; call occurs [#_USER_checkForErrors] ; [] |206| 
    2207                      .dwpsn  file "D:/BM1000/sw/solutions/instaspin_foc/src/proj_lab05b.c",line 210,column 3,is_stmt
    2208 000000f3 8AA1          MOVL      XAR4,XAR1             ; [CPU_] |210| 
    2209              $C$DW$294       .dwtag  DW_TAG_TI_branch
    2210                      .dwattr $C$DW$294, DW_AT_low_pc(0x00)
    2211                      .dwattr $C$DW$294, DW_AT_name("_USER_getErrorCode")
    2212                      .dwattr $C$DW$294, DW_AT_TI_call
    2213 000000f4 7640!         LCR       #_USER_getErrorCode   ; [CPU_] |210| 
         000000f5 0000 
    2214                      ; call occurs [#_USER_getErrorCode] ; [] |210| 
    2215 000000f6 8D40-         MOVL      XAR1,#_gMotorVars     ; [CPU_U] |210| 
         000000f7 0100 
    2216 000000f8 D00F          MOVB      XAR0,#15              ; [CPU_] |210| 
    2217 000000f9 9691          MOV       *+XAR1[AR0],AL        ; [CPU_] |210| 
    2218                      .dwpsn  file "D:/BM1000/sw/solutions/instaspin_foc/src/proj_lab05b.c",line 214,column 3,is_stmt
    2219 000000fa D00F          MOVB      XAR0,#15              ; [CPU_] |214| 
    2220 000000fb 9291          MOV       AL,*+XAR1[AR0]        ; [CPU_] |214| 
    2221 000000fc 56C0          BF        $C$L24,NEQ            ; [CPU_] |214| 
         000000fd 0263 
    2222                      ; branchcc occurs ; [] |214| 
    2223 000000fe 761F-         MOVW      DP,#_proctrlHandle    ; [CPU_U] 
         000000ff 0000 
    2224                      .dwpsn  file "D:/BM1000/sw/solutions/instaspin_foc/src/proj_lab05b.c",line 223,column 3,is_stmt
    2225 00000100 8A18-         MOVL      XAR4,@_proctrlHandle  ; [CPU_] |223| 
    2226              $C$DW$295       .dwtag  DW_TAG_TI_branch
    2227                      .dwattr $C$DW$295, DW_AT_low_pc(0x00)
    2228                      .dwattr $C$DW$295, DW_AT_name("_PROCTRL_setParams")
    2229                      .dwattr $C$DW$295, DW_AT_TI_call
    2230 00000101 7640!         LCR       #_PROCTRL_setParams   ; [CPU_] |223| 
         00000102 0000 
    2231                      ; call occurs [#_PROCTRL_setParams] ; [] |223| 
    2232                      .dwpsn  file "D:/BM1000/sw/solutions/instaspin_foc/src/proj_lab05b.c",line 231,column 3,is_stmt
    2233 00000103 D500          MOVB      XAR5,#0               ; [CPU_] |231| 
    2234 00000104 8F00-         MOVL      XAR4,#_ctrl           ; [CPU_U] |231| 
         00000105 0240 
    2235 00000106 FF20          MOV       ACC,#274              ; [CPU_] |231| 
         00000107 0112 
    2236              $C$DW$296       .dwtag  DW_TAG_TI_branch
    2237                      .dwattr $C$DW$296, DW_AT_low_pc(0x00)
    2238                      .dwattr $C$DW$296, DW_AT_name("_CTRL_initCtrl")
    2239                      .dwattr $C$DW$296, DW_AT_TI_call
    2240 00000108 7640!         LCR       #_CTRL_initCtrl       ; [CPU_] |231| 
         00000109 0000 
    2241                      ; call occurs [#_CTRL_initCtrl] ; [] |231| 
    2242 0000010a 761F-         MOVW      DP,#_ctrlHandle       ; [CPU_U] 
         0000010b 0000 
    2243                      .dwpsn  file "D:/BM1000/sw/solutions/instaspin_foc/src/proj_lab05b.c",line 239,column 5,is_stmt
    2244 0000010c 5DAD          MOVZ      AR5,SP                ; [CPU_U] |239| 
    2245 0000010d DD86          SUBB      XAR5,#6               ; [CPU_U] |239| 
TMS320C2000 Assembler PC v6.2.5 Tue Sep 26 10:29:40 2017

Tools Copyright (c) 1996-2014 Texas Instruments Incorporated
C:\Users\wmj\AppData\Local\Temp\1168813                              PAGE   45

    2246                      .dwpsn  file "D:/BM1000/sw/solutions/instaspin_foc/src/proj_lab05b.c",line 231,column 3,is_stmt
    2247 0000010e A812-         MOVL      @_ctrlHandle,XAR4     ; [CPU_] |231| 
    2248                      .dwpsn  file "D:/BM1000/sw/solutions/instaspin_foc/src/proj_lab05b.c",line 239,column 5,is_stmt
    2249              $C$DW$297       .dwtag  DW_TAG_TI_branch
    2250                      .dwattr $C$DW$297, DW_AT_low_pc(0x00)
    2251                      .dwattr $C$DW$297, DW_AT_name("_CTRL_getVersion")
    2252                      .dwattr $C$DW$297, DW_AT_TI_call
    2253 0000010f 7640!         LCR       #_CTRL_getVersion     ; [CPU_] |239| 
         00000110 0000 
    2254                      ; call occurs [#_CTRL_getVersion] ; [] |239| 
    2255                      .dwpsn  file "D:/BM1000/sw/solutions/instaspin_foc/src/proj_lab05b.c",line 241,column 5,is_stmt
    2256 00000111 D910          ADDB      XAR1,#16              ; [CPU_] |241| 
    2257 00000112 C444          MOVL      XAR6,*-SP[4]          ; [CPU_] |241| 
    2258 00000113 761F-         MOVW      DP,#_halHandle        ; [CPU_U] 
         00000114 0000 
    2259 00000115 0646          MOVL      ACC,*-SP[6]           ; [CPU_] |241| 
    2260 00000116 1EC1          MOVL      *+XAR1[0],ACC         ; [CPU_] |241| 
    2261 00000117 C2D1          MOVL      *+XAR1[2],XAR6        ; [CPU_] |241| 
    2262                      .dwpsn  file "D:/BM1000/sw/solutions/instaspin_foc/src/proj_lab05b.c",line 246,column 3,is_stmt
    2263 00000118 8A14-         MOVL      XAR4,@_halHandle      ; [CPU_] |246| 
    2264              $C$DW$298       .dwtag  DW_TAG_TI_branch
    2265                      .dwattr $C$DW$298, DW_AT_low_pc(0x00)
    2266                      .dwattr $C$DW$298, DW_AT_name("_HAL_setupFaults")
    2267                      .dwattr $C$DW$298, DW_AT_TI_call
    2268 00000119 7640!         LCR       #_HAL_setupFaults     ; [CPU_] |246| 
         0000011a 0000 
    2269                      ; call occurs [#_HAL_setupFaults] ; [] |246| 
    2270 0000011b 761F-         MOVW      DP,#_halHandle        ; [CPU_U] 
         0000011c 0000 
    2271                      .dwpsn  file "D:/BM1000/sw/modules/hal/boards/hvkit_rev1p1/f28x/f2802x/src/hal.h",line 497,column 16,
    2272 0000011d 8A14-         MOVL      XAR4,@_halHandle      ; [CPU_] |497| 
    2273 0000011e D078          MOVB      XAR0,#120             ; [CPU_] |497| 
    2274 0000011f 8394          MOVL      XAR5,*+XAR4[AR0]      ; [CPU_] |497| 
    2275 00000120 7622   EALLOW
    2276                      .dwpsn  file "D:/BM1000/sw/modules/hal/boards/hvkit_rev1p1/f28x/f2802x/src/hal.h",line 503,column 3,i
    2277 00000121 D060          MOVB      XAR0,#96              ; [CPU_] |503| 
    2278 00000122 7680+         MOVL      XAR6,#_mainISR        ; [CPU_U] |503| 
         00000123 0000 
    2279 00000124 C295          MOVL      *+XAR5[AR0],XAR6      ; [CPU_] |503| 
    2280                      .dwpsn  file "D:/BM1000/sw/modules/hal/boards/hvkit_rev1p1/f28x/f2802x/src/hal.h",line 504,column 3,i
    2281 00000125 D0E0          MOVB      XAR0,#224             ; [CPU_] |504| 
    2282 00000126 7680+         MOVL      XAR6,#_UART_RxISR     ; [CPU_U] |504| 
         00000127 0025 
    2283 00000128 C295          MOVL      *+XAR5[AR0],XAR6      ; [CPU_] |504| 
    2284                      .dwpsn  file "D:/BM1000/sw/modules/hal/boards/hvkit_rev1p1/f28x/f2802x/src/hal.h",line 505,column 3,i
    2285 00000129 D0E2          MOVB      XAR0,#226             ; [CPU_] |505| 
    2286 0000012a 7680+         MOVL      XAR6,#_UART_TxReadyISR ; [CPU_U] |505| 
         0000012b 0000 
    2287 0000012c C295          MOVL      *+XAR5[AR0],XAR6      ; [CPU_] |505| 
    2288 0000012d 761A   EDIS
    2289 0000012e FF69          SPM       #0                    ; [CPU_] 
    2290                      .dwpsn  file "D:/BM1000/sw/solutions/instaspin_foc/src/proj_lab05b.c",line 252,column 3,is_stmt
    2291              $C$DW$299       .dwtag  DW_TAG_TI_branch
    2292                      .dwattr $C$DW$299, DW_AT_low_pc(0x00)
    2293                      .dwattr $C$DW$299, DW_AT_name("_HAL_enableSciaInt")
TMS320C2000 Assembler PC v6.2.5 Tue Sep 26 10:29:40 2017

Tools Copyright (c) 1996-2014 Texas Instruments Incorporated
C:\Users\wmj\AppData\Local\Temp\1168813                              PAGE   46

    2294                      .dwattr $C$DW$299, DW_AT_TI_call
    2295 0000012f 7640!         LCR       #_HAL_enableSciaInt   ; [CPU_] |252| 
         00000130 0000 
    2296                      ; call occurs [#_HAL_enableSciaInt] ; [] |252| 
    2297 00000131 761F-         MOVW      DP,#_halHandle        ; [CPU_U] 
         00000132 0000 
    2298                      .dwpsn  file "D:/BM1000/sw/solutions/instaspin_foc/src/proj_lab05b.c",line 254,column 3,is_stmt
    2299 00000133 8F40+         MOVL      XAR5,#_Timer1ISR      ; [CPU_U] |254| 
         00000134 0051 
    2300 00000135 8A14-         MOVL      XAR4,@_halHandle      ; [CPU_] |254| 
    2301              $C$DW$300       .dwtag  DW_TAG_TI_branch
    2302                      .dwattr $C$DW$300, DW_AT_low_pc(0x00)
    2303                      .dwattr $C$DW$300, DW_AT_name("_HAL_enableTimer1Int")
    2304                      .dwattr $C$DW$300, DW_AT_TI_call
    2305 00000136 7640!         LCR       #_HAL_enableTimer1Int ; [CPU_] |254| 
         00000137 0000 
    2306                      ; call occurs [#_HAL_enableTimer1Int] ; [] |254| 
    2307 00000138 761F-         MOVW      DP,#_halHandle        ; [CPU_U] 
         00000139 0000 
    2308                      .dwpsn  file "D:/BM1000/sw/solutions/instaspin_foc/src/proj_lab05b.c",line 257,column 3,is_stmt
    2309 0000013a 8A14-         MOVL      XAR4,@_halHandle      ; [CPU_] |257| 
    2310              $C$DW$301       .dwtag  DW_TAG_TI_branch
    2311                      .dwattr $C$DW$301, DW_AT_low_pc(0x00)
    2312                      .dwattr $C$DW$301, DW_AT_name("_HAL_enableAdcInts")
    2313                      .dwattr $C$DW$301, DW_AT_TI_call
    2314 0000013b 7640!         LCR       #_HAL_enableAdcInts   ; [CPU_] |257| 
         0000013c 0000 
    2315                      ; call occurs [#_HAL_enableAdcInts] ; [] |257| 
    2316 0000013d 761F-         MOVW      DP,#_halHandle        ; [CPU_U] 
         0000013e 0000 
    2317                      .dwpsn  file "D:/BM1000/sw/solutions/instaspin_foc/src/proj_lab05b.c",line 261,column 3,is_stmt
    2318 0000013f 8A14-         MOVL      XAR4,@_halHandle      ; [CPU_] |261| 
    2319              $C$DW$302       .dwtag  DW_TAG_TI_branch
    2320                      .dwattr $C$DW$302, DW_AT_low_pc(0x00)
    2321                      .dwattr $C$DW$302, DW_AT_name("_HAL_enableGlobalInts")
    2322                      .dwattr $C$DW$302, DW_AT_TI_call
    2323 00000140 7640!         LCR       #_HAL_enableGlobalInts ; [CPU_] |261| 
         00000141 0000 
    2324                      ; call occurs [#_HAL_enableGlobalInts] ; [] |261| 
    2325 00000142 761F-         MOVW      DP,#_halHandle        ; [CPU_U] 
         00000143 0000 
    2326                      .dwpsn  file "D:/BM1000/sw/solutions/instaspin_foc/src/proj_lab05b.c",line 265,column 3,is_stmt
    2327 00000144 8A14-         MOVL      XAR4,@_halHandle      ; [CPU_] |265| 
    2328              $C$DW$303       .dwtag  DW_TAG_TI_branch
    2329                      .dwattr $C$DW$303, DW_AT_low_pc(0x00)
    2330                      .dwattr $C$DW$303, DW_AT_name("_HAL_enableDebugInt")
    2331                      .dwattr $C$DW$303, DW_AT_TI_call
    2332 00000145 7640!         LCR       #_HAL_enableDebugInt  ; [CPU_] |265| 
         00000146 0000 
    2333                      ; call occurs [#_HAL_enableDebugInt] ; [] |265| 
    2334 00000147 761F-         MOVW      DP,#_halHandle        ; [CPU_U] 
         00000148 0000 
    2335                      .dwpsn  file "D:/BM1000/sw/modules/hal/boards/hvkit_rev1p1/f28x/f2802x/src/hal.h",line 271,column 16,
    2336 00000149 8A14-         MOVL      XAR4,@_halHandle      ; [CPU_] |271| 
    2337                      .dwpsn  file "D:/BM1000/sw/modules/hal/boards/hvkit_rev1p1/f28x/f2802x/src/hal.h",line 273,column 3,i
TMS320C2000 Assembler PC v6.2.5 Tue Sep 26 10:29:40 2017

Tools Copyright (c) 1996-2014 Texas Instruments Incorporated
C:\Users\wmj\AppData\Local\Temp\1168813                              PAGE   47

    2338 0000014a DC7C          ADDB      XAR4,#124             ; [CPU_] |273| 
    2339 0000014b 83C4          MOVL      XAR5,*+XAR4[0]        ; [CPU_] |273| 
    2340 0000014c 7622   EALLOW
    2341                      .dwpsn  file "D:/BM1000/sw/drivers/pwm/src/32b/f28x/f2802x/pwm.h",line 1567,column 5,is_stmt
    2342 0000014d DD18          ADDB      XAR5,#24              ; [CPU_] |1567| 
    2343 0000014e 1AC5          OR        *+XAR5[0],#0x0004     ; [CPU_] |1567| 
         0000014f 0004 
    2344 00000150 761A   EDIS
    2345                      .dwpsn  file "D:/BM1000/sw/modules/hal/boards/hvkit_rev1p1/f28x/f2802x/src/hal.h",line 274,column 3,i
    2346 00000151 83D4          MOVL      XAR5,*+XAR4[2]        ; [CPU_] |274| 
    2347 00000152 7622   EALLOW
    2348                      .dwpsn  file "D:/BM1000/sw/drivers/pwm/src/32b/f28x/f2802x/pwm.h",line 1567,column 5,is_stmt
    2349 00000153 DD18          ADDB      XAR5,#24              ; [CPU_] |1567| 
    2350 00000154 1AC5          OR        *+XAR5[0],#0x0004     ; [CPU_] |1567| 
         00000155 0004 
    2351 00000156 761A   EDIS
    2352                      .dwpsn  file "D:/BM1000/sw/modules/hal/boards/hvkit_rev1p1/f28x/f2802x/src/hal.h",line 275,column 3,i
    2353 00000157 8AE4          MOVL      XAR4,*+XAR4[4]        ; [CPU_] |275| 
    2354 00000158 7622   EALLOW
    2355                      .dwpsn  file "D:/BM1000/sw/drivers/pwm/src/32b/f28x/f2802x/pwm.h",line 1567,column 5,is_stmt
    2356 00000159 DC18          ADDB      XAR4,#24              ; [CPU_] |1567| 
    2357 0000015a 1AC4          OR        *+XAR4[0],#0x0004     ; [CPU_] |1567| 
         0000015b 0004 
    2358 0000015c 761A   EDIS
    2359                      .dwpsn  file "D:/BM1000/sw/modules/ctrl/src/32b/ctrl.h",line 1246,column 3,is_stmt
    2360 0000015d 8A12-         MOVL      XAR4,@_ctrlHandle     ; [CPU_] |1246| 
    2361 0000015e D0F1          MOVB      XAR0,#241             ; [CPU_] |1246| 
    2362 0000015f 56BF          MOVB      *+XAR4[AR0],#1,UNC    ; [CPU_] |1246| 
         00000160 0194 
    2363 00000161 8B50          MOVL      XAR1,*-SP[16]         ; [CPU_] |1246| 
    2364 00000162 FF69          SPM       #0                    ; [CPU_] 
    2365                      .dwpsn  file "D:/BM1000/sw/solutions/instaspin_foc/src/proj_lab05b.c",line 292,column 3,is_stmt
    2366 00000163 8AA1          MOVL      XAR4,XAR1             ; [CPU_] |292| 
    2367              $C$DW$304       .dwtag  DW_TAG_TI_branch
    2368                      .dwattr $C$DW$304, DW_AT_low_pc(0x00)
    2369                      .dwattr $C$DW$304, DW_AT_name("_USER_computeFlux_pu_to_Wb_sf")
    2370                      .dwattr $C$DW$304, DW_AT_TI_call
    2371 00000164 7640!         LCR       #_USER_computeFlux_pu_to_Wb_sf ; [CPU_] |292| 
         00000165 0000 
    2372                      ; call occurs [#_USER_computeFlux_pu_to_Wb_sf] ; [] |292| 
    2373 00000166 761F-         MOVW      DP,#_gFlux_pu_to_Wb_sf ; [CPU_U] 
         00000167 0000 
    2374 00000168 1E08-         MOVL      @_gFlux_pu_to_Wb_sf,ACC ; [CPU_] |292| 
    2375 00000169 8AA1          MOVL      XAR4,XAR1             ; [CPU_] |292| 
    2376                      .dwpsn  file "D:/BM1000/sw/solutions/instaspin_foc/src/proj_lab05b.c",line 293,column 3,is_stmt
    2377              $C$DW$305       .dwtag  DW_TAG_TI_branch
    2378                      .dwattr $C$DW$305, DW_AT_low_pc(0x00)
    2379                      .dwattr $C$DW$305, DW_AT_name("_USER_computeFlux_pu_to_VpHz_sf")
    2380                      .dwattr $C$DW$305, DW_AT_TI_call
    2381 0000016a 7640!         LCR       #_USER_computeFlux_pu_to_VpHz_sf ; [CPU_] |293| 
         0000016b 0000 
    2382                      ; call occurs [#_USER_computeFlux_pu_to_VpHz_sf] ; [] |293| 
    2383 0000016c 8B50          MOVL      XAR1,*-SP[16]         ; [CPU_] |293| 
    2384 0000016d 761F-         MOVW      DP,#_gFlux_pu_to_VpHz_sf ; [CPU_U] 
         0000016e 0000 
TMS320C2000 Assembler PC v6.2.5 Tue Sep 26 10:29:40 2017

Tools Copyright (c) 1996-2014 Texas Instruments Incorporated
C:\Users\wmj\AppData\Local\Temp\1168813                              PAGE   48

    2385 0000016f 1E0A-         MOVL      @_gFlux_pu_to_VpHz_sf,ACC ; [CPU_] |293| 
    2386                      .dwpsn  file "D:/BM1000/sw/solutions/instaspin_foc/src/proj_lab05b.c",line 294,column 3,is_stmt
    2387 00000170 8AA1          MOVL      XAR4,XAR1             ; [CPU_] |294| 
    2388              $C$DW$306       .dwtag  DW_TAG_TI_branch
    2389                      .dwattr $C$DW$306, DW_AT_low_pc(0x00)
    2390                      .dwattr $C$DW$306, DW_AT_name("_USER_computeTorque_Ls_Id_Iq_pu_to_Nm_sf")
    2391                      .dwattr $C$DW$306, DW_AT_TI_call
    2392 00000171 7640!         LCR       #_USER_computeTorque_Ls_Id_Iq_pu_to_Nm_sf ; [CPU_] |294| 
         00000172 0000 
    2393                      ; call occurs [#_USER_computeTorque_Ls_Id_Iq_pu_to_Nm_sf] ; [] |294| 
    2394 00000173 761F-         MOVW      DP,#_gTorque_Ls_Id_Iq_pu_to_Nm_sf ; [CPU_U] 
         00000174 0000 
    2395 00000175 1E06-         MOVL      @_gTorque_Ls_Id_Iq_pu_to_Nm_sf,ACC ; [CPU_] |294| 
    2396                      .dwpsn  file "D:/BM1000/sw/solutions/instaspin_foc/src/proj_lab05b.c",line 295,column 3,is_stmt
    2397 00000176 8AA1          MOVL      XAR4,XAR1             ; [CPU_] |295| 
    2398              $C$DW$307       .dwtag  DW_TAG_TI_branch
    2399                      .dwattr $C$DW$307, DW_AT_low_pc(0x00)
    2400                      .dwattr $C$DW$307, DW_AT_name("_USER_computeTorque_Flux_Iq_pu_to_Nm_sf")
    2401                      .dwattr $C$DW$307, DW_AT_TI_call
    2402 00000177 7640!         LCR       #_USER_computeTorque_Flux_Iq_pu_to_Nm_sf ; [CPU_] |295| 
         00000178 0000 
    2403                      ; call occurs [#_USER_computeTorque_Flux_Iq_pu_to_Nm_sf] ; [] |295| 
    2404 00000179 761F-         MOVW      DP,#_gTorque_Flux_Iq_pu_to_Nm_sf ; [CPU_U] 
         0000017a 0000 
    2405                      .dwpsn  file "D:/BM1000/sw/solutions/instaspin_foc/src/proj_lab05b.c",line 302,column 3,is_stmt
    2406 0000017b 8A12-         MOVL      XAR4,@_ctrlHandle     ; [CPU_] |302| 
    2407                      .dwpsn  file "D:/BM1000/sw/solutions/instaspin_foc/src/proj_lab05b.c",line 295,column 3,is_stmt
    2408 0000017c 1E04-         MOVL      @_gTorque_Flux_Iq_pu_to_Nm_sf,ACC ; [CPU_] |295| 
    2409                      .dwpsn  file "D:/BM1000/sw/solutions/instaspin_foc/src/proj_lab05b.c",line 302,column 3,is_stmt
    2410 0000017d 83A1          MOVL      XAR5,XAR1             ; [CPU_] |302| 
    2411              $C$DW$308       .dwtag  DW_TAG_TI_branch
    2412                      .dwattr $C$DW$308, DW_AT_low_pc(0x00)
    2413                      .dwattr $C$DW$308, DW_AT_name("_CTRL_setParams")
    2414                      .dwattr $C$DW$308, DW_AT_TI_call
    2415 0000017e 7640!         LCR       #_CTRL_setParams      ; [CPU_] |302| 
         0000017f 0000 
    2416                      ; call occurs [#_CTRL_setParams] ; [] |302| 
    2417                      .dwpsn  file "D:/BM1000/sw/solutions/instaspin_foc/src/proj_lab05b.c",line 422,column 13,is_stmt
    2418 00000180 8DC0-         MOVL      XAR3,#_gMotorVars     ; [CPU_U] |422| 
         00000181 0100 
    2419                      .dwpsn  file "D:/BM1000/sw/solutions/instaspin_foc/src/proj_lab05b.c",line 307,column 5,is_stmt
    2420 00000182 6F06          B         $C$L5,UNC             ; [CPU_] |307| 
    2421                      ; branch occurs ; [] |307| 
    2422 00000183       $C$L4:    
    2423 00000183 761F-         MOVW      DP,#_MyMBhandle       ; [CPU_U] 
         00000184 0000 
    2424                      .dwpsn  file "D:/BM1000/sw/solutions/instaspin_foc/src/proj_lab05b.c",line 309,column 11,is_stmt
    2425 00000185 8A16-         MOVL      XAR4,@_MyMBhandle     ; [CPU_] |309| 
    2426              $C$DW$309       .dwtag  DW_TAG_TI_branch
    2427                      .dwattr $C$DW$309, DW_AT_low_pc(0x00)
    2428                      .dwattr $C$DW$309, DW_AT_name("_MB_Poll")
    2429                      .dwattr $C$DW$309, DW_AT_TI_call
    2430 00000186 7640!         LCR       #_MB_Poll             ; [CPU_] |309| 
         00000187 0000 
    2431                      ; call occurs [#_MB_Poll] ; [] |309| 
TMS320C2000 Assembler PC v6.2.5 Tue Sep 26 10:29:40 2017

Tools Copyright (c) 1996-2014 Texas Instruments Incorporated
C:\Users\wmj\AppData\Local\Temp\1168813                              PAGE   49

    2432 00000188       $C$L5:    
    2433 00000188 761F-         MOVW      DP,#_gMotorVars       ; [CPU_U] 
         00000189 0004 
    2434                      .dwpsn  file "D:/BM1000/sw/solutions/instaspin_foc/src/proj_lab05b.c",line 307,column 11,is_stmt
    2435 0000018a 9200-         MOV       AL,@_gMotorVars       ; [CPU_] |307| 
    2436 0000018b ECF8          BF        $C$L4,EQ              ; [CPU_] |307| 
    2437                      ; branchcc occurs ; [] |307| 
    2438 0000018c 761F-         MOVW      DP,#_ctrlHandle       ; [CPU_U] 
         0000018d 0000 
    2439                      .dwpsn  file "D:/BM1000/sw/solutions/instaspin_foc/src/proj_lab05b.c",line 313,column 5,is_stmt
    2440 0000018e 8B12-         MOVL      XAR1,@_ctrlHandle     ; [CPU_] |313| 
    2441                      .dwpsn  file "D:/BM1000/sw/modules/ctrl/src/32b/ctrl.h",line 1288,column 3,is_stmt
    2442 0000018f D0F4          MOVB      XAR0,#244             ; [CPU_] |1288| 
    2443 00000190 56BF          MOVB      *+XAR1[AR0],#1,UNC    ; [CPU_] |1288| 
         00000191 0191 
    2444                      .dwpsn  file "D:/BM1000/sw/solutions/instaspin_foc/src/proj_lab05b.c",line 316,column 5,is_stmt
    2445 00000192 FFEF          B         $C$L23,UNC            ; [CPU_] |316| 
         00000193 01AA 
    2446                      ; branch occurs ; [] |316| 
    2447 00000194       $C$L6:    
    2448                      .dwpsn  file "D:/BM1000/sw/solutions/instaspin_foc/src/proj_lab05b.c",line 323,column 9,is_stmt
    2449 00000194 8A16-         MOVL      XAR4,@_MyMBhandle     ; [CPU_] |323| 
    2450              $C$DW$310       .dwtag  DW_TAG_TI_branch
    2451                      .dwattr $C$DW$310, DW_AT_low_pc(0x00)
    2452                      .dwattr $C$DW$310, DW_AT_name("_MB_Poll")
    2453                      .dwattr $C$DW$310, DW_AT_TI_call
    2454 00000195 7640!         LCR       #_MB_Poll             ; [CPU_] |323| 
         00000196 0000 
    2455                      ; call occurs [#_MB_Poll] ; [] |323| 
    2456 00000197 761F-         MOVW      DP,#_gCounter_updateGlobals ; [CPU_U] 
         00000198 0000 
    2457                      .dwpsn  file "D:/BM1000/sw/modules/ctrl/src/32b/ctrl.h",line 1304,column 3,is_stmt
    2458 00000199 8A12-         MOVL      XAR4,@_ctrlHandle     ; [CPU_] |1304| 
    2459                      .dwpsn  file "D:/BM1000/sw/solutions/instaspin_foc/src/proj_lab05b.c",line 326,column 9,is_stmt
    2460 0000019a 0A01-         INC       @_gCounter_updateGlobals ; [CPU_] |326| 
    2461                      .dwpsn  file "D:/BM1000/sw/modules/ctrl/src/32b/ctrl.h",line 1304,column 3,is_stmt
    2462 0000019b D0F5          MOVB      XAR0,#245             ; [CPU_] |1304| 
    2463                      .dwpsn  file "D:/BM1000/sw/solutions/instaspin_foc/src/proj_lab05b.c",line 329,column 9,is_stmt
    2464 0000019c 92F2          MOV       AL,*+XAR2[6]          ; [CPU_] |329| 
    2465                      .dwpsn  file "D:/BM1000/sw/modules/ctrl/src/32b/ctrl.h",line 1304,column 3,is_stmt
    2466 0000019d 9694          MOV       *+XAR4[AR0],AL        ; [CPU_] |1304| 
    2467                      .dwpsn  file "D:/BM1000/sw/solutions/instaspin_foc/src/proj_lab05b.c",line 332,column 9,is_stmt
    2468 0000019e D018          MOVB      XAR0,#24              ; [CPU_] |332| 
    2469 0000019f 92EA          MOV       AL,*+XAR2[5]          ; [CPU_] |332| 
    2470 000001a0 8A91          MOVL      XAR4,*+XAR1[AR0]      ; [CPU_] |332| 
    2471              $C$DW$311       .dwtag  DW_TAG_TI_branch
    2472                      .dwattr $C$DW$311, DW_AT_low_pc(0x00)
    2473                      .dwattr $C$DW$311, DW_AT_name("_EST_setFlag_enableRsRecalc")
    2474                      .dwattr $C$DW$311, DW_AT_TI_call
    2475 000001a1 7640!         LCR       #_EST_setFlag_enableRsRecalc ; [CPU_] |332| 
         000001a2 0000 
    2476                      ; call occurs [#_EST_setFlag_enableRsRecalc] ; [] |332| 
    2477 000001a3 761F-         MOVW      DP,#_ctrlHandle       ; [CPU_U] 
         000001a4 0000 
    2478                      .dwpsn  file "D:/BM1000/sw/solutions/instaspin_foc/src/proj_lab05b.c",line 335,column 9,is_stmt
TMS320C2000 Assembler PC v6.2.5 Tue Sep 26 10:29:40 2017

Tools Copyright (c) 1996-2014 Texas Instruments Incorporated
C:\Users\wmj\AppData\Local\Temp\1168813                              PAGE   50

    2479 000001a5 8A12-         MOVL      XAR4,@_ctrlHandle     ; [CPU_] |335| 
    2480                      .dwpsn  file "D:/BM1000/sw/modules/ctrl/src/32b/ctrl.h",line 1275,column 3,is_stmt
    2481 000001a6 D0F3          MOVB      XAR0,#243             ; [CPU_] |1275| 
    2482                      .dwpsn  file "D:/BM1000/sw/solutions/instaspin_foc/src/proj_lab05b.c",line 335,column 9,is_stmt
    2483 000001a7 92FA          MOV       AL,*+XAR2[7]          ; [CPU_] |335| 
    2484                      .dwpsn  file "D:/BM1000/sw/modules/ctrl/src/32b/ctrl.h",line 1275,column 3,is_stmt
    2485 000001a8 9694          MOV       *+XAR4[AR0],AL        ; [CPU_] |1275| 
    2486                      .dwpsn  file "D:/BM1000/sw/modules/ctrl/src/32b/ctrl.h",line 1060,column 3,is_stmt
    2487 000001a9 92E4          MOV       AL,*+XAR4[4]          ; [CPU_] |1060| 
    2488 000001aa 56C1          BF        $C$L17,EQ             ; [CPU_] |1060| 
         000001ab 00C7 
    2489                      ; branchcc occurs ; [] |1060| 
    2490                      .dwpsn  file "D:/BM1000/sw/solutions/instaspin_foc/src/proj_lab05b.c",line 352,column 40,is_stmt
    2491              $C$DW$312       .dwtag  DW_TAG_TI_branch
    2492                      .dwattr $C$DW$312, DW_AT_low_pc(0x00)
    2493                      .dwattr $C$DW$312, DW_AT_name("_CTRL_updateState")
    2494                      .dwattr $C$DW$312, DW_AT_TI_call
    2495 000001ac 7640!         LCR       #_CTRL_updateState    ; [CPU_] |352| 
         000001ad 0000 
    2496                      ; call occurs [#_CTRL_updateState] ; [] |352| 
    2497 000001ae 761F-         MOVW      DP,#_ctrlHandle       ; [CPU_U] 
         000001af 0000 
    2498                      .dwpsn  file "D:/BM1000/sw/solutions/instaspin_foc/src/proj_lab05b.c",line 355,column 13,is_stmt
    2499 000001b0 8A12-         MOVL      XAR4,@_ctrlHandle     ; [CPU_] |355| 
    2500 000001b1 93CA          MOV       AH,*+XAR2[1]          ; [CPU_] |355| 
    2501                      .dwpsn  file "D:/BM1000/sw/modules/ctrl/src/32b/ctrl.h",line 1218,column 3,is_stmt
    2502 000001b2 D0F0          MOVB      XAR0,#240             ; [CPU_] |1218| 
    2503                      .dwpsn  file "D:/BM1000/sw/solutions/instaspin_foc/src/proj_lab05b.c",line 357,column 13,is_stmt
    2504 000001b3 5200          CMPB      AL,#0                 ; [CPU_] |357| 
    2505                      .dwpsn  file "D:/BM1000/sw/modules/ctrl/src/32b/ctrl.h",line 1218,column 3,is_stmt
    2506 000001b4 9794          MOV       *+XAR4[AR0],AH        ; [CPU_] |1218| 
    2507                      .dwpsn  file "D:/BM1000/sw/solutions/instaspin_foc/src/proj_lab05b.c",line 357,column 13,is_stmt
    2508 000001b5 56C1          BF        $C$L18,EQ             ; [CPU_] |357| 
         000001b6 00D7 
    2509                      ; branchcc occurs ; [] |357| 
    2510                      .dwpsn  file "D:/BM1000/sw/modules/ctrl/src/32b/ctrl.h",line 771,column 3,is_stmt
    2511 000001b7 2FE4          MOV       PH,*+XAR4[4]          ; [CPU_] |771| 
    2512 000001b8 92AA          MOV       AL,PH                 ; [CPU_] |771| 
    2513 000001b9 5202          CMPB      AL,#2                 ; [CPU_] |771| 
    2514 000001ba 56C1          BF        $C$L14,EQ             ; [CPU_] |771| 
         000001bb 0093 
    2515                      ; branchcc occurs ; [] |771| 
    2516                      .dwpsn  file "D:/BM1000/sw/solutions/instaspin_foc/src/proj_lab05b.c",line 366,column 22,is_stmt
    2517 000001bc 5203          CMPB      AL,#3                 ; [CPU_] |366| 
    2518 000001bd EC1B          BF        $C$L7,EQ              ; [CPU_] |366| 
    2519                      ; branchcc occurs ; [] |366| 
    2520                      .dwpsn  file "D:/BM1000/sw/solutions/instaspin_foc/src/proj_lab05b.c",line 399,column 22,is_stmt
    2521 000001be 5201          CMPB      AL,#1                 ; [CPU_] |399| 
    2522 000001bf 56C0          BF        $C$L16,NEQ            ; [CPU_] |399| 
         000001c0 00A2 
    2523                      ; branchcc occurs ; [] |399| 
    2524                      .dwpsn  file "D:/BM1000/sw/modules/hal/boards/hvkit_rev1p1/f28x/f2802x/src/hal.h",line 271,column 16,
    2525 000001c1 8314-         MOVL      XAR5,@_halHandle      ; [CPU_] |271| 
    2526                      .dwpsn  file "D:/BM1000/sw/modules/hal/boards/hvkit_rev1p1/f28x/f2802x/src/hal.h",line 273,column 3,i
    2527 000001c2 DD7C          ADDB      XAR5,#124             ; [CPU_] |273| 
TMS320C2000 Assembler PC v6.2.5 Tue Sep 26 10:29:40 2017

Tools Copyright (c) 1996-2014 Texas Instruments Incorporated
C:\Users\wmj\AppData\Local\Temp\1168813                              PAGE   51

    2528 000001c3 C4C5          MOVL      XAR6,*+XAR5[0]        ; [CPU_] |273| 
    2529 000001c4 7622   EALLOW
    2530                      .dwpsn  file "D:/BM1000/sw/drivers/pwm/src/32b/f28x/f2802x/pwm.h",line 1567,column 5,is_stmt
    2531 000001c5 DE18          ADDB      XAR6,#24              ; [CPU_] |1567| 
    2532 000001c6 1AC6          OR        *+XAR6[0],#0x0004     ; [CPU_] |1567| 
         000001c7 0004 
    2533 000001c8 761A   EDIS
    2534                      .dwpsn  file "D:/BM1000/sw/modules/hal/boards/hvkit_rev1p1/f28x/f2802x/src/hal.h",line 274,column 3,i
    2535 000001c9 C4D5          MOVL      XAR6,*+XAR5[2]        ; [CPU_] |274| 
    2536 000001ca 7622   EALLOW
    2537                      .dwpsn  file "D:/BM1000/sw/drivers/pwm/src/32b/f28x/f2802x/pwm.h",line 1567,column 5,is_stmt
    2538 000001cb DE18          ADDB      XAR6,#24              ; [CPU_] |1567| 
    2539 000001cc 1AC6          OR        *+XAR6[0],#0x0004     ; [CPU_] |1567| 
         000001cd 0004 
    2540 000001ce 761A   EDIS
    2541                      .dwpsn  file "D:/BM1000/sw/modules/hal/boards/hvkit_rev1p1/f28x/f2802x/src/hal.h",line 275,column 3,i
    2542 000001cf 83E5          MOVL      XAR5,*+XAR5[4]        ; [CPU_] |275| 
    2543 000001d0 7622   EALLOW
    2544                      .dwpsn  file "D:/BM1000/sw/drivers/pwm/src/32b/f28x/f2802x/pwm.h",line 1567,column 5,is_stmt
    2545 000001d1 DD18          ADDB      XAR5,#24              ; [CPU_] |1567| 
    2546 000001d2 1AC5          OR        *+XAR5[0],#0x0004     ; [CPU_] |1567| 
         000001d3 0004 
    2547 000001d4 761A   EDIS
    2548                      .dwpsn  file "D:/BM1000/sw/solutions/instaspin_foc/src/proj_lab05b.c",line 403,column 21,is_stmt
    2549 000001d5 2BCA          MOV       *+XAR2[1],#0          ; [CPU_] |403| 
    2550 000001d6 FFEF          B         $C$L16,UNC            ; [CPU_] |403| 
         000001d7 008B 
    2551                      ; branch occurs ; [] |403| 
    2552 000001d8       $C$L7:    
    2553 000001d8 761F-         MOVW      DP,#_gMotorVars+7     ; [CPU_U] 
         000001d9 0004 
    2554                      .dwpsn  file "D:/BM1000/sw/solutions/instaspin_foc/src/proj_lab05b.c",line 368,column 21,is_stmt
    2555 000001da 9207-         MOV       AL,@_gMotorVars+7     ; [CPU_] |368| 
    2556 000001db 5201          CMPB      AL,#1                 ; [CPU_] |368| 
    2557 000001dc EC20          BF        $C$L8,EQ              ; [CPU_] |368| 
    2558                      ; branchcc occurs ; [] |368| 
    2559 000001dd 761F-         MOVW      DP,#_halHandle        ; [CPU_U] 
         000001de 0000 
    2560                      .dwpsn  file "D:/BM1000/sw/modules/hal/boards/hvkit_rev1p1/f28x/f2802x/src/hal.h",line 768,column 7,i
    2561 000001df 0298          MOVB      ACC,#152              ; [CPU_] |768| 
    2562 000001e0 8714-         MOVL      XT,@_halHandle        ; [CPU_] |768| 
    2563 000001e1 07AC          ADDL      ACC,XT                ; [CPU_] |768| 
    2564 000001e2 1EA6          MOVL      XAR6,ACC              ; [CPU_] |768| 
    2565 000001e3 28A9          MOV       AL,#21527             ; [CPU_] |768| 
         000001e4 5417 
    2566 000001e5 9BFC          MOV       AH,#252               ; [CPU_] |768| 
    2567 000001e6 1EC6          MOVL      *+XAR6[0],ACC         ; [CPU_] |768| 
    2568 000001e7 28A9          MOV       AL,#3289              ; [CPU_] |768| 
         000001e8 0CD9 
    2569 000001e9 1ED6          MOVL      *+XAR6[2],ACC         ; [CPU_] |768| 
    2570 000001ea 28A9          MOV       AL,#31264             ; [CPU_] |768| 
         000001eb 7A20 
    2571 000001ec 9BFB          MOV       AH,#251               ; [CPU_] |768| 
    2572 000001ed 1EE6          MOVL      *+XAR6[4],ACC         ; [CPU_] |768| 
    2573                      .dwpsn  file "D:/BM1000/sw/modules/hal/boards/hvkit_rev1p1/f28x/f2802x/src/hal.h",line 772,column 7,i
TMS320C2000 Assembler PC v6.2.5 Tue Sep 26 10:29:40 2017

Tools Copyright (c) 1996-2014 Texas Instruments Incorporated
C:\Users\wmj\AppData\Local\Temp\1168813                              PAGE   52

    2574 000001ee 029E          MOVB      ACC,#158              ; [CPU_] |772| 
    2575 000001ef 07AC          ADDL      ACC,XT                ; [CPU_] |772| 
    2576 000001f0 1EA6          MOVL      XAR6,ACC              ; [CPU_] |772| 
    2577 000001f1 28A9          MOV       AL,#9997              ; [CPU_] |772| 
         000001f2 270D 
    2578 000001f3 9B59          MOV       AH,#89                ; [CPU_] |772| 
    2579 000001f4 1EC6          MOVL      *+XAR6[0],ACC         ; [CPU_] |772| 
    2580 000001f5 28A9          MOV       AL,#13085             ; [CPU_] |772| 
         000001f6 331D 
    2581 000001f7 1ED6          MOVL      *+XAR6[2],ACC         ; [CPU_] |772| 
    2582 000001f8 28A9          MOV       AL,#14161             ; [CPU_] |772| 
         000001f9 3751 
    2583 000001fa 1EE6          MOVL      *+XAR6[4],ACC         ; [CPU_] |772| 
    2584 000001fb 6F39          B         $C$L13,UNC            ; [CPU_] |772| 
    2585                      ; branch occurs ; [] |772| 
    2586 000001fc       $C$L8:    
    2587 000001fc 761F-         MOVW      DP,#_halHandle        ; [CPU_U] 
         000001fd 0000 
    2588                      .dwpsn  file "D:/BM1000/sw/solutions/instaspin_foc/src/proj_lab05b.c",line 371,column 23,is_stmt
    2589 000001fe 8314-         MOVL      XAR5,@_halHandle      ; [CPU_] |371| 
    2590                      .dwpsn  file "D:/BM1000/sw/modules/hal/boards/hvkit_rev1p1/f28x/f2802x/src/hal.h",line 1047,column 7,
    2591 000001ff 2BAB          MOV       PL,#0                 ; [CPU_] |1047| 
    2592                      .dwpsn  file "D:/BM1000/sw/modules/hal/boards/hvkit_rev1p1/f28x/f2802x/src/hal.h",line 1042,column 16
    2593 00000200 A0AC          MOVL      XT,XAR5               ; [CPU_] |1042| 
    2594                      .dwpsn  file "D:/BM1000/sw/modules/hal/boards/hvkit_rev1p1/f28x/f2802x/src/hal.h",line 1047,column 7,
    2595 00000201 6F15          B         $C$L10,UNC            ; [CPU_] |1047| 
    2596                      ; branch occurs ; [] |1047| 
    2597 00000202       $C$L9:    
    2598                      .dwpsn  file "D:/BM1000/sw/modules/hal/boards/hvkit_rev1p1/f28x/f2802x/src/hal.h",line 352,column 7,i
    2599 00000202 0EAB          MOVU      ACC,PL                ; [CPU_] |352| 
    2600 00000203 BE98          MOVB      XAR6,#152             ; [CPU_] |352| 
    2601 00000204 FF30          LSL       ACC,1                 ; [CPU_] |352| 
    2602 00000205 8EA9          MOVL      XAR0,ACC              ; [CPU_] |352| 
    2603 00000206 A0A9          MOVL      ACC,XAR5              ; [CPU_] |352| 
    2604 00000207 07A0          ADDL      ACC,XAR0              ; [CPU_] |352| 
    2605 00000208 0DA6          ADDU      ACC,AR6               ; [CPU_] |352| 
    2606 00000209 1EA7          MOVL      XAR7,ACC              ; [CPU_] |352| 
    2607                      .dwpsn  file "D:/BM1000/sw/modules/hal/boards/hvkit_rev1p1/f28x/f2802x/src/hal.h",line 1051,column 7,
    2608 0000020a ABA6          MOVL      XAR6,XT               ; [CPU_] |1051| 
    2609 0000020b 3AA9          MOVL      ACC,XAR0              ; [CPU_] |1051| 
    2610 0000020c D00A          MOVB      XAR0,#10              ; [CPU_] |1051| 
    2611 0000020d 5601          ADDL      XAR6,ACC              ; [CPU_] |1051| 
         0000020e 00A6 
    2612 0000020f C496          MOVL      XAR6,*+XAR6[AR0]      ; [CPU_] |1051| 
    2613                      .dwpsn  file "D:/BM1000/sw/modules/hal/boards/hvkit_rev1p1/f28x/f2802x/src/hal.h",line 352,column 7,i
    2614 00000210 06C7          MOVL      ACC,*+XAR7[0]         ; [CPU_] |352| 
    2615                      .dwpsn  file "D:/BM1000/sw/modules/hal/boards/hvkit_rev1p1/f28x/f2802x/src/hal.h",line 1051,column 7,
    2616 00000211 07C6          ADDL      ACC,*+XAR6[0]         ; [CPU_] |1051| 
    2617                      .dwpsn  file "D:/BM1000/sw/modules/hal/boards/hvkit_rev1p1/f28x/f2802x/src/hal.h",line 768,column 7,i
    2618 00000212 1EC7          MOVL      *+XAR7[0],ACC         ; [CPU_] |768| 
    2619 00000213 92AB          MOV       AL,PL                 ; [CPU_] |768| 
    2620                      .dwpsn  file "D:/BM1000/sw/modules/hal/boards/hvkit_rev1p1/f28x/f2802x/src/hal.h",line 1047,column 50
    2621 00000214 9C01          ADDB      AL,#1                 ; [CPU_] |1047| 
    2622 00000215 27A9          MOV       PL,AL                 ; [CPU_] |1047| 
    2623 00000216       $C$L10:    
TMS320C2000 Assembler PC v6.2.5 Tue Sep 26 10:29:40 2017

Tools Copyright (c) 1996-2014 Texas Instruments Incorporated
C:\Users\wmj\AppData\Local\Temp\1168813                              PAGE   53

    2624                      .dwpsn  file "D:/BM1000/sw/modules/hal/boards/hvkit_rev1p1/f28x/f2802x/src/hal.h",line 1047,column 13
    2625 00000216 D0B2          MOVB      XAR0,#178             ; [CPU_] |1047| 
    2626 00000217 92AB          MOV       AL,PL                 ; [CPU_] |1047| 
    2627 00000218 5495          CMP       AL,*+XAR5[AR0]        ; [CPU_] |1047| 
    2628 00000219 68E9          B         $C$L9,LO              ; [CPU_] |1047| 
    2629                      ; branchcc occurs ; [] |1047| 
    2630                      .dwpsn  file "D:/BM1000/sw/modules/hal/boards/hvkit_rev1p1/f28x/f2802x/src/hal.h",line 1058,column 7,
    2631 0000021a 2BAB          MOV       PL,#0                 ; [CPU_] |1058| 
    2632 0000021b 6F15          B         $C$L12,UNC            ; [CPU_] |1058| 
    2633                      ; branch occurs ; [] |1058| 
    2634 0000021c       $C$L11:    
    2635                      .dwpsn  file "D:/BM1000/sw/modules/hal/boards/hvkit_rev1p1/f28x/f2802x/src/hal.h",line 356,column 7,i
    2636 0000021c 0EAB          MOVU      ACC,PL                ; [CPU_] |356| 
    2637 0000021d BE9E          MOVB      XAR6,#158             ; [CPU_] |356| 
    2638 0000021e FF30          LSL       ACC,1                 ; [CPU_] |356| 
    2639 0000021f 8EA9          MOVL      XAR0,ACC              ; [CPU_] |356| 
    2640 00000220 A0A9          MOVL      ACC,XAR5              ; [CPU_] |356| 
    2641 00000221 07A0          ADDL      ACC,XAR0              ; [CPU_] |356| 
    2642 00000222 0DA6          ADDU      ACC,AR6               ; [CPU_] |356| 
    2643 00000223 1EA7          MOVL      XAR7,ACC              ; [CPU_] |356| 
    2644                      .dwpsn  file "D:/BM1000/sw/modules/hal/boards/hvkit_rev1p1/f28x/f2802x/src/hal.h",line 1062,column 7,
    2645 00000224 ABA6          MOVL      XAR6,XT               ; [CPU_] |1062| 
    2646 00000225 3AA9          MOVL      ACC,XAR0              ; [CPU_] |1062| 
    2647 00000226 D040          MOVB      XAR0,#64              ; [CPU_] |1062| 
    2648 00000227 5601          ADDL      XAR6,ACC              ; [CPU_] |1062| 
         00000228 00A6 
    2649 00000229 C496          MOVL      XAR6,*+XAR6[AR0]      ; [CPU_] |1062| 
    2650                      .dwpsn  file "D:/BM1000/sw/modules/hal/boards/hvkit_rev1p1/f28x/f2802x/src/hal.h",line 356,column 7,i
    2651 0000022a 06C7          MOVL      ACC,*+XAR7[0]         ; [CPU_] |356| 
    2652                      .dwpsn  file "D:/BM1000/sw/modules/hal/boards/hvkit_rev1p1/f28x/f2802x/src/hal.h",line 1062,column 7,
    2653 0000022b 07C6          ADDL      ACC,*+XAR6[0]         ; [CPU_] |1062| 
    2654                      .dwpsn  file "D:/BM1000/sw/modules/hal/boards/hvkit_rev1p1/f28x/f2802x/src/hal.h",line 772,column 7,i
    2655 0000022c 1EC7          MOVL      *+XAR7[0],ACC         ; [CPU_] |772| 
    2656 0000022d 92AB          MOV       AL,PL                 ; [CPU_] |772| 
    2657                      .dwpsn  file "D:/BM1000/sw/modules/hal/boards/hvkit_rev1p1/f28x/f2802x/src/hal.h",line 1058,column 50
    2658 0000022e 9C01          ADDB      AL,#1                 ; [CPU_] |1058| 
    2659 0000022f 27A9          MOV       PL,AL                 ; [CPU_] |1058| 
    2660 00000230       $C$L12:    
    2661                      .dwpsn  file "D:/BM1000/sw/modules/hal/boards/hvkit_rev1p1/f28x/f2802x/src/hal.h",line 1058,column 13
    2662 00000230 D0B3          MOVB      XAR0,#179             ; [CPU_] |1058| 
    2663 00000231 92AB          MOV       AL,PL                 ; [CPU_] |1058| 
    2664 00000232 5495          CMP       AL,*+XAR5[AR0]        ; [CPU_] |1058| 
    2665 00000233 68E9          B         $C$L11,LO             ; [CPU_] |1058| 
    2666                      ; branchcc occurs ; [] |1058| 
    2667 00000234       $C$L13:    
    2668                      .dwpsn  file "D:/BM1000/sw/solutions/instaspin_foc/src/proj_lab05b.c",line 387,column 21,is_stmt
    2669 00000234 76C0-         MOVL      XAR7,#_gMotorVars     ; [CPU_U] |387| 
         00000235 0100 
    2670                      .dwpsn  file "D:/BM1000/sw/modules/hal/boards/hvkit_rev1p1/f28x/f2802x/src/hal.h",line 352,column 7,i
    2671 00000236 0298          MOVB      ACC,#152              ; [CPU_] |352| 
    2672                      .dwpsn  file "D:/BM1000/sw/solutions/instaspin_foc/src/proj_lab05b.c",line 387,column 21,is_stmt
    2673 00000237 C4A7          MOVL      XAR6,XAR7             ; [CPU_] |387| 
    2674                      .dwpsn  file "D:/BM1000/sw/modules/hal/boards/hvkit_rev1p1/f28x/f2802x/src/hal.h",line 352,column 7,i
    2675 00000238 07AC          ADDL      ACC,XT                ; [CPU_] |352| 
    2676 00000239 83A9          MOVL      XAR5,ACC              ; [CPU_] |352| 
TMS320C2000 Assembler PC v6.2.5 Tue Sep 26 10:29:40 2017

Tools Copyright (c) 1996-2014 Texas Instruments Incorporated
C:\Users\wmj\AppData\Local\Temp\1168813                              PAGE   54

    2677 0000023a 06C5          MOVL      ACC,*+XAR5[0]         ; [CPU_] |352| 
    2678                      .dwpsn  file "D:/BM1000/sw/solutions/instaspin_foc/src/proj_lab05b.c",line 387,column 21,is_stmt
    2679 0000023b DE5E          ADDB      XAR6,#94              ; [CPU_] |387| 
    2680 0000023c 1EC6          MOVL      *+XAR6[0],ACC         ; [CPU_] |387| 
    2681                      .dwpsn  file "D:/BM1000/sw/solutions/instaspin_foc/src/proj_lab05b.c",line 392,column 21,is_stmt
    2682 0000023d DF64          ADDB      XAR7,#100             ; [CPU_] |392| 
    2683                      .dwpsn  file "D:/BM1000/sw/modules/hal/boards/hvkit_rev1p1/f28x/f2802x/src/hal.h",line 352,column 7,i
    2684 0000023e 06D5          MOVL      ACC,*+XAR5[2]         ; [CPU_] |352| 
    2685                      .dwpsn  file "D:/BM1000/sw/solutions/instaspin_foc/src/proj_lab05b.c",line 388,column 21,is_stmt
    2686 0000023f 1ED6          MOVL      *+XAR6[2],ACC         ; [CPU_] |388| 
    2687                      .dwpsn  file "D:/BM1000/sw/modules/hal/boards/hvkit_rev1p1/f28x/f2802x/src/hal.h",line 352,column 7,i
    2688 00000240 06E5          MOVL      ACC,*+XAR5[4]         ; [CPU_] |352| 
    2689                      .dwpsn  file "D:/BM1000/sw/solutions/instaspin_foc/src/proj_lab05b.c",line 389,column 21,is_stmt
    2690 00000241 1EE6          MOVL      *+XAR6[4],ACC         ; [CPU_] |389| 
    2691                      .dwpsn  file "D:/BM1000/sw/modules/hal/boards/hvkit_rev1p1/f28x/f2802x/src/hal.h",line 356,column 7,i
    2692 00000242 029E          MOVB      ACC,#158              ; [CPU_] |356| 
    2693 00000243 07AC          ADDL      ACC,XT                ; [CPU_] |356| 
    2694 00000244 83A9          MOVL      XAR5,ACC              ; [CPU_] |356| 
    2695 00000245 06C5          MOVL      ACC,*+XAR5[0]         ; [CPU_] |356| 
    2696                      .dwpsn  file "D:/BM1000/sw/solutions/instaspin_foc/src/proj_lab05b.c",line 392,column 21,is_stmt
    2697 00000246 1EC7          MOVL      *+XAR7[0],ACC         ; [CPU_] |392| 
    2698                      .dwpsn  file "D:/BM1000/sw/modules/hal/boards/hvkit_rev1p1/f28x/f2802x/src/hal.h",line 356,column 7,i
    2699 00000247 06D5          MOVL      ACC,*+XAR5[2]         ; [CPU_] |356| 
    2700                      .dwpsn  file "D:/BM1000/sw/solutions/instaspin_foc/src/proj_lab05b.c",line 393,column 21,is_stmt
    2701 00000248 1ED7          MOVL      *+XAR7[2],ACC         ; [CPU_] |393| 
    2702                      .dwpsn  file "D:/BM1000/sw/modules/hal/boards/hvkit_rev1p1/f28x/f2802x/src/hal.h",line 356,column 7,i
    2703 00000249 06E5          MOVL      ACC,*+XAR5[4]         ; [CPU_] |356| 
    2704                      .dwpsn  file "D:/BM1000/sw/modules/hal/boards/hvkit_rev1p1/f28x/f2802x/src/hal.h",line 309,column 3,i
    2705 0000024a ABA5          MOVL      XAR5,XT               ; [CPU_] |309| 
    2706                      .dwpsn  file "D:/BM1000/sw/solutions/instaspin_foc/src/proj_lab05b.c",line 394,column 21,is_stmt
    2707 0000024b 1EE7          MOVL      *+XAR7[4],ACC         ; [CPU_] |394| 
    2708                      .dwpsn  file "D:/BM1000/sw/drivers/pwm/src/32b/f28x/f2802x/pwm.h",line 955,column 5,is_stmt
    2709 0000024c 6F02          B         $C$L15,UNC            ; [CPU_] |955| 
    2710                      ; branch occurs ; [] |955| 
    2711 0000024d       $C$L14:    
    2712                      .dwpsn  file "D:/BM1000/sw/modules/hal/boards/hvkit_rev1p1/f28x/f2802x/src/hal.h",line 307,column 16,
    2713 0000024d 8314-         MOVL      XAR5,@_halHandle      ; [CPU_] |307| 
    2714 0000024e       $C$L15:    
    2715                      .dwpsn  file "D:/BM1000/sw/modules/hal/boards/hvkit_rev1p1/f28x/f2802x/src/hal.h",line 309,column 3,i
    2716 0000024e DD7C          ADDB      XAR5,#124             ; [CPU_] |309| 
    2717 0000024f C4C5          MOVL      XAR6,*+XAR5[0]        ; [CPU_] |309| 
    2718 00000250 7622   EALLOW
    2719                      .dwpsn  file "D:/BM1000/sw/drivers/pwm/src/32b/f28x/f2802x/pwm.h",line 951,column 5,is_stmt
    2720 00000251 D017          MOVB      XAR0,#23              ; [CPU_] |951| 
    2721 00000252 56BF          MOVB      *+XAR6[AR0],#4,UNC    ; [CPU_] |951| 
         00000253 0496 
    2722 00000254 761A   EDIS
    2723                      .dwpsn  file "D:/BM1000/sw/modules/hal/boards/hvkit_rev1p1/f28x/f2802x/src/hal.h",line 310,column 3,i
    2724 00000255 C4D5          MOVL      XAR6,*+XAR5[2]        ; [CPU_] |310| 
    2725 00000256 7622   EALLOW
    2726                      .dwpsn  file "D:/BM1000/sw/drivers/pwm/src/32b/f28x/f2802x/pwm.h",line 951,column 5,is_stmt
    2727 00000257 D017          MOVB      XAR0,#23              ; [CPU_] |951| 
    2728 00000258 56BF          MOVB      *+XAR6[AR0],#4,UNC    ; [CPU_] |951| 
         00000259 0496 
    2729 0000025a 761A   EDIS
TMS320C2000 Assembler PC v6.2.5 Tue Sep 26 10:29:40 2017

Tools Copyright (c) 1996-2014 Texas Instruments Incorporated
C:\Users\wmj\AppData\Local\Temp\1168813                              PAGE   55

    2730                      .dwpsn  file "D:/BM1000/sw/modules/hal/boards/hvkit_rev1p1/f28x/f2802x/src/hal.h",line 311,column 3,i
    2731 0000025b 83E5          MOVL      XAR5,*+XAR5[4]        ; [CPU_] |311| 
    2732 0000025c 7622   EALLOW
    2733                      .dwpsn  file "D:/BM1000/sw/drivers/pwm/src/32b/f28x/f2802x/pwm.h",line 951,column 5,is_stmt
    2734 0000025d D017          MOVB      XAR0,#23              ; [CPU_] |951| 
    2735 0000025e 56BF          MOVB      *+XAR5[AR0],#4,UNC    ; [CPU_] |951| 
         0000025f 0495 
    2736 00000260 761A   EDIS
    2737 00000261       $C$L16:    
    2738                      .dwpsn  file "D:/BM1000/sw/solutions/instaspin_foc/src/proj_lab05b.c",line 406,column 17,is_stmt
    2739 00000261 D0F5          MOVB      XAR0,#245             ; [CPU_] |406| 
    2740 00000262 9294          MOV       AL,*+XAR4[AR0]        ; [CPU_] |406| 
    2741 00000263 5201          CMPB      AL,#1                 ; [CPU_] |406| 
    2742 00000264 ED28          BF        $C$L18,NEQ            ; [CPU_] |406| 
    2743                      ; branchcc occurs ; [] |406| 
    2744 00000265 92AA          MOV       AL,PH                 ; [CPU_] 
    2745 00000266 5202          CMPB      AL,#2                 ; [CPU_] |406| 
    2746 00000267 6425          B         $C$L18,LT             ; [CPU_] |406| 
    2747                      ; branchcc occurs ; [] |406| 
    2748 00000268 761F-         MOVW      DP,#_gMotorVars+19    ; [CPU_U] 
         00000269 0004 
    2749 0000026a 9213-         MOV       AL,@_gMotorVars+19    ; [CPU_] |406| 
    2750 0000026b 5206          CMPB      AL,#6                 ; [CPU_] |406| 
    2751 0000026c ED20          BF        $C$L18,NEQ            ; [CPU_] |406| 
    2752                      ; branchcc occurs ; [] |406| 
    2753 0000026d FF69          SPM       #0                    ; [CPU_] 
    2754                      .dwpsn  file "D:/BM1000/sw/solutions/instaspin_foc/src/proj_lab05b.c",line 411,column 21,is_stmt
    2755              $C$DW$313       .dwtag  DW_TAG_TI_branch
    2756                      .dwattr $C$DW$313, DW_AT_low_pc(0x00)
    2757                      .dwattr $C$DW$313, DW_AT_name("_USER_softwareUpdate1p6")
    2758                      .dwattr $C$DW$313, DW_AT_TI_call
    2759 0000026e 7640!         LCR       #_USER_softwareUpdate1p6 ; [CPU_] |411| 
         0000026f 0000 
    2760                      ; call occurs [#_USER_softwareUpdate1p6] ; [] |411| 
    2761 00000270 6F1C          B         $C$L18,UNC            ; [CPU_] |411| 
    2762                      ; branch occurs ; [] |411| 
    2763 00000271       $C$L17:    
    2764                      .dwpsn  file "D:/BM1000/sw/modules/ctrl/src/32b/ctrl.h",line 1218,column 3,is_stmt
    2765 00000271 D0F0          MOVB      XAR0,#240             ; [CPU_] |1218| 
    2766 00000272 761F-         MOVW      DP,#_gMotorVars       ; [CPU_U] 
         00000273 0004 
    2767 00000274 2B94          MOV       *+XAR4[AR0],#0        ; [CPU_] |1218| 
    2768                      .dwpsn  file "D:/BM1000/sw/solutions/instaspin_foc/src/proj_lab05b.c",line 344,column 13,is_stmt
    2769 00000275 2B00-         MOV       @_gMotorVars,#0       ; [CPU_] |344| 
    2770 00000276 761F-         MOVW      DP,#_halHandle        ; [CPU_U] 
         00000277 0000 
    2771                      .dwpsn  file "D:/BM1000/sw/modules/hal/boards/hvkit_rev1p1/f28x/f2802x/src/hal.h",line 271,column 16,
    2772 00000278 8A14-         MOVL      XAR4,@_halHandle      ; [CPU_] |271| 
    2773                      .dwpsn  file "D:/BM1000/sw/modules/hal/boards/hvkit_rev1p1/f28x/f2802x/src/hal.h",line 273,column 3,i
    2774 00000279 DC7C          ADDB      XAR4,#124             ; [CPU_] |273| 
    2775 0000027a 83C4          MOVL      XAR5,*+XAR4[0]        ; [CPU_] |273| 
    2776 0000027b 7622   EALLOW
    2777                      .dwpsn  file "D:/BM1000/sw/drivers/pwm/src/32b/f28x/f2802x/pwm.h",line 1567,column 5,is_stmt
    2778 0000027c DD18          ADDB      XAR5,#24              ; [CPU_] |1567| 
    2779 0000027d 1AC5          OR        *+XAR5[0],#0x0004     ; [CPU_] |1567| 
TMS320C2000 Assembler PC v6.2.5 Tue Sep 26 10:29:40 2017

Tools Copyright (c) 1996-2014 Texas Instruments Incorporated
C:\Users\wmj\AppData\Local\Temp\1168813                              PAGE   56

         0000027e 0004 
    2780 0000027f 761A   EDIS
    2781                      .dwpsn  file "D:/BM1000/sw/modules/hal/boards/hvkit_rev1p1/f28x/f2802x/src/hal.h",line 274,column 3,i
    2782 00000280 83D4          MOVL      XAR5,*+XAR4[2]        ; [CPU_] |274| 
    2783 00000281 7622   EALLOW
    2784                      .dwpsn  file "D:/BM1000/sw/drivers/pwm/src/32b/f28x/f2802x/pwm.h",line 1567,column 5,is_stmt
    2785 00000282 DD18          ADDB      XAR5,#24              ; [CPU_] |1567| 
    2786 00000283 1AC5          OR        *+XAR5[0],#0x0004     ; [CPU_] |1567| 
         00000284 0004 
    2787 00000285 761A   EDIS
    2788                      .dwpsn  file "D:/BM1000/sw/modules/hal/boards/hvkit_rev1p1/f28x/f2802x/src/hal.h",line 275,column 3,i
    2789 00000286 8AE4          MOVL      XAR4,*+XAR4[4]        ; [CPU_] |275| 
    2790 00000287 7622   EALLOW
    2791                      .dwpsn  file "D:/BM1000/sw/drivers/pwm/src/32b/f28x/f2802x/pwm.h",line 1567,column 5,is_stmt
    2792 00000288 DC18          ADDB      XAR4,#24              ; [CPU_] |1567| 
    2793 00000289 1AC4          OR        *+XAR4[0],#0x0004     ; [CPU_] |1567| 
         0000028a 0004 
    2794 0000028b 761A   EDIS
    2795 0000028c       $C$L18:    
    2796                      .dwpsn  file "D:/BM1000/sw/solutions/instaspin_foc/src/proj_lab05b.c",line 418,column 9,is_stmt
    2797 0000028c D018          MOVB      XAR0,#24              ; [CPU_] |418| 
    2798 0000028d FF69          SPM       #0                    ; [CPU_] 
    2799 0000028e 8A91          MOVL      XAR4,*+XAR1[AR0]      ; [CPU_] |418| 
    2800              $C$DW$314       .dwtag  DW_TAG_TI_branch
    2801                      .dwattr $C$DW$314, DW_AT_low_pc(0x00)
    2802                      .dwattr $C$DW$314, DW_AT_name("_EST_isMotorIdentified")
    2803                      .dwattr $C$DW$314, DW_AT_TI_call
    2804 0000028f 7640!         LCR       #_EST_isMotorIdentified ; [CPU_] |418| 
         00000290 0000 
    2805                      ; call occurs [#_EST_isMotorIdentified] ; [] |418| 
    2806 00000291 5200          CMPB      AL,#0                 ; [CPU_] |418| 
    2807 00000292 EC71          BF        $C$L19,EQ             ; [CPU_] |418| 
    2808                      ; branchcc occurs ; [] |418| 
    2809                      .dwpsn  file "D:/BM1000/sw/solutions/instaspin_foc/src/proj_lab05b.c",line 421,column 13,is_stmt
    2810 00000293 D018          MOVB      XAR0,#24              ; [CPU_] |421| 
    2811 00000294 761F-         MOVW      DP,#_gMaxCurrentSlope ; [CPU_U] 
         00000295 0000 
    2812 00000296 8A91          MOVL      XAR4,*+XAR1[AR0]      ; [CPU_] |421| 
    2813 00000297 060E-         MOVL      ACC,@_gMaxCurrentSlope ; [CPU_] |421| 
    2814              $C$DW$315       .dwtag  DW_TAG_TI_branch
    2815                      .dwattr $C$DW$315, DW_AT_low_pc(0x00)
    2816                      .dwattr $C$DW$315, DW_AT_name("_EST_setMaxCurrentSlope_pu")
    2817                      .dwattr $C$DW$315, DW_AT_TI_call
    2818 00000298 7640!         LCR       #_EST_setMaxCurrentSlope_pu ; [CPU_] |421| 
         00000299 0000 
    2819                      ; call occurs [#_EST_setMaxCurrentSlope_pu] ; [] |421| 
    2820                      .dwpsn  file "D:/BM1000/sw/solutions/instaspin_foc/src/proj_lab05b.c",line 422,column 13,is_stmt
    2821 0000029a 56BF          MOVB      *+XAR3[2],#1,UNC      ; [CPU_] |422| 
         0000029b 01D3 
    2822                      .dwpsn  file "D:/BM1000/sw/solutions/instaspin_foc/src/proj_lab05b.c",line 425,column 13,is_stmt
    2823 0000029c D01A          MOVB      XAR0,#26              ; [CPU_] |425| 
    2824 0000029d 761F-         MOVW      DP,#_ctrlHandle       ; [CPU_U] 
         0000029e 0000 
    2825 0000029f 0693          MOVL      ACC,*+XAR3[AR0]       ; [CPU_] |425| 
    2826 000002a0 8A12-         MOVL      XAR4,@_ctrlHandle     ; [CPU_] |425| 
TMS320C2000 Assembler PC v6.2.5 Tue Sep 26 10:29:40 2017

Tools Copyright (c) 1996-2014 Texas Instruments Incorporated
C:\Users\wmj\AppData\Local\Temp\1168813                              PAGE   57

    2827              $C$DW$316       .dwtag  DW_TAG_TI_branch
    2828                      .dwattr $C$DW$316, DW_AT_low_pc(0x00)
    2829                      .dwattr $C$DW$316, DW_AT_name("_CTRL_setSpd_ref_krpm")
    2830                      .dwattr $C$DW$316, DW_AT_TI_call
    2831 000002a1 7640!         LCR       #_CTRL_setSpd_ref_krpm ; [CPU_] |425| 
         000002a2 0000 
    2832                      ; call occurs [#_CTRL_setSpd_ref_krpm] ; [] |425| 
    2833 000002a3 761F-         MOVW      DP,#_ctrlHandle       ; [CPU_U] 
         000002a4 0000 
    2834                      .dwpsn  file "D:/BM1000/sw/solutions/instaspin_foc/src/proj_lab05b.c",line 428,column 13,is_stmt
    2835 000002a5 D035          MOVB      XAR0,#53              ; [CPU_] |428| 
    2836 000002a6 8F00-         MOVL      XAR4,#_gUserParams    ; [CPU_U] |428| 
         000002a7 0180 
    2837 000002a8 8612-         MOVL      XAR2,@_ctrlHandle     ; [CPU_] |428| 
    2838 000002a9 A850          MOVL      *-SP[16],XAR4         ; [CPU_] |428| 
    2839 000002aa 9294          MOV       AL,*+XAR4[AR0]        ; [CPU_] |428| 
    2840              $C$DW$317       .dwtag  DW_TAG_TI_branch
    2841                      .dwattr $C$DW$317, DW_AT_low_pc(0x00)
    2842                      .dwattr $C$DW$317, DW_AT_name("U$$TOFS")
    2843                      .dwattr $C$DW$317, DW_AT_TI_call
    2844 000002ab 7640!         LCR       #U$$TOFS              ; [CPU_] |428| 
         000002ac 0000 
    2845                      ; call occurs [#U$$TOFS] ; [] |428| 
    2846 000002ad 1EA6          MOVL      XAR6,ACC              ; [CPU_] |428| 
    2847 000002ae 9A00          MOV       AL,#0                 ; [CPU_] |428| 
    2848 000002af 28A8          MOV       AH,#17530             ; [CPU_] |428| 
         000002b0 447A 
    2849 000002b1 1E42          MOVL      *-SP[2],ACC           ; [CPU_] |428| 
    2850 000002b2 06A6          MOVL      ACC,XAR6              ; [CPU_] |428| 
    2851              $C$DW$318       .dwtag  DW_TAG_TI_branch
    2852                      .dwattr $C$DW$318, DW_AT_low_pc(0x00)
    2853                      .dwattr $C$DW$318, DW_AT_name("FS$$MPY")
    2854                      .dwattr $C$DW$318, DW_AT_TI_call
    2855 000002b3 7640!         LCR       #FS$$MPY              ; [CPU_] |428| 
         000002b4 0000 
    2856                      ; call occurs [#FS$$MPY] ; [] |428| 
    2857 000002b5 1EA6          MOVL      XAR6,ACC              ; [CPU_] |428| 
    2858 000002b6 28A9          MOV       AL,#32768             ; [CPU_] |428| 
         000002b7 8000 
    2859 000002b8 28A8          MOV       AH,#17318             ; [CPU_] |428| 
         000002b9 43A6 
    2860 000002ba 1E42          MOVL      *-SP[2],ACC           ; [CPU_] |428| 
    2861 000002bb 06A6          MOVL      ACC,XAR6              ; [CPU_] |428| 
    2862              $C$DW$319       .dwtag  DW_TAG_TI_branch
    2863                      .dwattr $C$DW$319, DW_AT_low_pc(0x00)
    2864                      .dwattr $C$DW$319, DW_AT_name("FS$$DIV")
    2865                      .dwattr $C$DW$319, DW_AT_TI_call
    2866 000002bc 7640!         LCR       #FS$$DIV              ; [CPU_] |428| 
         000002bd 0000 
    2867                      ; call occurs [#FS$$DIV] ; [] |428| 
    2868 000002be 1EA6          MOVL      XAR6,ACC              ; [CPU_] |428| 
    2869 000002bf 9A00          MOV       AL,#0                 ; [CPU_] |428| 
    2870 000002c0 28A8          MOV       AH,#17224             ; [CPU_] |428| 
         000002c1 4348 
    2871 000002c2 1E42          MOVL      *-SP[2],ACC           ; [CPU_] |428| 
TMS320C2000 Assembler PC v6.2.5 Tue Sep 26 10:29:40 2017

Tools Copyright (c) 1996-2014 Texas Instruments Incorporated
C:\Users\wmj\AppData\Local\Temp\1168813                              PAGE   58

    2872 000002c3 06A6          MOVL      ACC,XAR6              ; [CPU_] |428| 
    2873              $C$DW$320       .dwtag  DW_TAG_TI_branch
    2874                      .dwattr $C$DW$320, DW_AT_low_pc(0x00)
    2875                      .dwattr $C$DW$320, DW_AT_name("FS$$DIV")
    2876                      .dwattr $C$DW$320, DW_AT_TI_call
    2877 000002c4 7640!         LCR       #FS$$DIV              ; [CPU_] |428| 
         000002c5 0000 
    2878                      ; call occurs [#FS$$DIV] ; [] |428| 
    2879 000002c6 1EA6          MOVL      XAR6,ACC              ; [CPU_] |428| 
    2880 000002c7 9A00          MOV       AL,#0                 ; [CPU_] |428| 
    2881 000002c8 28A8          MOV       AH,#17008             ; [CPU_] |428| 
         000002c9 4270 
    2882 000002ca 1E42          MOVL      *-SP[2],ACC           ; [CPU_] |428| 
    2883 000002cb 06A6          MOVL      ACC,XAR6              ; [CPU_] |428| 
    2884              $C$DW$321       .dwtag  DW_TAG_TI_branch
    2885                      .dwattr $C$DW$321, DW_AT_low_pc(0x00)
    2886                      .dwattr $C$DW$321, DW_AT_name("FS$$DIV")
    2887                      .dwattr $C$DW$321, DW_AT_TI_call
    2888 000002cc 7640!         LCR       #FS$$DIV              ; [CPU_] |428| 
         000002cd 0000 
    2889                      ; call occurs [#FS$$DIV] ; [] |428| 
    2890 000002ce 88AD          MOVZ      AR6,SP                ; [CPU_U] |428| 
    2891 000002cf DE8E          SUBB      XAR6,#14              ; [CPU_U] |428| 
    2892              $C$DW$322       .dwtag  DW_TAG_TI_branch
    2893                      .dwattr $C$DW$322, DW_AT_low_pc(0x00)
    2894                      .dwattr $C$DW$322, DW_AT_name("FS$$TOFD")
    2895                      .dwattr $C$DW$322, DW_AT_TI_call
    2896 000002d0 7640!         LCR       #FS$$TOFD             ; [CPU_] |428| 
         000002d1 0000 
    2897                      ; call occurs [#FS$$TOFD] ; [] |428| 
    2898 000002d2 5CAD          MOVZ      AR4,SP                ; [CPU_U] |428| 
    2899 000002d3 88AD          MOVZ      AR6,SP                ; [CPU_U] |428| 
    2900 000002d4 8F40+         MOVL      XAR5,#$C$FL1          ; [CPU_U] |428| 
         000002d5 0000 
    2901 000002d6 DC8E          SUBB      XAR4,#14              ; [CPU_U] |428| 
    2902 000002d7 DE8A          SUBB      XAR6,#10              ; [CPU_U] |428| 
    2903              $C$DW$323       .dwtag  DW_TAG_TI_branch
    2904                      .dwattr $C$DW$323, DW_AT_low_pc(0x00)
    2905                      .dwattr $C$DW$323, DW_AT_name("FD$$MPY")
    2906                      .dwattr $C$DW$323, DW_AT_TI_call
    2907 000002d8 7640!         LCR       #FD$$MPY              ; [CPU_] |428| 
         000002d9 0000 
    2908                      ; call occurs [#FD$$MPY] ; [] |428| 
    2909 000002da 5CAD          MOVZ      AR4,SP                ; [CPU_U] |428| 
    2910 000002db DC8A          SUBB      XAR4,#10              ; [CPU_U] |428| 
    2911              $C$DW$324       .dwtag  DW_TAG_TI_branch
    2912                      .dwattr $C$DW$324, DW_AT_low_pc(0x00)
    2913                      .dwattr $C$DW$324, DW_AT_name("FD$$TOL")
    2914                      .dwattr $C$DW$324, DW_AT_TI_call
    2915 000002dc 7640!         LCR       #FD$$TOL              ; [CPU_] |428| 
         000002dd 0000 
    2916                      ; call occurs [#FD$$TOL] ; [] |428| 
    2917 000002de D01E          MOVB      XAR0,#30              ; [CPU_] |428| 
    2918 000002df 761F-         MOVW      DP,#_Flag_Latch_softwareUpdate ; [CPU_U] 
         000002e0 0000 
TMS320C2000 Assembler PC v6.2.5 Tue Sep 26 10:29:40 2017

Tools Copyright (c) 1996-2014 Texas Instruments Incorporated
C:\Users\wmj\AppData\Local\Temp\1168813                              PAGE   59

    2919 000002e1 1EAC          MOVL      XT,ACC                ; [CPU_] |428| 
    2920 000002e2 5605          IMPYL     P,XT,*+XAR3[AR0]      ; [CPU_] |428| 
         000002e3 0093 
    2921 000002e4 5663          QMPYL     ACC,XT,*+XAR3[AR0]    ; [CPU_] |428| 
         000002e5 0093 
    2922                      .dwpsn  file "D:/BM1000/sw/modules/ctrl/src/32b/ctrl.h",line 1560,column 3,is_stmt
    2923 000002e6 D076          MOVB      XAR0,#118             ; [CPU_] |1560| 
    2924                      .dwpsn  file "D:/BM1000/sw/solutions/instaspin_foc/src/proj_lab05b.c",line 428,column 13,is_stmt
    2925 000002e7 56A7          LSL64     ACC:P,#8              ; [CPU_] |428| 
    2926                      .dwpsn  file "D:/BM1000/sw/modules/ctrl/src/32b/ctrl.h",line 1560,column 3,is_stmt
    2927 000002e8 1E92          MOVL      *+XAR2[AR0],ACC       ; [CPU_] |1560| 
    2928                      .dwpsn  file "D:/BM1000/sw/solutions/instaspin_foc/src/proj_lab05b.c",line 429,column 13,is_stmt
    2929 000002e9 9202-         MOV       AL,@_Flag_Latch_softwareUpdate ; [CPU_] |429| 
    2930 000002ea EC25          BF        $C$L20,EQ             ; [CPU_] |429| 
    2931                      ; branchcc occurs ; [] |429| 
    2932                      .dwpsn  file "D:/BM1000/sw/solutions/instaspin_foc/src/proj_lab05b.c",line 431,column 15,is_stmt
    2933 000002eb 2B02-         MOV       @_Flag_Latch_softwareUpdate,#0 ; [CPU_] |431| 
    2934                      .dwpsn  file "D:/BM1000/sw/solutions/instaspin_foc/src/proj_lab05b.c",line 433,column 15,is_stmt
    2935 000002ec 8AA2          MOVL      XAR4,XAR2             ; [CPU_] |433| 
    2936              $C$DW$325       .dwtag  DW_TAG_TI_branch
    2937                      .dwattr $C$DW$325, DW_AT_low_pc(0x00)
    2938                      .dwattr $C$DW$325, DW_AT_name("_USER_calcPIgains")
    2939                      .dwattr $C$DW$325, DW_AT_TI_call
    2940 000002ed 7640!         LCR       #_USER_calcPIgains    ; [CPU_] |433| 
         000002ee 0000 
    2941                      ; call occurs [#_USER_calcPIgains] ; [] |433| 
    2942 000002ef 761F-         MOVW      DP,#_ctrlHandle       ; [CPU_U] 
         000002f0 0000 
    2943                      .dwpsn  file "D:/BM1000/sw/solutions/instaspin_foc/src/proj_lab05b.c",line 436,column 15,is_stmt
    2944 000002f1 8612-         MOVL      XAR2,@_ctrlHandle     ; [CPU_] |436| 
    2945 000002f2 D0CA          MOVB      XAR0,#202             ; [CPU_] |436| 
    2946 000002f3 0692          MOVL      ACC,*+XAR2[AR0]       ; [CPU_] |436| 
    2947 000002f4 D04A          MOVB      XAR0,#74              ; [CPU_] |436| 
    2948 000002f5 1E93          MOVL      *+XAR3[AR0],ACC       ; [CPU_] |436| 
    2949                      .dwpsn  file "D:/BM1000/sw/solutions/instaspin_foc/src/proj_lab05b.c",line 437,column 15,is_stmt
    2950 000002f6 D0D0          MOVB      XAR0,#208             ; [CPU_] |437| 
    2951 000002f7 0692          MOVL      ACC,*+XAR2[AR0]       ; [CPU_] |437| 
    2952 000002f8 D04C          MOVB      XAR0,#76              ; [CPU_] |437| 
    2953 000002f9 1E93          MOVL      *+XAR3[AR0],ACC       ; [CPU_] |437| 
    2954                      .dwpsn  file "D:/BM1000/sw/solutions/instaspin_foc/src/proj_lab05b.c",line 440,column 15,is_stmt
    2955 000002fa D0CE          MOVB      XAR0,#206             ; [CPU_] |440| 
    2956 000002fb 0692          MOVL      ACC,*+XAR2[AR0]       ; [CPU_] |440| 
    2957 000002fc D046          MOVB      XAR0,#70              ; [CPU_] |440| 
    2958 000002fd 1E93          MOVL      *+XAR3[AR0],ACC       ; [CPU_] |440| 
    2959                      .dwpsn  file "D:/BM1000/sw/solutions/instaspin_foc/src/proj_lab05b.c",line 441,column 15,is_stmt
    2960 000002fe D0D4          MOVB      XAR0,#212             ; [CPU_] |441| 
    2961 000002ff 0692          MOVL      ACC,*+XAR2[AR0]       ; [CPU_] |441| 
    2962 00000300 D048          MOVB      XAR0,#72              ; [CPU_] |441| 
    2963 00000301 1E93          MOVL      *+XAR3[AR0],ACC       ; [CPU_] |441| 
    2964 00000302 6F0D          B         $C$L20,UNC            ; [CPU_] |441| 
    2965                      ; branch occurs ; [] |441| 
    2966 00000303       $C$L19:    
    2967                      .dwpsn  file "D:/BM1000/sw/solutions/instaspin_foc/src/proj_lab05b.c",line 450,column 13,is_stmt
    2968 00000303 D018          MOVB      XAR0,#24              ; [CPU_] |450| 
    2969 00000304 761F-         MOVW      DP,#_Flag_Latch_softwareUpdate ; [CPU_U] 
TMS320C2000 Assembler PC v6.2.5 Tue Sep 26 10:29:40 2017

Tools Copyright (c) 1996-2014 Texas Instruments Incorporated
C:\Users\wmj\AppData\Local\Temp\1168813                              PAGE   60

         00000305 0000 
    2970 00000306 8A91          MOVL      XAR4,*+XAR1[AR0]      ; [CPU_] |450| 
    2971                      .dwpsn  file "D:/BM1000/sw/solutions/instaspin_foc/src/proj_lab05b.c",line 447,column 13,is_stmt
    2972 00000307 56BF-         MOVB      @_Flag_Latch_softwareUpdate,#1,UNC ; [CPU_] |447| 
         00000308 0102 
    2973                      .dwpsn  file "D:/BM1000/sw/solutions/instaspin_foc/src/proj_lab05b.c",line 450,column 13,is_stmt
    2974              $C$DW$326       .dwtag  DW_TAG_TI_branch
    2975                      .dwattr $C$DW$326, DW_AT_low_pc(0x00)
    2976                      .dwattr $C$DW$326, DW_AT_name("_EST_getMaxCurrentSlope_pu")
    2977                      .dwattr $C$DW$326, DW_AT_TI_call
    2978 00000309 7640!         LCR       #_EST_getMaxCurrentSlope_pu ; [CPU_] |450| 
         0000030a 0000 
    2979                      ; call occurs [#_EST_getMaxCurrentSlope_pu] ; [] |450| 
    2980 0000030b 761F-         MOVW      DP,#_gMaxCurrentSlope ; [CPU_U] 
         0000030c 0000 
    2981 0000030d 8612-         MOVL      XAR2,@_ctrlHandle     ; [CPU_] |450| 
    2982 0000030e 1E0E-         MOVL      @_gMaxCurrentSlope,ACC ; [CPU_] |450| 
    2983 0000030f       $C$L20:    
    2984                      .dwpsn  file "D:/BM1000/sw/solutions/instaspin_foc/src/proj_lab05b.c",line 455,column 9,is_stmt
    2985 0000030f 9201-         MOV       AL,@_gCounter_updateGlobals ; [CPU_] |455| 
    2986 00000310 EC08          BF        $C$L21,EQ             ; [CPU_] |455| 
    2987                      ; branchcc occurs ; [] |455| 
    2988                      .dwpsn  file "D:/BM1000/sw/solutions/instaspin_foc/src/proj_lab05b.c",line 458,column 13,is_stmt
    2989 00000311 2B01-         MOV       @_gCounter_updateGlobals,#0 ; [CPU_] |458| 
