******************************************************************************
             TMS320C2000 Linker PC v6.2.5                      
******************************************************************************
>> Linked Thu Sep 21 15:03:51 2017

OUTPUT FILE NAME:   <proj_lab05b.out>
ENTRY POINT SYMBOL: "_c_int00"  address: 003f4144


MEMORY CONFIGURATION

         name            origin    length      used     unused   attr    fill
----------------------  --------  ---------  --------  --------  ----  --------
PAGE 0:
  P_RAML0               00008000   00000980  00000647  00000339  RWIX
  OTP                   003d7800   00000400  00000000  00000400  RWIX
  FLASHB_D              003f0000   00006000  00004461  00001b9f  RWIX
  D_FLASHA              003f6000   00001f80  0000028c  00001cf4  RWIX
  CSM_RSVD              003f7f80   00000076  00000000  00000076  RWIX
  BEGIN                 003f7ff6   00000002  00000002  00000000  RWIX
  CSM_PWL_P0            003f7ff8   00000008  00000000  00000008  RWIX
  IQTABLES              003fe000   00000b50  00000000  00000b50  RWIX
  IQTABLES2             003feb50   0000008c  00000000  0000008c  RWIX
  IQTABLES3             003febdc   000000aa  00000000  000000aa  RWIX
  ROM                   003ff27c   00000d44  00000000  00000d44  RWIX
  RESET                 003fffc0   00000002  00000000  00000002  RWIX
  VECTORS               003fffc2   0000003e  00000000  0000003e  RWIX

PAGE 1:
  RAMM0_M1              00000000   00000600  0000053a  000000c6  RWIX
  D_RAML0               00008980   00000680  00000200  00000480  RWIX


SECTION ALLOCATION MAP

 output                                  attributes/
section   page    origin      length       input sections
--------  ----  ----------  ----------   ----------------
.pinit     0    003f0000    00000000     UNINITIALIZED

ramfuncs   0    003f0000    00000647     RUN ADDR = 00008000
                  003f0000    0000052c     ctrl.obj (ramfuncs)
                  003f052c    000000c7     proj_lab05b.obj (ramfuncs:retain)
                  003f05f3    00000032     flash.obj (ramfuncs)
                  003f0625    0000001e     hal.obj (ramfuncs)
                  003f0643    00000004     usDelay.obj (ramfuncs)

.text      0    003f0647    00003cd1     
                  003f0647    00000e94     fast_public.lib : ctrl_priv.obj (.text)
                  003f14db    00000af5     user.obj (.text)
                  003f1fd0    00000976     hal.obj (.text)
                  003f2946    00000462     ctrl.obj (.text)
                  003f2da8    00000363     proj_lab05b.obj (.text)
                  003f310b    000002f1     pwm.obj (.text)
                  003f33fc    000001f8     adc.obj (.text)
                  003f35f4    00000196     mb.obj (.text)
                  003f378a    00000168     gpio.obj (.text)
                  003f38f2    00000135     pca9555.obj (.text)
                  003f3a27    0000012b     clk.obj (.text)
                  003f3b52    0000010e     pie.obj (.text)
                  003f3c60    000000ef     sci.obj (.text)
                  003f3d4f    000000d9     process_ctrl.obj (.text)
                  003f3e28    000000d7     i2c.obj (.text)
                  003f3eff    000000a9     spi.obj (.text)
                  003f3fa8    0000006f     proj_lab05b.obj (.text:retain)
                  003f4017    0000005b     pll.obj (.text)
                  003f4072    00000047     pwr.obj (.text)
                  003f40b9    00000046     wdog.obj (.text)
                  003f40ff    00000045     offset.obj (.text)
                  003f4144    00000044     rts2800_ml.lib : boot.obj (.text)
                  003f4188    00000035     timer.obj (.text)
                  003f41bd    0000002d     osc.obj (.text)
                  003f41ea    0000002a     rts2800_ml.lib : l_div.obj (.text)
                  003f4214    00000027     cpu.obj (.text)
                  003f423b    00000021     filter_fo.obj (.text)
                  003f425c    00000021     rts2800_ml.lib : fs_toul.obj (.text)
                  003f427d    00000020     flash.obj (.text)
                  003f429d    0000001d     rts2800_ml.lib : fs_tou.obj (.text)
                  003f42ba    00000019                    : args_main.obj (.text)
                  003f42d3    00000019                    : exit.obj (.text)
                  003f42ec    00000010     memCopy.obj (.text)
                  003f42fc    00000009     rts2800_ml.lib : _lock.obj (.text)
                  003f4305    00000008     CodeStartBranch.obj (.text)
                  003f430d    00000006     brake.obj (.text)
                  003f4313    00000005     pie.obj (.text:retain)

.cinit     0    003f4318    00000149     
                  003f4318    0000009d     proj_lab05b.obj (.cinit)
                  003f43b5    00000087     user.obj (.cinit)
                  003f443c    0000000f     ldc1612.obj (.cinit)
                  003f444b    0000000a     rts2800_ml.lib : _lock.obj (.cinit)
                  003f4455    0000000a                    : exit.obj (.cinit)
                  003f445f    00000002     --HOLE-- [fill = 0]

.econst    0    003f6000    0000028c     
                  003f6000    00000100     mb.obj (.econst:.string:_aucCRCHi)
                  003f6100    00000100     mb.obj (.econst:.string:_aucCRCLo)
                  003f6200    0000005c     fast_public.lib : ctrl_priv.obj (.econst)
                  003f625c    0000001c     ctrl.obj (.econst)
                  003f6278    00000008     user.obj (.econst)
                  003f6280    00000004     hal.obj (.econst)
                  003f6284    00000004     process_ctrl.obj (.econst)
                  003f6288    00000004     proj_lab05b.obj (.econst)

codestart 
*          0    003f7ff6    00000002     
                  003f7ff6    00000002     CodeStartBranch.obj (codestart)

.reset     0    003fffc0    00000002     DSECT
                  003fffc0    00000002     rts2800_ml.lib : boot.obj (.reset)

vectors    0    003fffc2    00000000     DSECT

.ebss      1    00000000    00000484     UNINITIALIZED
                  00000000    000003d2     proj_lab05b.obj (.ebss)
                  000003d2    00000008     ldc1612.obj (.ebss)
                  000003da    00000004     mb.obj (.ebss)
                  000003de    00000004     rts2800_ml.lib : _lock.obj (.ebss)
                  000003e2    00000004                    : exit.obj (.ebss)
                  000003e6    00000002     pca9555.obj (.ebss)
                  000003e8    00000001     cpu.obj (.ebss)
                  000003e9    00000001     oled.obj (.ebss)
                  000003ea    00000016     --HOLE--
                  00000400    00000084     user.obj (.ebss)

rom_accessed_data 
*          1    000004c0    000000b6     UNINITIALIZED
                  000004c0    000000b6     hal.obj (rom_accessed_data)

.stack     1    00008980    00000200     UNINITIALIZED
                  00008980    00000200     --HOLE--


GLOBAL DATA SYMBOLS: SORTED BY DATA PAGE

address     data page           name
--------    ----------------    ----
00000000       0 (00000000)     _gLEDcnt
00000001       0 (00000000)     _gCounter_updateGlobals
00000002       0 (00000000)     _Flag_Latch_softwareUpdate
00000004       0 (00000000)     _gTorque_Flux_Iq_pu_to_Nm_sf
00000006       0 (00000000)     _gTorque_Ls_Id_Iq_pu_to_Nm_sf
00000008       0 (00000000)     _gFlux_pu_to_Wb_sf
0000000a       0 (00000000)     _gFlux_pu_to_VpHz_sf
0000000c       0 (00000000)     _DispData
0000000e       0 (00000000)     _gMaxCurrentSlope
00000010       0 (00000000)     _rdataA
00000012       0 (00000000)     _ctrlHandle
00000014       0 (00000000)     _halHandle
00000016       0 (00000000)     _MyMBhandle
00000018       0 (00000000)     _proctrlHandle
0000001a       0 (00000000)     _sdataA
0000001c       0 (00000000)     _gPwmData
00000022       0 (00000000)     _gAdcData

00000040       1 (00000040)     _My_ModBus

00000080       2 (00000080)     _gMotorVars

00000100       4 (00000100)     _gUserParams

000001c0       7 (000001c0)     _MyProcessCtrl

000002c0       b (000002c0)     _ctrl

000003de       f (000003c0)     __unlock
000003e0       f (000003c0)     __lock
000003e2       f (000003c0)     ___TI_cleanup_ptr
000003e4       f (000003c0)     ___TI_dtors_ptr
000003e8       f (000003c0)     _cpu

00000400      10 (00000400)     _MOTOR_DATA

000004c0      13 (000004c0)     _hal

00008980     226 (00008980)     __stack

003f6000    fd80 (003f6000)     _aucCRCHi

003f6100    fd84 (003f6100)     _aucCRCLo


GLOBAL SYMBOLS: SORTED ALPHABETICALLY BY Name 

address    name
--------   ----
003f0647   .text
003f42d3   C$$EXIT
003fdc5e   FD$$MPY
003fdf7b   FD$$TOL
003fdeb8   FS$$ADD
003fdf2b   FS$$CMP
003fdce1   FS$$DIV
003fdde7   FS$$MPY
003fff4d   FS$$NEG
003fdfb7   FS$$TOFD
003fff0e   FS$$TOI
003f429d   FS$$TOU
003f425c   FS$$TOUL
003fff33   I$$TOFS
003f41ea   L$$DIV
003f41f9   L$$MOD
003ff8bd   U$$TOFS
003f4207   UL$$DIV
003f420e   UL$$MOD
003ff8aa   UL$$TOFS
003f35e9   _ADC_disable
003f35de   _ADC_disableBandGap
003f35c3   _ADC_disableInt
003f35b8   _ADC_disableNoOverlapMode
003f35ad   _ADC_disableRefBuffers
003f35a2   _ADC_disableVoltRefLoConv
003f3597   _ADC_enable
003f358c   _ADC_enableBandGap
003f3575   _ADC_enableInt
003f356a   _ADC_enableNoOverlapMode
003f355f   _ADC_enableRefBuffers
003f3554   _ADC_enableVoltRefLoConv
003f354f   _ADC_getDivideSelect
003f3548   _ADC_init
003f353d   _ADC_powerDown
003f3532   _ADC_powerUp
003f3527   _ADC_reset
003f3515   _ADC_setDivideSelect
003f34f8   _ADC_setIntMode
003f34e6   _ADC_setIntPulseGenMode
003f34c9   _ADC_setIntSrc
003f34c2   _ADC_setOffTrim
003f34aa   _ADC_setSampleMode
003f3495   _ADC_setSampleOverlapMode
003f3482   _ADC_setSocChanNumber
003f3478   _ADC_setSocFrc
003f3471   _ADC_setSocFrcWord
003f345e   _ADC_setSocSampleDelay
003f344b   _ADC_setSocTrigSrc
003f3439   _ADC_setTempSensorSrc
003f3427   _ADC_setVoltRefSrc
003f33fc   _ADC_setupSocTrigSrc
003f430d   _Brake_init
003f3b4b   _CLK_disableAdcClock
003f3b45   _CLK_disableClkIn
003f3b41   _CLK_disableCompClock
003f3b3a   _CLK_disableCpuTimerClock
003f3b34   _CLK_disableCrystalOsc
003f3b2d   _CLK_disableEcap1Clock
003f3b26   _CLK_disableGpioInputClock
003f3b1f   _CLK_disableHrPwmClock
003f3b18   _CLK_disableI2cClock
003f3b12   _CLK_disableOsc1
003f3b0c   _CLK_disableOsc1HaltMode
003f3b06   _CLK_disableOsc2
003f3b00   _CLK_disableOsc2HaltMode
003f3af6   _CLK_disablePwmClock
003f3aef   _CLK_disableSciaClock
003f3ae8   _CLK_disableSpiaClock
003f3ae1   _CLK_disableTbClockSync
003f3adb   _CLK_disableWatchDogHaltMode
003f3ad4   _CLK_enableAdcClock
003f3ace   _CLK_enableClkIn
003f3ac8   _CLK_enableCompClock
003f3ac2   _CLK_enableCpuTimerClock
003f3abc   _CLK_enableCrystalOsc
003f3ab5   _CLK_enableEcap1Clock
003f3aae   _CLK_enableGpioInputClock
003f3aa7   _CLK_enableHrPwmClock
003f3aa0   _CLK_enableI2cClock
003f3a9a   _CLK_enableOsc1
003f3a94   _CLK_enableOsc1HaltMode
003f3a8e   _CLK_enableOsc2
003f3a88   _CLK_enableOsc2HaltMode
003f3a7f   _CLK_enablePwmClock
003f3a78   _CLK_enableSciaClock
003f3a71   _CLK_enableSpiaClock
003f3a6a   _CLK_enableTbClockSync
003f3a64   _CLK_enableWatchDogHaltMode
003f3a5e   _CLK_init
003f3a57   _CLK_setClkOutPreScaler
003f3a51   _CLK_setLowSpdPreScaler
003f3a4a   _CLK_setOsc2Src
003f3a43   _CLK_setOscSrc
003f3a3c   _CLK_setTimer2PreScale
003f3a35   _CLK_setTimer2Src
003f3a2e   _CLK_setWatchDogSrc
003f3a27   _CLK_setXClkInSrc
003f4238   _CPU_clearIntFlags
003f4235   _CPU_disableDebugInt
003f4232   _CPU_disableGlobalInts
003f422d   _CPU_disableInt
003f422a   _CPU_disableInts
003f4227   _CPU_disableProtectedRegisterWrite
003f4224   _CPU_enableDebugInt
003f4221   _CPU_enableGlobalInts
003f421d   _CPU_enableInt
003f421a   _CPU_enableProtectedRegisterWrite
003f4214   _CPU_init
003f2d6c   _CTRL_getGains
003f2d64   _CTRL_getIab_filt_pu
003f2d5c   _CTRL_getIab_in_pu
003f2d54   _CTRL_getIdq_in_pu
003f2d4c   _CTRL_getIdq_ref_pu
003f2da5   _CTRL_getMagCurrent_pu
003f2da2   _CTRL_getMaximumSpeed_pu
003f2d44   _CTRL_getVab_in_pu
003f2d3c   _CTRL_getVab_out_pu
003f2d34   _CTRL_getVdq_out_pu
003f14d1   _CTRL_getVersion
003f2d2b   _CTRL_getWaitTimes
003fd88b   _CTRL_initCtrl
0000800a   _CTRL_run
003f1405   _CTRL_runTraj
003f2aa6   _CTRL_setBrake
003f0c9f   _CTRL_setEstParams
003f2ab5   _CTRL_setGains
003f2d9c   _CTRL_setMagCurrent_pu
003f2d9f   _CTRL_setMaximumSpeed_pu
003f2add   _CTRL_setParams
003f2a93   _CTRL_setSpd_ref_krpm
003f2a90   _CTRL_setSpd_ref_pu
003f0b6c   _CTRL_setUserMotorParams
003f2a87   _CTRL_setWaitTimes
00008000   _CTRL_setup
003f2a6b   _CTRL_setupClarke_I
003f2a55   _CTRL_setupClarke_V
003f0984   _CTRL_setupCtrl
003f07e6   _CTRL_setupEstIdleState
003f07ab   _CTRL_setupEstOnLineState
003f0647   _CTRL_setupTraj
003f29f8   _CTRL_setup_user
003f2946   _CTRL_updateState
0000000c   _DispData
003fd9e5   _EST_Angle_setParams
003fd922   _EST_Dir_setParams
003fd1e8   _EST_EPL_setParams
003fd9b0   _EST_Flux_ab_setParams
003fd514   _EST_Flux_computeOneOverFlux_qFmt
003fda3b   _EST_Flux_dq_setParams
003fd49c   _EST_Flux_getRatedFlux_pu
003fd42e   _EST_Flux_setParams
003fd41e   _EST_Flux_setWaitTimes
003fd95c   _EST_Freq_setParams
003fd1be   _EST_I_setParams
003fd9cc   _EST_Iab_setParams
003fda1e   _EST_Idq_setParams
003fd3a8   _EST_Ls_getLs_d
003fd2b6   _EST_Ls_setLs_d
003fd284   _EST_Ls_setLs_q
003fd247   _EST_Ls_setParams
003fd237   _EST_Ls_setWaitTimes
003fda0d   _EST_OneOverDcBus_setParams
003fd7e9   _EST_Rr_setParams
003fd788   _EST_Rr_setRr
003fd57d   _EST_RsOnLine_setFilterParams
003fd54d   _EST_RsOnLine_setParams
003fd767   _EST_Rs_getRs
003fd725   _EST_Rs_setParams
003fd6c3   _EST_Rs_setRs
003fd6b3   _EST_Rs_setWaitTimes
003fd1af   _EST_TRAJ_setParams
003fda53   _EST_Vab_setParams
003fda47   _EST_Vback_ab_setParams
003fda5e   _EST_Vback_dq_setParams
003fd9fb   _EST_Vdq_setParams
003fc092   _EST_computeDirection_qFmt
003fd16d   _EST_computeL
003fd14d   _EST_computeR
003fd145   _EST_doCurrentCtrl
003fd13d   _EST_doSpeedCtrl
003fc5f2   _EST_getAngle_pu
003fd0a3   _EST_getFlux_VpHz
003fd090   _EST_getFlux_pu
003fd073   _EST_getFm_pu
003fc062   _EST_getFullScaleCurrent
003fd043   _EST_getFullScaleFlux
003fcc5c   _EST_getFullScaleFreq
003fc4d1   _EST_getFullScaleInductance
003fc08e   _EST_getFullScaleVoltage
003fd017   _EST_getIdRated
003fcfe4   _EST_getLs_coarse_max_pu
003fcfda   _EST_getLs_d_H
003fcfd5   _EST_getLs_d_pu
003fcfb3   _EST_getLs_q_H
003fcfae   _EST_getLs_q_pu
003fcfa2   _EST_getMaxCurrentSlope_pu
003fcf98   _EST_getOneOverDcBus_pu
003fcf92   _EST_getRr_Ohm
003fcef8   _EST_getRs_Ohm
003fceab   _EST_getSpeed_krpm
003fc000   _EST_getState
003fce3d   _EST_get_krpm_to_pu_sf
003fce38   _EST_get_pu_to_krpm_sf
003fcd72   _EST_isError
003fcd6b   _EST_isIdle
003fcd64   _EST_isLockRotor
003fc05e   _EST_isMotorIdentified
003fcd5d   _EST_isOnLine
003fc5ed   _EST_resetCounter_ctrl
003fc05a   _EST_resetCounter_state
003fcc60   _EST_run
003fc5da   _EST_setDir_qFmt
003fc5cd   _EST_setFe_neg_max_pu
003fc5c9   _EST_setFe_pos_min_pu
003fc5c5   _EST_setFlag_enableFluxControl
003fc5c0   _EST_setFlag_enableForceAngle
003fc5bc   _EST_setFlag_enableRsOnLine
003fc5b8   _EST_setFlag_enableRsRecalc
003fc5b4   _EST_setFlag_estComplete
003fc5b0   _EST_setFlag_updateRs
003fc594   _EST_setFullScaleCurrent
003fc58b   _EST_setFullScaleFreq
003fc573   _EST_setFullScaleResistance
003fc56f   _EST_setFullScaleVoltage
003fc569   _EST_setIdRated_pu
003fc565   _EST_setId_ref_pu
003fc55f   _EST_setIdle
003fc54c   _EST_setIdle_all
003fc548   _EST_setIq_ref_pu
003fc52a   _EST_setLs_d_pu
003fc4d6   _EST_setLs_qFmt
003fc4cc   _EST_setLs_q_pu
003fc4c0   _EST_setMaxCurrentSlope_pu
003fc4bb   _EST_setMotorParams
003fc3fd   _EST_setRs_pu
003fc3e2   _EST_setWaitTimes
003fc3da   _EST_updateId_ref_pu
003fc0f8   _EST_updateState
003fc002   _EST_useZeroIq_ref
003f4259   _FILTER_FO_getDenCoeffs
003f4252   _FILTER_FO_getInitialConditions
003f424c   _FILTER_FO_getNumCoeffs
003f4246   _FILTER_FO_init
003f4244   _FILTER_FO_setDenCoeffs
003f423f   _FILTER_FO_setInitialConditions
003f423b   _FILTER_FO_setNumCoeffs
003f4297   _FLASH_clear3VStatus
0000861f   _FLASH_disablePipelineMode
00008619   _FLASH_enablePipelineMode
003f4294   _FLASH_get3VStatus
003f4291   _FLASH_getActiveWaitCount
003f428d   _FLASH_getActiveWaitStatus
003f428a   _FLASH_getPowerMode
003f4287   _FLASH_getStandbyWaitCount
003f4283   _FLASH_getStandbyWaitStatus
003f427d   _FLASH_init
00008614   _FLASH_setActiveWaitCount
0000860d   _FLASH_setNumPagedReadWaitStates
00008606   _FLASH_setNumRandomReadWaitStates
000085ff   _FLASH_setOtpWaitStates
000085f8   _FLASH_setPowerMode
000085f3   _FLASH_setStandbyWaitCount
00000002   _Flag_Latch_softwareUpdate
003f38e2   _GPIO_getData
003f38db   _GPIO_getPortData
003f38d5   _GPIO_init
003f38cb   _GPIO_lpmSelect
003f38a5   _GPIO_read
003f388a   _GPIO_setDirection
003f387f   _GPIO_setExtInt
003f386c   _GPIO_setHigh
003f3859   _GPIO_setLow
003f3828   _GPIO_setMode
003f381c   _GPIO_setPortData
003f3801   _GPIO_setPullUp
003f37c8   _GPIO_setQualification
003f379d   _GPIO_setQualificationPeriod
003f378a   _GPIO_toggle
003f23d8   _HAL_AdcCalChanSelect
003f242f   _HAL_AdcCalConversion
003f2587   _HAL_AdcOffsetSelfCal
003f25b6   _HAL_GetBoardNum
003f26b0   _HAL_OscTempComp
003f2703   _HAL_cal
003f2942   _HAL_disableGlobalInts
003f2833   _HAL_disableWdog
003f2931   _HAL_enableAdcInts
003f292d   _HAL_enableDebugInt
003f2929   _HAL_enableGlobalInts
003f2918   _HAL_enablePwmInt
003f28fb   _HAL_enableSciaInt
003f28e9   _HAL_enableTimer1Int
003f261e   _HAL_getOscTrimValue
003f2838   _HAL_init
003f2632   _HAL_osc1Comp
003f2671   _HAL_osc2Comp
003f281e   _HAL_setDacParameters
003f271d   _HAL_setParams
003f22e2   _HAL_setupAdcs
003f22c6   _HAL_setupClks
003f22aa   _HAL_setupFaults
00008625   _HAL_setupFlash
003f220c   _HAL_setupGpios
003f21f0   _HAL_setupI2cs
003f21bb   _HAL_setupPeripheralClks
003f219f   _HAL_setupPie
003f2161   _HAL_setupPll
003f2099   _HAL_setupPwms
003f2057   _HAL_setupScia
003f2021   _HAL_setupSpiA
003f1fd0   _HAL_setupTimers
003f3e77   _I2C_MasterControl
003f3eb9   _I2C_RdData
003f3eab   _I2C_SendData
003f3e7c   _I2C_WrData
003f3e73   _I2C_clearRxFifoInt
003f3e6f   _I2C_clearTxFifoInt
003f3e6b   _I2C_disable
003f3e67   _I2C_disableFifo
003f3e64   _I2C_disableInt
003f3e60   _I2C_enable
003f3e5c   _I2C_enableFifo
003f3e5a   _I2C_enableInt
003f3e58   _I2C_getData
003f3e55   _I2C_getIntSource
003f3e53   _I2C_getStatus
003f3e4d   _I2C_init
003f3e49   _I2C_isMasterBusy
003f3e46   _I2C_putData
003f3e42   _I2C_resetRxFifo
003f3e3e   _I2C_resetTxFifo
003f3e3a   _I2C_setMaster
003f3e38   _I2C_setMasterSlaveAddr
003f3e2f   _I2C_setSlave
003f3e33   _I2C_setSlaveAddress
003f3e28   _I2C_setupClock
003f3660   _MB_CRC16
003f3734   _MB_FuncReadHoldingRegister
003f3733   _MB_FuncWriteHoldingRegister
003f3749   _MB_Poll
003f3726   _MB_PortEventGet
003f3723   _MB_PortEventInit
003f3600   _MB_PortEventPost
003f3606   _MB_PortSerialEnable
003f36c8   _MB_PortSerialGetByte
003f361f   _MB_PortSerialPutByte
003f364b   _MB_PortTimersDisable
003f36d1   _MB_PortTimersEnable
003f3711   _MB_RTUReceive
003f36de   _MB_RTUReceiveFSM
003f3682   _MB_RTUSend
003f364f   _MB_RTUTimerFSM
003f3624   _MB_RTUTransmitFSM
003f35fa   _MB_init
003f35f8   _MB_setGpioHandle
003f35f6   _MB_setSciHandle
003f35f4   _MB_setTimHandle
00000400   _MOTOR_DATA
00000016   _MyMBhandle
000001c0   _MyProcessCtrl
00000040   _My_ModBus
003f4137   _OFFSET_getBeta
003f4126   _OFFSET_init
003f4110   _OFFSET_setBeta
003f4101   _OFFSET_setInitCond
003f40ff   _OFFSET_setOffset
003f41e4   _OSC_init
003f41d7   _OSC_setCoarseTrim
003f41c6   _OSC_setFineTrim
003f41bd   _OSC_setTrim
003f3a1f   _PCA955x_Configure
003f39e3   _PCA955x_GetStatus
003f39d8   _PCA955x_Init
003f394f   _PCA955x_RdData
003f39d5   _PCA955x_ReadStatus
003f38f4   _PCA955x_WrData
003f3947   _PCA955x_WriteCommand
003f38f2   _PCA955x_setI2cHandle
003f3c56   _PIE_clearAllFlags
003f3c53   _PIE_clearAllInts
003f3c50   _PIE_disable
003f3c46   _PIE_disableAllInts
003f3c42   _PIE_disableCaptureInt
003f3c35   _PIE_disableExtInt
003f3c2a   _PIE_disableInt
003f3c27   _PIE_enable
003f3c0b   _PIE_enableAdcInt
003f3c07   _PIE_enableCaptureInt
003f3be4   _PIE_enableExtInt
003f3bda   _PIE_enableInt
003f3bd5   _PIE_enablePwmInt
003f3bd0   _PIE_enablePwmTzInt
003f3bcd   _PIE_enableTimer0Int
003f3bc3   _PIE_forceInt
003f3bbb   _PIE_getExtIntCount
003f3bb4   _PIE_getIntEnables
003f3bad   _PIE_getIntFlags
003f4313   _PIE_illegalIsr
003f3ba6   _PIE_init
003f3b97   _PIE_registerPieIntHandler
003f3b8c   _PIE_registerSystemIntHandler
003f3b80   _PIE_setDefaultIntVectorTable
003f3b70   _PIE_setExtIntPolarity
003f3b5f   _PIE_unregisterPieIntHandler
003f3b52   _PIE_unregisterSystemIntHandler
003f406c   _PLL_disable
003f4066   _PLL_disableClkDetect
003f4060   _PLL_disableNormRdy
003f405a   _PLL_disableOsc
003f4054   _PLL_enable
003f404e   _PLL_enableClkDetect
003f4048   _PLL_enableNormRdy
003f4042   _PLL_enableOsc
003f403e   _PLL_getClkFreq
003f403b   _PLL_getClkStatus
003f4038   _PLL_getDivideSelect
003f4035   _PLL_getLockStatus
003f402f   _PLL_init
003f4029   _PLL_resetClkDetect
003f4023   _PLL_setClkFreq
003f401c   _PLL_setDivideSelect
003f4017   _PLL_setLockPeriod
003f3e22   _PROCTRL_init
003f3e20   _PROCTRL_setHalHandle
003f3dfe   _PROCTRL_setParams
003f33f6   _PWM_clearTripZone
003f33f3   _PWM_decrementDeadBandFallingEdgeDelay
003f33f0   _PWM_decrementDeadBandRisingEdgeDelay
003f33e9   _PWM_disableAutoConvert
003f33e5   _PWM_disableChopping
003f33e2   _PWM_disableCounterLoad
003f33df   _PWM_disableDeadBand
003f33db   _PWM_disableDeadBandHalfCycle
003f33d4   _PWM_disableDigitalCompareBlankingWindow
003f33cd   _PWM_disableDigitalCompareBlankingWindowInversion
003f33c6   _PWM_disableHrPeriod
003f33bf   _PWM_disableHrPhaseSync
003f33bb   _PWM_disableInt
003f33b7   _PWM_disableSocAPulse
003f33b3   _PWM_disableSocBPulse
003f33ac   _PWM_disableTripZoneInt
003f33a5   _PWM_disableTripZoneSrc
003f339f   _PWM_disableTripZones
003f3398   _PWM_enableAutoConvert
003f3394   _PWM_enableChopping
003f3391   _PWM_enableCounterLoad
003f338d   _PWM_enableDeadBandHalfCycle
003f3386   _PWM_enableDigitalCompareBlankingWindow
003f337f   _PWM_enableDigitalCompareBlankingWindowInversion
003f3378   _PWM_enableHrPeriod
003f3371   _PWM_enableHrPhaseSync
003f336d   _PWM_enableInt
003f3369   _PWM_enableSocAPulse
003f3365   _PWM_enableSocBPulse
003f335f   _PWM_enableTripZoneInt
003f3359   _PWM_enableTripZoneSrc
003f3356   _PWM_getDeadBandFallingEdgeDelay
003f3353   _PWM_getDeadBandRisingEdgeDelay
003f334f   _PWM_getIntCount
003f334b   _PWM_getShadowStatus_CmpA
003f3347   _PWM_getShadowStatus_CmpB
003f3342   _PWM_getSocACount
003f333d   _PWM_getSocBCount
003f333a   _PWM_incrementDeadBandFallingEdgeDelay
003f3337   _PWM_incrementDeadBandRisingEdgeDelay
003f3331   _PWM_init
003f332a   _PWM_setActionQualContSWForce_PwmA
003f3321   _PWM_setActionQualContSWForce_PwmB
003f3318   _PWM_setActionQual_CntDown_CmpA_PwmA
003f330f   _PWM_setActionQual_CntDown_CmpA_PwmB
003f3306   _PWM_setActionQual_CntDown_CmpB_PwmA
003f32fd   _PWM_setActionQual_CntDown_CmpB_PwmB
003f32f4   _PWM_setActionQual_CntUp_CmpA_PwmA
003f32eb   _PWM_setActionQual_CntUp_CmpA_PwmB
003f32e2   _PWM_setActionQual_CntUp_CmpB_PwmA
003f32d9   _PWM_setActionQual_CntUp_CmpB_PwmB
003f32d0   _PWM_setActionQual_Period_PwmA
003f32c7   _PWM_setActionQual_Period_PwmB
003f32c0   _PWM_setActionQual_Zero_PwmA
003f32b9   _PWM_setActionQual_Zero_PwmB
003f32b2   _PWM_setChoppingClkFreq
003f32ab   _PWM_setChoppingDutyCycle
003f32a4   _PWM_setChoppingPulseWidth
003f32a0   _PWM_setClkDiv
003f329e   _PWM_setCount
003f329a   _PWM_setCounterMode
003f3297   _PWM_setDeadBandFallingEdgeDelay
003f3290   _PWM_setDeadBandInputMode
003f3289   _PWM_setDeadBandOutputMode
003f3282   _PWM_setDeadBandPolarity
003f327f   _PWM_setDeadBandRisingEdgeDelay
003f3268   _PWM_setDigitalCompareAEvent1
003f3258   _PWM_setDigitalCompareAEvent2
003f3241   _PWM_setDigitalCompareBEvent1
003f3231   _PWM_setDigitalCompareBEvent2
003f3225   _PWM_setDigitalCompareBlankingPulse
003f3222   _PWM_setDigitalCompareFilterOffset
003f3218   _PWM_setDigitalCompareFilterSource
003f3215   _PWM_setDigitalCompareFilterWindow
003f3206   _PWM_setDigitalCompareInput
003f3202   _PWM_setHighSpeedClkDiv
003f31f8   _PWM_setHrControlMode
003f31ee   _PWM_setHrEdgeMode
003f31e4   _PWM_setHrShadowMode
003f31dd   _PWM_setIntMode
003f31d6   _PWM_setIntPeriod
003f31d2   _PWM_setLoadMode_CmpA
003f31cc   _PWM_setLoadMode_CmpB
003f31ca   _PWM_setPeriod
003f31c5   _PWM_setPeriodHr
003f31c1   _PWM_setPeriodLoad
003f31bf   _PWM_setPhase
003f31bb   _PWM_setPhaseDir
003f31b7   _PWM_setRunMode
003f31b1   _PWM_setShadowMode_CmpA
003f31ab   _PWM_setShadowMode_CmpB
003f31a2   _PWM_setSocAPeriod
003f3198   _PWM_setSocAPulseSrc
003f318f   _PWM_setSocBPeriod
003f3186   _PWM_setSocBPulseSrc
003f3183   _PWM_setSwSync
003f317f   _PWM_setSyncMode
003f3175   _PWM_setTripZoneDCEventSelect_DCAEVT1
003f3169   _PWM_setTripZoneDCEventSelect_DCAEVT2
003f315d   _PWM_setTripZoneDCEventSelect_DCBEVT1
003f3151   _PWM_setTripZoneDCEventSelect_DCBEVT2
003f3145   _PWM_setTripZoneState_DCAEVT1
003f3139   _PWM_setTripZoneState_DCAEVT2
003f312d   _PWM_setTripZoneState_DCBEVT1
003f3121   _PWM_setTripZoneState_DCBEVT2
003f3117   _PWM_setTripZoneState_TZA
003f310b   _PWM_setTripZoneState_TZB
003f40b6   _PWR_disableBrownOutReset
003f40ab   _PWR_disableWatchDogInt
003f40a8   _PWR_enableBrownOutReset
003f409d   _PWR_enableWatchDogInt
003f4096   _PWR_init
003f4084   _PWR_setLowPowerMode
003f4072   _PWR_setNumStandByClocks
003f0647   _RamfuncsLoadEnd
003f0000   _RamfuncsLoadStart
00008000   _RamfuncsRunStart
003f3d4b   _SCI_clearAutoBaudDetect
003f3d47   _SCI_clearRxFifoInt
003f3d43   _SCI_clearRxFifoOvf
003f3d3f   _SCI_clearTxFifoInt
003f3d3c   _SCI_disable
003f3d38   _SCI_disableAutoBaudAlign
003f3d35   _SCI_disableLoopBack
003f3d32   _SCI_disableParity
003f3d2f   _SCI_disableRx
003f3d2c   _SCI_disableRxErrorInt
003f3d28   _SCI_disableRxFifoInt
003f3d25   _SCI_disableRxInt
003f3d22   _SCI_disableSleep
003f3d1f   _SCI_disableTx
003f3d1b   _SCI_disableTxFifoEnh
003f3d17   _SCI_disableTxFifoInt
003f3d14   _SCI_disableTxInt
003f3d11   _SCI_disableTxWake
003f3d0e   _SCI_enable
003f3d0a   _SCI_enableAutoBaudAlign
003f3d06   _SCI_enableChannels
003f3d03   _SCI_enableLoopBack
003f3d00   _SCI_enableParity
003f3cfd   _SCI_enableRx
003f3cfa   _SCI_enableRxErrorInt
003f3cf6   _SCI_enableRxFifo
003f3cf2   _SCI_enableRxFifoInt
003f3cef   _SCI_enableRxInt
003f3cec   _SCI_enableSleep
003f3ce9   _SCI_enableTx
003f3ce5   _SCI_enableTxFifo
003f3ce1   _SCI_enableTxFifoEnh
003f3cdd   _SCI_enableTxFifoInt
003f3cda   _SCI_enableTxInt
003f3cd7   _SCI_enableTxWake
003f3cd3   _SCI_getDataBlocking
003f3cca   _SCI_getDataNonBlocking
003f3cc6   _SCI_getRxFifoStatus
003f3cc2   _SCI_getTxFifoStatus
003f3cbc   _SCI_init
003f3cb7   _SCI_putDataBlocking
003f3caf   _SCI_putDataNonBlocking
003f3cac   _SCI_reset
003f3ca2   _SCI_resetChannels
003f3c98   _SCI_resetRxFifo
003f3c8e   _SCI_resetTxFifo
003f3c88   _SCI_setBaudRate
003f3c84   _SCI_setCharLength
003f3c80   _SCI_setMode
003f3c7c   _SCI_setNumStopBits
003f3c78   _SCI_setParity
003f3c75   _SCI_setPriority
003f3c6e   _SCI_setRxFifoIntLevel
003f3c67   _SCI_setTxDelay
003f3c60   _SCI_setTxFifoIntLevel
003f3fa4   _SPI_clearRxFifoInt
003f3fa0   _SPI_clearRxFifoOvf
003f3f9c   _SPI_clearTxFifoInt
003f3f99   _SPI_disableInt
003f3f96   _SPI_disableLoopBack
003f3f93   _SPI_disableOverRunInt
003f3f8f   _SPI_disableRxFifoInt
003f3f8c   _SPI_disableTx
003f3f88   _SPI_disableTxFifoEnh
003f3f84   _SPI_disableTxFifoInt
003f3f81   _SPI_enable
003f3f7d   _SPI_enableChannels
003f3f7a   _SPI_enableInt
003f3f77   _SPI_enableLoopBack
003f3f74   _SPI_enableOverRunInt
003f3f70   _SPI_enableRxFifo
003f3f6c   _SPI_enableRxFifoInt
003f3f69   _SPI_enableTx
003f3f65   _SPI_enableTxFifo
003f3f61   _SPI_enableTxFifoEnh
003f3f5d   _SPI_enableTxFifoInt
003f3f5a   _SPI_getIntFlagStatus
003f3f56   _SPI_getRxFifoStatus
003f3f53   _SPI_getTxBufferStatus
003f3f4f   _SPI_getTxFifoStatus
003f3f49   _SPI_init
003f3f46   _SPI_reset
003f3f42   _SPI_resetChannels
003f3f3e   _SPI_resetRxFifo
003f3f3a   _SPI_resetTxFifo
003f3f38   _SPI_setBaudRate
003f3f34   _SPI_setCharLength
003f3f32   _SPI_setClkPhase
003f3f2e   _SPI_setClkPolarity
003f3f2c   _SPI_setMode
003f3f25   _SPI_setPriority
003f3f1e   _SPI_setRxFifoIntLevel
003f3f17   _SPI_setSteInv
003f3f10   _SPI_setSuspend
003f3f09   _SPI_setTriWire
003f3f06   _SPI_setTxDelay
003f3eff   _SPI_setTxFifoIntLevel
003f41ba   _TIMER_clearFlag
003f41b7   _TIMER_disableInt
003f41b4   _TIMER_enableInt
003f41b1   _TIMER_getStatus
003f41ab   _TIMER_init
003f419d   _TIMER_setDecimationFactor
003f4199   _TIMER_setEmulationMode
003f418b   _TIMER_setPreScaler
003f4188   _TIMER_setReloadBit
003f3ff9   _Timer1ISR
003f3fcd   _UART_RxISR
003f3fa8   _UART_TxReadyISR
003f1f1f   _USER_calcPIgains
003f1f1e   _USER_checkDefErrors
003f1971   _USER_checkForErrors
003f1963   _USER_computeFlux
003f1904   _USER_computeFlux_pu_to_VpHz_sf
003f18a5   _USER_computeFlux_pu_to_Wb_sf
003f1831   _USER_computeTorque_Flux_Iq_pu_to_Nm_sf
003f17cf   _USER_computeTorque_Ls_Id_Iq_pu_to_Nm_sf
003f1783   _USER_computeTorque_Nm
003f172c   _USER_computeTorque_lbin
003f1729   _USER_getErrorCode
003f1726   _USER_setErrorCode
003f1723   _USER_setMotorIDs
003f167a   _USER_setMotorParams
003f15ee   _USER_setParams
003f1569   _USER_setWaitTimeParams
003f14db   _USER_softwareUpdate1p6
003f40f7   _WDOG_clearCounter
003f40ef   _WDOG_disable
003f40e9   _WDOG_disableInt
003f40e3   _WDOG_disableOverRide
003f40da   _WDOG_enable
003f40d4   _WDOG_enableInt
003f40ce   _WDOG_enableOverRide
003f40cb   _WDOG_getIntStatus
003f40c5   _WDOG_init
003f40c3   _WDOG_setCount
003f40b9   _WDOG_setPreScaler
003ff854   __IQ24cosPU
003fff8f   __IQ24rmpy
003ff82b   __IQ24sinPU
003ff2aa   __IQ24sqrt
003ff87b   __IQ29rsmpy
003fff52   __IQ30rsmpy
003fff7b   __IQ30toF
00008b80   __STACK_END
00000200   __STACK_SIZE
00000001   __TI_args_main
000003e2   ___TI_cleanup_ptr
000003e4   ___TI_dtors_ptr
ffffffff   ___binit__
ffffffff   ___c_args__
003f4318   ___cinit__
003f4318   ___etext__
ffffffff   ___pinit__
003f0647   ___text__
003f42ba   __args_main
000003e0   __lock
003f4304   __nop
003f4300   __register_lock
003f42fc   __register_unlock
00008980   __stack
000003de   __unlock
003f42d3   _abort
003f3de8   _acim_Dir_qFmtCalc
003f6000   _aucCRCHi
003f6100   _aucCRCLo
003f4144   _c_int00
000003e8   _cpu
000002c0   _ctrl
00000012   _ctrlHandle
003f42d5   _exit
00000022   _gAdcData
00000001   _gCounter_updateGlobals
0000000a   _gFlux_pu_to_VpHz_sf
00000008   _gFlux_pu_to_Wb_sf
00000000   _gLEDcnt
0000000e   _gMaxCurrentSlope
00000080   _gMotorVars
0000001c   _gPwmData
00000004   _gTorque_Flux_Iq_pu_to_Nm_sf
00000006   _gTorque_Ls_Id_Iq_pu_to_Nm_sf
00000100   _gUserParams
000004c0   _hal
00000014   _halHandle
003fda88   _log
003f2e3d   _main
0000852c   _mainISR
003f42ec   _memCopy
003fde82   _modf
003fdd64   _pow
00000018   _proctrlHandle
00000010   _rdataA
003f3d78   _recalcKpKi
0000001a   _sdataA
003f3d4f   _setFeLimitZero
003f2dc9   _updateGlobalVariables_motor
003f2da8   _updateKpKiGains
00008643   _usDelay
ffffffff   binit
003f4318   cinit
003f7ff6   code_start
003f4318   etext
ffffffff   pinit


GLOBAL SYMBOLS: SORTED BY Symbol Address 

address    name
--------   ----
00000000   _gLEDcnt
00000001   __TI_args_main
00000001   _gCounter_updateGlobals
00000002   _Flag_Latch_softwareUpdate
00000004   _gTorque_Flux_Iq_pu_to_Nm_sf
00000006   _gTorque_Ls_Id_Iq_pu_to_Nm_sf
00000008   _gFlux_pu_to_Wb_sf
0000000a   _gFlux_pu_to_VpHz_sf
0000000c   _DispData
0000000e   _gMaxCurrentSlope
00000010   _rdataA
00000012   _ctrlHandle
00000014   _halHandle
00000016   _MyMBhandle
00000018   _proctrlHandle
0000001a   _sdataA
0000001c   _gPwmData
00000022   _gAdcData
00000040   _My_ModBus
00000080   _gMotorVars
00000100   _gUserParams
000001c0   _MyProcessCtrl
00000200   __STACK_SIZE
000002c0   _ctrl
000003de   __unlock
000003e0   __lock
000003e2   ___TI_cleanup_ptr
000003e4   ___TI_dtors_ptr
000003e8   _cpu
00000400   _MOTOR_DATA
000004c0   _hal
00008000   _CTRL_setup
00008000   _RamfuncsRunStart
0000800a   _CTRL_run
0000852c   _mainISR
000085f3   _FLASH_setStandbyWaitCount
000085f8   _FLASH_setPowerMode
000085ff   _FLASH_setOtpWaitStates
00008606   _FLASH_setNumRandomReadWaitStates
0000860d   _FLASH_setNumPagedReadWaitStates
00008614   _FLASH_setActiveWaitCount
00008619   _FLASH_enablePipelineMode
0000861f   _FLASH_disablePipelineMode
00008625   _HAL_setupFlash
00008643   _usDelay
00008980   __stack
00008b80   __STACK_END
003f0000   _RamfuncsLoadStart
003f0647   .text
003f0647   _CTRL_setupTraj
003f0647   _RamfuncsLoadEnd
003f0647   ___text__
003f07ab   _CTRL_setupEstOnLineState
003f07e6   _CTRL_setupEstIdleState
003f0984   _CTRL_setupCtrl
003f0b6c   _CTRL_setUserMotorParams
003f0c9f   _CTRL_setEstParams
003f1405   _CTRL_runTraj
003f14d1   _CTRL_getVersion
003f14db   _USER_softwareUpdate1p6
003f1569   _USER_setWaitTimeParams
003f15ee   _USER_setParams
003f167a   _USER_setMotorParams
003f1723   _USER_setMotorIDs
003f1726   _USER_setErrorCode
003f1729   _USER_getErrorCode
003f172c   _USER_computeTorque_lbin
003f1783   _USER_computeTorque_Nm
003f17cf   _USER_computeTorque_Ls_Id_Iq_pu_to_Nm_sf
003f1831   _USER_computeTorque_Flux_Iq_pu_to_Nm_sf
003f18a5   _USER_computeFlux_pu_to_Wb_sf
003f1904   _USER_computeFlux_pu_to_VpHz_sf
003f1963   _USER_computeFlux
003f1971   _USER_checkForErrors
003f1f1e   _USER_checkDefErrors
003f1f1f   _USER_calcPIgains
003f1fd0   _HAL_setupTimers
003f2021   _HAL_setupSpiA
003f2057   _HAL_setupScia
003f2099   _HAL_setupPwms
003f2161   _HAL_setupPll
003f219f   _HAL_setupPie
003f21bb   _HAL_setupPeripheralClks
003f21f0   _HAL_setupI2cs
003f220c   _HAL_setupGpios
003f22aa   _HAL_setupFaults
003f22c6   _HAL_setupClks
003f22e2   _HAL_setupAdcs
003f23d8   _HAL_AdcCalChanSelect
003f242f   _HAL_AdcCalConversion
003f2587   _HAL_AdcOffsetSelfCal
003f25b6   _HAL_GetBoardNum
003f261e   _HAL_getOscTrimValue
003f2632   _HAL_osc1Comp
003f2671   _HAL_osc2Comp
003f26b0   _HAL_OscTempComp
003f2703   _HAL_cal
003f271d   _HAL_setParams
003f281e   _HAL_setDacParameters
003f2833   _HAL_disableWdog
003f2838   _HAL_init
003f28e9   _HAL_enableTimer1Int
003f28fb   _HAL_enableSciaInt
003f2918   _HAL_enablePwmInt
003f2929   _HAL_enableGlobalInts
003f292d   _HAL_enableDebugInt
003f2931   _HAL_enableAdcInts
003f2942   _HAL_disableGlobalInts
003f2946   _CTRL_updateState
003f29f8   _CTRL_setup_user
003f2a55   _CTRL_setupClarke_V
003f2a6b   _CTRL_setupClarke_I
003f2a87   _CTRL_setWaitTimes
003f2a90   _CTRL_setSpd_ref_pu
003f2a93   _CTRL_setSpd_ref_krpm
003f2aa6   _CTRL_setBrake
003f2ab5   _CTRL_setGains
003f2add   _CTRL_setParams
003f2d2b   _CTRL_getWaitTimes
003f2d34   _CTRL_getVdq_out_pu
003f2d3c   _CTRL_getVab_out_pu
003f2d44   _CTRL_getVab_in_pu
003f2d4c   _CTRL_getIdq_ref_pu
003f2d54   _CTRL_getIdq_in_pu
003f2d5c   _CTRL_getIab_in_pu
003f2d64   _CTRL_getIab_filt_pu
003f2d6c   _CTRL_getGains
003f2d9c   _CTRL_setMagCurrent_pu
003f2d9f   _CTRL_setMaximumSpeed_pu
003f2da2   _CTRL_getMaximumSpeed_pu
003f2da5   _CTRL_getMagCurrent_pu
003f2da8   _updateKpKiGains
003f2dc9   _updateGlobalVariables_motor
003f2e3d   _main
003f310b   _PWM_setTripZoneState_TZB
003f3117   _PWM_setTripZoneState_TZA
003f3121   _PWM_setTripZoneState_DCBEVT2
003f312d   _PWM_setTripZoneState_DCBEVT1
003f3139   _PWM_setTripZoneState_DCAEVT2
003f3145   _PWM_setTripZoneState_DCAEVT1
003f3151   _PWM_setTripZoneDCEventSelect_DCBEVT2
003f315d   _PWM_setTripZoneDCEventSelect_DCBEVT1
003f3169   _PWM_setTripZoneDCEventSelect_DCAEVT2
003f3175   _PWM_setTripZoneDCEventSelect_DCAEVT1
003f317f   _PWM_setSyncMode
003f3183   _PWM_setSwSync
003f3186   _PWM_setSocBPulseSrc
003f318f   _PWM_setSocBPeriod
003f3198   _PWM_setSocAPulseSrc
003f31a2   _PWM_setSocAPeriod
003f31ab   _PWM_setShadowMode_CmpB
003f31b1   _PWM_setShadowMode_CmpA
003f31b7   _PWM_setRunMode
003f31bb   _PWM_setPhaseDir
003f31bf   _PWM_setPhase
003f31c1   _PWM_setPeriodLoad
003f31c5   _PWM_setPeriodHr
003f31ca   _PWM_setPeriod
003f31cc   _PWM_setLoadMode_CmpB
003f31d2   _PWM_setLoadMode_CmpA
003f31d6   _PWM_setIntPeriod
003f31dd   _PWM_setIntMode
003f31e4   _PWM_setHrShadowMode
003f31ee   _PWM_setHrEdgeMode
003f31f8   _PWM_setHrControlMode
003f3202   _PWM_setHighSpeedClkDiv
003f3206   _PWM_setDigitalCompareInput
003f3215   _PWM_setDigitalCompareFilterWindow
003f3218   _PWM_setDigitalCompareFilterSource
003f3222   _PWM_setDigitalCompareFilterOffset
003f3225   _PWM_setDigitalCompareBlankingPulse
003f3231   _PWM_setDigitalCompareBEvent2
003f3241   _PWM_setDigitalCompareBEvent1
003f3258   _PWM_setDigitalCompareAEvent2
003f3268   _PWM_setDigitalCompareAEvent1
003f327f   _PWM_setDeadBandRisingEdgeDelay
003f3282   _PWM_setDeadBandPolarity
003f3289   _PWM_setDeadBandOutputMode
003f3290   _PWM_setDeadBandInputMode
003f3297   _PWM_setDeadBandFallingEdgeDelay
003f329a   _PWM_setCounterMode
003f329e   _PWM_setCount
003f32a0   _PWM_setClkDiv
003f32a4   _PWM_setChoppingPulseWidth
003f32ab   _PWM_setChoppingDutyCycle
003f32b2   _PWM_setChoppingClkFreq
003f32b9   _PWM_setActionQual_Zero_PwmB
003f32c0   _PWM_setActionQual_Zero_PwmA
003f32c7   _PWM_setActionQual_Period_PwmB
003f32d0   _PWM_setActionQual_Period_PwmA
003f32d9   _PWM_setActionQual_CntUp_CmpB_PwmB
003f32e2   _PWM_setActionQual_CntUp_CmpB_PwmA
003f32eb   _PWM_setActionQual_CntUp_CmpA_PwmB
003f32f4   _PWM_setActionQual_CntUp_CmpA_PwmA
003f32fd   _PWM_setActionQual_CntDown_CmpB_PwmB
003f3306   _PWM_setActionQual_CntDown_CmpB_PwmA
003f330f   _PWM_setActionQual_CntDown_CmpA_PwmB
003f3318   _PWM_setActionQual_CntDown_CmpA_PwmA
003f3321   _PWM_setActionQualContSWForce_PwmB
003f332a   _PWM_setActionQualContSWForce_PwmA
003f3331   _PWM_init
003f3337   _PWM_incrementDeadBandRisingEdgeDelay
003f333a   _PWM_incrementDeadBandFallingEdgeDelay
003f333d   _PWM_getSocBCount
003f3342   _PWM_getSocACount
003f3347   _PWM_getShadowStatus_CmpB
003f334b   _PWM_getShadowStatus_CmpA
003f334f   _PWM_getIntCount
003f3353   _PWM_getDeadBandRisingEdgeDelay
003f3356   _PWM_getDeadBandFallingEdgeDelay
003f3359   _PWM_enableTripZoneSrc
003f335f   _PWM_enableTripZoneInt
003f3365   _PWM_enableSocBPulse
003f3369   _PWM_enableSocAPulse
003f336d   _PWM_enableInt
003f3371   _PWM_enableHrPhaseSync
003f3378   _PWM_enableHrPeriod
003f337f   _PWM_enableDigitalCompareBlankingWindowInversion
003f3386   _PWM_enableDigitalCompareBlankingWindow
003f338d   _PWM_enableDeadBandHalfCycle
003f3391   _PWM_enableCounterLoad
003f3394   _PWM_enableChopping
003f3398   _PWM_enableAutoConvert
003f339f   _PWM_disableTripZones
003f33a5   _PWM_disableTripZoneSrc
003f33ac   _PWM_disableTripZoneInt
003f33b3   _PWM_disableSocBPulse
003f33b7   _PWM_disableSocAPulse
003f33bb   _PWM_disableInt
003f33bf   _PWM_disableHrPhaseSync
003f33c6   _PWM_disableHrPeriod
003f33cd   _PWM_disableDigitalCompareBlankingWindowInversion
003f33d4   _PWM_disableDigitalCompareBlankingWindow
003f33db   _PWM_disableDeadBandHalfCycle
003f33df   _PWM_disableDeadBand
003f33e2   _PWM_disableCounterLoad
003f33e5   _PWM_disableChopping
003f33e9   _PWM_disableAutoConvert
003f33f0   _PWM_decrementDeadBandRisingEdgeDelay
003f33f3   _PWM_decrementDeadBandFallingEdgeDelay
003f33f6   _PWM_clearTripZone
003f33fc   _ADC_setupSocTrigSrc
003f3427   _ADC_setVoltRefSrc
003f3439   _ADC_setTempSensorSrc
003f344b   _ADC_setSocTrigSrc
003f345e   _ADC_setSocSampleDelay
003f3471   _ADC_setSocFrcWord
003f3478   _ADC_setSocFrc
003f3482   _ADC_setSocChanNumber
003f3495   _ADC_setSampleOverlapMode
003f34aa   _ADC_setSampleMode
003f34c2   _ADC_setOffTrim
003f34c9   _ADC_setIntSrc
003f34e6   _ADC_setIntPulseGenMode
003f34f8   _ADC_setIntMode
003f3515   _ADC_setDivideSelect
003f3527   _ADC_reset
003f3532   _ADC_powerUp
003f353d   _ADC_powerDown
003f3548   _ADC_init
003f354f   _ADC_getDivideSelect
003f3554   _ADC_enableVoltRefLoConv
003f355f   _ADC_enableRefBuffers
003f356a   _ADC_enableNoOverlapMode
003f3575   _ADC_enableInt
003f358c   _ADC_enableBandGap
003f3597   _ADC_enable
003f35a2   _ADC_disableVoltRefLoConv
003f35ad   _ADC_disableRefBuffers
003f35b8   _ADC_disableNoOverlapMode
003f35c3   _ADC_disableInt
003f35de   _ADC_disableBandGap
003f35e9   _ADC_disable
003f35f4   _MB_setTimHandle
003f35f6   _MB_setSciHandle
003f35f8   _MB_setGpioHandle
003f35fa   _MB_init
003f3600   _MB_PortEventPost
003f3606   _MB_PortSerialEnable
003f361f   _MB_PortSerialPutByte
003f3624   _MB_RTUTransmitFSM
003f364b   _MB_PortTimersDisable
003f364f   _MB_RTUTimerFSM
003f3660   _MB_CRC16
003f3682   _MB_RTUSend
003f36c8   _MB_PortSerialGetByte
003f36d1   _MB_PortTimersEnable
003f36de   _MB_RTUReceiveFSM
003f3711   _MB_RTUReceive
003f3723   _MB_PortEventInit
003f3726   _MB_PortEventGet
003f3733   _MB_FuncWriteHoldingRegister
003f3734   _MB_FuncReadHoldingRegister
003f3749   _MB_Poll
003f378a   _GPIO_toggle
003f379d   _GPIO_setQualificationPeriod
003f37c8   _GPIO_setQualification
003f3801   _GPIO_setPullUp
003f381c   _GPIO_setPortData
003f3828   _GPIO_setMode
003f3859   _GPIO_setLow
003f386c   _GPIO_setHigh
003f387f   _GPIO_setExtInt
003f388a   _GPIO_setDirection
003f38a5   _GPIO_read
003f38cb   _GPIO_lpmSelect
003f38d5   _GPIO_init
003f38db   _GPIO_getPortData
003f38e2   _GPIO_getData
003f38f2   _PCA955x_setI2cHandle
003f38f4   _PCA955x_WrData
003f3947   _PCA955x_WriteCommand
003f394f   _PCA955x_RdData
003f39d5   _PCA955x_ReadStatus
003f39d8   _PCA955x_Init
003f39e3   _PCA955x_GetStatus
003f3a1f   _PCA955x_Configure
003f3a27   _CLK_setXClkInSrc
003f3a2e   _CLK_setWatchDogSrc
003f3a35   _CLK_setTimer2Src
003f3a3c   _CLK_setTimer2PreScale
003f3a43   _CLK_setOscSrc
003f3a4a   _CLK_setOsc2Src
003f3a51   _CLK_setLowSpdPreScaler
003f3a57   _CLK_setClkOutPreScaler
003f3a5e   _CLK_init
003f3a64   _CLK_enableWatchDogHaltMode
003f3a6a   _CLK_enableTbClockSync
003f3a71   _CLK_enableSpiaClock
003f3a78   _CLK_enableSciaClock
003f3a7f   _CLK_enablePwmClock
003f3a88   _CLK_enableOsc2HaltMode
003f3a8e   _CLK_enableOsc2
003f3a94   _CLK_enableOsc1HaltMode
003f3a9a   _CLK_enableOsc1
003f3aa0   _CLK_enableI2cClock
003f3aa7   _CLK_enableHrPwmClock
003f3aae   _CLK_enableGpioInputClock
003f3ab5   _CLK_enableEcap1Clock
003f3abc   _CLK_enableCrystalOsc
003f3ac2   _CLK_enableCpuTimerClock
003f3ac8   _CLK_enableCompClock
003f3ace   _CLK_enableClkIn
003f3ad4   _CLK_enableAdcClock
003f3adb   _CLK_disableWatchDogHaltMode
003f3ae1   _CLK_disableTbClockSync
003f3ae8   _CLK_disableSpiaClock
003f3aef   _CLK_disableSciaClock
003f3af6   _CLK_disablePwmClock
003f3b00   _CLK_disableOsc2HaltMode
003f3b06   _CLK_disableOsc2
003f3b0c   _CLK_disableOsc1HaltMode
003f3b12   _CLK_disableOsc1
003f3b18   _CLK_disableI2cClock
003f3b1f   _CLK_disableHrPwmClock
003f3b26   _CLK_disableGpioInputClock
003f3b2d   _CLK_disableEcap1Clock
003f3b34   _CLK_disableCrystalOsc
003f3b3a   _CLK_disableCpuTimerClock
003f3b41   _CLK_disableCompClock
003f3b45   _CLK_disableClkIn
003f3b4b   _CLK_disableAdcClock
003f3b52   _PIE_unregisterSystemIntHandler
003f3b5f   _PIE_unregisterPieIntHandler
003f3b70   _PIE_setExtIntPolarity
003f3b80   _PIE_setDefaultIntVectorTable
003f3b8c   _PIE_registerSystemIntHandler
003f3b97   _PIE_registerPieIntHandler
003f3ba6   _PIE_init
003f3bad   _PIE_getIntFlags
003f3bb4   _PIE_getIntEnables
003f3bbb   _PIE_getExtIntCount
003f3bc3   _PIE_forceInt
003f3bcd   _PIE_enableTimer0Int
003f3bd0   _PIE_enablePwmTzInt
003f3bd5   _PIE_enablePwmInt
003f3bda   _PIE_enableInt
003f3be4   _PIE_enableExtInt
003f3c07   _PIE_enableCaptureInt
003f3c0b   _PIE_enableAdcInt
003f3c27   _PIE_enable
003f3c2a   _PIE_disableInt
003f3c35   _PIE_disableExtInt
003f3c42   _PIE_disableCaptureInt
003f3c46   _PIE_disableAllInts
003f3c50   _PIE_disable
003f3c53   _PIE_clearAllInts
003f3c56   _PIE_clearAllFlags
003f3c60   _SCI_setTxFifoIntLevel
003f3c67   _SCI_setTxDelay
003f3c6e   _SCI_setRxFifoIntLevel
003f3c75   _SCI_setPriority
003f3c78   _SCI_setParity
003f3c7c   _SCI_setNumStopBits
003f3c80   _SCI_setMode
003f3c84   _SCI_setCharLength
003f3c88   _SCI_setBaudRate
003f3c8e   _SCI_resetTxFifo
003f3c98   _SCI_resetRxFifo
003f3ca2   _SCI_resetChannels
003f3cac   _SCI_reset
003f3caf   _SCI_putDataNonBlocking
003f3cb7   _SCI_putDataBlocking
003f3cbc   _SCI_init
003f3cc2   _SCI_getTxFifoStatus
003f3cc6   _SCI_getRxFifoStatus
003f3cca   _SCI_getDataNonBlocking
003f3cd3   _SCI_getDataBlocking
003f3cd7   _SCI_enableTxWake
003f3cda   _SCI_enableTxInt
003f3cdd   _SCI_enableTxFifoInt
003f3ce1   _SCI_enableTxFifoEnh
003f3ce5   _SCI_enableTxFifo
003f3ce9   _SCI_enableTx
003f3cec   _SCI_enableSleep
003f3cef   _SCI_enableRxInt
003f3cf2   _SCI_enableRxFifoInt
003f3cf6   _SCI_enableRxFifo
003f3cfa   _SCI_enableRxErrorInt
003f3cfd   _SCI_enableRx
003f3d00   _SCI_enableParity
003f3d03   _SCI_enableLoopBack
003f3d06   _SCI_enableChannels
003f3d0a   _SCI_enableAutoBaudAlign
003f3d0e   _SCI_enable
003f3d11   _SCI_disableTxWake
003f3d14   _SCI_disableTxInt
003f3d17   _SCI_disableTxFifoInt
003f3d1b   _SCI_disableTxFifoEnh
003f3d1f   _SCI_disableTx
003f3d22   _SCI_disableSleep
003f3d25   _SCI_disableRxInt
003f3d28   _SCI_disableRxFifoInt
003f3d2c   _SCI_disableRxErrorInt
003f3d2f   _SCI_disableRx
003f3d32   _SCI_disableParity
003f3d35   _SCI_disableLoopBack
003f3d38   _SCI_disableAutoBaudAlign
003f3d3c   _SCI_disable
003f3d3f   _SCI_clearTxFifoInt
003f3d43   _SCI_clearRxFifoOvf
003f3d47   _SCI_clearRxFifoInt
003f3d4b   _SCI_clearAutoBaudDetect
003f3d4f   _setFeLimitZero
003f3d78   _recalcKpKi
003f3de8   _acim_Dir_qFmtCalc
003f3dfe   _PROCTRL_setParams
003f3e20   _PROCTRL_setHalHandle
003f3e22   _PROCTRL_init
003f3e28   _I2C_setupClock
003f3e2f   _I2C_setSlave
003f3e33   _I2C_setSlaveAddress
003f3e38   _I2C_setMasterSlaveAddr
003f3e3a   _I2C_setMaster
003f3e3e   _I2C_resetTxFifo
003f3e42   _I2C_resetRxFifo
003f3e46   _I2C_putData
003f3e49   _I2C_isMasterBusy
003f3e4d   _I2C_init
003f3e53   _I2C_getStatus
003f3e55   _I2C_getIntSource
003f3e58   _I2C_getData
003f3e5a   _I2C_enableInt
003f3e5c   _I2C_enableFifo
003f3e60   _I2C_enable
003f3e64   _I2C_disableInt
003f3e67   _I2C_disableFifo
003f3e6b   _I2C_disable
003f3e6f   _I2C_clearTxFifoInt
003f3e73   _I2C_clearRxFifoInt
003f3e77   _I2C_MasterControl
003f3e7c   _I2C_WrData
003f3eab   _I2C_SendData
003f3eb9   _I2C_RdData
003f3eff   _SPI_setTxFifoIntLevel
003f3f06   _SPI_setTxDelay
003f3f09   _SPI_setTriWire
003f3f10   _SPI_setSuspend
003f3f17   _SPI_setSteInv
003f3f1e   _SPI_setRxFifoIntLevel
003f3f25   _SPI_setPriority
003f3f2c   _SPI_setMode
003f3f2e   _SPI_setClkPolarity
003f3f32   _SPI_setClkPhase
003f3f34   _SPI_setCharLength
003f3f38   _SPI_setBaudRate
003f3f3a   _SPI_resetTxFifo
003f3f3e   _SPI_resetRxFifo
003f3f42   _SPI_resetChannels
003f3f46   _SPI_reset
003f3f49   _SPI_init
003f3f4f   _SPI_getTxFifoStatus
003f3f53   _SPI_getTxBufferStatus
003f3f56   _SPI_getRxFifoStatus
003f3f5a   _SPI_getIntFlagStatus
003f3f5d   _SPI_enableTxFifoInt
003f3f61   _SPI_enableTxFifoEnh
003f3f65   _SPI_enableTxFifo
003f3f69   _SPI_enableTx
003f3f6c   _SPI_enableRxFifoInt
003f3f70   _SPI_enableRxFifo
003f3f74   _SPI_enableOverRunInt
003f3f77   _SPI_enableLoopBack
003f3f7a   _SPI_enableInt
003f3f7d   _SPI_enableChannels
003f3f81   _SPI_enable
003f3f84   _SPI_disableTxFifoInt
003f3f88   _SPI_disableTxFifoEnh
003f3f8c   _SPI_disableTx
003f3f8f   _SPI_disableRxFifoInt
003f3f93   _SPI_disableOverRunInt
003f3f96   _SPI_disableLoopBack
003f3f99   _SPI_disableInt
003f3f9c   _SPI_clearTxFifoInt
003f3fa0   _SPI_clearRxFifoOvf
003f3fa4   _SPI_clearRxFifoInt
003f3fa8   _UART_TxReadyISR
003f3fcd   _UART_RxISR
003f3ff9   _Timer1ISR
003f4017   _PLL_setLockPeriod
003f401c   _PLL_setDivideSelect
003f4023   _PLL_setClkFreq
003f4029   _PLL_resetClkDetect
003f402f   _PLL_init
003f4035   _PLL_getLockStatus
003f4038   _PLL_getDivideSelect
003f403b   _PLL_getClkStatus
003f403e   _PLL_getClkFreq
003f4042   _PLL_enableOsc
003f4048   _PLL_enableNormRdy
003f404e   _PLL_enableClkDetect
003f4054   _PLL_enable
003f405a   _PLL_disableOsc
003f4060   _PLL_disableNormRdy
003f4066   _PLL_disableClkDetect
003f406c   _PLL_disable
003f4072   _PWR_setNumStandByClocks
003f4084   _PWR_setLowPowerMode
003f4096   _PWR_init
003f409d   _PWR_enableWatchDogInt
003f40a8   _PWR_enableBrownOutReset
003f40ab   _PWR_disableWatchDogInt
003f40b6   _PWR_disableBrownOutReset
003f40b9   _WDOG_setPreScaler
003f40c3   _WDOG_setCount
003f40c5   _WDOG_init
003f40cb   _WDOG_getIntStatus
003f40ce   _WDOG_enableOverRide
003f40d4   _WDOG_enableInt
003f40da   _WDOG_enable
003f40e3   _WDOG_disableOverRide
003f40e9   _WDOG_disableInt
003f40ef   _WDOG_disable
003f40f7   _WDOG_clearCounter
003f40ff   _OFFSET_setOffset
003f4101   _OFFSET_setInitCond
003f4110   _OFFSET_setBeta
003f4126   _OFFSET_init
003f4137   _OFFSET_getBeta
003f4144   _c_int00
003f4188   _TIMER_setReloadBit
003f418b   _TIMER_setPreScaler
003f4199   _TIMER_setEmulationMode
003f419d   _TIMER_setDecimationFactor
003f41ab   _TIMER_init
003f41b1   _TIMER_getStatus
003f41b4   _TIMER_enableInt
003f41b7   _TIMER_disableInt
003f41ba   _TIMER_clearFlag
003f41bd   _OSC_setTrim
003f41c6   _OSC_setFineTrim
003f41d7   _OSC_setCoarseTrim
003f41e4   _OSC_init
003f41ea   L$$DIV
003f41f9   L$$MOD
003f4207   UL$$DIV
003f420e   UL$$MOD
003f4214   _CPU_init
003f421a   _CPU_enableProtectedRegisterWrite
003f421d   _CPU_enableInt
003f4221   _CPU_enableGlobalInts
003f4224   _CPU_enableDebugInt
003f4227   _CPU_disableProtectedRegisterWrite
003f422a   _CPU_disableInts
003f422d   _CPU_disableInt
003f4232   _CPU_disableGlobalInts
003f4235   _CPU_disableDebugInt
003f4238   _CPU_clearIntFlags
003f423b   _FILTER_FO_setNumCoeffs
003f423f   _FILTER_FO_setInitialConditions
003f4244   _FILTER_FO_setDenCoeffs
003f4246   _FILTER_FO_init
003f424c   _FILTER_FO_getNumCoeffs
003f4252   _FILTER_FO_getInitialConditions
003f4259   _FILTER_FO_getDenCoeffs
003f425c   FS$$TOUL
003f427d   _FLASH_init
003f4283   _FLASH_getStandbyWaitStatus
003f4287   _FLASH_getStandbyWaitCount
003f428a   _FLASH_getPowerMode
003f428d   _FLASH_getActiveWaitStatus
003f4291   _FLASH_getActiveWaitCount
003f4294   _FLASH_get3VStatus
003f4297   _FLASH_clear3VStatus
003f429d   FS$$TOU
003f42ba   __args_main
003f42d3   C$$EXIT
003f42d3   _abort
003f42d5   _exit
003f42ec   _memCopy
003f42fc   __register_unlock
003f4300   __register_lock
003f4304   __nop
003f430d   _Brake_init
003f4313   _PIE_illegalIsr
003f4318   ___cinit__
003f4318   ___etext__
003f4318   cinit
003f4318   etext
003f6000   _aucCRCHi
003f6100   _aucCRCLo
003f7ff6   code_start
003fc000   _EST_getState
003fc002   _EST_useZeroIq_ref
003fc05a   _EST_resetCounter_state
003fc05e   _EST_isMotorIdentified
003fc062   _EST_getFullScaleCurrent
003fc08e   _EST_getFullScaleVoltage
003fc092   _EST_computeDirection_qFmt
003fc0f8   _EST_updateState
003fc3da   _EST_updateId_ref_pu
003fc3e2   _EST_setWaitTimes
003fc3fd   _EST_setRs_pu
003fc4bb   _EST_setMotorParams
003fc4c0   _EST_setMaxCurrentSlope_pu
003fc4cc   _EST_setLs_q_pu
003fc4d1   _EST_getFullScaleInductance
003fc4d6   _EST_setLs_qFmt
003fc52a   _EST_setLs_d_pu
003fc548   _EST_setIq_ref_pu
003fc54c   _EST_setIdle_all
003fc55f   _EST_setIdle
003fc565   _EST_setId_ref_pu
003fc569   _EST_setIdRated_pu
003fc56f   _EST_setFullScaleVoltage
003fc573   _EST_setFullScaleResistance
003fc58b   _EST_setFullScaleFreq
003fc594   _EST_setFullScaleCurrent
003fc5b0   _EST_setFlag_updateRs
003fc5b4   _EST_setFlag_estComplete
003fc5b8   _EST_setFlag_enableRsRecalc
003fc5bc   _EST_setFlag_enableRsOnLine
003fc5c0   _EST_setFlag_enableForceAngle
003fc5c5   _EST_setFlag_enableFluxControl
003fc5c9   _EST_setFe_pos_min_pu
003fc5cd   _EST_setFe_neg_max_pu
003fc5da   _EST_setDir_qFmt
003fc5ed   _EST_resetCounter_ctrl
003fc5f2   _EST_getAngle_pu
003fcc5c   _EST_getFullScaleFreq
003fcc60   _EST_run
003fcd5d   _EST_isOnLine
003fcd64   _EST_isLockRotor
003fcd6b   _EST_isIdle
003fcd72   _EST_isError
003fce38   _EST_get_pu_to_krpm_sf
003fce3d   _EST_get_krpm_to_pu_sf
003fceab   _EST_getSpeed_krpm
003fcef8   _EST_getRs_Ohm
003fcf92   _EST_getRr_Ohm
003fcf98   _EST_getOneOverDcBus_pu
003fcfa2   _EST_getMaxCurrentSlope_pu
003fcfae   _EST_getLs_q_pu
003fcfb3   _EST_getLs_q_H
003fcfd5   _EST_getLs_d_pu
003fcfda   _EST_getLs_d_H
003fcfe4   _EST_getLs_coarse_max_pu
003fd017   _EST_getIdRated
003fd043   _EST_getFullScaleFlux
003fd073   _EST_getFm_pu
003fd090   _EST_getFlux_pu
003fd0a3   _EST_getFlux_VpHz
003fd13d   _EST_doSpeedCtrl
003fd145   _EST_doCurrentCtrl
003fd14d   _EST_computeR
003fd16d   _EST_computeL
003fd1af   _EST_TRAJ_setParams
003fd1be   _EST_I_setParams
003fd1e8   _EST_EPL_setParams
003fd237   _EST_Ls_setWaitTimes
003fd247   _EST_Ls_setParams
003fd284   _EST_Ls_setLs_q
003fd2b6   _EST_Ls_setLs_d
003fd3a8   _EST_Ls_getLs_d
003fd41e   _EST_Flux_setWaitTimes
003fd42e   _EST_Flux_setParams
003fd49c   _EST_Flux_getRatedFlux_pu
003fd514   _EST_Flux_computeOneOverFlux_qFmt
003fd54d   _EST_RsOnLine_setParams
003fd57d   _EST_RsOnLine_setFilterParams
003fd6b3   _EST_Rs_setWaitTimes
003fd6c3   _EST_Rs_setRs
003fd725   _EST_Rs_setParams
003fd767   _EST_Rs_getRs
003fd788   _EST_Rr_setRr
003fd7e9   _EST_Rr_setParams
003fd88b   _CTRL_initCtrl
003fd922   _EST_Dir_setParams
003fd95c   _EST_Freq_setParams
003fd9b0   _EST_Flux_ab_setParams
003fd9cc   _EST_Iab_setParams
003fd9e5   _EST_Angle_setParams
003fd9fb   _EST_Vdq_setParams
003fda0d   _EST_OneOverDcBus_setParams
003fda1e   _EST_Idq_setParams
003fda3b   _EST_Flux_dq_setParams
003fda47   _EST_Vback_ab_setParams
003fda53   _EST_Vab_setParams
003fda5e   _EST_Vback_dq_setParams
003fda88   _log
003fdc5e   FD$$MPY
003fdce1   FS$$DIV
003fdd64   _pow
003fdde7   FS$$MPY
003fde82   _modf
003fdeb8   FS$$ADD
003fdf2b   FS$$CMP
003fdf7b   FD$$TOL
003fdfb7   FS$$TOFD
003ff2aa   __IQ24sqrt
003ff82b   __IQ24sinPU
003ff854   __IQ24cosPU
003ff87b   __IQ29rsmpy
003ff8aa   UL$$TOFS
003ff8bd   U$$TOFS
003fff0e   FS$$TOI
003fff33   I$$TOFS
003fff4d   FS$$NEG
003fff52   __IQ30rsmpy
003fff7b   __IQ30toF
003fff8f   __IQ24rmpy
ffffffff   ___binit__
ffffffff   ___c_args__
ffffffff   ___pinit__
ffffffff   binit
ffffffff   pinit

[746 symbols]
