TMS320C2000 Assembler PC v15.12.3 Wed Nov 22 00:56:17 2017

Tools Copyright (c) 1996-2015 Texas Instruments Incorporated
C:\Users\wmj\AppData\Local\Temp\0070810                              PAGE    1

       1              ;***************************************************************
       2              ;* TMS320C2000 C/C++ Codegen                   PC v15.12.3.LTS *
       3              ;* Date/Time created: Wed Nov 22 00:56:16 2017                 *
       4              ;***************************************************************
       5                      .compiler_opts --abi=coffabi --float_support=softlib --hll_source=on --mem_model:code=flat --mem_mode
       6        0002  FP      .set    XAR2
       7              
       8              $C$DW$CU        .dwtag  DW_TAG_compile_unit
       9                      .dwattr $C$DW$CU, DW_AT_name("C:/Users/wmj/Desktop/BM1000_v1.1/sw/modules/ctrl/src/32b/ctrl.c")
      10                      .dwattr $C$DW$CU, DW_AT_producer("TI TMS320C2000 C/C++ Codegen PC v15.12.3.LTS Copyright (c) 1996-201
      11                      .dwattr $C$DW$CU, DW_AT_TI_version(0x01)
      12                      .dwattr $C$DW$CU, DW_AT_comp_dir("C:\Users\wmj\Desktop\BM1000_v1.1\sw\solutions\instaspin_foc\boards\
      13              
      14              ;**************************************************************
      15              ;* FUNCTION SYNONYMS                                          *
      16              ;**************************************************************
      17                      .global _CTRL_setMaximumSpeed_pu
      18        042F' _CTRL_setMaximumSpeed_pu        .set _CTRL_setSpd_max_pu
      19                      .global _CTRL_setMagCurrent_pu
      20        042C' _CTRL_setMagCurrent_pu  .set _CTRL_setIdRated_pu
      21                      .global _CTRL_getMaximumSpeed_pu
      22        0432' _CTRL_getMaximumSpeed_pu        .set _CTRL_getSpd_max_pu
      23                      .global _CTRL_getMagCurrent_pu
      24        0435' _CTRL_getMagCurrent_pu  .set _CTRL_getIdRated_pu
      25              
      26              $C$DW$1 .dwtag  DW_TAG_subprogram
      27                      .dwattr $C$DW$1, DW_AT_name("CTRL_runTraj")
      28                      .dwattr $C$DW$1, DW_AT_TI_symbol_name("_CTRL_runTraj")
      29                      .dwattr $C$DW$1, DW_AT_declaration
      30                      .dwattr $C$DW$1, DW_AT_external
      31              $C$DW$2 .dwtag  DW_TAG_formal_parameter
      32                      .dwattr $C$DW$2, DW_AT_type(*$C$DW$T$170)
      33              
      34                      .dwendtag $C$DW$1
      35              
      36              
      37              $C$DW$3 .dwtag  DW_TAG_subprogram
      38                      .dwattr $C$DW$3, DW_AT_name("CTRL_setEstParams")
      39                      .dwattr $C$DW$3, DW_AT_TI_symbol_name("_CTRL_setEstParams")
      40                      .dwattr $C$DW$3, DW_AT_declaration
      41                      .dwattr $C$DW$3, DW_AT_external
      42              $C$DW$4 .dwtag  DW_TAG_formal_parameter
      43                      .dwattr $C$DW$4, DW_AT_type(*$C$DW$T$49)
      44              
      45              $C$DW$5 .dwtag  DW_TAG_formal_parameter
      46                      .dwattr $C$DW$5, DW_AT_type(*$C$DW$T$231)
      47              
      48                      .dwendtag $C$DW$3
      49              
      50              
      51              $C$DW$6 .dwtag  DW_TAG_subprogram
      52                      .dwattr $C$DW$6, DW_AT_name("CTRL_setupTraj")
      53                      .dwattr $C$DW$6, DW_AT_TI_symbol_name("_CTRL_setupTraj")
      54                      .dwattr $C$DW$6, DW_AT_declaration
      55                      .dwattr $C$DW$6, DW_AT_external
TMS320C2000 Assembler PC v15.12.3 Wed Nov 22 00:56:17 2017

Tools Copyright (c) 1996-2015 Texas Instruments Incorporated
C:\Users\wmj\AppData\Local\Temp\0070810                              PAGE    2

      56              $C$DW$7 .dwtag  DW_TAG_formal_parameter
      57                      .dwattr $C$DW$7, DW_AT_type(*$C$DW$T$170)
      58              
      59                      .dwendtag $C$DW$6
      60              
      61              
      62              $C$DW$8 .dwtag  DW_TAG_subprogram
      63                      .dwattr $C$DW$8, DW_AT_name("CTRL_setUserMotorParams")
      64                      .dwattr $C$DW$8, DW_AT_TI_symbol_name("_CTRL_setUserMotorParams")
      65                      .dwattr $C$DW$8, DW_AT_declaration
      66                      .dwattr $C$DW$8, DW_AT_external
      67              $C$DW$9 .dwtag  DW_TAG_formal_parameter
      68                      .dwattr $C$DW$9, DW_AT_type(*$C$DW$T$170)
      69              
      70                      .dwendtag $C$DW$8
      71              
      72              
      73              $C$DW$10        .dwtag  DW_TAG_subprogram
      74                      .dwattr $C$DW$10, DW_AT_name("CTRL_setupEstIdleState")
      75                      .dwattr $C$DW$10, DW_AT_TI_symbol_name("_CTRL_setupEstIdleState")
      76                      .dwattr $C$DW$10, DW_AT_declaration
      77                      .dwattr $C$DW$10, DW_AT_external
      78              $C$DW$11        .dwtag  DW_TAG_formal_parameter
      79                      .dwattr $C$DW$11, DW_AT_type(*$C$DW$T$170)
      80              
      81                      .dwendtag $C$DW$10
      82              
      83              
      84              $C$DW$12        .dwtag  DW_TAG_subprogram
      85                      .dwattr $C$DW$12, DW_AT_name("CTRL_setupCtrl")
      86                      .dwattr $C$DW$12, DW_AT_TI_symbol_name("_CTRL_setupCtrl")
      87                      .dwattr $C$DW$12, DW_AT_declaration
      88                      .dwattr $C$DW$12, DW_AT_external
      89              $C$DW$13        .dwtag  DW_TAG_formal_parameter
      90                      .dwattr $C$DW$13, DW_AT_type(*$C$DW$T$170)
      91              
      92                      .dwendtag $C$DW$12
      93              
      94              
      95              $C$DW$14        .dwtag  DW_TAG_subprogram
      96                      .dwattr $C$DW$14, DW_AT_name("CTRL_setupEstOnLineState")
      97                      .dwattr $C$DW$14, DW_AT_TI_symbol_name("_CTRL_setupEstOnLineState")
      98                      .dwattr $C$DW$14, DW_AT_declaration
      99                      .dwattr $C$DW$14, DW_AT_external
     100              $C$DW$15        .dwtag  DW_TAG_formal_parameter
     101                      .dwattr $C$DW$15, DW_AT_type(*$C$DW$T$170)
     102              
     103                      .dwendtag $C$DW$14
     104              
     105              
     106              $C$DW$16        .dwtag  DW_TAG_subprogram
     107                      .dwattr $C$DW$16, DW_AT_name("EST_setIdle")
     108                      .dwattr $C$DW$16, DW_AT_TI_symbol_name("_EST_setIdle")
     109                      .dwattr $C$DW$16, DW_AT_declaration
     110                      .dwattr $C$DW$16, DW_AT_external
TMS320C2000 Assembler PC v15.12.3 Wed Nov 22 00:56:17 2017

Tools Copyright (c) 1996-2015 Texas Instruments Incorporated
C:\Users\wmj\AppData\Local\Temp\0070810                              PAGE    3

     111              $C$DW$17        .dwtag  DW_TAG_formal_parameter
     112                      .dwattr $C$DW$17, DW_AT_type(*$C$DW$T$49)
     113              
     114                      .dwendtag $C$DW$16
     115              
     116              
     117              $C$DW$18        .dwtag  DW_TAG_subprogram
     118                      .dwattr $C$DW$18, DW_AT_name("EST_run")
     119                      .dwattr $C$DW$18, DW_AT_TI_symbol_name("_EST_run")
     120                      .dwattr $C$DW$18, DW_AT_declaration
     121                      .dwattr $C$DW$18, DW_AT_external
     122              $C$DW$19        .dwtag  DW_TAG_formal_parameter
     123                      .dwattr $C$DW$19, DW_AT_type(*$C$DW$T$49)
     124              
     125              $C$DW$20        .dwtag  DW_TAG_formal_parameter
     126                      .dwattr $C$DW$20, DW_AT_type(*$C$DW$T$211)
     127              
     128              $C$DW$21        .dwtag  DW_TAG_formal_parameter
     129                      .dwattr $C$DW$21, DW_AT_type(*$C$DW$T$211)
     130              
     131              $C$DW$22        .dwtag  DW_TAG_formal_parameter
     132                      .dwattr $C$DW$22, DW_AT_type(*$C$DW$T$238)
     133              
     134              $C$DW$23        .dwtag  DW_TAG_formal_parameter
     135                      .dwattr $C$DW$23, DW_AT_type(*$C$DW$T$238)
     136              
     137                      .dwendtag $C$DW$18
     138              
     139              
     140              $C$DW$24        .dwtag  DW_TAG_subprogram
     141                      .dwattr $C$DW$24, DW_AT_name("EST_updateId_ref_pu")
     142                      .dwattr $C$DW$24, DW_AT_TI_symbol_name("_EST_updateId_ref_pu")
     143                      .dwattr $C$DW$24, DW_AT_declaration
     144                      .dwattr $C$DW$24, DW_AT_external
     145              $C$DW$25        .dwtag  DW_TAG_formal_parameter
     146                      .dwattr $C$DW$25, DW_AT_type(*$C$DW$T$49)
     147              
     148              $C$DW$26        .dwtag  DW_TAG_formal_parameter
     149                      .dwattr $C$DW$26, DW_AT_type(*$C$DW$T$245)
     150              
     151                      .dwendtag $C$DW$24
     152              
     153              
     154              $C$DW$27        .dwtag  DW_TAG_subprogram
     155                      .dwattr $C$DW$27, DW_AT_name("EST_setRs_pu")
     156                      .dwattr $C$DW$27, DW_AT_TI_symbol_name("_EST_setRs_pu")
     157                      .dwattr $C$DW$27, DW_AT_declaration
     158                      .dwattr $C$DW$27, DW_AT_external
     159              $C$DW$28        .dwtag  DW_TAG_formal_parameter
     160                      .dwattr $C$DW$28, DW_AT_type(*$C$DW$T$49)
     161              
     162              $C$DW$29        .dwtag  DW_TAG_formal_parameter
     163                      .dwattr $C$DW$29, DW_AT_type(*$C$DW$T$238)
     164              
     165                      .dwendtag $C$DW$27
TMS320C2000 Assembler PC v15.12.3 Wed Nov 22 00:56:17 2017

Tools Copyright (c) 1996-2015 Texas Instruments Incorporated
C:\Users\wmj\AppData\Local\Temp\0070810                              PAGE    4

     166              
     167              
     168              $C$DW$30        .dwtag  DW_TAG_subprogram
     169                      .dwattr $C$DW$30, DW_AT_name("EST_setId_ref_pu")
     170                      .dwattr $C$DW$30, DW_AT_TI_symbol_name("_EST_setId_ref_pu")
     171                      .dwattr $C$DW$30, DW_AT_declaration
     172                      .dwattr $C$DW$30, DW_AT_external
     173              $C$DW$31        .dwtag  DW_TAG_formal_parameter
     174                      .dwattr $C$DW$31, DW_AT_type(*$C$DW$T$49)
     175              
     176              $C$DW$32        .dwtag  DW_TAG_formal_parameter
     177                      .dwattr $C$DW$32, DW_AT_type(*$C$DW$T$238)
     178              
     179                      .dwendtag $C$DW$30
     180              
     181              
     182              $C$DW$33        .dwtag  DW_TAG_subprogram
     183                      .dwattr $C$DW$33, DW_AT_name("EST_setIdle_all")
     184                      .dwattr $C$DW$33, DW_AT_TI_symbol_name("_EST_setIdle_all")
     185                      .dwattr $C$DW$33, DW_AT_declaration
     186                      .dwattr $C$DW$33, DW_AT_external
     187              $C$DW$34        .dwtag  DW_TAG_formal_parameter
     188                      .dwattr $C$DW$34, DW_AT_type(*$C$DW$T$49)
     189              
     190                      .dwendtag $C$DW$33
     191              
     192              
     193              $C$DW$35        .dwtag  DW_TAG_subprogram
     194                      .dwattr $C$DW$35, DW_AT_name("EST_setIq_ref_pu")
     195                      .dwattr $C$DW$35, DW_AT_TI_symbol_name("_EST_setIq_ref_pu")
     196                      .dwattr $C$DW$35, DW_AT_declaration
     197                      .dwattr $C$DW$35, DW_AT_external
     198              $C$DW$36        .dwtag  DW_TAG_formal_parameter
     199                      .dwattr $C$DW$36, DW_AT_type(*$C$DW$T$49)
     200              
     201              $C$DW$37        .dwtag  DW_TAG_formal_parameter
     202                      .dwattr $C$DW$37, DW_AT_type(*$C$DW$T$238)
     203              
     204                      .dwendtag $C$DW$35
     205              
     206              
     207              $C$DW$38        .dwtag  DW_TAG_subprogram
     208                      .dwattr $C$DW$38, DW_AT_name("EST_updateState")
     209                      .dwattr $C$DW$38, DW_AT_TI_symbol_name("_EST_updateState")
     210                      .dwattr $C$DW$38, DW_AT_type(*$C$DW$T$33)
     211                      .dwattr $C$DW$38, DW_AT_declaration
     212                      .dwattr $C$DW$38, DW_AT_external
     213              $C$DW$39        .dwtag  DW_TAG_formal_parameter
     214                      .dwattr $C$DW$39, DW_AT_type(*$C$DW$T$49)
     215              
     216              $C$DW$40        .dwtag  DW_TAG_formal_parameter
     217                      .dwattr $C$DW$40, DW_AT_type(*$C$DW$T$238)
     218              
     219                      .dwendtag $C$DW$38
     220              
TMS320C2000 Assembler PC v15.12.3 Wed Nov 22 00:56:17 2017

Tools Copyright (c) 1996-2015 Texas Instruments Incorporated
C:\Users\wmj\AppData\Local\Temp\0070810                              PAGE    5

     221              
     222              $C$DW$41        .dwtag  DW_TAG_subprogram
     223                      .dwattr $C$DW$41, DW_AT_name("EST_useZeroIq_ref")
     224                      .dwattr $C$DW$41, DW_AT_TI_symbol_name("_EST_useZeroIq_ref")
     225                      .dwattr $C$DW$41, DW_AT_type(*$C$DW$T$33)
     226                      .dwattr $C$DW$41, DW_AT_declaration
     227                      .dwattr $C$DW$41, DW_AT_external
     228              $C$DW$42        .dwtag  DW_TAG_formal_parameter
     229                      .dwattr $C$DW$42, DW_AT_type(*$C$DW$T$49)
     230              
     231                      .dwendtag $C$DW$41
     232              
     233              
     234              $C$DW$43        .dwtag  DW_TAG_subprogram
     235                      .dwattr $C$DW$43, DW_AT_name("EST_isMotorIdentified")
     236                      .dwattr $C$DW$43, DW_AT_TI_symbol_name("_EST_isMotorIdentified")
     237                      .dwattr $C$DW$43, DW_AT_type(*$C$DW$T$33)
     238                      .dwattr $C$DW$43, DW_AT_declaration
     239                      .dwattr $C$DW$43, DW_AT_external
     240              $C$DW$44        .dwtag  DW_TAG_formal_parameter
     241                      .dwattr $C$DW$44, DW_AT_type(*$C$DW$T$49)
     242              
     243                      .dwendtag $C$DW$43
     244              
     245              
     246              $C$DW$45        .dwtag  DW_TAG_subprogram
     247                      .dwattr $C$DW$45, DW_AT_name("EST_isOnLine")
     248                      .dwattr $C$DW$45, DW_AT_TI_symbol_name("_EST_isOnLine")
     249                      .dwattr $C$DW$45, DW_AT_type(*$C$DW$T$33)
     250                      .dwattr $C$DW$45, DW_AT_declaration
     251                      .dwattr $C$DW$45, DW_AT_external
     252              $C$DW$46        .dwtag  DW_TAG_formal_parameter
     253                      .dwattr $C$DW$46, DW_AT_type(*$C$DW$T$49)
     254              
     255                      .dwendtag $C$DW$45
     256              
     257              
     258              $C$DW$47        .dwtag  DW_TAG_subprogram
     259                      .dwattr $C$DW$47, DW_AT_name("EST_doSpeedCtrl")
     260                      .dwattr $C$DW$47, DW_AT_TI_symbol_name("_EST_doSpeedCtrl")
     261                      .dwattr $C$DW$47, DW_AT_type(*$C$DW$T$33)
     262                      .dwattr $C$DW$47, DW_AT_declaration
     263                      .dwattr $C$DW$47, DW_AT_external
     264              $C$DW$48        .dwtag  DW_TAG_formal_parameter
     265                      .dwattr $C$DW$48, DW_AT_type(*$C$DW$T$49)
     266              
     267                      .dwendtag $C$DW$47
     268              
     269              
     270              $C$DW$49        .dwtag  DW_TAG_subprogram
     271                      .dwattr $C$DW$49, DW_AT_name("EST_getState")
     272                      .dwattr $C$DW$49, DW_AT_TI_symbol_name("_EST_getState")
     273                      .dwattr $C$DW$49, DW_AT_type(*$C$DW$T$175)
     274                      .dwattr $C$DW$49, DW_AT_declaration
     275                      .dwattr $C$DW$49, DW_AT_external
TMS320C2000 Assembler PC v15.12.3 Wed Nov 22 00:56:17 2017

Tools Copyright (c) 1996-2015 Texas Instruments Incorporated
C:\Users\wmj\AppData\Local\Temp\0070810                              PAGE    6

     276              $C$DW$50        .dwtag  DW_TAG_formal_parameter
     277                      .dwattr $C$DW$50, DW_AT_type(*$C$DW$T$49)
     278              
     279                      .dwendtag $C$DW$49
     280              
     281              
     282              $C$DW$51        .dwtag  DW_TAG_subprogram
     283                      .dwattr $C$DW$51, DW_AT_name("EST_isIdle")
     284                      .dwattr $C$DW$51, DW_AT_TI_symbol_name("_EST_isIdle")
     285                      .dwattr $C$DW$51, DW_AT_type(*$C$DW$T$33)
     286                      .dwattr $C$DW$51, DW_AT_declaration
     287                      .dwattr $C$DW$51, DW_AT_external
     288              $C$DW$52        .dwtag  DW_TAG_formal_parameter
     289                      .dwattr $C$DW$52, DW_AT_type(*$C$DW$T$49)
     290              
     291                      .dwendtag $C$DW$51
     292              
     293              
     294              $C$DW$53        .dwtag  DW_TAG_subprogram
     295                      .dwattr $C$DW$53, DW_AT_name("EST_isLockRotor")
     296                      .dwattr $C$DW$53, DW_AT_TI_symbol_name("_EST_isLockRotor")
     297                      .dwattr $C$DW$53, DW_AT_type(*$C$DW$T$33)
     298                      .dwattr $C$DW$53, DW_AT_declaration
     299                      .dwattr $C$DW$53, DW_AT_external
     300              $C$DW$54        .dwtag  DW_TAG_formal_parameter
     301                      .dwattr $C$DW$54, DW_AT_type(*$C$DW$T$49)
     302              
     303                      .dwendtag $C$DW$53
     304              
     305              
     306              $C$DW$55        .dwtag  DW_TAG_subprogram
     307                      .dwattr $C$DW$55, DW_AT_name("EST_doCurrentCtrl")
     308                      .dwattr $C$DW$55, DW_AT_TI_symbol_name("_EST_doCurrentCtrl")
     309                      .dwattr $C$DW$55, DW_AT_type(*$C$DW$T$33)
     310                      .dwattr $C$DW$55, DW_AT_declaration
     311                      .dwattr $C$DW$55, DW_AT_external
     312              $C$DW$56        .dwtag  DW_TAG_formal_parameter
     313                      .dwattr $C$DW$56, DW_AT_type(*$C$DW$T$49)
     314              
     315                      .dwendtag $C$DW$55
     316              
     317              
     318              $C$DW$57        .dwtag  DW_TAG_subprogram
     319                      .dwattr $C$DW$57, DW_AT_name("EST_isError")
     320                      .dwattr $C$DW$57, DW_AT_TI_symbol_name("_EST_isError")
     321                      .dwattr $C$DW$57, DW_AT_type(*$C$DW$T$33)
     322                      .dwattr $C$DW$57, DW_AT_declaration
     323                      .dwattr $C$DW$57, DW_AT_external
     324              $C$DW$58        .dwtag  DW_TAG_formal_parameter
     325                      .dwattr $C$DW$58, DW_AT_type(*$C$DW$T$49)
     326              
     327                      .dwendtag $C$DW$57
     328              
     329              
     330              $C$DW$59        .dwtag  DW_TAG_subprogram
TMS320C2000 Assembler PC v15.12.3 Wed Nov 22 00:56:17 2017

Tools Copyright (c) 1996-2015 Texas Instruments Incorporated
C:\Users\wmj\AppData\Local\Temp\0070810                              PAGE    7

     331                      .dwattr $C$DW$59, DW_AT_name("Brake_init")
     332                      .dwattr $C$DW$59, DW_AT_TI_symbol_name("_Brake_init")
     333                      .dwattr $C$DW$59, DW_AT_type(*$C$DW$T$72)
     334                      .dwattr $C$DW$59, DW_AT_declaration
     335                      .dwattr $C$DW$59, DW_AT_external
     336              $C$DW$60        .dwtag  DW_TAG_formal_parameter
     337                      .dwattr $C$DW$60, DW_AT_type(*$C$DW$T$3)
     338              
     339              $C$DW$61        .dwtag  DW_TAG_formal_parameter
     340                      .dwattr $C$DW$61, DW_AT_type(*$C$DW$T$183)
     341              
     342                      .dwendtag $C$DW$59
     343              
     344              
     345              $C$DW$62        .dwtag  DW_TAG_subprogram
     346                      .dwattr $C$DW$62, DW_AT_name("_IQ24cosPU")
     347                      .dwattr $C$DW$62, DW_AT_TI_symbol_name("__IQ24cosPU")
     348                      .dwattr $C$DW$62, DW_AT_type(*$C$DW$T$12)
     349                      .dwattr $C$DW$62, DW_AT_declaration
     350                      .dwattr $C$DW$62, DW_AT_external
     351              $C$DW$63        .dwtag  DW_TAG_formal_parameter
     352                      .dwattr $C$DW$63, DW_AT_type(*$C$DW$T$12)
     353              
     354                      .dwendtag $C$DW$62
     355              
     356              
     357              $C$DW$64        .dwtag  DW_TAG_subprogram
     358                      .dwattr $C$DW$64, DW_AT_name("_IQ24sqrt")
     359                      .dwattr $C$DW$64, DW_AT_TI_symbol_name("__IQ24sqrt")
     360                      .dwattr $C$DW$64, DW_AT_type(*$C$DW$T$12)
     361                      .dwattr $C$DW$64, DW_AT_declaration
     362                      .dwattr $C$DW$64, DW_AT_external
     363              $C$DW$65        .dwtag  DW_TAG_formal_parameter
     364                      .dwattr $C$DW$65, DW_AT_type(*$C$DW$T$12)
     365              
     366                      .dwendtag $C$DW$64
     367              
     368              
     369              $C$DW$66        .dwtag  DW_TAG_subprogram
     370                      .dwattr $C$DW$66, DW_AT_name("_IQ24sinPU")
     371                      .dwattr $C$DW$66, DW_AT_TI_symbol_name("__IQ24sinPU")
     372                      .dwattr $C$DW$66, DW_AT_type(*$C$DW$T$12)
     373                      .dwattr $C$DW$66, DW_AT_declaration
     374                      .dwattr $C$DW$66, DW_AT_external
     375              $C$DW$67        .dwtag  DW_TAG_formal_parameter
     376                      .dwattr $C$DW$67, DW_AT_type(*$C$DW$T$12)
     377              
     378                      .dwendtag $C$DW$66
     379              
     380              
     381              $C$DW$68        .dwtag  DW_TAG_subprogram
     382                      .dwattr $C$DW$68, DW_AT_name("__IQmpy")
     383                      .dwattr $C$DW$68, DW_AT_TI_symbol_name("___IQmpy")
     384                      .dwattr $C$DW$68, DW_AT_type(*$C$DW$T$12)
     385                      .dwattr $C$DW$68, DW_AT_declaration
TMS320C2000 Assembler PC v15.12.3 Wed Nov 22 00:56:17 2017

Tools Copyright (c) 1996-2015 Texas Instruments Incorporated
C:\Users\wmj\AppData\Local\Temp\0070810                              PAGE    8

     386                      .dwattr $C$DW$68, DW_AT_external
     387              $C$DW$69        .dwtag  DW_TAG_formal_parameter
     388                      .dwattr $C$DW$69, DW_AT_type(*$C$DW$T$12)
     389              
     390              $C$DW$70        .dwtag  DW_TAG_formal_parameter
     391                      .dwattr $C$DW$70, DW_AT_type(*$C$DW$T$12)
     392              
     393              $C$DW$71        .dwtag  DW_TAG_formal_parameter
     394                      .dwattr $C$DW$71, DW_AT_type(*$C$DW$T$10)
     395              
     396                      .dwendtag $C$DW$68
     397              
     398              
     399              $C$DW$72        .dwtag  DW_TAG_subprogram
     400                      .dwattr $C$DW$72, DW_AT_name("__IQsat")
     401                      .dwattr $C$DW$72, DW_AT_TI_symbol_name("___IQsat")
     402                      .dwattr $C$DW$72, DW_AT_type(*$C$DW$T$12)
     403                      .dwattr $C$DW$72, DW_AT_declaration
     404                      .dwattr $C$DW$72, DW_AT_external
     405              $C$DW$73        .dwtag  DW_TAG_formal_parameter
     406                      .dwattr $C$DW$73, DW_AT_type(*$C$DW$T$12)
     407              
     408              $C$DW$74        .dwtag  DW_TAG_formal_parameter
     409                      .dwattr $C$DW$74, DW_AT_type(*$C$DW$T$12)
     410              
     411              $C$DW$75        .dwtag  DW_TAG_formal_parameter
     412                      .dwattr $C$DW$75, DW_AT_type(*$C$DW$T$12)
     413              
     414                      .dwendtag $C$DW$72
     415              
     416              
     417              $C$DW$76        .dwtag  DW_TAG_subprogram
     418                      .dwattr $C$DW$76, DW_AT_name("EST_getFm_pu")
     419                      .dwattr $C$DW$76, DW_AT_TI_symbol_name("_EST_getFm_pu")
     420                      .dwattr $C$DW$76, DW_AT_type(*$C$DW$T$31)
     421                      .dwattr $C$DW$76, DW_AT_declaration
     422                      .dwattr $C$DW$76, DW_AT_external
     423              $C$DW$77        .dwtag  DW_TAG_formal_parameter
     424                      .dwattr $C$DW$77, DW_AT_type(*$C$DW$T$49)
     425              
     426                      .dwendtag $C$DW$76
     427              
     428              
     429              $C$DW$78        .dwtag  DW_TAG_subprogram
     430                      .dwattr $C$DW$78, DW_AT_name("EST_getOneOverDcBus_pu")
     431                      .dwattr $C$DW$78, DW_AT_TI_symbol_name("_EST_getOneOverDcBus_pu")
     432                      .dwattr $C$DW$78, DW_AT_type(*$C$DW$T$31)
     433                      .dwattr $C$DW$78, DW_AT_declaration
     434                      .dwattr $C$DW$78, DW_AT_external
     435              $C$DW$79        .dwtag  DW_TAG_formal_parameter
     436                      .dwattr $C$DW$79, DW_AT_type(*$C$DW$T$49)
     437              
     438                      .dwendtag $C$DW$78
     439              
     440              
TMS320C2000 Assembler PC v15.12.3 Wed Nov 22 00:56:17 2017

Tools Copyright (c) 1996-2015 Texas Instruments Incorporated
C:\Users\wmj\AppData\Local\Temp\0070810                              PAGE    9

     441              $C$DW$80        .dwtag  DW_TAG_subprogram
     442                      .dwattr $C$DW$80, DW_AT_name("EST_getAngle_pu")
     443                      .dwattr $C$DW$80, DW_AT_TI_symbol_name("_EST_getAngle_pu")
     444                      .dwattr $C$DW$80, DW_AT_type(*$C$DW$T$31)
     445                      .dwattr $C$DW$80, DW_AT_declaration
     446                      .dwattr $C$DW$80, DW_AT_external
     447              $C$DW$81        .dwtag  DW_TAG_formal_parameter
     448                      .dwattr $C$DW$81, DW_AT_type(*$C$DW$T$49)
     449              
     450                      .dwendtag $C$DW$80
     451              
     452              
     453              $C$DW$82        .dwtag  DW_TAG_subprogram
     454                      .dwattr $C$DW$82, DW_AT_name("EST_get_krpm_to_pu_sf")
     455                      .dwattr $C$DW$82, DW_AT_TI_symbol_name("_EST_get_krpm_to_pu_sf")
     456                      .dwattr $C$DW$82, DW_AT_type(*$C$DW$T$31)
     457                      .dwattr $C$DW$82, DW_AT_declaration
     458                      .dwattr $C$DW$82, DW_AT_external
     459              $C$DW$83        .dwtag  DW_TAG_formal_parameter
     460                      .dwattr $C$DW$83, DW_AT_type(*$C$DW$T$49)
     461              
     462                      .dwendtag $C$DW$82
     463              
     464              
     465              $C$DW$84        .dwtag  DW_TAG_subprogram
     466                      .dwattr $C$DW$84, DW_AT_name("labs")
     467                      .dwattr $C$DW$84, DW_AT_TI_symbol_name("_labs")
     468                      .dwattr $C$DW$84, DW_AT_type(*$C$DW$T$12)
     469                      .dwattr $C$DW$84, DW_AT_declaration
     470                      .dwattr $C$DW$84, DW_AT_external
     471              $C$DW$85        .dwtag  DW_TAG_formal_parameter
     472                      .dwattr $C$DW$85, DW_AT_type(*$C$DW$T$12)
     473              
     474                      .dwendtag $C$DW$84
     475              
     476 00000000               .sect   ".econst:_$P$T4$5"
     477                      .clink
     478                      .align  2
     479 00000000       _$P$T4$5:
     480 00000000 0000          .bits   0,32                    ; _$P$T4$5._value[0] @ 0
         00000001 0000 
     481 00000002 0000          .bits   0,32                    ; _$P$T4$5._value[1] @ 32
         00000003 0000 
     482              
     483              $C$DW$86        .dwtag  DW_TAG_variable
     484                      .dwattr $C$DW$86, DW_AT_name("$P$T4$5")
     485                      .dwattr $C$DW$86, DW_AT_TI_symbol_name("_$P$T4$5")
     486                      .dwattr $C$DW$86, DW_AT_type(*$C$DW$T$210)
     487                      .dwattr $C$DW$86, DW_AT_location[DW_OP_addr _$P$T4$5]
     488              
     489 00000000               .sect   ".econst:_$P$T5$6"
     490                      .clink
     491                      .align  2
     492 00000000       _$P$T5$6:
     493 00000000 0000          .bits   0,32                    ; _$P$T5$6._value[0] @ 0
TMS320C2000 Assembler PC v15.12.3 Wed Nov 22 00:56:17 2017

Tools Copyright (c) 1996-2015 Texas Instruments Incorporated
C:\Users\wmj\AppData\Local\Temp\0070810                              PAGE   10

         00000001 0000 
     494 00000002 0000          .bits   0,32                    ; _$P$T5$6._value[1] @ 32
         00000003 0000 
     495              
     496              $C$DW$87        .dwtag  DW_TAG_variable
     497                      .dwattr $C$DW$87, DW_AT_name("$P$T5$6")
     498                      .dwattr $C$DW$87, DW_AT_TI_symbol_name("_$P$T5$6")
     499                      .dwattr $C$DW$87, DW_AT_type(*$C$DW$T$210)
     500                      .dwattr $C$DW$87, DW_AT_location[DW_OP_addr _$P$T5$6]
     501              
     502 00000000               .sect   ".econst:_$P$T3$4"
     503                      .clink
     504                      .align  2
     505 00000000       _$P$T3$4:
     506 00000000 0000          .bits   0,32                    ; _$P$T3$4._value[0] @ 0
         00000001 0000 
     507 00000002 0000          .bits   0,32                    ; _$P$T3$4._value[1] @ 32
         00000003 0000 
     508              
     509              $C$DW$88        .dwtag  DW_TAG_variable
     510                      .dwattr $C$DW$88, DW_AT_name("$P$T3$4")
     511                      .dwattr $C$DW$88, DW_AT_TI_symbol_name("_$P$T3$4")
     512                      .dwattr $C$DW$88, DW_AT_type(*$C$DW$T$210)
     513                      .dwattr $C$DW$88, DW_AT_location[DW_OP_addr _$P$T3$4]
     514              
     515 00000000               .sect   ".econst:_$P$T1$2"
     516                      .clink
     517                      .align  2
     518 00000000       _$P$T1$2:
     519 00000000 0000          .bits   0,32                    ; _$P$T1$2._value[0] @ 0
         00000001 0000 
     520 00000002 0000          .bits   0,32                    ; _$P$T1$2._value[1] @ 32
         00000003 0000 
     521              
     522              $C$DW$89        .dwtag  DW_TAG_variable
     523                      .dwattr $C$DW$89, DW_AT_name("$P$T1$2")
     524                      .dwattr $C$DW$89, DW_AT_TI_symbol_name("_$P$T1$2")
     525                      .dwattr $C$DW$89, DW_AT_type(*$C$DW$T$210)
     526                      .dwattr $C$DW$89, DW_AT_location[DW_OP_addr _$P$T1$2]
     527              
     528 00000000               .sect   ".econst:_$P$T2$3"
     529                      .clink
     530                      .align  2
     531 00000000       _$P$T2$3:
     532 00000000 0000          .bits   0,32                    ; _$P$T2$3._value[0] @ 0
         00000001 0000 
     533 00000002 0000          .bits   0,32                    ; _$P$T2$3._value[1] @ 32
         00000003 0000 
     534              
     535              $C$DW$90        .dwtag  DW_TAG_variable
     536                      .dwattr $C$DW$90, DW_AT_name("$P$T2$3")
     537                      .dwattr $C$DW$90, DW_AT_TI_symbol_name("_$P$T2$3")
     538                      .dwattr $C$DW$90, DW_AT_type(*$C$DW$T$210)
     539                      .dwattr $C$DW$90, DW_AT_location[DW_OP_addr _$P$T2$3]
     540              
TMS320C2000 Assembler PC v15.12.3 Wed Nov 22 00:56:17 2017

Tools Copyright (c) 1996-2015 Texas Instruments Incorporated
C:\Users\wmj\AppData\Local\Temp\0070810                              PAGE   11

     541 00000000               .sect   ".econst:_$P$T0$1"
     542                      .clink
     543                      .align  2
     544 00000000       _$P$T0$1:
     545 00000000 0000          .bits   0,32                    ; _$P$T0$1._value[0] @ 0
         00000001 0000 
     546 00000002 0000          .bits   0,32                    ; _$P$T0$1._value[1] @ 32
         00000003 0000 
     547              
     548              $C$DW$91        .dwtag  DW_TAG_variable
     549                      .dwattr $C$DW$91, DW_AT_name("$P$T0$1")
     550                      .dwattr $C$DW$91, DW_AT_TI_symbol_name("_$P$T0$1")
     551                      .dwattr $C$DW$91, DW_AT_type(*$C$DW$T$210)
     552                      .dwattr $C$DW$91, DW_AT_location[DW_OP_addr _$P$T0$1]
     553              
     554              ;       C:\ti\ccsv6\tools\compiler\c2000_15.12.3.LTS\bin\opt2000.exe C:\\Users\\wmj\\AppData\\Local\\Temp\\00
     555              ;       C:\ti\ccsv6\tools\compiler\c2000_15.12.3.LTS\bin\ac2000.exe -@C:\\Users\\wmj\\AppData\\Local\\Temp\\0
     556 00000000               .sect   ".text"
     557                      .clink
     558                      .global _CTRL_updateState
     559              
     560              $C$DW$92        .dwtag  DW_TAG_subprogram
     561                      .dwattr $C$DW$92, DW_AT_name("CTRL_updateState")
     562                      .dwattr $C$DW$92, DW_AT_low_pc(_CTRL_updateState)
     563                      .dwattr $C$DW$92, DW_AT_high_pc(0x00)
     564                      .dwattr $C$DW$92, DW_AT_TI_symbol_name("_CTRL_updateState")
     565                      .dwattr $C$DW$92, DW_AT_external
     566                      .dwattr $C$DW$92, DW_AT_type(*$C$DW$T$33)
     567                      .dwattr $C$DW$92, DW_AT_TI_begin_file("C:/Users/wmj/Desktop/BM1000_v1.1/sw/modules/ctrl/src/32b/ctrl.
     568                      .dwattr $C$DW$92, DW_AT_TI_begin_line(0x294)
     569                      .dwattr $C$DW$92, DW_AT_TI_begin_column(0x06)
     570                      .dwattr $C$DW$92, DW_AT_TI_max_frame_size(-12)
     571                      .dwpsn  file "C:/Users/wmj/Desktop/BM1000_v1.1/sw/modules/ctrl/src/32b/ctrl.c",line 661,column 1,is_s
     572              
     573                      .dwfde $C$DW$CIE, _CTRL_updateState
     574              $C$DW$93        .dwtag  DW_TAG_formal_parameter
     575                      .dwattr $C$DW$93, DW_AT_name("handle")
     576                      .dwattr $C$DW$93, DW_AT_TI_symbol_name("_handle")
     577                      .dwattr $C$DW$93, DW_AT_type(*$C$DW$T$170)
     578                      .dwattr $C$DW$93, DW_AT_location[DW_OP_reg12]
     579              
     580              
     581              ;***************************************************************
     582              ;* FNAME: _CTRL_updateState             FR SIZE:  10           *
     583              ;*                                                             *
     584              ;* FUNCTION ENVIRONMENT                                        *
     585              ;*                                                             *
     586              ;* FUNCTION PROPERTIES                                         *
     587              ;*                            0 Parameter,  4 Auto,  6 SOE     *
     588              ;***************************************************************
     589              
     590              _CTRL_updateState:
     591              ;* AR3   assigned to _counter_ctrlState
     592              $C$DW$94        .dwtag  DW_TAG_variable
     593                      .dwattr $C$DW$94, DW_AT_name("counter_ctrlState")
TMS320C2000 Assembler PC v15.12.3 Wed Nov 22 00:56:17 2017

Tools Copyright (c) 1996-2015 Texas Instruments Incorporated
C:\Users\wmj\AppData\Local\Temp\0070810                              PAGE   12

     594                      .dwattr $C$DW$94, DW_AT_TI_symbol_name("_counter_ctrlState")
     595                      .dwattr $C$DW$94, DW_AT_type(*$C$DW$T$67)
     596                      .dwattr $C$DW$94, DW_AT_location[DW_OP_reg10]
     597              
     598              $C$DW$95        .dwtag  DW_TAG_variable
     599                      .dwattr $C$DW$95, DW_AT_name("waitTime")
     600                      .dwattr $C$DW$95, DW_AT_TI_symbol_name("_waitTime")
     601                      .dwattr $C$DW$95, DW_AT_type(*$C$DW$T$67)
     602                      .dwattr $C$DW$95, DW_AT_location[DW_OP_breg20 -4]
     603              
     604              ;* AR1   assigned to _stateChanged
     605              $C$DW$96        .dwtag  DW_TAG_variable
     606                      .dwattr $C$DW$96, DW_AT_name("stateChanged")
     607                      .dwattr $C$DW$96, DW_AT_TI_symbol_name("_stateChanged")
     608                      .dwattr $C$DW$96, DW_AT_type(*$C$DW$T$33)
     609                      .dwattr $C$DW$96, DW_AT_location[DW_OP_reg6]
     610              
     611              $C$DW$97        .dwtag  DW_TAG_variable
     612                      .dwattr $C$DW$97, DW_AT_name("ctrlState")
     613                      .dwattr $C$DW$97, DW_AT_TI_symbol_name("_ctrlState")
     614                      .dwattr $C$DW$97, DW_AT_type(*$C$DW$T$42)
     615                      .dwattr $C$DW$97, DW_AT_location[DW_OP_breg20 -1]
     616              
     617              ;* AR2   assigned to _handle
     618              $C$DW$98        .dwtag  DW_TAG_variable
     619                      .dwattr $C$DW$98, DW_AT_name("handle")
     620                      .dwattr $C$DW$98, DW_AT_TI_symbol_name("_handle")
     621                      .dwattr $C$DW$98, DW_AT_type(*$C$DW$T$189)
     622                      .dwattr $C$DW$98, DW_AT_location[DW_OP_reg8]
     623              
     624                      .dwcfi  cfa_offset, -2
     625                      .dwcfi  save_reg_to_mem, 26, 0
     626 00000000 B2BD          MOVL      *SP++,XAR1            ; [CPU_] 
     627                      .dwcfi  save_reg_to_mem, 7, 2
     628                      .dwcfi  cfa_offset, -4
     629 00000001 AABD          MOVL      *SP++,XAR2            ; [CPU_] 
     630                      .dwcfi  save_reg_to_mem, 9, 4
     631                      .dwcfi  cfa_offset, -6
     632 00000002 A2BD          MOVL      *SP++,XAR3            ; [CPU_] 
     633                      .dwcfi  save_reg_to_mem, 11, 6
     634                      .dwcfi  cfa_offset, -8
     635 00000003 FE04          ADDB      SP,#4                 ; [CPU_U] 
     636                      .dwcfi  cfa_offset, -12
     637 00000004 86A4          MOVL      XAR2,XAR4             ; [CPU_] |661| 
     638                      .dwpsn  file "C:/Users/wmj/Desktop/BM1000_v1.1/sw/modules/ctrl/src/32b/ctrl.c",line 667,column 3,is_s
     639 00000005 D0F0          MOVB      XAR0,#240             ; [CPU_] |667| 
     640                      .dwpsn  file "C:/Users/wmj/Desktop/BM1000_v1.1/sw/modules/ctrl/src/32b/ctrl.c",line 664,column 21,is_
     641 00000006 D100          MOVB      XAR1,#0               ; [CPU_] |664| 
     642                      .dwpsn  file "C:/Users/wmj/Desktop/BM1000_v1.1/sw/modules/ctrl/src/32b/ctrl.h",line 808,column 3,is_s
     643 00000007 92E2          MOV       AL,*+XAR2[4]          ; [CPU_] |808| 
     644 00000008 9641          MOV       *-SP[1],AL            ; [CPU_] |808| 
     645                      .dwpsn  file "C:/Users/wmj/Desktop/BM1000_v1.1/sw/modules/ctrl/src/32b/ctrl.c",line 667,column 3,is_s
     646 00000009 9292          MOV       AL,*+XAR2[AR0]        ; [CPU_] |667| 
     647 0000000a 6022          B         $C$L2,NEQ             ; [CPU_] |667| 
     648                      ; branchcc occurs ; [] |667| 
TMS320C2000 Assembler PC v15.12.3 Wed Nov 22 00:56:17 2017

Tools Copyright (c) 1996-2015 Texas Instruments Incorporated
C:\Users\wmj\AppData\Local\Temp\0070810                              PAGE   13

     649 0000000b 9241          MOV       AL,*-SP[1]            ; [CPU_] 
     650                      .dwpsn  file "C:/Users/wmj/Desktop/BM1000_v1.1/sw/modules/ctrl/src/32b/ctrl.c",line 772,column 7,is_s
     651 0000000c D018          MOVB      XAR0,#24              ; [CPU_] |772| 
     652                      .dwpsn  file "C:/Users/wmj/Desktop/BM1000_v1.1/sw/modules/ctrl/src/32b/ctrl.h",line 1842,column 3,is_
     653 0000000d 96EA          MOV       *+XAR2[5],AL          ; [CPU_] |1842| 
     654                      .dwpsn  file "C:/Users/wmj/Desktop/BM1000_v1.1/sw/modules/ctrl/src/32b/ctrl.h",line 1843,column 3,is_
     655 0000000e 56BF          MOVB      *+XAR2[4],#1,UNC      ; [CPU_] |1843| 
         0000000f 01E2 
     656                      .dwpsn  file "C:/Users/wmj/Desktop/BM1000_v1.1/sw/modules/ctrl/src/32b/ctrl.c",line 772,column 7,is_s
     657 00000010 8A92          MOVL      XAR4,*+XAR2[AR0]      ; [CPU_] |772| 
     658              $C$DW$99        .dwtag  DW_TAG_TI_branch
     659                      .dwattr $C$DW$99, DW_AT_low_pc(0x00)
     660                      .dwattr $C$DW$99, DW_AT_name("_EST_isLockRotor")
     661                      .dwattr $C$DW$99, DW_AT_TI_call
     662              
     663 00000011 7640!         LCR       #_EST_isLockRotor     ; [CPU_] |772| 
         00000012 0000 
     664                      ; call occurs [#_EST_isLockRotor] ; [] |772| 
     665 00000013 5200          CMPB      AL,#0                 ; [CPU_] |772| 
     666 00000014 FFE0          B         $C$L12,NEQ            ; [CPU_] |772| 
         00000015 0094 
     667                      ; branchcc occurs ; [] |772| 
     668                      .dwpsn  file "C:/Users/wmj/Desktop/BM1000_v1.1/sw/modules/ctrl/src/32b/ctrl.c",line 774,column 11,is_
     669 00000016 D018          MOVB      XAR0,#24              ; [CPU_] |774| 
     670 00000017 8A92          MOVL      XAR4,*+XAR2[AR0]      ; [CPU_] |774| 
     671              $C$DW$100       .dwtag  DW_TAG_TI_branch
     672                      .dwattr $C$DW$100, DW_AT_low_pc(0x00)
     673                      .dwattr $C$DW$100, DW_AT_name("_EST_isMotorIdentified")
     674                      .dwattr $C$DW$100, DW_AT_TI_call
     675              
     676 00000018 7640!         LCR       #_EST_isMotorIdentified ; [CPU_] |774| 
         00000019 0000 
     677                      ; call occurs [#_EST_isMotorIdentified] ; [] |774| 
     678 0000001a 5200          CMPB      AL,#0                 ; [CPU_] |774| 
     679 0000001b 600C          B         $C$L1,NEQ             ; [CPU_] |774| 
     680                      ; branchcc occurs ; [] |774| 
     681                      .dwpsn  file "C:/Users/wmj/Desktop/BM1000_v1.1/sw/modules/ctrl/src/32b/ctrl.c",line 780,column 15,is_
     682 0000001c D018          MOVB      XAR0,#24              ; [CPU_] |780| 
     683 0000001d 8A92          MOVL      XAR4,*+XAR2[AR0]      ; [CPU_] |780| 
     684              $C$DW$101       .dwtag  DW_TAG_TI_branch
     685                      .dwattr $C$DW$101, DW_AT_low_pc(0x00)
     686                      .dwattr $C$DW$101, DW_AT_name("_EST_setIdle_all")
     687                      .dwattr $C$DW$101, DW_AT_TI_call
     688              
     689 0000001e 7640!         LCR       #_EST_setIdle_all     ; [CPU_] |780| 
         0000001f 0000 
     690                      ; call occurs [#_EST_setIdle_all] ; [] |780| 
     691                      .dwpsn  file "C:/Users/wmj/Desktop/BM1000_v1.1/sw/modules/ctrl/src/32b/ctrl.c",line 782,column 15,is_
     692 00000020 D018          MOVB      XAR0,#24              ; [CPU_] |782| 
     693 00000021 0200          MOVB      ACC,#0                ; [CPU_] |782| 
     694 00000022 8A92          MOVL      XAR4,*+XAR2[AR0]      ; [CPU_] |782| 
     695              $C$DW$102       .dwtag  DW_TAG_TI_branch
     696                      .dwattr $C$DW$102, DW_AT_low_pc(0x00)
     697                      .dwattr $C$DW$102, DW_AT_name("_EST_setRs_pu")
     698                      .dwattr $C$DW$102, DW_AT_TI_call
TMS320C2000 Assembler PC v15.12.3 Wed Nov 22 00:56:17 2017

Tools Copyright (c) 1996-2015 Texas Instruments Incorporated
C:\Users\wmj\AppData\Local\Temp\0070810                              PAGE   14

     699              
     700 00000023 7640!         LCR       #_EST_setRs_pu        ; [CPU_] |782| 
         00000024 0000 
     701                      ; call occurs [#_EST_setRs_pu] ; [] |782| 
     702 00000025 FFEF          B         $C$L12,UNC            ; [CPU_] |782| 
         00000026 0083 
     703                      ; branch occurs ; [] |782| 
     704 00000027       $C$L1:    
     705                      .dwpsn  file "C:/Users/wmj/Desktop/BM1000_v1.1/sw/modules/ctrl/src/32b/ctrl.c",line 776,column 15,is_
     706 00000027 D018          MOVB      XAR0,#24              ; [CPU_] |776| 
     707 00000028 8A92          MOVL      XAR4,*+XAR2[AR0]      ; [CPU_] |776| 
     708              $C$DW$103       .dwtag  DW_TAG_TI_branch
     709                      .dwattr $C$DW$103, DW_AT_low_pc(0x00)
     710                      .dwattr $C$DW$103, DW_AT_name("_EST_setIdle")
     711                      .dwattr $C$DW$103, DW_AT_TI_call
     712              
     713 00000029 7640!         LCR       #_EST_setIdle         ; [CPU_] |776| 
         0000002a 0000 
     714                      ; call occurs [#_EST_setIdle] ; [] |776| 
     715                      .dwpsn  file "C:/Users/wmj/Desktop/BM1000_v1.1/sw/modules/ctrl/src/32b/ctrl.c",line 777,column 13,is_
     716 0000002b 6F7D          B         $C$L12,UNC            ; [CPU_] |777| 
     717                      ; branch occurs ; [] |777| 
     718 0000002c       $C$L2:    
     719 0000002c 9241          MOV       AL,*-SP[1]            ; [CPU_] 
     720 0000002d 2901          CLRC      SXM                   ; [CPU_] 
     721                      .dwpsn  file "C:/Users/wmj/Desktop/BM1000_v1.1/sw/modules/ctrl/src/32b/ctrl.h",line 974,column 3,is_s
     722 0000002e 5603          MOV       ACC,AL << 1           ; [CPU_] |974| 
         0000002f 01A9 
     723 00000030 07A2          ADDL      ACC,XAR2              ; [CPU_] |974| 
     724 00000031 8AA9          MOVL      XAR4,ACC              ; [CPU_] |974| 
     725 00000032 D092          MOVB      XAR0,#146             ; [CPU_] |974| 
     726 00000033 0694          MOVL      ACC,*+XAR4[AR0]       ; [CPU_] |974| 
     727                      .dwpsn  file "C:/Users/wmj/Desktop/BM1000_v1.1/sw/modules/ctrl/src/32b/ctrl.h",line 169,column 3,is_s
     728 00000034 D09A          MOVB      XAR0,#154             ; [CPU_] |169| 
     729                      .dwpsn  file "C:/Users/wmj/Desktop/BM1000_v1.1/sw/modules/ctrl/src/32b/ctrl.h",line 974,column 3,is_s
     730 00000035 1E44          MOVL      *-SP[4],ACC           ; [CPU_] |974| 
     731                      .dwpsn  file "C:/Users/wmj/Desktop/BM1000_v1.1/sw/modules/ctrl/src/32b/ctrl.h",line 169,column 3,is_s
     732 00000036 8292          MOVL      XAR3,*+XAR2[AR0]      ; [CPU_] |169| 
     733                      .dwpsn  file "C:/Users/wmj/Desktop/BM1000_v1.1/sw/modules/ctrl/src/32b/ctrl.h",line 2053,column 3,is_
     734 00000037 D018          MOVB      XAR0,#24              ; [CPU_] |2053| 
     735 00000038 8A92          MOVL      XAR4,*+XAR2[AR0]      ; [CPU_] |2053| 
     736              $C$DW$104       .dwtag  DW_TAG_TI_branch
     737                      .dwattr $C$DW$104, DW_AT_low_pc(0x00)
     738                      .dwattr $C$DW$104, DW_AT_name("_EST_isError")
     739                      .dwattr $C$DW$104, DW_AT_TI_call
     740              
     741 00000039 7640!         LCR       #_EST_isError         ; [CPU_] |2053| 
         0000003a 0000 
     742                      ; call occurs [#_EST_isError] ; [] |2053| 
     743 0000003b 5200          CMPB      AL,#0                 ; [CPU_] |2053| 
     744 0000003c 6106          B         $C$L3,EQ              ; [CPU_] |2053| 
     745                      ; branchcc occurs ; [] |2053| 
     746                      .dwpsn  file "C:/Users/wmj/Desktop/BM1000_v1.1/sw/modules/ctrl/src/32b/ctrl.h",line 1842,column 3,is_
     747 0000003d 92E2          MOV       AL,*+XAR2[4]          ; [CPU_] |1842| 
     748 0000003e 96EA          MOV       *+XAR2[5],AL          ; [CPU_] |1842| 
TMS320C2000 Assembler PC v15.12.3 Wed Nov 22 00:56:17 2017

Tools Copyright (c) 1996-2015 Texas Instruments Incorporated
C:\Users\wmj\AppData\Local\Temp\0070810                              PAGE   15

     749                      .dwpsn  file "C:/Users/wmj/Desktop/BM1000_v1.1/sw/modules/ctrl/src/32b/ctrl.h",line 1843,column 3,is_
     750 0000003f 2BE2          MOV       *+XAR2[4],#0          ; [CPU_] |1843| 
     751                      .dwpsn  file "C:/Users/wmj/Desktop/BM1000_v1.1/sw/modules/ctrl/src/32b/ctrl.h",line 1230,column 3,is_
     752 00000040 56BF          MOVB      *+XAR2[6],#2,UNC      ; [CPU_] |1230| 
         00000041 02F2 
     753 00000042       $C$L3:    
     754 00000042 0644          MOVL      ACC,*-SP[4]           ; [CPU_] 
     755                      .dwpsn  file "C:/Users/wmj/Desktop/BM1000_v1.1/sw/modules/ctrl/src/32b/ctrl.c",line 677,column 7,is_s
     756 00000043 0FA3          CMPL      ACC,XAR3              ; [CPU_] |677| 
     757 00000044 6664          B         $C$L12,HI             ; [CPU_] |677| 
     758                      ; branchcc occurs ; [] |677| 
     759                      .dwpsn  file "C:/Users/wmj/Desktop/BM1000_v1.1/sw/modules/ctrl/src/32b/ctrl.h",line 1148,column 3,is_
     760 00000045 D09A          MOVB      XAR0,#154             ; [CPU_] |1148| 
     761 00000046 0200          MOVB      ACC,#0                ; [CPU_] |1148| 
     762 00000047 1E92          MOVL      *+XAR2[AR0],ACC       ; [CPU_] |1148| 
     763 00000048 9241          MOV       AL,*-SP[1]            ; [CPU_] |1148| 
     764                      .dwpsn  file "C:/Users/wmj/Desktop/BM1000_v1.1/sw/modules/ctrl/src/32b/ctrl.c",line 683,column 11,is_
     765 00000049 5203          CMPB      AL,#3                 ; [CPU_] |683| 
     766 0000004a 612E          B         $C$L8,EQ              ; [CPU_] |683| 
     767                      ; branchcc occurs ; [] |683| 
     768                      .dwpsn  file "C:/Users/wmj/Desktop/BM1000_v1.1/sw/modules/ctrl/src/32b/ctrl.c",line 716,column 16,is_
     769 0000004b 5202          CMPB      AL,#2                 ; [CPU_] |716| 
     770 0000004c 6127          B         $C$L7,EQ              ; [CPU_] |716| 
     771                      ; branchcc occurs ; [] |716| 
     772                      .dwpsn  file "C:/Users/wmj/Desktop/BM1000_v1.1/sw/modules/ctrl/src/32b/ctrl.c",line 721,column 16,is_
     773 0000004d 5201          CMPB      AL,#1                 ; [CPU_] |721| 
     774 0000004e 605A          B         $C$L12,NEQ            ; [CPU_] |721| 
     775                      ; branchcc occurs ; [] |721| 
     776                      .dwpsn  file "C:/Users/wmj/Desktop/BM1000_v1.1/sw/modules/ctrl/src/32b/ctrl.c",line 726,column 15,is_
     777 0000004f D0F5          MOVB      XAR0,#245             ; [CPU_] |726| 
     778 00000050 9292          MOV       AL,*+XAR2[AR0]        ; [CPU_] |726| 
     779 00000051 6104          B         $C$L4,EQ              ; [CPU_] |726| 
     780                      ; branchcc occurs ; [] |726| 
     781                      .dwpsn  file "C:/Users/wmj/Desktop/BM1000_v1.1/sw/modules/ctrl/src/32b/ctrl.c",line 729,column 19,is_
     782 00000052 8AA2          MOVL      XAR4,XAR2             ; [CPU_] |729| 
     783              $C$DW$105       .dwtag  DW_TAG_TI_branch
     784                      .dwattr $C$DW$105, DW_AT_low_pc(0x00)
     785                      .dwattr $C$DW$105, DW_AT_name("_CTRL_setUserMotorParams")
     786                      .dwattr $C$DW$105, DW_AT_TI_call
     787              
     788 00000053 7640!         LCR       #_CTRL_setUserMotorParams ; [CPU_] |729| 
         00000054 0000 
     789                      ; call occurs [#_CTRL_setUserMotorParams] ; [] |729| 
     790 00000055       $C$L4:    
     791                      .dwpsn  file "C:/Users/wmj/Desktop/BM1000_v1.1/sw/modules/ctrl/src/32b/ctrl.c",line 732,column 15,is_
     792 00000055 D018          MOVB      XAR0,#24              ; [CPU_] |732| 
     793 00000056 8A92          MOVL      XAR4,*+XAR2[AR0]      ; [CPU_] |732| 
     794              $C$DW$106       .dwtag  DW_TAG_TI_branch
     795                      .dwattr $C$DW$106, DW_AT_low_pc(0x00)
     796                      .dwattr $C$DW$106, DW_AT_name("_EST_isIdle")
     797                      .dwattr $C$DW$106, DW_AT_TI_call
     798              
     799 00000057 7640!         LCR       #_EST_isIdle          ; [CPU_] |732| 
         00000058 0000 
     800                      ; call occurs [#_EST_isIdle] ; [] |732| 
TMS320C2000 Assembler PC v15.12.3 Wed Nov 22 00:56:17 2017

Tools Copyright (c) 1996-2015 Texas Instruments Incorporated
C:\Users\wmj\AppData\Local\Temp\0070810                              PAGE   16

     801 00000059 5200          CMPB      AL,#0                 ; [CPU_] |732| 
     802 0000005a 6008          B         $C$L5,NEQ             ; [CPU_] |732| 
     803                      ; branchcc occurs ; [] |732| 
     804                      .dwpsn  file "C:/Users/wmj/Desktop/BM1000_v1.1/sw/modules/ctrl/src/32b/ctrl.c",line 756,column 20,is_
     805 0000005b D018          MOVB      XAR0,#24              ; [CPU_] |756| 
     806 0000005c 8A92          MOVL      XAR4,*+XAR2[AR0]      ; [CPU_] |756| 
     807              $C$DW$107       .dwtag  DW_TAG_TI_branch
     808                      .dwattr $C$DW$107, DW_AT_low_pc(0x00)
     809                      .dwattr $C$DW$107, DW_AT_name("_EST_isLockRotor")
     810                      .dwattr $C$DW$107, DW_AT_TI_call
     811              
     812 0000005d 7640!         LCR       #_EST_isLockRotor     ; [CPU_] |756| 
         0000005e 0000 
     813                      ; call occurs [#_EST_isLockRotor] ; [] |756| 
     814 0000005f 5200          CMPB      AL,#0                 ; [CPU_] |756| 
     815 00000060 6013          B         $C$L7,NEQ             ; [CPU_] |756| 
     816                      ; branchcc occurs ; [] |756| 
     817 00000061 6F47          B         $C$L12,UNC            ; [CPU_] |756| 
     818                      ; branch occurs ; [] |756| 
     819 00000062       $C$L5:    
     820                      .dwpsn  file "C:/Users/wmj/Desktop/BM1000_v1.1/sw/modules/ctrl/src/32b/ctrl.c",line 735,column 19,is_
     821 00000062 8AA2          MOVL      XAR4,XAR2             ; [CPU_] |735| 
     822              $C$DW$108       .dwtag  DW_TAG_TI_branch
     823                      .dwattr $C$DW$108, DW_AT_low_pc(0x00)
     824                      .dwattr $C$DW$108, DW_AT_name("_CTRL_setupEstIdleState")
     825                      .dwattr $C$DW$108, DW_AT_TI_call
     826              
     827 00000063 7640!         LCR       #_CTRL_setupEstIdleState ; [CPU_] |735| 
         00000064 0000 
     828                      ; call occurs [#_CTRL_setupEstIdleState] ; [] |735| 
     829                      .dwpsn  file "C:/Users/wmj/Desktop/BM1000_v1.1/sw/modules/ctrl/src/32b/ctrl.c",line 737,column 19,is_
     830 00000065 D018          MOVB      XAR0,#24              ; [CPU_] |737| 
     831 00000066 8A92          MOVL      XAR4,*+XAR2[AR0]      ; [CPU_] |737| 
     832              $C$DW$109       .dwtag  DW_TAG_TI_branch
     833                      .dwattr $C$DW$109, DW_AT_low_pc(0x00)
     834                      .dwattr $C$DW$109, DW_AT_name("_EST_isMotorIdentified")
     835                      .dwattr $C$DW$109, DW_AT_TI_call
     836              
     837 00000067 7640!         LCR       #_EST_isMotorIdentified ; [CPU_] |737| 
         00000068 0000 
     838                      ; call occurs [#_EST_isMotorIdentified] ; [] |737| 
     839 00000069 5200          CMPB      AL,#0                 ; [CPU_] |737| 
     840 0000006a 6104          B         $C$L6,EQ              ; [CPU_] |737| 
     841                      ; branchcc occurs ; [] |737| 
     842 0000006b D0F3          MOVB      XAR0,#243             ; [CPU_] |737| 
     843 0000006c 9292          MOV       AL,*+XAR2[AR0]        ; [CPU_] |737| 
     844 0000006d 6106          B         $C$L7,EQ              ; [CPU_] |737| 
     845                      ; branchcc occurs ; [] |737| 
     846 0000006e       $C$L6:    
     847                      .dwpsn  file "C:/Users/wmj/Desktop/BM1000_v1.1/sw/modules/ctrl/src/32b/ctrl.h",line 1842,column 3,is_
     848 0000006e 92E2          MOV       AL,*+XAR2[4]          ; [CPU_] |1842| 
     849 0000006f 96EA          MOV       *+XAR2[5],AL          ; [CPU_] |1842| 
     850                      .dwpsn  file "C:/Users/wmj/Desktop/BM1000_v1.1/sw/modules/ctrl/src/32b/ctrl.h",line 1843,column 3,is_
     851 00000070 56BF          MOVB      *+XAR2[4],#2,UNC      ; [CPU_] |1843| 
         00000071 02E2 
TMS320C2000 Assembler PC v15.12.3 Wed Nov 22 00:56:17 2017

Tools Copyright (c) 1996-2015 Texas Instruments Incorporated
C:\Users\wmj\AppData\Local\Temp\0070810                              PAGE   17

     852                      .dwpsn  file "C:/Users/wmj/Desktop/BM1000_v1.1/sw/modules/ctrl/src/32b/ctrl.h",line 1845,column 3,is_
     853 00000072 6F36          B         $C$L12,UNC            ; [CPU_] |1845| 
     854                      ; branch occurs ; [] |1845| 
     855 00000073       $C$L7:    
     856                      .dwpsn  file "C:/Users/wmj/Desktop/BM1000_v1.1/sw/modules/ctrl/src/32b/ctrl.h",line 1842,column 3,is_
     857 00000073 92E2          MOV       AL,*+XAR2[4]          ; [CPU_] |1842| 
     858 00000074 96EA          MOV       *+XAR2[5],AL          ; [CPU_] |1842| 
     859                      .dwpsn  file "C:/Users/wmj/Desktop/BM1000_v1.1/sw/modules/ctrl/src/32b/ctrl.h",line 1843,column 3,is_
     860 00000075 56BF          MOVB      *+XAR2[4],#3,UNC      ; [CPU_] |1843| 
         00000076 03E2 
     861                      .dwpsn  file "C:/Users/wmj/Desktop/BM1000_v1.1/sw/modules/ctrl/src/32b/ctrl.h",line 1845,column 3,is_
     862 00000077 6F31          B         $C$L12,UNC            ; [CPU_] |1845| 
     863                      ; branch occurs ; [] |1845| 
     864 00000078       $C$L8:    
     865                      .dwpsn  file "C:/Users/wmj/Desktop/BM1000_v1.1/sw/modules/ctrl/src/32b/ctrl.c",line 689,column 41,is_
     866 00000078 D018          MOVB      XAR0,#24              ; [CPU_] |689| 
     867 00000079 8A92          MOVL      XAR4,*+XAR2[AR0]      ; [CPU_] |689| 
     868 0000007a D060          MOVB      XAR0,#96              ; [CPU_] |689| 
     869 0000007b 8392          MOVL      XAR5,*+XAR2[AR0]      ; [CPU_] |689| 
     870 0000007c 06C5          MOVL      ACC,*+XAR5[0]         ; [CPU_] |689| 
     871              $C$DW$110       .dwtag  DW_TAG_TI_branch
     872                      .dwattr $C$DW$110, DW_AT_low_pc(0x00)
     873                      .dwattr $C$DW$110, DW_AT_name("_EST_updateState")
     874                      .dwattr $C$DW$110, DW_AT_TI_call
     875              
     876 0000007d 7640!         LCR       #_EST_updateState     ; [CPU_] |689| 
         0000007e 0000 
     877                      ; call occurs [#_EST_updateState] ; [] |689| 
     878 0000007f 5200          CMPB      AL,#0                 ; [CPU_] |689| 
     879 00000080 6107          B         $C$L9,EQ              ; [CPU_] |689| 
     880                      ; branchcc occurs ; [] |689| 
     881                      .dwpsn  file "C:/Users/wmj/Desktop/BM1000_v1.1/sw/modules/ctrl/src/32b/ctrl.c",line 694,column 19,is_
     882 00000081 8AA2          MOVL      XAR4,XAR2             ; [CPU_] |694| 
     883              $C$DW$111       .dwtag  DW_TAG_TI_branch
     884                      .dwattr $C$DW$111, DW_AT_low_pc(0x00)
     885                      .dwattr $C$DW$111, DW_AT_name("_CTRL_setupCtrl")
     886                      .dwattr $C$DW$111, DW_AT_TI_call
     887              
     888 00000082 7640!         LCR       #_CTRL_setupCtrl      ; [CPU_] |694| 
         00000083 0000 
     889                      ; call occurs [#_CTRL_setupCtrl] ; [] |694| 
     890                      .dwpsn  file "C:/Users/wmj/Desktop/BM1000_v1.1/sw/modules/ctrl/src/32b/ctrl.c",line 697,column 19,is_
     891 00000084 8AA2          MOVL      XAR4,XAR2             ; [CPU_] |697| 
     892              $C$DW$112       .dwtag  DW_TAG_TI_branch
     893                      .dwattr $C$DW$112, DW_AT_low_pc(0x00)
     894                      .dwattr $C$DW$112, DW_AT_name("_CTRL_setupTraj")
     895                      .dwattr $C$DW$112, DW_AT_TI_call
     896              
     897 00000085 7640!         LCR       #_CTRL_setupTraj      ; [CPU_] |697| 
         00000086 0000 
     898                      ; call occurs [#_CTRL_setupTraj] ; [] |697| 
     899 00000087       $C$L9:    
     900                      .dwpsn  file "C:/Users/wmj/Desktop/BM1000_v1.1/sw/modules/ctrl/src/32b/ctrl.c",line 700,column 15,is_
     901 00000087 D018          MOVB      XAR0,#24              ; [CPU_] |700| 
     902 00000088 8A92          MOVL      XAR4,*+XAR2[AR0]      ; [CPU_] |700| 
TMS320C2000 Assembler PC v15.12.3 Wed Nov 22 00:56:17 2017

Tools Copyright (c) 1996-2015 Texas Instruments Incorporated
C:\Users\wmj\AppData\Local\Temp\0070810                              PAGE   18

     903              $C$DW$113       .dwtag  DW_TAG_TI_branch
     904                      .dwattr $C$DW$113, DW_AT_low_pc(0x00)
     905                      .dwattr $C$DW$113, DW_AT_name("_EST_isOnLine")
     906                      .dwattr $C$DW$113, DW_AT_TI_call
     907              
     908 00000089 7640!         LCR       #_EST_isOnLine        ; [CPU_] |700| 
         0000008a 0000 
     909                      ; call occurs [#_EST_isOnLine] ; [] |700| 
     910 0000008b 5200          CMPB      AL,#0                 ; [CPU_] |700| 
     911 0000008c 6104          B         $C$L10,EQ             ; [CPU_] |700| 
     912                      ; branchcc occurs ; [] |700| 
     913                      .dwpsn  file "C:/Users/wmj/Desktop/BM1000_v1.1/sw/modules/ctrl/src/32b/ctrl.c",line 703,column 19,is_
     914 0000008d 8AA2          MOVL      XAR4,XAR2             ; [CPU_] |703| 
     915              $C$DW$114       .dwtag  DW_TAG_TI_branch
     916                      .dwattr $C$DW$114, DW_AT_low_pc(0x00)
     917                      .dwattr $C$DW$114, DW_AT_name("_CTRL_setupEstOnLineState")
     918                      .dwattr $C$DW$114, DW_AT_TI_call
     919              
     920 0000008e 7640!         LCR       #_CTRL_setupEstOnLineState ; [CPU_] |703| 
         0000008f 0000 
     921                      ; call occurs [#_CTRL_setupEstOnLineState] ; [] |703| 
     922 00000090       $C$L10:    
     923                      .dwpsn  file "C:/Users/wmj/Desktop/BM1000_v1.1/sw/modules/ctrl/src/32b/ctrl.c",line 706,column 15,is_
     924 00000090 D018          MOVB      XAR0,#24              ; [CPU_] |706| 
     925 00000091 8A92          MOVL      XAR4,*+XAR2[AR0]      ; [CPU_] |706| 
     926              $C$DW$115       .dwtag  DW_TAG_TI_branch
     927                      .dwattr $C$DW$115, DW_AT_low_pc(0x00)
     928                      .dwattr $C$DW$115, DW_AT_name("_EST_isLockRotor")
     929                      .dwattr $C$DW$115, DW_AT_TI_call
     930              
     931 00000092 7640!         LCR       #_EST_isLockRotor     ; [CPU_] |706| 
         00000093 0000 
     932                      ; call occurs [#_EST_isLockRotor] ; [] |706| 
     933 00000094 5200          CMPB      AL,#0                 ; [CPU_] |706| 
     934 00000095 600D          B         $C$L11,NEQ            ; [CPU_] |706| 
     935                      ; branchcc occurs ; [] |706| 
     936 00000096 D018          MOVB      XAR0,#24              ; [CPU_] |706| 
     937 00000097 8A92          MOVL      XAR4,*+XAR2[AR0]      ; [CPU_] |706| 
     938              $C$DW$116       .dwtag  DW_TAG_TI_branch
     939                      .dwattr $C$DW$116, DW_AT_low_pc(0x00)
     940                      .dwattr $C$DW$116, DW_AT_name("_EST_isIdle")
     941                      .dwattr $C$DW$116, DW_AT_TI_call
     942              
     943 00000098 7640!         LCR       #_EST_isIdle          ; [CPU_] |706| 
         00000099 0000 
     944                      ; call occurs [#_EST_isIdle] ; [] |706| 
     945 0000009a 5200          CMPB      AL,#0                 ; [CPU_] |706| 
     946 0000009b 610D          B         $C$L12,EQ             ; [CPU_] |706| 
     947                      ; branchcc occurs ; [] |706| 
     948 0000009c D018          MOVB      XAR0,#24              ; [CPU_] |706| 
     949 0000009d 8A92          MOVL      XAR4,*+XAR2[AR0]      ; [CPU_] |706| 
     950              $C$DW$117       .dwtag  DW_TAG_TI_branch
     951                      .dwattr $C$DW$117, DW_AT_low_pc(0x00)
     952                      .dwattr $C$DW$117, DW_AT_name("_EST_isMotorIdentified")
     953                      .dwattr $C$DW$117, DW_AT_TI_call
TMS320C2000 Assembler PC v15.12.3 Wed Nov 22 00:56:17 2017

Tools Copyright (c) 1996-2015 Texas Instruments Incorporated
C:\Users\wmj\AppData\Local\Temp\0070810                              PAGE   19

     954              
     955 0000009e 7640!         LCR       #_EST_isMotorIdentified ; [CPU_] |706| 
         0000009f 0000 
     956                      ; call occurs [#_EST_isMotorIdentified] ; [] |706| 
     957 000000a0 5200          CMPB      AL,#0                 ; [CPU_] |706| 
     958 000000a1 6107          B         $C$L12,EQ             ; [CPU_] |706| 
     959                      ; branchcc occurs ; [] |706| 
     960 000000a2       $C$L11:    
     961                      .dwpsn  file "C:/Users/wmj/Desktop/BM1000_v1.1/sw/modules/ctrl/src/32b/ctrl.h",line 1255,column 3,is_
     962 000000a2 D0F0          MOVB      XAR0,#240             ; [CPU_] |1255| 
     963 000000a3 2B92          MOV       *+XAR2[AR0],#0        ; [CPU_] |1255| 
     964                      .dwpsn  file "C:/Users/wmj/Desktop/BM1000_v1.1/sw/modules/ctrl/src/32b/ctrl.h",line 1842,column 3,is_
     965 000000a4 92E2          MOV       AL,*+XAR2[4]          ; [CPU_] |1842| 
     966 000000a5 96EA          MOV       *+XAR2[5],AL          ; [CPU_] |1842| 
     967                      .dwpsn  file "C:/Users/wmj/Desktop/BM1000_v1.1/sw/modules/ctrl/src/32b/ctrl.h",line 1843,column 3,is_
     968 000000a6 56BF          MOVB      *+XAR2[4],#1,UNC      ; [CPU_] |1843| 
         000000a7 01E2 
     969 000000a8       $C$L12:    
     970                      .dwpsn  file "C:/Users/wmj/Desktop/BM1000_v1.1/sw/modules/ctrl/src/32b/ctrl.c",line 789,column 3,is_s
     971 000000a8 8841          MOVZ      AR6,*-SP[1]           ; [CPU_] |789| 
     972 000000a9 0EE2          MOVU      ACC,*+XAR2[4]         ; [CPU_] |789| 
     973 000000aa 0FA6          CMPL      ACC,XAR6              ; [CPU_] |789| 
     974                      .dwpsn  file "C:/Users/wmj/Desktop/BM1000_v1.1/sw/modules/ctrl/src/32b/ctrl.c",line 791,column 7,is_s
     975 000000ab 56B0          MOVB      XAR1,#1,NEQ           ; [CPU_] |791| 
         000000ac 01A1 
     976 000000ad FE84          SUBB      SP,#4                 ; [CPU_U] 
     977                      .dwcfi  cfa_offset, -8
     978                      .dwpsn  file "C:/Users/wmj/Desktop/BM1000_v1.1/sw/modules/ctrl/src/32b/ctrl.c",line 794,column 3,is_s
     979 000000ae 92A1          MOV       AL,AR1                ; [CPU_] |794| 
     980 000000af 82BE          MOVL      XAR3,*--SP            ; [CPU_] 
     981                      .dwcfi  cfa_offset, -6
     982                      .dwcfi  restore_reg, 11
     983 000000b0 86BE          MOVL      XAR2,*--SP            ; [CPU_] 
     984                      .dwcfi  cfa_offset, -4
     985                      .dwcfi  restore_reg, 9
     986 000000b1 8BBE          MOVL      XAR1,*--SP            ; [CPU_] 
     987                      .dwcfi  cfa_offset, -2
     988                      .dwcfi  restore_reg, 7
     989              $C$DW$118       .dwtag  DW_TAG_TI_branch
     990                      .dwattr $C$DW$118, DW_AT_low_pc(0x00)
     991                      .dwattr $C$DW$118, DW_AT_TI_return
     992              
     993 000000b2 0006          LRETR     ; [CPU_] 
     994                      ; return occurs ; [] 
     995                      .dwattr $C$DW$92, DW_AT_TI_end_file("C:/Users/wmj/Desktop/BM1000_v1.1/sw/modules/ctrl/src/32b/ctrl.c"
     996                      .dwattr $C$DW$92, DW_AT_TI_end_line(0x31b)
     997                      .dwattr $C$DW$92, DW_AT_TI_end_column(0x01)
     998                      .dwendentry
     999                      .dwendtag $C$DW$92
    1000              
    1001 000000b3               .sect   ".text"
    1002                      .clink
    1003                      .global _CTRL_setupClarke_V
    1004              
    1005              $C$DW$119       .dwtag  DW_TAG_subprogram
TMS320C2000 Assembler PC v15.12.3 Wed Nov 22 00:56:17 2017

Tools Copyright (c) 1996-2015 Texas Instruments Incorporated
C:\Users\wmj\AppData\Local\Temp\0070810                              PAGE   20

    1006                      .dwattr $C$DW$119, DW_AT_name("CTRL_setupClarke_V")
    1007                      .dwattr $C$DW$119, DW_AT_low_pc(_CTRL_setupClarke_V)
    1008                      .dwattr $C$DW$119, DW_AT_high_pc(0x00)
    1009                      .dwattr $C$DW$119, DW_AT_TI_symbol_name("_CTRL_setupClarke_V")
    1010                      .dwattr $C$DW$119, DW_AT_external
    1011                      .dwattr $C$DW$119, DW_AT_TI_begin_file("C:/Users/wmj/Desktop/BM1000_v1.1/sw/modules/ctrl/src/32b/ctrl
    1012                      .dwattr $C$DW$119, DW_AT_TI_begin_line(0x22a)
    1013                      .dwattr $C$DW$119, DW_AT_TI_begin_column(0x06)
    1014                      .dwattr $C$DW$119, DW_AT_TI_max_frame_size(-2)
    1015                      .dwpsn  file "C:/Users/wmj/Desktop/BM1000_v1.1/sw/modules/ctrl/src/32b/ctrl.c",line 555,column 1,is_s
    1016              
    1017                      .dwfde $C$DW$CIE, _CTRL_setupClarke_V
    1018              $C$DW$120       .dwtag  DW_TAG_formal_parameter
    1019                      .dwattr $C$DW$120, DW_AT_name("handle")
    1020                      .dwattr $C$DW$120, DW_AT_TI_symbol_name("_handle")
    1021                      .dwattr $C$DW$120, DW_AT_type(*$C$DW$T$170)
    1022                      .dwattr $C$DW$120, DW_AT_location[DW_OP_reg12]
    1023              
    1024              $C$DW$121       .dwtag  DW_TAG_formal_parameter
    1025                      .dwattr $C$DW$121, DW_AT_name("numVoltageSensors")
    1026                      .dwattr $C$DW$121, DW_AT_TI_symbol_name("_numVoltageSensors")
    1027                      .dwattr $C$DW$121, DW_AT_type(*$C$DW$T$35)
    1028                      .dwattr $C$DW$121, DW_AT_location[DW_OP_reg0]
    1029              
    1030              
    1031              ;***************************************************************
    1032              ;* FNAME: _CTRL_setupClarke_V           FR SIZE:   0           *
    1033              ;*                                                             *
    1034              ;* FUNCTION ENVIRONMENT                                        *
    1035              ;*                                                             *
    1036              ;* FUNCTION PROPERTIES                                         *
    1037              ;*                            0 Parameter,  0 Auto,  0 SOE     *
    1038              ;***************************************************************
    1039              
    1040              _CTRL_setupClarke_V:
    1041              ;* AR5   assigned to _obj
    1042              $C$DW$122       .dwtag  DW_TAG_variable
    1043                      .dwattr $C$DW$122, DW_AT_name("obj")
    1044                      .dwattr $C$DW$122, DW_AT_TI_symbol_name("_obj")
    1045                      .dwattr $C$DW$122, DW_AT_type(*$C$DW$T$187)
    1046                      .dwattr $C$DW$122, DW_AT_location[DW_OP_reg14]
    1047              
    1048              ;* PL    assigned to _beta_sf
    1049              $C$DW$123       .dwtag  DW_TAG_variable
    1050                      .dwattr $C$DW$123, DW_AT_name("beta_sf")
    1051                      .dwattr $C$DW$123, DW_AT_TI_symbol_name("_beta_sf")
    1052                      .dwattr $C$DW$123, DW_AT_type(*$C$DW$T$31)
    1053                      .dwattr $C$DW$123, DW_AT_location[DW_OP_reg2]
    1054              
    1055              ;* AR6   assigned to _alpha_sf
    1056              $C$DW$124       .dwtag  DW_TAG_variable
    1057                      .dwattr $C$DW$124, DW_AT_name("alpha_sf")
    1058                      .dwattr $C$DW$124, DW_AT_TI_symbol_name("_alpha_sf")
    1059                      .dwattr $C$DW$124, DW_AT_type(*$C$DW$T$31)
    1060                      .dwattr $C$DW$124, DW_AT_location[DW_OP_reg16]
TMS320C2000 Assembler PC v15.12.3 Wed Nov 22 00:56:17 2017

Tools Copyright (c) 1996-2015 Texas Instruments Incorporated
C:\Users\wmj\AppData\Local\Temp\0070810                              PAGE   21

    1061              
    1062              ;* AL    assigned to _numVoltageSensors
    1063              $C$DW$125       .dwtag  DW_TAG_variable
    1064                      .dwattr $C$DW$125, DW_AT_name("numVoltageSensors")
    1065                      .dwattr $C$DW$125, DW_AT_TI_symbol_name("_numVoltageSensors")
    1066                      .dwattr $C$DW$125, DW_AT_type(*$C$DW$T$236)
    1067                      .dwattr $C$DW$125, DW_AT_location[DW_OP_reg0]
    1068              
    1069              ;* AR4   assigned to _handle
    1070              $C$DW$126       .dwtag  DW_TAG_variable
    1071                      .dwattr $C$DW$126, DW_AT_name("handle")
    1072                      .dwattr $C$DW$126, DW_AT_TI_symbol_name("_handle")
    1073                      .dwattr $C$DW$126, DW_AT_type(*$C$DW$T$189)
    1074                      .dwattr $C$DW$126, DW_AT_location[DW_OP_reg12]
    1075              
    1076                      .dwcfi  cfa_offset, -2
    1077                      .dwcfi  save_reg_to_mem, 26, 0
    1078                      .dwpsn  file "C:/Users/wmj/Desktop/BM1000_v1.1/sw/modules/ctrl/src/32b/ctrl.c",line 561,column 3,is_s
    1079 000000b3 5203          CMPB      AL,#3                 ; [CPU_] |561| 
    1080 000000b4 6104          B         $C$L13,EQ             ; [CPU_] |561| 
    1081                      ; branchcc occurs ; [] |561| 
    1082                      .dwpsn  file "C:/Users/wmj/Desktop/BM1000_v1.1/sw/modules/ctrl/src/32b/ctrl.c",line 568,column 7,is_s
    1083 000000b5 BE00          MOVB      XAR6,#0               ; [CPU_] |568| 
    1084                      .dwpsn  file "C:/Users/wmj/Desktop/BM1000_v1.1/sw/modules/ctrl/src/32b/ctrl.c",line 569,column 7,is_s
    1085 000000b6 3100          MOV       P,#0                  ; [CPU_] |569| 
    1086 000000b7 6F0A          B         $C$L14,UNC            ; [CPU_] |569| 
    1087                      ; branch occurs ; [] |569| 
    1088 000000b8       $C$L13:    
    1089                      .dwpsn  file "C:/Users/wmj/Desktop/BM1000_v1.1/sw/modules/ctrl/src/32b/ctrl.c",line 563,column 7,is_s
    1090 000000b8 28AB          MOV       PL,#21845             ; [CPU_] |563| 
         000000b9 5555 
    1091 000000ba 28AA          MOV       PH,#85                ; [CPU_] |563| 
         000000bb 0055 
    1092 000000bc A9A6          MOVL      XAR6,P                ; [CPU_] |563| 
    1093                      .dwpsn  file "C:/Users/wmj/Desktop/BM1000_v1.1/sw/modules/ctrl/src/32b/ctrl.c",line 564,column 7,is_s
    1094 000000bd 28AB          MOV       PL,#52538             ; [CPU_] |564| 
         000000be CD3A 
    1095 000000bf 28AA          MOV       PH,#147               ; [CPU_] |564| 
         000000c0 0093 
    1096 000000c1       $C$L14:    
    1097                      .dwpsn  file "C:/Users/wmj/Desktop/BM1000_v1.1/sw/modules/clarke/src/32b/clarke.h",line 182,column 19
    1098 000000c1 D010          MOVB      XAR0,#16              ; [CPU_] |182| 
    1099 000000c2 8394          MOVL      XAR5,*+XAR4[AR0]      ; [CPU_] |182| 
    1100                      .dwpsn  file "C:/Users/wmj/Desktop/BM1000_v1.1/sw/modules/clarke/src/32b/clarke.h",line 170,column 3,
    1101 000000c3 D010          MOVB      XAR0,#16              ; [CPU_] |170| 
    1102                      .dwpsn  file "C:/Users/wmj/Desktop/BM1000_v1.1/sw/modules/clarke/src/32b/clarke.h",line 185,column 3,
    1103 000000c4 C2C5          MOVL      *+XAR5[0],XAR6        ; [CPU_] |185| 
    1104                      .dwpsn  file "C:/Users/wmj/Desktop/BM1000_v1.1/sw/modules/clarke/src/32b/clarke.h",line 186,column 3,
    1105 000000c5 A9D5          MOVL      *+XAR5[2],P           ; [CPU_] |186| 
    1106                      .dwpsn  file "C:/Users/wmj/Desktop/BM1000_v1.1/sw/modules/clarke/src/32b/clarke.h",line 170,column 3,
    1107 000000c6 8A94          MOVL      XAR4,*+XAR4[AR0]      ; [CPU_] |170| 
    1108 000000c7 96E4          MOV       *+XAR4[4],AL          ; [CPU_] |170| 
    1109              $C$DW$127       .dwtag  DW_TAG_TI_branch
    1110                      .dwattr $C$DW$127, DW_AT_low_pc(0x00)
    1111                      .dwattr $C$DW$127, DW_AT_TI_return
TMS320C2000 Assembler PC v15.12.3 Wed Nov 22 00:56:17 2017

Tools Copyright (c) 1996-2015 Texas Instruments Incorporated
C:\Users\wmj\AppData\Local\Temp\0070810                              PAGE   22

    1112              
    1113 000000c8 0006          LRETR     ; [CPU_] 
    1114                      ; return occurs ; [] 
    1115                      .dwattr $C$DW$119, DW_AT_TI_end_file("C:/Users/wmj/Desktop/BM1000_v1.1/sw/modules/ctrl/src/32b/ctrl.c
    1116                      .dwattr $C$DW$119, DW_AT_TI_end_line(0x241)
    1117                      .dwattr $C$DW$119, DW_AT_TI_end_column(0x01)
    1118                      .dwendentry
    1119                      .dwendtag $C$DW$119
    1120              
    1121 000000c9               .sect   ".text"
    1122                      .clink
    1123                      .global _CTRL_setupClarke_I
    1124              
    1125              $C$DW$128       .dwtag  DW_TAG_subprogram
    1126                      .dwattr $C$DW$128, DW_AT_name("CTRL_setupClarke_I")
    1127                      .dwattr $C$DW$128, DW_AT_low_pc(_CTRL_setupClarke_I)
    1128                      .dwattr $C$DW$128, DW_AT_high_pc(0x00)
    1129                      .dwattr $C$DW$128, DW_AT_TI_symbol_name("_CTRL_setupClarke_I")
    1130                      .dwattr $C$DW$128, DW_AT_external
    1131                      .dwattr $C$DW$128, DW_AT_TI_begin_file("C:/Users/wmj/Desktop/BM1000_v1.1/sw/modules/ctrl/src/32b/ctrl
    1132                      .dwattr $C$DW$128, DW_AT_TI_begin_line(0x20b)
    1133                      .dwattr $C$DW$128, DW_AT_TI_begin_column(0x06)
    1134                      .dwattr $C$DW$128, DW_AT_TI_max_frame_size(-2)
    1135                      .dwpsn  file "C:/Users/wmj/Desktop/BM1000_v1.1/sw/modules/ctrl/src/32b/ctrl.c",line 524,column 1,is_s
    1136              
    1137                      .dwfde $C$DW$CIE, _CTRL_setupClarke_I
    1138              $C$DW$129       .dwtag  DW_TAG_formal_parameter
    1139                      .dwattr $C$DW$129, DW_AT_name("handle")
    1140                      .dwattr $C$DW$129, DW_AT_TI_symbol_name("_handle")
    1141                      .dwattr $C$DW$129, DW_AT_type(*$C$DW$T$170)
    1142                      .dwattr $C$DW$129, DW_AT_location[DW_OP_reg12]
    1143              
    1144              $C$DW$130       .dwtag  DW_TAG_formal_parameter
    1145                      .dwattr $C$DW$130, DW_AT_name("numCurrentSensors")
    1146                      .dwattr $C$DW$130, DW_AT_TI_symbol_name("_numCurrentSensors")
    1147                      .dwattr $C$DW$130, DW_AT_type(*$C$DW$T$35)
    1148                      .dwattr $C$DW$130, DW_AT_location[DW_OP_reg0]
    1149              
    1150              
    1151              ;***************************************************************
    1152              ;* FNAME: _CTRL_setupClarke_I           FR SIZE:   0           *
    1153              ;*                                                             *
    1154              ;* FUNCTION ENVIRONMENT                                        *
    1155              ;*                                                             *
    1156              ;* FUNCTION PROPERTIES                                         *
    1157              ;*                            0 Parameter,  0 Auto,  0 SOE     *
    1158              ;***************************************************************
    1159              
    1160              _CTRL_setupClarke_I:
    1161              ;* AR5   assigned to _obj
    1162              $C$DW$131       .dwtag  DW_TAG_variable
    1163                      .dwattr $C$DW$131, DW_AT_name("obj")
    1164                      .dwattr $C$DW$131, DW_AT_TI_symbol_name("_obj")
    1165                      .dwattr $C$DW$131, DW_AT_type(*$C$DW$T$187)
    1166                      .dwattr $C$DW$131, DW_AT_location[DW_OP_reg14]
TMS320C2000 Assembler PC v15.12.3 Wed Nov 22 00:56:17 2017

Tools Copyright (c) 1996-2015 Texas Instruments Incorporated
C:\Users\wmj\AppData\Local\Temp\0070810                              PAGE   23

    1167              
    1168              ;* PL    assigned to _beta_sf
    1169              $C$DW$132       .dwtag  DW_TAG_variable
    1170                      .dwattr $C$DW$132, DW_AT_name("beta_sf")
    1171                      .dwattr $C$DW$132, DW_AT_TI_symbol_name("_beta_sf")
    1172                      .dwattr $C$DW$132, DW_AT_type(*$C$DW$T$31)
    1173                      .dwattr $C$DW$132, DW_AT_location[DW_OP_reg2]
    1174              
    1175              ;* AR6   assigned to _alpha_sf
    1176              $C$DW$133       .dwtag  DW_TAG_variable
    1177                      .dwattr $C$DW$133, DW_AT_name("alpha_sf")
    1178                      .dwattr $C$DW$133, DW_AT_TI_symbol_name("_alpha_sf")
    1179                      .dwattr $C$DW$133, DW_AT_type(*$C$DW$T$31)
    1180                      .dwattr $C$DW$133, DW_AT_location[DW_OP_reg16]
    1181              
    1182              ;* AL    assigned to _numCurrentSensors
    1183              $C$DW$134       .dwtag  DW_TAG_variable
    1184                      .dwattr $C$DW$134, DW_AT_name("numCurrentSensors")
    1185                      .dwattr $C$DW$134, DW_AT_TI_symbol_name("_numCurrentSensors")
    1186                      .dwattr $C$DW$134, DW_AT_type(*$C$DW$T$236)
    1187                      .dwattr $C$DW$134, DW_AT_location[DW_OP_reg0]
    1188              
    1189              ;* AR4   assigned to _handle
    1190              $C$DW$135       .dwtag  DW_TAG_variable
    1191                      .dwattr $C$DW$135, DW_AT_name("handle")
    1192                      .dwattr $C$DW$135, DW_AT_TI_symbol_name("_handle")
    1193                      .dwattr $C$DW$135, DW_AT_type(*$C$DW$T$189)
    1194                      .dwattr $C$DW$135, DW_AT_location[DW_OP_reg12]
    1195              
    1196                      .dwcfi  cfa_offset, -2
    1197                      .dwcfi  save_reg_to_mem, 26, 0
    1198                      .dwpsn  file "C:/Users/wmj/Desktop/BM1000_v1.1/sw/modules/ctrl/src/32b/ctrl.c",line 530,column 3,is_s
    1199 000000c9 5203          CMPB      AL,#3                 ; [CPU_] |530| 
    1200 000000ca 610A          B         $C$L16,EQ             ; [CPU_] |530| 
    1201                      ; branchcc occurs ; [] |530| 
    1202                      .dwpsn  file "C:/Users/wmj/Desktop/BM1000_v1.1/sw/modules/ctrl/src/32b/ctrl.c",line 535,column 8,is_s
    1203 000000cb 5202          CMPB      AL,#2                 ; [CPU_] |535| 
    1204 000000cc 6104          B         $C$L15,EQ             ; [CPU_] |535| 
    1205                      ; branchcc occurs ; [] |535| 
    1206                      .dwpsn  file "C:/Users/wmj/Desktop/BM1000_v1.1/sw/modules/ctrl/src/32b/ctrl.c",line 542,column 7,is_s
    1207 000000cd BE00          MOVB      XAR6,#0               ; [CPU_] |542| 
    1208                      .dwpsn  file "C:/Users/wmj/Desktop/BM1000_v1.1/sw/modules/ctrl/src/32b/ctrl.c",line 543,column 7,is_s
    1209 000000ce 3100          MOV       P,#0                  ; [CPU_] |543| 
    1210 000000cf 6F0E          B         $C$L18,UNC            ; [CPU_] |543| 
    1211                      ; branch occurs ; [] |543| 
    1212 000000d0       $C$L15:    
    1213                      .dwpsn  file "C:/Users/wmj/Desktop/BM1000_v1.1/sw/modules/ctrl/src/32b/ctrl.c",line 537,column 7,is_s
    1214 000000d0 2BAB          MOV       PL,#0                 ; [CPU_] |537| 
    1215 000000d1 28AA          MOV       PH,#256               ; [CPU_] |537| 
         000000d2 0100 
    1216                      .dwpsn  file "C:/Users/wmj/Desktop/BM1000_v1.1/sw/modules/ctrl/src/32b/ctrl.c",line 539,column 5,is_s
    1217 000000d3 6F05          B         $C$L17,UNC            ; [CPU_] |539| 
    1218                      ; branch occurs ; [] |539| 
    1219 000000d4       $C$L16:    
    1220                      .dwpsn  file "C:/Users/wmj/Desktop/BM1000_v1.1/sw/modules/ctrl/src/32b/ctrl.c",line 532,column 7,is_s
TMS320C2000 Assembler PC v15.12.3 Wed Nov 22 00:56:17 2017

Tools Copyright (c) 1996-2015 Texas Instruments Incorporated
C:\Users\wmj\AppData\Local\Temp\0070810                              PAGE   24

    1221 000000d4 28AB          MOV       PL,#21845             ; [CPU_] |532| 
         000000d5 5555 
    1222 000000d6 28AA          MOV       PH,#85                ; [CPU_] |532| 
         000000d7 0055 
    1223 000000d8       $C$L17:    
    1224 000000d8 A9A6          MOVL      XAR6,P                ; [CPU_] |532| 
    1225                      .dwpsn  file "C:/Users/wmj/Desktop/BM1000_v1.1/sw/modules/ctrl/src/32b/ctrl.c",line 533,column 7,is_s
    1226 000000d9 28AB          MOV       PL,#52538             ; [CPU_] |533| 
         000000da CD3A 
    1227 000000db 28AA          MOV       PH,#147               ; [CPU_] |533| 
         000000dc 0093 
    1228 000000dd       $C$L18:    
    1229                      .dwpsn  file "C:/Users/wmj/Desktop/BM1000_v1.1/sw/modules/clarke/src/32b/clarke.h",line 182,column 19
    1230 000000dd D008          MOVB      XAR0,#8               ; [CPU_] |182| 
    1231 000000de 8394          MOVL      XAR5,*+XAR4[AR0]      ; [CPU_] |182| 
    1232                      .dwpsn  file "C:/Users/wmj/Desktop/BM1000_v1.1/sw/modules/clarke/src/32b/clarke.h",line 170,column 3,
    1233 000000df D008          MOVB      XAR0,#8               ; [CPU_] |170| 
    1234                      .dwpsn  file "C:/Users/wmj/Desktop/BM1000_v1.1/sw/modules/clarke/src/32b/clarke.h",line 185,column 3,
    1235 000000e0 C2C5          MOVL      *+XAR5[0],XAR6        ; [CPU_] |185| 
    1236                      .dwpsn  file "C:/Users/wmj/Desktop/BM1000_v1.1/sw/modules/clarke/src/32b/clarke.h",line 186,column 3,
    1237 000000e1 A9D5          MOVL      *+XAR5[2],P           ; [CPU_] |186| 
    1238                      .dwpsn  file "C:/Users/wmj/Desktop/BM1000_v1.1/sw/modules/clarke/src/32b/clarke.h",line 170,column 3,
    1239 000000e2 8A94          MOVL      XAR4,*+XAR4[AR0]      ; [CPU_] |170| 
    1240 000000e3 96E4          MOV       *+XAR4[4],AL          ; [CPU_] |170| 
    1241              $C$DW$136       .dwtag  DW_TAG_TI_branch
    1242                      .dwattr $C$DW$136, DW_AT_low_pc(0x00)
    1243                      .dwattr $C$DW$136, DW_AT_TI_return
    1244              
    1245 000000e4 0006          LRETR     ; [CPU_] 
    1246                      ; return occurs ; [] 
    1247                      .dwattr $C$DW$128, DW_AT_TI_end_file("C:/Users/wmj/Desktop/BM1000_v1.1/sw/modules/ctrl/src/32b/ctrl.c
    1248                      .dwattr $C$DW$128, DW_AT_TI_end_line(0x227)
    1249                      .dwattr $C$DW$128, DW_AT_TI_end_column(0x01)
    1250                      .dwendentry
    1251                      .dwendtag $C$DW$128
    1252              
    1253 00000000               .sect   "ramfuncs"
    1254                      .clink
    1255                      .global _CTRL_setup
    1256              
    1257              $C$DW$137       .dwtag  DW_TAG_subprogram
    1258                      .dwattr $C$DW$137, DW_AT_name("CTRL_setup")
    1259                      .dwattr $C$DW$137, DW_AT_low_pc(_CTRL_setup)
    1260                      .dwattr $C$DW$137, DW_AT_high_pc(0x00)
    1261                      .dwattr $C$DW$137, DW_AT_TI_symbol_name("_CTRL_setup")
    1262                      .dwattr $C$DW$137, DW_AT_external
    1263                      .dwattr $C$DW$137, DW_AT_TI_begin_file("C:/Users/wmj/Desktop/BM1000_v1.1/sw/modules/ctrl/src/32b/ctrl
    1264                      .dwattr $C$DW$137, DW_AT_TI_begin_line(0x1f3)
    1265                      .dwattr $C$DW$137, DW_AT_TI_begin_column(0x06)
    1266                      .dwattr $C$DW$137, DW_AT_TI_max_frame_size(-2)
    1267                      .dwpsn  file "C:/Users/wmj/Desktop/BM1000_v1.1/sw/modules/ctrl/src/32b/ctrl.c",line 500,column 1,is_s
    1268              
    1269                      .dwfde $C$DW$CIE, _CTRL_setup
    1270              $C$DW$138       .dwtag  DW_TAG_formal_parameter
    1271                      .dwattr $C$DW$138, DW_AT_name("handle")
TMS320C2000 Assembler PC v15.12.3 Wed Nov 22 00:56:17 2017

Tools Copyright (c) 1996-2015 Texas Instruments Incorporated
C:\Users\wmj\AppData\Local\Temp\0070810                              PAGE   25

    1272                      .dwattr $C$DW$138, DW_AT_TI_symbol_name("_handle")
    1273                      .dwattr $C$DW$138, DW_AT_type(*$C$DW$T$170)
    1274                      .dwattr $C$DW$138, DW_AT_location[DW_OP_reg12]
    1275              
    1276              
    1277              ;***************************************************************
    1278              ;* FNAME: _CTRL_setup                   FR SIZE:   0           *
    1279              ;*                                                             *
    1280              ;* FUNCTION ENVIRONMENT                                        *
    1281              ;*                                                             *
    1282              ;* FUNCTION PROPERTIES                                         *
    1283              ;*                            0 Parameter,  0 Auto,  0 SOE     *
    1284              ;***************************************************************
    1285              
    1286              _CTRL_setup:
    1287              ;* AR4   assigned to _handle
    1288              $C$DW$139       .dwtag  DW_TAG_variable
    1289                      .dwattr $C$DW$139, DW_AT_name("handle")
    1290                      .dwattr $C$DW$139, DW_AT_TI_symbol_name("_handle")
    1291                      .dwattr $C$DW$139, DW_AT_type(*$C$DW$T$189)
    1292                      .dwattr $C$DW$139, DW_AT_location[DW_OP_reg12]
    1293              
    1294                      .dwcfi  cfa_offset, -2
    1295                      .dwcfi  save_reg_to_mem, 26, 0
    1296                      .dwpsn  file "C:/Users/wmj/Desktop/BM1000_v1.1/sw/modules/ctrl/src/32b/ctrl.c",line 508,column 3,is_s
    1297 00000000 D09F          MOVB      XAR0,#159             ; [CPU_] |508| 
    1298 00000001 9294          MOV       AL,*+XAR4[AR0]        ; [CPU_] |508| 
    1299 00000002 D0EF          MOVB      XAR0,#239             ; [CPU_] |508| 
    1300 00000003 5494          CMP       AL,*+XAR4[AR0]        ; [CPU_] |508| 
    1301 00000004 6605          B         $C$L19,HI             ; [CPU_] |508| 
    1302                      ; branchcc occurs ; [] |508| 
    1303                      .dwpsn  file "C:/Users/wmj/Desktop/BM1000_v1.1/sw/modules/ctrl/src/32b/ctrl.h",line 1160,column 3,is_
    1304 00000005 D0EF          MOVB      XAR0,#239             ; [CPU_] |1160| 
    1305 00000006 2B94          MOV       *+XAR4[AR0],#0        ; [CPU_] |1160| 
    1306                      .dwpsn  file "C:/Users/wmj/Desktop/BM1000_v1.1/sw/modules/ctrl/src/32b/ctrl.c",line 516,column 7,is_s
    1307              $C$DW$140       .dwtag  DW_TAG_TI_branch
    1308                      .dwattr $C$DW$140, DW_AT_low_pc(0x00)
    1309                      .dwattr $C$DW$140, DW_AT_name("_CTRL_runTraj")
    1310                      .dwattr $C$DW$140, DW_AT_TI_call
    1311              
    1312 00000007 7640!         LCR       #_CTRL_runTraj        ; [CPU_] |516| 
         00000008 0000 
    1313                      ; call occurs [#_CTRL_runTraj] ; [] |516| 
    1314              $C$L19:    
    1315              $C$DW$141       .dwtag  DW_TAG_TI_branch
    1316                      .dwattr $C$DW$141, DW_AT_low_pc(0x00)
    1317                      .dwattr $C$DW$141, DW_AT_TI_return
    1318              
    1319 00000009 0006          LRETR     ; [CPU_] 
    1320                      ; return occurs ; [] 
    1321                      .dwattr $C$DW$137, DW_AT_TI_end_file("C:/Users/wmj/Desktop/BM1000_v1.1/sw/modules/ctrl/src/32b/ctrl.c
    1322                      .dwattr $C$DW$137, DW_AT_TI_end_line(0x208)
    1323                      .dwattr $C$DW$137, DW_AT_TI_end_column(0x01)
    1324                      .dwendentry
    1325                      .dwendtag $C$DW$137
TMS320C2000 Assembler PC v15.12.3 Wed Nov 22 00:56:17 2017

Tools Copyright (c) 1996-2015 Texas Instruments Incorporated
C:\Users\wmj\AppData\Local\Temp\0070810                              PAGE   26

    1326              
    1327 000000e5               .sect   ".text"
    1328                      .clink
    1329                      .global _CTRL_setWaitTimes
    1330              
    1331              $C$DW$142       .dwtag  DW_TAG_subprogram
    1332                      .dwattr $C$DW$142, DW_AT_name("CTRL_setWaitTimes")
    1333                      .dwattr $C$DW$142, DW_AT_low_pc(_CTRL_setWaitTimes)
    1334                      .dwattr $C$DW$142, DW_AT_high_pc(0x00)
    1335                      .dwattr $C$DW$142, DW_AT_TI_symbol_name("_CTRL_setWaitTimes")
    1336                      .dwattr $C$DW$142, DW_AT_external
    1337                      .dwattr $C$DW$142, DW_AT_TI_begin_file("C:/Users/wmj/Desktop/BM1000_v1.1/sw/modules/ctrl/src/32b/ctrl
    1338                      .dwattr $C$DW$142, DW_AT_TI_begin_line(0x27e)
    1339                      .dwattr $C$DW$142, DW_AT_TI_begin_column(0x06)
    1340                      .dwattr $C$DW$142, DW_AT_TI_max_frame_size(-2)
    1341                      .dwpsn  file "C:/Users/wmj/Desktop/BM1000_v1.1/sw/modules/ctrl/src/32b/ctrl.c",line 639,column 1,is_s
    1342              
    1343                      .dwfde $C$DW$CIE, _CTRL_setWaitTimes
    1344              $C$DW$143       .dwtag  DW_TAG_formal_parameter
    1345                      .dwattr $C$DW$143, DW_AT_name("handle")
    1346                      .dwattr $C$DW$143, DW_AT_TI_symbol_name("_handle")
    1347                      .dwattr $C$DW$143, DW_AT_type(*$C$DW$T$170)
    1348                      .dwattr $C$DW$143, DW_AT_location[DW_OP_reg12]
    1349              
    1350              $C$DW$144       .dwtag  DW_TAG_formal_parameter
    1351                      .dwattr $C$DW$144, DW_AT_name("pWaitTimes")
    1352                      .dwattr $C$DW$144, DW_AT_TI_symbol_name("_pWaitTimes")
    1353                      .dwattr $C$DW$144, DW_AT_type(*$C$DW$T$295)
    1354                      .dwattr $C$DW$144, DW_AT_location[DW_OP_reg14]
    1355              
    1356              
    1357              ;***************************************************************
    1358              ;* FNAME: _CTRL_setWaitTimes            FR SIZE:   0           *
    1359              ;*                                                             *
    1360              ;* FUNCTION ENVIRONMENT                                        *
    1361              ;*                                                             *
    1362              ;* FUNCTION PROPERTIES                                         *
    1363              ;*                            0 Parameter,  0 Auto,  0 SOE     *
    1364              ;***************************************************************
    1365              
    1366              _CTRL_setWaitTimes:
    1367              ;* AR4   assigned to _handle
    1368              $C$DW$145       .dwtag  DW_TAG_variable
    1369                      .dwattr $C$DW$145, DW_AT_name("handle")
    1370                      .dwattr $C$DW$145, DW_AT_TI_symbol_name("_handle")
    1371                      .dwattr $C$DW$145, DW_AT_type(*$C$DW$T$189)
    1372                      .dwattr $C$DW$145, DW_AT_location[DW_OP_reg12]
    1373              
    1374              ;* AR4   assigned to $O$U11
    1375              ;* AR5   assigned to $O$U7
    1376                      .dwcfi  cfa_offset, -2
    1377                      .dwcfi  save_reg_to_mem, 26, 0
    1378 000000e5 A8A9          MOVL      ACC,XAR4              ; [CPU_] 
    1379 000000e6 0992          ADDB      ACC,#146              ; [CPU_] 
    1380 000000e7 8AA9          MOVL      XAR4,ACC              ; [CPU_] 
TMS320C2000 Assembler PC v15.12.3 Wed Nov 22 00:56:17 2017

Tools Copyright (c) 1996-2015 Texas Instruments Incorporated
C:\Users\wmj\AppData\Local\Temp\0070810                              PAGE   27

    1381 000000e8 BE03          MOVB      XAR6,#3               ; [CPU_] 
    1382 000000e9       $C$L20:    
    1383                      .dwpsn  file "C:/Users/wmj/Desktop/BM1000_v1.1/sw/modules/ctrl/src/32b/ctrl.c",line 645,column 7,is_s
    1384 000000e9 0685          MOVL      ACC,*XAR5++           ; [CPU_] |645| 
    1385 000000ea 1E84          MOVL      *XAR4++,ACC           ; [CPU_] |645| 
    1386                      .dwpsn  file "C:/Users/wmj/Desktop/BM1000_v1.1/sw/modules/ctrl/src/32b/ctrl.c",line 643,column 18,is_
    1387 000000eb 000E          BANZ      $C$L20,AR6--          ; [CPU_] |643| 
         000000ec FFFE 
    1388                      ; branchcc occurs ; [] |643| 
    1389              $C$DW$146       .dwtag  DW_TAG_TI_branch
    1390                      .dwattr $C$DW$146, DW_AT_low_pc(0x00)
    1391                      .dwattr $C$DW$146, DW_AT_TI_return
    1392              
    1393 000000ed 0006          LRETR     ; [CPU_] 
    1394                      ; return occurs ; [] 
    1395                      .dwattr $C$DW$142, DW_AT_TI_end_file("C:/Users/wmj/Desktop/BM1000_v1.1/sw/modules/ctrl/src/32b/ctrl.c
    1396                      .dwattr $C$DW$142, DW_AT_TI_end_line(0x289)
    1397                      .dwattr $C$DW$142, DW_AT_TI_end_column(0x01)
    1398                      .dwendentry
    1399                      .dwendtag $C$DW$142
    1400              
    1401 000000ee               .sect   ".text"
    1402                      .clink
    1403                      .global _CTRL_setSpd_ref_pu
    1404              
    1405              $C$DW$147       .dwtag  DW_TAG_subprogram
    1406                      .dwattr $C$DW$147, DW_AT_name("CTRL_setSpd_ref_pu")
    1407                      .dwattr $C$DW$147, DW_AT_low_pc(_CTRL_setSpd_ref_pu)
    1408                      .dwattr $C$DW$147, DW_AT_high_pc(0x00)
    1409                      .dwattr $C$DW$147, DW_AT_TI_symbol_name("_CTRL_setSpd_ref_pu")
    1410                      .dwattr $C$DW$147, DW_AT_external
    1411                      .dwattr $C$DW$147, DW_AT_TI_begin_file("C:/Users/wmj/Desktop/BM1000_v1.1/sw/modules/ctrl/src/32b/ctrl
    1412                      .dwattr $C$DW$147, DW_AT_TI_begin_line(0x1db)
    1413                      .dwattr $C$DW$147, DW_AT_TI_begin_column(0x06)
    1414                      .dwattr $C$DW$147, DW_AT_TI_max_frame_size(-2)
    1415                      .dwpsn  file "C:/Users/wmj/Desktop/BM1000_v1.1/sw/modules/ctrl/src/32b/ctrl.c",line 476,column 1,is_s
    1416              
    1417                      .dwfde $C$DW$CIE, _CTRL_setSpd_ref_pu
    1418              $C$DW$148       .dwtag  DW_TAG_formal_parameter
    1419                      .dwattr $C$DW$148, DW_AT_name("handle")
    1420                      .dwattr $C$DW$148, DW_AT_TI_symbol_name("_handle")
    1421                      .dwattr $C$DW$148, DW_AT_type(*$C$DW$T$170)
    1422                      .dwattr $C$DW$148, DW_AT_location[DW_OP_reg12]
    1423              
    1424              $C$DW$149       .dwtag  DW_TAG_formal_parameter
    1425                      .dwattr $C$DW$149, DW_AT_name("spd_ref_pu")
    1426                      .dwattr $C$DW$149, DW_AT_TI_symbol_name("_spd_ref_pu")
    1427                      .dwattr $C$DW$149, DW_AT_type(*$C$DW$T$238)
    1428                      .dwattr $C$DW$149, DW_AT_location[DW_OP_reg0]
    1429              
    1430              
    1431              ;***************************************************************
    1432              ;* FNAME: _CTRL_setSpd_ref_pu           FR SIZE:   0           *
    1433              ;*                                                             *
    1434              ;* FUNCTION ENVIRONMENT                                        *
TMS320C2000 Assembler PC v15.12.3 Wed Nov 22 00:56:17 2017

Tools Copyright (c) 1996-2015 Texas Instruments Incorporated
C:\Users\wmj\AppData\Local\Temp\0070810                              PAGE   28

    1435              ;*                                                             *
    1436              ;* FUNCTION PROPERTIES                                         *
    1437              ;*                            0 Parameter,  0 Auto,  0 SOE     *
    1438              ;***************************************************************
    1439              
    1440              _CTRL_setSpd_ref_pu:
    1441              ;* AR4   assigned to _handle
    1442              $C$DW$150       .dwtag  DW_TAG_variable
    1443                      .dwattr $C$DW$150, DW_AT_name("handle")
    1444                      .dwattr $C$DW$150, DW_AT_TI_symbol_name("_handle")
    1445                      .dwattr $C$DW$150, DW_AT_type(*$C$DW$T$189)
    1446                      .dwattr $C$DW$150, DW_AT_location[DW_OP_reg12]
    1447              
    1448              ;* AL    assigned to _spd_ref_pu
    1449              $C$DW$151       .dwtag  DW_TAG_variable
    1450                      .dwattr $C$DW$151, DW_AT_name("spd_ref_pu")
    1451                      .dwattr $C$DW$151, DW_AT_TI_symbol_name("_spd_ref_pu")
    1452                      .dwattr $C$DW$151, DW_AT_type(*$C$DW$T$238)
    1453                      .dwattr $C$DW$151, DW_AT_location[DW_OP_reg0]
    1454              
    1455                      .dwcfi  cfa_offset, -2
    1456                      .dwcfi  save_reg_to_mem, 26, 0
    1457                      .dwpsn  file "C:/Users/wmj/Desktop/BM1000_v1.1/sw/modules/ctrl/src/32b/ctrl.c",line 479,column 3,is_s
    1458 000000ee D0E8          MOVB      XAR0,#232             ; [CPU_] |479| 
    1459 000000ef 1E94          MOVL      *+XAR4[AR0],ACC       ; [CPU_] |479| 
    1460              $C$DW$152       .dwtag  DW_TAG_TI_branch
    1461                      .dwattr $C$DW$152, DW_AT_low_pc(0x00)
    1462                      .dwattr $C$DW$152, DW_AT_TI_return
    1463              
    1464 000000f0 0006          LRETR     ; [CPU_] 
    1465                      ; return occurs ; [] 
    1466                      .dwattr $C$DW$147, DW_AT_TI_end_file("C:/Users/wmj/Desktop/BM1000_v1.1/sw/modules/ctrl/src/32b/ctrl.c
    1467                      .dwattr $C$DW$147, DW_AT_TI_end_line(0x1e2)
    1468                      .dwattr $C$DW$147, DW_AT_TI_end_column(0x01)
    1469                      .dwendentry
    1470                      .dwendtag $C$DW$147
    1471              
    1472 000000f1               .sect   ".text"
    1473                      .clink
    1474                      .global _CTRL_setSpd_ref_krpm
    1475              
    1476              $C$DW$153       .dwtag  DW_TAG_subprogram
    1477                      .dwattr $C$DW$153, DW_AT_name("CTRL_setSpd_ref_krpm")
    1478                      .dwattr $C$DW$153, DW_AT_low_pc(_CTRL_setSpd_ref_krpm)
    1479                      .dwattr $C$DW$153, DW_AT_high_pc(0x00)
    1480                      .dwattr $C$DW$153, DW_AT_TI_symbol_name("_CTRL_setSpd_ref_krpm")
    1481                      .dwattr $C$DW$153, DW_AT_external
    1482                      .dwattr $C$DW$153, DW_AT_TI_begin_file("C:/Users/wmj/Desktop/BM1000_v1.1/sw/modules/ctrl/src/32b/ctrl
    1483                      .dwattr $C$DW$153, DW_AT_TI_begin_line(0x1e5)
    1484                      .dwattr $C$DW$153, DW_AT_TI_begin_column(0x06)
    1485                      .dwattr $C$DW$153, DW_AT_TI_max_frame_size(-6)
    1486                      .dwpsn  file "C:/Users/wmj/Desktop/BM1000_v1.1/sw/modules/ctrl/src/32b/ctrl.c",line 486,column 1,is_s
    1487              
    1488                      .dwfde $C$DW$CIE, _CTRL_setSpd_ref_krpm
    1489              $C$DW$154       .dwtag  DW_TAG_formal_parameter
TMS320C2000 Assembler PC v15.12.3 Wed Nov 22 00:56:17 2017

Tools Copyright (c) 1996-2015 Texas Instruments Incorporated
C:\Users\wmj\AppData\Local\Temp\0070810                              PAGE   29

    1490                      .dwattr $C$DW$154, DW_AT_name("handle")
    1491                      .dwattr $C$DW$154, DW_AT_TI_symbol_name("_handle")
    1492                      .dwattr $C$DW$154, DW_AT_type(*$C$DW$T$170)
    1493                      .dwattr $C$DW$154, DW_AT_location[DW_OP_reg12]
    1494              
    1495              $C$DW$155       .dwtag  DW_TAG_formal_parameter
    1496                      .dwattr $C$DW$155, DW_AT_name("spd_ref_krpm")
    1497                      .dwattr $C$DW$155, DW_AT_TI_symbol_name("_spd_ref_krpm")
    1498                      .dwattr $C$DW$155, DW_AT_type(*$C$DW$T$238)
    1499                      .dwattr $C$DW$155, DW_AT_location[DW_OP_reg0]
    1500              
    1501              
    1502              ;***************************************************************
    1503              ;* FNAME: _CTRL_setSpd_ref_krpm         FR SIZE:   4           *
    1504              ;*                                                             *
    1505              ;* FUNCTION ENVIRONMENT                                        *
    1506              ;*                                                             *
    1507              ;* FUNCTION PROPERTIES                                         *
    1508              ;*                            0 Parameter,  0 Auto,  4 SOE     *
    1509              ;***************************************************************
    1510              
    1511              _CTRL_setSpd_ref_krpm:
    1512              ;* AR2   assigned to _handle
    1513              $C$DW$156       .dwtag  DW_TAG_variable
    1514                      .dwattr $C$DW$156, DW_AT_name("handle")
    1515                      .dwattr $C$DW$156, DW_AT_TI_symbol_name("_handle")
    1516                      .dwattr $C$DW$156, DW_AT_type(*$C$DW$T$189)
    1517                      .dwattr $C$DW$156, DW_AT_location[DW_OP_reg8]
    1518              
    1519              ;* XT    assigned to _spd_ref_krpm
    1520              $C$DW$157       .dwtag  DW_TAG_variable
    1521                      .dwattr $C$DW$157, DW_AT_name("spd_ref_krpm")
    1522                      .dwattr $C$DW$157, DW_AT_TI_symbol_name("_spd_ref_krpm")
    1523                      .dwattr $C$DW$157, DW_AT_type(*$C$DW$T$238)
    1524                      .dwattr $C$DW$157, DW_AT_location[DW_OP_reg21]
    1525              
    1526              ;* AL    assigned to _krpm_to_pu_sf
    1527              $C$DW$158       .dwtag  DW_TAG_variable
    1528                      .dwattr $C$DW$158, DW_AT_name("krpm_to_pu_sf")
    1529                      .dwattr $C$DW$158, DW_AT_TI_symbol_name("_krpm_to_pu_sf")
    1530                      .dwattr $C$DW$158, DW_AT_type(*$C$DW$T$31)
    1531                      .dwattr $C$DW$158, DW_AT_location[DW_OP_reg0]
    1532              
    1533                      .dwcfi  cfa_offset, -2
    1534                      .dwcfi  save_reg_to_mem, 26, 0
    1535 000000f1 B2BD          MOVL      *SP++,XAR1            ; [CPU_] 
    1536                      .dwcfi  save_reg_to_mem, 7, 2
    1537                      .dwcfi  cfa_offset, -4
    1538 000000f2 AABD          MOVL      *SP++,XAR2            ; [CPU_] 
    1539                      .dwcfi  save_reg_to_mem, 9, 4
    1540                      .dwcfi  cfa_offset, -6
    1541 000000f3 86A4          MOVL      XAR2,XAR4             ; [CPU_] |486| 
    1542                      .dwpsn  file "C:/Users/wmj/Desktop/BM1000_v1.1/sw/modules/ctrl/src/32b/ctrl.c",line 489,column 21,is_
    1543 000000f4 D018          MOVB      XAR0,#24              ; [CPU_] |489| 
    1544                      .dwpsn  file "C:/Users/wmj/Desktop/BM1000_v1.1/sw/modules/ctrl/src/32b/ctrl.c",line 486,column 1,is_s
TMS320C2000 Assembler PC v15.12.3 Wed Nov 22 00:56:17 2017

Tools Copyright (c) 1996-2015 Texas Instruments Incorporated
C:\Users\wmj\AppData\Local\Temp\0070810                              PAGE   30

    1545 000000f5 8BA9          MOVL      XAR1,ACC              ; [CPU_] |486| 
    1546                      .dwpsn  file "C:/Users/wmj/Desktop/BM1000_v1.1/sw/modules/ctrl/src/32b/ctrl.c",line 489,column 21,is_
    1547 000000f6 8A92          MOVL      XAR4,*+XAR2[AR0]      ; [CPU_] |489| 
    1548              $C$DW$159       .dwtag  DW_TAG_TI_branch
    1549                      .dwattr $C$DW$159, DW_AT_low_pc(0x00)
    1550                      .dwattr $C$DW$159, DW_AT_name("_EST_get_krpm_to_pu_sf")
    1551                      .dwattr $C$DW$159, DW_AT_TI_call
    1552              
    1553 000000f7 7640!         LCR       #_EST_get_krpm_to_pu_sf ; [CPU_] |489| 
         000000f8 0000 
    1554                      ; call occurs [#_EST_get_krpm_to_pu_sf] ; [] |489| 
    1555                      .dwpsn  file "C:/Users/wmj/Desktop/BM1000_v1.1/sw/modules/ctrl/src/32b/ctrl.c",line 493,column 3,is_s
    1556 000000f9 D0E8          MOVB      XAR0,#232             ; [CPU_] |493| 
    1557                      .dwpsn  file "C:/Users/wmj/Desktop/BM1000_v1.1/sw/modules/ctrl/src/32b/ctrl.c",line 489,column 21,is_
    1558 000000fa B2AC          MOVL      XT,XAR1               ; [CPU_] |489| 
    1559                      .dwpsn  file "C:/Users/wmj/Desktop/BM1000_v1.1/sw/modules/ctrl/src/32b/ctrl.c",line 493,column 3,is_s
    1560 000000fb 5605          IMPYL     P,XT,ACC              ; [CPU_] |493| 
         000000fc 00A9 
    1561 000000fd 5663          QMPYL     ACC,XT,ACC            ; [CPU_] |493| 
         000000fe 00A9 
    1562 000000ff 56A7          LSL64     ACC:P,#8              ; [CPU_] |493| 
    1563 00000100 1E92          MOVL      *+XAR2[AR0],ACC       ; [CPU_] |493| 
    1564 00000101 86BE          MOVL      XAR2,*--SP            ; [CPU_] 
    1565                      .dwcfi  cfa_offset, -4
    1566                      .dwcfi  restore_reg, 9
    1567 00000102 8BBE          MOVL      XAR1,*--SP            ; [CPU_] 
    1568                      .dwcfi  cfa_offset, -2
    1569                      .dwcfi  restore_reg, 7
    1570              $C$DW$160       .dwtag  DW_TAG_TI_branch
    1571                      .dwattr $C$DW$160, DW_AT_low_pc(0x00)
    1572                      .dwattr $C$DW$160, DW_AT_TI_return
    1573              
    1574 00000103 0006          LRETR     ; [CPU_] 
    1575                      ; return occurs ; [] 
    1576                      .dwattr $C$DW$153, DW_AT_TI_end_file("C:/Users/wmj/Desktop/BM1000_v1.1/sw/modules/ctrl/src/32b/ctrl.c
    1577                      .dwattr $C$DW$153, DW_AT_TI_end_line(0x1f0)
    1578                      .dwattr $C$DW$153, DW_AT_TI_end_column(0x01)
    1579                      .dwendentry
    1580                      .dwendtag $C$DW$153
    1581              
    1582 00000104               .sect   ".text"
    1583                      .clink
    1584                      .global _CTRL_setBrake
    1585              
    1586              $C$DW$161       .dwtag  DW_TAG_subprogram
    1587                      .dwattr $C$DW$161, DW_AT_name("CTRL_setBrake")
    1588                      .dwattr $C$DW$161, DW_AT_low_pc(_CTRL_setBrake)
    1589                      .dwattr $C$DW$161, DW_AT_high_pc(0x00)
    1590                      .dwattr $C$DW$161, DW_AT_TI_symbol_name("_CTRL_setBrake")
    1591                      .dwattr $C$DW$161, DW_AT_external
    1592                      .dwattr $C$DW$161, DW_AT_TI_begin_file("C:/Users/wmj/Desktop/BM1000_v1.1/sw/modules/ctrl/src/32b/ctrl
    1593                      .dwattr $C$DW$161, DW_AT_TI_begin_line(0x28b)
    1594                      .dwattr $C$DW$161, DW_AT_TI_begin_column(0x06)
    1595                      .dwattr $C$DW$161, DW_AT_TI_max_frame_size(-4)
    1596                      .dwpsn  file "C:/Users/wmj/Desktop/BM1000_v1.1/sw/modules/ctrl/src/32b/ctrl.c",line 652,column 1,is_s
TMS320C2000 Assembler PC v15.12.3 Wed Nov 22 00:56:17 2017

Tools Copyright (c) 1996-2015 Texas Instruments Incorporated
C:\Users\wmj\AppData\Local\Temp\0070810                              PAGE   31

    1597              
    1598                      .dwfde $C$DW$CIE, _CTRL_setBrake
    1599              $C$DW$162       .dwtag  DW_TAG_formal_parameter
    1600                      .dwattr $C$DW$162, DW_AT_name("handle")
    1601                      .dwattr $C$DW$162, DW_AT_TI_symbol_name("_handle")
    1602                      .dwattr $C$DW$162, DW_AT_type(*$C$DW$T$170)
    1603                      .dwattr $C$DW$162, DW_AT_location[DW_OP_reg12]
    1604              
    1605              
    1606              ;***************************************************************
    1607              ;* FNAME: _CTRL_setBrake                FR SIZE:   2           *
    1608              ;*                                                             *
    1609              ;* FUNCTION ENVIRONMENT                                        *
    1610              ;*                                                             *
    1611              ;* FUNCTION PROPERTIES                                         *
    1612              ;*                            0 Parameter,  0 Auto,  2 SOE     *
    1613              ;***************************************************************
    1614              
    1615              _CTRL_setBrake:
    1616              ;* AR1   assigned to _handle
    1617              $C$DW$163       .dwtag  DW_TAG_variable
    1618                      .dwattr $C$DW$163, DW_AT_name("handle")
    1619                      .dwattr $C$DW$163, DW_AT_TI_symbol_name("_handle")
    1620                      .dwattr $C$DW$163, DW_AT_type(*$C$DW$T$189)
    1621                      .dwattr $C$DW$163, DW_AT_location[DW_OP_reg6]
    1622              
    1623                      .dwcfi  cfa_offset, -2
    1624                      .dwcfi  save_reg_to_mem, 26, 0
    1625 00000104 B2BD          MOVL      *SP++,XAR1            ; [CPU_] 
    1626                      .dwcfi  save_reg_to_mem, 7, 2
    1627                      .dwcfi  cfa_offset, -4
    1628 00000105 A8A9          MOVL      ACC,XAR4              ; [CPU_] |652| 
    1629 00000106 8BA4          MOVL      XAR1,XAR4             ; [CPU_] |652| 
    1630                      .dwpsn  file "C:/Users/wmj/Desktop/BM1000_v1.1/sw/modules/ctrl/src/32b/ctrl.c",line 655,column 3,is_s
    1631 00000107 FF18          ADD       ACC,#1 << 8           ; [CPU_] |655| 
         00000108 0001 
    1632 00000109 8AA9          MOVL      XAR4,ACC              ; [CPU_] |655| 
    1633 0000010a 0208          MOVB      ACC,#8                ; [CPU_] |655| 
    1634              $C$DW$164       .dwtag  DW_TAG_TI_branch
    1635                      .dwattr $C$DW$164, DW_AT_low_pc(0x00)
    1636                      .dwattr $C$DW$164, DW_AT_name("_Brake_init")
    1637                      .dwattr $C$DW$164, DW_AT_TI_call
    1638              
    1639 0000010b 7640!         LCR       #_Brake_init          ; [CPU_] |655| 
         0000010c 0000 
    1640                      ; call occurs [#_Brake_init] ; [] |655| 
    1641 0000010d D0FE          MOVB      XAR0,#254             ; [CPU_] |655| 
    1642 0000010e A891          MOVL      *+XAR1[AR0],XAR4      ; [CPU_] |655| 
    1643 0000010f 8BBE          MOVL      XAR1,*--SP            ; [CPU_] 
    1644                      .dwcfi  cfa_offset, -2
    1645                      .dwcfi  restore_reg, 7
    1646              $C$DW$165       .dwtag  DW_TAG_TI_branch
    1647                      .dwattr $C$DW$165, DW_AT_low_pc(0x00)
    1648                      .dwattr $C$DW$165, DW_AT_TI_return
    1649              
TMS320C2000 Assembler PC v15.12.3 Wed Nov 22 00:56:17 2017

Tools Copyright (c) 1996-2015 Texas Instruments Incorporated
C:\Users\wmj\AppData\Local\Temp\0070810                              PAGE   32

    1650 00000110 0006          LRETR     ; [CPU_] 
    1651                      ; return occurs ; [] 
    1652                      .dwattr $C$DW$161, DW_AT_TI_end_file("C:/Users/wmj/Desktop/BM1000_v1.1/sw/modules/ctrl/src/32b/ctrl.c
    1653                      .dwattr $C$DW$161, DW_AT_TI_end_line(0x292)
    1654                      .dwattr $C$DW$161, DW_AT_TI_end_column(0x01)
    1655                      .dwendentry
    1656                      .dwendtag $C$DW$161
    1657              
    1658 00000111               .sect   ".text"
    1659                      .clink
    1660                      .global _CTRL_setGains
    1661              
    1662              $C$DW$166       .dwtag  DW_TAG_subprogram
    1663                      .dwattr $C$DW$166, DW_AT_name("CTRL_setGains")
    1664                      .dwattr $C$DW$166, DW_AT_low_pc(_CTRL_setGains)
    1665                      .dwattr $C$DW$166, DW_AT_high_pc(0x00)
    1666                      .dwattr $C$DW$166, DW_AT_TI_symbol_name("_CTRL_setGains")
    1667                      .dwattr $C$DW$166, DW_AT_external
    1668                      .dwattr $C$DW$166, DW_AT_TI_begin_file("C:/Users/wmj/Desktop/BM1000_v1.1/sw/modules/ctrl/src/32b/ctrl
    1669                      .dwattr $C$DW$166, DW_AT_TI_begin_line(0x106)
    1670                      .dwattr $C$DW$166, DW_AT_TI_begin_column(0x06)
    1671                      .dwattr $C$DW$166, DW_AT_TI_max_frame_size(-2)
    1672                      .dwpsn  file "C:/Users/wmj/Desktop/BM1000_v1.1/sw/modules/ctrl/src/32b/ctrl.c",line 264,column 1,is_s
    1673              
    1674                      .dwfde $C$DW$CIE, _CTRL_setGains
    1675              $C$DW$167       .dwtag  DW_TAG_formal_parameter
    1676                      .dwattr $C$DW$167, DW_AT_name("handle")
    1677                      .dwattr $C$DW$167, DW_AT_TI_symbol_name("_handle")
    1678                      .dwattr $C$DW$167, DW_AT_type(*$C$DW$T$170)
    1679                      .dwattr $C$DW$167, DW_AT_location[DW_OP_reg12]
    1680              
    1681              $C$DW$168       .dwtag  DW_TAG_formal_parameter
    1682                      .dwattr $C$DW$168, DW_AT_name("ctrlType")
    1683                      .dwattr $C$DW$168, DW_AT_TI_symbol_name("_ctrlType")
    1684                      .dwattr $C$DW$168, DW_AT_type(*$C$DW$T$181)
    1685                      .dwattr $C$DW$168, DW_AT_location[DW_OP_reg14]
    1686              
    1687              $C$DW$169       .dwtag  DW_TAG_formal_parameter
    1688                      .dwattr $C$DW$169, DW_AT_name("Kp")
    1689                      .dwattr $C$DW$169, DW_AT_TI_symbol_name("_Kp")
    1690                      .dwattr $C$DW$169, DW_AT_type(*$C$DW$T$238)
    1691                      .dwattr $C$DW$169, DW_AT_location[DW_OP_reg0]
    1692              
    1693              $C$DW$170       .dwtag  DW_TAG_formal_parameter
    1694                      .dwattr $C$DW$170, DW_AT_name("Ki")
    1695                      .dwattr $C$DW$170, DW_AT_TI_symbol_name("_Ki")
    1696                      .dwattr $C$DW$170, DW_AT_type(*$C$DW$T$238)
    1697                      .dwattr $C$DW$170, DW_AT_location[DW_OP_breg20 -4]
    1698              
    1699              $C$DW$171       .dwtag  DW_TAG_formal_parameter
    1700                      .dwattr $C$DW$171, DW_AT_name("Kd")
    1701                      .dwattr $C$DW$171, DW_AT_TI_symbol_name("_Kd")
    1702                      .dwattr $C$DW$171, DW_AT_type(*$C$DW$T$238)
    1703                      .dwattr $C$DW$171, DW_AT_location[DW_OP_breg20 -6]
    1704              
TMS320C2000 Assembler PC v15.12.3 Wed Nov 22 00:56:17 2017

Tools Copyright (c) 1996-2015 Texas Instruments Incorporated
C:\Users\wmj\AppData\Local\Temp\0070810                              PAGE   33

    1705              
    1706              ;***************************************************************
    1707              ;* FNAME: _CTRL_setGains                FR SIZE:   0           *
    1708              ;*                                                             *
    1709              ;* FUNCTION ENVIRONMENT                                        *
    1710              ;*                                                             *
    1711              ;* FUNCTION PROPERTIES                                         *
    1712              ;*                            0 Parameter,  0 Auto,  0 SOE     *
    1713              ;***************************************************************
    1714              
    1715              _CTRL_setGains:
    1716              ;* AR7   assigned to _Kd
    1717              $C$DW$172       .dwtag  DW_TAG_variable
    1718                      .dwattr $C$DW$172, DW_AT_name("Kd")
    1719                      .dwattr $C$DW$172, DW_AT_TI_symbol_name("_Kd")
    1720                      .dwattr $C$DW$172, DW_AT_type(*$C$DW$T$238)
    1721                      .dwattr $C$DW$172, DW_AT_location[DW_OP_reg18]
    1722              
    1723              ;* PL    assigned to _Ki
    1724              $C$DW$173       .dwtag  DW_TAG_variable
    1725                      .dwattr $C$DW$173, DW_AT_name("Ki")
    1726                      .dwattr $C$DW$173, DW_AT_TI_symbol_name("_Ki")
    1727                      .dwattr $C$DW$173, DW_AT_type(*$C$DW$T$238)
    1728                      .dwattr $C$DW$173, DW_AT_location[DW_OP_reg2]
    1729              
    1730              ;* AR6   assigned to _Kp
    1731              $C$DW$174       .dwtag  DW_TAG_variable
    1732                      .dwattr $C$DW$174, DW_AT_name("Kp")
    1733                      .dwattr $C$DW$174, DW_AT_TI_symbol_name("_Kp")
    1734                      .dwattr $C$DW$174, DW_AT_type(*$C$DW$T$238)
    1735                      .dwattr $C$DW$174, DW_AT_location[DW_OP_reg16]
    1736              
    1737              ;* AL    assigned to _ctrlType
    1738              $C$DW$175       .dwtag  DW_TAG_variable
    1739                      .dwattr $C$DW$175, DW_AT_name("ctrlType")
    1740                      .dwattr $C$DW$175, DW_AT_TI_symbol_name("_ctrlType")
    1741                      .dwattr $C$DW$175, DW_AT_type(*$C$DW$T$181)
    1742                      .dwattr $C$DW$175, DW_AT_location[DW_OP_reg0]
    1743              
    1744              ;* AR4   assigned to _handle
    1745              $C$DW$176       .dwtag  DW_TAG_variable
    1746                      .dwattr $C$DW$176, DW_AT_name("handle")
    1747                      .dwattr $C$DW$176, DW_AT_TI_symbol_name("_handle")
    1748                      .dwattr $C$DW$176, DW_AT_type(*$C$DW$T$189)
    1749                      .dwattr $C$DW$176, DW_AT_location[DW_OP_reg12]
    1750              
    1751                      .dwcfi  cfa_offset, -2
    1752                      .dwcfi  save_reg_to_mem, 26, 0
    1753 00000111 1EA6          MOVL      XAR6,ACC              ; [CPU_] |264| 
    1754 00000112 92A5          MOV       AL,AR5                ; [CPU_] |264| 
    1755 00000113 C546          MOVL      XAR7,*-SP[6]          ; [CPU_] |264| 
    1756 00000114 A344          MOVL      P,*-SP[4]             ; [CPU_] |264| 
    1757                      .dwpsn  file "C:/Users/wmj/Desktop/BM1000_v1.1/sw/modules/ctrl/src/32b/ctrl.h",line 1540,column 3,is_
    1758 00000115 6109          B         $C$L22,EQ             ; [CPU_] |1540| 
    1759                      ; branchcc occurs ; [] |1540| 
TMS320C2000 Assembler PC v15.12.3 Wed Nov 22 00:56:17 2017

Tools Copyright (c) 1996-2015 Texas Instruments Incorporated
C:\Users\wmj\AppData\Local\Temp\0070810                              PAGE   34

    1760                      .dwpsn  file "C:/Users/wmj/Desktop/BM1000_v1.1/sw/modules/ctrl/src/32b/ctrl.h",line 1544,column 8,is_
    1761 00000116 5201          CMPB      AL,#1                 ; [CPU_] |1544| 
    1762 00000117 6105          B         $C$L21,EQ             ; [CPU_] |1544| 
    1763                      ; branchcc occurs ; [] |1544| 
    1764                      .dwpsn  file "C:/Users/wmj/Desktop/BM1000_v1.1/sw/modules/ctrl/src/32b/ctrl.h",line 1548,column 8,is_
    1765 00000118 5202          CMPB      AL,#2                 ; [CPU_] |1548| 
    1766 00000119 6007          B         $C$L24,NEQ            ; [CPU_] |1548| 
    1767                      ; branchcc occurs ; [] |1548| 
    1768                      .dwpsn  file "C:/Users/wmj/Desktop/BM1000_v1.1/sw/modules/ctrl/src/32b/ctrl.h",line 1550,column 7,is_
    1769 0000011a D0CC          MOVB      XAR0,#204             ; [CPU_] |1550| 
    1770 0000011b 6F04          B         $C$L23,UNC            ; [CPU_] |1550| 
    1771                      ; branch occurs ; [] |1550| 
    1772 0000011c       $C$L21:    
    1773                      .dwpsn  file "C:/Users/wmj/Desktop/BM1000_v1.1/sw/modules/ctrl/src/32b/ctrl.h",line 1546,column 7,is_
    1774 0000011c D0CA          MOVB      XAR0,#202             ; [CPU_] |1546| 
    1775                      .dwpsn  file "C:/Users/wmj/Desktop/BM1000_v1.1/sw/modules/ctrl/src/32b/ctrl.h",line 1547,column 5,is_
    1776 0000011d 6F02          B         $C$L23,UNC            ; [CPU_] |1547| 
    1777                      ; branch occurs ; [] |1547| 
    1778 0000011e       $C$L22:    
    1779                      .dwpsn  file "C:/Users/wmj/Desktop/BM1000_v1.1/sw/modules/ctrl/src/32b/ctrl.h",line 1542,column 7,is_
    1780 0000011e D0CE          MOVB      XAR0,#206             ; [CPU_] |1542| 
    1781 0000011f       $C$L23:    
    1782 0000011f C294          MOVL      *+XAR4[AR0],XAR6      ; [CPU_] |1542| 
    1783 00000120       $C$L24:    
    1784                      .dwpsn  file "C:/Users/wmj/Desktop/BM1000_v1.1/sw/modules/ctrl/src/32b/ctrl.h",line 1515,column 3,is_
    1785 00000120 5200          CMPB      AL,#0                 ; [CPU_] |1515| 
    1786 00000121 6109          B         $C$L26,EQ             ; [CPU_] |1515| 
    1787                      ; branchcc occurs ; [] |1515| 
    1788                      .dwpsn  file "C:/Users/wmj/Desktop/BM1000_v1.1/sw/modules/ctrl/src/32b/ctrl.h",line 1519,column 8,is_
    1789 00000122 5201          CMPB      AL,#1                 ; [CPU_] |1519| 
    1790 00000123 6105          B         $C$L25,EQ             ; [CPU_] |1519| 
    1791                      ; branchcc occurs ; [] |1519| 
    1792                      .dwpsn  file "C:/Users/wmj/Desktop/BM1000_v1.1/sw/modules/ctrl/src/32b/ctrl.h",line 1523,column 8,is_
    1793 00000124 5202          CMPB      AL,#2                 ; [CPU_] |1523| 
    1794 00000125 6007          B         $C$L28,NEQ            ; [CPU_] |1523| 
    1795                      ; branchcc occurs ; [] |1523| 
    1796                      .dwpsn  file "C:/Users/wmj/Desktop/BM1000_v1.1/sw/modules/ctrl/src/32b/ctrl.h",line 1525,column 7,is_
    1797 00000126 D0D2          MOVB      XAR0,#210             ; [CPU_] |1525| 
    1798 00000127 6F04          B         $C$L27,UNC            ; [CPU_] |1525| 
    1799                      ; branch occurs ; [] |1525| 
    1800 00000128       $C$L25:    
    1801                      .dwpsn  file "C:/Users/wmj/Desktop/BM1000_v1.1/sw/modules/ctrl/src/32b/ctrl.h",line 1521,column 7,is_
    1802 00000128 D0D0          MOVB      XAR0,#208             ; [CPU_] |1521| 
    1803                      .dwpsn  file "C:/Users/wmj/Desktop/BM1000_v1.1/sw/modules/ctrl/src/32b/ctrl.h",line 1522,column 5,is_
    1804 00000129 6F02          B         $C$L27,UNC            ; [CPU_] |1522| 
    1805                      ; branch occurs ; [] |1522| 
    1806 0000012a       $C$L26:    
    1807                      .dwpsn  file "C:/Users/wmj/Desktop/BM1000_v1.1/sw/modules/ctrl/src/32b/ctrl.h",line 1517,column 7,is_
    1808 0000012a D0D4          MOVB      XAR0,#212             ; [CPU_] |1517| 
    1809 0000012b       $C$L27:    
    1810 0000012b A994          MOVL      *+XAR4[AR0],P         ; [CPU_] |1517| 
    1811 0000012c       $C$L28:    
    1812                      .dwpsn  file "C:/Users/wmj/Desktop/BM1000_v1.1/sw/modules/ctrl/src/32b/ctrl.h",line 1490,column 3,is_
    1813 0000012c 5200          CMPB      AL,#0                 ; [CPU_] |1490| 
    1814 0000012d 6109          B         $C$L30,EQ             ; [CPU_] |1490| 
TMS320C2000 Assembler PC v15.12.3 Wed Nov 22 00:56:17 2017

Tools Copyright (c) 1996-2015 Texas Instruments Incorporated
C:\Users\wmj\AppData\Local\Temp\0070810                              PAGE   35

    1815                      ; branchcc occurs ; [] |1490| 
    1816                      .dwpsn  file "C:/Users/wmj/Desktop/BM1000_v1.1/sw/modules/ctrl/src/32b/ctrl.h",line 1494,column 8,is_
    1817 0000012e 5201          CMPB      AL,#1                 ; [CPU_] |1494| 
    1818 0000012f 6105          B         $C$L29,EQ             ; [CPU_] |1494| 
    1819                      ; branchcc occurs ; [] |1494| 
    1820                      .dwpsn  file "C:/Users/wmj/Desktop/BM1000_v1.1/sw/modules/ctrl/src/32b/ctrl.h",line 1498,column 8,is_
    1821 00000130 5202          CMPB      AL,#2                 ; [CPU_] |1498| 
    1822 00000131 6007          B         $C$L32,NEQ            ; [CPU_] |1498| 
    1823                      ; branchcc occurs ; [] |1498| 
    1824                      .dwpsn  file "C:/Users/wmj/Desktop/BM1000_v1.1/sw/modules/ctrl/src/32b/ctrl.h",line 1500,column 7,is_
    1825 00000132 D0D8          MOVB      XAR0,#216             ; [CPU_] |1500| 
    1826 00000133 6F04          B         $C$L31,UNC            ; [CPU_] |1500| 
    1827                      ; branch occurs ; [] |1500| 
    1828 00000134       $C$L29:    
    1829                      .dwpsn  file "C:/Users/wmj/Desktop/BM1000_v1.1/sw/modules/ctrl/src/32b/ctrl.h",line 1496,column 7,is_
    1830 00000134 D0D6          MOVB      XAR0,#214             ; [CPU_] |1496| 
    1831                      .dwpsn  file "C:/Users/wmj/Desktop/BM1000_v1.1/sw/modules/ctrl/src/32b/ctrl.h",line 1497,column 5,is_
    1832 00000135 6F02          B         $C$L31,UNC            ; [CPU_] |1497| 
    1833                      ; branch occurs ; [] |1497| 
    1834 00000136       $C$L30:    
    1835                      .dwpsn  file "C:/Users/wmj/Desktop/BM1000_v1.1/sw/modules/ctrl/src/32b/ctrl.h",line 1492,column 7,is_
    1836 00000136 D0DA          MOVB      XAR0,#218             ; [CPU_] |1492| 
    1837 00000137       $C$L31:    
    1838 00000137 C394          MOVL      *+XAR4[AR0],XAR7      ; [CPU_] |1492| 
    1839              $C$L32:    
    1840              $C$DW$177       .dwtag  DW_TAG_TI_branch
    1841                      .dwattr $C$DW$177, DW_AT_low_pc(0x00)
    1842                      .dwattr $C$DW$177, DW_AT_TI_return
    1843              
    1844 00000138 0006          LRETR     ; [CPU_] 
    1845                      ; return occurs ; [] 
    1846                      .dwattr $C$DW$166, DW_AT_TI_end_file("C:/Users/wmj/Desktop/BM1000_v1.1/sw/modules/ctrl/src/32b/ctrl.c
    1847                      .dwattr $C$DW$166, DW_AT_TI_end_line(0x10f)
    1848                      .dwattr $C$DW$166, DW_AT_TI_end_column(0x01)
    1849                      .dwendentry
    1850                      .dwendtag $C$DW$166
    1851              
    1852 00000139               .sect   ".text"
    1853                      .clink
    1854                      .global _CTRL_setParams
    1855              
    1856              $C$DW$178       .dwtag  DW_TAG_subprogram
    1857                      .dwattr $C$DW$178, DW_AT_name("CTRL_setParams")
    1858                      .dwattr $C$DW$178, DW_AT_low_pc(_CTRL_setParams)
    1859                      .dwattr $C$DW$178, DW_AT_high_pc(0x00)
    1860                      .dwattr $C$DW$178, DW_AT_TI_symbol_name("_CTRL_setParams")
    1861                      .dwattr $C$DW$178, DW_AT_external
    1862                      .dwattr $C$DW$178, DW_AT_TI_begin_file("C:/Users/wmj/Desktop/BM1000_v1.1/sw/modules/ctrl/src/32b/ctrl
    1863                      .dwattr $C$DW$178, DW_AT_TI_begin_line(0x124)
    1864                      .dwattr $C$DW$178, DW_AT_TI_begin_column(0x06)
    1865                      .dwattr $C$DW$178, DW_AT_TI_max_frame_size(-50)
    1866                      .dwpsn  file "C:/Users/wmj/Desktop/BM1000_v1.1/sw/modules/ctrl/src/32b/ctrl.c",line 293,column 1,is_s
    1867              
    1868                      .dwfde $C$DW$CIE, _CTRL_setParams
    1869              $C$DW$179       .dwtag  DW_TAG_formal_parameter
TMS320C2000 Assembler PC v15.12.3 Wed Nov 22 00:56:17 2017

Tools Copyright (c) 1996-2015 Texas Instruments Incorporated
C:\Users\wmj\AppData\Local\Temp\0070810                              PAGE   36

    1870                      .dwattr $C$DW$179, DW_AT_name("handle")
    1871                      .dwattr $C$DW$179, DW_AT_TI_symbol_name("_handle")
    1872                      .dwattr $C$DW$179, DW_AT_type(*$C$DW$T$170)
    1873                      .dwattr $C$DW$179, DW_AT_location[DW_OP_reg12]
    1874              
    1875              $C$DW$180       .dwtag  DW_TAG_formal_parameter
    1876                      .dwattr $C$DW$180, DW_AT_name("pUserParams")
    1877                      .dwattr $C$DW$180, DW_AT_TI_symbol_name("_pUserParams")
    1878                      .dwattr $C$DW$180, DW_AT_type(*$C$DW$T$231)
    1879                      .dwattr $C$DW$180, DW_AT_location[DW_OP_reg14]
    1880              
    1881              
    1882              ;***************************************************************
    1883              ;* FNAME: _CTRL_setParams               FR SIZE:  48           *
    1884              ;*                                                             *
    1885              ;* FUNCTION ENVIRONMENT                                        *
    1886              ;*                                                             *
    1887              ;* FUNCTION PROPERTIES                                         *
    1888              ;*                            4 Parameter, 38 Auto,  6 SOE     *
    1889              ;***************************************************************
    1890              
    1891              _CTRL_setParams:
    1892              ;* AR3   assigned to $O$C1
    1893              ;* AR2   assigned to $O$C2
    1894              ;* AH    assigned to _numPolePairs
    1895              $C$DW$181       .dwtag  DW_TAG_variable
    1896                      .dwattr $C$DW$181, DW_AT_name("numPolePairs")
    1897                      .dwattr $C$DW$181, DW_AT_TI_symbol_name("_numPolePairs")
    1898                      .dwattr $C$DW$181, DW_AT_type(*$C$DW$T$69)
    1899                      .dwattr $C$DW$181, DW_AT_location[DW_OP_reg1]
    1900              
    1901              ;* XT    assigned to _ratedFlux
    1902              $C$DW$182       .dwtag  DW_TAG_variable
    1903                      .dwattr $C$DW$182, DW_AT_name("ratedFlux")
    1904                      .dwattr $C$DW$182, DW_AT_TI_symbol_name("_ratedFlux")
    1905                      .dwattr $C$DW$182, DW_AT_type(*$C$DW$T$70)
    1906                      .dwattr $C$DW$182, DW_AT_location[DW_OP_reg21]
    1907              
    1908              ;* AR5   assigned to _Ls_d
    1909              $C$DW$183       .dwtag  DW_TAG_variable
    1910                      .dwattr $C$DW$183, DW_AT_name("Ls_d")
    1911                      .dwattr $C$DW$183, DW_AT_TI_symbol_name("_Ls_d")
    1912                      .dwattr $C$DW$183, DW_AT_type(*$C$DW$T$70)
    1913                      .dwattr $C$DW$183, DW_AT_location[DW_OP_reg14]
    1914              
    1915              ;* PL    assigned to _Ls_q
    1916              $C$DW$184       .dwtag  DW_TAG_variable
    1917                      .dwattr $C$DW$184, DW_AT_name("Ls_q")
    1918                      .dwattr $C$DW$184, DW_AT_TI_symbol_name("_Ls_q")
    1919                      .dwattr $C$DW$184, DW_AT_type(*$C$DW$T$70)
    1920                      .dwattr $C$DW$184, DW_AT_location[DW_OP_reg2]
    1921              
    1922              ;* AR6   assigned to _Rr
    1923              $C$DW$185       .dwtag  DW_TAG_variable
    1924                      .dwattr $C$DW$185, DW_AT_name("Rr")
TMS320C2000 Assembler PC v15.12.3 Wed Nov 22 00:56:17 2017

Tools Copyright (c) 1996-2015 Texas Instruments Incorporated
C:\Users\wmj\AppData\Local\Temp\0070810                              PAGE   37

    1925                      .dwattr $C$DW$185, DW_AT_TI_symbol_name("_Rr")
    1926                      .dwattr $C$DW$185, DW_AT_type(*$C$DW$T$70)
    1927                      .dwattr $C$DW$185, DW_AT_location[DW_OP_reg16]
    1928              
    1929              ;* AR4   assigned to _Rs
    1930              $C$DW$186       .dwtag  DW_TAG_variable
    1931                      .dwattr $C$DW$186, DW_AT_name("Rs")
    1932                      .dwattr $C$DW$186, DW_AT_TI_symbol_name("_Rs")
    1933                      .dwattr $C$DW$186, DW_AT_type(*$C$DW$T$70)
    1934                      .dwattr $C$DW$186, DW_AT_location[DW_OP_reg12]
    1935              
    1936              ;* AR6   assigned to _Ki
    1937              $C$DW$187       .dwtag  DW_TAG_variable
    1938                      .dwattr $C$DW$187, DW_AT_name("Ki")
    1939                      .dwattr $C$DW$187, DW_AT_TI_symbol_name("_Ki")
    1940                      .dwattr $C$DW$187, DW_AT_type(*$C$DW$T$31)
    1941                      .dwattr $C$DW$187, DW_AT_location[DW_OP_reg16]
    1942              
    1943              ;* AR4   assigned to _obj
    1944              $C$DW$188       .dwtag  DW_TAG_variable
    1945                      .dwattr $C$DW$188, DW_AT_name("obj")
    1946                      .dwattr $C$DW$188, DW_AT_TI_symbol_name("_obj")
    1947                      .dwattr $C$DW$188, DW_AT_type(*$C$DW$T$229)
    1948                      .dwattr $C$DW$188, DW_AT_location[DW_OP_reg12]
    1949              
    1950              ;* AR4   assigned to _obj
    1951              $C$DW$189       .dwtag  DW_TAG_variable
    1952                      .dwattr $C$DW$189, DW_AT_name("obj")
    1953                      .dwattr $C$DW$189, DW_AT_TI_symbol_name("_obj")
    1954                      .dwattr $C$DW$189, DW_AT_type(*$C$DW$T$229)
    1955                      .dwattr $C$DW$189, DW_AT_location[DW_OP_reg12]
    1956              
    1957              ;* AR6   assigned to _Ki
    1958              $C$DW$190       .dwtag  DW_TAG_variable
    1959                      .dwattr $C$DW$190, DW_AT_name("Ki")
    1960                      .dwattr $C$DW$190, DW_AT_TI_symbol_name("_Ki")
    1961                      .dwattr $C$DW$190, DW_AT_type(*$C$DW$T$31)
    1962                      .dwattr $C$DW$190, DW_AT_location[DW_OP_reg16]
    1963              
    1964              ;* AR4   assigned to _obj
    1965              $C$DW$191       .dwtag  DW_TAG_variable
    1966                      .dwattr $C$DW$191, DW_AT_name("obj")
    1967                      .dwattr $C$DW$191, DW_AT_TI_symbol_name("_obj")
    1968                      .dwattr $C$DW$191, DW_AT_type(*$C$DW$T$229)
    1969                      .dwattr $C$DW$191, DW_AT_location[DW_OP_reg12]
    1970              
    1971              ;* AR4   assigned to _obj
    1972              $C$DW$192       .dwtag  DW_TAG_variable
    1973                      .dwattr $C$DW$192, DW_AT_name("obj")
    1974                      .dwattr $C$DW$192, DW_AT_TI_symbol_name("_obj")
    1975                      .dwattr $C$DW$192, DW_AT_type(*$C$DW$T$229)
    1976                      .dwattr $C$DW$192, DW_AT_location[DW_OP_reg12]
    1977              
    1978              ;* AR6   assigned to _Ki
    1979              $C$DW$193       .dwtag  DW_TAG_variable
TMS320C2000 Assembler PC v15.12.3 Wed Nov 22 00:56:17 2017

Tools Copyright (c) 1996-2015 Texas Instruments Incorporated
C:\Users\wmj\AppData\Local\Temp\0070810                              PAGE   38

    1980                      .dwattr $C$DW$193, DW_AT_name("Ki")
    1981                      .dwattr $C$DW$193, DW_AT_TI_symbol_name("_Ki")
    1982                      .dwattr $C$DW$193, DW_AT_type(*$C$DW$T$31)
    1983                      .dwattr $C$DW$193, DW_AT_location[DW_OP_reg16]
    1984              
    1985              ;* AR4   assigned to _obj
    1986              $C$DW$194       .dwtag  DW_TAG_variable
    1987                      .dwattr $C$DW$194, DW_AT_name("obj")
    1988                      .dwattr $C$DW$194, DW_AT_TI_symbol_name("_obj")
    1989                      .dwattr $C$DW$194, DW_AT_type(*$C$DW$T$229)
    1990                      .dwattr $C$DW$194, DW_AT_location[DW_OP_reg12]
    1991              
    1992              ;* AR4   assigned to _obj
    1993              $C$DW$195       .dwtag  DW_TAG_variable
    1994                      .dwattr $C$DW$195, DW_AT_name("obj")
    1995                      .dwattr $C$DW$195, DW_AT_TI_symbol_name("_obj")
    1996                      .dwattr $C$DW$195, DW_AT_type(*$C$DW$T$229)
    1997                      .dwattr $C$DW$195, DW_AT_location[DW_OP_reg12]
    1998              
    1999              $C$DW$196       .dwtag  DW_TAG_variable
    2000                      .dwattr $C$DW$196, DW_AT_name("Kp")
    2001                      .dwattr $C$DW$196, DW_AT_TI_symbol_name("_Kp")
    2002                      .dwattr $C$DW$196, DW_AT_type(*$C$DW$T$31)
    2003                      .dwattr $C$DW$196, DW_AT_location[DW_OP_breg20 -40]
    2004              
    2005              $C$DW$197       .dwtag  DW_TAG_variable
    2006                      .dwattr $C$DW$197, DW_AT_name("pUserParams")
    2007                      .dwattr $C$DW$197, DW_AT_TI_symbol_name("_pUserParams")
    2008                      .dwattr $C$DW$197, DW_AT_type(*$C$DW$T$232)
    2009                      .dwattr $C$DW$197, DW_AT_location[DW_OP_breg20 -42]
    2010              
    2011              ;* AR1   assigned to _handle
    2012              $C$DW$198       .dwtag  DW_TAG_variable
    2013                      .dwattr $C$DW$198, DW_AT_name("handle")
    2014                      .dwattr $C$DW$198, DW_AT_TI_symbol_name("_handle")
    2015                      .dwattr $C$DW$198, DW_AT_type(*$C$DW$T$189)
    2016                      .dwattr $C$DW$198, DW_AT_location[DW_OP_reg6]
    2017              
    2018              $C$DW$199       .dwtag  DW_TAG_variable
    2019                      .dwattr $C$DW$199, DW_AT_name("Iab_out_pu")
    2020                      .dwattr $C$DW$199, DW_AT_TI_symbol_name("_Iab_out_pu")
    2021                      .dwattr $C$DW$199, DW_AT_type(*$C$DW$T$32)
    2022                      .dwattr $C$DW$199, DW_AT_location[DW_OP_breg20 -8]
    2023              
    2024              $C$DW$200       .dwtag  DW_TAG_variable
    2025                      .dwattr $C$DW$200, DW_AT_name("Idq_out_pu")
    2026                      .dwattr $C$DW$200, DW_AT_TI_symbol_name("_Idq_out_pu")
    2027                      .dwattr $C$DW$200, DW_AT_type(*$C$DW$T$32)
    2028                      .dwattr $C$DW$200, DW_AT_location[DW_OP_breg20 -12]
    2029              
    2030              $C$DW$201       .dwtag  DW_TAG_variable
    2031                      .dwattr $C$DW$201, DW_AT_name("Idq_ref_pu")
    2032                      .dwattr $C$DW$201, DW_AT_TI_symbol_name("_Idq_ref_pu")
    2033                      .dwattr $C$DW$201, DW_AT_type(*$C$DW$T$32)
    2034                      .dwattr $C$DW$201, DW_AT_location[DW_OP_breg20 -16]
TMS320C2000 Assembler PC v15.12.3 Wed Nov 22 00:56:17 2017

Tools Copyright (c) 1996-2015 Texas Instruments Incorporated
C:\Users\wmj\AppData\Local\Temp\0070810                              PAGE   39

    2035              
    2036              $C$DW$202       .dwtag  DW_TAG_variable
    2037                      .dwattr $C$DW$202, DW_AT_name("Vab_in_pu")
    2038                      .dwattr $C$DW$202, DW_AT_TI_symbol_name("_Vab_in_pu")
    2039                      .dwattr $C$DW$202, DW_AT_type(*$C$DW$T$32)
    2040                      .dwattr $C$DW$202, DW_AT_location[DW_OP_breg20 -20]
    2041              
    2042              $C$DW$203       .dwtag  DW_TAG_variable
    2043                      .dwattr $C$DW$203, DW_AT_name("Vab_out_pu")
    2044                      .dwattr $C$DW$203, DW_AT_TI_symbol_name("_Vab_out_pu")
    2045                      .dwattr $C$DW$203, DW_AT_type(*$C$DW$T$32)
    2046                      .dwattr $C$DW$203, DW_AT_location[DW_OP_breg20 -24]
    2047              
    2048              $C$DW$204       .dwtag  DW_TAG_variable
    2049                      .dwattr $C$DW$204, DW_AT_name("Vdq_out_pu")
    2050                      .dwattr $C$DW$204, DW_AT_TI_symbol_name("_Vdq_out_pu")
    2051                      .dwattr $C$DW$204, DW_AT_type(*$C$DW$T$32)
    2052                      .dwattr $C$DW$204, DW_AT_location[DW_OP_breg20 -28]
    2053              
    2054                      .dwcfi  cfa_offset, -2
    2055                      .dwcfi  save_reg_to_mem, 26, 0
    2056 00000139 B2BD          MOVL      *SP++,XAR1            ; [CPU_] 
    2057                      .dwcfi  save_reg_to_mem, 7, 2
    2058                      .dwcfi  cfa_offset, -4
    2059 0000013a AABD          MOVL      *SP++,XAR2            ; [CPU_] 
    2060                      .dwcfi  save_reg_to_mem, 9, 4
    2061                      .dwcfi  cfa_offset, -6
    2062 0000013b A2BD          MOVL      *SP++,XAR3            ; [CPU_] 
    2063                      .dwcfi  save_reg_to_mem, 11, 6
    2064                      .dwcfi  cfa_offset, -8
    2065 0000013c FE2A          ADDB      SP,#42                ; [CPU_U] 
    2066                      .dwcfi  cfa_offset, -50
    2067 0000013d 8BA4          MOVL      XAR1,XAR4             ; [CPU_] |293| 
    2068                      .dwpsn  file "C:/Users/wmj/Desktop/BM1000_v1.1/sw/modules/ctrl/src/32b/ctrl.c",line 300,column 13,is_
    2069 0000013e 5CAD          MOVZ      AR4,SP                ; [CPU_] |300| 
    2070                      .dwpsn  file "C:/Users/wmj/Desktop/BM1000_v1.1/sw/modules/ctrl/src/32b/ctrl.c",line 293,column 1,is_s
    2071 0000013f A06A          MOVL      *-SP[42],XAR5         ; [CPU_] |293| 
    2072                      .dwpsn  file "C:/Users/wmj/Desktop/BM1000_v1.1/sw/modules/ctrl/src/32b/ctrl.c",line 300,column 13,is_
    2073 00000140 DC88          SUBB      XAR4,#8               ; [CPU_U] |300| 
    2074 00000141 5CA4          MOVZ      AR4,AR4               ; [CPU_] |300| 
    2075 00000142 76C0+         MOVL      XAR7,#_$P$T0$1        ; [CPU_U] |300| 
         00000143 0000 
    2076 00000144 F603          RPT       #3
    2077 00000145 2484  ||     PREAD     *XAR4++,*XAR7         ; [CPU_] |300| 
    2078                      .dwpsn  file "C:/Users/wmj/Desktop/BM1000_v1.1/sw/modules/ctrl/src/32b/ctrl.c",line 301,column 13,is_
    2079 00000146 5CAD          MOVZ      AR4,SP                ; [CPU_] |301| 
    2080 00000147 DC8C          SUBB      XAR4,#12              ; [CPU_U] |301| 
    2081 00000148 5CA4          MOVZ      AR4,AR4               ; [CPU_] |301| 
    2082 00000149 76C0+         MOVL      XAR7,#_$P$T1$2        ; [CPU_U] |301| 
         0000014a 0000 
    2083 0000014b F603          RPT       #3
    2084 0000014c 2484  ||     PREAD     *XAR4++,*XAR7         ; [CPU_] |301| 
    2085                      .dwpsn  file "C:/Users/wmj/Desktop/BM1000_v1.1/sw/modules/ctrl/src/32b/ctrl.c",line 302,column 13,is_
    2086 0000014d 5CAD          MOVZ      AR4,SP                ; [CPU_] |302| 
    2087 0000014e DC90          SUBB      XAR4,#16              ; [CPU_U] |302| 
TMS320C2000 Assembler PC v15.12.3 Wed Nov 22 00:56:17 2017

Tools Copyright (c) 1996-2015 Texas Instruments Incorporated
C:\Users\wmj\AppData\Local\Temp\0070810                              PAGE   40

    2088 0000014f 5CA4          MOVZ      AR4,AR4               ; [CPU_] |302| 
    2089 00000150 76C0+         MOVL      XAR7,#_$P$T2$3        ; [CPU_U] |302| 
         00000151 0000 
    2090 00000152 F603          RPT       #3
    2091 00000153 2484  ||     PREAD     *XAR4++,*XAR7         ; [CPU_] |302| 
    2092                      .dwpsn  file "C:/Users/wmj/Desktop/BM1000_v1.1/sw/modules/ctrl/src/32b/ctrl.c",line 303,column 13,is_
    2093 00000154 5CAD          MOVZ      AR4,SP                ; [CPU_] |303| 
    2094 00000155 DC94          SUBB      XAR4,#20              ; [CPU_U] |303| 
    2095 00000156 5CA4          MOVZ      AR4,AR4               ; [CPU_] |303| 
    2096 00000157 76C0+         MOVL      XAR7,#_$P$T3$4        ; [CPU_U] |303| 
         00000158 0000 
    2097 00000159 F603          RPT       #3
    2098 0000015a 2484  ||     PREAD     *XAR4++,*XAR7         ; [CPU_] |303| 
    2099                      .dwpsn  file "C:/Users/wmj/Desktop/BM1000_v1.1/sw/modules/ctrl/src/32b/ctrl.c",line 304,column 13,is_
    2100 0000015b 5CAD          MOVZ      AR4,SP                ; [CPU_] |304| 
    2101 0000015c DC98          SUBB      XAR4,#24              ; [CPU_U] |304| 
    2102 0000015d 5CA4          MOVZ      AR4,AR4               ; [CPU_] |304| 
    2103 0000015e 76C0+         MOVL      XAR7,#_$P$T4$5        ; [CPU_U] |304| 
         0000015f 0000 
    2104 00000160 F603          RPT       #3
    2105 00000161 2484  ||     PREAD     *XAR4++,*XAR7         ; [CPU_] |304| 
    2106                      .dwpsn  file "C:/Users/wmj/Desktop/BM1000_v1.1/sw/modules/ctrl/src/32b/ctrl.c",line 305,column 13,is_
    2107 00000162 5CAD          MOVZ      AR4,SP                ; [CPU_] |305| 
    2108 00000163 DC9C          SUBB      XAR4,#28              ; [CPU_U] |305| 
    2109 00000164 5CA4          MOVZ      AR4,AR4               ; [CPU_] |305| 
    2110 00000165 76C0+         MOVL      XAR7,#_$P$T5$6        ; [CPU_U] |305| 
         00000166 0000 
    2111 00000167 F603          RPT       #3
    2112 00000168 2484  ||     PREAD     *XAR4++,*XAR7         ; [CPU_] |305| 
    2113                      .dwpsn  file "C:/Users/wmj/Desktop/BM1000_v1.1/sw/modules/ctrl/src/32b/ctrl.h",line 1656,column 3,is_
    2114 00000169 C56A          MOVL      XAR7,*-SP[42]         ; [CPU_] |1656| 
    2115                      .dwpsn  file "C:/Users/wmj/Desktop/BM1000_v1.1/sw/modules/ctrl/src/32b/ctrl.c",line 309,column 3,is_s
    2116 0000016a 8A6A          MOVL      XAR4,*-SP[42]         ; [CPU_] |309| 
    2117 0000016b D035          MOVB      XAR0,#53              ; [CPU_] |309| 
    2118                      .dwpsn  file "C:/Users/wmj/Desktop/BM1000_v1.1/sw/modules/ctrl/src/32b/ctrl.h",line 1656,column 3,is_
    2119 0000016c DF34          ADDB      XAR7,#52              ; [CPU_] |1656| 
    2120                      .dwpsn  file "C:/Users/wmj/Desktop/BM1000_v1.1/sw/modules/ctrl/src/32b/ctrl.c",line 309,column 3,is_s
    2121 0000016d 9394          MOV       AH,*+XAR4[AR0]        ; [CPU_] |309| 
    2122 0000016e D036          MOVB      XAR0,#54              ; [CPU_] |309| 
    2123                      .dwpsn  file "C:/Users/wmj/Desktop/BM1000_v1.1/sw/modules/ctrl/src/32b/ctrl.h",line 1656,column 3,is_
    2124 0000016f 92C7          MOV       AL,*XAR7              ; [CPU_] |1656| 
    2125                      .dwpsn  file "C:/Users/wmj/Desktop/BM1000_v1.1/sw/modules/ctrl/src/32b/ctrl.c",line 309,column 3,is_s
    2126 00000170 8794          MOVL      XT,*+XAR4[AR0]        ; [CPU_] |309| 
    2127 00000171 D03C          MOVB      XAR0,#60              ; [CPU_] |309| 
    2128 00000172 8394          MOVL      XAR5,*+XAR4[AR0]      ; [CPU_] |309| 
    2129 00000173 D03E          MOVB      XAR0,#62              ; [CPU_] |309| 
    2130 00000174 A394          MOVL      P,*+XAR4[AR0]         ; [CPU_] |309| 
    2131 00000175 D038          MOVB      XAR0,#56              ; [CPU_] |309| 
    2132 00000176 C494          MOVL      XAR6,*+XAR4[AR0]      ; [CPU_] |309| 
    2133 00000177 D03A          MOVB      XAR0,#58              ; [CPU_] |309| 
    2134 00000178 8A94          MOVL      XAR4,*+XAR4[AR0]      ; [CPU_] |309| 
    2135                      .dwpsn  file "C:/Users/wmj/Desktop/BM1000_v1.1/sw/modules/ctrl/src/32b/ctrl.h",line 1656,column 3,is_
    2136 00000179 D084          MOVB      XAR0,#132             ; [CPU_] |1656| 
    2137 0000017a 9691          MOV       *+XAR1[AR0],AL        ; [CPU_] |1656| 
    2138                      .dwpsn  file "C:/Users/wmj/Desktop/BM1000_v1.1/sw/modules/ctrl/src/32b/ctrl.h",line 1657,column 3,is_
TMS320C2000 Assembler PC v15.12.3 Wed Nov 22 00:56:17 2017

Tools Copyright (c) 1996-2015 Texas Instruments Incorporated
C:\Users\wmj\AppData\Local\Temp\0070810                              PAGE   41

    2139 0000017b D085          MOVB      XAR0,#133             ; [CPU_] |1657| 
    2140 0000017c 9791          MOV       *+XAR1[AR0],AH        ; [CPU_] |1657| 
    2141                      .dwpsn  file "C:/Users/wmj/Desktop/BM1000_v1.1/sw/modules/ctrl/src/32b/ctrl.h",line 1658,column 3,is_
    2142 0000017d D090          MOVB      XAR0,#144             ; [CPU_] |1658| 
    2143 0000017e AB91          MOVL      *+XAR1[AR0],XT        ; [CPU_] |1658| 
    2144                      .dwpsn  file "C:/Users/wmj/Desktop/BM1000_v1.1/sw/modules/ctrl/src/32b/ctrl.h",line 1659,column 3,is_
    2145 0000017f D088          MOVB      XAR0,#136             ; [CPU_] |1659| 
    2146 00000180 A091          MOVL      *+XAR1[AR0],XAR5      ; [CPU_] |1659| 
    2147                      .dwpsn  file "C:/Users/wmj/Desktop/BM1000_v1.1/sw/modules/ctrl/src/32b/ctrl.h",line 1660,column 3,is_
    2148 00000181 D08A          MOVB      XAR0,#138             ; [CPU_] |1660| 
    2149 00000182 A991          MOVL      *+XAR1[AR0],P         ; [CPU_] |1660| 
    2150                      .dwpsn  file "C:/Users/wmj/Desktop/BM1000_v1.1/sw/modules/ctrl/src/32b/ctrl.h",line 1661,column 3,is_
    2151 00000183 D08C          MOVB      XAR0,#140             ; [CPU_] |1661| 
    2152 00000184 C291          MOVL      *+XAR1[AR0],XAR6      ; [CPU_] |1661| 
    2153                      .dwpsn  file "C:/Users/wmj/Desktop/BM1000_v1.1/sw/modules/ctrl/src/32b/ctrl.h",line 1662,column 3,is_
    2154 00000185 D08E          MOVB      XAR0,#142             ; [CPU_] |1662| 
    2155 00000186 A891          MOVL      *+XAR1[AR0],XAR4      ; [CPU_] |1662| 
    2156                      .dwpsn  file "C:/Users/wmj/Desktop/BM1000_v1.1/sw/modules/ctrl/src/32b/ctrl.h",line 1726,column 3,is_
    2157 00000187 8A6A          MOVL      XAR4,*-SP[42]         ; [CPU_] |1726| 
    2158 00000188 D09C          MOVB      XAR0,#156             ; [CPU_] |1726| 
    2159 00000189 92F4          MOV       AL,*+XAR4[6]          ; [CPU_] |1726| 
    2160 0000018a 9691          MOV       *+XAR1[AR0],AL        ; [CPU_] |1726| 
    2161                      .dwpsn  file "C:/Users/wmj/Desktop/BM1000_v1.1/sw/modules/ctrl/src/32b/ctrl.h",line 1684,column 3,is_
    2162 0000018b D09D          MOVB      XAR0,#157             ; [CPU_] |1684| 
    2163 0000018c 92FC          MOV       AL,*+XAR4[7]          ; [CPU_] |1684| 
    2164 0000018d 9691          MOV       *+XAR1[AR0],AL        ; [CPU_] |1684| 
    2165                      .dwpsn  file "C:/Users/wmj/Desktop/BM1000_v1.1/sw/modules/ctrl/src/32b/ctrl.h",line 1698,column 3,is_
    2166 0000018e C56A          MOVL      XAR7,*-SP[42]         ; [CPU_] |1698| 
    2167 0000018f D09E          MOVB      XAR0,#158             ; [CPU_] |1698| 
    2168 00000190 DF09          ADDB      XAR7,#9               ; [CPU_] |1698| 
    2169 00000191 92C7          MOV       AL,*XAR7              ; [CPU_] |1698| 
    2170 00000192 9691          MOV       *+XAR1[AR0],AL        ; [CPU_] |1698| 
    2171                      .dwpsn  file "C:/Users/wmj/Desktop/BM1000_v1.1/sw/modules/ctrl/src/32b/ctrl.h",line 1712,column 3,is_
    2172 00000193 C56A          MOVL      XAR7,*-SP[42]         ; [CPU_] |1712| 
    2173 00000194 D09F          MOVB      XAR0,#159             ; [CPU_] |1712| 
    2174 00000195 DF0A          ADDB      XAR7,#10              ; [CPU_] |1712| 
    2175 00000196 92C7          MOV       AL,*XAR7              ; [CPU_] |1712| 
    2176 00000197 9691          MOV       *+XAR1[AR0],AL        ; [CPU_] |1712| 
    2177                      .dwpsn  file "C:/Users/wmj/Desktop/BM1000_v1.1/sw/modules/ctrl/src/32b/ctrl.h",line 1204,column 3,is_
    2178 00000198 D09E          MOVB      XAR0,#158             ; [CPU_] |1204| 
    2179 00000199 0694          MOVL      ACC,*+XAR4[AR0]       ; [CPU_] |1204| 
    2180 0000019a D0A0          MOVB      XAR0,#160             ; [CPU_] |1204| 
    2181 0000019b 1E91          MOVL      *+XAR1[AR0],ACC       ; [CPU_] |1204| 
    2182                      .dwpsn  file "C:/Users/wmj/Desktop/BM1000_v1.1/sw/modules/ctrl/src/32b/ctrl.h",line 1856,column 3,is_
    2183 0000019c D0A4          MOVB      XAR0,#164             ; [CPU_] |1856| 
    2184 0000019d 0694          MOVL      ACC,*+XAR4[AR0]       ; [CPU_] |1856| 
    2185 0000019e D0A2          MOVB      XAR0,#162             ; [CPU_] |1856| 
    2186 0000019f 1E91          MOVL      *+XAR1[AR0],ACC       ; [CPU_] |1856| 
    2187                      .dwpsn  file "C:/Users/wmj/Desktop/BM1000_v1.1/sw/modules/ctrl/src/32b/ctrl.h",line 1869,column 3,is_
    2188 000001a0 D0A4          MOVB      XAR0,#164             ; [CPU_] |1869| 
    2189 000001a1 0694          MOVL      ACC,*+XAR4[AR0]       ; [CPU_] |1869| 
    2190              $C$DW$205       .dwtag  DW_TAG_TI_branch
    2191                      .dwattr $C$DW$205, DW_AT_low_pc(0x00)
    2192                      .dwattr $C$DW$205, DW_AT_name("UL$$TOFS")
    2193                      .dwattr $C$DW$205, DW_AT_TI_call
TMS320C2000 Assembler PC v15.12.3 Wed Nov 22 00:56:17 2017

Tools Copyright (c) 1996-2015 Texas Instruments Incorporated
C:\Users\wmj\AppData\Local\Temp\0070810                              PAGE   42

    2194              
    2195 000001a2 7640!         LCR       #UL$$TOFS             ; [CPU_] |1869| 
         000001a3 0000 
    2196                      ; call occurs [#UL$$TOFS] ; [] |1869| 
    2197 000001a4 1E42          MOVL      *-SP[2],ACC           ; [CPU_] |1869| 
    2198 000001a5 FF2F          MOV       ACC,#32512 << 15      ; [CPU_] |1869| 
         000001a6 7F00 
    2199              $C$DW$206       .dwtag  DW_TAG_TI_branch
    2200                      .dwattr $C$DW$206, DW_AT_low_pc(0x00)
    2201                      .dwattr $C$DW$206, DW_AT_name("FS$$DIV")
    2202                      .dwattr $C$DW$206, DW_AT_TI_call
    2203              
    2204 000001a7 7640!         LCR       #FS$$DIV              ; [CPU_] |1869| 
         000001a8 0000 
    2205                      ; call occurs [#FS$$DIV] ; [] |1869| 
    2206 000001a9 5CAD          MOVZ      AR4,SP                ; [CPU_] |1869| 
    2207 000001aa DCA4          SUBB      XAR4,#36              ; [CPU_U] |1869| 
    2208 000001ab 88A4          MOVZ      AR6,AR4               ; [CPU_] |1869| 
    2209              $C$DW$207       .dwtag  DW_TAG_TI_branch
    2210                      .dwattr $C$DW$207, DW_AT_low_pc(0x00)
    2211                      .dwattr $C$DW$207, DW_AT_name("FS$$TOFD")
    2212                      .dwattr $C$DW$207, DW_AT_TI_call
    2213              
    2214 000001ac 7640!         LCR       #FS$$TOFD             ; [CPU_] |1869| 
         000001ad 0000 
    2215                      ; call occurs [#FS$$TOFD] ; [] |1869| 
    2216 000001ae 5DAD          MOVZ      AR5,SP                ; [CPU_] |1869| 
    2217 000001af 5CAD          MOVZ      AR4,SP                ; [CPU_] |1869| 
    2218 000001b0 DDA0          SUBB      XAR5,#32              ; [CPU_U] |1869| 
    2219 000001b1 DCA4          SUBB      XAR4,#36              ; [CPU_U] |1869| 
    2220 000001b2 88A5          MOVZ      AR6,AR5               ; [CPU_] |1869| 
    2221 000001b3 5CA4          MOVZ      AR4,AR4               ; [CPU_] |1869| 
    2222 000001b4 8F40+         MOVL      XAR5,#$C$FL1          ; [CPU_U] |1869| 
         000001b5 0000 
    2223              $C$DW$208       .dwtag  DW_TAG_TI_branch
    2224                      .dwattr $C$DW$208, DW_AT_low_pc(0x00)
    2225                      .dwattr $C$DW$208, DW_AT_name("FD$$MPY")
    2226                      .dwattr $C$DW$208, DW_AT_TI_call
    2227              
    2228 000001b6 7640!         LCR       #FD$$MPY              ; [CPU_] |1869| 
         000001b7 0000 
    2229                      ; call occurs [#FD$$MPY] ; [] |1869| 
    2230 000001b8 5CAD          MOVZ      AR4,SP                ; [CPU_] |1869| 
    2231 000001b9 DCA0          SUBB      XAR4,#32              ; [CPU_U] |1869| 
    2232 000001ba 5CA4          MOVZ      AR4,AR4               ; [CPU_] |1869| 
    2233              $C$DW$209       .dwtag  DW_TAG_TI_branch
    2234                      .dwattr $C$DW$209, DW_AT_low_pc(0x00)
    2235                      .dwattr $C$DW$209, DW_AT_name("FD$$TOL")
    2236                      .dwattr $C$DW$209, DW_AT_TI_call
    2237              
    2238 000001bb 7640!         LCR       #FD$$TOL              ; [CPU_] |1869| 
         000001bc 0000 
    2239                      ; call occurs [#FD$$TOL] ; [] |1869| 
    2240 000001bd D0A4          MOVB      XAR0,#164             ; [CPU_] |1869| 
    2241 000001be 1E91          MOVL      *+XAR1[AR0],ACC       ; [CPU_] |1869| 
TMS320C2000 Assembler PC v15.12.3 Wed Nov 22 00:56:17 2017

Tools Copyright (c) 1996-2015 Texas Instruments Incorporated
C:\Users\wmj\AppData\Local\Temp\0070810                              PAGE   43

    2242                      .dwpsn  file "C:/Users/wmj/Desktop/BM1000_v1.1/sw/modules/ctrl/src/32b/ctrl.h",line 1217,column 3,is_
    2243 000001bf 8A6A          MOVL      XAR4,*-SP[42]         ; [CPU_] |1217| 
    2244 000001c0 D0A6          MOVB      XAR0,#166             ; [CPU_] |1217| 
    2245 000001c1 0694          MOVL      ACC,*+XAR4[AR0]       ; [CPU_] |1217| 
    2246 000001c2 D0A6          MOVB      XAR0,#166             ; [CPU_] |1217| 
    2247 000001c3 1E91          MOVL      *+XAR1[AR0],ACC       ; [CPU_] |1217| 
    2248                      .dwpsn  file "C:/Users/wmj/Desktop/BM1000_v1.1/sw/modules/ctrl/src/32b/ctrl.h",line 1583,column 3,is_
    2249 000001c4 D030          MOVB      XAR0,#48              ; [CPU_] |1583| 
    2250 000001c5 0694          MOVL      ACC,*+XAR4[AR0]       ; [CPU_] |1583| 
    2251 000001c6 5CAD          MOVZ      AR4,SP                ; [CPU_] |1583| 
    2252 000001c7 DCA4          SUBB      XAR4,#36              ; [CPU_U] |1583| 
    2253 000001c8 88A4          MOVZ      AR6,AR4               ; [CPU_] |1583| 
    2254              $C$DW$210       .dwtag  DW_TAG_TI_branch
    2255                      .dwattr $C$DW$210, DW_AT_low_pc(0x00)
    2256                      .dwattr $C$DW$210, DW_AT_name("FS$$TOFD")
    2257                      .dwattr $C$DW$210, DW_AT_TI_call
    2258              
    2259 000001c9 7640!         LCR       #FS$$TOFD             ; [CPU_] |1583| 
         000001ca 0000 
    2260                      ; call occurs [#FS$$TOFD] ; [] |1583| 
    2261 000001cb 5DAD          MOVZ      AR5,SP                ; [CPU_] |1583| 
    2262 000001cc 5CAD          MOVZ      AR4,SP                ; [CPU_] |1583| 
    2263 000001cd DDA0          SUBB      XAR5,#32              ; [CPU_U] |1583| 
    2264 000001ce DCA4          SUBB      XAR4,#36              ; [CPU_U] |1583| 
    2265 000001cf 88A5          MOVZ      AR6,AR5               ; [CPU_] |1583| 
    2266 000001d0 5CA4          MOVZ      AR4,AR4               ; [CPU_] |1583| 
    2267 000001d1 8F40+         MOVL      XAR5,#$C$FL1          ; [CPU_U] |1583| 
         000001d2 0000 
    2268              $C$DW$211       .dwtag  DW_TAG_TI_branch
    2269                      .dwattr $C$DW$211, DW_AT_low_pc(0x00)
    2270                      .dwattr $C$DW$211, DW_AT_name("FD$$MPY")
    2271                      .dwattr $C$DW$211, DW_AT_TI_call
    2272              
    2273 000001d3 7640!         LCR       #FD$$MPY              ; [CPU_] |1583| 
         000001d4 0000 
    2274                      ; call occurs [#FD$$MPY] ; [] |1583| 
    2275 000001d5 5CAD          MOVZ      AR4,SP                ; [CPU_] |1583| 
    2276 000001d6 DCA0          SUBB      XAR4,#32              ; [CPU_U] |1583| 
    2277 000001d7 5CA4          MOVZ      AR4,AR4               ; [CPU_] |1583| 
    2278              $C$DW$212       .dwtag  DW_TAG_TI_branch
    2279                      .dwattr $C$DW$212, DW_AT_low_pc(0x00)
    2280                      .dwattr $C$DW$212, DW_AT_name("FD$$TOL")
    2281                      .dwattr $C$DW$212, DW_AT_TI_call
    2282              
    2283 000001d8 7640!         LCR       #FD$$TOL              ; [CPU_] |1583| 
         000001d9 0000 
    2284                      ; call occurs [#FD$$TOL] ; [] |1583| 
    2285 000001da D0A8          MOVB      XAR0,#168             ; [CPU_] |1583| 
    2286 000001db 1E91          MOVL      *+XAR1[AR0],ACC       ; [CPU_] |1583| 
    2287                      .dwpsn  file "C:/Users/wmj/Desktop/BM1000_v1.1/sw/modules/ctrl/src/32b/ctrl.h",line 1364,column 3,is_
    2288 000001dc D0AA          MOVB      XAR0,#170             ; [CPU_] |1364| 
    2289                      .dwpsn  file "C:/Users/wmj/Desktop/BM1000_v1.1/sw/modules/ctrl/src/32b/ctrl.c",line 336,column 3,is_s
    2290 000001dd 8AA1          MOVL      XAR4,XAR1             ; [CPU_] |336| 
    2291                      .dwpsn  file "C:/Users/wmj/Desktop/BM1000_v1.1/sw/modules/ctrl/src/32b/ctrl.h",line 1364,column 3,is_
    2292 000001de 0648          MOVL      ACC,*-SP[8]           ; [CPU_] |1364| 
TMS320C2000 Assembler PC v15.12.3 Wed Nov 22 00:56:17 2017

Tools Copyright (c) 1996-2015 Texas Instruments Incorporated
C:\Users\wmj\AppData\Local\Temp\0070810                              PAGE   44

    2293 000001df 1E91          MOVL      *+XAR1[AR0],ACC       ; [CPU_] |1364| 
    2294                      .dwpsn  file "C:/Users/wmj/Desktop/BM1000_v1.1/sw/modules/ctrl/src/32b/ctrl.h",line 1365,column 3,is_
    2295 000001e0 D0AC          MOVB      XAR0,#172             ; [CPU_] |1365| 
    2296 000001e1 0646          MOVL      ACC,*-SP[6]           ; [CPU_] |1365| 
    2297 000001e2 1E91          MOVL      *+XAR1[AR0],ACC       ; [CPU_] |1365| 
    2298                      .dwpsn  file "C:/Users/wmj/Desktop/BM1000_v1.1/sw/modules/ctrl/src/32b/ctrl.h",line 1397,column 3,is_
    2299 000001e3 D0B2          MOVB      XAR0,#178             ; [CPU_] |1397| 
    2300 000001e4 064C          MOVL      ACC,*-SP[12]          ; [CPU_] |1397| 
    2301 000001e5 1E91          MOVL      *+XAR1[AR0],ACC       ; [CPU_] |1397| 
    2302                      .dwpsn  file "C:/Users/wmj/Desktop/BM1000_v1.1/sw/modules/ctrl/src/32b/ctrl.h",line 1398,column 3,is_
    2303 000001e6 D0B4          MOVB      XAR0,#180             ; [CPU_] |1398| 
    2304 000001e7 064A          MOVL      ACC,*-SP[10]          ; [CPU_] |1398| 
    2305 000001e8 1E91          MOVL      *+XAR1[AR0],ACC       ; [CPU_] |1398| 
    2306                      .dwpsn  file "C:/Users/wmj/Desktop/BM1000_v1.1/sw/modules/ctrl/src/32b/ctrl.h",line 1425,column 3,is_
    2307 000001e9 D0E2          MOVB      XAR0,#226             ; [CPU_] |1425| 
    2308 000001ea 0650          MOVL      ACC,*-SP[16]          ; [CPU_] |1425| 
    2309 000001eb 1E91          MOVL      *+XAR1[AR0],ACC       ; [CPU_] |1425| 
    2310                      .dwpsn  file "C:/Users/wmj/Desktop/BM1000_v1.1/sw/modules/ctrl/src/32b/ctrl.h",line 1426,column 3,is_
    2311 000001ec D0E4          MOVB      XAR0,#228             ; [CPU_] |1426| 
    2312 000001ed 064E          MOVL      ACC,*-SP[14]          ; [CPU_] |1426| 
    2313 000001ee 1E91          MOVL      *+XAR1[AR0],ACC       ; [CPU_] |1426| 
    2314                      .dwpsn  file "C:/Users/wmj/Desktop/BM1000_v1.1/sw/modules/ctrl/src/32b/ctrl.c",line 336,column 3,is_s
    2315              $C$DW$213       .dwtag  DW_TAG_TI_branch
    2316                      .dwattr $C$DW$213, DW_AT_low_pc(0x00)
    2317                      .dwattr $C$DW$213, DW_AT_name("_CTRL_setBrake")
    2318                      .dwattr $C$DW$213, DW_AT_TI_call
    2319              
    2320 000001ef 7640'         LCR       #_CTRL_setBrake       ; [CPU_] |336| 
         000001f0 0104 
    2321                      ; call occurs [#_CTRL_setBrake] ; [] |336| 
    2322 000001f1 8A6A          MOVL      XAR4,*-SP[42]         ; [CPU_] 
    2323                      .dwpsn  file "C:/Users/wmj/Desktop/BM1000_v1.1/sw/drivers/drvic/brake.h",line 71,column 3,is_stmt,isa
    2324 000001f2 D04A          MOVB      XAR0,#74              ; [CPU_] |71| 
    2325 000001f3 06C4          MOVL      ACC,*+XAR4[0]         ; [CPU_] |71| 
    2326 000001f4 1E42          MOVL      *-SP[2],ACC           ; [CPU_] |71| 
    2327 000001f5 0694          MOVL      ACC,*+XAR4[AR0]       ; [CPU_] |71| 
    2328              $C$DW$214       .dwtag  DW_TAG_TI_branch
    2329                      .dwattr $C$DW$214, DW_AT_low_pc(0x00)
    2330                      .dwattr $C$DW$214, DW_AT_name("FS$$DIV")
    2331                      .dwattr $C$DW$214, DW_AT_TI_call
    2332              
    2333 000001f6 7640!         LCR       #FS$$DIV              ; [CPU_] |71| 
         000001f7 0000 
    2334                      ; call occurs [#FS$$DIV] ; [] |71| 
    2335 000001f8 5CAD          MOVZ      AR4,SP                ; [CPU_] |71| 
    2336 000001f9 DCA4          SUBB      XAR4,#36              ; [CPU_U] |71| 
    2337 000001fa 88A4          MOVZ      AR6,AR4               ; [CPU_] |71| 
    2338              $C$DW$215       .dwtag  DW_TAG_TI_branch
    2339                      .dwattr $C$DW$215, DW_AT_low_pc(0x00)
    2340                      .dwattr $C$DW$215, DW_AT_name("FS$$TOFD")
    2341                      .dwattr $C$DW$215, DW_AT_TI_call
    2342              
    2343 000001fb 7640!         LCR       #FS$$TOFD             ; [CPU_] |71| 
         000001fc 0000 
    2344                      ; call occurs [#FS$$TOFD] ; [] |71| 
TMS320C2000 Assembler PC v15.12.3 Wed Nov 22 00:56:17 2017

Tools Copyright (c) 1996-2015 Texas Instruments Incorporated
C:\Users\wmj\AppData\Local\Temp\0070810                              PAGE   45

    2345 000001fd 5DAD          MOVZ      AR5,SP                ; [CPU_] |71| 
    2346 000001fe 5CAD          MOVZ      AR4,SP                ; [CPU_] |71| 
    2347 000001ff DDA0          SUBB      XAR5,#32              ; [CPU_U] |71| 
    2348 00000200 DCA4          SUBB      XAR4,#36              ; [CPU_U] |71| 
    2349 00000201 88A5          MOVZ      AR6,AR5               ; [CPU_] |71| 
    2350 00000202 5CA4          MOVZ      AR4,AR4               ; [CPU_] |71| 
    2351 00000203 8F40+         MOVL      XAR5,#$C$FL1          ; [CPU_U] |71| 
         00000204 0000 
    2352              $C$DW$216       .dwtag  DW_TAG_TI_branch
    2353                      .dwattr $C$DW$216, DW_AT_low_pc(0x00)
    2354                      .dwattr $C$DW$216, DW_AT_name("FD$$MPY")
    2355                      .dwattr $C$DW$216, DW_AT_TI_call
    2356              
    2357 00000205 7640!         LCR       #FD$$MPY              ; [CPU_] |71| 
         00000206 0000 
    2358                      ; call occurs [#FD$$MPY] ; [] |71| 
    2359 00000207 5CAD          MOVZ      AR4,SP                ; [CPU_] |71| 
    2360 00000208 DCA0          SUBB      XAR4,#32              ; [CPU_U] |71| 
    2361 00000209 5CA4          MOVZ      AR4,AR4               ; [CPU_] |71| 
    2362              $C$DW$217       .dwtag  DW_TAG_TI_branch
    2363                      .dwattr $C$DW$217, DW_AT_low_pc(0x00)
    2364                      .dwattr $C$DW$217, DW_AT_name("FD$$TOL")
    2365                      .dwattr $C$DW$217, DW_AT_TI_call
    2366              
    2367 0000020a 7640!         LCR       #FD$$TOL              ; [CPU_] |71| 
         0000020b 0000 
    2368                      ; call occurs [#FD$$TOL] ; [] |71| 
    2369 0000020c D0FE          MOVB      XAR0,#254             ; [CPU_] |71| 
    2370 0000020d 8A91          MOVL      XAR4,*+XAR1[AR0]      ; [CPU_] |71| 
    2371                      .dwpsn  file "C:/Users/wmj/Desktop/BM1000_v1.1/sw/drivers/drvic/brake.h",line 81,column 3,is_stmt,isa
    2372 0000020e D0FE          MOVB      XAR0,#254             ; [CPU_] |81| 
    2373                      .dwpsn  file "C:/Users/wmj/Desktop/BM1000_v1.1/sw/drivers/drvic/brake.h",line 71,column 3,is_stmt,isa
    2374 0000020f 1ED4          MOVL      *+XAR4[2],ACC         ; [CPU_] |71| 
    2375                      .dwpsn  file "C:/Users/wmj/Desktop/BM1000_v1.1/sw/drivers/drvic/brake.h",line 81,column 3,is_stmt,isa
    2376 00000210 8A91          MOVL      XAR4,*+XAR1[AR0]      ; [CPU_] |81| 
    2377 00000211 0200          MOVB      ACC,#0                ; [CPU_] |81| 
    2378                      .dwpsn  file "C:/Users/wmj/Desktop/BM1000_v1.1/sw/drivers/drvic/brake.h",line 97,column 3,is_stmt,isa
    2379 00000212 D0FE          MOVB      XAR0,#254             ; [CPU_] |97| 
    2380                      .dwpsn  file "C:/Users/wmj/Desktop/BM1000_v1.1/sw/drivers/drvic/brake.h",line 81,column 3,is_stmt,isa
    2381 00000213 1EE4          MOVL      *+XAR4[4],ACC         ; [CPU_] |81| 
    2382                      .dwpsn  file "C:/Users/wmj/Desktop/BM1000_v1.1/sw/drivers/drvic/brake.h",line 97,column 3,is_stmt,isa
    2383 00000214 8A91          MOVL      XAR4,*+XAR1[AR0]      ; [CPU_] |97| 
    2384                      .dwpsn  file "C:/Users/wmj/Desktop/BM1000_v1.1/sw/modules/ctrl/src/32b/ctrl.h",line 1804,column 3,is_
    2385 00000215 FF2F          MOV       ACC,#512 << 15        ; [CPU_] |1804| 
         00000216 0200 
    2386 00000217 D0F8          MOVB      XAR0,#248             ; [CPU_] |1804| 
    2387                      .dwpsn  file "C:/Users/wmj/Desktop/BM1000_v1.1/sw/drivers/drvic/brake.h",line 97,column 3,is_stmt,isa
    2388 00000218 2BF4          MOV       *+XAR4[6],#0          ; [CPU_] |97| 
    2389                      .dwpsn  file "C:/Users/wmj/Desktop/BM1000_v1.1/sw/modules/ctrl/src/32b/ctrl.h",line 1804,column 3,is_
    2390 00000219 1E91          MOVL      *+XAR1[AR0],ACC       ; [CPU_] |1804| 
    2391 0000021a 8A6A          MOVL      XAR4,*-SP[42]         ; [CPU_] |1804| 
    2392                      .dwpsn  file "C:/Users/wmj/Desktop/BM1000_v1.1/sw/modules/ctrl/src/32b/ctrl.h",line 1439,column 3,is_
    2393 0000021b D04A          MOVB      XAR0,#74              ; [CPU_] |1439| 
    2394 0000021c 06C4          MOVL      ACC,*+XAR4[0]         ; [CPU_] |1439| 
    2395 0000021d 1E42          MOVL      *-SP[2],ACC           ; [CPU_] |1439| 
TMS320C2000 Assembler PC v15.12.3 Wed Nov 22 00:56:17 2017

Tools Copyright (c) 1996-2015 Texas Instruments Incorporated
C:\Users\wmj\AppData\Local\Temp\0070810                              PAGE   46

    2396 0000021e 0694          MOVL      ACC,*+XAR4[AR0]       ; [CPU_] |1439| 
    2397              $C$DW$218       .dwtag  DW_TAG_TI_branch
    2398                      .dwattr $C$DW$218, DW_AT_low_pc(0x00)
    2399                      .dwattr $C$DW$218, DW_AT_name("FS$$DIV")
    2400                      .dwattr $C$DW$218, DW_AT_TI_call
    2401              
    2402 0000021f 7640!         LCR       #FS$$DIV              ; [CPU_] |1439| 
         00000220 0000 
    2403                      ; call occurs [#FS$$DIV] ; [] |1439| 
    2404 00000221 5CAD          MOVZ      AR4,SP                ; [CPU_] |1439| 
    2405 00000222 DCA4          SUBB      XAR4,#36              ; [CPU_U] |1439| 
    2406 00000223 88A4          MOVZ      AR6,AR4               ; [CPU_] |1439| 
    2407              $C$DW$219       .dwtag  DW_TAG_TI_branch
    2408                      .dwattr $C$DW$219, DW_AT_low_pc(0x00)
    2409                      .dwattr $C$DW$219, DW_AT_name("FS$$TOFD")
    2410                      .dwattr $C$DW$219, DW_AT_TI_call
    2411              
    2412 00000224 7640!         LCR       #FS$$TOFD             ; [CPU_] |1439| 
         00000225 0000 
    2413                      ; call occurs [#FS$$TOFD] ; [] |1439| 
    2414 00000226 5DAD          MOVZ      AR5,SP                ; [CPU_] |1439| 
    2415 00000227 5CAD          MOVZ      AR4,SP                ; [CPU_] |1439| 
    2416 00000228 DDA0          SUBB      XAR5,#32              ; [CPU_U] |1439| 
    2417 00000229 DCA4          SUBB      XAR4,#36              ; [CPU_U] |1439| 
    2418 0000022a 88A5          MOVZ      AR6,AR5               ; [CPU_] |1439| 
    2419 0000022b 5CA4          MOVZ      AR4,AR4               ; [CPU_] |1439| 
    2420 0000022c 8F40+         MOVL      XAR5,#$C$FL1          ; [CPU_U] |1439| 
         0000022d 0000 
    2421              $C$DW$220       .dwtag  DW_TAG_TI_branch
    2422                      .dwattr $C$DW$220, DW_AT_low_pc(0x00)
    2423                      .dwattr $C$DW$220, DW_AT_name("FD$$MPY")
    2424                      .dwattr $C$DW$220, DW_AT_TI_call
    2425              
    2426 0000022e 7640!         LCR       #FD$$MPY              ; [CPU_] |1439| 
         0000022f 0000 
    2427                      ; call occurs [#FD$$MPY] ; [] |1439| 
    2428 00000230 5CAD          MOVZ      AR4,SP                ; [CPU_] |1439| 
    2429 00000231 DCA0          SUBB      XAR4,#32              ; [CPU_U] |1439| 
    2430 00000232 5CA4          MOVZ      AR4,AR4               ; [CPU_] |1439| 
    2431              $C$DW$221       .dwtag  DW_TAG_TI_branch
    2432                      .dwattr $C$DW$221, DW_AT_low_pc(0x00)
    2433                      .dwattr $C$DW$221, DW_AT_name("FD$$TOL")
    2434                      .dwattr $C$DW$221, DW_AT_TI_call
    2435              
    2436 00000233 7640!         LCR       #FD$$TOL              ; [CPU_] |1439| 
         00000234 0000 
    2437                      ; call occurs [#FD$$TOL] ; [] |1439| 
    2438 00000235 D0E6          MOVB      XAR0,#230             ; [CPU_] |1439| 
    2439 00000236 1E91          MOVL      *+XAR1[AR0],ACC       ; [CPU_] |1439| 
    2440                      .dwpsn  file "C:/Users/wmj/Desktop/BM1000_v1.1/sw/modules/ctrl/src/32b/ctrl.h",line 1952,column 3,is_
    2441 00000237 D0B6          MOVB      XAR0,#182             ; [CPU_] |1952| 
    2442 00000238 0654          MOVL      ACC,*-SP[20]          ; [CPU_] |1952| 
    2443 00000239 1E91          MOVL      *+XAR1[AR0],ACC       ; [CPU_] |1952| 
    2444                      .dwpsn  file "C:/Users/wmj/Desktop/BM1000_v1.1/sw/modules/ctrl/src/32b/ctrl.h",line 1953,column 3,is_
    2445 0000023a D0B8          MOVB      XAR0,#184             ; [CPU_] |1953| 
TMS320C2000 Assembler PC v15.12.3 Wed Nov 22 00:56:17 2017

Tools Copyright (c) 1996-2015 Texas Instruments Incorporated
C:\Users\wmj\AppData\Local\Temp\0070810                              PAGE   47

    2446 0000023b 0652          MOVL      ACC,*-SP[18]          ; [CPU_] |1953| 
    2447 0000023c 1E91          MOVL      *+XAR1[AR0],ACC       ; [CPU_] |1953| 
    2448                      .dwpsn  file "C:/Users/wmj/Desktop/BM1000_v1.1/sw/modules/ctrl/src/32b/ctrl.h",line 1966,column 3,is_
    2449 0000023d D0BC          MOVB      XAR0,#188             ; [CPU_] |1966| 
    2450 0000023e 0658          MOVL      ACC,*-SP[24]          ; [CPU_] |1966| 
    2451 0000023f 1E91          MOVL      *+XAR1[AR0],ACC       ; [CPU_] |1966| 
    2452                      .dwpsn  file "C:/Users/wmj/Desktop/BM1000_v1.1/sw/modules/ctrl/src/32b/ctrl.h",line 1967,column 3,is_
    2453 00000240 D0BE          MOVB      XAR0,#190             ; [CPU_] |1967| 
    2454 00000241 0656          MOVL      ACC,*-SP[22]          ; [CPU_] |1967| 
    2455 00000242 1E91          MOVL      *+XAR1[AR0],ACC       ; [CPU_] |1967| 
    2456                      .dwpsn  file "C:/Users/wmj/Desktop/BM1000_v1.1/sw/modules/ctrl/src/32b/ctrl.h",line 1994,column 3,is_
    2457 00000243 D0C0          MOVB      XAR0,#192             ; [CPU_] |1994| 
    2458 00000244 065C          MOVL      ACC,*-SP[28]          ; [CPU_] |1994| 
    2459 00000245 1E91          MOVL      *+XAR1[AR0],ACC       ; [CPU_] |1994| 
    2460                      .dwpsn  file "C:/Users/wmj/Desktop/BM1000_v1.1/sw/modules/ctrl/src/32b/ctrl.h",line 1995,column 3,is_
    2461 00000246 D0C2          MOVB      XAR0,#194             ; [CPU_] |1995| 
    2462 00000247 065A          MOVL      ACC,*-SP[26]          ; [CPU_] |1995| 
    2463 00000248 1E91          MOVL      *+XAR1[AR0],ACC       ; [CPU_] |1995| 
    2464                      .dwpsn  file "C:/Users/wmj/Desktop/BM1000_v1.1/sw/modules/ctrl/src/32b/ctrl.h",line 1791,column 3,is_
    2465 00000249 D0BA          MOVB      XAR0,#186             ; [CPU_] |1791| 
    2466 0000024a 0200          MOVB      ACC,#0                ; [CPU_] |1791| 
    2467 0000024b 1E91          MOVL      *+XAR1[AR0],ACC       ; [CPU_] |1791| 
    2468                      .dwpsn  file "C:/Users/wmj/Desktop/BM1000_v1.1/sw/modules/ctrl/src/32b/ctrl.h",line 1739,column 3,is_
    2469 0000024c D0C4          MOVB      XAR0,#196             ; [CPU_] |1739| 
    2470 0000024d 9A00          MOV       AL,#0                 ; [CPU_] |1739| 
    2471 0000024e 9B00          MOV       AH,#0                 ; [CPU_] |1739| 
    2472 0000024f 1E91          MOVL      *+XAR1[AR0],ACC       ; [CPU_] |1739| 
    2473                      .dwpsn  file "C:/Users/wmj/Desktop/BM1000_v1.1/sw/modules/ctrl/src/32b/ctrl.h",line 1564,column 3,is_
    2474 00000250 D0C6          MOVB      XAR0,#198             ; [CPU_] |1564| 
    2475 00000251 1E91          MOVL      *+XAR1[AR0],ACC       ; [CPU_] |1564| 
    2476                      .dwpsn  file "C:/Users/wmj/Desktop/BM1000_v1.1/sw/modules/ctrl/src/32b/ctrl.h",line 1752,column 3,is_
    2477 00000252 D0C8          MOVB      XAR0,#200             ; [CPU_] |1752| 
    2478 00000253 1E91          MOVL      *+XAR1[AR0],ACC       ; [CPU_] |1752| 
    2479                      .dwpsn  file "C:/Users/wmj/Desktop/BM1000_v1.1/sw/modules/ctrl/src/32b/ctrl.h",line 1112,column 3,is_
    2480 00000254 D0EC          MOVB      XAR0,#236             ; [CPU_] |1112| 
    2481                      .dwpsn  file "C:/Users/wmj/Desktop/BM1000_v1.1/sw/modules/ctrl/src/32b/ctrl.h",line 1148,column 3,is_
    2482 00000255 0200          MOVB      ACC,#0                ; [CPU_] |1148| 
    2483                      .dwpsn  file "C:/Users/wmj/Desktop/BM1000_v1.1/sw/modules/ctrl/src/32b/ctrl.h",line 1112,column 3,is_
    2484 00000256 2B91          MOV       *+XAR1[AR0],#0        ; [CPU_] |1112| 
    2485                      .dwpsn  file "C:/Users/wmj/Desktop/BM1000_v1.1/sw/modules/ctrl/src/32b/ctrl.h",line 1124,column 3,is_
    2486 00000257 D0ED          MOVB      XAR0,#237             ; [CPU_] |1124| 
    2487 00000258 56BF          MOVB      *+XAR1[AR0],#1,UNC    ; [CPU_] |1124| 
         00000259 0191 
    2488                      .dwpsn  file "C:/Users/wmj/Desktop/BM1000_v1.1/sw/modules/ctrl/src/32b/ctrl.h",line 1136,column 3,is_
    2489 0000025a D0EE          MOVB      XAR0,#238             ; [CPU_] |1136| 
    2490 0000025b 2B91          MOV       *+XAR1[AR0],#0        ; [CPU_] |1136| 
    2491                      .dwpsn  file "C:/Users/wmj/Desktop/BM1000_v1.1/sw/modules/ctrl/src/32b/ctrl.h",line 1148,column 3,is_
    2492 0000025c D09A          MOVB      XAR0,#154             ; [CPU_] |1148| 
    2493 0000025d 1E91          MOVL      *+XAR1[AR0],ACC       ; [CPU_] |1148| 
    2494                      .dwpsn  file "C:/Users/wmj/Desktop/BM1000_v1.1/sw/modules/ctrl/src/32b/ctrl.h",line 1160,column 3,is_
    2495 0000025e D0EF          MOVB      XAR0,#239             ; [CPU_] |1160| 
    2496 0000025f 2B91          MOV       *+XAR1[AR0],#0        ; [CPU_] |1160| 
    2497 00000260 836A          MOVL      XAR5,*-SP[42]         ; [CPU_] |1160| 
    2498                      .dwpsn  file "C:/Users/wmj/Desktop/BM1000_v1.1/sw/modules/ctrl/src/32b/ctrl.c",line 364,column 3,is_s
    2499 00000261 8AA1          MOVL      XAR4,XAR1             ; [CPU_] |364| 
TMS320C2000 Assembler PC v15.12.3 Wed Nov 22 00:56:17 2017

Tools Copyright (c) 1996-2015 Texas Instruments Incorporated
C:\Users\wmj\AppData\Local\Temp\0070810                              PAGE   48

    2500 00000262 DD54          ADDB      XAR5,#84              ; [CPU_] |364| 
    2501              $C$DW$222       .dwtag  DW_TAG_TI_branch
    2502                      .dwattr $C$DW$222, DW_AT_low_pc(0x00)
    2503                      .dwattr $C$DW$222, DW_AT_name("_CTRL_setWaitTimes")
    2504                      .dwattr $C$DW$222, DW_AT_TI_call
    2505              
    2506 00000263 7640'         LCR       #_CTRL_setWaitTimes   ; [CPU_] |364| 
         00000264 00E5 
    2507                      ; call occurs [#_CTRL_setWaitTimes] ; [] |364| 
    2508                      .dwpsn  file "C:/Users/wmj/Desktop/BM1000_v1.1/sw/modules/ctrl/src/32b/ctrl.h",line 1299,column 3,is_
    2509 00000265 D0F2          MOVB      XAR0,#242             ; [CPU_] |1299| 
    2510 00000266 2B91          MOV       *+XAR1[AR0],#0        ; [CPU_] |1299| 
    2511                      .dwpsn  file "C:/Users/wmj/Desktop/BM1000_v1.1/sw/modules/ctrl/src/32b/ctrl.h",line 1255,column 3,is_
    2512 00000267 D0F0          MOVB      XAR0,#240             ; [CPU_] |1255| 
    2513 00000268 2B91          MOV       *+XAR1[AR0],#0        ; [CPU_] |1255| 
    2514                      .dwpsn  file "C:/Users/wmj/Desktop/BM1000_v1.1/sw/modules/ctrl/src/32b/ctrl.h",line 1312,column 3,is_
    2515 00000269 D0F3          MOVB      XAR0,#243             ; [CPU_] |1312| 
    2516 0000026a 56BF          MOVB      *+XAR1[AR0],#1,UNC    ; [CPU_] |1312| 
         0000026b 0191 
    2517                      .dwpsn  file "C:/Users/wmj/Desktop/BM1000_v1.1/sw/modules/ctrl/src/32b/ctrl.h",line 1325,column 3,is_
    2518 0000026c D0F4          MOVB      XAR0,#244             ; [CPU_] |1325| 
    2519 0000026d 56BF          MOVB      *+XAR1[AR0],#1,UNC    ; [CPU_] |1325| 
         0000026e 0191 
    2520                      .dwpsn  file "C:/Users/wmj/Desktop/BM1000_v1.1/sw/modules/ctrl/src/32b/ctrl.h",line 1341,column 3,is_
    2521 0000026f D0F5          MOVB      XAR0,#245             ; [CPU_] |1341| 
    2522 00000270 2B91          MOV       *+XAR1[AR0],#0        ; [CPU_] |1341| 
    2523                      .dwpsn  file "C:/Users/wmj/Desktop/BM1000_v1.1/sw/modules/ctrl/src/32b/ctrl.h",line 1283,column 3,is_
    2524 00000271 D0F1          MOVB      XAR0,#241             ; [CPU_] |1283| 
    2525 00000272 56BF          MOVB      *+XAR1[AR0],#1,UNC    ; [CPU_] |1283| 
         00000273 0191 
    2526                      .dwpsn  file "C:/Users/wmj/Desktop/BM1000_v1.1/sw/modules/ctrl/src/32b/ctrl.h",line 123,column 3,is_s
    2527 00000274 D0FC          MOVB      XAR0,#252             ; [CPU_] |123| 
    2528 00000275 2B91          MOV       *+XAR1[AR0],#0        ; [CPU_] |123| 
    2529                      .dwpsn  file "C:/Users/wmj/Desktop/BM1000_v1.1/sw/modules/ctrl/src/32b/ctrl.h",line 1268,column 3,is_
    2530 00000276 D0F6          MOVB      XAR0,#246             ; [CPU_] |1268| 
    2531 00000277 56BF          MOVB      *+XAR1[AR0],#1,UNC    ; [CPU_] |1268| 
         00000278 0191 
    2532                      .dwpsn  file "C:/Users/wmj/Desktop/BM1000_v1.1/sw/modules/ctrl/src/32b/ctrl.h",line 1230,column 3,is_
    2533 00000279 2BF1          MOV       *+XAR1[6],#0          ; [CPU_] |1230| 
    2534                      .dwpsn  file "C:/Users/wmj/Desktop/BM1000_v1.1/sw/modules/ctrl/src/32b/ctrl.h",line 1842,column 3,is_
    2535 0000027a 92E1          MOV       AL,*+XAR1[4]          ; [CPU_] |1842| 
    2536 0000027b 96E9          MOV       *+XAR1[5],AL          ; [CPU_] |1842| 
    2537                      .dwpsn  file "C:/Users/wmj/Desktop/BM1000_v1.1/sw/modules/ctrl/src/32b/ctrl.h",line 1843,column 3,is_
    2538 0000027c 56BF          MOVB      *+XAR1[4],#1,UNC      ; [CPU_] |1843| 
         0000027d 01E1 
    2539                      .dwpsn  file "C:/Users/wmj/Desktop/BM1000_v1.1/sw/modules/ctrl/src/32b/ctrl.c",line 389,column 3,is_s
    2540 0000027e 8A6A          MOVL      XAR4,*-SP[42]         ; [CPU_] |389| 
    2541 0000027f D00B          MOVB      XAR0,#11              ; [CPU_] |389| 
    2542 00000280 9294          MOV       AL,*+XAR4[AR0]        ; [CPU_] |389| 
    2543 00000281 8AA1          MOVL      XAR4,XAR1             ; [CPU_] |389| 
    2544              $C$DW$223       .dwtag  DW_TAG_TI_branch
    2545                      .dwattr $C$DW$223, DW_AT_low_pc(0x00)
    2546                      .dwattr $C$DW$223, DW_AT_name("_CTRL_setupClarke_I")
    2547                      .dwattr $C$DW$223, DW_AT_TI_call
    2548              
TMS320C2000 Assembler PC v15.12.3 Wed Nov 22 00:56:17 2017

Tools Copyright (c) 1996-2015 Texas Instruments Incorporated
C:\Users\wmj\AppData\Local\Temp\0070810                              PAGE   49

    2549 00000282 7640'         LCR       #_CTRL_setupClarke_I  ; [CPU_] |389| 
         00000283 00C9 
    2550                      ; call occurs [#_CTRL_setupClarke_I] ; [] |389| 
    2551                      .dwpsn  file "C:/Users/wmj/Desktop/BM1000_v1.1/sw/modules/ctrl/src/32b/ctrl.c",line 393,column 3,is_s
    2552 00000284 8A6A          MOVL      XAR4,*-SP[42]         ; [CPU_] |393| 
    2553 00000285 D00C          MOVB      XAR0,#12              ; [CPU_] |393| 
    2554 00000286 9294          MOV       AL,*+XAR4[AR0]        ; [CPU_] |393| 
    2555 00000287 8AA1          MOVL      XAR4,XAR1             ; [CPU_] |393| 
    2556              $C$DW$224       .dwtag  DW_TAG_TI_branch
    2557                      .dwattr $C$DW$224, DW_AT_low_pc(0x00)
    2558                      .dwattr $C$DW$224, DW_AT_name("_CTRL_setupClarke_V")
    2559                      .dwattr $C$DW$224, DW_AT_TI_call
    2560              
    2561 00000288 7640'         LCR       #_CTRL_setupClarke_V  ; [CPU_] |393| 
         00000289 00B3 
    2562                      ; call occurs [#_CTRL_setupClarke_V] ; [] |393| 
    2563                      .dwpsn  file "C:/Users/wmj/Desktop/BM1000_v1.1/sw/modules/ctrl/src/32b/ctrl.c",line 398,column 3,is_s
    2564 0000028a 28A8          MOV       AH,#15235             ; [CPU_] |398| 
         0000028b 3B83 
    2565 0000028c 8A6A          MOVL      XAR4,*-SP[42]         ; [CPU_] |398| 
    2566 0000028d 28A9          MOV       AL,#4719              ; [CPU_] |398| 
         0000028e 126F 
    2567 0000028f D0A6          MOVB      XAR0,#166             ; [CPU_] |398| 
    2568 00000290 1E42          MOVL      *-SP[2],ACC           ; [CPU_] |398| 
    2569 00000291 0694          MOVL      ACC,*+XAR4[AR0]       ; [CPU_] |398| 
    2570              $C$DW$225       .dwtag  DW_TAG_TI_branch
    2571                      .dwattr $C$DW$225, DW_AT_low_pc(0x00)
    2572                      .dwattr $C$DW$225, DW_AT_name("FS$$DIV")
    2573                      .dwattr $C$DW$225, DW_AT_TI_call
    2574              
    2575 00000292 7640!         LCR       #FS$$DIV              ; [CPU_] |398| 
         00000293 0000 
    2576                      ; call occurs [#FS$$DIV] ; [] |398| 
    2577 00000294 5CAD          MOVZ      AR4,SP                ; [CPU_] |398| 
    2578 00000295 DCA4          SUBB      XAR4,#36              ; [CPU_U] |398| 
    2579 00000296 88A4          MOVZ      AR6,AR4               ; [CPU_] |398| 
    2580              $C$DW$226       .dwtag  DW_TAG_TI_branch
    2581                      .dwattr $C$DW$226, DW_AT_low_pc(0x00)
    2582                      .dwattr $C$DW$226, DW_AT_name("FS$$TOFD")
    2583                      .dwattr $C$DW$226, DW_AT_TI_call
    2584              
    2585 00000297 7640!         LCR       #FS$$TOFD             ; [CPU_] |398| 
         00000298 0000 
    2586                      ; call occurs [#FS$$TOFD] ; [] |398| 
    2587 00000299 5DAD          MOVZ      AR5,SP                ; [CPU_] |398| 
    2588 0000029a 5CAD          MOVZ      AR4,SP                ; [CPU_] |398| 
    2589 0000029b DDA0          SUBB      XAR5,#32              ; [CPU_U] |398| 
    2590 0000029c DCA4          SUBB      XAR4,#36              ; [CPU_U] |398| 
    2591 0000029d 88A5          MOVZ      AR6,AR5               ; [CPU_] |398| 
    2592 0000029e 5CA4          MOVZ      AR4,AR4               ; [CPU_] |398| 
    2593 0000029f 8F40+         MOVL      XAR5,#$C$FL1          ; [CPU_U] |398| 
         000002a0 0000 
    2594              $C$DW$227       .dwtag  DW_TAG_TI_branch
    2595                      .dwattr $C$DW$227, DW_AT_low_pc(0x00)
    2596                      .dwattr $C$DW$227, DW_AT_name("FD$$MPY")
TMS320C2000 Assembler PC v15.12.3 Wed Nov 22 00:56:17 2017

Tools Copyright (c) 1996-2015 Texas Instruments Incorporated
C:\Users\wmj\AppData\Local\Temp\0070810                              PAGE   50

    2597                      .dwattr $C$DW$227, DW_AT_TI_call
    2598              
    2599 000002a1 7640!         LCR       #FD$$MPY              ; [CPU_] |398| 
         000002a2 0000 
    2600                      ; call occurs [#FD$$MPY] ; [] |398| 
    2601 000002a3 5CAD          MOVZ      AR4,SP                ; [CPU_] |398| 
    2602 000002a4 DCA0          SUBB      XAR4,#32              ; [CPU_U] |398| 
    2603 000002a5 5CA4          MOVZ      AR4,AR4               ; [CPU_] |398| 
    2604              $C$DW$228       .dwtag  DW_TAG_TI_branch
    2605                      .dwattr $C$DW$228, DW_AT_low_pc(0x00)
    2606                      .dwattr $C$DW$228, DW_AT_name("FD$$TOL")
    2607                      .dwattr $C$DW$228, DW_AT_TI_call
    2608              
    2609 000002a6 7640!         LCR       #FD$$TOL              ; [CPU_] |398| 
         000002a7 0000 
    2610                      ; call occurs [#FD$$TOL] ; [] |398| 
    2611                      .dwpsn  file "C:/Users/wmj/Desktop/BM1000_v1.1/sw/modules/pid/src/32b/pid.h",line 303,column 16,is_st
    2612 000002a8 D020          MOVB      XAR0,#32              ; [CPU_] |303| 
    2613 000002a9 8A91          MOVL      XAR4,*+XAR1[AR0]      ; [CPU_] |303| 
    2614                      .dwpsn  file "C:/Users/wmj/Desktop/BM1000_v1.1/sw/modules/pid/src/32b/pid.h",line 305,column 3,is_stm
    2615 000002aa 8F59          MOVL      XAR5,#1677721         ; [CPU_U] |305| 
         000002ab 9999 
    2616                      .dwpsn  file "C:/Users/wmj/Desktop/BM1000_v1.1/sw/modules/ctrl/src/32b/ctrl.c",line 398,column 3,is_s
    2617 000002ac 1EA6          MOVL      XAR6,ACC              ; [CPU_] |398| 
    2618                      .dwpsn  file "C:/Users/wmj/Desktop/BM1000_v1.1/sw/modules/pid/src/32b/pid.h",line 413,column 3,is_stm
    2619 000002ad D020          MOVB      XAR0,#32              ; [CPU_] |413| 
    2620                      .dwpsn  file "C:/Users/wmj/Desktop/BM1000_v1.1/sw/modules/pid/src/32b/pid.h",line 305,column 3,is_stm
    2621 000002ae A0C4          MOVL      *+XAR4[0],XAR5        ; [CPU_] |305| 
    2622                      .dwpsn  file "C:/Users/wmj/Desktop/BM1000_v1.1/sw/modules/pid/src/32b/pid.h",line 306,column 3,is_stm
    2623 000002af 1ED4          MOVL      *+XAR4[2],ACC         ; [CPU_] |306| 
    2624                      .dwpsn  file "C:/Users/wmj/Desktop/BM1000_v1.1/sw/modules/pid/src/32b/pid.h",line 307,column 3,is_stm
    2625 000002b0 0200          MOVB      ACC,#0                ; [CPU_] |307| 
    2626 000002b1 1EE4          MOVL      *+XAR4[4],ACC         ; [CPU_] |307| 
    2627                      .dwpsn  file "C:/Users/wmj/Desktop/BM1000_v1.1/sw/modules/pid/src/32b/pid.h",line 413,column 3,is_stm
    2628 000002b2 8A91          MOVL      XAR4,*+XAR1[AR0]      ; [CPU_] |413| 
    2629                      .dwpsn  file "C:/Users/wmj/Desktop/BM1000_v1.1/sw/modules/pid/src/32b/pid.h",line 358,column 16,is_st
    2630 000002b3 D020          MOVB      XAR0,#32              ; [CPU_] |358| 
    2631                      .dwpsn  file "C:/Users/wmj/Desktop/BM1000_v1.1/sw/modules/pid/src/32b/pid.h",line 413,column 3,is_stm
    2632 000002b4 1EF4          MOVL      *+XAR4[6],ACC         ; [CPU_] |413| 
    2633                      .dwpsn  file "C:/Users/wmj/Desktop/BM1000_v1.1/sw/modules/pid/src/32b/pid.h",line 360,column 3,is_stm
    2634 000002b5 28A9          MOV       AL,#52429             ; [CPU_] |360| 
         000002b6 CCCD 
    2635                      .dwpsn  file "C:/Users/wmj/Desktop/BM1000_v1.1/sw/modules/pid/src/32b/pid.h",line 358,column 16,is_st
    2636 000002b7 8A91          MOVL      XAR4,*+XAR1[AR0]      ; [CPU_] |358| 
    2637                      .dwpsn  file "C:/Users/wmj/Desktop/BM1000_v1.1/sw/modules/pid/src/32b/pid.h",line 360,column 3,is_stm
    2638 000002b8 28A8          MOV       AH,#65292             ; [CPU_] |360| 
         000002b9 FF0C 
    2639                      .dwpsn  file "C:/Users/wmj/Desktop/BM1000_v1.1/sw/modules/ctrl/src/32b/ctrl.c",line 406,column 3,is_s
    2640 000002ba D501          MOVB      XAR5,#1               ; [CPU_] |406| 
    2641                      .dwpsn  file "C:/Users/wmj/Desktop/BM1000_v1.1/sw/modules/pid/src/32b/pid.h",line 360,column 3,is_stm
    2642 000002bb D00C          MOVB      XAR0,#12              ; [CPU_] |360| 
    2643 000002bc 1E94          MOVL      *+XAR4[AR0],ACC       ; [CPU_] |360| 
    2644                      .dwpsn  file "C:/Users/wmj/Desktop/BM1000_v1.1/sw/modules/pid/src/32b/pid.h",line 361,column 3,is_stm
    2645 000002bd D00E          MOVB      XAR0,#14              ; [CPU_] |361| 
    2646 000002be 28A9          MOV       AL,#13107             ; [CPU_] |361| 
TMS320C2000 Assembler PC v15.12.3 Wed Nov 22 00:56:17 2017

Tools Copyright (c) 1996-2015 Texas Instruments Incorporated
C:\Users\wmj\AppData\Local\Temp\0070810                              PAGE   51

         000002bf 3333 
    2647 000002c0 9BF3          MOV       AH,#243               ; [CPU_] |361| 
    2648 000002c1 1E94          MOVL      *+XAR4[AR0],ACC       ; [CPU_] |361| 
    2649                      .dwpsn  file "C:/Users/wmj/Desktop/BM1000_v1.1/sw/modules/ctrl/src/32b/ctrl.c",line 406,column 3,is_s
    2650 000002c2 0200          MOVB      ACC,#0                ; [CPU_] |406| 
    2651 000002c3 8AA1          MOVL      XAR4,XAR1             ; [CPU_] |406| 
    2652 000002c4 C242          MOVL      *-SP[2],XAR6          ; [CPU_] |406| 
    2653 000002c5 7699          MOVL      XAR6,#1677721         ; [CPU_U] |406| 
         000002c6 9999 
    2654 000002c7 1E44          MOVL      *-SP[4],ACC           ; [CPU_] |406| 
    2655 000002c8 06A6          MOVL      ACC,XAR6              ; [CPU_] |406| 
    2656              $C$DW$229       .dwtag  DW_TAG_TI_branch
    2657                      .dwattr $C$DW$229, DW_AT_low_pc(0x00)
    2658                      .dwattr $C$DW$229, DW_AT_name("_CTRL_setGains")
    2659                      .dwattr $C$DW$229, DW_AT_TI_call
    2660              
    2661 000002c9 7640'         LCR       #_CTRL_setGains       ; [CPU_] |406| 
         000002ca 0111 
    2662                      ; call occurs [#_CTRL_setGains] ; [] |406| 
    2663                      .dwpsn  file "C:/Users/wmj/Desktop/BM1000_v1.1/sw/modules/ctrl/src/32b/ctrl.c",line 411,column 3,is_s
    2664 000002cb 28A9          MOV       AL,#4719              ; [CPU_] |411| 
         000002cc 126F 
    2665 000002cd 8A6A          MOVL      XAR4,*-SP[42]         ; [CPU_] |411| 
    2666 000002ce 28A8          MOV       AH,#15235             ; [CPU_] |411| 
         000002cf 3B83 
    2667 000002d0 D0A6          MOVB      XAR0,#166             ; [CPU_] |411| 
    2668 000002d1 1E42          MOVL      *-SP[2],ACC           ; [CPU_] |411| 
    2669 000002d2 0694          MOVL      ACC,*+XAR4[AR0]       ; [CPU_] |411| 
    2670              $C$DW$230       .dwtag  DW_TAG_TI_branch
    2671                      .dwattr $C$DW$230, DW_AT_low_pc(0x00)
    2672                      .dwattr $C$DW$230, DW_AT_name("FS$$DIV")
    2673                      .dwattr $C$DW$230, DW_AT_TI_call
    2674              
    2675 000002d3 7640!         LCR       #FS$$DIV              ; [CPU_] |411| 
         000002d4 0000 
    2676                      ; call occurs [#FS$$DIV] ; [] |411| 
    2677 000002d5 5CAD          MOVZ      AR4,SP                ; [CPU_] |411| 
    2678 000002d6 DCA4          SUBB      XAR4,#36              ; [CPU_U] |411| 
    2679 000002d7 88A4          MOVZ      AR6,AR4               ; [CPU_] |411| 
    2680              $C$DW$231       .dwtag  DW_TAG_TI_branch
    2681                      .dwattr $C$DW$231, DW_AT_low_pc(0x00)
    2682                      .dwattr $C$DW$231, DW_AT_name("FS$$TOFD")
    2683                      .dwattr $C$DW$231, DW_AT_TI_call
    2684              
    2685 000002d8 7640!         LCR       #FS$$TOFD             ; [CPU_] |411| 
         000002d9 0000 
    2686                      ; call occurs [#FS$$TOFD] ; [] |411| 
    2687 000002da 5DAD          MOVZ      AR5,SP                ; [CPU_] |411| 
    2688 000002db 5CAD          MOVZ      AR4,SP                ; [CPU_] |411| 
    2689 000002dc DDA0          SUBB      XAR5,#32              ; [CPU_U] |411| 
    2690 000002dd DCA4          SUBB      XAR4,#36              ; [CPU_U] |411| 
    2691 000002de 88A5          MOVZ      AR6,AR5               ; [CPU_] |411| 
    2692 000002df 5CA4          MOVZ      AR4,AR4               ; [CPU_] |411| 
    2693 000002e0 8F40+         MOVL      XAR5,#$C$FL1          ; [CPU_U] |411| 
         000002e1 0000 
TMS320C2000 Assembler PC v15.12.3 Wed Nov 22 00:56:17 2017

Tools Copyright (c) 1996-2015 Texas Instruments Incorporated
C:\Users\wmj\AppData\Local\Temp\0070810                              PAGE   52

    2694              $C$DW$232       .dwtag  DW_TAG_TI_branch
    2695                      .dwattr $C$DW$232, DW_AT_low_pc(0x00)
    2696                      .dwattr $C$DW$232, DW_AT_name("FD$$MPY")
    2697                      .dwattr $C$DW$232, DW_AT_TI_call
    2698              
    2699 000002e2 7640!         LCR       #FD$$MPY              ; [CPU_] |411| 
         000002e3 0000 
    2700                      ; call occurs [#FD$$MPY] ; [] |411| 
    2701 000002e4 5CAD          MOVZ      AR4,SP                ; [CPU_] |411| 
    2702 000002e5 DCA0          SUBB      XAR4,#32              ; [CPU_U] |411| 
    2703 000002e6 5CA4          MOVZ      AR4,AR4               ; [CPU_] |411| 
    2704              $C$DW$233       .dwtag  DW_TAG_TI_branch
    2705                      .dwattr $C$DW$233, DW_AT_low_pc(0x00)
    2706                      .dwattr $C$DW$233, DW_AT_name("FD$$TOL")
    2707                      .dwattr $C$DW$233, DW_AT_TI_call
    2708              
    2709 000002e7 7640!         LCR       #FD$$TOL              ; [CPU_] |411| 
         000002e8 0000 
    2710                      ; call occurs [#FD$$TOL] ; [] |411| 
    2711                      .dwpsn  file "C:/Users/wmj/Desktop/BM1000_v1.1/sw/modules/pid/src/32b/pid.h",line 303,column 16,is_st
    2712 000002e9 D032          MOVB      XAR0,#50              ; [CPU_] |303| 
    2713 000002ea 8A91          MOVL      XAR4,*+XAR1[AR0]      ; [CPU_] |303| 
    2714                      .dwpsn  file "C:/Users/wmj/Desktop/BM1000_v1.1/sw/modules/pid/src/32b/pid.h",line 305,column 3,is_stm
    2715 000002eb 8F59          MOVL      XAR5,#1677721         ; [CPU_U] |305| 
         000002ec 9999 
    2716                      .dwpsn  file "C:/Users/wmj/Desktop/BM1000_v1.1/sw/modules/ctrl/src/32b/ctrl.c",line 411,column 3,is_s
    2717 000002ed 1EA6          MOVL      XAR6,ACC              ; [CPU_] |411| 
    2718                      .dwpsn  file "C:/Users/wmj/Desktop/BM1000_v1.1/sw/modules/pid/src/32b/pid.h",line 413,column 3,is_stm
    2719 000002ee D032          MOVB      XAR0,#50              ; [CPU_] |413| 
    2720                      .dwpsn  file "C:/Users/wmj/Desktop/BM1000_v1.1/sw/modules/pid/src/32b/pid.h",line 305,column 3,is_stm
    2721 000002ef A0C4          MOVL      *+XAR4[0],XAR5        ; [CPU_] |305| 
    2722                      .dwpsn  file "C:/Users/wmj/Desktop/BM1000_v1.1/sw/modules/pid/src/32b/pid.h",line 306,column 3,is_stm
    2723 000002f0 1ED4          MOVL      *+XAR4[2],ACC         ; [CPU_] |306| 
    2724                      .dwpsn  file "C:/Users/wmj/Desktop/BM1000_v1.1/sw/modules/pid/src/32b/pid.h",line 307,column 3,is_stm
    2725 000002f1 0200          MOVB      ACC,#0                ; [CPU_] |307| 
    2726 000002f2 1EE4          MOVL      *+XAR4[4],ACC         ; [CPU_] |307| 
    2727                      .dwpsn  file "C:/Users/wmj/Desktop/BM1000_v1.1/sw/modules/pid/src/32b/pid.h",line 413,column 3,is_stm
    2728 000002f3 8A91          MOVL      XAR4,*+XAR1[AR0]      ; [CPU_] |413| 
    2729                      .dwpsn  file "C:/Users/wmj/Desktop/BM1000_v1.1/sw/modules/pid/src/32b/pid.h",line 358,column 16,is_st
    2730 000002f4 D032          MOVB      XAR0,#50              ; [CPU_] |358| 
    2731                      .dwpsn  file "C:/Users/wmj/Desktop/BM1000_v1.1/sw/modules/pid/src/32b/pid.h",line 413,column 3,is_stm
    2732 000002f5 1EF4          MOVL      *+XAR4[6],ACC         ; [CPU_] |413| 
    2733                      .dwpsn  file "C:/Users/wmj/Desktop/BM1000_v1.1/sw/modules/pid/src/32b/pid.h",line 360,column 3,is_stm
    2734 000002f6 28A9          MOV       AL,#52429             ; [CPU_] |360| 
         000002f7 CCCD 
    2735                      .dwpsn  file "C:/Users/wmj/Desktop/BM1000_v1.1/sw/modules/pid/src/32b/pid.h",line 358,column 16,is_st
    2736 000002f8 8A91          MOVL      XAR4,*+XAR1[AR0]      ; [CPU_] |358| 
    2737                      .dwpsn  file "C:/Users/wmj/Desktop/BM1000_v1.1/sw/modules/pid/src/32b/pid.h",line 360,column 3,is_stm
    2738 000002f9 28A8          MOV       AH,#65292             ; [CPU_] |360| 
         000002fa FF0C 
    2739                      .dwpsn  file "C:/Users/wmj/Desktop/BM1000_v1.1/sw/modules/ctrl/src/32b/ctrl.c",line 419,column 3,is_s
    2740 000002fb D502          MOVB      XAR5,#2               ; [CPU_] |419| 
    2741                      .dwpsn  file "C:/Users/wmj/Desktop/BM1000_v1.1/sw/modules/pid/src/32b/pid.h",line 360,column 3,is_stm
    2742 000002fc D00C          MOVB      XAR0,#12              ; [CPU_] |360| 
    2743 000002fd 1E94          MOVL      *+XAR4[AR0],ACC       ; [CPU_] |360| 
TMS320C2000 Assembler PC v15.12.3 Wed Nov 22 00:56:17 2017

Tools Copyright (c) 1996-2015 Texas Instruments Incorporated
C:\Users\wmj\AppData\Local\Temp\0070810                              PAGE   53

    2744                      .dwpsn  file "C:/Users/wmj/Desktop/BM1000_v1.1/sw/modules/pid/src/32b/pid.h",line 361,column 3,is_stm
    2745 000002fe D00E          MOVB      XAR0,#14              ; [CPU_] |361| 
    2746 000002ff 28A9          MOV       AL,#13107             ; [CPU_] |361| 
         00000300 3333 
    2747 00000301 9BF3          MOV       AH,#243               ; [CPU_] |361| 
    2748 00000302 1E94          MOVL      *+XAR4[AR0],ACC       ; [CPU_] |361| 
    2749                      .dwpsn  file "C:/Users/wmj/Desktop/BM1000_v1.1/sw/modules/ctrl/src/32b/ctrl.c",line 419,column 3,is_s
    2750 00000303 0200          MOVB      ACC,#0                ; [CPU_] |419| 
    2751 00000304 8AA1          MOVL      XAR4,XAR1             ; [CPU_] |419| 
    2752 00000305 C242          MOVL      *-SP[2],XAR6          ; [CPU_] |419| 
    2753 00000306 7699          MOVL      XAR6,#1677721         ; [CPU_U] |419| 
         00000307 9999 
    2754 00000308 1E44          MOVL      *-SP[4],ACC           ; [CPU_] |419| 
    2755 00000309 06A6          MOVL      ACC,XAR6              ; [CPU_] |419| 
    2756              $C$DW$234       .dwtag  DW_TAG_TI_branch
    2757                      .dwattr $C$DW$234, DW_AT_low_pc(0x00)
    2758                      .dwattr $C$DW$234, DW_AT_name("_CTRL_setGains")
    2759                      .dwattr $C$DW$234, DW_AT_TI_call
    2760              
    2761 0000030a 7640'         LCR       #_CTRL_setGains       ; [CPU_] |419| 
         0000030b 0111 
    2762                      ; call occurs [#_CTRL_setGains] ; [] |419| 
    2763 0000030c 8A6A          MOVL      XAR4,*-SP[42]         ; [CPU_] |419| 
    2764                      .dwpsn  file "C:/Users/wmj/Desktop/BM1000_v1.1/sw/modules/ctrl/src/32b/ctrl.c",line 423,column 3,is_s
    2765 0000030d D040          MOVB      XAR0,#64              ; [CPU_] |423| 
    2766 0000030e 06C4          MOVL      ACC,*+XAR4[0]         ; [CPU_] |423| 
    2767 0000030f 1E66          MOVL      *-SP[38],ACC          ; [CPU_] |423| 
    2768 00000310 28A9          MOV       AL,#55050             ; [CPU_] |423| 
         00000311 D70A 
    2769 00000312 8294          MOVL      XAR3,*+XAR4[AR0]      ; [CPU_] |423| 
    2770 00000313 28A8          MOV       AH,#15523             ; [CPU_] |423| 
         00000314 3CA3 
    2771 00000315 86E4          MOVL      XAR2,*+XAR4[4]        ; [CPU_] |423| 
    2772 00000316 1E42          MOVL      *-SP[2],ACC           ; [CPU_] |423| 
    2773 00000317 A2A9          MOVL      ACC,XAR3              ; [CPU_] |423| 
    2774              $C$DW$235       .dwtag  DW_TAG_TI_branch
    2775                      .dwattr $C$DW$235, DW_AT_low_pc(0x00)
    2776                      .dwattr $C$DW$235, DW_AT_name("FS$$MPY")
    2777                      .dwattr $C$DW$235, DW_AT_TI_call
    2778              
    2779 00000318 7640!         LCR       #FS$$MPY              ; [CPU_] |423| 
         00000319 0000 
    2780                      ; call occurs [#FS$$MPY] ; [] |423| 
    2781 0000031a AA42          MOVL      *-SP[2],XAR2          ; [CPU_] |423| 
    2782              $C$DW$236       .dwtag  DW_TAG_TI_branch
    2783                      .dwattr $C$DW$236, DW_AT_low_pc(0x00)
    2784                      .dwattr $C$DW$236, DW_AT_name("FS$$MPY")
    2785                      .dwattr $C$DW$236, DW_AT_TI_call
    2786              
    2787 0000031b 7640!         LCR       #FS$$MPY              ; [CPU_] |423| 
         0000031c 0000 
    2788                      ; call occurs [#FS$$MPY] ; [] |423| 
    2789 0000031d C466          MOVL      XAR6,*-SP[38]         ; [CPU_] |423| 
    2790 0000031e C242          MOVL      *-SP[2],XAR6          ; [CPU_] |423| 
    2791              $C$DW$237       .dwtag  DW_TAG_TI_branch
TMS320C2000 Assembler PC v15.12.3 Wed Nov 22 00:56:17 2017

Tools Copyright (c) 1996-2015 Texas Instruments Incorporated
C:\Users\wmj\AppData\Local\Temp\0070810                              PAGE   54

    2792                      .dwattr $C$DW$237, DW_AT_low_pc(0x00)
    2793                      .dwattr $C$DW$237, DW_AT_name("FS$$DIV")
    2794                      .dwattr $C$DW$237, DW_AT_TI_call
    2795              
    2796 0000031f 7640!         LCR       #FS$$DIV              ; [CPU_] |423| 
         00000320 0000 
    2797                      ; call occurs [#FS$$DIV] ; [] |423| 
    2798 00000321 5CAD          MOVZ      AR4,SP                ; [CPU_] |423| 
    2799 00000322 DCA4          SUBB      XAR4,#36              ; [CPU_U] |423| 
    2800 00000323 88A4          MOVZ      AR6,AR4               ; [CPU_] |423| 
    2801              $C$DW$238       .dwtag  DW_TAG_TI_branch
    2802                      .dwattr $C$DW$238, DW_AT_low_pc(0x00)
    2803                      .dwattr $C$DW$238, DW_AT_name("FS$$TOFD")
    2804                      .dwattr $C$DW$238, DW_AT_TI_call
    2805              
    2806 00000324 7640!         LCR       #FS$$TOFD             ; [CPU_] |423| 
         00000325 0000 
    2807                      ; call occurs [#FS$$TOFD] ; [] |423| 
    2808 00000326 5DAD          MOVZ      AR5,SP                ; [CPU_] |423| 
    2809 00000327 5CAD          MOVZ      AR4,SP                ; [CPU_] |423| 
    2810 00000328 DDA0          SUBB      XAR5,#32              ; [CPU_U] |423| 
    2811 00000329 DCA4          SUBB      XAR4,#36              ; [CPU_U] |423| 
    2812 0000032a 88A5          MOVZ      AR6,AR5               ; [CPU_] |423| 
    2813 0000032b 5CA4          MOVZ      AR4,AR4               ; [CPU_] |423| 
    2814 0000032c 8F40+         MOVL      XAR5,#$C$FL1          ; [CPU_U] |423| 
         0000032d 0000 
    2815              $C$DW$239       .dwtag  DW_TAG_TI_branch
    2816                      .dwattr $C$DW$239, DW_AT_low_pc(0x00)
    2817                      .dwattr $C$DW$239, DW_AT_name("FD$$MPY")
    2818                      .dwattr $C$DW$239, DW_AT_TI_call
    2819              
    2820 0000032e 7640!         LCR       #FD$$MPY              ; [CPU_] |423| 
         0000032f 0000 
    2821                      ; call occurs [#FD$$MPY] ; [] |423| 
    2822 00000330 5CAD          MOVZ      AR4,SP                ; [CPU_] |423| 
    2823 00000331 DCA0          SUBB      XAR4,#32              ; [CPU_U] |423| 
    2824 00000332 5CA4          MOVZ      AR4,AR4               ; [CPU_] |423| 
    2825              $C$DW$240       .dwtag  DW_TAG_TI_branch
    2826                      .dwattr $C$DW$240, DW_AT_low_pc(0x00)
    2827                      .dwattr $C$DW$240, DW_AT_name("FD$$TOL")
    2828                      .dwattr $C$DW$240, DW_AT_TI_call
    2829              
    2830 00000333 7640!         LCR       #FD$$TOL              ; [CPU_] |423| 
         00000334 0000 
    2831                      ; call occurs [#FD$$TOL] ; [] |423| 
    2832 00000335 1E68          MOVL      *-SP[40],ACC          ; [CPU_] |423| 
    2833                      .dwpsn  file "C:/Users/wmj/Desktop/BM1000_v1.1/sw/modules/ctrl/src/32b/ctrl.c",line 424,column 3,is_s
    2834 00000336 A242          MOVL      *-SP[2],XAR3          ; [CPU_] |424| 
    2835 00000337 A2A9          MOVL      ACC,XAR3              ; [CPU_] |424| 
    2836              $C$DW$241       .dwtag  DW_TAG_TI_branch
    2837                      .dwattr $C$DW$241, DW_AT_low_pc(0x00)
    2838                      .dwattr $C$DW$241, DW_AT_name("FS$$ADD")
    2839                      .dwattr $C$DW$241, DW_AT_TI_call
    2840              
    2841 00000338 7640!         LCR       #FS$$ADD              ; [CPU_] |424| 
TMS320C2000 Assembler PC v15.12.3 Wed Nov 22 00:56:17 2017

Tools Copyright (c) 1996-2015 Texas Instruments Incorporated
C:\Users\wmj\AppData\Local\Temp\0070810                              PAGE   55

         00000339 0000 
    2842                      ; call occurs [#FS$$ADD] ; [] |424| 
    2843 0000033a AA42          MOVL      *-SP[2],XAR2          ; [CPU_] |424| 
    2844              $C$DW$242       .dwtag  DW_TAG_TI_branch
    2845                      .dwattr $C$DW$242, DW_AT_low_pc(0x00)
    2846                      .dwattr $C$DW$242, DW_AT_name("FS$$MPY")
    2847                      .dwattr $C$DW$242, DW_AT_TI_call
    2848              
    2849 0000033b 7640!         LCR       #FS$$MPY              ; [CPU_] |424| 
         0000033c 0000 
    2850                      ; call occurs [#FS$$MPY] ; [] |424| 
    2851 0000033d 8A6A          MOVL      XAR4,*-SP[42]         ; [CPU_] |424| 
    2852 0000033e D0A6          MOVB      XAR0,#166             ; [CPU_] |424| 
    2853 0000033f C494          MOVL      XAR6,*+XAR4[AR0]      ; [CPU_] |424| 
    2854 00000340 C242          MOVL      *-SP[2],XAR6          ; [CPU_] |424| 
    2855              $C$DW$243       .dwtag  DW_TAG_TI_branch
    2856                      .dwattr $C$DW$243, DW_AT_low_pc(0x00)
    2857                      .dwattr $C$DW$243, DW_AT_name("FS$$MPY")
    2858                      .dwattr $C$DW$243, DW_AT_TI_call
    2859              
    2860 00000341 7640!         LCR       #FS$$MPY              ; [CPU_] |424| 
         00000342 0000 
    2861                      ; call occurs [#FS$$MPY] ; [] |424| 
    2862 00000343 C466          MOVL      XAR6,*-SP[38]         ; [CPU_] |424| 
    2863 00000344 C242          MOVL      *-SP[2],XAR6          ; [CPU_] |424| 
    2864              $C$DW$244       .dwtag  DW_TAG_TI_branch
    2865                      .dwattr $C$DW$244, DW_AT_low_pc(0x00)
    2866                      .dwattr $C$DW$244, DW_AT_name("FS$$DIV")
    2867                      .dwattr $C$DW$244, DW_AT_TI_call
    2868              
    2869 00000345 7640!         LCR       #FS$$DIV              ; [CPU_] |424| 
         00000346 0000 
    2870                      ; call occurs [#FS$$DIV] ; [] |424| 
    2871 00000347 5CAD          MOVZ      AR4,SP                ; [CPU_] |424| 
    2872 00000348 DCA4          SUBB      XAR4,#36              ; [CPU_U] |424| 
    2873 00000349 88A4          MOVZ      AR6,AR4               ; [CPU_] |424| 
    2874              $C$DW$245       .dwtag  DW_TAG_TI_branch
    2875                      .dwattr $C$DW$245, DW_AT_low_pc(0x00)
    2876                      .dwattr $C$DW$245, DW_AT_name("FS$$TOFD")
    2877                      .dwattr $C$DW$245, DW_AT_TI_call
    2878              
    2879 0000034a 7640!         LCR       #FS$$TOFD             ; [CPU_] |424| 
         0000034b 0000 
    2880                      ; call occurs [#FS$$TOFD] ; [] |424| 
    2881 0000034c 5DAD          MOVZ      AR5,SP                ; [CPU_] |424| 
    2882 0000034d 5CAD          MOVZ      AR4,SP                ; [CPU_] |424| 
    2883 0000034e DDA0          SUBB      XAR5,#32              ; [CPU_U] |424| 
    2884 0000034f DCA4          SUBB      XAR4,#36              ; [CPU_U] |424| 
    2885 00000350 88A5          MOVZ      AR6,AR5               ; [CPU_] |424| 
    2886 00000351 5CA4          MOVZ      AR4,AR4               ; [CPU_] |424| 
    2887 00000352 8F40+         MOVL      XAR5,#$C$FL1          ; [CPU_U] |424| 
         00000353 0000 
    2888              $C$DW$246       .dwtag  DW_TAG_TI_branch
    2889                      .dwattr $C$DW$246, DW_AT_low_pc(0x00)
    2890                      .dwattr $C$DW$246, DW_AT_name("FD$$MPY")
TMS320C2000 Assembler PC v15.12.3 Wed Nov 22 00:56:17 2017

Tools Copyright (c) 1996-2015 Texas Instruments Incorporated
C:\Users\wmj\AppData\Local\Temp\0070810                              PAGE   56

    2891                      .dwattr $C$DW$246, DW_AT_TI_call
    2892              
    2893 00000354 7640!         LCR       #FD$$MPY              ; [CPU_] |424| 
         00000355 0000 
    2894                      ; call occurs [#FD$$MPY] ; [] |424| 
    2895 00000356 5CAD          MOVZ      AR4,SP                ; [CPU_] |424| 
    2896 00000357 DCA0          SUBB      XAR4,#32              ; [CPU_U] |424| 
    2897 00000358 5CA4          MOVZ      AR4,AR4               ; [CPU_] |424| 
    2898              $C$DW$247       .dwtag  DW_TAG_TI_branch
    2899                      .dwattr $C$DW$247, DW_AT_low_pc(0x00)
    2900                      .dwattr $C$DW$247, DW_AT_name("FD$$TOL")
    2901                      .dwattr $C$DW$247, DW_AT_TI_call
    2902              
    2903 00000359 7640!         LCR       #FD$$TOL              ; [CPU_] |424| 
         0000035a 0000 
    2904                      ; call occurs [#FD$$TOL] ; [] |424| 
    2905                      .dwpsn  file "C:/Users/wmj/Desktop/BM1000_v1.1/sw/modules/pid/src/32b/pid.h",line 303,column 16,is_st
    2906 0000035b D044          MOVB      XAR0,#68              ; [CPU_] |303| 
    2907 0000035c 8A91          MOVL      XAR4,*+XAR1[AR0]      ; [CPU_] |303| 
    2908                      .dwpsn  file "C:/Users/wmj/Desktop/BM1000_v1.1/sw/modules/ctrl/src/32b/ctrl.c",line 424,column 3,is_s
    2909 0000035d 1EA6          MOVL      XAR6,ACC              ; [CPU_] |424| 
    2910                      .dwpsn  file "C:/Users/wmj/Desktop/BM1000_v1.1/sw/modules/pid/src/32b/pid.h",line 303,column 16,is_st
    2911 0000035e 0668          MOVL      ACC,*-SP[40]          ; [CPU_] |303| 
    2912                      .dwpsn  file "C:/Users/wmj/Desktop/BM1000_v1.1/sw/modules/pid/src/32b/pid.h",line 413,column 3,is_stm
    2913 0000035f D044          MOVB      XAR0,#68              ; [CPU_] |413| 
    2914                      .dwpsn  file "C:/Users/wmj/Desktop/BM1000_v1.1/sw/modules/pid/src/32b/pid.h",line 305,column 3,is_stm
    2915 00000360 1EC4          MOVL      *+XAR4[0],ACC         ; [CPU_] |305| 
    2916                      .dwpsn  file "C:/Users/wmj/Desktop/BM1000_v1.1/sw/modules/pid/src/32b/pid.h",line 307,column 3,is_stm
    2917 00000361 0200          MOVB      ACC,#0                ; [CPU_] |307| 
    2918                      .dwpsn  file "C:/Users/wmj/Desktop/BM1000_v1.1/sw/modules/pid/src/32b/pid.h",line 306,column 3,is_stm
    2919 00000362 C2D4          MOVL      *+XAR4[2],XAR6        ; [CPU_] |306| 
    2920                      .dwpsn  file "C:/Users/wmj/Desktop/BM1000_v1.1/sw/modules/pid/src/32b/pid.h",line 307,column 3,is_stm
    2921 00000363 1EE4          MOVL      *+XAR4[4],ACC         ; [CPU_] |307| 
    2922                      .dwpsn  file "C:/Users/wmj/Desktop/BM1000_v1.1/sw/modules/pid/src/32b/pid.h",line 413,column 3,is_stm
    2923 00000364 8A91          MOVL      XAR4,*+XAR1[AR0]      ; [CPU_] |413| 
    2924 00000365 3B01          SETC      SXM                   ; [CPU_] 
    2925                      .dwpsn  file "C:/Users/wmj/Desktop/BM1000_v1.1/sw/modules/pid/src/32b/pid.h",line 358,column 16,is_st
    2926 00000366 D044          MOVB      XAR0,#68              ; [CPU_] |358| 
    2927                      .dwpsn  file "C:/Users/wmj/Desktop/BM1000_v1.1/sw/modules/pid/src/32b/pid.h",line 413,column 3,is_stm
    2928 00000367 1EF4          MOVL      *+XAR4[6],ACC         ; [CPU_] |413| 
    2929                      .dwpsn  file "C:/Users/wmj/Desktop/BM1000_v1.1/sw/modules/pid/src/32b/pid.h",line 358,column 16,is_st
    2930 00000368 8A91          MOVL      XAR4,*+XAR1[AR0]      ; [CPU_] |358| 
    2931                      .dwpsn  file "C:/Users/wmj/Desktop/BM1000_v1.1/sw/modules/pid/src/32b/pid.h",line 360,column 3,is_stm
    2932 00000369 FF2F          MOV       ACC,#-512 << 15       ; [CPU_] |360| 
         0000036a FE00 
    2933                      .dwpsn  file "C:/Users/wmj/Desktop/BM1000_v1.1/sw/modules/ctrl/src/32b/ctrl.c",line 432,column 3,is_s
    2934 0000036b D500          MOVB      XAR5,#0               ; [CPU_] |432| 
    2935                      .dwpsn  file "C:/Users/wmj/Desktop/BM1000_v1.1/sw/modules/pid/src/32b/pid.h",line 360,column 3,is_stm
    2936 0000036c D00C          MOVB      XAR0,#12              ; [CPU_] |360| 
    2937 0000036d 1E94          MOVL      *+XAR4[AR0],ACC       ; [CPU_] |360| 
    2938                      .dwpsn  file "C:/Users/wmj/Desktop/BM1000_v1.1/sw/modules/pid/src/32b/pid.h",line 361,column 3,is_stm
    2939 0000036e D00E          MOVB      XAR0,#14              ; [CPU_] |361| 
    2940 0000036f FF2F          MOV       ACC,#512 << 15        ; [CPU_] |361| 
         00000370 0200 
    2941 00000371 1E94          MOVL      *+XAR4[AR0],ACC       ; [CPU_] |361| 
TMS320C2000 Assembler PC v15.12.3 Wed Nov 22 00:56:17 2017

Tools Copyright (c) 1996-2015 Texas Instruments Incorporated
C:\Users\wmj\AppData\Local\Temp\0070810                              PAGE   57

    2942                      .dwpsn  file "C:/Users/wmj/Desktop/BM1000_v1.1/sw/modules/ctrl/src/32b/ctrl.c",line 432,column 3,is_s
    2943 00000372 0200          MOVB      ACC,#0                ; [CPU_] |432| 
    2944 00000373 8AA1          MOVL      XAR4,XAR1             ; [CPU_] |432| 
    2945 00000374 C242          MOVL      *-SP[2],XAR6          ; [CPU_] |432| 
    2946 00000375 1E44          MOVL      *-SP[4],ACC           ; [CPU_] |432| 
    2947 00000376 0668          MOVL      ACC,*-SP[40]          ; [CPU_] |432| 
    2948              $C$DW$248       .dwtag  DW_TAG_TI_branch
    2949                      .dwattr $C$DW$248, DW_AT_low_pc(0x00)
    2950                      .dwattr $C$DW$248, DW_AT_name("_CTRL_setGains")
    2951                      .dwattr $C$DW$248, DW_AT_TI_call
    2952              
    2953 00000377 7640'         LCR       #_CTRL_setGains       ; [CPU_] |432| 
         00000378 0111 
    2954                      ; call occurs [#_CTRL_setGains] ; [] |432| 
    2955                      .dwpsn  file "C:/Users/wmj/Desktop/BM1000_v1.1/sw/modules/ctrl/src/32b/ctrl.c",line 436,column 3,is_s
    2956 00000379 0200          MOVB      ACC,#0                ; [CPU_] |436| 
    2957              $C$DW$249       .dwtag  DW_TAG_TI_branch
    2958                      .dwattr $C$DW$249, DW_AT_low_pc(0x00)
    2959                      .dwattr $C$DW$249, DW_AT_name("_CTRL_setSpd_ref_pu")
    2960                      .dwattr $C$DW$249, DW_AT_TI_call
    2961              
    2962 0000037a 7640'         LCR       #_CTRL_setSpd_ref_pu  ; [CPU_] |436| 
         0000037b 00EE 
    2963                      ; call occurs [#_CTRL_setSpd_ref_pu] ; [] |436| 
    2964                      .dwpsn  file "C:/Users/wmj/Desktop/BM1000_v1.1/sw/modules/traj/src/32b/traj.h",line 158,column 3,is_s
    2965 0000037c D060          MOVB      XAR0,#96              ; [CPU_] |158| 
    2966 0000037d 8A91          MOVL      XAR4,*+XAR1[AR0]      ; [CPU_] |158| 
    2967                      .dwpsn  file "C:/Users/wmj/Desktop/BM1000_v1.1/sw/modules/traj/src/32b/traj.h",line 210,column 3,is_s
    2968 0000037e D060          MOVB      XAR0,#96              ; [CPU_] |210| 
    2969                      .dwpsn  file "C:/Users/wmj/Desktop/BM1000_v1.1/sw/modules/traj/src/32b/traj.h",line 158,column 3,is_s
    2970 0000037f 1ED4          MOVL      *+XAR4[2],ACC         ; [CPU_] |158| 
    2971                      .dwpsn  file "C:/Users/wmj/Desktop/BM1000_v1.1/sw/modules/traj/src/32b/traj.h",line 210,column 3,is_s
    2972 00000380 8A91          MOVL      XAR4,*+XAR1[AR0]      ; [CPU_] |210| 
    2973                      .dwpsn  file "C:/Users/wmj/Desktop/BM1000_v1.1/sw/modules/traj/src/32b/traj.h",line 197,column 3,is_s
    2974 00000381 D060          MOVB      XAR0,#96              ; [CPU_] |197| 
    2975                      .dwpsn  file "C:/Users/wmj/Desktop/BM1000_v1.1/sw/modules/traj/src/32b/traj.h",line 210,column 3,is_s
    2976 00000382 1EC4          MOVL      *+XAR4[0],ACC         ; [CPU_] |210| 
    2977                      .dwpsn  file "C:/Users/wmj/Desktop/BM1000_v1.1/sw/modules/traj/src/32b/traj.h",line 197,column 3,is_s
    2978 00000383 8A91          MOVL      XAR4,*+XAR1[AR0]      ; [CPU_] |197| 
    2979                      .dwpsn  file "C:/Users/wmj/Desktop/BM1000_v1.1/sw/modules/traj/src/32b/traj.h",line 184,column 3,is_s
    2980 00000384 D060          MOVB      XAR0,#96              ; [CPU_] |184| 
    2981                      .dwpsn  file "C:/Users/wmj/Desktop/BM1000_v1.1/sw/modules/traj/src/32b/traj.h",line 197,column 3,is_s
    2982 00000385 1EE4          MOVL      *+XAR4[4],ACC         ; [CPU_] |197| 
    2983                      .dwpsn  file "C:/Users/wmj/Desktop/BM1000_v1.1/sw/modules/traj/src/32b/traj.h",line 184,column 3,is_s
    2984 00000386 8A91          MOVL      XAR4,*+XAR1[AR0]      ; [CPU_] |184| 
    2985                      .dwpsn  file "C:/Users/wmj/Desktop/BM1000_v1.1/sw/modules/traj/src/32b/traj.h",line 171,column 3,is_s
    2986 00000387 BE00          MOVB      XAR6,#0               ; [CPU_] |171| 
    2987 00000388 D060          MOVB      XAR0,#96              ; [CPU_] |171| 
    2988                      .dwpsn  file "C:/Users/wmj/Desktop/BM1000_v1.1/sw/modules/traj/src/32b/traj.h",line 184,column 3,is_s
    2989 00000389 1EF4          MOVL      *+XAR4[6],ACC         ; [CPU_] |184| 
    2990                      .dwpsn  file "C:/Users/wmj/Desktop/BM1000_v1.1/sw/modules/traj/src/32b/traj.h",line 171,column 3,is_s
    2991 0000038a 0208          MOVB      ACC,#8                ; [CPU_] |171| 
    2992 0000038b 0791          ADDL      ACC,*+XAR1[AR0]       ; [CPU_] |171| 
    2993 0000038c 8AA9          MOVL      XAR4,ACC              ; [CPU_] |171| 
    2994                      .dwpsn  file "C:/Users/wmj/Desktop/BM1000_v1.1/sw/modules/traj/src/32b/traj.h",line 158,column 3,is_s
TMS320C2000 Assembler PC v15.12.3 Wed Nov 22 00:56:17 2017

Tools Copyright (c) 1996-2015 Texas Instruments Incorporated
C:\Users\wmj\AppData\Local\Temp\0070810                              PAGE   58

    2995 0000038d D06C          MOVB      XAR0,#108             ; [CPU_] |158| 
    2996                      .dwpsn  file "C:/Users/wmj/Desktop/BM1000_v1.1/sw/modules/traj/src/32b/traj.h",line 171,column 3,is_s
    2997 0000038e C2C4          MOVL      *+XAR4[0],XAR6        ; [CPU_] |171| 
    2998                      .dwpsn  file "C:/Users/wmj/Desktop/BM1000_v1.1/sw/modules/traj/src/32b/traj.h",line 158,column 3,is_s
    2999 0000038f 8A91          MOVL      XAR4,*+XAR1[AR0]      ; [CPU_] |158| 
    3000 00000390 0200          MOVB      ACC,#0                ; [CPU_] |158| 
    3001                      .dwpsn  file "C:/Users/wmj/Desktop/BM1000_v1.1/sw/modules/traj/src/32b/traj.h",line 210,column 3,is_s
    3002 00000391 D06C          MOVB      XAR0,#108             ; [CPU_] |210| 
    3003                      .dwpsn  file "C:/Users/wmj/Desktop/BM1000_v1.1/sw/modules/traj/src/32b/traj.h",line 158,column 3,is_s
    3004 00000392 1ED4          MOVL      *+XAR4[2],ACC         ; [CPU_] |158| 
    3005                      .dwpsn  file "C:/Users/wmj/Desktop/BM1000_v1.1/sw/modules/traj/src/32b/traj.h",line 210,column 3,is_s
    3006 00000393 8A91          MOVL      XAR4,*+XAR1[AR0]      ; [CPU_] |210| 
    3007                      .dwpsn  file "C:/Users/wmj/Desktop/BM1000_v1.1/sw/modules/traj/src/32b/traj.h",line 197,column 3,is_s
    3008 00000394 D06C          MOVB      XAR0,#108             ; [CPU_] |197| 
    3009                      .dwpsn  file "C:/Users/wmj/Desktop/BM1000_v1.1/sw/modules/traj/src/32b/traj.h",line 210,column 3,is_s
    3010 00000395 1EC4          MOVL      *+XAR4[0],ACC         ; [CPU_] |210| 
    3011                      .dwpsn  file "C:/Users/wmj/Desktop/BM1000_v1.1/sw/modules/traj/src/32b/traj.h",line 197,column 3,is_s
    3012 00000396 8A91          MOVL      XAR4,*+XAR1[AR0]      ; [CPU_] |197| 
    3013                      .dwpsn  file "C:/Users/wmj/Desktop/BM1000_v1.1/sw/modules/traj/src/32b/traj.h",line 184,column 3,is_s
    3014 00000397 D06C          MOVB      XAR0,#108             ; [CPU_] |184| 
    3015                      .dwpsn  file "C:/Users/wmj/Desktop/BM1000_v1.1/sw/modules/traj/src/32b/traj.h",line 197,column 3,is_s
    3016 00000398 1EE4          MOVL      *+XAR4[4],ACC         ; [CPU_] |197| 
    3017                      .dwpsn  file "C:/Users/wmj/Desktop/BM1000_v1.1/sw/modules/traj/src/32b/traj.h",line 184,column 3,is_s
    3018 00000399 8A91          MOVL      XAR4,*+XAR1[AR0]      ; [CPU_] |184| 
    3019                      .dwpsn  file "C:/Users/wmj/Desktop/BM1000_v1.1/sw/modules/traj/src/32b/traj.h",line 171,column 3,is_s
    3020 0000039a D06C          MOVB      XAR0,#108             ; [CPU_] |171| 
    3021                      .dwpsn  file "C:/Users/wmj/Desktop/BM1000_v1.1/sw/modules/traj/src/32b/traj.h",line 184,column 3,is_s
    3022 0000039b 1EF4          MOVL      *+XAR4[6],ACC         ; [CPU_] |184| 
    3023                      .dwpsn  file "C:/Users/wmj/Desktop/BM1000_v1.1/sw/modules/traj/src/32b/traj.h",line 171,column 3,is_s
    3024 0000039c 0208          MOVB      ACC,#8                ; [CPU_] |171| 
    3025 0000039d 0791          ADDL      ACC,*+XAR1[AR0]       ; [CPU_] |171| 
    3026 0000039e 8AA9          MOVL      XAR4,ACC              ; [CPU_] |171| 
    3027                      .dwpsn  file "C:/Users/wmj/Desktop/BM1000_v1.1/sw/modules/traj/src/32b/traj.h",line 158,column 3,is_s
    3028 0000039f D078          MOVB      XAR0,#120             ; [CPU_] |158| 
    3029                      .dwpsn  file "C:/Users/wmj/Desktop/BM1000_v1.1/sw/modules/traj/src/32b/traj.h",line 171,column 3,is_s
    3030 000003a0 C2C4          MOVL      *+XAR4[0],XAR6        ; [CPU_] |171| 
    3031                      .dwpsn  file "C:/Users/wmj/Desktop/BM1000_v1.1/sw/modules/traj/src/32b/traj.h",line 158,column 3,is_s
    3032 000003a1 8A91          MOVL      XAR4,*+XAR1[AR0]      ; [CPU_] |158| 
    3033 000003a2 0200          MOVB      ACC,#0                ; [CPU_] |158| 
    3034                      .dwpsn  file "C:/Users/wmj/Desktop/BM1000_v1.1/sw/modules/traj/src/32b/traj.h",line 210,column 3,is_s
    3035 000003a3 D078          MOVB      XAR0,#120             ; [CPU_] |210| 
    3036                      .dwpsn  file "C:/Users/wmj/Desktop/BM1000_v1.1/sw/modules/traj/src/32b/traj.h",line 158,column 3,is_s
    3037 000003a4 1ED4          MOVL      *+XAR4[2],ACC         ; [CPU_] |158| 
    3038                      .dwpsn  file "C:/Users/wmj/Desktop/BM1000_v1.1/sw/modules/traj/src/32b/traj.h",line 210,column 3,is_s
    3039 000003a5 8A91          MOVL      XAR4,*+XAR1[AR0]      ; [CPU_] |210| 
    3040                      .dwpsn  file "C:/Users/wmj/Desktop/BM1000_v1.1/sw/modules/traj/src/32b/traj.h",line 197,column 3,is_s
    3041 000003a6 D078          MOVB      XAR0,#120             ; [CPU_] |197| 
    3042                      .dwpsn  file "C:/Users/wmj/Desktop/BM1000_v1.1/sw/modules/traj/src/32b/traj.h",line 210,column 3,is_s
    3043 000003a7 1EC4          MOVL      *+XAR4[0],ACC         ; [CPU_] |210| 
    3044                      .dwpsn  file "C:/Users/wmj/Desktop/BM1000_v1.1/sw/modules/traj/src/32b/traj.h",line 197,column 3,is_s
    3045 000003a8 8A91          MOVL      XAR4,*+XAR1[AR0]      ; [CPU_] |197| 
    3046                      .dwpsn  file "C:/Users/wmj/Desktop/BM1000_v1.1/sw/modules/traj/src/32b/traj.h",line 184,column 3,is_s
    3047 000003a9 D078          MOVB      XAR0,#120             ; [CPU_] |184| 
    3048                      .dwpsn  file "C:/Users/wmj/Desktop/BM1000_v1.1/sw/modules/traj/src/32b/traj.h",line 197,column 3,is_s
    3049 000003aa 1EE4          MOVL      *+XAR4[4],ACC         ; [CPU_] |197| 
TMS320C2000 Assembler PC v15.12.3 Wed Nov 22 00:56:17 2017

Tools Copyright (c) 1996-2015 Texas Instruments Incorporated
C:\Users\wmj\AppData\Local\Temp\0070810                              PAGE   59

    3050                      .dwpsn  file "C:/Users/wmj/Desktop/BM1000_v1.1/sw/modules/traj/src/32b/traj.h",line 184,column 3,is_s
    3051 000003ab 8A91          MOVL      XAR4,*+XAR1[AR0]      ; [CPU_] |184| 
    3052                      .dwpsn  file "C:/Users/wmj/Desktop/BM1000_v1.1/sw/modules/traj/src/32b/traj.h",line 171,column 3,is_s
    3053 000003ac D078          MOVB      XAR0,#120             ; [CPU_] |171| 
    3054                      .dwpsn  file "C:/Users/wmj/Desktop/BM1000_v1.1/sw/modules/traj/src/32b/traj.h",line 184,column 3,is_s
    3055 000003ad 1EF4          MOVL      *+XAR4[6],ACC         ; [CPU_] |184| 
    3056                      .dwpsn  file "C:/Users/wmj/Desktop/BM1000_v1.1/sw/modules/traj/src/32b/traj.h",line 171,column 3,is_s
    3057 000003ae 0208          MOVB      ACC,#8                ; [CPU_] |171| 
    3058 000003af 0791          ADDL      ACC,*+XAR1[AR0]       ; [CPU_] |171| 
    3059 000003b0 8AA9          MOVL      XAR4,ACC              ; [CPU_] |171| 
    3060                      .dwpsn  file "C:/Users/wmj/Desktop/BM1000_v1.1/sw/modules/ctrl/src/32b/ctrl.c",line 464,column 3,is_s
    3061 000003b1 D018          MOVB      XAR0,#24              ; [CPU_] |464| 
    3062                      .dwpsn  file "C:/Users/wmj/Desktop/BM1000_v1.1/sw/modules/traj/src/32b/traj.h",line 171,column 3,is_s
    3063 000003b2 C2C4          MOVL      *+XAR4[0],XAR6        ; [CPU_] |171| 
    3064                      .dwpsn  file "C:/Users/wmj/Desktop/BM1000_v1.1/sw/modules/ctrl/src/32b/ctrl.c",line 464,column 3,is_s
    3065 000003b3 836A          MOVL      XAR5,*-SP[42]         ; [CPU_] |464| 
    3066 000003b4 8A91          MOVL      XAR4,*+XAR1[AR0]      ; [CPU_] |464| 
    3067              $C$DW$250       .dwtag  DW_TAG_TI_branch
    3068                      .dwattr $C$DW$250, DW_AT_low_pc(0x00)
    3069                      .dwattr $C$DW$250, DW_AT_name("_CTRL_setEstParams")
    3070                      .dwattr $C$DW$250, DW_AT_TI_call
    3071              
    3072 000003b5 7640!         LCR       #_CTRL_setEstParams   ; [CPU_] |464| 
         000003b6 0000 
    3073                      ; call occurs [#_CTRL_setEstParams] ; [] |464| 
    3074                      .dwpsn  file "C:/Users/wmj/Desktop/BM1000_v1.1/sw/modules/svgen/src/32b/svgen.h",line 184,column 3,is
    3075 000003b7 D05C          MOVB      XAR0,#92              ; [CPU_] |184| 
    3076 000003b8 8A91          MOVL      XAR4,*+XAR1[AR0]      ; [CPU_] |184| 
    3077 000003b9 28A9          MOV       AL,#43691             ; [CPU_] |184| 
         000003ba AAAB 
    3078 000003bb 9BAA          MOV       AH,#170               ; [CPU_] |184| 
    3079 000003bc 1EC4          MOVL      *+XAR4[0],ACC         ; [CPU_] |184| 
    3080 000003bd FEAA          SUBB      SP,#42                ; [CPU_U] 
    3081                      .dwcfi  cfa_offset, -8
    3082 000003be 82BE          MOVL      XAR3,*--SP            ; [CPU_] 
    3083                      .dwcfi  cfa_offset, -6
    3084                      .dwcfi  restore_reg, 11
    3085 000003bf 86BE          MOVL      XAR2,*--SP            ; [CPU_] 
    3086                      .dwcfi  cfa_offset, -4
    3087                      .dwcfi  restore_reg, 9
    3088 000003c0 8BBE          MOVL      XAR1,*--SP            ; [CPU_] 
    3089                      .dwcfi  cfa_offset, -2
    3090                      .dwcfi  restore_reg, 7
    3091              $C$DW$251       .dwtag  DW_TAG_TI_branch
    3092                      .dwattr $C$DW$251, DW_AT_low_pc(0x00)
    3093                      .dwattr $C$DW$251, DW_AT_TI_return
    3094              
    3095 000003c1 0006          LRETR     ; [CPU_] 
    3096                      ; return occurs ; [] 
    3097                      .dwattr $C$DW$178, DW_AT_TI_end_file("C:/Users/wmj/Desktop/BM1000_v1.1/sw/modules/ctrl/src/32b/ctrl.c
    3098                      .dwattr $C$DW$178, DW_AT_TI_end_line(0x1d8)
    3099                      .dwattr $C$DW$178, DW_AT_TI_end_column(0x01)
    3100                      .dwendentry
    3101                      .dwendtag $C$DW$178
    3102              
TMS320C2000 Assembler PC v15.12.3 Wed Nov 22 00:56:17 2017

Tools Copyright (c) 1996-2015 Texas Instruments Incorporated
C:\Users\wmj\AppData\Local\Temp\0070810                              PAGE   60

    3103 0000000a               .sect   "ramfuncs"
    3104                      .clink
    3105                      .global _CTRL_run
    3106              
    3107              $C$DW$252       .dwtag  DW_TAG_subprogram
    3108                      .dwattr $C$DW$252, DW_AT_name("CTRL_run")
    3109                      .dwattr $C$DW$252, DW_AT_low_pc(_CTRL_run)
    3110                      .dwattr $C$DW$252, DW_AT_high_pc(0x00)
    3111                      .dwattr $C$DW$252, DW_AT_TI_symbol_name("_CTRL_run")
    3112                      .dwattr $C$DW$252, DW_AT_external
    3113                      .dwattr $C$DW$252, DW_AT_TI_begin_file("C:/Users/wmj/Desktop/BM1000_v1.1/sw/modules/ctrl/src/32b/ctrl
    3114                      .dwattr $C$DW$252, DW_AT_TI_begin_line(0xc3)
    3115                      .dwattr $C$DW$252, DW_AT_TI_begin_column(0x06)
    3116                      .dwattr $C$DW$252, DW_AT_TI_max_frame_size(-30)
    3117                      .dwpsn  file "C:/Users/wmj/Desktop/BM1000_v1.1/sw/modules/ctrl/src/32b/ctrl.c",line 198,column 1,is_s
    3118              
    3119                      .dwfde $C$DW$CIE, _CTRL_run
    3120              $C$DW$253       .dwtag  DW_TAG_formal_parameter
    3121                      .dwattr $C$DW$253, DW_AT_name("handle")
    3122                      .dwattr $C$DW$253, DW_AT_TI_symbol_name("_handle")
    3123                      .dwattr $C$DW$253, DW_AT_type(*$C$DW$T$170)
    3124                      .dwattr $C$DW$253, DW_AT_location[DW_OP_reg12]
    3125              
    3126              $C$DW$254       .dwtag  DW_TAG_formal_parameter
    3127                      .dwattr $C$DW$254, DW_AT_name("halHandle")
    3128                      .dwattr $C$DW$254, DW_AT_TI_symbol_name("_halHandle")
    3129                      .dwattr $C$DW$254, DW_AT_type(*$C$DW$T$201)
    3130                      .dwattr $C$DW$254, DW_AT_location[DW_OP_reg14]
    3131              
    3132              $C$DW$255       .dwtag  DW_TAG_formal_parameter
    3133                      .dwattr $C$DW$255, DW_AT_name("pAdcData")
    3134                      .dwattr $C$DW$255, DW_AT_TI_symbol_name("_pAdcData")
    3135                      .dwattr $C$DW$255, DW_AT_type(*$C$DW$T$194)
    3136                      .dwattr $C$DW$255, DW_AT_location[DW_OP_breg20 -32]
    3137              
    3138              $C$DW$256       .dwtag  DW_TAG_formal_parameter
    3139                      .dwattr $C$DW$256, DW_AT_name("pPwmData")
    3140                      .dwattr $C$DW$256, DW_AT_TI_symbol_name("_pPwmData")
    3141                      .dwattr $C$DW$256, DW_AT_type(*$C$DW$T$205)
    3142                      .dwattr $C$DW$256, DW_AT_location[DW_OP_breg20 -34]
    3143              
    3144              
    3145              ;***************************************************************
    3146              ;* FNAME: _CTRL_run                     FR SIZE:  28           *
    3147              ;*                                                             *
    3148              ;* FUNCTION ENVIRONMENT                                        *
    3149              ;*                                                             *
    3150              ;* FUNCTION PROPERTIES                                         *
    3151              ;*                            4 Parameter, 18 Auto,  6 SOE     *
    3152              ;***************************************************************
    3153              
    3154              _CTRL_run:
    3155              ;* AL    assigned to $O$C39
    3156              ;* AL    assigned to $O$C40
    3157              ;* AR2   assigned to $O$C41
TMS320C2000 Assembler PC v15.12.3 Wed Nov 22 00:56:17 2017

Tools Copyright (c) 1996-2015 Texas Instruments Incorporated
C:\Users\wmj\AppData\Local\Temp\0070810                              PAGE   61

    3158              ;* AR4   assigned to $O$C42
    3159              ;* AR7   assigned to $O$C43
    3160              ;* AR4   assigned to $O$C44
    3161              ;* AR4   assigned to $O$C45
    3162              ;* AR1   assigned to $O$C46
    3163              ;* AR6   assigned to $O$C47
