TMS320C2000 Assembler PC v15.12.3 Wed Nov 22 00:56:17 2017

Tools Copyright (c) 1996-2015 Texas Instruments Incorporated
C:\Users\wmj\AppData\Local\Temp\0070810                              PAGE    1

       1              ;***************************************************************
       2              ;* TMS320C2000 C/C++ Codegen                   PC v15.12.3.LTS *
       3              ;* Date/Time created: Wed Nov 22 00:56:16 2017                 *
       4              ;***************************************************************
       5                      .compiler_opts --abi=coffabi --float_support=softlib --hll_source=on --mem_model:code=flat --mem_mode
       6        0002  FP      .set    XAR2
       7              
       8              $C$DW$CU        .dwtag  DW_TAG_compile_unit
       9                      .dwattr $C$DW$CU, DW_AT_name("C:/Users/wmj/Desktop/BM1000_v1.1/sw/modules/ctrl/src/32b/ctrl.c")
      10                      .dwattr $C$DW$CU, DW_AT_producer("TI TMS320C2000 C/C++ Codegen PC v15.12.3.LTS Copyright (c) 1996-201
      11                      .dwattr $C$DW$CU, DW_AT_TI_version(0x01)
      12                      .dwattr $C$DW$CU, DW_AT_comp_dir("C:\Users\wmj\Desktop\BM1000_v1.1\sw\solutions\instaspin_foc\boards\
      13              
      14              ;**************************************************************
      15              ;* FUNCTION SYNONYMS                                          *
      16              ;**************************************************************
      17                      .global _CTRL_setMaximumSpeed_pu
      18        042F' _CTRL_setMaximumSpeed_pu        .set _CTRL_setSpd_max_pu
      19                      .global _CTRL_setMagCurrent_pu
      20        042C' _CTRL_setMagCurrent_pu  .set _CTRL_setIdRated_pu
      21                      .global _CTRL_getMaximumSpeed_pu
      22        0432' _CTRL_getMaximumSpeed_pu        .set _CTRL_getSpd_max_pu
      23                      .global _CTRL_getMagCurrent_pu
      24        0435' _CTRL_getMagCurrent_pu  .set _CTRL_getIdRated_pu
      25              
      26              $C$DW$1 .dwtag  DW_TAG_subprogram
      27                      .dwattr $C$DW$1, DW_AT_name("CTRL_runTraj")
      28                      .dwattr $C$DW$1, DW_AT_TI_symbol_name("_CTRL_runTraj")
      29                      .dwattr $C$DW$1, DW_AT_declaration
      30                      .dwattr $C$DW$1, DW_AT_external
      31              $C$DW$2 .dwtag  DW_TAG_formal_parameter
      32                      .dwattr $C$DW$2, DW_AT_type(*$C$DW$T$170)
      33              
      34                      .dwendtag $C$DW$1
      35              
      36              
      37              $C$DW$3 .dwtag  DW_TAG_subprogram
      38                      .dwattr $C$DW$3, DW_AT_name("CTRL_setEstParams")
      39                      .dwattr $C$DW$3, DW_AT_TI_symbol_name("_CTRL_setEstParams")
      40                      .dwattr $C$DW$3, DW_AT_declaration
      41                      .dwattr $C$DW$3, DW_AT_external
      42              $C$DW$4 .dwtag  DW_TAG_formal_parameter
      43                      .dwattr $C$DW$4, DW_AT_type(*$C$DW$T$49)
      44              
      45              $C$DW$5 .dwtag  DW_TAG_formal_parameter
      46                      .dwattr $C$DW$5, DW_AT_type(*$C$DW$T$231)
      47              
      48                      .dwendtag $C$DW$3
      49              
      50              
      51              $C$DW$6 .dwtag  DW_TAG_subprogram
      52                      .dwattr $C$DW$6, DW_AT_name("CTRL_setupTraj")
      53                      .dwattr $C$DW$6, DW_AT_TI_symbol_name("_CTRL_setupTraj")
      54                      .dwattr $C$DW$6, DW_AT_declaration
      55                      .dwattr $C$DW$6, DW_AT_external
TMS320C2000 Assembler PC v15.12.3 Wed Nov 22 00:56:17 2017

Tools Copyright (c) 1996-2015 Texas Instruments Incorporated
C:\Users\wmj\AppData\Local\Temp\0070810                              PAGE    2

      56              $C$DW$7 .dwtag  DW_TAG_formal_parameter
      57                      .dwattr $C$DW$7, DW_AT_type(*$C$DW$T$170)
      58              
      59                      .dwendtag $C$DW$6
      60              
      61              
      62              $C$DW$8 .dwtag  DW_TAG_subprogram
      63                      .dwattr $C$DW$8, DW_AT_name("CTRL_setUserMotorParams")
      64                      .dwattr $C$DW$8, DW_AT_TI_symbol_name("_CTRL_setUserMotorParams")
      65                      .dwattr $C$DW$8, DW_AT_declaration
      66                      .dwattr $C$DW$8, DW_AT_external
      67              $C$DW$9 .dwtag  DW_TAG_formal_parameter
      68                      .dwattr $C$DW$9, DW_AT_type(*$C$DW$T$170)
      69              
      70                      .dwendtag $C$DW$8
      71              
      72              
      73              $C$DW$10        .dwtag  DW_TAG_subprogram
      74                      .dwattr $C$DW$10, DW_AT_name("CTRL_setupEstIdleState")
      75                      .dwattr $C$DW$10, DW_AT_TI_symbol_name("_CTRL_setupEstIdleState")
      76                      .dwattr $C$DW$10, DW_AT_declaration
      77                      .dwattr $C$DW$10, DW_AT_external
      78              $C$DW$11        .dwtag  DW_TAG_formal_parameter
      79                      .dwattr $C$DW$11, DW_AT_type(*$C$DW$T$170)
      80              
      81                      .dwendtag $C$DW$10
      82              
      83              
      84              $C$DW$12        .dwtag  DW_TAG_subprogram
      85                      .dwattr $C$DW$12, DW_AT_name("CTRL_setupCtrl")
      86                      .dwattr $C$DW$12, DW_AT_TI_symbol_name("_CTRL_setupCtrl")
      87                      .dwattr $C$DW$12, DW_AT_declaration
      88                      .dwattr $C$DW$12, DW_AT_external
      89              $C$DW$13        .dwtag  DW_TAG_formal_parameter
      90                      .dwattr $C$DW$13, DW_AT_type(*$C$DW$T$170)
      91              
      92                      .dwendtag $C$DW$12
      93              
      94              
      95              $C$DW$14        .dwtag  DW_TAG_subprogram
      96                      .dwattr $C$DW$14, DW_AT_name("CTRL_setupEstOnLineState")
      97                      .dwattr $C$DW$14, DW_AT_TI_symbol_name("_CTRL_setupEstOnLineState")
      98                      .dwattr $C$DW$14, DW_AT_declaration
      99                      .dwattr $C$DW$14, DW_AT_external
     100              $C$DW$15        .dwtag  DW_TAG_formal_parameter
     101                      .dwattr $C$DW$15, DW_AT_type(*$C$DW$T$170)
     102              
     103                      .dwendtag $C$DW$14
     104              
     105              
     106              $C$DW$16        .dwtag  DW_TAG_subprogram
     107                      .dwattr $C$DW$16, DW_AT_name("EST_setIdle")
     108                      .dwattr $C$DW$16, DW_AT_TI_symbol_name("_EST_setIdle")
     109                      .dwattr $C$DW$16, DW_AT_declaration
     110                      .dwattr $C$DW$16, DW_AT_external
TMS320C2000 Assembler PC v15.12.3 Wed Nov 22 00:56:17 2017

Tools Copyright (c) 1996-2015 Texas Instruments Incorporated
C:\Users\wmj\AppData\Local\Temp\0070810                              PAGE    3

     111              $C$DW$17        .dwtag  DW_TAG_formal_parameter
     112                      .dwattr $C$DW$17, DW_AT_type(*$C$DW$T$49)
     113              
     114                      .dwendtag $C$DW$16
     115              
     116              
     117              $C$DW$18        .dwtag  DW_TAG_subprogram
     118                      .dwattr $C$DW$18, DW_AT_name("EST_run")
     119                      .dwattr $C$DW$18, DW_AT_TI_symbol_name("_EST_run")
     120                      .dwattr $C$DW$18, DW_AT_declaration
     121                      .dwattr $C$DW$18, DW_AT_external
     122              $C$DW$19        .dwtag  DW_TAG_formal_parameter
     123                      .dwattr $C$DW$19, DW_AT_type(*$C$DW$T$49)
     124              
     125              $C$DW$20        .dwtag  DW_TAG_formal_parameter
     126                      .dwattr $C$DW$20, DW_AT_type(*$C$DW$T$211)
     127              
     128              $C$DW$21        .dwtag  DW_TAG_formal_parameter
     129                      .dwattr $C$DW$21, DW_AT_type(*$C$DW$T$211)
     130              
     131              $C$DW$22        .dwtag  DW_TAG_formal_parameter
     132                      .dwattr $C$DW$22, DW_AT_type(*$C$DW$T$238)
     133              
     134              $C$DW$23        .dwtag  DW_TAG_formal_parameter
     135                      .dwattr $C$DW$23, DW_AT_type(*$C$DW$T$238)
     136              
     137                      .dwendtag $C$DW$18
     138              
     139              
     140              $C$DW$24        .dwtag  DW_TAG_subprogram
     141                      .dwattr $C$DW$24, DW_AT_name("EST_updateId_ref_pu")
     142                      .dwattr $C$DW$24, DW_AT_TI_symbol_name("_EST_updateId_ref_pu")
     143                      .dwattr $C$DW$24, DW_AT_declaration
     144                      .dwattr $C$DW$24, DW_AT_external
     145              $C$DW$25        .dwtag  DW_TAG_formal_parameter
     146                      .dwattr $C$DW$25, DW_AT_type(*$C$DW$T$49)
     147              
     148              $C$DW$26        .dwtag  DW_TAG_formal_parameter
     149                      .dwattr $C$DW$26, DW_AT_type(*$C$DW$T$245)
     150              
     151                      .dwendtag $C$DW$24
     152              
     153              
     154              $C$DW$27        .dwtag  DW_TAG_subprogram
     155                      .dwattr $C$DW$27, DW_AT_name("EST_setRs_pu")
     156                      .dwattr $C$DW$27, DW_AT_TI_symbol_name("_EST_setRs_pu")
     157                      .dwattr $C$DW$27, DW_AT_declaration
     158                      .dwattr $C$DW$27, DW_AT_external
     159              $C$DW$28        .dwtag  DW_TAG_formal_parameter
     160                      .dwattr $C$DW$28, DW_AT_type(*$C$DW$T$49)
     161              
     162              $C$DW$29        .dwtag  DW_TAG_formal_parameter
     163                      .dwattr $C$DW$29, DW_AT_type(*$C$DW$T$238)
     164              
     165                      .dwendtag $C$DW$27
TMS320C2000 Assembler PC v15.12.3 Wed Nov 22 00:56:17 2017

Tools Copyright (c) 1996-2015 Texas Instruments Incorporated
C:\Users\wmj\AppData\Local\Temp\0070810                              PAGE    4

     166              
     167              
     168              $C$DW$30        .dwtag  DW_TAG_subprogram
     169                      .dwattr $C$DW$30, DW_AT_name("EST_setId_ref_pu")
     170                      .dwattr $C$DW$30, DW_AT_TI_symbol_name("_EST_setId_ref_pu")
     171                      .dwattr $C$DW$30, DW_AT_declaration
     172                      .dwattr $C$DW$30, DW_AT_external
     173              $C$DW$31        .dwtag  DW_TAG_formal_parameter
     174                      .dwattr $C$DW$31, DW_AT_type(*$C$DW$T$49)
     175              
     176              $C$DW$32        .dwtag  DW_TAG_formal_parameter
     177                      .dwattr $C$DW$32, DW_AT_type(*$C$DW$T$238)
     178              
     179                      .dwendtag $C$DW$30
     180              
     181              
     182              $C$DW$33        .dwtag  DW_TAG_subprogram
     183                      .dwattr $C$DW$33, DW_AT_name("EST_setIdle_all")
     184                      .dwattr $C$DW$33, DW_AT_TI_symbol_name("_EST_setIdle_all")
     185                      .dwattr $C$DW$33, DW_AT_declaration
     186                      .dwattr $C$DW$33, DW_AT_external
     187              $C$DW$34        .dwtag  DW_TAG_formal_parameter
     188                      .dwattr $C$DW$34, DW_AT_type(*$C$DW$T$49)
     189              
     190                      .dwendtag $C$DW$33
     191              
     192              
     193              $C$DW$35        .dwtag  DW_TAG_subprogram
     194                      .dwattr $C$DW$35, DW_AT_name("EST_setIq_ref_pu")
     195                      .dwattr $C$DW$35, DW_AT_TI_symbol_name("_EST_setIq_ref_pu")
     196                      .dwattr $C$DW$35, DW_AT_declaration
     197                      .dwattr $C$DW$35, DW_AT_external
     198              $C$DW$36        .dwtag  DW_TAG_formal_parameter
     199                      .dwattr $C$DW$36, DW_AT_type(*$C$DW$T$49)
     200              
     201              $C$DW$37        .dwtag  DW_TAG_formal_parameter
     202                      .dwattr $C$DW$37, DW_AT_type(*$C$DW$T$238)
     203              
     204                      .dwendtag $C$DW$35
     205              
     206              
     207              $C$DW$38        .dwtag  DW_TAG_subprogram
     208                      .dwattr $C$DW$38, DW_AT_name("EST_updateState")
     209                      .dwattr $C$DW$38, DW_AT_TI_symbol_name("_EST_updateState")
     210                      .dwattr $C$DW$38, DW_AT_type(*$C$DW$T$33)
     211                      .dwattr $C$DW$38, DW_AT_declaration
     212                      .dwattr $C$DW$38, DW_AT_external
     213              $C$DW$39        .dwtag  DW_TAG_formal_parameter
     214                      .dwattr $C$DW$39, DW_AT_type(*$C$DW$T$49)
     215              
     216              $C$DW$40        .dwtag  DW_TAG_formal_parameter
     217                      .dwattr $C$DW$40, DW_AT_type(*$C$DW$T$238)
     218              
     219                      .dwendtag $C$DW$38
     220              
TMS320C2000 Assembler PC v15.12.3 Wed Nov 22 00:56:17 2017

Tools Copyright (c) 1996-2015 Texas Instruments Incorporated
C:\Users\wmj\AppData\Local\Temp\0070810                              PAGE    5

     221              
     222              $C$DW$41        .dwtag  DW_TAG_subprogram
     223                      .dwattr $C$DW$41, DW_AT_name("EST_useZeroIq_ref")
     224                      .dwattr $C$DW$41, DW_AT_TI_symbol_name("_EST_useZeroIq_ref")
     225                      .dwattr $C$DW$41, DW_AT_type(*$C$DW$T$33)
     226                      .dwattr $C$DW$41, DW_AT_declaration
     227                      .dwattr $C$DW$41, DW_AT_external
     228              $C$DW$42        .dwtag  DW_TAG_formal_parameter
     229                      .dwattr $C$DW$42, DW_AT_type(*$C$DW$T$49)
     230              
     231                      .dwendtag $C$DW$41
     232              
     233              
     234              $C$DW$43        .dwtag  DW_TAG_subprogram
     235                      .dwattr $C$DW$43, DW_AT_name("EST_isMotorIdentified")
     236                      .dwattr $C$DW$43, DW_AT_TI_symbol_name("_EST_isMotorIdentified")
     237                      .dwattr $C$DW$43, DW_AT_type(*$C$DW$T$33)
     238                      .dwattr $C$DW$43, DW_AT_declaration
     239                      .dwattr $C$DW$43, DW_AT_external
     240              $C$DW$44        .dwtag  DW_TAG_formal_parameter
     241                      .dwattr $C$DW$44, DW_AT_type(*$C$DW$T$49)
     242              
     243                      .dwendtag $C$DW$43
     244              
     245              
     246              $C$DW$45        .dwtag  DW_TAG_subprogram
     247                      .dwattr $C$DW$45, DW_AT_name("EST_isOnLine")
     248                      .dwattr $C$DW$45, DW_AT_TI_symbol_name("_EST_isOnLine")
     249                      .dwattr $C$DW$45, DW_AT_type(*$C$DW$T$33)
     250                      .dwattr $C$DW$45, DW_AT_declaration
     251                      .dwattr $C$DW$45, DW_AT_external
     252              $C$DW$46        .dwtag  DW_TAG_formal_parameter
     253                      .dwattr $C$DW$46, DW_AT_type(*$C$DW$T$49)
     254              
     255                      .dwendtag $C$DW$45
     256              
     257              
     258              $C$DW$47        .dwtag  DW_TAG_subprogram
     259                      .dwattr $C$DW$47, DW_AT_name("EST_doSpeedCtrl")
     260                      .dwattr $C$DW$47, DW_AT_TI_symbol_name("_EST_doSpeedCtrl")
     261                      .dwattr $C$DW$47, DW_AT_type(*$C$DW$T$33)
     262                      .dwattr $C$DW$47, DW_AT_declaration
     263                      .dwattr $C$DW$47, DW_AT_external
     264              $C$DW$48        .dwtag  DW_TAG_formal_parameter
     265                      .dwattr $C$DW$48, DW_AT_type(*$C$DW$T$49)
     266              
     267                      .dwendtag $C$DW$47
     268              
     269              
     270              $C$DW$49        .dwtag  DW_TAG_subprogram
     271                      .dwattr $C$DW$49, DW_AT_name("EST_getState")
     272                      .dwattr $C$DW$49, DW_AT_TI_symbol_name("_EST_getState")
     273                      .dwattr $C$DW$49, DW_AT_type(*$C$DW$T$175)
     274                      .dwattr $C$DW$49, DW_AT_declaration
     275                      .dwattr $C$DW$49, DW_AT_external
TMS320C2000 Assembler PC v15.12.3 Wed Nov 22 00:56:17 2017

Tools Copyright (c) 1996-2015 Texas Instruments Incorporated
C:\Users\wmj\AppData\Local\Temp\0070810                              PAGE    6

     276              $C$DW$50        .dwtag  DW_TAG_formal_parameter
     277                      .dwattr $C$DW$50, DW_AT_type(*$C$DW$T$49)
     278              
     279                      .dwendtag $C$DW$49
     280              
     281              
     282              $C$DW$51        .dwtag  DW_TAG_subprogram
     283                      .dwattr $C$DW$51, DW_AT_name("EST_isIdle")
     284                      .dwattr $C$DW$51, DW_AT_TI_symbol_name("_EST_isIdle")
     285                      .dwattr $C$DW$51, DW_AT_type(*$C$DW$T$33)
     286                      .dwattr $C$DW$51, DW_AT_declaration
     287                      .dwattr $C$DW$51, DW_AT_external
     288              $C$DW$52        .dwtag  DW_TAG_formal_parameter
     289                      .dwattr $C$DW$52, DW_AT_type(*$C$DW$T$49)
     290              
     291                      .dwendtag $C$DW$51
     292              
     293              
     294              $C$DW$53        .dwtag  DW_TAG_subprogram
     295                      .dwattr $C$DW$53, DW_AT_name("EST_isLockRotor")
     296                      .dwattr $C$DW$53, DW_AT_TI_symbol_name("_EST_isLockRotor")
     297                      .dwattr $C$DW$53, DW_AT_type(*$C$DW$T$33)
     298                      .dwattr $C$DW$53, DW_AT_declaration
     299                      .dwattr $C$DW$53, DW_AT_external
     300              $C$DW$54        .dwtag  DW_TAG_formal_parameter
     301                      .dwattr $C$DW$54, DW_AT_type(*$C$DW$T$49)
     302              
     303                      .dwendtag $C$DW$53
     304              
     305              
     306              $C$DW$55        .dwtag  DW_TAG_subprogram
     307                      .dwattr $C$DW$55, DW_AT_name("EST_doCurrentCtrl")
     308                      .dwattr $C$DW$55, DW_AT_TI_symbol_name("_EST_doCurrentCtrl")
     309                      .dwattr $C$DW$55, DW_AT_type(*$C$DW$T$33)
     310                      .dwattr $C$DW$55, DW_AT_declaration
     311                      .dwattr $C$DW$55, DW_AT_external
     312              $C$DW$56        .dwtag  DW_TAG_formal_parameter
     313                      .dwattr $C$DW$56, DW_AT_type(*$C$DW$T$49)
     314              
     315                      .dwendtag $C$DW$55
     316              
     317              
     318              $C$DW$57        .dwtag  DW_TAG_subprogram
     319                      .dwattr $C$DW$57, DW_AT_name("EST_isError")
     320                      .dwattr $C$DW$57, DW_AT_TI_symbol_name("_EST_isError")
     321                      .dwattr $C$DW$57, DW_AT_type(*$C$DW$T$33)
     322                      .dwattr $C$DW$57, DW_AT_declaration
     323                      .dwattr $C$DW$57, DW_AT_external
     324              $C$DW$58        .dwtag  DW_TAG_formal_parameter
     325                      .dwattr $C$DW$58, DW_AT_type(*$C$DW$T$49)
     326              
     327                      .dwendtag $C$DW$57
     328              
     329              
     330              $C$DW$59        .dwtag  DW_TAG_subprogram
TMS320C2000 Assembler PC v15.12.3 Wed Nov 22 00:56:17 2017

Tools Copyright (c) 1996-2015 Texas Instruments Incorporated
C:\Users\wmj\AppData\Local\Temp\0070810                              PAGE    7

     331                      .dwattr $C$DW$59, DW_AT_name("Brake_init")
     332                      .dwattr $C$DW$59, DW_AT_TI_symbol_name("_Brake_init")
     333                      .dwattr $C$DW$59, DW_AT_type(*$C$DW$T$72)
     334                      .dwattr $C$DW$59, DW_AT_declaration
     335                      .dwattr $C$DW$59, DW_AT_external
     336              $C$DW$60        .dwtag  DW_TAG_formal_parameter
     337                      .dwattr $C$DW$60, DW_AT_type(*$C$DW$T$3)
     338              
     339              $C$DW$61        .dwtag  DW_TAG_formal_parameter
     340                      .dwattr $C$DW$61, DW_AT_type(*$C$DW$T$183)
     341              
     342                      .dwendtag $C$DW$59
     343              
     344              
     345              $C$DW$62        .dwtag  DW_TAG_subprogram
     346                      .dwattr $C$DW$62, DW_AT_name("_IQ24cosPU")
     347                      .dwattr $C$DW$62, DW_AT_TI_symbol_name("__IQ24cosPU")
     348                      .dwattr $C$DW$62, DW_AT_type(*$C$DW$T$12)
     349                      .dwattr $C$DW$62, DW_AT_declaration
     350                      .dwattr $C$DW$62, DW_AT_external
     351              $C$DW$63        .dwtag  DW_TAG_formal_parameter
     352                      .dwattr $C$DW$63, DW_AT_type(*$C$DW$T$12)
     353              
     354                      .dwendtag $C$DW$62
     355              
     356              
     357              $C$DW$64        .dwtag  DW_TAG_subprogram
     358                      .dwattr $C$DW$64, DW_AT_name("_IQ24sqrt")
     359                      .dwattr $C$DW$64, DW_AT_TI_symbol_name("__IQ24sqrt")
     360                      .dwattr $C$DW$64, DW_AT_type(*$C$DW$T$12)
     361                      .dwattr $C$DW$64, DW_AT_declaration
     362                      .dwattr $C$DW$64, DW_AT_external
     363              $C$DW$65        .dwtag  DW_TAG_formal_parameter
     364                      .dwattr $C$DW$65, DW_AT_type(*$C$DW$T$12)
     365              
     366                      .dwendtag $C$DW$64
     367              
     368              
     369              $C$DW$66        .dwtag  DW_TAG_subprogram
     370                      .dwattr $C$DW$66, DW_AT_name("_IQ24sinPU")
     371                      .dwattr $C$DW$66, DW_AT_TI_symbol_name("__IQ24sinPU")
     372                      .dwattr $C$DW$66, DW_AT_type(*$C$DW$T$12)
     373                      .dwattr $C$DW$66, DW_AT_declaration
     374                      .dwattr $C$DW$66, DW_AT_external
     375              $C$DW$67        .dwtag  DW_TAG_formal_parameter
     376                      .dwattr $C$DW$67, DW_AT_type(*$C$DW$T$12)
     377              
     378                      .dwendtag $C$DW$66
     379              
     380              
     381              $C$DW$68        .dwtag  DW_TAG_subprogram
     382                      .dwattr $C$DW$68, DW_AT_name("__IQmpy")
     383                      .dwattr $C$DW$68, DW_AT_TI_symbol_name("___IQmpy")
     384                      .dwattr $C$DW$68, DW_AT_type(*$C$DW$T$12)
     385                      .dwattr $C$DW$68, DW_AT_declaration
TMS320C2000 Assembler PC v15.12.3 Wed Nov 22 00:56:17 2017

Tools Copyright (c) 1996-2015 Texas Instruments Incorporated
C:\Users\wmj\AppData\Local\Temp\0070810                              PAGE    8

     386                      .dwattr $C$DW$68, DW_AT_external
     387              $C$DW$69        .dwtag  DW_TAG_formal_parameter
     388                      .dwattr $C$DW$69, DW_AT_type(*$C$DW$T$12)
     389              
     390              $C$DW$70        .dwtag  DW_TAG_formal_parameter
     391                      .dwattr $C$DW$70, DW_AT_type(*$C$DW$T$12)
     392              
     393              $C$DW$71        .dwtag  DW_TAG_formal_parameter
     394                      .dwattr $C$DW$71, DW_AT_type(*$C$DW$T$10)
     395              
     396                      .dwendtag $C$DW$68
     397              
     398              
     399              $C$DW$72        .dwtag  DW_TAG_subprogram
     400                      .dwattr $C$DW$72, DW_AT_name("__IQsat")
     401                      .dwattr $C$DW$72, DW_AT_TI_symbol_name("___IQsat")
     402                      .dwattr $C$DW$72, DW_AT_type(*$C$DW$T$12)
     403                      .dwattr $C$DW$72, DW_AT_declaration
     404                      .dwattr $C$DW$72, DW_AT_external
     405              $C$DW$73        .dwtag  DW_TAG_formal_parameter
     406                      .dwattr $C$DW$73, DW_AT_type(*$C$DW$T$12)
     407              
     408              $C$DW$74        .dwtag  DW_TAG_formal_parameter
     409                      .dwattr $C$DW$74, DW_AT_type(*$C$DW$T$12)
     410              
     411              $C$DW$75        .dwtag  DW_TAG_formal_parameter
     412                      .dwattr $C$DW$75, DW_AT_type(*$C$DW$T$12)
     413              
     414                      .dwendtag $C$DW$72
     415              
     416              
     417              $C$DW$76        .dwtag  DW_TAG_subprogram
     418                      .dwattr $C$DW$76, DW_AT_name("EST_getFm_pu")
     419                      .dwattr $C$DW$76, DW_AT_TI_symbol_name("_EST_getFm_pu")
     420                      .dwattr $C$DW$76, DW_AT_type(*$C$DW$T$31)
     421                      .dwattr $C$DW$76, DW_AT_declaration
     422                      .dwattr $C$DW$76, DW_AT_external
     423              $C$DW$77        .dwtag  DW_TAG_formal_parameter
     424                      .dwattr $C$DW$77, DW_AT_type(*$C$DW$T$49)
     425              
     426                      .dwendtag $C$DW$76
     427              
     428              
     429              $C$DW$78        .dwtag  DW_TAG_subprogram
     430                      .dwattr $C$DW$78, DW_AT_name("EST_getOneOverDcBus_pu")
     431                      .dwattr $C$DW$78, DW_AT_TI_symbol_name("_EST_getOneOverDcBus_pu")
     432                      .dwattr $C$DW$78, DW_AT_type(*$C$DW$T$31)
     433                      .dwattr $C$DW$78, DW_AT_declaration
     434                      .dwattr $C$DW$78, DW_AT_external
     435              $C$DW$79        .dwtag  DW_TAG_formal_parameter
     436                      .dwattr $C$DW$79, DW_AT_type(*$C$DW$T$49)
     437              
     438                      .dwendtag $C$DW$78
     439              
     440              
TMS320C2000 Assembler PC v15.12.3 Wed Nov 22 00:56:17 2017

Tools Copyright (c) 1996-2015 Texas Instruments Incorporated
C:\Users\wmj\AppData\Local\Temp\0070810                              PAGE    9

     441              $C$DW$80        .dwtag  DW_TAG_subprogram
     442                      .dwattr $C$DW$80, DW_AT_name("EST_getAngle_pu")
     443                      .dwattr $C$DW$80, DW_AT_TI_symbol_name("_EST_getAngle_pu")
     444                      .dwattr $C$DW$80, DW_AT_type(*$C$DW$T$31)
     445                      .dwattr $C$DW$80, DW_AT_declaration
     446                      .dwattr $C$DW$80, DW_AT_external
     447              $C$DW$81        .dwtag  DW_TAG_formal_parameter
     448                      .dwattr $C$DW$81, DW_AT_type(*$C$DW$T$49)
     449              
     450                      .dwendtag $C$DW$80
     451              
     452              
     453              $C$DW$82        .dwtag  DW_TAG_subprogram
     454                      .dwattr $C$DW$82, DW_AT_name("EST_get_krpm_to_pu_sf")
     455                      .dwattr $C$DW$82, DW_AT_TI_symbol_name("_EST_get_krpm_to_pu_sf")
     456                      .dwattr $C$DW$82, DW_AT_type(*$C$DW$T$31)
     457                      .dwattr $C$DW$82, DW_AT_declaration
     458                      .dwattr $C$DW$82, DW_AT_external
     459              $C$DW$83        .dwtag  DW_TAG_formal_parameter
     460                      .dwattr $C$DW$83, DW_AT_type(*$C$DW$T$49)
     461              
     462                      .dwendtag $C$DW$82
     463              
     464              
     465              $C$DW$84        .dwtag  DW_TAG_subprogram
     466                      .dwattr $C$DW$84, DW_AT_name("labs")
     467                      .dwattr $C$DW$84, DW_AT_TI_symbol_name("_labs")
     468                      .dwattr $C$DW$84, DW_AT_type(*$C$DW$T$12)
     469                      .dwattr $C$DW$84, DW_AT_declaration
     470                      .dwattr $C$DW$84, DW_AT_external
     471              $C$DW$85        .dwtag  DW_TAG_formal_parameter
     472                      .dwattr $C$DW$85, DW_AT_type(*$C$DW$T$12)
     473              
     474                      .dwendtag $C$DW$84
     475              
     476 00000000               .sect   ".econst:_$P$T4$5"
     477                      .clink
     478                      .align  2
     479 00000000       _$P$T4$5:
     480 00000000 0000          .bits   0,32                    ; _$P$T4$5._value[0] @ 0
         00000001 0000 
     481 00000002 0000          .bits   0,32                    ; _$P$T4$5._value[1] @ 32
         00000003 0000 
     482              
     483              $C$DW$86        .dwtag  DW_TAG_variable
     484                      .dwattr $C$DW$86, DW_AT_name("$P$T4$5")
     485                      .dwattr $C$DW$86, DW_AT_TI_symbol_name("_$P$T4$5")
     486                      .dwattr $C$DW$86, DW_AT_type(*$C$DW$T$210)
     487                      .dwattr $C$DW$86, DW_AT_location[DW_OP_addr _$P$T4$5]
     488              
     489 00000000               .sect   ".econst:_$P$T5$6"
     490                      .clink
     491                      .align  2
     492 00000000       _$P$T5$6:
     493 00000000 0000          .bits   0,32                    ; _$P$T5$6._value[0] @ 0
TMS320C2000 Assembler PC v15.12.3 Wed Nov 22 00:56:17 2017

Tools Copyright (c) 1996-2015 Texas Instruments Incorporated
C:\Users\wmj\AppData\Local\Temp\0070810                              PAGE   10

         00000001 0000 
     494 00000002 0000          .bits   0,32                    ; _$P$T5$6._value[1] @ 32
         00000003 0000 
     495              
     496              $C$DW$87        .dwtag  DW_TAG_variable
     497                      .dwattr $C$DW$87, DW_AT_name("$P$T5$6")
     498                      .dwattr $C$DW$87, DW_AT_TI_symbol_name("_$P$T5$6")
     499                      .dwattr $C$DW$87, DW_AT_type(*$C$DW$T$210)
     500                      .dwattr $C$DW$87, DW_AT_location[DW_OP_addr _$P$T5$6]
     501              
     502 00000000               .sect   ".econst:_$P$T3$4"
     503                      .clink
     504                      .align  2
     505 00000000       _$P$T3$4:
     506 00000000 0000          .bits   0,32                    ; _$P$T3$4._value[0] @ 0
         00000001 0000 
     507 00000002 0000          .bits   0,32                    ; _$P$T3$4._value[1] @ 32
         00000003 0000 
     508              
     509              $C$DW$88        .dwtag  DW_TAG_variable
     510                      .dwattr $C$DW$88, DW_AT_name("$P$T3$4")
     511                      .dwattr $C$DW$88, DW_AT_TI_symbol_name("_$P$T3$4")
     512                      .dwattr $C$DW$88, DW_AT_type(*$C$DW$T$210)
     513                      .dwattr $C$DW$88, DW_AT_location[DW_OP_addr _$P$T3$4]
     514              
     515 00000000               .sect   ".econst:_$P$T1$2"
     516                      .clink
     517                      .align  2
     518 00000000       _$P$T1$2:
     519 00000000 0000          .bits   0,32                    ; _$P$T1$2._value[0] @ 0
         00000001 0000 
     520 00000002 0000          .bits   0,32                    ; _$P$T1$2._value[1] @ 32
         00000003 0000 
     521              
     522              $C$DW$89        .dwtag  DW_TAG_variable
     523                      .dwattr $C$DW$89, DW_AT_name("$P$T1$2")
     524                      .dwattr $C$DW$89, DW_AT_TI_symbol_name("_$P$T1$2")
     525                      .dwattr $C$DW$89, DW_AT_type(*$C$DW$T$210)
     526                      .dwattr $C$DW$89, DW_AT_location[DW_OP_addr _$P$T1$2]
     527              
     528 00000000               .sect   ".econst:_$P$T2$3"
     529                      .clink
     530                      .align  2
     531 00000000       _$P$T2$3:
     532 00000000 0000          .bits   0,32                    ; _$P$T2$3._value[0] @ 0
         00000001 0000 
     533 00000002 0000          .bits   0,32                    ; _$P$T2$3._value[1] @ 32
         00000003 0000 
     534              
     535              $C$DW$90        .dwtag  DW_TAG_variable
     536                      .dwattr $C$DW$90, DW_AT_name("$P$T2$3")
     537                      .dwattr $C$DW$90, DW_AT_TI_symbol_name("_$P$T2$3")
     538                      .dwattr $C$DW$90, DW_AT_type(*$C$DW$T$210)
     539                      .dwattr $C$DW$90, DW_AT_location[DW_OP_addr _$P$T2$3]
     540              
TMS320C2000 Assembler PC v15.12.3 Wed Nov 22 00:56:17 2017

Tools Copyright (c) 1996-2015 Texas Instruments Incorporated
C:\Users\wmj\AppData\Local\Temp\0070810                              PAGE   11

     541 00000000               .sect   ".econst:_$P$T0$1"
     542                      .clink
     543                      .align  2
     544 00000000       _$P$T0$1:
     545 00000000 0000          .bits   0,32                    ; _$P$T0$1._value[0] @ 0
         00000001 0000 
     546 00000002 0000          .bits   0,32                    ; _$P$T0$1._value[1] @ 32
         00000003 0000 
     547              
     548              $C$DW$91        .dwtag  DW_TAG_variable
     549                      .dwattr $C$DW$91, DW_AT_name("$P$T0$1")
     550                      .dwattr $C$DW$91, DW_AT_TI_symbol_name("_$P$T0$1")
     551                      .dwattr $C$DW$91, DW_AT_type(*$C$DW$T$210)
     552                      .dwattr $C$DW$91, DW_AT_location[DW_OP_addr _$P$T0$1]
     553              
     554              ;       C:\ti\ccsv6\tools\compiler\c2000_15.12.3.LTS\bin\opt2000.exe C:\\Users\\wmj\\AppData\\Local\\Temp\\00
     555              ;       C:\ti\ccsv6\tools\compiler\c2000_15.12.3.LTS\bin\ac2000.exe -@C:\\Users\\wmj\\AppData\\Local\\Temp\\0
     556 00000000               .sect   ".text"
     557                      .clink
     558                      .global _CTRL_updateState
     559              
     560              $C$DW$92        .dwtag  DW_TAG_subprogram
     561                      .dwattr $C$DW$92, DW_AT_name("CTRL_updateState")
     562                      .dwattr $C$DW$92, DW_AT_low_pc(_CTRL_updateState)
     563                      .dwattr $C$DW$92, DW_AT_high_pc(0x00)
     564                      .dwattr $C$DW$92, DW_AT_TI_symbol_name("_CTRL_updateState")
     565                      .dwattr $C$DW$92, DW_AT_external
     566                      .dwattr $C$DW$92, DW_AT_type(*$C$DW$T$33)
     567                      .dwattr $C$DW$92, DW_AT_TI_begin_file("C:/Users/wmj/Desktop/BM1000_v1.1/sw/modules/ctrl/src/32b/ctrl.
     568                      .dwattr $C$DW$92, DW_AT_TI_begin_line(0x294)
     569                      .dwattr $C$DW$92, DW_AT_TI_begin_column(0x06)
     570                      .dwattr $C$DW$92, DW_AT_TI_max_frame_size(-12)
     571                      .dwpsn  file "C:/Users/wmj/Desktop/BM1000_v1.1/sw/modules/ctrl/src/32b/ctrl.c",line 661,column 1,is_s
     572              
     573                      .dwfde $C$DW$CIE, _CTRL_updateState
     574              $C$DW$93        .dwtag  DW_TAG_formal_parameter
     575                      .dwattr $C$DW$93, DW_AT_name("handle")
     576                      .dwattr $C$DW$93, DW_AT_TI_symbol_name("_handle")
     577                      .dwattr $C$DW$93, DW_AT_type(*$C$DW$T$170)
     578                      .dwattr $C$DW$93, DW_AT_location[DW_OP_reg12]
     579              
     580              
     581              ;***************************************************************
     582              ;* FNAME: _CTRL_updateState             FR SIZE:  10           *
     583              ;*                                                             *
     584              ;* FUNCTION ENVIRONMENT                                        *
     585              ;*                                                             *
     586              ;* FUNCTION PROPERTIES                                         *
     587              ;*                            0 Parameter,  4 Auto,  6 SOE     *
     588              ;***************************************************************
     589              
     590              _CTRL_updateState:
     591              ;* AR3   assigned to _counter_ctrlState
     592              $C$DW$94        .dwtag  DW_TAG_variable
     593                      .dwattr $C$DW$94, DW_AT_name("counter_ctrlState")
TMS320C2000 Assembler PC v15.12.3 Wed Nov 22 00:56:17 2017

Tools Copyright (c) 1996-2015 Texas Instruments Incorporated
C:\Users\wmj\AppData\Local\Temp\0070810                              PAGE   12

     594                      .dwattr $C$DW$94, DW_AT_TI_symbol_name("_counter_ctrlState")
     595                      .dwattr $C$DW$94, DW_AT_type(*$C$DW$T$67)
     596                      .dwattr $C$DW$94, DW_AT_location[DW_OP_reg10]
     597              
     598              $C$DW$95        .dwtag  DW_TAG_variable
     599                      .dwattr $C$DW$95, DW_AT_name("waitTime")
     600                      .dwattr $C$DW$95, DW_AT_TI_symbol_name("_waitTime")
     601                      .dwattr $C$DW$95, DW_AT_type(*$C$DW$T$67)
     602                      .dwattr $C$DW$95, DW_AT_location[DW_OP_breg20 -4]
     603              
     604              ;* AR1   assigned to _stateChanged
     605              $C$DW$96        .dwtag  DW_TAG_variable
     606                      .dwattr $C$DW$96, DW_AT_name("stateChanged")
     607                      .dwattr $C$DW$96, DW_AT_TI_symbol_name("_stateChanged")
     608                      .dwattr $C$DW$96, DW_AT_type(*$C$DW$T$33)
     609                      .dwattr $C$DW$96, DW_AT_location[DW_OP_reg6]
     610              
     611              $C$DW$97        .dwtag  DW_TAG_variable
     612                      .dwattr $C$DW$97, DW_AT_name("ctrlState")
     613                      .dwattr $C$DW$97, DW_AT_TI_symbol_name("_ctrlState")
     614                      .dwattr $C$DW$97, DW_AT_type(*$C$DW$T$42)
     615                      .dwattr $C$DW$97, DW_AT_location[DW_OP_breg20 -1]
     616              
     617              ;* AR2   assigned to _handle
     618              $C$DW$98        .dwtag  DW_TAG_variable
     619                      .dwattr $C$DW$98, DW_AT_name("handle")
     620                      .dwattr $C$DW$98, DW_AT_TI_symbol_name("_handle")
     621                      .dwattr $C$DW$98, DW_AT_type(*$C$DW$T$189)
     622                      .dwattr $C$DW$98, DW_AT_location[DW_OP_reg8]
     623              
     624                      .dwcfi  cfa_offset, -2
     625                      .dwcfi  save_reg_to_mem, 26, 0
     626 00000000 B2BD          MOVL      *SP++,XAR1            ; [CPU_] 
     627                      .dwcfi  save_reg_to_mem, 7, 2
     628                      .dwcfi  cfa_offset, -4
     629 00000001 AABD          MOVL      *SP++,XAR2            ; [CPU_] 
     630                      .dwcfi  save_reg_to_mem, 9, 4
     631                      .dwcfi  cfa_offset, -6
     632 00000002 A2BD          MOVL      *SP++,XAR3            ; [CPU_] 
     633                      .dwcfi  save_reg_to_mem, 11, 6
     634                      .dwcfi  cfa_offset, -8
     635 00000003 FE04          ADDB      SP,#4                 ; [CPU_U] 
     636                      .dwcfi  cfa_offset, -12
     637 00000004 86A4          MOVL      XAR2,XAR4             ; [CPU_] |661| 
     638                      .dwpsn  file "C:/Users/wmj/Desktop/BM1000_v1.1/sw/modules/ctrl/src/32b/ctrl.c",line 667,column 3,is_s
     639 00000005 D0F0          MOVB      XAR0,#240             ; [CPU_] |667| 
     640                      .dwpsn  file "C:/Users/wmj/Desktop/BM1000_v1.1/sw/modules/ctrl/src/32b/ctrl.c",line 664,column 21,is_
     641 00000006 D100          MOVB      XAR1,#0               ; [CPU_] |664| 
     642                      .dwpsn  file "C:/Users/wmj/Desktop/BM1000_v1.1/sw/modules/ctrl/src/32b/ctrl.h",line 808,column 3,is_s
     643 00000007 92E2          MOV       AL,*+XAR2[4]          ; [CPU_] |808| 
     644 00000008 9641          MOV       *-SP[1],AL            ; [CPU_] |808| 
     645                      .dwpsn  file "C:/Users/wmj/Desktop/BM1000_v1.1/sw/modules/ctrl/src/32b/ctrl.c",line 667,column 3,is_s
     646 00000009 9292          MOV       AL,*+XAR2[AR0]        ; [CPU_] |667| 
     647 0000000a 6022          B         $C$L2,NEQ             ; [CPU_] |667| 
     648                      ; branchcc occurs ; [] |667| 
TMS320C2000 Assembler PC v15.12.3 Wed Nov 22 00:56:17 2017

Tools Copyright (c) 1996-2015 Texas Instruments Incorporated
C:\Users\wmj\AppData\Local\Temp\0070810                              PAGE   13

     649 0000000b 9241          MOV       AL,*-SP[1]            ; [CPU_] 
     650                      .dwpsn  file "C:/Users/wmj/Desktop/BM1000_v1.1/sw/modules/ctrl/src/32b/ctrl.c",line 772,column 7,is_s
     651 0000000c D018          MOVB      XAR0,#24              ; [CPU_] |772| 
     652                      .dwpsn  file "C:/Users/wmj/Desktop/BM1000_v1.1/sw/modules/ctrl/src/32b/ctrl.h",line 1842,column 3,is_
     653 0000000d 96EA          MOV       *+XAR2[5],AL          ; [CPU_] |1842| 
     654                      .dwpsn  file "C:/Users/wmj/Desktop/BM1000_v1.1/sw/modules/ctrl/src/32b/ctrl.h",line 1843,column 3,is_
     655 0000000e 56BF          MOVB      *+XAR2[4],#1,UNC      ; [CPU_] |1843| 
         0000000f 01E2 
     656                      .dwpsn  file "C:/Users/wmj/Desktop/BM1000_v1.1/sw/modules/ctrl/src/32b/ctrl.c",line 772,column 7,is_s
     657 00000010 8A92          MOVL      XAR4,*+XAR2[AR0]      ; [CPU_] |772| 
     658              $C$DW$99        .dwtag  DW_TAG_TI_branch
     659                      .dwattr $C$DW$99, DW_AT_low_pc(0x00)
     660                      .dwattr $C$DW$99, DW_AT_name("_EST_isLockRotor")
     661                      .dwattr $C$DW$99, DW_AT_TI_call
     662              
     663 00000011 7640!         LCR       #_EST_isLockRotor     ; [CPU_] |772| 
         00000012 0000 
     664                      ; call occurs [#_EST_isLockRotor] ; [] |772| 
     665 00000013 5200          CMPB      AL,#0                 ; [CPU_] |772| 
     666 00000014 FFE0          B         $C$L12,NEQ            ; [CPU_] |772| 
         00000015 0094 
     667                      ; branchcc occurs ; [] |772| 
     668                      .dwpsn  file "C:/Users/wmj/Desktop/BM1000_v1.1/sw/modules/ctrl/src/32b/ctrl.c",line 774,column 11,is_
     669 00000016 D018          MOVB      XAR0,#24              ; [CPU_] |774| 
     670 00000017 8A92          MOVL      XAR4,*+XAR2[AR0]      ; [CPU_] |774| 
     671              $C$DW$100       .dwtag  DW_TAG_TI_branch
     672                      .dwattr $C$DW$100, DW_AT_low_pc(0x00)
     673                      .dwattr $C$DW$100, DW_AT_name("_EST_isMotorIdentified")
     674                      .dwattr $C$DW$100, DW_AT_TI_call
     675              
     676 00000018 7640!         LCR       #_EST_isMotorIdentified ; [CPU_] |774| 
         00000019 0000 
     677                      ; call occurs [#_EST_isMotorIdentified] ; [] |774| 
     678 0000001a 5200          CMPB      AL,#0                 ; [CPU_] |774| 
     679 0000001b 600C          B         $C$L1,NEQ             ; [CPU_] |774| 
     680                      ; branchcc occurs ; [] |774| 
     681                      .dwpsn  file "C:/Users/wmj/Desktop/BM1000_v1.1/sw/modules/ctrl/src/32b/ctrl.c",line 780,column 15,is_
     682 0000001c D018          MOVB      XAR0,#24              ; [CPU_] |780| 
     683 0000001d 8A92          MOVL      XAR4,*+XAR2[AR0]      ; [CPU_] |780| 
     684              $C$DW$101       .dwtag  DW_TAG_TI_branch
     685                      .dwattr $C$DW$101, DW_AT_low_pc(0x00)
     686                      .dwattr $C$DW$101, DW_AT_name("_EST_setIdle_all")
     687                      .dwattr $C$DW$101, DW_AT_TI_call
     688              
     689 0000001e 7640!         LCR       #_EST_setIdle_all     ; [CPU_] |780| 
         0000001f 0000 
     690                      ; call occurs [#_EST_setIdle_all] ; [] |780| 
     691                      .dwpsn  file "C:/Users/wmj/Desktop/BM1000_v1.1/sw/modules/ctrl/src/32b/ctrl.c",line 782,column 15,is_
     692 00000020 D018          MOVB      XAR0,#24              ; [CPU_] |782| 
     693 00000021 0200          MOVB      ACC,#0                ; [CPU_] |782| 
     694 00000022 8A92          MOVL      XAR4,*+XAR2[AR0]      ; [CPU_] |782| 
     695              $C$DW$102       .dwtag  DW_TAG_TI_branch
     696                      .dwattr $C$DW$102, DW_AT_low_pc(0x00)
     697                      .dwattr $C$DW$102, DW_AT_name("_EST_setRs_pu")
     698                      .dwattr $C$DW$102, DW_AT_TI_call
TMS320C2000 Assembler PC v15.12.3 Wed Nov 22 00:56:17 2017

Tools Copyright (c) 1996-2015 Texas Instruments Incorporated
C:\Users\wmj\AppData\Local\Temp\0070810                              PAGE   14

     699              
     700 00000023 7640!         LCR       #_EST_setRs_pu        ; [CPU_] |782| 
         00000024 0000 
     701                      ; call occurs [#_EST_setRs_pu] ; [] |782| 
     702 00000025 FFEF          B         $C$L12,UNC            ; [CPU_] |782| 
         00000026 0083 
     703                      ; branch occurs ; [] |782| 
     704 00000027       $C$L1:    
     705                      .dwpsn  file "C:/Users/wmj/Desktop/BM1000_v1.1/sw/modules/ctrl/src/32b/ctrl.c",line 776,column 15,is_
     706 00000027 D018          MOVB      XAR0,#24              ; [CPU_] |776| 
     707 00000028 8A92          MOVL      XAR4,*+XAR2[AR0]      ; [CPU_] |776| 
     708              $C$DW$103       .dwtag  DW_TAG_TI_branch
     709                      .dwattr $C$DW$103, DW_AT_low_pc(0x00)
     710                      .dwattr $C$DW$103, DW_AT_name("_EST_setIdle")
     711                      .dwattr $C$DW$103, DW_AT_TI_call
     712              
     713 00000029 7640!         LCR       #_EST_setIdle         ; [CPU_] |776| 
         0000002a 0000 
     714                      ; call occurs [#_EST_setIdle] ; [] |776| 
     715                      .dwpsn  file "C:/Users/wmj/Desktop/BM1000_v1.1/sw/modules/ctrl/src/32b/ctrl.c",line 777,column 13,is_
     716 0000002b 6F7D          B         $C$L12,UNC            ; [CPU_] |777| 
     717                      ; branch occurs ; [] |777| 
     718 0000002c       $C$L2:    
     719 0000002c 9241          MOV       AL,*-SP[1]            ; [CPU_] 
     720 0000002d 2901          CLRC      SXM                   ; [CPU_] 
     721                      .dwpsn  file "C:/Users/wmj/Desktop/BM1000_v1.1/sw/modules/ctrl/src/32b/ctrl.h",line 974,column 3,is_s
     722 0000002e 5603          MOV       ACC,AL << 1           ; [CPU_] |974| 
         0000002f 01A9 
     723 00000030 07A2          ADDL      ACC,XAR2              ; [CPU_] |974| 
     724 00000031 8AA9          MOVL      XAR4,ACC              ; [CPU_] |974| 
     725 00000032 D092          MOVB      XAR0,#146             ; [CPU_] |974| 
     726 00000033 0694          MOVL      ACC,*+XAR4[AR0]       ; [CPU_] |974| 
     727                      .dwpsn  file "C:/Users/wmj/Desktop/BM1000_v1.1/sw/modules/ctrl/src/32b/ctrl.h",line 169,column 3,is_s
     728 00000034 D09A          MOVB      XAR0,#154             ; [CPU_] |169| 
     729                      .dwpsn  file "C:/Users/wmj/Desktop/BM1000_v1.1/sw/modules/ctrl/src/32b/ctrl.h",line 974,column 3,is_s
     730 00000035 1E44          MOVL      *-SP[4],ACC           ; [CPU_] |974| 
     731                      .dwpsn  file "C:/Users/wmj/Desktop/BM1000_v1.1/sw/modules/ctrl/src/32b/ctrl.h",line 169,column 3,is_s
     732 00000036 8292          MOVL      XAR3,*+XAR2[AR0]      ; [CPU_] |169| 
     733                      .dwpsn  file "C:/Users/wmj/Desktop/BM1000_v1.1/sw/modules/ctrl/src/32b/ctrl.h",line 2053,column 3,is_
     734 00000037 D018          MOVB      XAR0,#24              ; [CPU_] |2053| 
     735 00000038 8A92          MOVL      XAR4,*+XAR2[AR0]      ; [CPU_] |2053| 
     736              $C$DW$104       .dwtag  DW_TAG_TI_branch
     737                      .dwattr $C$DW$104, DW_AT_low_pc(0x00)
     738                      .dwattr $C$DW$104, DW_AT_name("_EST_isError")
     739                      .dwattr $C$DW$104, DW_AT_TI_call
     740              
     741 00000039 7640!         LCR       #_EST_isError         ; [CPU_] |2053| 
         0000003a 0000 
     742                      ; call occurs [#_EST_isError] ; [] |2053| 
     743 0000003b 5200          CMPB      AL,#0                 ; [CPU_] |2053| 
     744 0000003c 6106          B         $C$L3,EQ              ; [CPU_] |2053| 
     745                      ; branchcc occurs ; [] |2053| 
     746                      .dwpsn  file "C:/Users/wmj/Desktop/BM1000_v1.1/sw/modules/ctrl/src/32b/ctrl.h",line 1842,column 3,is_
     747 0000003d 92E2          MOV       AL,*+XAR2[4]          ; [CPU_] |1842| 
     748 0000003e 96EA          MOV       *+XAR2[5],AL          ; [CPU_] |1842| 
TMS320C2000 Assembler PC v15.12.3 Wed Nov 22 00:56:17 2017

Tools Copyright (c) 1996-2015 Texas Instruments Incorporated
C:\Users\wmj\AppData\Local\Temp\0070810                              PAGE   15

     749                      .dwpsn  file "C:/Users/wmj/Desktop/BM1000_v1.1/sw/modules/ctrl/src/32b/ctrl.h",line 1843,column 3,is_
     750 0000003f 2BE2          MOV       *+XAR2[4],#0          ; [CPU_] |1843| 
     751                      .dwpsn  file "C:/Users/wmj/Desktop/BM1000_v1.1/sw/modules/ctrl/src/32b/ctrl.h",line 1230,column 3,is_
     752 00000040 56BF          MOVB      *+XAR2[6],#2,UNC      ; [CPU_] |1230| 
         00000041 02F2 
     753 00000042       $C$L3:    
     754 00000042 0644          MOVL      ACC,*-SP[4]           ; [CPU_] 
     755                      .dwpsn  file "C:/Users/wmj/Desktop/BM1000_v1.1/sw/modules/ctrl/src/32b/ctrl.c",line 677,column 7,is_s
     756 00000043 0FA3          CMPL      ACC,XAR3              ; [CPU_] |677| 
     757 00000044 6664          B         $C$L12,HI             ; [CPU_] |677| 
     758                      ; branchcc occurs ; [] |677| 
     759                      .dwpsn  file "C:/Users/wmj/Desktop/BM1000_v1.1/sw/modules/ctrl/src/32b/ctrl.h",line 1148,column 3,is_
     760 00000045 D09A          MOVB      XAR0,#154             ; [CPU_] |1148| 
     761 00000046 0200          MOVB      ACC,#0                ; [CPU_] |1148| 
     762 00000047 1E92          MOVL      *+XAR2[AR0],ACC       ; [CPU_] |1148| 
     763 00000048 9241          MOV       AL,*-SP[1]            ; [CPU_] |1148| 
     764                      .dwpsn  file "C:/Users/wmj/Desktop/BM1000_v1.1/sw/modules/ctrl/src/32b/ctrl.c",line 683,column 11,is_
     765 00000049 5203          CMPB      AL,#3                 ; [CPU_] |683| 
     766 0000004a 612E          B         $C$L8,EQ              ; [CPU_] |683| 
     767                      ; branchcc occurs ; [] |683| 
     768                      .dwpsn  file "C:/Users/wmj/Desktop/BM1000_v1.1/sw/modules/ctrl/src/32b/ctrl.c",line 716,column 16,is_
     769 0000004b 5202          CMPB      AL,#2                 ; [CPU_] |716| 
     770 0000004c 6127          B         $C$L7,EQ              ; [CPU_] |716| 
     771                      ; branchcc occurs ; [] |716| 
     772                      .dwpsn  file "C:/Users/wmj/Desktop/BM1000_v1.1/sw/modules/ctrl/src/32b/ctrl.c",line 721,column 16,is_
     773 0000004d 5201          CMPB      AL,#1                 ; [CPU_] |721| 
     774 0000004e 605A          B         $C$L12,NEQ            ; [CPU_] |721| 
     775                      ; branchcc occurs ; [] |721| 
     776                      .dwpsn  file "C:/Users/wmj/Desktop/BM1000_v1.1/sw/modules/ctrl/src/32b/ctrl.c",line 726,column 15,is_
     777 0000004f D0F5          MOVB      XAR0,#245             ; [CPU_] |726| 
     778 00000050 9292          MOV       AL,*+XAR2[AR0]        ; [CPU_] |726| 
     779 00000051 6104          B         $C$L4,EQ              ; [CPU_] |726| 
     780                      ; branchcc occurs ; [] |726| 
     781                      .dwpsn  file "C:/Users/wmj/Desktop/BM1000_v1.1/sw/modules/ctrl/src/32b/ctrl.c",line 729,column 19,is_
     782 00000052 8AA2          MOVL      XAR4,XAR2             ; [CPU_] |729| 
     783              $C$DW$105       .dwtag  DW_TAG_TI_branch
     784                      .dwattr $C$DW$105, DW_AT_low_pc(0x00)
     785                      .dwattr $C$DW$105, DW_AT_name("_CTRL_setUserMotorParams")
     786                      .dwattr $C$DW$105, DW_AT_TI_call
     787              
     788 00000053 7640!         LCR       #_CTRL_setUserMotorParams ; [CPU_] |729| 
         00000054 0000 
     789                      ; call occurs [#_CTRL_setUserMotorParams] ; [] |729| 
     790 00000055       $C$L4:    
     791                      .dwpsn  file "C:/Users/wmj/Desktop/BM1000_v1.1/sw/modules/ctrl/src/32b/ctrl.c",line 732,column 15,is_
     792 00000055 D018          MOVB      XAR0,#24              ; [CPU_] |732| 
     793 00000056 8A92          MOVL      XAR4,*+XAR2[AR0]      ; [CPU_] |732| 
     794              $C$DW$106       .dwtag  DW_TAG_TI_branch
     795                      .dwattr $C$DW$106, DW_AT_low_pc(0x00)
     796                      .dwattr $C$DW$106, DW_AT_name("_EST_isIdle")
     797                      .dwattr $C$DW$106, DW_AT_TI_call
     798              
     799 00000057 7640!         LCR       #_EST_isIdle          ; [CPU_] |732| 
         00000058 0000 
     800                      ; call occurs [#_EST_isIdle] ; [] |732| 
TMS320C2000 Assembler PC v15.12.3 Wed Nov 22 00:56:17 2017

Tools Copyright (c) 1996-2015 Texas Instruments Incorporated
C:\Users\wmj\AppData\Local\Temp\0070810                              PAGE   16

     801 00000059 5200          CMPB      AL,#0                 ; [CPU_] |732| 
     802 0000005a 6008          B         $C$L5,NEQ             ; [CPU_] |732| 
     803                      ; branchcc occurs ; [] |732| 
     804                      .dwpsn  file "C:/Users/wmj/Desktop/BM1000_v1.1/sw/modules/ctrl/src/32b/ctrl.c",line 756,column 20,is_
     805 0000005b D018          MOVB      XAR0,#24              ; [CPU_] |756| 
     806 0000005c 8A92          MOVL      XAR4,*+XAR2[AR0]      ; [CPU_] |756| 
     807              $C$DW$107       .dwtag  DW_TAG_TI_branch
     808                      .dwattr $C$DW$107, DW_AT_low_pc(0x00)
     809                      .dwattr $C$DW$107, DW_AT_name("_EST_isLockRotor")
     810                      .dwattr $C$DW$107, DW_AT_TI_call
     811              
     812 0000005d 7640!         LCR       #_EST_isLockRotor     ; [CPU_] |756| 
         0000005e 0000 
     813                      ; call occurs [#_EST_isLockRotor] ; [] |756| 
     814 0000005f 5200          CMPB      AL,#0                 ; [CPU_] |756| 
     815 00000060 6013          B         $C$L7,NEQ             ; [CPU_] |756| 
     816                      ; branchcc occurs ; [] |756| 
     817 00000061 6F47          B         $C$L12,UNC            ; [CPU_] |756| 
     818                      ; branch occurs ; [] |756| 
     819 00000062       $C$L5:    
     820                      .dwpsn  file "C:/Users/wmj/Desktop/BM1000_v1.1/sw/modules/ctrl/src/32b/ctrl.c",line 735,column 19,is_
     821 00000062 8AA2          MOVL      XAR4,XAR2             ; [CPU_] |735| 
     822              $C$DW$108       .dwtag  DW_TAG_TI_branch
     823                      .dwattr $C$DW$108, DW_AT_low_pc(0x00)
     824                      .dwattr $C$DW$108, DW_AT_name("_CTRL_setupEstIdleState")
     825                      .dwattr $C$DW$108, DW_AT_TI_call
     826              
     827 00000063 7640!         LCR       #_CTRL_setupEstIdleState ; [CPU_] |735| 
         00000064 0000 
     828                      ; call occurs [#_CTRL_setupEstIdleState] ; [] |735| 
     829                      .dwpsn  file "C:/Users/wmj/Desktop/BM1000_v1.1/sw/modules/ctrl/src/32b/ctrl.c",line 737,column 19,is_
     830 00000065 D018          MOVB      XAR0,#24              ; [CPU_] |737| 
     831 00000066 8A92          MOVL      XAR4,*+XAR2[AR0]      ; [CPU_] |737| 
     832              $C$DW$109       .dwtag  DW_TAG_TI_branch
     833                      .dwattr $C$DW$109, DW_AT_low_pc(0x00)
     834                      .dwattr $C$DW$109, DW_AT_name("_EST_isMotorIdentified")
     835                      .dwattr $C$DW$109, DW_AT_TI_call
     836              
     837 00000067 7640!         LCR       #_EST_isMotorIdentified ; [CPU_] |737| 
         00000068 0000 
     838                      ; call occurs [#_EST_isMotorIdentified] ; [] |737| 
     839 00000069 5200          CMPB      AL,#0                 ; [CPU_] |737| 
     840 0000006a 6104          B         $C$L6,EQ              ; [CPU_] |737| 
     841                      ; branchcc occurs ; [] |737| 
     842 0000006b D0F3          MOVB      XAR0,#243             ; [CPU_] |737| 
     843 0000006c 9292          MOV       AL,*+XAR2[AR0]        ; [CPU_] |737| 
     844 0000006d 6106          B         $C$L7,EQ              ; [CPU_] |737| 
     845                      ; branchcc occurs ; [] |737| 
     846 0000006e       $C$L6:    
     847                      .dwpsn  file "C:/Users/wmj/Desktop/BM1000_v1.1/sw/modules/ctrl/src/32b/ctrl.h",line 1842,column 3,is_
     848 0000006e 92E2          MOV       AL,*+XAR2[4]          ; [CPU_] |1842| 
     849 0000006f 96EA          MOV       *+XAR2[5],AL          ; [CPU_] |1842| 
     850                      .dwpsn  file "C:/Users/wmj/Desktop/BM1000_v1.1/sw/modules/ctrl/src/32b/ctrl.h",line 1843,column 3,is_
     851 00000070 56BF          MOVB      *+XAR2[4],#2,UNC      ; [CPU_] |1843| 
         00000071 02E2 
TMS320C2000 Assembler PC v15.12.3 Wed Nov 22 00:56:17 2017

Tools Copyright (c) 1996-2015 Texas Instruments Incorporated
C:\Users\wmj\AppData\Local\Temp\0070810                              PAGE   17

     852                      .dwpsn  file "C:/Users/wmj/Desktop/BM1000_v1.1/sw/modules/ctrl/src/32b/ctrl.h",line 1845,column 3,is_
     853 00000072 6F36          B         $C$L12,UNC            ; [CPU_] |1845| 
     854                      ; branch occurs ; [] |1845| 
     855 00000073       $C$L7:    
     856                      .dwpsn  file "C:/Users/wmj/Desktop/BM1000_v1.1/sw/modules/ctrl/src/32b/ctrl.h",line 1842,column 3,is_
     857 00000073 92E2          MOV       AL,*+XAR2[4]          ; [CPU_] |1842| 
     858 00000074 96EA          MOV       *+XAR2[5],AL          ; [CPU_] |1842| 
     859                      .dwpsn  file "C:/Users/wmj/Desktop/BM1000_v1.1/sw/modules/ctrl/src/32b/ctrl.h",line 1843,column 3,is_
     860 00000075 56BF          MOVB      *+XAR2[4],#3,UNC      ; [CPU_] |1843| 
         00000076 03E2 
     861                      .dwpsn  file "C:/Users/wmj/Desktop/BM1000_v1.1/sw/modules/ctrl/src/32b/ctrl.h",line 1845,column 3,is_
     862 00000077 6F31          B         $C$L12,UNC            ; [CPU_] |1845| 
     863                      ; branch occurs ; [] |1845| 
     864 00000078       $C$L8:    
     865                      .dwpsn  file "C:/Users/wmj/Desktop/BM1000_v1.1/sw/modules/ctrl/src/32b/ctrl.c",line 689,column 41,is_
     866 00000078 D018          MOVB      XAR0,#24              ; [CPU_] |689| 
     867 00000079 8A92          MOVL      XAR4,*+XAR2[AR0]      ; [CPU_] |689| 
     868 0000007a D060          MOVB      XAR0,#96              ; [CPU_] |689| 
     869 0000007b 8392          MOVL      XAR5,*+XAR2[AR0]      ; [CPU_] |689| 
     870 0000007c 06C5          MOVL      ACC,*+XAR5[0]         ; [CPU_] |689| 
     871              $C$DW$110       .dwtag  DW_TAG_TI_branch
     872                      .dwattr $C$DW$110, DW_AT_low_pc(0x00)
     873                      .dwattr $C$DW$110, DW_AT_name("_EST_updateState")
     874                      .dwattr $C$DW$110, DW_AT_TI_call
     875              
     876 0000007d 7640!         LCR       #_EST_updateState     ; [CPU_] |689| 
         0000007e 0000 
     877                      ; call occurs [#_EST_updateState] ; [] |689| 
     878 0000007f 5200          CMPB      AL,#0                 ; [CPU_] |689| 
     879 00000080 6107          B         $C$L9,EQ              ; [CPU_] |689| 
     880                      ; branchcc occurs ; [] |689| 
     881                      .dwpsn  file "C:/Users/wmj/Desktop/BM1000_v1.1/sw/modules/ctrl/src/32b/ctrl.c",line 694,column 19,is_
     882 00000081 8AA2          MOVL      XAR4,XAR2             ; [CPU_] |694| 
     883              $C$DW$111       .dwtag  DW_TAG_TI_branch
     884                      .dwattr $C$DW$111, DW_AT_low_pc(0x00)
     885                      .dwattr $C$DW$111, DW_AT_name("_CTRL_setupCtrl")
     886                      .dwattr $C$DW$111, DW_AT_TI_call
     887              
     888 00000082 7640!         LCR       #_CTRL_setupCtrl      ; [CPU_] |694| 
         00000083 0000 
     889                      ; call occurs [#_CTRL_setupCtrl] ; [] |694| 
     890                      .dwpsn  file "C:/Users/wmj/Desktop/BM1000_v1.1/sw/modules/ctrl/src/32b/ctrl.c",line 697,column 19,is_
     891 00000084 8AA2          MOVL      XAR4,XAR2             ; [CPU_] |697| 
     892              $C$DW$112       .dwtag  DW_TAG_TI_branch
     893                      .dwattr $C$DW$112, DW_AT_low_pc(0x00)
     894                      .dwattr $C$DW$112, DW_AT_name("_CTRL_setupTraj")
     895                      .dwattr $C$DW$112, DW_AT_TI_call
     896              
     897 00000085 7640!         LCR       #_CTRL_setupTraj      ; [CPU_] |697| 
         00000086 0000 
     898                      ; call occurs [#_CTRL_setupTraj] ; [] |697| 
     899 00000087       $C$L9:    
     900                      .dwpsn  file "C:/Users/wmj/Desktop/BM1000_v1.1/sw/modules/ctrl/src/32b/ctrl.c",line 700,column 15,is_
     901 00000087 D018          MOVB      XAR0,#24              ; [CPU_] |700| 
     902 00000088 8A92          MOVL      XAR4,*+XAR2[AR0]      ; [CPU_] |700| 
TMS320C2000 Assembler PC v15.12.3 Wed Nov 22 00:56:17 2017

Tools Copyright (c) 1996-2015 Texas Instruments Incorporated
C:\Users\wmj\AppData\Local\Temp\0070810                              PAGE   18

     903              $C$DW$113       .dwtag  DW_TAG_TI_branch
     904                      .dwattr $C$DW$113, DW_AT_low_pc(0x00)
     905                      .dwattr $C$DW$113, DW_AT_name("_EST_isOnLine")
     906                      .dwattr $C$DW$113, DW_AT_TI_call
     907              
     908 00000089 7640!         LCR       #_EST_isOnLine        ; [CPU_] |700| 
         0000008a 0000 
     909                      ; call occurs [#_EST_isOnLine] ; [] |700| 
     910 0000008b 5200          CMPB      AL,#0                 ; [CPU_] |700| 
     911 0000008c 6104          B         $C$L10,EQ             ; [CPU_] |700| 
     912                      ; branchcc occurs ; [] |700| 
     913                      .dwpsn  file "C:/Users/wmj/Desktop/BM1000_v1.1/sw/modules/ctrl/src/32b/ctrl.c",line 703,column 19,is_
     914 0000008d 8AA2          MOVL      XAR4,XAR2             ; [CPU_] |703| 
     915              $C$DW$114       .dwtag  DW_TAG_TI_branch
     916                      .dwattr $C$DW$114, DW_AT_low_pc(0x00)
     917                      .dwattr $C$DW$114, DW_AT_name("_CTRL_setupEstOnLineState")
     918                      .dwattr $C$DW$114, DW_AT_TI_call
     919              
     920 0000008e 7640!         LCR       #_CTRL_setupEstOnLineState ; [CPU_] |703| 
         0000008f 0000 
     921                      ; call occurs [#_CTRL_setupEstOnLineState] ; [] |703| 
     922 00000090       $C$L10:    
     923                      .dwpsn  file "C:/Users/wmj/Desktop/BM1000_v1.1/sw/modules/ctrl/src/32b/ctrl.c",line 706,column 15,is_
     924 00000090 D018          MOVB      XAR0,#24              ; [CPU_] |706| 
     925 00000091 8A92          MOVL      XAR4,*+XAR2[AR0]      ; [CPU_] |706| 
     926              $C$DW$115       .dwtag  DW_TAG_TI_branch
     927                      .dwattr $C$DW$115, DW_AT_low_pc(0x00)
     928                      .dwattr $C$DW$115, DW_AT_name("_EST_isLockRotor")
     929                      .dwattr $C$DW$115, DW_AT_TI_call
     930              
     931 00000092 7640!         LCR       #_EST_isLockRotor     ; [CPU_] |706| 
         00000093 0000 
     932                      ; call occurs [#_EST_isLockRotor] ; [] |706| 
     933 00000094 5200          CMPB      AL,#0                 ; [CPU_] |706| 
     934 00000095 600D          B         $C$L11,NEQ            ; [CPU_] |706| 
     935                      ; branchcc occurs ; [] |706| 
     936 00000096 D018          MOVB      XAR0,#24              ; [CPU_] |706| 
     937 00000097 8A92          MOVL      XAR4,*+XAR2[AR0]      ; [CPU_] |706| 
     938              $C$DW$116       .dwtag  DW_TAG_TI_branch
     939                      .dwattr $C$DW$116, DW_AT_low_pc(0x00)
     940                      .dwattr $C$DW$116, DW_AT_name("_EST_isIdle")
     941                      .dwattr $C$DW$116, DW_AT_TI_call
     942              
     943 00000098 7640!         LCR       #_EST_isIdle          ; [CPU_] |706| 
         00000099 0000 
     944                      ; call occurs [#_EST_isIdle] ; [] |706| 
     945 0000009a 5200          CMPB      AL,#0                 ; [CPU_] |706| 
     946 0000009b 610D          B         $C$L12,EQ             ; [CPU_] |706| 
     947                      ; branchcc occurs ; [] |706| 
     948 0000009c D018          MOVB      XAR0,#24              ; [CPU_] |706| 
     949 0000009d 8A92          MOVL      XAR4,*+XAR2[AR0]      ; [CPU_] |706| 
     950              $C$DW$117       .dwtag  DW_TAG_TI_branch
     951                      .dwattr $C$DW$117, DW_AT_low_pc(0x00)
     952                      .dwattr $C$DW$117, DW_AT_name("_EST_isMotorIdentified")
     953                      .dwattr $C$DW$117, DW_AT_TI_call
TMS320C2000 Assembler PC v15.12.3 Wed Nov 22 00:56:17 2017

Tools Copyright (c) 1996-2015 Texas Instruments Incorporated
C:\Users\wmj\AppData\Local\Temp\0070810                              PAGE   19

     954              
     955 0000009e 7640!         LCR       #_EST_isMotorIdentified ; [CPU_] |706| 
         0000009f 0000 
     956                      ; call occurs [#_EST_isMotorIdentified] ; [] |706| 
     957 000000a0 5200          CMPB      AL,#0                 ; [CPU_] |706| 
     958 000000a1 6107          B         $C$L12,EQ             ; [CPU_] |706| 
     959                      ; branchcc occurs ; [] |706| 
     960 000000a2       $C$L11:    
     961                      .dwpsn  file "C:/Users/wmj/Desktop/BM1000_v1.1/sw/modules/ctrl/src/32b/ctrl.h",line 1255,column 3,is_
     962 000000a2 D0F0          MOVB      XAR0,#240             ; [CPU_] |1255| 
     963 000000a3 2B92          MOV       *+XAR2[AR0],#0        ; [CPU_] |1255| 
     964                      .dwpsn  file "C:/Users/wmj/Desktop/BM1000_v1.1/sw/modules/ctrl/src/32b/ctrl.h",line 1842,column 3,is_
     965 000000a4 92E2          MOV       AL,*+XAR2[4]          ; [CPU_] |1842| 
     966 000000a5 96EA          MOV       *+XAR2[5],AL          ; [CPU_] |1842| 
     967                      .dwpsn  file "C:/Users/wmj/Desktop/BM1000_v1.1/sw/modules/ctrl/src/32b/ctrl.h",line 1843,column 3,is_
     968 000000a6 56BF          MOVB      *+XAR2[4],#1,UNC      ; [CPU_] |1843| 
         000000a7 01E2 
     969 000000a8       $C$L12:    
     970                      .dwpsn  file "C:/Users/wmj/Desktop/BM1000_v1.1/sw/modules/ctrl/src/32b/ctrl.c",line 789,column 3,is_s
     971 000000a8 8841          MOVZ      AR6,*-SP[1]           ; [CPU_] |789| 
     972 000000a9 0EE2          MOVU      ACC,*+XAR2[4]         ; [CPU_] |789| 
     973 000000aa 0FA6          CMPL      ACC,XAR6              ; [CPU_] |789| 
     974                      .dwpsn  file "C:/Users/wmj/Desktop/BM1000_v1.1/sw/modules/ctrl/src/32b/ctrl.c",line 791,column 7,is_s
     975 000000ab 56B0          MOVB      XAR1,#1,NEQ           ; [CPU_] |791| 
         000000ac 01A1 
     976 000000ad FE84          SUBB      SP,#4                 ; [CPU_U] 
     977                      .dwcfi  cfa_offset, -8
     978                      .dwpsn  file "C:/Users/wmj/Desktop/BM1000_v1.1/sw/modules/ctrl/src/32b/ctrl.c",line 794,column 3,is_s
     979 000000ae 92A1          MOV       AL,AR1                ; [CPU_] |794| 
     980 000000af 82BE          MOVL      XAR3,*--SP            ; [CPU_] 
     981                      .dwcfi  cfa_offset, -6
     982                      .dwcfi  restore_reg, 11
     983 000000b0 86BE          MOVL      XAR2,*--SP            ; [CPU_] 
     984                      .dwcfi  cfa_offset, -4
     985                      .dwcfi  restore_reg, 9
     986 000000b1 8BBE          MOVL      XAR1,*--SP            ; [CPU_] 
     987                      .dwcfi  cfa_offset, -2
     988                      .dwcfi  restore_reg, 7
     989              $C$DW$118       .dwtag  DW_TAG_TI_branch
     990                      .dwattr $C$DW$118, DW_AT_low_pc(0x00)
     991                      .dwattr $C$DW$118, DW_AT_TI_return
     992              
     993 000000b2 0006          LRETR     ; [CPU_] 
     994                      ; return occurs ; [] 
     995                      .dwattr $C$DW$92, DW_AT_TI_end_file("C:/Users/wmj/Desktop/BM1000_v1.1/sw/modules/ctrl/src/32b/ctrl.c"
     996                      .dwattr $C$DW$92, DW_AT_TI_end_line(0x31b)
     997                      .dwattr $C$DW$92, DW_AT_TI_end_column(0x01)
     998                      .dwendentry
     999                      .dwendtag $C$DW$92
    1000              
    1001 000000b3               .sect   ".text"
    1002                      .clink
    1003                      .global _CTRL_setupClarke_V
    1004              
    1005              $C$DW$119       .dwtag  DW_TAG_subprogram
TMS320C2000 Assembler PC v15.12.3 Wed Nov 22 00:56:17 2017

Tools Copyright (c) 1996-2015 Texas Instruments Incorporated
C:\Users\wmj\AppData\Local\Temp\0070810                              PAGE   20

    1006                      .dwattr $C$DW$119, DW_AT_name("CTRL_setupClarke_V")
    1007                      .dwattr $C$DW$119, DW_AT_low_pc(_CTRL_setupClarke_V)
    1008                      .dwattr $C$DW$119, DW_AT_high_pc(0x00)
    1009                      .dwattr $C$DW$119, DW_AT_TI_symbol_name("_CTRL_setupClarke_V")
    1010                      .dwattr $C$DW$119, DW_AT_external
    1011                      .dwattr $C$DW$119, DW_AT_TI_begin_file("C:/Users/wmj/Desktop/BM1000_v1.1/sw/modules/ctrl/src/32b/ctrl
    1012                      .dwattr $C$DW$119, DW_AT_TI_begin_line(0x22a)
    1013                      .dwattr $C$DW$119, DW_AT_TI_begin_column(0x06)
    1014                      .dwattr $C$DW$119, DW_AT_TI_max_frame_size(-2)
    1015                      .dwpsn  file "C:/Users/wmj/Desktop/BM1000_v1.1/sw/modules/ctrl/src/32b/ctrl.c",line 555,column 1,is_s
    1016              
    1017                      .dwfde $C$DW$CIE, _CTRL_setupClarke_V
    1018              $C$DW$120       .dwtag  DW_TAG_formal_parameter
    1019                      .dwattr $C$DW$120, DW_AT_name("handle")
    1020                      .dwattr $C$DW$120, DW_AT_TI_symbol_name("_handle")
    1021                      .dwattr $C$DW$120, DW_AT_type(*$C$DW$T$170)
    1022                      .dwattr $C$DW$120, DW_AT_location[DW_OP_reg12]
    1023              
    1024              $C$DW$121       .dwtag  DW_TAG_formal_parameter
    1025                      .dwattr $C$DW$121, DW_AT_name("numVoltageSensors")
    1026                      .dwattr $C$DW$121, DW_AT_TI_symbol_name("_numVoltageSensors")
    1027                      .dwattr $C$DW$121, DW_AT_type(*$C$DW$T$35)
    1028                      .dwattr $C$DW$121, DW_AT_location[DW_OP_reg0]
    1029              
    1030              
    1031              ;***************************************************************
    1032              ;* FNAME: _CTRL_setupClarke_V           FR SIZE:   0           *
    1033              ;*                                                             *
    1034              ;* FUNCTION ENVIRONMENT                                        *
    1035              ;*                                                             *
    1036              ;* FUNCTION PROPERTIES                                         *
    1037              ;*                            0 Parameter,  0 Auto,  0 SOE     *
    1038              ;***************************************************************
    1039              
    1040              _CTRL_setupClarke_V:
    1041              ;* AR5   assigned to _obj
    1042              $C$DW$122       .dwtag  DW_TAG_variable
    1043                      .dwattr $C$DW$122, DW_AT_name("obj")
    1044                      .dwattr $C$DW$122, DW_AT_TI_symbol_name("_obj")
    1045                      .dwattr $C$DW$122, DW_AT_type(*$C$DW$T$187)
    1046                      .dwattr $C$DW$122, DW_AT_location[DW_OP_reg14]
    1047              
    1048              ;* PL    assigned to _beta_sf
    1049              $C$DW$123       .dwtag  DW_TAG_variable
    1050                      .dwattr $C$DW$123, DW_AT_name("beta_sf")
    1051                      .dwattr $C$DW$123, DW_AT_TI_symbol_name("_beta_sf")
    1052                      .dwattr $C$DW$123, DW_AT_type(*$C$DW$T$31)
    1053                      .dwattr $C$DW$123, DW_AT_location[DW_OP_reg2]
    1054              
    1055              ;* AR6   assigned to _alpha_sf
    1056              $C$DW$124       .dwtag  DW_TAG_variable
    1057                      .dwattr $C$DW$124, DW_AT_name("alpha_sf")
    1058                      .dwattr $C$DW$124, DW_AT_TI_symbol_name("_alpha_sf")
    1059                      .dwattr $C$DW$124, DW_AT_type(*$C$DW$T$31)
    1060                      .dwattr $C$DW$124, DW_AT_location[DW_OP_reg16]
TMS320C2000 Assembler PC v15.12.3 Wed Nov 22 00:56:17 2017

Tools Copyright (c) 1996-2015 Texas Instruments Incorporated
C:\Users\wmj\AppData\Local\Temp\0070810                              PAGE   21

    1061              
    1062              ;* AL    assigned to _numVoltageSensors
    1063              $C$DW$125       .dwtag  DW_TAG_variable
    1064                      .dwattr $C$DW$125, DW_AT_name("numVoltageSensors")
    1065                      .dwattr $C$DW$125, DW_AT_TI_symbol_name("_numVoltageSensors")
    1066                      .dwattr $C$DW$125, DW_AT_type(*$C$DW$T$236)
    1067                      .dwattr $C$DW$125, DW_AT_location[DW_OP_reg0]
    1068              
    1069              ;* AR4   assigned to _handle
    1070              $C$DW$126       .dwtag  DW_TAG_variable
    1071                      .dwattr $C$DW$126, DW_AT_name("handle")
    1072                      .dwattr $C$DW$126, DW_AT_TI_symbol_name("_handle")
    1073                      .dwattr $C$DW$126, DW_AT_type(*$C$DW$T$189)
    1074                      .dwattr $C$DW$126, DW_AT_location[DW_OP_reg12]
    1075              
    1076                      .dwcfi  cfa_offset, -2
    1077                      .dwcfi  save_reg_to_mem, 26, 0
    1078                      .dwpsn  file "C:/Users/wmj/Desktop/BM1000_v1.1/sw/modules/ctrl/src/32b/ctrl.c",line 561,column 3,is_s
    1079 000000b3 5203          CMPB      AL,#3                 ; [CPU_] |561| 
    1080 000000b4 6104          B         $C$L13,EQ             ; [CPU_] |561| 
    1081                      ; branchcc occurs ; [] |561| 
    1082                      .dwpsn  file "C:/Users/wmj/Desktop/BM1000_v1.1/sw/modules/ctrl/src/32b/ctrl.c",line 568,column 7,is_s
    1083 000000b5 BE00          MOVB      XAR6,#0               ; [CPU_] |568| 
    1084                      .dwpsn  file "C:/Users/wmj/Desktop/BM1000_v1.1/sw/modules/ctrl/src/32b/ctrl.c",line 569,column 7,is_s
    1085 000000b6 3100          MOV       P,#0                  ; [CPU_] |569| 
    1086 000000b7 6F0A          B         $C$L14,UNC            ; [CPU_] |569| 
    1087                      ; branch occurs ; [] |569| 
    1088 000000b8       $C$L13:    
    1089                      .dwpsn  file "C:/Users/wmj/Desktop/BM1000_v1.1/sw/modules/ctrl/src/32b/ctrl.c",line 563,column 7,is_s
    1090 000000b8 28AB          MOV       PL,#21845             ; [CPU_] |563| 
         000000b9 5555 
    1091 000000ba 28AA          MOV       PH,#85                ; [CPU_] |563| 
         000000bb 0055 
    1092 000000bc A9A6          MOVL      XAR6,P                ; [CPU_] |563| 
    1093                      .dwpsn  file "C:/Users/wmj/Desktop/BM1000_v1.1/sw/modules/ctrl/src/32b/ctrl.c",line 564,column 7,is_s
    1094 000000bd 28AB          MOV       PL,#52538             ; [CPU_] |564| 
         000000be CD3A 
    1095 000000bf 28AA          MOV       PH,#147               ; [CPU_] |564| 
         000000c0 0093 
    1096 000000c1       $C$L14:    
    1097                      .dwpsn  file "C:/Users/wmj/Desktop/BM1000_v1.1/sw/modules/clarke/src/32b/clarke.h",line 182,column 19
    1098 000000c1 D010          MOVB      XAR0,#16              ; [CPU_] |182| 
    1099 000000c2 8394          MOVL      XAR5,*+XAR4[AR0]      ; [CPU_] |182| 
    1100                      .dwpsn  file "C:/Users/wmj/Desktop/BM1000_v1.1/sw/modules/clarke/src/32b/clarke.h",line 170,column 3,
    1101 000000c3 D010          MOVB      XAR0,#16              ; [CPU_] |170| 
    1102                      .dwpsn  file "C:/Users/wmj/Desktop/BM1000_v1.1/sw/modules/clarke/src/32b/clarke.h",line 185,column 3,
    1103 000000c4 C2C5          MOVL      *+XAR5[0],XAR6        ; [CPU_] |185| 
    1104                      .dwpsn  file "C:/Users/wmj/Desktop/BM1000_v1.1/sw/modules/clarke/src/32b/clarke.h",line 186,column 3,
    1105 000000c5 A9D5          MOVL      *+XAR5[2],P           ; [CPU_] |186| 
    1106                      .dwpsn  file "C:/Users/wmj/Desktop/BM1000_v1.1/sw/modules/clarke/src/32b/clarke.h",line 170,column 3,
    1107 000000c6 8A94          MOVL      XAR4,*+XAR4[AR0]      ; [CPU_] |170| 
    1108 000000c7 96E4          MOV       *+XAR4[4],AL          ; [CPU_] |170| 
    1109              $C$DW$127       .dwtag  DW_TAG_TI_branch
    1110                      .dwattr $C$DW$127, DW_AT_low_pc(0x00)
    1111                      .dwattr $C$DW$127, DW_AT_TI_return
TMS320C2000 Assembler PC v15.12.3 Wed Nov 22 00:56:17 2017

Tools Copyright (c) 1996-2015 Texas Instruments Incorporated
C:\Users\wmj\AppData\Local\Temp\0070810                              PAGE   22

    1112              
    1113 000000c8 0006          LRETR     ; [CPU_] 
    1114                      ; return occurs ; [] 
    1115                      .dwattr $C$DW$119, DW_AT_TI_end_file("C:/Users/wmj/Desktop/BM1000_v1.1/sw/modules/ctrl/src/32b/ctrl.c
    1116                      .dwattr $C$DW$119, DW_AT_TI_end_line(0x241)
    1117                      .dwattr $C$DW$119, DW_AT_TI_end_column(0x01)
    1118                      .dwendentry
    1119                      .dwendtag $C$DW$119
    1120              
    1121 000000c9               .sect   ".text"
    1122                      .clink
    1123                      .global _CTRL_setupClarke_I
    1124              
    1125              $C$DW$128       .dwtag  DW_TAG_subprogram
    1126                      .dwattr $C$DW$128, DW_AT_name("CTRL_setupClarke_I")
    1127                      .dwattr $C$DW$128, DW_AT_low_pc(_CTRL_setupClarke_I)
    1128                      .dwattr $C$DW$128, DW_AT_high_pc(0x00)
    1129                      .dwattr $C$DW$128, DW_AT_TI_symbol_name("_CTRL_setupClarke_I")
    1130                      .dwattr $C$DW$128, DW_AT_external
    1131                      .dwattr $C$DW$128, DW_AT_TI_begin_file("C:/Users/wmj/Desktop/BM1000_v1.1/sw/modules/ctrl/src/32b/ctrl
    1132                      .dwattr $C$DW$128, DW_AT_TI_begin_line(0x20b)
    1133                      .dwattr $C$DW$128, DW_AT_TI_begin_column(0x06)
    1134                      .dwattr $C$DW$128, DW_AT_TI_max_frame_size(-2)
    1135                      .dwpsn  file "C:/Users/wmj/Desktop/BM1000_v1.1/sw/modules/ctrl/src/32b/ctrl.c",line 524,column 1,is_s
    1136              
    1137                      .dwfde $C$DW$CIE, _CTRL_setupClarke_I
    1138              $C$DW$129       .dwtag  DW_TAG_formal_parameter
    1139                      .dwattr $C$DW$129, DW_AT_name("handle")
    1140                      .dwattr $C$DW$129, DW_AT_TI_symbol_name("_handle")
    1141                      .dwattr $C$DW$129, DW_AT_type(*$C$DW$T$170)
    1142                      .dwattr $C$DW$129, DW_AT_location[DW_OP_reg12]
    1143              
    1144              $C$DW$130       .dwtag  DW_TAG_formal_parameter
    1145                      .dwattr $C$DW$130, DW_AT_name("numCurrentSensors")
    1146                      .dwattr $C$DW$130, DW_AT_TI_symbol_name("_numCurrentSensors")
    1147                      .dwattr $C$DW$130, DW_AT_type(*$C$DW$T$35)
    1148                      .dwattr $C$DW$130, DW_AT_location[DW_OP_reg0]
    1149              
    1150              
    1151              ;***************************************************************
    1152              ;* FNAME: _CTRL_setupClarke_I           FR SIZE:   0           *
    1153              ;*                                                             *
    1154              ;* FUNCTION ENVIRONMENT                                        *
    1155              ;*                                                             *
    1156              ;* FUNCTION PROPERTIES                                         *
    1157              ;*                            0 Parameter,  0 Auto,  0 SOE     *
    1158              ;***************************************************************
    1159              
    1160              _CTRL_setupClarke_I:
    1161              ;* AR5   assigned to _obj
    1162              $C$DW$131       .dwtag  DW_TAG_variable
    1163                      .dwattr $C$DW$131, DW_AT_name("obj")
    1164                      .dwattr $C$DW$131, DW_AT_TI_symbol_name("_obj")
    1165                      .dwattr $C$DW$131, DW_AT_type(*$C$DW$T$187)
    1166                      .dwattr $C$DW$131, DW_AT_location[DW_OP_reg14]
TMS320C2000 Assembler PC v15.12.3 Wed Nov 22 00:56:17 2017

Tools Copyright (c) 1996-2015 Texas Instruments Incorporated
C:\Users\wmj\AppData\Local\Temp\0070810                              PAGE   23

    1167              
    1168              ;* PL    assigned to _beta_sf
    1169              $C$DW$132       .dwtag  DW_TAG_variable
    1170                      .dwattr $C$DW$132, DW_AT_name("beta_sf")
    1171                      .dwattr $C$DW$132, DW_AT_TI_symbol_name("_beta_sf")
    1172                      .dwattr $C$DW$132, DW_AT_type(*$C$DW$T$31)
    1173                      .dwattr $C$DW$132, DW_AT_location[DW_OP_reg2]
    1174              
    1175              ;* AR6   assigned to _alpha_sf
    1176              $C$DW$133       .dwtag  DW_TAG_variable
    1177                      .dwattr $C$DW$133, DW_AT_name("alpha_sf")
    1178                      .dwattr $C$DW$133, DW_AT_TI_symbol_name("_alpha_sf")
    1179                      .dwattr $C$DW$133, DW_AT_type(*$C$DW$T$31)
    1180                      .dwattr $C$DW$133, DW_AT_location[DW_OP_reg16]
    1181              
    1182              ;* AL    assigned to _numCurrentSensors
    1183              $C$DW$134       .dwtag  DW_TAG_variable
    1184                      .dwattr $C$DW$134, DW_AT_name("numCurrentSensors")
    1185                      .dwattr $C$DW$134, DW_AT_TI_symbol_name("_numCurrentSensors")
    1186                      .dwattr $C$DW$134, DW_AT_type(*$C$DW$T$236)
    1187                      .dwattr $C$DW$134, DW_AT_location[DW_OP_reg0]
    1188              
    1189              ;* AR4   assigned to _handle
    1190              $C$DW$135       .dwtag  DW_TAG_variable
    1191                      .dwattr $C$DW$135, DW_AT_name("handle")
    1192                      .dwattr $C$DW$135, DW_AT_TI_symbol_name("_handle")
    1193                      .dwattr $C$DW$135, DW_AT_type(*$C$DW$T$189)
    1194                      .dwattr $C$DW$135, DW_AT_location[DW_OP_reg12]
    1195              
    1196                      .dwcfi  cfa_offset, -2
    1197                      .dwcfi  save_reg_to_mem, 26, 0
    1198                      .dwpsn  file "C:/Users/wmj/Desktop/BM1000_v1.1/sw/modules/ctrl/src/32b/ctrl.c",line 530,column 3,is_s
    1199 000000c9 5203          CMPB      AL,#3                 ; [CPU_] |530| 
    1200 000000ca 610A          B         $C$L16,EQ             ; [CPU_] |530| 
    1201                      ; branchcc occurs ; [] |530| 
    1202                      .dwpsn  file "C:/Users/wmj/Desktop/BM1000_v1.1/sw/modules/ctrl/src/32b/ctrl.c",line 535,column 8,is_s
    1203 000000cb 5202          CMPB      AL,#2                 ; [CPU_] |535| 
    1204 000000cc 6104          B         $C$L15,EQ             ; [CPU_] |535| 
    1205                      ; branchcc occurs ; [] |535| 
    1206                      .dwpsn  file "C:/Users/wmj/Desktop/BM1000_v1.1/sw/modules/ctrl/src/32b/ctrl.c",line 542,column 7,is_s
    1207 000000cd BE00          MOVB      XAR6,#0               ; [CPU_] |542| 
    1208                      .dwpsn  file "C:/Users/wmj/Desktop/BM1000_v1.1/sw/modules/ctrl/src/32b/ctrl.c",line 543,column 7,is_s
    1209 000000ce 3100          MOV       P,#0                  ; [CPU_] |543| 
    1210 000000cf 6F0E          B         $C$L18,UNC            ; [CPU_] |543| 
    1211                      ; branch occurs ; [] |543| 
    1212 000000d0       $C$L15:    
    1213                      .dwpsn  file "C:/Users/wmj/Desktop/BM1000_v1.1/sw/modules/ctrl/src/32b/ctrl.c",line 537,column 7,is_s
    1214 000000d0 2BAB          MOV       PL,#0                 ; [CPU_] |537| 
    1215 000000d1 28AA          MOV       PH,#256               ; [CPU_] |537| 
         000000d2 0100 
    1216                      .dwpsn  file "C:/Users/wmj/Desktop/BM1000_v1.1/sw/modules/ctrl/src/32b/ctrl.c",line 539,column 5,is_s
    1217 000000d3 6F05          B         $C$L17,UNC            ; [CPU_] |539| 
    1218                      ; branch occurs ; [] |539| 
    1219 000000d4       $C$L16:    
    1220                      .dwpsn  file "C:/Users/wmj/Desktop/BM1000_v1.1/sw/modules/ctrl/src/32b/ctrl.c",line 532,column 7,is_s
TMS320C2000 Assembler PC v15.12.3 Wed Nov 22 00:56:17 2017

Tools Copyright (c) 1996-2015 Texas Instruments Incorporated
C:\Users\wmj\AppData\Local\Temp\0070810                              PAGE   24

    1221 000000d4 28AB          MOV       PL,#21845             ; [CPU_] |532| 
         000000d5 5555 
    1222 000000d6 28AA          MOV       PH,#85                ; [CPU_] |532| 
         000000d7 0055 
    1223 000000d8       $C$L17:    
    1224 000000d8 A9A6          MOVL      XAR6,P                ; [CPU_] |532| 
    1225                      .dwpsn  file "C:/Users/wmj/Desktop/BM1000_v1.1/sw/modules/ctrl/src/32b/ctrl.c",line 533,column 7,is_s
    1226 000000d9 28AB          MOV       PL,#52538             ; [CPU_] |533| 
         000000da CD3A 
    1227 000000db 28AA          MOV       PH,#147               ; [CPU_] |533| 
         000000dc 0093 
    1228 000000dd       $C$L18:    
    1229                      .dwpsn  file "C:/Users/wmj/Desktop/BM1000_v1.1/sw/modules/clarke/src/32b/clarke.h",line 182,column 19
    1230 000000dd D008          MOVB      XAR0,#8               ; [CPU_] |182| 
    1231 000000de 8394          MOVL      XAR5,*+XAR4[AR0]      ; [CPU_] |182| 
    1232                      .dwpsn  file "C:/Users/wmj/Desktop/BM1000_v1.1/sw/modules/clarke/src/32b/clarke.h",line 170,column 3,
    1233 000000df D008          MOVB      XAR0,#8               ; [CPU_] |170| 
    1234                      .dwpsn  file "C:/Users/wmj/Desktop/BM1000_v1.1/sw/modules/clarke/src/32b/clarke.h",line 185,column 3,
    1235 000000e0 C2C5          MOVL      *+XAR5[0],XAR6        ; [CPU_] |185| 
    1236                      .dwpsn  file "C:/Users/wmj/Desktop/BM1000_v1.1/sw/modules/clarke/src/32b/clarke.h",line 186,column 3,
    1237 000000e1 A9D5          MOVL      *+XAR5[2],P           ; [CPU_] |186| 
    1238                      .dwpsn  file "C:/Users/wmj/Desktop/BM1000_v1.1/sw/modules/clarke/src/32b/clarke.h",line 170,column 3,
    1239 000000e2 8A94          MOVL      XAR4,*+XAR4[AR0]      ; [CPU_] |170| 
    1240 000000e3 96E4          MOV       *+XAR4[4],AL          ; [CPU_] |170| 
    1241              $C$DW$136       .dwtag  DW_TAG_TI_branch
    1242                      .dwattr $C$DW$136, DW_AT_low_pc(0x00)
    1243                      .dwattr $C$DW$136, DW_AT_TI_return
    1244              
    1245 000000e4 0006          LRETR     ; [CPU_] 
    1246                      ; return occurs ; [] 
    1247                      .dwattr $C$DW$128, DW_AT_TI_end_file("C:/Users/wmj/Desktop/BM1000_v1.1/sw/modules/ctrl/src/32b/ctrl.c
    1248                      .dwattr $C$DW$128, DW_AT_TI_end_line(0x227)
    1249                      .dwattr $C$DW$128, DW_AT_TI_end_column(0x01)
    1250                      .dwendentry
    1251                      .dwendtag $C$DW$128
    1252              
    1253 00000000               .sect   "ramfuncs"
    1254                      .clink
    1255                      .global _CTRL_setup
    1256              
    1257              $C$DW$137       .dwtag  DW_TAG_subprogram
    1258                      .dwattr $C$DW$137, DW_AT_name("CTRL_setup")
    1259                      .dwattr $C$DW$137, DW_AT_low_pc(_CTRL_setup)
    1260                      .dwattr $C$DW$137, DW_AT_high_pc(0x00)
    1261                      .dwattr $C$DW$137, DW_AT_TI_symbol_name("_CTRL_setup")
    1262                      .dwattr $C$DW$137, DW_AT_external
    1263                      .dwattr $C$DW$137, DW_AT_TI_begin_file("C:/Users/wmj/Desktop/BM1000_v1.1/sw/modules/ctrl/src/32b/ctrl
    1264                      .dwattr $C$DW$137, DW_AT_TI_begin_line(0x1f3)
    1265                      .dwattr $C$DW$137, DW_AT_TI_begin_column(0x06)
    1266                      .dwattr $C$DW$137, DW_AT_TI_max_frame_size(-2)
    1267                      .dwpsn  file "C:/Users/wmj/Desktop/BM1000_v1.1/sw/modules/ctrl/src/32b/ctrl.c",line 500,column 1,is_s
    1268              
    1269                      .dwfde $C$DW$CIE, _CTRL_setup
    1270              $C$DW$138       .dwtag  DW_TAG_formal_parameter
    1271                      .dwattr $C$DW$138, DW_AT_name("handle")
TMS320C2000 Assembler PC v15.12.3 Wed Nov 22 00:56:17 2017

Tools Copyright (c) 1996-2015 Texas Instruments Incorporated
C:\Users\wmj\AppData\Local\Temp\0070810                              PAGE   25

    1272                      .dwattr $C$DW$138, DW_AT_TI_symbol_name("_handle")
    1273                      .dwattr $C$DW$138, DW_AT_type(*$C$DW$T$170)
    1274                      .dwattr $C$DW$138, DW_AT_location[DW_OP_reg12]
    1275              
    1276              
    1277              ;***************************************************************
    1278              ;* FNAME: _CTRL_setup                   FR SIZE:   0           *
    1279              ;*                                                             *
    1280              ;* FUNCTION ENVIRONMENT                                        *
    1281              ;*                                                             *
    1282              ;* FUNCTION PROPERTIES                                         *
    1283              ;*                            0 Parameter,  0 Auto,  0 SOE     *
    1284              ;***************************************************************
    1285              
    1286              _CTRL_setup:
    1287              ;* AR4   assigned to _handle
    1288              $C$DW$139       .dwtag  DW_TAG_variable
    1289                      .dwattr $C$DW$139, DW_AT_name("handle")
    1290                      .dwattr $C$DW$139, DW_AT_TI_symbol_name("_handle")
    1291                      .dwattr $C$DW$139, DW_AT_type(*$C$DW$T$189)
    1292                      .dwattr $C$DW$139, DW_AT_location[DW_OP_reg12]
    1293              
    1294                      .dwcfi  cfa_offset, -2
    1295                      .dwcfi  save_reg_to_mem, 26, 0
    1296                      .dwpsn  file "C:/Users/wmj/Desktop/BM1000_v1.1/sw/modules/ctrl/src/32b/ctrl.c",line 508,column 3,is_s
    1297 00000000 D09F          MOVB      XAR0,#159             ; [CPU_] |508| 
    1298 00000001 9294          MOV       AL,*+XAR4[AR0]        ; [CPU_] |508| 
    1299 00000002 D0EF          MOVB      XAR0,#239             ; [CPU_] |508| 
    1300 00000003 5494          CMP       AL,*+XAR4[AR0]        ; [CPU_] |508| 
    1301 00000004 6605          B         $C$L19,HI             ; [CPU_] |508| 
    1302                      ; branchcc occurs ; [] |508| 
    1303                      .dwpsn  file "C:/Users/wmj/Desktop/BM1000_v1.1/sw/modules/ctrl/src/32b/ctrl.h",line 1160,column 3,is_
    1304 00000005 D0EF          MOVB      XAR0,#239             ; [CPU_] |1160| 
    1305 00000006 2B94          MOV       *+XAR4[AR0],#0        ; [CPU_] |1160| 
    1306                      .dwpsn  file "C:/Users/wmj/Desktop/BM1000_v1.1/sw/modules/ctrl/src/32b/ctrl.c",line 516,column 7,is_s
    1307              $C$DW$140       .dwtag  DW_TAG_TI_branch
    1308                      .dwattr $C$DW$140, DW_AT_low_pc(0x00)
    1309                      .dwattr $C$DW$140, DW_AT_name("_CTRL_runTraj")
    1310                      .dwattr $C$DW$140, DW_AT_TI_call
    1311              
    1312 00000007 7640!         LCR       #_CTRL_runTraj        ; [CPU_] |516| 
         00000008 0000 
    1313                      ; call occurs [#_CTRL_runTraj] ; [] |516| 
    1314              $C$L19:    
    1315              $C$DW$141       .dwtag  DW_TAG_TI_branch
    1316                      .dwattr $C$DW$141, DW_AT_low_pc(0x00)
    1317                      .dwattr $C$DW$141, DW_AT_TI_return
    1318              
    1319 00000009 0006          LRETR     ; [CPU_] 
    1320                      ; return occurs ; [] 
    1321                      .dwattr $C$DW$137, DW_AT_TI_end_file("C:/Users/wmj/Desktop/BM1000_v1.1/sw/modules/ctrl/src/32b/ctrl.c
    1322                      .dwattr $C$DW$137, DW_AT_TI_end_line(0x208)
    1323                      .dwattr $C$DW$137, DW_AT_TI_end_column(0x01)
    1324                      .dwendentry
    1325                      .dwendtag $C$DW$137
TMS320C2000 Assembler PC v15.12.3 Wed Nov 22 00:56:17 2017

Tools Copyright (c) 1996-2015 Texas Instruments Incorporated
C:\Users\wmj\AppData\Local\Temp\0070810                              PAGE   26

    1326              
    1327 000000e5               .sect   ".text"
    1328                      .clink
    1329                      .global _CTRL_setWaitTimes
    1330              
    1331              $C$DW$142       .dwtag  DW_TAG_subprogram
    1332                      .dwattr $C$DW$142, DW_AT_name("CTRL_setWaitTimes")
    1333                      .dwattr $C$DW$142, DW_AT_low_pc(_CTRL_setWaitTimes)
    1334                      .dwattr $C$DW$142, DW_AT_high_pc(0x00)
    1335                      .dwattr $C$DW$142, DW_AT_TI_symbol_name("_CTRL_setWaitTimes")
    1336                      .dwattr $C$DW$142, DW_AT_external
    1337                      .dwattr $C$DW$142, DW_AT_TI_begin_file("C:/Users/wmj/Desktop/BM1000_v1.1/sw/modules/ctrl/src/32b/ctrl
    1338                      .dwattr $C$DW$142, DW_AT_TI_begin_line(0x27e)
    1339                      .dwattr $C$DW$142, DW_AT_TI_begin_column(0x06)
    1340                      .dwattr $C$DW$142, DW_AT_TI_max_frame_size(-2)
    1341                      .dwpsn  file "C:/Users/wmj/Desktop/BM1000_v1.1/sw/modules/ctrl/src/32b/ctrl.c",line 639,column 1,is_s
    1342              
    1343                      .dwfde $C$DW$CIE, _CTRL_setWaitTimes
    1344              $C$DW$143       .dwtag  DW_TAG_formal_parameter
    1345                      .dwattr $C$DW$143, DW_AT_name("handle")
    1346                      .dwattr $C$DW$143, DW_AT_TI_symbol_name("_handle")
    1347                      .dwattr $C$DW$143, DW_AT_type(*$C$DW$T$170)
    1348                      .dwattr $C$DW$143, DW_AT_location[DW_OP_reg12]
    1349              
    1350              $C$DW$144       .dwtag  DW_TAG_formal_parameter
    1351                      .dwattr $C$DW$144, DW_AT_name("pWaitTimes")
    1352                      .dwattr $C$DW$144, DW_AT_TI_symbol_name("_pWaitTimes")
    1353                      .dwattr $C$DW$144, DW_AT_type(*$C$DW$T$295)
    1354                      .dwattr $C$DW$144, DW_AT_location[DW_OP_reg14]
    1355              
    1356              
    1357              ;***************************************************************
    1358              ;* FNAME: _CTRL_setWaitTimes            FR SIZE:   0           *
    1359              ;*                                                             *
    1360              ;* FUNCTION ENVIRONMENT                                        *
    1361              ;*                                                             *
    1362              ;* FUNCTION PROPERTIES                                         *
    1363              ;*                            0 Parameter,  0 Auto,  0 SOE     *
    1364              ;***************************************************************
    1365              
    1366              _CTRL_setWaitTimes:
    1367              ;* AR4   assigned to _handle
    1368              $C$DW$145       .dwtag  DW_TAG_variable
    1369                      .dwattr $C$DW$145, DW_AT_name("handle")
    1370                      .dwattr $C$DW$145, DW_AT_TI_symbol_name("_handle")
    1371                      .dwattr $C$DW$145, DW_AT_type(*$C$DW$T$189)
    1372                      .dwattr $C$DW$145, DW_AT_location[DW_OP_reg12]
    1373              
    1374              ;* AR4   assigned to $O$U11
    1375              ;* AR5   assigned to $O$U7
    1376                      .dwcfi  cfa_offset, -2
    1377                      .dwcfi  save_reg_to_mem, 26, 0
    1378 000000e5 A8A9          MOVL      ACC,XAR4              ; [CPU_] 
    1379 000000e6 0992          ADDB      ACC,#146              ; [CPU_] 
    1380 000000e7 8AA9          MOVL      XAR4,ACC              ; [CPU_] 
TMS320C2000 Assembler PC v15.12.3 Wed Nov 22 00:56:17 2017

Tools Copyright (c) 1996-2015 Texas Instruments Incorporated
C:\Users\wmj\AppData\Local\Temp\0070810                              PAGE   27

    1381 000000e8 BE03          MOVB      XAR6,#3               ; [CPU_] 
    1382 000000e9       $C$L20:    
    1383                      .dwpsn  file "C:/Users/wmj/Desktop/BM1000_v1.1/sw/modules/ctrl/src/32b/ctrl.c",line 645,column 7,is_s
    1384 000000e9 0685          MOVL      ACC,*XAR5++           ; [CPU_] |645| 
    1385 000000ea 1E84          MOVL      *XAR4++,ACC           ; [CPU_] |645| 
    1386                      .dwpsn  file "C:/Users/wmj/Desktop/BM1000_v1.1/sw/modules/ctrl/src/32b/ctrl.c",line 643,column 18,is_
    1387 000000eb 000E          BANZ      $C$L20,AR6--          ; [CPU_] |643| 
         000000ec FFFE 
    1388                      ; branchcc occurs ; [] |643| 
    1389              $C$DW$146       .dwtag  DW_TAG_TI_branch
    1390                      .dwattr $C$DW$146, DW_AT_low_pc(0x00)
    1391                      .dwattr $C$DW$146, DW_AT_TI_return
    1392              
    1393 000000ed 0006          LRETR     ; [CPU_] 
    1394                      ; return occurs ; [] 
    1395                      .dwattr $C$DW$142, DW_AT_TI_end_file("C:/Users/wmj/Desktop/BM1000_v1.1/sw/modules/ctrl/src/32b/ctrl.c
    1396                      .dwattr $C$DW$142, DW_AT_TI_end_line(0x289)
    1397                      .dwattr $C$DW$142, DW_AT_TI_end_column(0x01)
    1398                      .dwendentry
    1399                      .dwendtag $C$DW$142
    1400              
    1401 000000ee               .sect   ".text"
    1402                      .clink
    1403                      .global _CTRL_setSpd_ref_pu
    1404              
    1405              $C$DW$147       .dwtag  DW_TAG_subprogram
    1406                      .dwattr $C$DW$147, DW_AT_name("CTRL_setSpd_ref_pu")
    1407                      .dwattr $C$DW$147, DW_AT_low_pc(_CTRL_setSpd_ref_pu)
    1408                      .dwattr $C$DW$147, DW_AT_high_pc(0x00)
    1409                      .dwattr $C$DW$147, DW_AT_TI_symbol_name("_CTRL_setSpd_ref_pu")
    1410                      .dwattr $C$DW$147, DW_AT_external
    1411                      .dwattr $C$DW$147, DW_AT_TI_begin_file("C:/Users/wmj/Desktop/BM1000_v1.1/sw/modules/ctrl/src/32b/ctrl
    1412                      .dwattr $C$DW$147, DW_AT_TI_begin_line(0x1db)
    1413                      .dwattr $C$DW$147, DW_AT_TI_begin_column(0x06)
    1414                      .dwattr $C$DW$147, DW_AT_TI_max_frame_size(-2)
    1415                      .dwpsn  file "C:/Users/wmj/Desktop/BM1000_v1.1/sw/modules/ctrl/src/32b/ctrl.c",line 476,column 1,is_s
    1416              
    1417                      .dwfde $C$DW$CIE, _CTRL_setSpd_ref_pu
    1418              $C$DW$148       .dwtag  DW_TAG_formal_parameter
    1419                      .dwattr $C$DW$148, DW_AT_name("handle")
    1420                      .dwattr $C$DW$148, DW_AT_TI_symbol_name("_handle")
    1421                      .dwattr $C$DW$148, DW_AT_type(*$C$DW$T$170)
    1422                      .dwattr $C$DW$148, DW_AT_location[DW_OP_reg12]
    1423              
    1424              $C$DW$149       .dwtag  DW_TAG_formal_parameter
    1425                      .dwattr $C$DW$149, DW_AT_name("spd_ref_pu")
    1426                      .dwattr $C$DW$149, DW_AT_TI_symbol_name("_spd_ref_pu")
    1427                      .dwattr $C$DW$149, DW_AT_type(*$C$DW$T$238)
    1428                      .dwattr $C$DW$149, DW_AT_location[DW_OP_reg0]
    1429              
    1430              
    1431              ;***************************************************************
    1432              ;* FNAME: _CTRL_setSpd_ref_pu           FR SIZE:   0           *
    1433              ;*                                                             *
    1434              ;* FUNCTION ENVIRONMENT                                        *
TMS320C2000 Assembler PC v15.12.3 Wed Nov 22 00:56:17 2017

Tools Copyright (c) 1996-2015 Texas Instruments Incorporated
C:\Users\wmj\AppData\Local\Temp\0070810                              PAGE   28

    1435              ;*                                                             *
    1436              ;* FUNCTION PROPERTIES                                         *
    1437              ;*                            0 Parameter,  0 Auto,  0 SOE     *
    1438              ;***************************************************************
    1439              
    1440              _CTRL_setSpd_ref_pu:
    1441              ;* AR4   assigned to _handle
    1442              $C$DW$150       .dwtag  DW_TAG_variable
    1443                      .dwattr $C$DW$150, DW_AT_name("handle")
    1444                      .dwattr $C$DW$150, DW_AT_TI_symbol_name("_handle")
    1445                      .dwattr $C$DW$150, DW_AT_type(*$C$DW$T$189)
    1446                      .dwattr $C$DW$150, DW_AT_location[DW_OP_reg12]
    1447              
    1448              ;* AL    assigned to _spd_ref_pu
    1449              $C$DW$151       .dwtag  DW_TAG_variable
    1450                      .dwattr $C$DW$151, DW_AT_name("spd_ref_pu")
    1451                      .dwattr $C$DW$151, DW_AT_TI_symbol_name("_spd_ref_pu")
    1452                      .dwattr $C$DW$151, DW_AT_type(*$C$DW$T$238)
    1453                      .dwattr $C$DW$151, DW_AT_location[DW_OP_reg0]
    1454              
    1455                      .dwcfi  cfa_offset, -2
    1456                      .dwcfi  save_reg_to_mem, 26, 0
    1457                      .dwpsn  file "C:/Users/wmj/Desktop/BM1000_v1.1/sw/modules/ctrl/src/32b/ctrl.c",line 479,column 3,is_s
    1458 000000ee D0E8          MOVB      XAR0,#232             ; [CPU_] |479| 
    1459 000000ef 1E94          MOVL      *+XAR4[AR0],ACC       ; [CPU_] |479| 
    1460              $C$DW$152       .dwtag  DW_TAG_TI_branch
    1461                      .dwattr $C$DW$152, DW_AT_low_pc(0x00)
    1462                      .dwattr $C$DW$152, DW_AT_TI_return
    1463              
    1464 000000f0 0006          LRETR     ; [CPU_] 
    1465                      ; return occurs ; [] 
    1466                      .dwattr $C$DW$147, DW_AT_TI_end_file("C:/Users/wmj/Desktop/BM1000_v1.1/sw/modules/ctrl/src/32b/ctrl.c
    1467                      .dwattr $C$DW$147, DW_AT_TI_end_line(0x1e2)
    1468                      .dwattr $C$DW$147, DW_AT_TI_end_column(0x01)
    1469                      .dwendentry
    1470                      .dwendtag $C$DW$147
    1471              
    1472 000000f1               .sect   ".text"
    1473                      .clink
    1474                      .global _CTRL_setSpd_ref_krpm
    1475              
    1476              $C$DW$153       .dwtag  DW_TAG_subprogram
    1477                      .dwattr $C$DW$153, DW_AT_name("CTRL_setSpd_ref_krpm")
    1478                      .dwattr $C$DW$153, DW_AT_low_pc(_CTRL_setSpd_ref_krpm)
    1479                      .dwattr $C$DW$153, DW_AT_high_pc(0x00)
    1480                      .dwattr $C$DW$153, DW_AT_TI_symbol_name("_CTRL_setSpd_ref_krpm")
    1481                      .dwattr $C$DW$153, DW_AT_external
    1482                      .dwattr $C$DW$153, DW_AT_TI_begin_file("C:/Users/wmj/Desktop/BM1000_v1.1/sw/modules/ctrl/src/32b/ctrl
    1483                      .dwattr $C$DW$153, DW_AT_TI_begin_line(0x1e5)
    1484                      .dwattr $C$DW$153, DW_AT_TI_begin_column(0x06)
    1485                      .dwattr $C$DW$153, DW_AT_TI_max_frame_size(-6)
    1486                      .dwpsn  file "C:/Users/wmj/Desktop/BM1000_v1.1/sw/modules/ctrl/src/32b/ctrl.c",line 486,column 1,is_s
    1487              
    1488                      .dwfde $C$DW$CIE, _CTRL_setSpd_ref_krpm
    1489              $C$DW$154       .dwtag  DW_TAG_formal_parameter
TMS320C2000 Assembler PC v15.12.3 Wed Nov 22 00:56:17 2017

Tools Copyright (c) 1996-2015 Texas Instruments Incorporated
C:\Users\wmj\AppData\Local\Temp\0070810                              PAGE   29

    1490                      .dwattr $C$DW$154, DW_AT_name("handle")
    1491                      .dwattr $C$DW$154, DW_AT_TI_symbol_name("_handle")
    1492                      .dwattr $C$DW$154, DW_AT_type(*$C$DW$T$170)
    1493                      .dwattr $C$DW$154, DW_AT_location[DW_OP_reg12]
    1494              
    1495              $C$DW$155       .dwtag  DW_TAG_formal_parameter
    1496                      .dwattr $C$DW$155, DW_AT_name("spd_ref_krpm")
    1497                      .dwattr $C$DW$155, DW_AT_TI_symbol_name("_spd_ref_krpm")
    1498                      .dwattr $C$DW$155, DW_AT_type(*$C$DW$T$238)
    1499                      .dwattr $C$DW$155, DW_AT_location[DW_OP_reg0]
    1500              
    1501              
    1502              ;***************************************************************
    1503              ;* FNAME: _CTRL_setSpd_ref_krpm         FR SIZE:   4           *
    1504              ;*                                                             *
    1505              ;* FUNCTION ENVIRONMENT                                        *
    1506              ;*                                                             *
    1507              ;* FUNCTION PROPERTIES                                         *
    1508              ;*                            0 Parameter,  0 Auto,  4 SOE     *
    1509              ;***************************************************************
    1510              
    1511              _CTRL_setSpd_ref_krpm:
    1512              ;* AR2   assigned to _handle
    1513              $C$DW$156       .dwtag  DW_TAG_variable
    1514                      .dwattr $C$DW$156, DW_AT_name("handle")
    1515                      .dwattr $C$DW$156, DW_AT_TI_symbol_name("_handle")
    1516                      .dwattr $C$DW$156, DW_AT_type(*$C$DW$T$189)
    1517                      .dwattr $C$DW$156, DW_AT_location[DW_OP_reg8]
    1518              
    1519              ;* XT    assigned to _spd_ref_krpm
    1520              $C$DW$157       .dwtag  DW_TAG_variable
    1521                      .dwattr $C$DW$157, DW_AT_name("spd_ref_krpm")
    1522                      .dwattr $C$DW$157, DW_AT_TI_symbol_name("_spd_ref_krpm")
    1523                      .dwattr $C$DW$157, DW_AT_type(*$C$DW$T$238)
    1524                      .dwattr $C$DW$157, DW_AT_location[DW_OP_reg21]
    1525              
    1526              ;* AL    assigned to _krpm_to_pu_sf
    1527              $C$DW$158       .dwtag  DW_TAG_variable
    1528                      .dwattr $C$DW$158, DW_AT_name("krpm_to_pu_sf")
    1529                      .dwattr $C$DW$158, DW_AT_TI_symbol_name("_krpm_to_pu_sf")
    1530                      .dwattr $C$DW$158, DW_AT_type(*$C$DW$T$31)
    1531                      .dwattr $C$DW$158, DW_AT_location[DW_OP_reg0]
    1532              
    1533                      .dwcfi  cfa_offset, -2
    1534                      .dwcfi  save_reg_to_mem, 26, 0
    1535 000000f1 B2BD          MOVL      *SP++,XAR1            ; [CPU_] 
    1536                      .dwcfi  save_reg_to_mem, 7, 2
    1537                      .dwcfi  cfa_offset, -4
    1538 000000f2 AABD          MOVL      *SP++,XAR2            ; [CPU_] 
    1539                      .dwcfi  save_reg_to_mem, 9, 4
    1540                      .dwcfi  cfa_offset, -6
    1541 000000f3 86A4          MOVL      XAR2,XAR4             ; [CPU_] |486| 
    1542                      .dwpsn  file "C:/Users/wmj/Desktop/BM1000_v1.1/sw/modules/ctrl/src/32b/ctrl.c",line 489,column 21,is_
    1543 000000f4 D018          MOVB      XAR0,#24              ; [CPU_] |489| 
    1544                      .dwpsn  file "C:/Users/wmj/Desktop/BM1000_v1.1/sw/modules/ctrl/src/32b/ctrl.c",line 486,column 1,is_s
TMS320C2000 Assembler PC v15.12.3 Wed Nov 22 00:56:17 2017

Tools Copyright (c) 1996-2015 Texas Instruments Incorporated
C:\Users\wmj\AppData\Local\Temp\0070810                              PAGE   30

    1545 000000f5 8BA9          MOVL      XAR1,ACC              ; [CPU_] |486| 
    1546                      .dwpsn  file "C:/Users/wmj/Desktop/BM1000_v1.1/sw/modules/ctrl/src/32b/ctrl.c",line 489,column 21,is_
    1547 000000f6 8A92          MOVL      XAR4,*+XAR2[AR0]      ; [CPU_] |489| 
    1548              $C$DW$159       .dwtag  DW_TAG_TI_branch
    1549                      .dwattr $C$DW$159, DW_AT_low_pc(0x00)
    1550                      .dwattr $C$DW$159, DW_AT_name("_EST_get_krpm_to_pu_sf")
    1551                      .dwattr $C$DW$159, DW_AT_TI_call
    1552              
    1553 000000f7 7640!         LCR       #_EST_get_krpm_to_pu_sf ; [CPU_] |489| 
         000000f8 0000 
    1554                      ; call occurs [#_EST_get_krpm_to_pu_sf] ; [] |489| 
    1555                      .dwpsn  file "C:/Users/wmj/Desktop/BM1000_v1.1/sw/modules/ctrl/src/32b/ctrl.c",line 493,column 3,is_s
    1556 000000f9 D0E8          MOVB      XAR0,#232             ; [CPU_] |493| 
    1557                      .dwpsn  file "C:/Users/wmj/Desktop/BM1000_v1.1/sw/modules/ctrl/src/32b/ctrl.c",line 489,column 21,is_
    1558 000000fa B2AC          MOVL      XT,XAR1               ; [CPU_] |489| 
    1559                      .dwpsn  file "C:/Users/wmj/Desktop/BM1000_v1.1/sw/modules/ctrl/src/32b/ctrl.c",line 493,column 3,is_s
    1560 000000fb 5605          IMPYL     P,XT,ACC              ; [CPU_] |493| 
         000000fc 00A9 
    1561 000000fd 5663          QMPYL     ACC,XT,ACC            ; [CPU_] |493| 
         000000fe 00A9 
    1562 000000ff 56A7          LSL64     ACC:P,#8              ; [CPU_] |493| 
    1563 00000100 1E92          MOVL      *+XAR2[AR0],ACC       ; [CPU_] |493| 
    1564 00000101 86BE          MOVL      XAR2,*--SP            ; [CPU_] 
    1565                      .dwcfi  cfa_offset, -4
    1566                      .dwcfi  restore_reg, 9
    1567 00000102 8BBE          MOVL      XAR1,*--SP            ; [CPU_] 
    1568                      .dwcfi  cfa_offset, -2
    1569                      .dwcfi  restore_reg, 7
    1570              $C$DW$160       .dwtag  DW_TAG_TI_branch
    1571                      .dwattr $C$DW$160, DW_AT_low_pc(0x00)
    1572                      .dwattr $C$DW$160, DW_AT_TI_return
    1573              
    1574 00000103 0006          LRETR     ; [CPU_] 
    1575                      ; return occurs ; [] 
    1576                      .dwattr $C$DW$153, DW_AT_TI_end_file("C:/Users/wmj/Desktop/BM1000_v1.1/sw/modules/ctrl/src/32b/ctrl.c
    1577                      .dwattr $C$DW$153, DW_AT_TI_end_line(0x1f0)
    1578                      .dwattr $C$DW$153, DW_AT_TI_end_column(0x01)
    1579                      .dwendentry
    1580                      .dwendtag $C$DW$153
    1581              
    1582 00000104               .sect   ".text"
    1583                      .clink
    1584                      .global _CTRL_setBrake
    1585              
    1586              $C$DW$161       .dwtag  DW_TAG_subprogram
    1587                      .dwattr $C$DW$161, DW_AT_name("CTRL_setBrake")
    1588                      .dwattr $C$DW$161, DW_AT_low_pc(_CTRL_setBrake)
    1589                      .dwattr $C$DW$161, DW_AT_high_pc(0x00)
    1590                      .dwattr $C$DW$161, DW_AT_TI_symbol_name("_CTRL_setBrake")
    1591                      .dwattr $C$DW$161, DW_AT_external
    1592                      .dwattr $C$DW$161, DW_AT_TI_begin_file("C:/Users/wmj/Desktop/BM1000_v1.1/sw/modules/ctrl/src/32b/ctrl
    1593                      .dwattr $C$DW$161, DW_AT_TI_begin_line(0x28b)
    1594                      .dwattr $C$DW$161, DW_AT_TI_begin_column(0x06)
    1595                      .dwattr $C$DW$161, DW_AT_TI_max_frame_size(-4)
    1596                      .dwpsn  file "C:/Users/wmj/Desktop/BM1000_v1.1/sw/modules/ctrl/src/32b/ctrl.c",line 652,column 1,is_s
TMS320C2000 Assembler PC v15.12.3 Wed Nov 22 00:56:17 2017

Tools Copyright (c) 1996-2015 Texas Instruments Incorporated
C:\Users\wmj\AppData\Local\Temp\0070810                              PAGE   31

    1597              
    1598                      .dwfde $C$DW$CIE, _CTRL_setBrake
    1599              $C$DW$162       .dwtag  DW_TAG_formal_parameter
    1600                      .dwattr $C$DW$162, DW_AT_name("handle")
    1601                      .dwattr $C$DW$162, DW_AT_TI_symbol_name("_handle")
    1602                      .dwattr $C$DW$162, DW_AT_type(*$C$DW$T$170)
    1603                      .dwattr $C$DW$162, DW_AT_location[DW_OP_reg12]
    1604              
    1605              
    1606              ;***************************************************************
    1607              ;* FNAME: _CTRL_setBrake                FR SIZE:   2           *
    1608              ;*                                                             *
    1609              ;* FUNCTION ENVIRONMENT                                        *
    1610              ;*                                                             *
    1611              ;* FUNCTION PROPERTIES                                         *
    1612              ;*                            0 Parameter,  0 Auto,  2 SOE     *
    1613              ;***************************************************************
    1614              
    1615              _CTRL_setBrake:
    1616              ;* AR1   assigned to _handle
    1617              $C$DW$163       .dwtag  DW_TAG_variable
    1618                      .dwattr $C$DW$163, DW_AT_name("handle")
    1619                      .dwattr $C$DW$163, DW_AT_TI_symbol_name("_handle")
    1620                      .dwattr $C$DW$163, DW_AT_type(*$C$DW$T$189)
    1621                      .dwattr $C$DW$163, DW_AT_location[DW_OP_reg6]
    1622              
    1623                      .dwcfi  cfa_offset, -2
    1624                      .dwcfi  save_reg_to_mem, 26, 0
    1625 00000104 B2BD          MOVL      *SP++,XAR1            ; [CPU_] 
    1626                      .dwcfi  save_reg_to_mem, 7, 2
    1627                      .dwcfi  cfa_offset, -4
    1628 00000105 A8A9          MOVL      ACC,XAR4              ; [CPU_] |652| 
    1629 00000106 8BA4          MOVL      XAR1,XAR4             ; [CPU_] |652| 
    1630                      .dwpsn  file "C:/Users/wmj/Desktop/BM1000_v1.1/sw/modules/ctrl/src/32b/ctrl.c",line 655,column 3,is_s
    1631 00000107 FF18          ADD       ACC,#1 << 8           ; [CPU_] |655| 
         00000108 0001 
    1632 00000109 8AA9          MOVL      XAR4,ACC              ; [CPU_] |655| 
    1633 0000010a 0208          MOVB      ACC,#8                ; [CPU_] |655| 
    1634              $C$DW$164       .dwtag  DW_TAG_TI_branch
    1635                      .dwattr $C$DW$164, DW_AT_low_pc(0x00)
    1636                      .dwattr $C$DW$164, DW_AT_name("_Brake_init")
    1637                      .dwattr $C$DW$164, DW_AT_TI_call
    1638              
    1639 0000010b 7640!         LCR       #_Brake_init          ; [CPU_] |655| 
         0000010c 0000 
    1640                      ; call occurs [#_Brake_init] ; [] |655| 
    1641 0000010d D0FE          MOVB      XAR0,#254             ; [CPU_] |655| 
    1642 0000010e A891          MOVL      *+XAR1[AR0],XAR4      ; [CPU_] |655| 
    1643 0000010f 8BBE          MOVL      XAR1,*--SP            ; [CPU_] 
    1644                      .dwcfi  cfa_offset, -2
    1645                      .dwcfi  restore_reg, 7
    1646              $C$DW$165       .dwtag  DW_TAG_TI_branch
    1647                      .dwattr $C$DW$165, DW_AT_low_pc(0x00)
    1648                      .dwattr $C$DW$165, DW_AT_TI_return
    1649              
TMS320C2000 Assembler PC v15.12.3 Wed Nov 22 00:56:17 2017

Tools Copyright (c) 1996-2015 Texas Instruments Incorporated
C:\Users\wmj\AppData\Local\Temp\0070810                              PAGE   32

    1650 00000110 0006          LRETR     ; [CPU_] 
    1651                      ; return occurs ; [] 
    1652                      .dwattr $C$DW$161, DW_AT_TI_end_file("C:/Users/wmj/Desktop/BM1000_v1.1/sw/modules/ctrl/src/32b/ctrl.c
    1653                      .dwattr $C$DW$161, DW_AT_TI_end_line(0x292)
    1654                      .dwattr $C$DW$161, DW_AT_TI_end_column(0x01)
    1655                      .dwendentry
    1656                      .dwendtag $C$DW$161
    1657              
    1658 00000111               .sect   ".text"
    1659                      .clink
    1660                      .global _CTRL_setGains
    1661              
    1662              $C$DW$166       .dwtag  DW_TAG_subprogram
    1663                      .dwattr $C$DW$166, DW_AT_name("CTRL_setGains")
    1664                      .dwattr $C$DW$166, DW_AT_low_pc(_CTRL_setGains)
    1665                      .dwattr $C$DW$166, DW_AT_high_pc(0x00)
    1666                      .dwattr $C$DW$166, DW_AT_TI_symbol_name("_CTRL_setGains")
    1667                      .dwattr $C$DW$166, DW_AT_external
    1668                      .dwattr $C$DW$166, DW_AT_TI_begin_file("C:/Users/wmj/Desktop/BM1000_v1.1/sw/modules/ctrl/src/32b/ctrl
    1669                      .dwattr $C$DW$166, DW_AT_TI_begin_line(0x106)
    1670                      .dwattr $C$DW$166, DW_AT_TI_begin_column(0x06)
    1671                      .dwattr $C$DW$166, DW_AT_TI_max_frame_size(-2)
    1672                      .dwpsn  file "C:/Users/wmj/Desktop/BM1000_v1.1/sw/modules/ctrl/src/32b/ctrl.c",line 264,column 1,is_s
    1673              
    1674                      .dwfde $C$DW$CIE, _CTRL_setGains
    1675              $C$DW$167       .dwtag  DW_TAG_formal_parameter
    1676                      .dwattr $C$DW$167, DW_AT_name("handle")
    1677                      .dwattr $C$DW$167, DW_AT_TI_symbol_name("_handle")
    1678                      .dwattr $C$DW$167, DW_AT_type(*$C$DW$T$170)
    1679                      .dwattr $C$DW$167, DW_AT_location[DW_OP_reg12]
    1680              
    1681              $C$DW$168       .dwtag  DW_TAG_formal_parameter
    1682                      .dwattr $C$DW$168, DW_AT_name("ctrlType")
    1683                      .dwattr $C$DW$168, DW_AT_TI_symbol_name("_ctrlType")
    1684                      .dwattr $C$DW$168, DW_AT_type(*$C$DW$T$181)
    1685                      .dwattr $C$DW$168, DW_AT_location[DW_OP_reg14]
    1686              
    1687              $C$DW$169       .dwtag  DW_TAG_formal_parameter
    1688                      .dwattr $C$DW$169, DW_AT_name("Kp")
    1689                      .dwattr $C$DW$169, DW_AT_TI_symbol_name("_Kp")
    1690                      .dwattr $C$DW$169, DW_AT_type(*$C$DW$T$238)
    1691                      .dwattr $C$DW$169, DW_AT_location[DW_OP_reg0]
    1692              
    1693              $C$DW$170       .dwtag  DW_TAG_formal_parameter
    1694                      .dwattr $C$DW$170, DW_AT_name("Ki")
    1695                      .dwattr $C$DW$170, DW_AT_TI_symbol_name("_Ki")
    1696                      .dwattr $C$DW$170, DW_AT_type(*$C$DW$T$238)
    1697                      .dwattr $C$DW$170, DW_AT_location[DW_OP_breg20 -4]
    1698              
    1699              $C$DW$171       .dwtag  DW_TAG_formal_parameter
    1700                      .dwattr $C$DW$171, DW_AT_name("Kd")
    1701                      .dwattr $C$DW$171, DW_AT_TI_symbol_name("_Kd")
    1702                      .dwattr $C$DW$171, DW_AT_type(*$C$DW$T$238)
    1703                      .dwattr $C$DW$171, DW_AT_location[DW_OP_breg20 -6]
    1704              
TMS320C2000 Assembler PC v15.12.3 Wed Nov 22 00:56:17 2017

Tools Copyright (c) 1996-2015 Texas Instruments Incorporated
C:\Users\wmj\AppData\Local\Temp\0070810                              PAGE   33

    1705              
    1706              ;***************************************************************
    1707              ;* FNAME: _CTRL_setGains                FR SIZE:   0           *
    1708              ;*                                                             *
    1709              ;* FUNCTION ENVIRONMENT                                        *
    1710              ;*                                                             *
    1711              ;* FUNCTION PROPERTIES                                         *
    1712              ;*                            0 Parameter,  0 Auto,  0 SOE     *
    1713              ;***************************************************************
    1714              
    1715              _CTRL_setGains:
    1716              ;* AR7   assigned to _Kd
    1717              $C$DW$172       .dwtag  DW_TAG_variable
    1718                      .dwattr $C$DW$172, DW_AT_name("Kd")
    1719                      .dwattr $C$DW$172, DW_AT_TI_symbol_name("_Kd")
    1720                      .dwattr $C$DW$172, DW_AT_type(*$C$DW$T$238)
    1721                      .dwattr $C$DW$172, DW_AT_location[DW_OP_reg18]
    1722              
    1723              ;* PL    assigned to _Ki
    1724              $C$DW$173       .dwtag  DW_TAG_variable
    1725                      .dwattr $C$DW$173, DW_AT_name("Ki")
    1726                      .dwattr $C$DW$173, DW_AT_TI_symbol_name("_Ki")
    1727                      .dwattr $C$DW$173, DW_AT_type(*$C$DW$T$238)
    1728                      .dwattr $C$DW$173, DW_AT_location[DW_OP_reg2]
    1729              
    1730              ;* AR6   assigned to _Kp
    1731              $C$DW$174       .dwtag  DW_TAG_variable
    1732                      .dwattr $C$DW$174, DW_AT_name("Kp")
    1733                      .dwattr $C$DW$174, DW_AT_TI_symbol_name("_Kp")
    1734                      .dwattr $C$DW$174, DW_AT_type(*$C$DW$T$238)
    1735                      .dwattr $C$DW$174, DW_AT_location[DW_OP_reg16]
    1736              
    1737              ;* AL    assigned to _ctrlType
    1738              $C$DW$175       .dwtag  DW_TAG_variable
    1739                      .dwattr $C$DW$175, DW_AT_name("ctrlType")
    1740                      .dwattr $C$DW$175, DW_AT_TI_symbol_name("_ctrlType")
    1741                      .dwattr $C$DW$175, DW_AT_type(*$C$DW$T$181)
    1742                      .dwattr $C$DW$175, DW_AT_location[DW_OP_reg0]
    1743              
    1744              ;* AR4   assigned to _handle
    1745              $C$DW$176       .dwtag  DW_TAG_variable
    1746                      .dwattr $C$DW$176, DW_AT_name("handle")
    1747                      .dwattr $C$DW$176, DW_AT_TI_symbol_name("_handle")
    1748                      .dwattr $C$DW$176, DW_AT_type(*$C$DW$T$189)
    1749                      .dwattr $C$DW$176, DW_AT_location[DW_OP_reg12]
    1750              
    1751                      .dwcfi  cfa_offset, -2
    1752                      .dwcfi  save_reg_to_mem, 26, 0
    1753 00000111 1EA6          MOVL      XAR6,ACC              ; [CPU_] |264| 
    1754 00000112 92A5          MOV       AL,AR5                ; [CPU_] |264| 
    1755 00000113 C546          MOVL      XAR7,*-SP[6]          ; [CPU_] |264| 
    1756 00000114 A344          MOVL      P,*-SP[4]             ; [CPU_] |264| 
    1757                      .dwpsn  file "C:/Users/wmj/Desktop/BM1000_v1.1/sw/modules/ctrl/src/32b/ctrl.h",line 1540,column 3,is_
    1758 00000115 6109          B         $C$L22,EQ             ; [CPU_] |1540| 
    1759                      ; branchcc occurs ; [] |1540| 
TMS320C2000 Assembler PC v15.12.3 Wed Nov 22 00:56:17 2017

Tools Copyright (c) 1996-2015 Texas Instruments Incorporated
C:\Users\wmj\AppData\Local\Temp\0070810                              PAGE   34

    1760                      .dwpsn  file "C:/Users/wmj/Desktop/BM1000_v1.1/sw/modules/ctrl/src/32b/ctrl.h",line 1544,column 8,is_
    1761 00000116 5201          CMPB      AL,#1                 ; [CPU_] |1544| 
    1762 00000117 6105          B         $C$L21,EQ             ; [CPU_] |1544| 
    1763                      ; branchcc occurs ; [] |1544| 
    1764                      .dwpsn  file "C:/Users/wmj/Desktop/BM1000_v1.1/sw/modules/ctrl/src/32b/ctrl.h",line 1548,column 8,is_
    1765 00000118 5202          CMPB      AL,#2                 ; [CPU_] |1548| 
    1766 00000119 6007          B         $C$L24,NEQ            ; [CPU_] |1548| 
    1767                      ; branchcc occurs ; [] |1548| 
    1768                      .dwpsn  file "C:/Users/wmj/Desktop/BM1000_v1.1/sw/modules/ctrl/src/32b/ctrl.h",line 1550,column 7,is_
    1769 0000011a D0CC          MOVB      XAR0,#204             ; [CPU_] |1550| 
    1770 0000011b 6F04          B         $C$L23,UNC            ; [CPU_] |1550| 
    1771                      ; branch occurs ; [] |1550| 
    1772 0000011c       $C$L21:    
    1773                      .dwpsn  file "C:/Users/wmj/Desktop/BM1000_v1.1/sw/modules/ctrl/src/32b/ctrl.h",line 1546,column 7,is_
    1774 0000011c D0CA          MOVB      XAR0,#202             ; [CPU_] |1546| 
    1775                      .dwpsn  file "C:/Users/wmj/Desktop/BM1000_v1.1/sw/modules/ctrl/src/32b/ctrl.h",line 1547,column 5,is_
    1776 0000011d 6F02          B         $C$L23,UNC            ; [CPU_] |1547| 
    1777                      ; branch occurs ; [] |1547| 
    1778 0000011e       $C$L22:    
    1779                      .dwpsn  file "C:/Users/wmj/Desktop/BM1000_v1.1/sw/modules/ctrl/src/32b/ctrl.h",line 1542,column 7,is_
    1780 0000011e D0CE          MOVB      XAR0,#206             ; [CPU_] |1542| 
    1781 0000011f       $C$L23:    
    1782 0000011f C294          MOVL      *+XAR4[AR0],XAR6      ; [CPU_] |1542| 
    1783 00000120       $C$L24:    
    1784                      .dwpsn  file "C:/Users/wmj/Desktop/BM1000_v1.1/sw/modules/ctrl/src/32b/ctrl.h",line 1515,column 3,is_
    1785 00000120 5200          CMPB      AL,#0                 ; [CPU_] |1515| 
    1786 00000121 6109          B         $C$L26,EQ             ; [CPU_] |1515| 
    1787                      ; branchcc occurs ; [] |1515| 
    1788                      .dwpsn  file "C:/Users/wmj/Desktop/BM1000_v1.1/sw/modules/ctrl/src/32b/ctrl.h",line 1519,column 8,is_
    1789 00000122 5201          CMPB      AL,#1                 ; [CPU_] |1519| 
    1790 00000123 6105          B         $C$L25,EQ             ; [CPU_] |1519| 
    1791                      ; branchcc occurs ; [] |1519| 
    1792                      .dwpsn  file "C:/Users/wmj/Desktop/BM1000_v1.1/sw/modules/ctrl/src/32b/ctrl.h",line 1523,column 8,is_
    1793 00000124 5202          CMPB      AL,#2                 ; [CPU_] |1523| 
    1794 00000125 6007          B         $C$L28,NEQ            ; [CPU_] |1523| 
    1795                      ; branchcc occurs ; [] |1523| 
    1796                      .dwpsn  file "C:/Users/wmj/Desktop/BM1000_v1.1/sw/modules/ctrl/src/32b/ctrl.h",line 1525,column 7,is_
    1797 00000126 D0D2          MOVB      XAR0,#210             ; [CPU_] |1525| 
    1798 00000127 6F04          B         $C$L27,UNC            ; [CPU_] |1525| 
    1799                      ; branch occurs ; [] |1525| 
    1800 00000128       $C$L25:    
    1801                      .dwpsn  file "C:/Users/wmj/Desktop/BM1000_v1.1/sw/modules/ctrl/src/32b/ctrl.h",line 1521,column 7,is_
    1802 00000128 D0D0          MOVB      XAR0,#208             ; [CPU_] |1521| 
    1803                      .dwpsn  file "C:/Users/wmj/Desktop/BM1000_v1.1/sw/modules/ctrl/src/32b/ctrl.h",line 1522,column 5,is_
    1804 00000129 6F02          B         $C$L27,UNC            ; [CPU_] |1522| 
    1805                      ; branch occurs ; [] |1522| 
    1806 0000012a       $C$L26:    
    1807                      .dwpsn  file "C:/Users/wmj/Desktop/BM1000_v1.1/sw/modules/ctrl/src/32b/ctrl.h",line 1517,column 7,is_
    1808 0000012a D0D4          MOVB      XAR0,#212             ; [CPU_] |1517| 
    1809 0000012b       $C$L27:    
    1810 0000012b A994          MOVL      *+XAR4[AR0],P         ; [CPU_] |1517| 
    1811 0000012c       $C$L28:    
    1812                      .dwpsn  file "C:/Users/wmj/Desktop/BM1000_v1.1/sw/modules/ctrl/src/32b/ctrl.h",line 1490,column 3,is_
    1813 0000012c 5200          CMPB      AL,#0                 ; [CPU_] |1490| 
    1814 0000012d 6109          B         $C$L30,EQ             ; [CPU_] |1490| 
TMS320C2000 Assembler PC v15.12.3 Wed Nov 22 00:56:17 2017

Tools Copyright (c) 1996-2015 Texas Instruments Incorporated
C:\Users\wmj\AppData\Local\Temp\0070810                              PAGE   35

    1815                      ; branchcc occurs ; [] |1490| 
    1816                      .dwpsn  file "C:/Users/wmj/Desktop/BM1000_v1.1/sw/modules/ctrl/src/32b/ctrl.h",line 1494,column 8,is_
    1817 0000012e 5201          CMPB      AL,#1                 ; [CPU_] |1494| 
    1818 0000012f 6105          B         $C$L29,EQ             ; [CPU_] |1494| 
    1819                      ; branchcc occurs ; [] |1494| 
    1820                      .dwpsn  file "C:/Users/wmj/Desktop/BM1000_v1.1/sw/modules/ctrl/src/32b/ctrl.h",line 1498,column 8,is_
    1821 00000130 5202          CMPB      AL,#2                 ; [CPU_] |1498| 
    1822 00000131 6007          B         $C$L32,NEQ            ; [CPU_] |1498| 
    1823                      ; branchcc occurs ; [] |1498| 
    1824                      .dwpsn  file "C:/Users/wmj/Desktop/BM1000_v1.1/sw/modules/ctrl/src/32b/ctrl.h",line 1500,column 7,is_
    1825 00000132 D0D8          MOVB      XAR0,#216             ; [CPU_] |1500| 
    1826 00000133 6F04          B         $C$L31,UNC            ; [CPU_] |1500| 
    1827                      ; branch occurs ; [] |1500| 
    1828 00000134       $C$L29:    
    1829                      .dwpsn  file "C:/Users/wmj/Desktop/BM1000_v1.1/sw/modules/ctrl/src/32b/ctrl.h",line 1496,column 7,is_
    1830 00000134 D0D6          MOVB      XAR0,#214             ; [CPU_] |1496| 
    1831                      .dwpsn  file "C:/Users/wmj/Desktop/BM1000_v1.1/sw/modules/ctrl/src/32b/ctrl.h",line 1497,column 5,is_
    1832 00000135 6F02          B         $C$L31,UNC            ; [CPU_] |1497| 
    1833                      ; branch occurs ; [] |1497| 
    1834 00000136       $C$L30:    
    1835                      .dwpsn  file "C:/Users/wmj/Desktop/BM1000_v1.1/sw/modules/ctrl/src/32b/ctrl.h",line 1492,column 7,is_
    1836 00000136 D0DA          MOVB      XAR0,#218             ; [CPU_] |1492| 
    1837 00000137       $C$L31:    
    1838 00000137 C394          MOVL      *+XAR4[AR0],XAR7      ; [CPU_] |1492| 
    1839              $C$L32:    
    1840              $C$DW$177       .dwtag  DW_TAG_TI_branch
    1841                      .dwattr $C$DW$177, DW_AT_low_pc(0x00)
    1842                      .dwattr $C$DW$177, DW_AT_TI_return
    1843              
    1844 00000138 0006          LRETR     ; [CPU_] 
    1845                      ; return occurs ; [] 
    1846                      .dwattr $C$DW$166, DW_AT_TI_end_file("C:/Users/wmj/Desktop/BM1000_v1.1/sw/modules/ctrl/src/32b/ctrl.c
    1847                      .dwattr $C$DW$166, DW_AT_TI_end_line(0x10f)
    1848                      .dwattr $C$DW$166, DW_AT_TI_end_column(0x01)
    1849                      .dwendentry
    1850                      .dwendtag $C$DW$166
    1851              
    1852 00000139               .sect   ".text"
    1853                      .clink
    1854                      .global _CTRL_setParams
    1855              
    1856              $C$DW$178       .dwtag  DW_TAG_subprogram
    1857                      .dwattr $C$DW$178, DW_AT_name("CTRL_setParams")
    1858                      .dwattr $C$DW$178, DW_AT_low_pc(_CTRL_setParams)
    1859                      .dwattr $C$DW$178, DW_AT_high_pc(0x00)
    1860                      .dwattr $C$DW$178, DW_AT_TI_symbol_name("_CTRL_setParams")
    1861                      .dwattr $C$DW$178, DW_AT_external
    1862                      .dwattr $C$DW$178, DW_AT_TI_begin_file("C:/Users/wmj/Desktop/BM1000_v1.1/sw/modules/ctrl/src/32b/ctrl
    1863                      .dwattr $C$DW$178, DW_AT_TI_begin_line(0x124)
    1864                      .dwattr $C$DW$178, DW_AT_TI_begin_column(0x06)
    1865                      .dwattr $C$DW$178, DW_AT_TI_max_frame_size(-50)
    1866                      .dwpsn  file "C:/Users/wmj/Desktop/BM1000_v1.1/sw/modules/ctrl/src/32b/ctrl.c",line 293,column 1,is_s
    1867              
    1868                      .dwfde $C$DW$CIE, _CTRL_setParams
    1869              $C$DW$179       .dwtag  DW_TAG_formal_parameter
TMS320C2000 Assembler PC v15.12.3 Wed Nov 22 00:56:17 2017

Tools Copyright (c) 1996-2015 Texas Instruments Incorporated
C:\Users\wmj\AppData\Local\Temp\0070810                              PAGE   36

    1870                      .dwattr $C$DW$179, DW_AT_name("handle")
    1871                      .dwattr $C$DW$179, DW_AT_TI_symbol_name("_handle")
    1872                      .dwattr $C$DW$179, DW_AT_type(*$C$DW$T$170)
    1873                      .dwattr $C$DW$179, DW_AT_location[DW_OP_reg12]
    1874              
    1875              $C$DW$180       .dwtag  DW_TAG_formal_parameter
    1876                      .dwattr $C$DW$180, DW_AT_name("pUserParams")
    1877                      .dwattr $C$DW$180, DW_AT_TI_symbol_name("_pUserParams")
    1878                      .dwattr $C$DW$180, DW_AT_type(*$C$DW$T$231)
    1879                      .dwattr $C$DW$180, DW_AT_location[DW_OP_reg14]
    1880              
    1881              
    1882              ;***************************************************************
    1883              ;* FNAME: _CTRL_setParams               FR SIZE:  48           *
    1884              ;*                                                             *
    1885              ;* FUNCTION ENVIRONMENT                                        *
    1886              ;*                                                             *
    1887              ;* FUNCTION PROPERTIES                                         *
    1888              ;*                            4 Parameter, 38 Auto,  6 SOE     *
    1889              ;***************************************************************
    1890              
    1891              _CTRL_setParams:
    1892              ;* AR3   assigned to $O$C1
    1893              ;* AR2   assigned to $O$C2
    1894              ;* AH    assigned to _numPolePairs
    1895              $C$DW$181       .dwtag  DW_TAG_variable
    1896                      .dwattr $C$DW$181, DW_AT_name("numPolePairs")
    1897                      .dwattr $C$DW$181, DW_AT_TI_symbol_name("_numPolePairs")
    1898                      .dwattr $C$DW$181, DW_AT_type(*$C$DW$T$69)
    1899                      .dwattr $C$DW$181, DW_AT_location[DW_OP_reg1]
    1900              
    1901              ;* XT    assigned to _ratedFlux
    1902              $C$DW$182       .dwtag  DW_TAG_variable
    1903                      .dwattr $C$DW$182, DW_AT_name("ratedFlux")
    1904                      .dwattr $C$DW$182, DW_AT_TI_symbol_name("_ratedFlux")
    1905                      .dwattr $C$DW$182, DW_AT_type(*$C$DW$T$70)
    1906                      .dwattr $C$DW$182, DW_AT_location[DW_OP_reg21]
    1907              
    1908              ;* AR5   assigned to _Ls_d
    1909              $C$DW$183       .dwtag  DW_TAG_variable
    1910                      .dwattr $C$DW$183, DW_AT_name("Ls_d")
    1911                      .dwattr $C$DW$183, DW_AT_TI_symbol_name("_Ls_d")
    1912                      .dwattr $C$DW$183, DW_AT_type(*$C$DW$T$70)
    1913                      .dwattr $C$DW$183, DW_AT_location[DW_OP_reg14]
    1914              
    1915              ;* PL    assigned to _Ls_q
    1916              $C$DW$184       .dwtag  DW_TAG_variable
    1917                      .dwattr $C$DW$184, DW_AT_name("Ls_q")
    1918                      .dwattr $C$DW$184, DW_AT_TI_symbol_name("_Ls_q")
    1919                      .dwattr $C$DW$184, DW_AT_type(*$C$DW$T$70)
    1920                      .dwattr $C$DW$184, DW_AT_location[DW_OP_reg2]
    1921              
    1922              ;* AR6   assigned to _Rr
    1923              $C$DW$185       .dwtag  DW_TAG_variable
    1924                      .dwattr $C$DW$185, DW_AT_name("Rr")
TMS320C2000 Assembler PC v15.12.3 Wed Nov 22 00:56:17 2017

Tools Copyright (c) 1996-2015 Texas Instruments Incorporated
C:\Users\wmj\AppData\Local\Temp\0070810                              PAGE   37

    1925                      .dwattr $C$DW$185, DW_AT_TI_symbol_name("_Rr")
    1926                      .dwattr $C$DW$185, DW_AT_type(*$C$DW$T$70)
    1927                      .dwattr $C$DW$185, DW_AT_location[DW_OP_reg16]
    1928              
    1929              ;* AR4   assigned to _Rs
    1930              $C$DW$186       .dwtag  DW_TAG_variable
    1931                      .dwattr $C$DW$186, DW_AT_name("Rs")
    1932                      .dwattr $C$DW$186, DW_AT_TI_symbol_name("_Rs")
    1933                      .dwattr $C$DW$186, DW_AT_type(*$C$DW$T$70)
    1934                      .dwattr $C$DW$186, DW_AT_location[DW_OP_reg12]
    1935              
    1936              ;* AR6   assigned to _Ki
    1937              $C$DW$187       .dwtag  DW_TAG_variable
    1938                      .dwattr $C$DW$187, DW_AT_name("Ki")
    1939                      .dwattr $C$DW$187, DW_AT_TI_symbol_name("_Ki")
    1940                      .dwattr $C$DW$187, DW_AT_type(*$C$DW$T$31)
    1941                      .dwattr $C$DW$187, DW_AT_location[DW_OP_reg16]
    1942              
    1943              ;* AR4   assigned to _obj
    1944              $C$DW$188       .dwtag  DW_TAG_variable
    1945                      .dwattr $C$DW$188, DW_AT_name("obj")
    1946                      .dwattr $C$DW$188, DW_AT_TI_symbol_name("_obj")
    1947                      .dwattr $C$DW$188, DW_AT_type(*$C$DW$T$229)
    1948                      .dwattr $C$DW$188, DW_AT_location[DW_OP_reg12]
    1949              
    1950              ;* AR4   assigned to _obj
    1951              $C$DW$189       .dwtag  DW_TAG_variable
    1952                      .dwattr $C$DW$189, DW_AT_name("obj")
    1953                      .dwattr $C$DW$189, DW_AT_TI_symbol_name("_obj")
    1954                      .dwattr $C$DW$189, DW_AT_type(*$C$DW$T$229)
    1955                      .dwattr $C$DW$189, DW_AT_location[DW_OP_reg12]
    1956              
    1957              ;* AR6   assigned to _Ki
    1958              $C$DW$190       .dwtag  DW_TAG_variable
    1959                      .dwattr $C$DW$190, DW_AT_name("Ki")
    1960                      .dwattr $C$DW$190, DW_AT_TI_symbol_name("_Ki")
    1961                      .dwattr $C$DW$190, DW_AT_type(*$C$DW$T$31)
    1962                      .dwattr $C$DW$190, DW_AT_location[DW_OP_reg16]
    1963              
    1964              ;* AR4   assigned to _obj
    1965              $C$DW$191       .dwtag  DW_TAG_variable
    1966                      .dwattr $C$DW$191, DW_AT_name("obj")
    1967                      .dwattr $C$DW$191, DW_AT_TI_symbol_name("_obj")
    1968                      .dwattr $C$DW$191, DW_AT_type(*$C$DW$T$229)
    1969                      .dwattr $C$DW$191, DW_AT_location[DW_OP_reg12]
    1970              
    1971              ;* AR4   assigned to _obj
    1972              $C$DW$192       .dwtag  DW_TAG_variable
    1973                      .dwattr $C$DW$192, DW_AT_name("obj")
    1974                      .dwattr $C$DW$192, DW_AT_TI_symbol_name("_obj")
    1975                      .dwattr $C$DW$192, DW_AT_type(*$C$DW$T$229)
    1976                      .dwattr $C$DW$192, DW_AT_location[DW_OP_reg12]
    1977              
    1978              ;* AR6   assigned to _Ki
    1979              $C$DW$193       .dwtag  DW_TAG_variable
TMS320C2000 Assembler PC v15.12.3 Wed Nov 22 00:56:17 2017

Tools Copyright (c) 1996-2015 Texas Instruments Incorporated
C:\Users\wmj\AppData\Local\Temp\0070810                              PAGE   38

    1980                      .dwattr $C$DW$193, DW_AT_name("Ki")
    1981                      .dwattr $C$DW$193, DW_AT_TI_symbol_name("_Ki")
    1982                      .dwattr $C$DW$193, DW_AT_type(*$C$DW$T$31)
    1983                      .dwattr $C$DW$193, DW_AT_location[DW_OP_reg16]
    1984              
    1985              ;* AR4   assigned to _obj
    1986              $C$DW$194       .dwtag  DW_TAG_variable
    1987                      .dwattr $C$DW$194, DW_AT_name("obj")
    1988                      .dwattr $C$DW$194, DW_AT_TI_symbol_name("_obj")
    1989                      .dwattr $C$DW$194, DW_AT_type(*$C$DW$T$229)
    1990                      .dwattr $C$DW$194, DW_AT_location[DW_OP_reg12]
    1991              
    1992              ;* AR4   assigned to _obj
    1993              $C$DW$195       .dwtag  DW_TAG_variable
    1994                      .dwattr $C$DW$195, DW_AT_name("obj")
    1995                      .dwattr $C$DW$195, DW_AT_TI_symbol_name("_obj")
    1996                      .dwattr $C$DW$195, DW_AT_type(*$C$DW$T$229)
    1997                      .dwattr $C$DW$195, DW_AT_location[DW_OP_reg12]
    1998              
    1999              $C$DW$196       .dwtag  DW_TAG_variable
    2000                      .dwattr $C$DW$196, DW_AT_name("Kp")
    2001                      .dwattr $C$DW$196, DW_AT_TI_symbol_name("_Kp")
    2002                      .dwattr $C$DW$196, DW_AT_type(*$C$DW$T$31)
    2003                      .dwattr $C$DW$196, DW_AT_location[DW_OP_breg20 -40]
    2004              
    2005              $C$DW$197       .dwtag  DW_TAG_variable
    2006                      .dwattr $C$DW$197, DW_AT_name("pUserParams")
    2007                      .dwattr $C$DW$197, DW_AT_TI_symbol_name("_pUserParams")
    2008                      .dwattr $C$DW$197, DW_AT_type(*$C$DW$T$232)
    2009                      .dwattr $C$DW$197, DW_AT_location[DW_OP_breg20 -42]
    2010              
    2011              ;* AR1   assigned to _handle
    2012              $C$DW$198       .dwtag  DW_TAG_variable
    2013                      .dwattr $C$DW$198, DW_AT_name("handle")
    2014                      .dwattr $C$DW$198, DW_AT_TI_symbol_name("_handle")
    2015                      .dwattr $C$DW$198, DW_AT_type(*$C$DW$T$189)
    2016                      .dwattr $C$DW$198, DW_AT_location[DW_OP_reg6]
    2017              
    2018              $C$DW$199       .dwtag  DW_TAG_variable
    2019                      .dwattr $C$DW$199, DW_AT_name("Iab_out_pu")
    2020                      .dwattr $C$DW$199, DW_AT_TI_symbol_name("_Iab_out_pu")
    2021                      .dwattr $C$DW$199, DW_AT_type(*$C$DW$T$32)
    2022                      .dwattr $C$DW$199, DW_AT_location[DW_OP_breg20 -8]
    2023              
    2024              $C$DW$200       .dwtag  DW_TAG_variable
    2025                      .dwattr $C$DW$200, DW_AT_name("Idq_out_pu")
    2026                      .dwattr $C$DW$200, DW_AT_TI_symbol_name("_Idq_out_pu")
    2027                      .dwattr $C$DW$200, DW_AT_type(*$C$DW$T$32)
    2028                      .dwattr $C$DW$200, DW_AT_location[DW_OP_breg20 -12]
    2029              
    2030              $C$DW$201       .dwtag  DW_TAG_variable
    2031                      .dwattr $C$DW$201, DW_AT_name("Idq_ref_pu")
    2032                      .dwattr $C$DW$201, DW_AT_TI_symbol_name("_Idq_ref_pu")
    2033                      .dwattr $C$DW$201, DW_AT_type(*$C$DW$T$32)
    2034                      .dwattr $C$DW$201, DW_AT_location[DW_OP_breg20 -16]
TMS320C2000 Assembler PC v15.12.3 Wed Nov 22 00:56:17 2017

Tools Copyright (c) 1996-2015 Texas Instruments Incorporated
C:\Users\wmj\AppData\Local\Temp\0070810                              PAGE   39

    2035              
    2036              $C$DW$202       .dwtag  DW_TAG_variable
    2037                      .dwattr $C$DW$202, DW_AT_name("Vab_in_pu")
    2038                      .dwattr $C$DW$202, DW_AT_TI_symbol_name("_Vab_in_pu")
    2039                      .dwattr $C$DW$202, DW_AT_type(*$C$DW$T$32)
    2040                      .dwattr $C$DW$202, DW_AT_location[DW_OP_breg20 -20]
    2041              
    2042              $C$DW$203       .dwtag  DW_TAG_variable
    2043                      .dwattr $C$DW$203, DW_AT_name("Vab_out_pu")
    2044                      .dwattr $C$DW$203, DW_AT_TI_symbol_name("_Vab_out_pu")
    2045                      .dwattr $C$DW$203, DW_AT_type(*$C$DW$T$32)
    2046                      .dwattr $C$DW$203, DW_AT_location[DW_OP_breg20 -24]
    2047              
    2048              $C$DW$204       .dwtag  DW_TAG_variable
    2049                      .dwattr $C$DW$204, DW_AT_name("Vdq_out_pu")
    2050                      .dwattr $C$DW$204, DW_AT_TI_symbol_name("_Vdq_out_pu")
    2051                      .dwattr $C$DW$204, DW_AT_type(*$C$DW$T$32)
    2052                      .dwattr $C$DW$204, DW_AT_location[DW_OP_breg20 -28]
    2053              
    2054                      .dwcfi  cfa_offset, -2
    2055                      .dwcfi  save_reg_to_mem, 26, 0
    2056 00000139 B2BD          MOVL      *SP++,XAR1            ; [CPU_] 
    2057                      .dwcfi  save_reg_to_mem, 7, 2
    2058                      .dwcfi  cfa_offset, -4
    2059 0000013a AABD          MOVL      *SP++,XAR2            ; [CPU_] 
    2060                      .dwcfi  save_reg_to_mem, 9, 4
    2061                      .dwcfi  cfa_offset, -6
    2062 0000013b A2BD          MOVL      *SP++,XAR3            ; [CPU_] 
    2063                      .dwcfi  save_reg_to_mem, 11, 6
    2064                      .dwcfi  cfa_offset, -8
    2065 0000013c FE2A          ADDB      SP,#42                ; [CPU_U] 
    2066                      .dwcfi  cfa_offset, -50
    2067 0000013d 8BA4          MOVL      XAR1,XAR4             ; [CPU_] |293| 
    2068                      .dwpsn  file "C:/Users/wmj/Desktop/BM1000_v1.1/sw/modules/ctrl/src/32b/ctrl.c",line 300,column 13,is_
    2069 0000013e 5CAD          MOVZ      AR4,SP                ; [CPU_] |300| 
    2070                      .dwpsn  file "C:/Users/wmj/Desktop/BM1000_v1.1/sw/modules/ctrl/src/32b/ctrl.c",line 293,column 1,is_s
    2071 0000013f A06A          MOVL      *-SP[42],XAR5         ; [CPU_] |293| 
    2072                      .dwpsn  file "C:/Users/wmj/Desktop/BM1000_v1.1/sw/modules/ctrl/src/32b/ctrl.c",line 300,column 13,is_
    2073 00000140 DC88          SUBB      XAR4,#8               ; [CPU_U] |300| 
    2074 00000141 5CA4          MOVZ      AR4,AR4               ; [CPU_] |300| 
    2075 00000142 76C0+         MOVL      XAR7,#_$P$T0$1        ; [CPU_U] |300| 
         00000143 0000 
    2076 00000144 F603          RPT       #3
    2077 00000145 2484  ||     PREAD     *XAR4++,*XAR7         ; [CPU_] |300| 
    2078                      .dwpsn  file "C:/Users/wmj/Desktop/BM1000_v1.1/sw/modules/ctrl/src/32b/ctrl.c",line 301,column 13,is_
    2079 00000146 5CAD          MOVZ      AR4,SP                ; [CPU_] |301| 
    2080 00000147 DC8C          SUBB      XAR4,#12              ; [CPU_U] |301| 
    2081 00000148 5CA4          MOVZ      AR4,AR4               ; [CPU_] |301| 
    2082 00000149 76C0+         MOVL      XAR7,#_$P$T1$2        ; [CPU_U] |301| 
         0000014a 0000 
    2083 0000014b F603          RPT       #3
    2084 0000014c 2484  ||     PREAD     *XAR4++,*XAR7         ; [CPU_] |301| 
    2085                      .dwpsn  file "C:/Users/wmj/Desktop/BM1000_v1.1/sw/modules/ctrl/src/32b/ctrl.c",line 302,column 13,is_
    2086 0000014d 5CAD          MOVZ      AR4,SP                ; [CPU_] |302| 
    2087 0000014e DC90          SUBB      XAR4,#16              ; [CPU_U] |302| 
TMS320C2000 Assembler PC v15.12.3 Wed Nov 22 00:56:17 2017

Tools Copyright (c) 1996-2015 Texas Instruments Incorporated
C:\Users\wmj\AppData\Local\Temp\0070810                              PAGE   40

    2088 0000014f 5CA4          MOVZ      AR4,AR4               ; [CPU_] |302| 
    2089 00000150 76C0+         MOVL      XAR7,#_$P$T2$3        ; [CPU_U] |302| 
         00000151 0000 
    2090 00000152 F603          RPT       #3
    2091 00000153 2484  ||     PREAD     *XAR4++,*XAR7         ; [CPU_] |302| 
    2092                      .dwpsn  file "C:/Users/wmj/Desktop/BM1000_v1.1/sw/modules/ctrl/src/32b/ctrl.c",line 303,column 13,is_
    2093 00000154 5CAD          MOVZ      AR4,SP                ; [CPU_] |303| 
    2094 00000155 DC94          SUBB      XAR4,#20              ; [CPU_U] |303| 
    2095 00000156 5CA4          MOVZ      AR4,AR4               ; [CPU_] |303| 
    2096 00000157 76C0+         MOVL      XAR7,#_$P$T3$4        ; [CPU_U] |303| 
         00000158 0000 
    2097 00000159 F603          RPT       #3
    2098 0000015a 2484  ||     PREAD     *XAR4++,*XAR7         ; [CPU_] |303| 
    2099                      .dwpsn  file "C:/Users/wmj/Desktop/BM1000_v1.1/sw/modules/ctrl/src/32b/ctrl.c",line 304,column 13,is_
    2100 0000015b 5CAD          MOVZ      AR4,SP                ; [CPU_] |304| 
    2101 0000015c DC98          SUBB      XAR4,#24              ; [CPU_U] |304| 
    2102 0000015d 5CA4          MOVZ      AR4,AR4               ; [CPU_] |304| 
    2103 0000015e 76C0+         MOVL      XAR7,#_$P$T4$5        ; [CPU_U] |304| 
         0000015f 0000 
    2104 00000160 F603          RPT       #3
    2105 00000161 2484  ||     PREAD     *XAR4++,*XAR7         ; [CPU_] |304| 
    2106                      .dwpsn  file "C:/Users/wmj/Desktop/BM1000_v1.1/sw/modules/ctrl/src/32b/ctrl.c",line 305,column 13,is_
    2107 00000162 5CAD          MOVZ      AR4,SP                ; [CPU_] |305| 
    2108 00000163 DC9C          SUBB      XAR4,#28              ; [CPU_U] |305| 
    2109 00000164 5CA4          MOVZ      AR4,AR4               ; [CPU_] |305| 
    2110 00000165 76C0+         MOVL      XAR7,#_$P$T5$6        ; [CPU_U] |305| 
         00000166 0000 
    2111 00000167 F603          RPT       #3
    2112 00000168 2484  ||     PREAD     *XAR4++,*XAR7         ; [CPU_] |305| 
    2113                      .dwpsn  file "C:/Users/wmj/Desktop/BM1000_v1.1/sw/modules/ctrl/src/32b/ctrl.h",line 1656,column 3,is_
    2114 00000169 C56A          MOVL      XAR7,*-SP[42]         ; [CPU_] |1656| 
    2115                      .dwpsn  file "C:/Users/wmj/Desktop/BM1000_v1.1/sw/modules/ctrl/src/32b/ctrl.c",line 309,column 3,is_s
    2116 0000016a 8A6A          MOVL      XAR4,*-SP[42]         ; [CPU_] |309| 
    2117 0000016b D035          MOVB      XAR0,#53              ; [CPU_] |309| 
    2118                      .dwpsn  file "C:/Users/wmj/Desktop/BM1000_v1.1/sw/modules/ctrl/src/32b/ctrl.h",line 1656,column 3,is_
    2119 0000016c DF34          ADDB      XAR7,#52              ; [CPU_] |1656| 
    2120                      .dwpsn  file "C:/Users/wmj/Desktop/BM1000_v1.1/sw/modules/ctrl/src/32b/ctrl.c",line 309,column 3,is_s
    2121 0000016d 9394          MOV       AH,*+XAR4[AR0]        ; [CPU_] |309| 
    2122 0000016e D036          MOVB      XAR0,#54              ; [CPU_] |309| 
    2123                      .dwpsn  file "C:/Users/wmj/Desktop/BM1000_v1.1/sw/modules/ctrl/src/32b/ctrl.h",line 1656,column 3,is_
    2124 0000016f 92C7          MOV       AL,*XAR7              ; [CPU_] |1656| 
    2125                      .dwpsn  file "C:/Users/wmj/Desktop/BM1000_v1.1/sw/modules/ctrl/src/32b/ctrl.c",line 309,column 3,is_s
    2126 00000170 8794          MOVL      XT,*+XAR4[AR0]        ; [CPU_] |309| 
    2127 00000171 D03C          MOVB      XAR0,#60              ; [CPU_] |309| 
    2128 00000172 8394          MOVL      XAR5,*+XAR4[AR0]      ; [CPU_] |309| 
    2129 00000173 D03E          MOVB      XAR0,#62              ; [CPU_] |309| 
    2130 00000174 A394          MOVL      P,*+XAR4[AR0]         ; [CPU_] |309| 
    2131 00000175 D038          MOVB      XAR0,#56              ; [CPU_] |309| 
    2132 00000176 C494          MOVL      XAR6,*+XAR4[AR0]      ; [CPU_] |309| 
    2133 00000177 D03A          MOVB      XAR0,#58              ; [CPU_] |309| 
    2134 00000178 8A94          MOVL      XAR4,*+XAR4[AR0]      ; [CPU_] |309| 
    2135                      .dwpsn  file "C:/Users/wmj/Desktop/BM1000_v1.1/sw/modules/ctrl/src/32b/ctrl.h",line 1656,column 3,is_
    2136 00000179 D084          MOVB      XAR0,#132             ; [CPU_] |1656| 
    2137 0000017a 9691          MOV       *+XAR1[AR0],AL        ; [CPU_] |1656| 
    2138                      .dwpsn  file "C:/Users/wmj/Desktop/BM1000_v1.1/sw/modules/ctrl/src/32b/ctrl.h",line 1657,column 3,is_
TMS320C2000 Assembler PC v15.12.3 Wed Nov 22 00:56:17 2017

Tools Copyright (c) 1996-2015 Texas Instruments Incorporated
C:\Users\wmj\AppData\Local\Temp\0070810                              PAGE   41

    2139 0000017b D085          MOVB      XAR0,#133             ; [CPU_] |1657| 
    2140 0000017c 9791          MOV       *+XAR1[AR0],AH        ; [CPU_] |1657| 
    2141                      .dwpsn  file "C:/Users/wmj/Desktop/BM1000_v1.1/sw/modules/ctrl/src/32b/ctrl.h",line 1658,column 3,is_
    2142 0000017d D090          MOVB      XAR0,#144             ; [CPU_] |1658| 
    2143 0000017e AB91          MOVL      *+XAR1[AR0],XT        ; [CPU_] |1658| 
    2144                      .dwpsn  file "C:/Users/wmj/Desktop/BM1000_v1.1/sw/modules/ctrl/src/32b/ctrl.h",line 1659,column 3,is_
    2145 0000017f D088          MOVB      XAR0,#136             ; [CPU_] |1659| 
    2146 00000180 A091          MOVL      *+XAR1[AR0],XAR5      ; [CPU_] |1659| 
    2147                      .dwpsn  file "C:/Users/wmj/Desktop/BM1000_v1.1/sw/modules/ctrl/src/32b/ctrl.h",line 1660,column 3,is_
    2148 00000181 D08A          MOVB      XAR0,#138             ; [CPU_] |1660| 
    2149 00000182 A991          MOVL      *+XAR1[AR0],P         ; [CPU_] |1660| 
    2150                      .dwpsn  file "C:/Users/wmj/Desktop/BM1000_v1.1/sw/modules/ctrl/src/32b/ctrl.h",line 1661,column 3,is_
    2151 00000183 D08C          MOVB      XAR0,#140             ; [CPU_] |1661| 
    2152 00000184 C291          MOVL      *+XAR1[AR0],XAR6      ; [CPU_] |1661| 
    2153                      .dwpsn  file "C:/Users/wmj/Desktop/BM1000_v1.1/sw/modules/ctrl/src/32b/ctrl.h",line 1662,column 3,is_
    2154 00000185 D08E          MOVB      XAR0,#142             ; [CPU_] |1662| 
    2155 00000186 A891          MOVL      *+XAR1[AR0],XAR4      ; [CPU_] |1662| 
    2156                      .dwpsn  file "C:/Users/wmj/Desktop/BM1000_v1.1/sw/modules/ctrl/src/32b/ctrl.h",line 1726,column 3,is_
    2157 00000187 8A6A          MOVL      XAR4,*-SP[42]         ; [CPU_] |1726| 
    2158 00000188 D09C          MOVB      XAR0,#156             ; [CPU_] |1726| 
    2159 00000189 92F4          MOV       AL,*+XAR4[6]          ; [CPU_] |1726| 
    2160 0000018a 9691          MOV       *+XAR1[AR0],AL        ; [CPU_] |1726| 
    2161                      .dwpsn  file "C:/Users/wmj/Desktop/BM1000_v1.1/sw/modules/ctrl/src/32b/ctrl.h",line 1684,column 3,is_
    2162 0000018b D09D          MOVB      XAR0,#157             ; [CPU_] |1684| 
    2163 0000018c 92FC          MOV       AL,*+XAR4[7]          ; [CPU_] |1684| 
    2164 0000018d 9691          MOV       *+XAR1[AR0],AL        ; [CPU_] |1684| 
    2165                      .dwpsn  file "C:/Users/wmj/Desktop/BM1000_v1.1/sw/modules/ctrl/src/32b/ctrl.h",line 1698,column 3,is_
    2166 0000018e C56A          MOVL      XAR7,*-SP[42]         ; [CPU_] |1698| 
    2167 0000018f D09E          MOVB      XAR0,#158             ; [CPU_] |1698| 
    2168 00000190 DF09          ADDB      XAR7,#9               ; [CPU_] |1698| 
    2169 00000191 92C7          MOV       AL,*XAR7              ; [CPU_] |1698| 
    2170 00000192 9691          MOV       *+XAR1[AR0],AL        ; [CPU_] |1698| 
    2171                      .dwpsn  file "C:/Users/wmj/Desktop/BM1000_v1.1/sw/modules/ctrl/src/32b/ctrl.h",line 1712,column 3,is_
    2172 00000193 C56A          MOVL      XAR7,*-SP[42]         ; [CPU_] |1712| 
    2173 00000194 D09F          MOVB      XAR0,#159             ; [CPU_] |1712| 
    2174 00000195 DF0A          ADDB      XAR7,#10              ; [CPU_] |1712| 
    2175 00000196 92C7          MOV       AL,*XAR7              ; [CPU_] |1712| 
    2176 00000197 9691          MOV       *+XAR1[AR0],AL        ; [CPU_] |1712| 
    2177                      .dwpsn  file "C:/Users/wmj/Desktop/BM1000_v1.1/sw/modules/ctrl/src/32b/ctrl.h",line 1204,column 3,is_
    2178 00000198 D09E          MOVB      XAR0,#158             ; [CPU_] |1204| 
    2179 00000199 0694          MOVL      ACC,*+XAR4[AR0]       ; [CPU_] |1204| 
    2180 0000019a D0A0          MOVB      XAR0,#160             ; [CPU_] |1204| 
    2181 0000019b 1E91          MOVL      *+XAR1[AR0],ACC       ; [CPU_] |1204| 
    2182                      .dwpsn  file "C:/Users/wmj/Desktop/BM1000_v1.1/sw/modules/ctrl/src/32b/ctrl.h",line 1856,column 3,is_
    2183 0000019c D0A4          MOVB      XAR0,#164             ; [CPU_] |1856| 
    2184 0000019d 0694          MOVL      ACC,*+XAR4[AR0]       ; [CPU_] |1856| 
    2185 0000019e D0A2          MOVB      XAR0,#162             ; [CPU_] |1856| 
    2186 0000019f 1E91          MOVL      *+XAR1[AR0],ACC       ; [CPU_] |1856| 
    2187                      .dwpsn  file "C:/Users/wmj/Desktop/BM1000_v1.1/sw/modules/ctrl/src/32b/ctrl.h",line 1869,column 3,is_
    2188 000001a0 D0A4          MOVB      XAR0,#164             ; [CPU_] |1869| 
    2189 000001a1 0694          MOVL      ACC,*+XAR4[AR0]       ; [CPU_] |1869| 
    2190              $C$DW$205       .dwtag  DW_TAG_TI_branch
    2191                      .dwattr $C$DW$205, DW_AT_low_pc(0x00)
    2192                      .dwattr $C$DW$205, DW_AT_name("UL$$TOFS")
    2193                      .dwattr $C$DW$205, DW_AT_TI_call
TMS320C2000 Assembler PC v15.12.3 Wed Nov 22 00:56:17 2017

Tools Copyright (c) 1996-2015 Texas Instruments Incorporated
C:\Users\wmj\AppData\Local\Temp\0070810                              PAGE   42

    2194              
    2195 000001a2 7640!         LCR       #UL$$TOFS             ; [CPU_] |1869| 
         000001a3 0000 
    2196                      ; call occurs [#UL$$TOFS] ; [] |1869| 
    2197 000001a4 1E42          MOVL      *-SP[2],ACC           ; [CPU_] |1869| 
    2198 000001a5 FF2F          MOV       ACC,#32512 << 15      ; [CPU_] |1869| 
         000001a6 7F00 
    2199              $C$DW$206       .dwtag  DW_TAG_TI_branch
    2200                      .dwattr $C$DW$206, DW_AT_low_pc(0x00)
    2201                      .dwattr $C$DW$206, DW_AT_name("FS$$DIV")
    2202                      .dwattr $C$DW$206, DW_AT_TI_call
    2203              
    2204 000001a7 7640!         LCR       #FS$$DIV              ; [CPU_] |1869| 
         000001a8 0000 
    2205                      ; call occurs [#FS$$DIV] ; [] |1869| 
    2206 000001a9 5CAD          MOVZ      AR4,SP                ; [CPU_] |1869| 
    2207 000001aa DCA4          SUBB      XAR4,#36              ; [CPU_U] |1869| 
    2208 000001ab 88A4          MOVZ      AR6,AR4               ; [CPU_] |1869| 
    2209              $C$DW$207       .dwtag  DW_TAG_TI_branch
    2210                      .dwattr $C$DW$207, DW_AT_low_pc(0x00)
    2211                      .dwattr $C$DW$207, DW_AT_name("FS$$TOFD")
    2212                      .dwattr $C$DW$207, DW_AT_TI_call
    2213              
    2214 000001ac 7640!         LCR       #FS$$TOFD             ; [CPU_] |1869| 
         000001ad 0000 
    2215                      ; call occurs [#FS$$TOFD] ; [] |1869| 
    2216 000001ae 5DAD          MOVZ      AR5,SP                ; [CPU_] |1869| 
    2217 000001af 5CAD          MOVZ      AR4,SP                ; [CPU_] |1869| 
    2218 000001b0 DDA0          SUBB      XAR5,#32              ; [CPU_U] |1869| 
    2219 000001b1 DCA4          SUBB      XAR4,#36              ; [CPU_U] |1869| 
    2220 000001b2 88A5          MOVZ      AR6,AR5               ; [CPU_] |1869| 
    2221 000001b3 5CA4          MOVZ      AR4,AR4               ; [CPU_] |1869| 
    2222 000001b4 8F40+         MOVL      XAR5,#$C$FL1          ; [CPU_U] |1869| 
         000001b5 0000 
    2223              $C$DW$208       .dwtag  DW_TAG_TI_branch
    2224                      .dwattr $C$DW$208, DW_AT_low_pc(0x00)
    2225                      .dwattr $C$DW$208, DW_AT_name("FD$$MPY")
    2226                      .dwattr $C$DW$208, DW_AT_TI_call
    2227              
    2228 000001b6 7640!         LCR       #FD$$MPY              ; [CPU_] |1869| 
         000001b7 0000 
    2229                      ; call occurs [#FD$$MPY] ; [] |1869| 
    2230 000001b8 5CAD          MOVZ      AR4,SP                ; [CPU_] |1869| 
    2231 000001b9 DCA0          SUBB      XAR4,#32              ; [CPU_U] |1869| 
    2232 000001ba 5CA4          MOVZ      AR4,AR4               ; [CPU_] |1869| 
    2233              $C$DW$209       .dwtag  DW_TAG_TI_branch
    2234                      .dwattr $C$DW$209, DW_AT_low_pc(0x00)
    2235                      .dwattr $C$DW$209, DW_AT_name("FD$$TOL")
    2236                      .dwattr $C$DW$209, DW_AT_TI_call
    2237              
    2238 000001bb 7640!         LCR       #FD$$TOL              ; [CPU_] |1869| 
         000001bc 0000 
    2239                      ; call occurs [#FD$$TOL] ; [] |1869| 
    2240 000001bd D0A4          MOVB      XAR0,#164             ; [CPU_] |1869| 
    2241 000001be 1E91          MOVL      *+XAR1[AR0],ACC       ; [CPU_] |1869| 
TMS320C2000 Assembler PC v15.12.3 Wed Nov 22 00:56:17 2017

Tools Copyright (c) 1996-2015 Texas Instruments Incorporated
C:\Users\wmj\AppData\Local\Temp\0070810                              PAGE   43

    2242                      .dwpsn  file "C:/Users/wmj/Desktop/BM1000_v1.1/sw/modules/ctrl/src/32b/ctrl.h",line 1217,column 3,is_
    2243 000001bf 8A6A          MOVL      XAR4,*-SP[42]         ; [CPU_] |1217| 
    2244 000001c0 D0A6          MOVB      XAR0,#166             ; [CPU_] |1217| 
    2245 000001c1 0694          MOVL      ACC,*+XAR4[AR0]       ; [CPU_] |1217| 
    2246 000001c2 D0A6          MOVB      XAR0,#166             ; [CPU_] |1217| 
    2247 000001c3 1E91          MOVL      *+XAR1[AR0],ACC       ; [CPU_] |1217| 
    2248                      .dwpsn  file "C:/Users/wmj/Desktop/BM1000_v1.1/sw/modules/ctrl/src/32b/ctrl.h",line 1583,column 3,is_
    2249 000001c4 D030          MOVB      XAR0,#48              ; [CPU_] |1583| 
    2250 000001c5 0694          MOVL      ACC,*+XAR4[AR0]       ; [CPU_] |1583| 
    2251 000001c6 5CAD          MOVZ      AR4,SP                ; [CPU_] |1583| 
    2252 000001c7 DCA4          SUBB      XAR4,#36              ; [CPU_U] |1583| 
    2253 000001c8 88A4          MOVZ      AR6,AR4               ; [CPU_] |1583| 
    2254              $C$DW$210       .dwtag  DW_TAG_TI_branch
    2255                      .dwattr $C$DW$210, DW_AT_low_pc(0x00)
    2256                      .dwattr $C$DW$210, DW_AT_name("FS$$TOFD")
    2257                      .dwattr $C$DW$210, DW_AT_TI_call
    2258              
    2259 000001c9 7640!         LCR       #FS$$TOFD             ; [CPU_] |1583| 
         000001ca 0000 
    2260                      ; call occurs [#FS$$TOFD] ; [] |1583| 
    2261 000001cb 5DAD          MOVZ      AR5,SP                ; [CPU_] |1583| 
    2262 000001cc 5CAD          MOVZ      AR4,SP                ; [CPU_] |1583| 
    2263 000001cd DDA0          SUBB      XAR5,#32              ; [CPU_U] |1583| 
    2264 000001ce DCA4          SUBB      XAR4,#36              ; [CPU_U] |1583| 
    2265 000001cf 88A5          MOVZ      AR6,AR5               ; [CPU_] |1583| 
    2266 000001d0 5CA4          MOVZ      AR4,AR4               ; [CPU_] |1583| 
    2267 000001d1 8F40+         MOVL      XAR5,#$C$FL1          ; [CPU_U] |1583| 
         000001d2 0000 
    2268              $C$DW$211       .dwtag  DW_TAG_TI_branch
    2269                      .dwattr $C$DW$211, DW_AT_low_pc(0x00)
    2270                      .dwattr $C$DW$211, DW_AT_name("FD$$MPY")
    2271                      .dwattr $C$DW$211, DW_AT_TI_call
    2272              
    2273 000001d3 7640!         LCR       #FD$$MPY              ; [CPU_] |1583| 
         000001d4 0000 
    2274                      ; call occurs [#FD$$MPY] ; [] |1583| 
    2275 000001d5 5CAD          MOVZ      AR4,SP                ; [CPU_] |1583| 
    2276 000001d6 DCA0          SUBB      XAR4,#32              ; [CPU_U] |1583| 
    2277 000001d7 5CA4          MOVZ      AR4,AR4               ; [CPU_] |1583| 
    2278              $C$DW$212       .dwtag  DW_TAG_TI_branch
    2279                      .dwattr $C$DW$212, DW_AT_low_pc(0x00)
    2280                      .dwattr $C$DW$212, DW_AT_name("FD$$TOL")
    2281                      .dwattr $C$DW$212, DW_AT_TI_call
    2282              
    2283 000001d8 7640!         LCR       #FD$$TOL              ; [CPU_] |1583| 
         000001d9 0000 
    2284                      ; call occurs [#FD$$TOL] ; [] |1583| 
    2285 000001da D0A8          MOVB      XAR0,#168             ; [CPU_] |1583| 
    2286 000001db 1E91          MOVL      *+XAR1[AR0],ACC       ; [CPU_] |1583| 
    2287                      .dwpsn  file "C:/Users/wmj/Desktop/BM1000_v1.1/sw/modules/ctrl/src/32b/ctrl.h",line 1364,column 3,is_
    2288 000001dc D0AA          MOVB      XAR0,#170             ; [CPU_] |1364| 
    2289                      .dwpsn  file "C:/Users/wmj/Desktop/BM1000_v1.1/sw/modules/ctrl/src/32b/ctrl.c",line 336,column 3,is_s
    2290 000001dd 8AA1          MOVL      XAR4,XAR1             ; [CPU_] |336| 
    2291                      .dwpsn  file "C:/Users/wmj/Desktop/BM1000_v1.1/sw/modules/ctrl/src/32b/ctrl.h",line 1364,column 3,is_
    2292 000001de 0648          MOVL      ACC,*-SP[8]           ; [CPU_] |1364| 
TMS320C2000 Assembler PC v15.12.3 Wed Nov 22 00:56:17 2017

Tools Copyright (c) 1996-2015 Texas Instruments Incorporated
C:\Users\wmj\AppData\Local\Temp\0070810                              PAGE   44

    2293 000001df 1E91          MOVL      *+XAR1[AR0],ACC       ; [CPU_] |1364| 
    2294                      .dwpsn  file "C:/Users/wmj/Desktop/BM1000_v1.1/sw/modules/ctrl/src/32b/ctrl.h",line 1365,column 3,is_
    2295 000001e0 D0AC          MOVB      XAR0,#172             ; [CPU_] |1365| 
    2296 000001e1 0646          MOVL      ACC,*-SP[6]           ; [CPU_] |1365| 
    2297 000001e2 1E91          MOVL      *+XAR1[AR0],ACC       ; [CPU_] |1365| 
    2298                      .dwpsn  file "C:/Users/wmj/Desktop/BM1000_v1.1/sw/modules/ctrl/src/32b/ctrl.h",line 1397,column 3,is_
    2299 000001e3 D0B2          MOVB      XAR0,#178             ; [CPU_] |1397| 
    2300 000001e4 064C          MOVL      ACC,*-SP[12]          ; [CPU_] |1397| 
    2301 000001e5 1E91          MOVL      *+XAR1[AR0],ACC       ; [CPU_] |1397| 
    2302                      .dwpsn  file "C:/Users/wmj/Desktop/BM1000_v1.1/sw/modules/ctrl/src/32b/ctrl.h",line 1398,column 3,is_
    2303 000001e6 D0B4          MOVB      XAR0,#180             ; [CPU_] |1398| 
    2304 000001e7 064A          MOVL      ACC,*-SP[10]          ; [CPU_] |1398| 
    2305 000001e8 1E91          MOVL      *+XAR1[AR0],ACC       ; [CPU_] |1398| 
    2306                      .dwpsn  file "C:/Users/wmj/Desktop/BM1000_v1.1/sw/modules/ctrl/src/32b/ctrl.h",line 1425,column 3,is_
    2307 000001e9 D0E2          MOVB      XAR0,#226             ; [CPU_] |1425| 
    2308 000001ea 0650          MOVL      ACC,*-SP[16]          ; [CPU_] |1425| 
    2309 000001eb 1E91          MOVL      *+XAR1[AR0],ACC       ; [CPU_] |1425| 
    2310                      .dwpsn  file "C:/Users/wmj/Desktop/BM1000_v1.1/sw/modules/ctrl/src/32b/ctrl.h",line 1426,column 3,is_
    2311 000001ec D0E4          MOVB      XAR0,#228             ; [CPU_] |1426| 
    2312 000001ed 064E          MOVL      ACC,*-SP[14]          ; [CPU_] |1426| 
    2313 000001ee 1E91          MOVL      *+XAR1[AR0],ACC       ; [CPU_] |1426| 
    2314                      .dwpsn  file "C:/Users/wmj/Desktop/BM1000_v1.1/sw/modules/ctrl/src/32b/ctrl.c",line 336,column 3,is_s
    2315              $C$DW$213       .dwtag  DW_TAG_TI_branch
    2316                      .dwattr $C$DW$213, DW_AT_low_pc(0x00)
    2317                      .dwattr $C$DW$213, DW_AT_name("_CTRL_setBrake")
    2318                      .dwattr $C$DW$213, DW_AT_TI_call
    2319              
    2320 000001ef 7640'         LCR       #_CTRL_setBrake       ; [CPU_] |336| 
         000001f0 0104 
    2321                      ; call occurs [#_CTRL_setBrake] ; [] |336| 
    2322 000001f1 8A6A          MOVL      XAR4,*-SP[42]         ; [CPU_] 
    2323                      .dwpsn  file "C:/Users/wmj/Desktop/BM1000_v1.1/sw/drivers/drvic/brake.h",line 71,column 3,is_stmt,isa
    2324 000001f2 D04A          MOVB      XAR0,#74              ; [CPU_] |71| 
    2325 000001f3 06C4          MOVL      ACC,*+XAR4[0]         ; [CPU_] |71| 
    2326 000001f4 1E42          MOVL      *-SP[2],ACC           ; [CPU_] |71| 
    2327 000001f5 0694          MOVL      ACC,*+XAR4[AR0]       ; [CPU_] |71| 
    2328              $C$DW$214       .dwtag  DW_TAG_TI_branch
    2329                      .dwattr $C$DW$214, DW_AT_low_pc(0x00)
    2330                      .dwattr $C$DW$214, DW_AT_name("FS$$DIV")
    2331                      .dwattr $C$DW$214, DW_AT_TI_call
    2332              
    2333 000001f6 7640!         LCR       #FS$$DIV              ; [CPU_] |71| 
         000001f7 0000 
    2334                      ; call occurs [#FS$$DIV] ; [] |71| 
    2335 000001f8 5CAD          MOVZ      AR4,SP                ; [CPU_] |71| 
    2336 000001f9 DCA4          SUBB      XAR4,#36              ; [CPU_U] |71| 
    2337 000001fa 88A4          MOVZ      AR6,AR4               ; [CPU_] |71| 
    2338              $C$DW$215       .dwtag  DW_TAG_TI_branch
    2339                      .dwattr $C$DW$215, DW_AT_low_pc(0x00)
    2340                      .dwattr $C$DW$215, DW_AT_name("FS$$TOFD")
    2341                      .dwattr $C$DW$215, DW_AT_TI_call
    2342              
    2343 000001fb 7640!         LCR       #FS$$TOFD             ; [CPU_] |71| 
         000001fc 0000 
    2344                      ; call occurs [#FS$$TOFD] ; [] |71| 
TMS320C2000 Assembler PC v15.12.3 Wed Nov 22 00:56:17 2017

Tools Copyright (c) 1996-2015 Texas Instruments Incorporated
C:\Users\wmj\AppData\Local\Temp\0070810                              PAGE   45

    2345 000001fd 5DAD          MOVZ      AR5,SP                ; [CPU_] |71| 
    2346 000001fe 5CAD          MOVZ      AR4,SP                ; [CPU_] |71| 
    2347 000001ff DDA0          SUBB      XAR5,#32              ; [CPU_U] |71| 
    2348 00000200 DCA4          SUBB      XAR4,#36              ; [CPU_U] |71| 
    2349 00000201 88A5          MOVZ      AR6,AR5               ; [CPU_] |71| 
    2350 00000202 5CA4          MOVZ      AR4,AR4               ; [CPU_] |71| 
    2351 00000203 8F40+         MOVL      XAR5,#$C$FL1          ; [CPU_U] |71| 
         00000204 0000 
    2352              $C$DW$216       .dwtag  DW_TAG_TI_branch
    2353                      .dwattr $C$DW$216, DW_AT_low_pc(0x00)
    2354                      .dwattr $C$DW$216, DW_AT_name("FD$$MPY")
    2355                      .dwattr $C$DW$216, DW_AT_TI_call
    2356              
    2357 00000205 7640!         LCR       #FD$$MPY              ; [CPU_] |71| 
         00000206 0000 
    2358                      ; call occurs [#FD$$MPY] ; [] |71| 
    2359 00000207 5CAD          MOVZ      AR4,SP                ; [CPU_] |71| 
    2360 00000208 DCA0          SUBB      XAR4,#32              ; [CPU_U] |71| 
    2361 00000209 5CA4          MOVZ      AR4,AR4               ; [CPU_] |71| 
    2362              $C$DW$217       .dwtag  DW_TAG_TI_branch
    2363                      .dwattr $C$DW$217, DW_AT_low_pc(0x00)
    2364                      .dwattr $C$DW$217, DW_AT_name("FD$$TOL")
    2365                      .dwattr $C$DW$217, DW_AT_TI_call
    2366              
    2367 0000020a 7640!         LCR       #FD$$TOL              ; [CPU_] |71| 
         0000020b 0000 
    2368                      ; call occurs [#FD$$TOL] ; [] |71| 
    2369 0000020c D0FE          MOVB      XAR0,#254             ; [CPU_] |71| 
    2370 0000020d 8A91          MOVL      XAR4,*+XAR1[AR0]      ; [CPU_] |71| 
    2371                      .dwpsn  file "C:/Users/wmj/Desktop/BM1000_v1.1/sw/drivers/drvic/brake.h",line 81,column 3,is_stmt,isa
    2372 0000020e D0FE          MOVB      XAR0,#254             ; [CPU_] |81| 
    2373                      .dwpsn  file "C:/Users/wmj/Desktop/BM1000_v1.1/sw/drivers/drvic/brake.h",line 71,column 3,is_stmt,isa
    2374 0000020f 1ED4          MOVL      *+XAR4[2],ACC         ; [CPU_] |71| 
    2375                      .dwpsn  file "C:/Users/wmj/Desktop/BM1000_v1.1/sw/drivers/drvic/brake.h",line 81,column 3,is_stmt,isa
    2376 00000210 8A91          MOVL      XAR4,*+XAR1[AR0]      ; [CPU_] |81| 
    2377 00000211 0200          MOVB      ACC,#0                ; [CPU_] |81| 
    2378                      .dwpsn  file "C:/Users/wmj/Desktop/BM1000_v1.1/sw/drivers/drvic/brake.h",line 97,column 3,is_stmt,isa
    2379 00000212 D0FE          MOVB      XAR0,#254             ; [CPU_] |97| 
    2380                      .dwpsn  file "C:/Users/wmj/Desktop/BM1000_v1.1/sw/drivers/drvic/brake.h",line 81,column 3,is_stmt,isa
    2381 00000213 1EE4          MOVL      *+XAR4[4],ACC         ; [CPU_] |81| 
    2382                      .dwpsn  file "C:/Users/wmj/Desktop/BM1000_v1.1/sw/drivers/drvic/brake.h",line 97,column 3,is_stmt,isa
    2383 00000214 8A91          MOVL      XAR4,*+XAR1[AR0]      ; [CPU_] |97| 
    2384                      .dwpsn  file "C:/Users/wmj/Desktop/BM1000_v1.1/sw/modules/ctrl/src/32b/ctrl.h",line 1804,column 3,is_
    2385 00000215 FF2F          MOV       ACC,#512 << 15        ; [CPU_] |1804| 
         00000216 0200 
    2386 00000217 D0F8          MOVB      XAR0,#248             ; [CPU_] |1804| 
    2387                      .dwpsn  file "C:/Users/wmj/Desktop/BM1000_v1.1/sw/drivers/drvic/brake.h",line 97,column 3,is_stmt,isa
    2388 00000218 2BF4          MOV       *+XAR4[6],#0          ; [CPU_] |97| 
    2389                      .dwpsn  file "C:/Users/wmj/Desktop/BM1000_v1.1/sw/modules/ctrl/src/32b/ctrl.h",line 1804,column 3,is_
    2390 00000219 1E91          MOVL      *+XAR1[AR0],ACC       ; [CPU_] |1804| 
    2391 0000021a 8A6A          MOVL      XAR4,*-SP[42]         ; [CPU_] |1804| 
    2392                      .dwpsn  file "C:/Users/wmj/Desktop/BM1000_v1.1/sw/modules/ctrl/src/32b/ctrl.h",line 1439,column 3,is_
    2393 0000021b D04A          MOVB      XAR0,#74              ; [CPU_] |1439| 
    2394 0000021c 06C4          MOVL      ACC,*+XAR4[0]         ; [CPU_] |1439| 
    2395 0000021d 1E42          MOVL      *-SP[2],ACC           ; [CPU_] |1439| 
TMS320C2000 Assembler PC v15.12.3 Wed Nov 22 00:56:17 2017

Tools Copyright (c) 1996-2015 Texas Instruments Incorporated
C:\Users\wmj\AppData\Local\Temp\0070810                              PAGE   46

    2396 0000021e 0694          MOVL      ACC,*+XAR4[AR0]       ; [CPU_] |1439| 
    2397              $C$DW$218       .dwtag  DW_TAG_TI_branch
    2398                      .dwattr $C$DW$218, DW_AT_low_pc(0x00)
    2399                      .dwattr $C$DW$218, DW_AT_name("FS$$DIV")
    2400                      .dwattr $C$DW$218, DW_AT_TI_call
    2401              
    2402 0000021f 7640!         LCR       #FS$$DIV              ; [CPU_] |1439| 
         00000220 0000 
    2403                      ; call occurs [#FS$$DIV] ; [] |1439| 
    2404 00000221 5CAD          MOVZ      AR4,SP                ; [CPU_] |1439| 
    2405 00000222 DCA4          SUBB      XAR4,#36              ; [CPU_U] |1439| 
    2406 00000223 88A4          MOVZ      AR6,AR4               ; [CPU_] |1439| 
    2407              $C$DW$219       .dwtag  DW_TAG_TI_branch
    2408                      .dwattr $C$DW$219, DW_AT_low_pc(0x00)
    2409                      .dwattr $C$DW$219, DW_AT_name("FS$$TOFD")
    2410                      .dwattr $C$DW$219, DW_AT_TI_call
    2411              
    2412 00000224 7640!         LCR       #FS$$TOFD             ; [CPU_] |1439| 
         00000225 0000 
    2413                      ; call occurs [#FS$$TOFD] ; [] |1439| 
    2414 00000226 5DAD          MOVZ      AR5,SP                ; [CPU_] |1439| 
    2415 00000227 5CAD          MOVZ      AR4,SP                ; [CPU_] |1439| 
    2416 00000228 DDA0          SUBB      XAR5,#32              ; [CPU_U] |1439| 
    2417 00000229 DCA4          SUBB      XAR4,#36              ; [CPU_U] |1439| 
    2418 0000022a 88A5          MOVZ      AR6,AR5               ; [CPU_] |1439| 
    2419 0000022b 5CA4          MOVZ      AR4,AR4               ; [CPU_] |1439| 
    2420 0000022c 8F40+         MOVL      XAR5,#$C$FL1          ; [CPU_U] |1439| 
         0000022d 0000 
    2421              $C$DW$220       .dwtag  DW_TAG_TI_branch
    2422                      .dwattr $C$DW$220, DW_AT_low_pc(0x00)
    2423                      .dwattr $C$DW$220, DW_AT_name("FD$$MPY")
    2424                      .dwattr $C$DW$220, DW_AT_TI_call
    2425              
    2426 0000022e 7640!         LCR       #FD$$MPY              ; [CPU_] |1439| 
         0000022f 0000 
    2427                      ; call occurs [#FD$$MPY] ; [] |1439| 
    2428 00000230 5CAD          MOVZ      AR4,SP                ; [CPU_] |1439| 
    2429 00000231 DCA0          SUBB      XAR4,#32              ; [CPU_U] |1439| 
    2430 00000232 5CA4          MOVZ      AR4,AR4               ; [CPU_] |1439| 
    2431              $C$DW$221       .dwtag  DW_TAG_TI_branch
    2432                      .dwattr $C$DW$221, DW_AT_low_pc(0x00)
    2433                      .dwattr $C$DW$221, DW_AT_name("FD$$TOL")
    2434                      .dwattr $C$DW$221, DW_AT_TI_call
    2435              
    2436 00000233 7640!         LCR       #FD$$TOL              ; [CPU_] |1439| 
         00000234 0000 
    2437                      ; call occurs [#FD$$TOL] ; [] |1439| 
    2438 00000235 D0E6          MOVB      XAR0,#230             ; [CPU_] |1439| 
    2439 00000236 1E91          MOVL      *+XAR1[AR0],ACC       ; [CPU_] |1439| 
    2440                      .dwpsn  file "C:/Users/wmj/Desktop/BM1000_v1.1/sw/modules/ctrl/src/32b/ctrl.h",line 1952,column 3,is_
    2441 00000237 D0B6          MOVB      XAR0,#182             ; [CPU_] |1952| 
    2442 00000238 0654          MOVL      ACC,*-SP[20]          ; [CPU_] |1952| 
    2443 00000239 1E91          MOVL      *+XAR1[AR0],ACC       ; [CPU_] |1952| 
    2444                      .dwpsn  file "C:/Users/wmj/Desktop/BM1000_v1.1/sw/modules/ctrl/src/32b/ctrl.h",line 1953,column 3,is_
    2445 0000023a D0B8          MOVB      XAR0,#184             ; [CPU_] |1953| 
TMS320C2000 Assembler PC v15.12.3 Wed Nov 22 00:56:17 2017

Tools Copyright (c) 1996-2015 Texas Instruments Incorporated
C:\Users\wmj\AppData\Local\Temp\0070810                              PAGE   47

    2446 0000023b 0652          MOVL      ACC,*-SP[18]          ; [CPU_] |1953| 
    2447 0000023c 1E91          MOVL      *+XAR1[AR0],ACC       ; [CPU_] |1953| 
    2448                      .dwpsn  file "C:/Users/wmj/Desktop/BM1000_v1.1/sw/modules/ctrl/src/32b/ctrl.h",line 1966,column 3,is_
    2449 0000023d D0BC          MOVB      XAR0,#188             ; [CPU_] |1966| 
    2450 0000023e 0658          MOVL      ACC,*-SP[24]          ; [CPU_] |1966| 
    2451 0000023f 1E91          MOVL      *+XAR1[AR0],ACC       ; [CPU_] |1966| 
    2452                      .dwpsn  file "C:/Users/wmj/Desktop/BM1000_v1.1/sw/modules/ctrl/src/32b/ctrl.h",line 1967,column 3,is_
    2453 00000240 D0BE          MOVB      XAR0,#190             ; [CPU_] |1967| 
    2454 00000241 0656          MOVL      ACC,*-SP[22]          ; [CPU_] |1967| 
    2455 00000242 1E91          MOVL      *+XAR1[AR0],ACC       ; [CPU_] |1967| 
    2456                      .dwpsn  file "C:/Users/wmj/Desktop/BM1000_v1.1/sw/modules/ctrl/src/32b/ctrl.h",line 1994,column 3,is_
    2457 00000243 D0C0          MOVB      XAR0,#192             ; [CPU_] |1994| 
    2458 00000244 065C          MOVL      ACC,*-SP[28]          ; [CPU_] |1994| 
    2459 00000245 1E91          MOVL      *+XAR1[AR0],ACC       ; [CPU_] |1994| 
    2460                      .dwpsn  file "C:/Users/wmj/Desktop/BM1000_v1.1/sw/modules/ctrl/src/32b/ctrl.h",line 1995,column 3,is_
    2461 00000246 D0C2          MOVB      XAR0,#194             ; [CPU_] |1995| 
    2462 00000247 065A          MOVL      ACC,*-SP[26]          ; [CPU_] |1995| 
    2463 00000248 1E91          MOVL      *+XAR1[AR0],ACC       ; [CPU_] |1995| 
    2464                      .dwpsn  file "C:/Users/wmj/Desktop/BM1000_v1.1/sw/modules/ctrl/src/32b/ctrl.h",line 1791,column 3,is_
    2465 00000249 D0BA          MOVB      XAR0,#186             ; [CPU_] |1791| 
    2466 0000024a 0200          MOVB      ACC,#0                ; [CPU_] |1791| 
    2467 0000024b 1E91          MOVL      *+XAR1[AR0],ACC       ; [CPU_] |1791| 
    2468                      .dwpsn  file "C:/Users/wmj/Desktop/BM1000_v1.1/sw/modules/ctrl/src/32b/ctrl.h",line 1739,column 3,is_
    2469 0000024c D0C4          MOVB      XAR0,#196             ; [CPU_] |1739| 
    2470 0000024d 9A00          MOV       AL,#0                 ; [CPU_] |1739| 
    2471 0000024e 9B00          MOV       AH,#0                 ; [CPU_] |1739| 
    2472 0000024f 1E91          MOVL      *+XAR1[AR0],ACC       ; [CPU_] |1739| 
    2473                      .dwpsn  file "C:/Users/wmj/Desktop/BM1000_v1.1/sw/modules/ctrl/src/32b/ctrl.h",line 1564,column 3,is_
    2474 00000250 D0C6          MOVB      XAR0,#198             ; [CPU_] |1564| 
    2475 00000251 1E91          MOVL      *+XAR1[AR0],ACC       ; [CPU_] |1564| 
    2476                      .dwpsn  file "C:/Users/wmj/Desktop/BM1000_v1.1/sw/modules/ctrl/src/32b/ctrl.h",line 1752,column 3,is_
    2477 00000252 D0C8          MOVB      XAR0,#200             ; [CPU_] |1752| 
    2478 00000253 1E91          MOVL      *+XAR1[AR0],ACC       ; [CPU_] |1752| 
    2479                      .dwpsn  file "C:/Users/wmj/Desktop/BM1000_v1.1/sw/modules/ctrl/src/32b/ctrl.h",line 1112,column 3,is_
    2480 00000254 D0EC          MOVB      XAR0,#236             ; [CPU_] |1112| 
    2481                      .dwpsn  file "C:/Users/wmj/Desktop/BM1000_v1.1/sw/modules/ctrl/src/32b/ctrl.h",line 1148,column 3,is_
    2482 00000255 0200          MOVB      ACC,#0                ; [CPU_] |1148| 
    2483                      .dwpsn  file "C:/Users/wmj/Desktop/BM1000_v1.1/sw/modules/ctrl/src/32b/ctrl.h",line 1112,column 3,is_
    2484 00000256 2B91          MOV       *+XAR1[AR0],#0        ; [CPU_] |1112| 
    2485                      .dwpsn  file "C:/Users/wmj/Desktop/BM1000_v1.1/sw/modules/ctrl/src/32b/ctrl.h",line 1124,column 3,is_
    2486 00000257 D0ED          MOVB      XAR0,#237             ; [CPU_] |1124| 
    2487 00000258 56BF          MOVB      *+XAR1[AR0],#1,UNC    ; [CPU_] |1124| 
         00000259 0191 
    2488                      .dwpsn  file "C:/Users/wmj/Desktop/BM1000_v1.1/sw/modules/ctrl/src/32b/ctrl.h",line 1136,column 3,is_
    2489 0000025a D0EE          MOVB      XAR0,#238             ; [CPU_] |1136| 
    2490 0000025b 2B91          MOV       *+XAR1[AR0],#0        ; [CPU_] |1136| 
    2491                      .dwpsn  file "C:/Users/wmj/Desktop/BM1000_v1.1/sw/modules/ctrl/src/32b/ctrl.h",line 1148,column 3,is_
    2492 0000025c D09A          MOVB      XAR0,#154             ; [CPU_] |1148| 
    2493 0000025d 1E91          MOVL      *+XAR1[AR0],ACC       ; [CPU_] |1148| 
    2494                      .dwpsn  file "C:/Users/wmj/Desktop/BM1000_v1.1/sw/modules/ctrl/src/32b/ctrl.h",line 1160,column 3,is_
    2495 0000025e D0EF          MOVB      XAR0,#239             ; [CPU_] |1160| 
    2496 0000025f 2B91          MOV       *+XAR1[AR0],#0        ; [CPU_] |1160| 
    2497 00000260 836A          MOVL      XAR5,*-SP[42]         ; [CPU_] |1160| 
    2498                      .dwpsn  file "C:/Users/wmj/Desktop/BM1000_v1.1/sw/modules/ctrl/src/32b/ctrl.c",line 364,column 3,is_s
    2499 00000261 8AA1          MOVL      XAR4,XAR1             ; [CPU_] |364| 
TMS320C2000 Assembler PC v15.12.3 Wed Nov 22 00:56:17 2017

Tools Copyright (c) 1996-2015 Texas Instruments Incorporated
C:\Users\wmj\AppData\Local\Temp\0070810                              PAGE   48

    2500 00000262 DD54          ADDB      XAR5,#84              ; [CPU_] |364| 
    2501              $C$DW$222       .dwtag  DW_TAG_TI_branch
    2502                      .dwattr $C$DW$222, DW_AT_low_pc(0x00)
    2503                      .dwattr $C$DW$222, DW_AT_name("_CTRL_setWaitTimes")
    2504                      .dwattr $C$DW$222, DW_AT_TI_call
    2505              
    2506 00000263 7640'         LCR       #_CTRL_setWaitTimes   ; [CPU_] |364| 
         00000264 00E5 
    2507                      ; call occurs [#_CTRL_setWaitTimes] ; [] |364| 
    2508                      .dwpsn  file "C:/Users/wmj/Desktop/BM1000_v1.1/sw/modules/ctrl/src/32b/ctrl.h",line 1299,column 3,is_
    2509 00000265 D0F2          MOVB      XAR0,#242             ; [CPU_] |1299| 
    2510 00000266 2B91          MOV       *+XAR1[AR0],#0        ; [CPU_] |1299| 
    2511                      .dwpsn  file "C:/Users/wmj/Desktop/BM1000_v1.1/sw/modules/ctrl/src/32b/ctrl.h",line 1255,column 3,is_
    2512 00000267 D0F0          MOVB      XAR0,#240             ; [CPU_] |1255| 
    2513 00000268 2B91          MOV       *+XAR1[AR0],#0        ; [CPU_] |1255| 
    2514                      .dwpsn  file "C:/Users/wmj/Desktop/BM1000_v1.1/sw/modules/ctrl/src/32b/ctrl.h",line 1312,column 3,is_
    2515 00000269 D0F3          MOVB      XAR0,#243             ; [CPU_] |1312| 
    2516 0000026a 56BF          MOVB      *+XAR1[AR0],#1,UNC    ; [CPU_] |1312| 
         0000026b 0191 
    2517                      .dwpsn  file "C:/Users/wmj/Desktop/BM1000_v1.1/sw/modules/ctrl/src/32b/ctrl.h",line 1325,column 3,is_
    2518 0000026c D0F4          MOVB      XAR0,#244             ; [CPU_] |1325| 
    2519 0000026d 56BF          MOVB      *+XAR1[AR0],#1,UNC    ; [CPU_] |1325| 
         0000026e 0191 
    2520                      .dwpsn  file "C:/Users/wmj/Desktop/BM1000_v1.1/sw/modules/ctrl/src/32b/ctrl.h",line 1341,column 3,is_
    2521 0000026f D0F5          MOVB      XAR0,#245             ; [CPU_] |1341| 
    2522 00000270 2B91          MOV       *+XAR1[AR0],#0        ; [CPU_] |1341| 
    2523                      .dwpsn  file "C:/Users/wmj/Desktop/BM1000_v1.1/sw/modules/ctrl/src/32b/ctrl.h",line 1283,column 3,is_
    2524 00000271 D0F1          MOVB      XAR0,#241             ; [CPU_] |1283| 
    2525 00000272 56BF          MOVB      *+XAR1[AR0],#1,UNC    ; [CPU_] |1283| 
         00000273 0191 
    2526                      .dwpsn  file "C:/Users/wmj/Desktop/BM1000_v1.1/sw/modules/ctrl/src/32b/ctrl.h",line 123,column 3,is_s
    2527 00000274 D0FC          MOVB      XAR0,#252             ; [CPU_] |123| 
    2528 00000275 2B91          MOV       *+XAR1[AR0],#0        ; [CPU_] |123| 
    2529                      .dwpsn  file "C:/Users/wmj/Desktop/BM1000_v1.1/sw/modules/ctrl/src/32b/ctrl.h",line 1268,column 3,is_
    2530 00000276 D0F6          MOVB      XAR0,#246             ; [CPU_] |1268| 
    2531 00000277 56BF          MOVB      *+XAR1[AR0],#1,UNC    ; [CPU_] |1268| 
         00000278 0191 
    2532                      .dwpsn  file "C:/Users/wmj/Desktop/BM1000_v1.1/sw/modules/ctrl/src/32b/ctrl.h",line 1230,column 3,is_
    2533 00000279 2BF1          MOV       *+XAR1[6],#0          ; [CPU_] |1230| 
    2534                      .dwpsn  file "C:/Users/wmj/Desktop/BM1000_v1.1/sw/modules/ctrl/src/32b/ctrl.h",line 1842,column 3,is_
    2535 0000027a 92E1          MOV       AL,*+XAR1[4]          ; [CPU_] |1842| 
    2536 0000027b 96E9          MOV       *+XAR1[5],AL          ; [CPU_] |1842| 
    2537                      .dwpsn  file "C:/Users/wmj/Desktop/BM1000_v1.1/sw/modules/ctrl/src/32b/ctrl.h",line 1843,column 3,is_
    2538 0000027c 56BF          MOVB      *+XAR1[4],#1,UNC      ; [CPU_] |1843| 
         0000027d 01E1 
    2539                      .dwpsn  file "C:/Users/wmj/Desktop/BM1000_v1.1/sw/modules/ctrl/src/32b/ctrl.c",line 389,column 3,is_s
    2540 0000027e 8A6A          MOVL      XAR4,*-SP[42]         ; [CPU_] |389| 
    2541 0000027f D00B          MOVB      XAR0,#11              ; [CPU_] |389| 
    2542 00000280 9294          MOV       AL,*+XAR4[AR0]        ; [CPU_] |389| 
    2543 00000281 8AA1          MOVL      XAR4,XAR1             ; [CPU_] |389| 
    2544              $C$DW$223       .dwtag  DW_TAG_TI_branch
    2545                      .dwattr $C$DW$223, DW_AT_low_pc(0x00)
    2546                      .dwattr $C$DW$223, DW_AT_name("_CTRL_setupClarke_I")
    2547                      .dwattr $C$DW$223, DW_AT_TI_call
    2548              
TMS320C2000 Assembler PC v15.12.3 Wed Nov 22 00:56:17 2017

Tools Copyright (c) 1996-2015 Texas Instruments Incorporated
C:\Users\wmj\AppData\Local\Temp\0070810                              PAGE   49

    2549 00000282 7640'         LCR       #_CTRL_setupClarke_I  ; [CPU_] |389| 
         00000283 00C9 
    2550                      ; call occurs [#_CTRL_setupClarke_I] ; [] |389| 
    2551                      .dwpsn  file "C:/Users/wmj/Desktop/BM1000_v1.1/sw/modules/ctrl/src/32b/ctrl.c",line 393,column 3,is_s
    2552 00000284 8A6A          MOVL      XAR4,*-SP[42]         ; [CPU_] |393| 
    2553 00000285 D00C          MOVB      XAR0,#12              ; [CPU_] |393| 
    2554 00000286 9294          MOV       AL,*+XAR4[AR0]        ; [CPU_] |393| 
    2555 00000287 8AA1          MOVL      XAR4,XAR1             ; [CPU_] |393| 
    2556              $C$DW$224       .dwtag  DW_TAG_TI_branch
    2557                      .dwattr $C$DW$224, DW_AT_low_pc(0x00)
    2558                      .dwattr $C$DW$224, DW_AT_name("_CTRL_setupClarke_V")
    2559                      .dwattr $C$DW$224, DW_AT_TI_call
    2560              
    2561 00000288 7640'         LCR       #_CTRL_setupClarke_V  ; [CPU_] |393| 
         00000289 00B3 
    2562                      ; call occurs [#_CTRL_setupClarke_V] ; [] |393| 
    2563                      .dwpsn  file "C:/Users/wmj/Desktop/BM1000_v1.1/sw/modules/ctrl/src/32b/ctrl.c",line 398,column 3,is_s
    2564 0000028a 28A8          MOV       AH,#15235             ; [CPU_] |398| 
         0000028b 3B83 
    2565 0000028c 8A6A          MOVL      XAR4,*-SP[42]         ; [CPU_] |398| 
    2566 0000028d 28A9          MOV       AL,#4719              ; [CPU_] |398| 
         0000028e 126F 
    2567 0000028f D0A6          MOVB      XAR0,#166             ; [CPU_] |398| 
    2568 00000290 1E42          MOVL      *-SP[2],ACC           ; [CPU_] |398| 
    2569 00000291 0694          MOVL      ACC,*+XAR4[AR0]       ; [CPU_] |398| 
    2570              $C$DW$225       .dwtag  DW_TAG_TI_branch
    2571                      .dwattr $C$DW$225, DW_AT_low_pc(0x00)
    2572                      .dwattr $C$DW$225, DW_AT_name("FS$$DIV")
    2573                      .dwattr $C$DW$225, DW_AT_TI_call
    2574              
    2575 00000292 7640!         LCR       #FS$$DIV              ; [CPU_] |398| 
         00000293 0000 
    2576                      ; call occurs [#FS$$DIV] ; [] |398| 
    2577 00000294 5CAD          MOVZ      AR4,SP                ; [CPU_] |398| 
    2578 00000295 DCA4          SUBB      XAR4,#36              ; [CPU_U] |398| 
    2579 00000296 88A4          MOVZ      AR6,AR4               ; [CPU_] |398| 
    2580              $C$DW$226       .dwtag  DW_TAG_TI_branch
    2581                      .dwattr $C$DW$226, DW_AT_low_pc(0x00)
    2582                      .dwattr $C$DW$226, DW_AT_name("FS$$TOFD")
    2583                      .dwattr $C$DW$226, DW_AT_TI_call
    2584              
    2585 00000297 7640!         LCR       #FS$$TOFD             ; [CPU_] |398| 
         00000298 0000 
    2586                      ; call occurs [#FS$$TOFD] ; [] |398| 
    2587 00000299 5DAD          MOVZ      AR5,SP                ; [CPU_] |398| 
    2588 0000029a 5CAD          MOVZ      AR4,SP                ; [CPU_] |398| 
    2589 0000029b DDA0          SUBB      XAR5,#32              ; [CPU_U] |398| 
    2590 0000029c DCA4          SUBB      XAR4,#36              ; [CPU_U] |398| 
    2591 0000029d 88A5          MOVZ      AR6,AR5               ; [CPU_] |398| 
    2592 0000029e 5CA4          MOVZ      AR4,AR4               ; [CPU_] |398| 
    2593 0000029f 8F40+         MOVL      XAR5,#$C$FL1          ; [CPU_U] |398| 
         000002a0 0000 
    2594              $C$DW$227       .dwtag  DW_TAG_TI_branch
    2595                      .dwattr $C$DW$227, DW_AT_low_pc(0x00)
    2596                      .dwattr $C$DW$227, DW_AT_name("FD$$MPY")
TMS320C2000 Assembler PC v15.12.3 Wed Nov 22 00:56:17 2017

Tools Copyright (c) 1996-2015 Texas Instruments Incorporated
C:\Users\wmj\AppData\Local\Temp\0070810                              PAGE   50

    2597                      .dwattr $C$DW$227, DW_AT_TI_call
    2598              
    2599 000002a1 7640!         LCR       #FD$$MPY              ; [CPU_] |398| 
         000002a2 0000 
    2600                      ; call occurs [#FD$$MPY] ; [] |398| 
    2601 000002a3 5CAD          MOVZ      AR4,SP                ; [CPU_] |398| 
    2602 000002a4 DCA0          SUBB      XAR4,#32              ; [CPU_U] |398| 
    2603 000002a5 5CA4          MOVZ      AR4,AR4               ; [CPU_] |398| 
    2604              $C$DW$228       .dwtag  DW_TAG_TI_branch
    2605                      .dwattr $C$DW$228, DW_AT_low_pc(0x00)
    2606                      .dwattr $C$DW$228, DW_AT_name("FD$$TOL")
    2607                      .dwattr $C$DW$228, DW_AT_TI_call
    2608              
    2609 000002a6 7640!         LCR       #FD$$TOL              ; [CPU_] |398| 
         000002a7 0000 
    2610                      ; call occurs [#FD$$TOL] ; [] |398| 
    2611                      .dwpsn  file "C:/Users/wmj/Desktop/BM1000_v1.1/sw/modules/pid/src/32b/pid.h",line 303,column 16,is_st
    2612 000002a8 D020          MOVB      XAR0,#32              ; [CPU_] |303| 
    2613 000002a9 8A91          MOVL      XAR4,*+XAR1[AR0]      ; [CPU_] |303| 
    2614                      .dwpsn  file "C:/Users/wmj/Desktop/BM1000_v1.1/sw/modules/pid/src/32b/pid.h",line 305,column 3,is_stm
    2615 000002aa 8F59          MOVL      XAR5,#1677721         ; [CPU_U] |305| 
         000002ab 9999 
    2616                      .dwpsn  file "C:/Users/wmj/Desktop/BM1000_v1.1/sw/modules/ctrl/src/32b/ctrl.c",line 398,column 3,is_s
    2617 000002ac 1EA6          MOVL      XAR6,ACC              ; [CPU_] |398| 
    2618                      .dwpsn  file "C:/Users/wmj/Desktop/BM1000_v1.1/sw/modules/pid/src/32b/pid.h",line 413,column 3,is_stm
    2619 000002ad D020          MOVB      XAR0,#32              ; [CPU_] |413| 
    2620                      .dwpsn  file "C:/Users/wmj/Desktop/BM1000_v1.1/sw/modules/pid/src/32b/pid.h",line 305,column 3,is_stm
    2621 000002ae A0C4          MOVL      *+XAR4[0],XAR5        ; [CPU_] |305| 
    2622                      .dwpsn  file "C:/Users/wmj/Desktop/BM1000_v1.1/sw/modules/pid/src/32b/pid.h",line 306,column 3,is_stm
    2623 000002af 1ED4          MOVL      *+XAR4[2],ACC         ; [CPU_] |306| 
    2624                      .dwpsn  file "C:/Users/wmj/Desktop/BM1000_v1.1/sw/modules/pid/src/32b/pid.h",line 307,column 3,is_stm
    2625 000002b0 0200          MOVB      ACC,#0                ; [CPU_] |307| 
    2626 000002b1 1EE4          MOVL      *+XAR4[4],ACC         ; [CPU_] |307| 
    2627                      .dwpsn  file "C:/Users/wmj/Desktop/BM1000_v1.1/sw/modules/pid/src/32b/pid.h",line 413,column 3,is_stm
    2628 000002b2 8A91          MOVL      XAR4,*+XAR1[AR0]      ; [CPU_] |413| 
    2629                      .dwpsn  file "C:/Users/wmj/Desktop/BM1000_v1.1/sw/modules/pid/src/32b/pid.h",line 358,column 16,is_st
    2630 000002b3 D020          MOVB      XAR0,#32              ; [CPU_] |358| 
    2631                      .dwpsn  file "C:/Users/wmj/Desktop/BM1000_v1.1/sw/modules/pid/src/32b/pid.h",line 413,column 3,is_stm
    2632 000002b4 1EF4          MOVL      *+XAR4[6],ACC         ; [CPU_] |413| 
    2633                      .dwpsn  file "C:/Users/wmj/Desktop/BM1000_v1.1/sw/modules/pid/src/32b/pid.h",line 360,column 3,is_stm
    2634 000002b5 28A9          MOV       AL,#52429             ; [CPU_] |360| 
         000002b6 CCCD 
    2635                      .dwpsn  file "C:/Users/wmj/Desktop/BM1000_v1.1/sw/modules/pid/src/32b/pid.h",line 358,column 16,is_st
    2636 000002b7 8A91          MOVL      XAR4,*+XAR1[AR0]      ; [CPU_] |358| 
    2637                      .dwpsn  file "C:/Users/wmj/Desktop/BM1000_v1.1/sw/modules/pid/src/32b/pid.h",line 360,column 3,is_stm
    2638 000002b8 28A8          MOV       AH,#65292             ; [CPU_] |360| 
         000002b9 FF0C 
    2639                      .dwpsn  file "C:/Users/wmj/Desktop/BM1000_v1.1/sw/modules/ctrl/src/32b/ctrl.c",line 406,column 3,is_s
    2640 000002ba D501          MOVB      XAR5,#1               ; [CPU_] |406| 
    2641                      .dwpsn  file "C:/Users/wmj/Desktop/BM1000_v1.1/sw/modules/pid/src/32b/pid.h",line 360,column 3,is_stm
    2642 000002bb D00C          MOVB      XAR0,#12              ; [CPU_] |360| 
    2643 000002bc 1E94          MOVL      *+XAR4[AR0],ACC       ; [CPU_] |360| 
    2644                      .dwpsn  file "C:/Users/wmj/Desktop/BM1000_v1.1/sw/modules/pid/src/32b/pid.h",line 361,column 3,is_stm
    2645 000002bd D00E          MOVB      XAR0,#14              ; [CPU_] |361| 
    2646 000002be 28A9          MOV       AL,#13107             ; [CPU_] |361| 
TMS320C2000 Assembler PC v15.12.3 Wed Nov 22 00:56:17 2017

Tools Copyright (c) 1996-2015 Texas Instruments Incorporated
C:\Users\wmj\AppData\Local\Temp\0070810                              PAGE   51

         000002bf 3333 
    2647 000002c0 9BF3          MOV       AH,#243               ; [CPU_] |361| 
    2648 000002c1 1E94          MOVL      *+XAR4[AR0],ACC       ; [CPU_] |361| 
    2649                      .dwpsn  file "C:/Users/wmj/Desktop/BM1000_v1.1/sw/modules/ctrl/src/32b/ctrl.c",line 406,column 3,is_s
    2650 000002c2 0200          MOVB      ACC,#0                ; [CPU_] |406| 
    2651 000002c3 8AA1          MOVL      XAR4,XAR1             ; [CPU_] |406| 
    2652 000002c4 C242          MOVL      *-SP[2],XAR6          ; [CPU_] |406| 
    2653 000002c5 7699          MOVL      XAR6,#1677721         ; [CPU_U] |406| 
         000002c6 9999 
    2654 000002c7 1E44          MOVL      *-SP[4],ACC           ; [CPU_] |406| 
    2655 000002c8 06A6          MOVL      ACC,XAR6              ; [CPU_] |406| 
    2656              $C$DW$229       .dwtag  DW_TAG_TI_branch
    2657                      .dwattr $C$DW$229, DW_AT_low_pc(0x00)
    2658                      .dwattr $C$DW$229, DW_AT_name("_CTRL_setGains")
    2659                      .dwattr $C$DW$229, DW_AT_TI_call
    2660              
    2661 000002c9 7640'         LCR       #_CTRL_setGains       ; [CPU_] |406| 
         000002ca 0111 
    2662                      ; call occurs [#_CTRL_setGains] ; [] |406| 
    2663                      .dwpsn  file "C:/Users/wmj/Desktop/BM1000_v1.1/sw/modules/ctrl/src/32b/ctrl.c",line 411,column 3,is_s
    2664 000002cb 28A9          MOV       AL,#4719              ; [CPU_] |411| 
         000002cc 126F 
    2665 000002cd 8A6A          MOVL      XAR4,*-SP[42]         ; [CPU_] |411| 
    2666 000002ce 28A8          MOV       AH,#15235             ; [CPU_] |411| 
         000002cf 3B83 
    2667 000002d0 D0A6          MOVB      XAR0,#166             ; [CPU_] |411| 
    2668 000002d1 1E42          MOVL      *-SP[2],ACC           ; [CPU_] |411| 
    2669 000002d2 0694          MOVL      ACC,*+XAR4[AR0]       ; [CPU_] |411| 
    2670              $C$DW$230       .dwtag  DW_TAG_TI_branch
    2671                      .dwattr $C$DW$230, DW_AT_low_pc(0x00)
    2672                      .dwattr $C$DW$230, DW_AT_name("FS$$DIV")
    2673                      .dwattr $C$DW$230, DW_AT_TI_call
    2674              
    2675 000002d3 7640!         LCR       #FS$$DIV              ; [CPU_] |411| 
         000002d4 0000 
    2676                      ; call occurs [#FS$$DIV] ; [] |411| 
    2677 000002d5 5CAD          MOVZ      AR4,SP                ; [CPU_] |411| 
    2678 000002d6 DCA4          SUBB      XAR4,#36              ; [CPU_U] |411| 
    2679 000002d7 88A4          MOVZ      AR6,AR4               ; [CPU_] |411| 
    2680              $C$DW$231       .dwtag  DW_TAG_TI_branch
    2681                      .dwattr $C$DW$231, DW_AT_low_pc(0x00)
    2682                      .dwattr $C$DW$231, DW_AT_name("FS$$TOFD")
    2683                      .dwattr $C$DW$231, DW_AT_TI_call
    2684              
    2685 000002d8 7640!         LCR       #FS$$TOFD             ; [CPU_] |411| 
         000002d9 0000 
    2686                      ; call occurs [#FS$$TOFD] ; [] |411| 
    2687 000002da 5DAD          MOVZ      AR5,SP                ; [CPU_] |411| 
    2688 000002db 5CAD          MOVZ      AR4,SP                ; [CPU_] |411| 
    2689 000002dc DDA0          SUBB      XAR5,#32              ; [CPU_U] |411| 
    2690 000002dd DCA4          SUBB      XAR4,#36              ; [CPU_U] |411| 
    2691 000002de 88A5          MOVZ      AR6,AR5               ; [CPU_] |411| 
    2692 000002df 5CA4          MOVZ      AR4,AR4               ; [CPU_] |411| 
    2693 000002e0 8F40+         MOVL      XAR5,#$C$FL1          ; [CPU_U] |411| 
         000002e1 0000 
TMS320C2000 Assembler PC v15.12.3 Wed Nov 22 00:56:17 2017

Tools Copyright (c) 1996-2015 Texas Instruments Incorporated
C:\Users\wmj\AppData\Local\Temp\0070810                              PAGE   52

    2694              $C$DW$232       .dwtag  DW_TAG_TI_branch
    2695                      .dwattr $C$DW$232, DW_AT_low_pc(0x00)
    2696                      .dwattr $C$DW$232, DW_AT_name("FD$$MPY")
    2697                      .dwattr $C$DW$232, DW_AT_TI_call
    2698              
    2699 000002e2 7640!         LCR       #FD$$MPY              ; [CPU_] |411| 
         000002e3 0000 
    2700                      ; call occurs [#FD$$MPY] ; [] |411| 
    2701 000002e4 5CAD          MOVZ      AR4,SP                ; [CPU_] |411| 
    2702 000002e5 DCA0          SUBB      XAR4,#32              ; [CPU_U] |411| 
    2703 000002e6 5CA4          MOVZ      AR4,AR4               ; [CPU_] |411| 
    2704              $C$DW$233       .dwtag  DW_TAG_TI_branch
    2705                      .dwattr $C$DW$233, DW_AT_low_pc(0x00)
    2706                      .dwattr $C$DW$233, DW_AT_name("FD$$TOL")
    2707                      .dwattr $C$DW$233, DW_AT_TI_call
    2708              
    2709 000002e7 7640!         LCR       #FD$$TOL              ; [CPU_] |411| 
         000002e8 0000 
    2710                      ; call occurs [#FD$$TOL] ; [] |411| 
    2711                      .dwpsn  file "C:/Users/wmj/Desktop/BM1000_v1.1/sw/modules/pid/src/32b/pid.h",line 303,column 16,is_st
    2712 000002e9 D032          MOVB      XAR0,#50              ; [CPU_] |303| 
    2713 000002ea 8A91          MOVL      XAR4,*+XAR1[AR0]      ; [CPU_] |303| 
    2714                      .dwpsn  file "C:/Users/wmj/Desktop/BM1000_v1.1/sw/modules/pid/src/32b/pid.h",line 305,column 3,is_stm
    2715 000002eb 8F59          MOVL      XAR5,#1677721         ; [CPU_U] |305| 
         000002ec 9999 
    2716                      .dwpsn  file "C:/Users/wmj/Desktop/BM1000_v1.1/sw/modules/ctrl/src/32b/ctrl.c",line 411,column 3,is_s
    2717 000002ed 1EA6          MOVL      XAR6,ACC              ; [CPU_] |411| 
    2718                      .dwpsn  file "C:/Users/wmj/Desktop/BM1000_v1.1/sw/modules/pid/src/32b/pid.h",line 413,column 3,is_stm
    2719 000002ee D032          MOVB      XAR0,#50              ; [CPU_] |413| 
    2720                      .dwpsn  file "C:/Users/wmj/Desktop/BM1000_v1.1/sw/modules/pid/src/32b/pid.h",line 305,column 3,is_stm
    2721 000002ef A0C4          MOVL      *+XAR4[0],XAR5        ; [CPU_] |305| 
    2722                      .dwpsn  file "C:/Users/wmj/Desktop/BM1000_v1.1/sw/modules/pid/src/32b/pid.h",line 306,column 3,is_stm
    2723 000002f0 1ED4          MOVL      *+XAR4[2],ACC         ; [CPU_] |306| 
    2724                      .dwpsn  file "C:/Users/wmj/Desktop/BM1000_v1.1/sw/modules/pid/src/32b/pid.h",line 307,column 3,is_stm
    2725 000002f1 0200          MOVB      ACC,#0                ; [CPU_] |307| 
    2726 000002f2 1EE4          MOVL      *+XAR4[4],ACC         ; [CPU_] |307| 
    2727                      .dwpsn  file "C:/Users/wmj/Desktop/BM1000_v1.1/sw/modules/pid/src/32b/pid.h",line 413,column 3,is_stm
    2728 000002f3 8A91          MOVL      XAR4,*+XAR1[AR0]      ; [CPU_] |413| 
    2729                      .dwpsn  file "C:/Users/wmj/Desktop/BM1000_v1.1/sw/modules/pid/src/32b/pid.h",line 358,column 16,is_st
    2730 000002f4 D032          MOVB      XAR0,#50              ; [CPU_] |358| 
    2731                      .dwpsn  file "C:/Users/wmj/Desktop/BM1000_v1.1/sw/modules/pid/src/32b/pid.h",line 413,column 3,is_stm
    2732 000002f5 1EF4          MOVL      *+XAR4[6],ACC         ; [CPU_] |413| 
    2733                      .dwpsn  file "C:/Users/wmj/Desktop/BM1000_v1.1/sw/modules/pid/src/32b/pid.h",line 360,column 3,is_stm
    2734 000002f6 28A9          MOV       AL,#52429             ; [CPU_] |360| 
         000002f7 CCCD 
    2735                      .dwpsn  file "C:/Users/wmj/Desktop/BM1000_v1.1/sw/modules/pid/src/32b/pid.h",line 358,column 16,is_st
    2736 000002f8 8A91          MOVL      XAR4,*+XAR1[AR0]      ; [CPU_] |358| 
    2737                      .dwpsn  file "C:/Users/wmj/Desktop/BM1000_v1.1/sw/modules/pid/src/32b/pid.h",line 360,column 3,is_stm
    2738 000002f9 28A8          MOV       AH,#65292             ; [CPU_] |360| 
         000002fa FF0C 
    2739                      .dwpsn  file "C:/Users/wmj/Desktop/BM1000_v1.1/sw/modules/ctrl/src/32b/ctrl.c",line 419,column 3,is_s
    2740 000002fb D502          MOVB      XAR5,#2               ; [CPU_] |419| 
    2741                      .dwpsn  file "C:/Users/wmj/Desktop/BM1000_v1.1/sw/modules/pid/src/32b/pid.h",line 360,column 3,is_stm
    2742 000002fc D00C          MOVB      XAR0,#12              ; [CPU_] |360| 
    2743 000002fd 1E94          MOVL      *+XAR4[AR0],ACC       ; [CPU_] |360| 
TMS320C2000 Assembler PC v15.12.3 Wed Nov 22 00:56:17 2017

Tools Copyright (c) 1996-2015 Texas Instruments Incorporated
C:\Users\wmj\AppData\Local\Temp\0070810                              PAGE   53

    2744                      .dwpsn  file "C:/Users/wmj/Desktop/BM1000_v1.1/sw/modules/pid/src/32b/pid.h",line 361,column 3,is_stm
    2745 000002fe D00E          MOVB      XAR0,#14              ; [CPU_] |361| 
    2746 000002ff 28A9          MOV       AL,#13107             ; [CPU_] |361| 
         00000300 3333 
    2747 00000301 9BF3          MOV       AH,#243               ; [CPU_] |361| 
    2748 00000302 1E94          MOVL      *+XAR4[AR0],ACC       ; [CPU_] |361| 
    2749                      .dwpsn  file "C:/Users/wmj/Desktop/BM1000_v1.1/sw/modules/ctrl/src/32b/ctrl.c",line 419,column 3,is_s
    2750 00000303 0200          MOVB      ACC,#0                ; [CPU_] |419| 
    2751 00000304 8AA1          MOVL      XAR4,XAR1             ; [CPU_] |419| 
    2752 00000305 C242          MOVL      *-SP[2],XAR6          ; [CPU_] |419| 
    2753 00000306 7699          MOVL      XAR6,#1677721         ; [CPU_U] |419| 
         00000307 9999 
    2754 00000308 1E44          MOVL      *-SP[4],ACC           ; [CPU_] |419| 
    2755 00000309 06A6          MOVL      ACC,XAR6              ; [CPU_] |419| 
    2756              $C$DW$234       .dwtag  DW_TAG_TI_branch
    2757                      .dwattr $C$DW$234, DW_AT_low_pc(0x00)
    2758                      .dwattr $C$DW$234, DW_AT_name("_CTRL_setGains")
    2759                      .dwattr $C$DW$234, DW_AT_TI_call
    2760              
    2761 0000030a 7640'         LCR       #_CTRL_setGains       ; [CPU_] |419| 
         0000030b 0111 
    2762                      ; call occurs [#_CTRL_setGains] ; [] |419| 
    2763 0000030c 8A6A          MOVL      XAR4,*-SP[42]         ; [CPU_] |419| 
    2764                      .dwpsn  file "C:/Users/wmj/Desktop/BM1000_v1.1/sw/modules/ctrl/src/32b/ctrl.c",line 423,column 3,is_s
    2765 0000030d D040          MOVB      XAR0,#64              ; [CPU_] |423| 
    2766 0000030e 06C4          MOVL      ACC,*+XAR4[0]         ; [CPU_] |423| 
    2767 0000030f 1E66          MOVL      *-SP[38],ACC          ; [CPU_] |423| 
    2768 00000310 28A9          MOV       AL,#55050             ; [CPU_] |423| 
         00000311 D70A 
    2769 00000312 8294          MOVL      XAR3,*+XAR4[AR0]      ; [CPU_] |423| 
    2770 00000313 28A8          MOV       AH,#15523             ; [CPU_] |423| 
         00000314 3CA3 
    2771 00000315 86E4          MOVL      XAR2,*+XAR4[4]        ; [CPU_] |423| 
    2772 00000316 1E42          MOVL      *-SP[2],ACC           ; [CPU_] |423| 
    2773 00000317 A2A9          MOVL      ACC,XAR3              ; [CPU_] |423| 
    2774              $C$DW$235       .dwtag  DW_TAG_TI_branch
    2775                      .dwattr $C$DW$235, DW_AT_low_pc(0x00)
    2776                      .dwattr $C$DW$235, DW_AT_name("FS$$MPY")
    2777                      .dwattr $C$DW$235, DW_AT_TI_call
    2778              
    2779 00000318 7640!         LCR       #FS$$MPY              ; [CPU_] |423| 
         00000319 0000 
    2780                      ; call occurs [#FS$$MPY] ; [] |423| 
    2781 0000031a AA42          MOVL      *-SP[2],XAR2          ; [CPU_] |423| 
    2782              $C$DW$236       .dwtag  DW_TAG_TI_branch
    2783                      .dwattr $C$DW$236, DW_AT_low_pc(0x00)
    2784                      .dwattr $C$DW$236, DW_AT_name("FS$$MPY")
    2785                      .dwattr $C$DW$236, DW_AT_TI_call
    2786              
    2787 0000031b 7640!         LCR       #FS$$MPY              ; [CPU_] |423| 
         0000031c 0000 
    2788                      ; call occurs [#FS$$MPY] ; [] |423| 
    2789 0000031d C466          MOVL      XAR6,*-SP[38]         ; [CPU_] |423| 
    2790 0000031e C242          MOVL      *-SP[2],XAR6          ; [CPU_] |423| 
    2791              $C$DW$237       .dwtag  DW_TAG_TI_branch
TMS320C2000 Assembler PC v15.12.3 Wed Nov 22 00:56:17 2017

Tools Copyright (c) 1996-2015 Texas Instruments Incorporated
C:\Users\wmj\AppData\Local\Temp\0070810                              PAGE   54

    2792                      .dwattr $C$DW$237, DW_AT_low_pc(0x00)
    2793                      .dwattr $C$DW$237, DW_AT_name("FS$$DIV")
    2794                      .dwattr $C$DW$237, DW_AT_TI_call
    2795              
    2796 0000031f 7640!         LCR       #FS$$DIV              ; [CPU_] |423| 
         00000320 0000 
    2797                      ; call occurs [#FS$$DIV] ; [] |423| 
    2798 00000321 5CAD          MOVZ      AR4,SP                ; [CPU_] |423| 
    2799 00000322 DCA4          SUBB      XAR4,#36              ; [CPU_U] |423| 
    2800 00000323 88A4          MOVZ      AR6,AR4               ; [CPU_] |423| 
    2801              $C$DW$238       .dwtag  DW_TAG_TI_branch
    2802                      .dwattr $C$DW$238, DW_AT_low_pc(0x00)
    2803                      .dwattr $C$DW$238, DW_AT_name("FS$$TOFD")
    2804                      .dwattr $C$DW$238, DW_AT_TI_call
    2805              
    2806 00000324 7640!         LCR       #FS$$TOFD             ; [CPU_] |423| 
         00000325 0000 
    2807                      ; call occurs [#FS$$TOFD] ; [] |423| 
    2808 00000326 5DAD          MOVZ      AR5,SP                ; [CPU_] |423| 
    2809 00000327 5CAD          MOVZ      AR4,SP                ; [CPU_] |423| 
    2810 00000328 DDA0          SUBB      XAR5,#32              ; [CPU_U] |423| 
    2811 00000329 DCA4          SUBB      XAR4,#36              ; [CPU_U] |423| 
    2812 0000032a 88A5          MOVZ      AR6,AR5               ; [CPU_] |423| 
    2813 0000032b 5CA4          MOVZ      AR4,AR4               ; [CPU_] |423| 
    2814 0000032c 8F40+         MOVL      XAR5,#$C$FL1          ; [CPU_U] |423| 
         0000032d 0000 
    2815              $C$DW$239       .dwtag  DW_TAG_TI_branch
    2816                      .dwattr $C$DW$239, DW_AT_low_pc(0x00)
    2817                      .dwattr $C$DW$239, DW_AT_name("FD$$MPY")
    2818                      .dwattr $C$DW$239, DW_AT_TI_call
    2819              
    2820 0000032e 7640!         LCR       #FD$$MPY              ; [CPU_] |423| 
         0000032f 0000 
    2821                      ; call occurs [#FD$$MPY] ; [] |423| 
    2822 00000330 5CAD          MOVZ      AR4,SP                ; [CPU_] |423| 
    2823 00000331 DCA0          SUBB      XAR4,#32              ; [CPU_U] |423| 
    2824 00000332 5CA4          MOVZ      AR4,AR4               ; [CPU_] |423| 
    2825              $C$DW$240       .dwtag  DW_TAG_TI_branch
    2826                      .dwattr $C$DW$240, DW_AT_low_pc(0x00)
    2827                      .dwattr $C$DW$240, DW_AT_name("FD$$TOL")
    2828                      .dwattr $C$DW$240, DW_AT_TI_call
    2829              
    2830 00000333 7640!         LCR       #FD$$TOL              ; [CPU_] |423| 
         00000334 0000 
    2831                      ; call occurs [#FD$$TOL] ; [] |423| 
    2832 00000335 1E68          MOVL      *-SP[40],ACC          ; [CPU_] |423| 
    2833                      .dwpsn  file "C:/Users/wmj/Desktop/BM1000_v1.1/sw/modules/ctrl/src/32b/ctrl.c",line 424,column 3,is_s
    2834 00000336 A242          MOVL      *-SP[2],XAR3          ; [CPU_] |424| 
    2835 00000337 A2A9          MOVL      ACC,XAR3              ; [CPU_] |424| 
    2836              $C$DW$241       .dwtag  DW_TAG_TI_branch
    2837                      .dwattr $C$DW$241, DW_AT_low_pc(0x00)
    2838                      .dwattr $C$DW$241, DW_AT_name("FS$$ADD")
    2839                      .dwattr $C$DW$241, DW_AT_TI_call
    2840              
    2841 00000338 7640!         LCR       #FS$$ADD              ; [CPU_] |424| 
TMS320C2000 Assembler PC v15.12.3 Wed Nov 22 00:56:17 2017

Tools Copyright (c) 1996-2015 Texas Instruments Incorporated
C:\Users\wmj\AppData\Local\Temp\0070810                              PAGE   55

         00000339 0000 
    2842                      ; call occurs [#FS$$ADD] ; [] |424| 
    2843 0000033a AA42          MOVL      *-SP[2],XAR2          ; [CPU_] |424| 
    2844              $C$DW$242       .dwtag  DW_TAG_TI_branch
    2845                      .dwattr $C$DW$242, DW_AT_low_pc(0x00)
    2846                      .dwattr $C$DW$242, DW_AT_name("FS$$MPY")
    2847                      .dwattr $C$DW$242, DW_AT_TI_call
    2848              
    2849 0000033b 7640!         LCR       #FS$$MPY              ; [CPU_] |424| 
         0000033c 0000 
    2850                      ; call occurs [#FS$$MPY] ; [] |424| 
    2851 0000033d 8A6A          MOVL      XAR4,*-SP[42]         ; [CPU_] |424| 
    2852 0000033e D0A6          MOVB      XAR0,#166             ; [CPU_] |424| 
    2853 0000033f C494          MOVL      XAR6,*+XAR4[AR0]      ; [CPU_] |424| 
    2854 00000340 C242          MOVL      *-SP[2],XAR6          ; [CPU_] |424| 
    2855              $C$DW$243       .dwtag  DW_TAG_TI_branch
    2856                      .dwattr $C$DW$243, DW_AT_low_pc(0x00)
    2857                      .dwattr $C$DW$243, DW_AT_name("FS$$MPY")
    2858                      .dwattr $C$DW$243, DW_AT_TI_call
    2859              
    2860 00000341 7640!         LCR       #FS$$MPY              ; [CPU_] |424| 
         00000342 0000 
    2861                      ; call occurs [#FS$$MPY] ; [] |424| 
    2862 00000343 C466          MOVL      XAR6,*-SP[38]         ; [CPU_] |424| 
    2863 00000344 C242          MOVL      *-SP[2],XAR6          ; [CPU_] |424| 
    2864              $C$DW$244       .dwtag  DW_TAG_TI_branch
    2865                      .dwattr $C$DW$244, DW_AT_low_pc(0x00)
    2866                      .dwattr $C$DW$244, DW_AT_name("FS$$DIV")
    2867                      .dwattr $C$DW$244, DW_AT_TI_call
    2868              
    2869 00000345 7640!         LCR       #FS$$DIV              ; [CPU_] |424| 
         00000346 0000 
    2870                      ; call occurs [#FS$$DIV] ; [] |424| 
    2871 00000347 5CAD          MOVZ      AR4,SP                ; [CPU_] |424| 
    2872 00000348 DCA4          SUBB      XAR4,#36              ; [CPU_U] |424| 
    2873 00000349 88A4          MOVZ      AR6,AR4               ; [CPU_] |424| 
    2874              $C$DW$245       .dwtag  DW_TAG_TI_branch
    2875                      .dwattr $C$DW$245, DW_AT_low_pc(0x00)
    2876                      .dwattr $C$DW$245, DW_AT_name("FS$$TOFD")
    2877                      .dwattr $C$DW$245, DW_AT_TI_call
    2878              
    2879 0000034a 7640!         LCR       #FS$$TOFD             ; [CPU_] |424| 
         0000034b 0000 
    2880                      ; call occurs [#FS$$TOFD] ; [] |424| 
    2881 0000034c 5DAD          MOVZ      AR5,SP                ; [CPU_] |424| 
    2882 0000034d 5CAD          MOVZ      AR4,SP                ; [CPU_] |424| 
    2883 0000034e DDA0          SUBB      XAR5,#32              ; [CPU_U] |424| 
    2884 0000034f DCA4          SUBB      XAR4,#36              ; [CPU_U] |424| 
    2885 00000350 88A5          MOVZ      AR6,AR5               ; [CPU_] |424| 
    2886 00000351 5CA4          MOVZ      AR4,AR4               ; [CPU_] |424| 
    2887 00000352 8F40+         MOVL      XAR5,#$C$FL1          ; [CPU_U] |424| 
         00000353 0000 
    2888              $C$DW$246       .dwtag  DW_TAG_TI_branch
    2889                      .dwattr $C$DW$246, DW_AT_low_pc(0x00)
    2890                      .dwattr $C$DW$246, DW_AT_name("FD$$MPY")
TMS320C2000 Assembler PC v15.12.3 Wed Nov 22 00:56:17 2017

Tools Copyright (c) 1996-2015 Texas Instruments Incorporated
C:\Users\wmj\AppData\Local\Temp\0070810                              PAGE   56

    2891                      .dwattr $C$DW$246, DW_AT_TI_call
    2892              
    2893 00000354 7640!         LCR       #FD$$MPY              ; [CPU_] |424| 
         00000355 0000 
    2894                      ; call occurs [#FD$$MPY] ; [] |424| 
    2895 00000356 5CAD          MOVZ      AR4,SP                ; [CPU_] |424| 
    2896 00000357 DCA0          SUBB      XAR4,#32              ; [CPU_U] |424| 
    2897 00000358 5CA4          MOVZ      AR4,AR4               ; [CPU_] |424| 
    2898              $C$DW$247       .dwtag  DW_TAG_TI_branch
    2899                      .dwattr $C$DW$247, DW_AT_low_pc(0x00)
    2900                      .dwattr $C$DW$247, DW_AT_name("FD$$TOL")
    2901                      .dwattr $C$DW$247, DW_AT_TI_call
    2902              
    2903 00000359 7640!         LCR       #FD$$TOL              ; [CPU_] |424| 
         0000035a 0000 
    2904                      ; call occurs [#FD$$TOL] ; [] |424| 
    2905                      .dwpsn  file "C:/Users/wmj/Desktop/BM1000_v1.1/sw/modules/pid/src/32b/pid.h",line 303,column 16,is_st
    2906 0000035b D044          MOVB      XAR0,#68              ; [CPU_] |303| 
    2907 0000035c 8A91          MOVL      XAR4,*+XAR1[AR0]      ; [CPU_] |303| 
    2908                      .dwpsn  file "C:/Users/wmj/Desktop/BM1000_v1.1/sw/modules/ctrl/src/32b/ctrl.c",line 424,column 3,is_s
    2909 0000035d 1EA6          MOVL      XAR6,ACC              ; [CPU_] |424| 
    2910                      .dwpsn  file "C:/Users/wmj/Desktop/BM1000_v1.1/sw/modules/pid/src/32b/pid.h",line 303,column 16,is_st
    2911 0000035e 0668          MOVL      ACC,*-SP[40]          ; [CPU_] |303| 
    2912                      .dwpsn  file "C:/Users/wmj/Desktop/BM1000_v1.1/sw/modules/pid/src/32b/pid.h",line 413,column 3,is_stm
    2913 0000035f D044          MOVB      XAR0,#68              ; [CPU_] |413| 
    2914                      .dwpsn  file "C:/Users/wmj/Desktop/BM1000_v1.1/sw/modules/pid/src/32b/pid.h",line 305,column 3,is_stm
    2915 00000360 1EC4          MOVL      *+XAR4[0],ACC         ; [CPU_] |305| 
    2916                      .dwpsn  file "C:/Users/wmj/Desktop/BM1000_v1.1/sw/modules/pid/src/32b/pid.h",line 307,column 3,is_stm
    2917 00000361 0200          MOVB      ACC,#0                ; [CPU_] |307| 
    2918                      .dwpsn  file "C:/Users/wmj/Desktop/BM1000_v1.1/sw/modules/pid/src/32b/pid.h",line 306,column 3,is_stm
    2919 00000362 C2D4          MOVL      *+XAR4[2],XAR6        ; [CPU_] |306| 
    2920                      .dwpsn  file "C:/Users/wmj/Desktop/BM1000_v1.1/sw/modules/pid/src/32b/pid.h",line 307,column 3,is_stm
    2921 00000363 1EE4          MOVL      *+XAR4[4],ACC         ; [CPU_] |307| 
    2922                      .dwpsn  file "C:/Users/wmj/Desktop/BM1000_v1.1/sw/modules/pid/src/32b/pid.h",line 413,column 3,is_stm
    2923 00000364 8A91          MOVL      XAR4,*+XAR1[AR0]      ; [CPU_] |413| 
    2924 00000365 3B01          SETC      SXM                   ; [CPU_] 
    2925                      .dwpsn  file "C:/Users/wmj/Desktop/BM1000_v1.1/sw/modules/pid/src/32b/pid.h",line 358,column 16,is_st
    2926 00000366 D044          MOVB      XAR0,#68              ; [CPU_] |358| 
    2927                      .dwpsn  file "C:/Users/wmj/Desktop/BM1000_v1.1/sw/modules/pid/src/32b/pid.h",line 413,column 3,is_stm
    2928 00000367 1EF4          MOVL      *+XAR4[6],ACC         ; [CPU_] |413| 
    2929                      .dwpsn  file "C:/Users/wmj/Desktop/BM1000_v1.1/sw/modules/pid/src/32b/pid.h",line 358,column 16,is_st
    2930 00000368 8A91          MOVL      XAR4,*+XAR1[AR0]      ; [CPU_] |358| 
    2931                      .dwpsn  file "C:/Users/wmj/Desktop/BM1000_v1.1/sw/modules/pid/src/32b/pid.h",line 360,column 3,is_stm
    2932 00000369 FF2F          MOV       ACC,#-512 << 15       ; [CPU_] |360| 
         0000036a FE00 
    2933                      .dwpsn  file "C:/Users/wmj/Desktop/BM1000_v1.1/sw/modules/ctrl/src/32b/ctrl.c",line 432,column 3,is_s
    2934 0000036b D500          MOVB      XAR5,#0               ; [CPU_] |432| 
    2935                      .dwpsn  file "C:/Users/wmj/Desktop/BM1000_v1.1/sw/modules/pid/src/32b/pid.h",line 360,column 3,is_stm
    2936 0000036c D00C          MOVB      XAR0,#12              ; [CPU_] |360| 
    2937 0000036d 1E94          MOVL      *+XAR4[AR0],ACC       ; [CPU_] |360| 
    2938                      .dwpsn  file "C:/Users/wmj/Desktop/BM1000_v1.1/sw/modules/pid/src/32b/pid.h",line 361,column 3,is_stm
    2939 0000036e D00E          MOVB      XAR0,#14              ; [CPU_] |361| 
    2940 0000036f FF2F          MOV       ACC,#512 << 15        ; [CPU_] |361| 
         00000370 0200 
    2941 00000371 1E94          MOVL      *+XAR4[AR0],ACC       ; [CPU_] |361| 
TMS320C2000 Assembler PC v15.12.3 Wed Nov 22 00:56:17 2017

Tools Copyright (c) 1996-2015 Texas Instruments Incorporated
C:\Users\wmj\AppData\Local\Temp\0070810                              PAGE   57

    2942                      .dwpsn  file "C:/Users/wmj/Desktop/BM1000_v1.1/sw/modules/ctrl/src/32b/ctrl.c",line 432,column 3,is_s
    2943 00000372 0200          MOVB      ACC,#0                ; [CPU_] |432| 
    2944 00000373 8AA1          MOVL      XAR4,XAR1             ; [CPU_] |432| 
    2945 00000374 C242          MOVL      *-SP[2],XAR6          ; [CPU_] |432| 
    2946 00000375 1E44          MOVL      *-SP[4],ACC           ; [CPU_] |432| 
    2947 00000376 0668          MOVL      ACC,*-SP[40]          ; [CPU_] |432| 
    2948              $C$DW$248       .dwtag  DW_TAG_TI_branch
    2949                      .dwattr $C$DW$248, DW_AT_low_pc(0x00)
    2950                      .dwattr $C$DW$248, DW_AT_name("_CTRL_setGains")
    2951                      .dwattr $C$DW$248, DW_AT_TI_call
    2952              
    2953 00000377 7640'         LCR       #_CTRL_setGains       ; [CPU_] |432| 
         00000378 0111 
    2954                      ; call occurs [#_CTRL_setGains] ; [] |432| 
    2955                      .dwpsn  file "C:/Users/wmj/Desktop/BM1000_v1.1/sw/modules/ctrl/src/32b/ctrl.c",line 436,column 3,is_s
    2956 00000379 0200          MOVB      ACC,#0                ; [CPU_] |436| 
    2957              $C$DW$249       .dwtag  DW_TAG_TI_branch
    2958                      .dwattr $C$DW$249, DW_AT_low_pc(0x00)
    2959                      .dwattr $C$DW$249, DW_AT_name("_CTRL_setSpd_ref_pu")
    2960                      .dwattr $C$DW$249, DW_AT_TI_call
    2961              
    2962 0000037a 7640'         LCR       #_CTRL_setSpd_ref_pu  ; [CPU_] |436| 
         0000037b 00EE 
    2963                      ; call occurs [#_CTRL_setSpd_ref_pu] ; [] |436| 
    2964                      .dwpsn  file "C:/Users/wmj/Desktop/BM1000_v1.1/sw/modules/traj/src/32b/traj.h",line 158,column 3,is_s
    2965 0000037c D060          MOVB      XAR0,#96              ; [CPU_] |158| 
    2966 0000037d 8A91          MOVL      XAR4,*+XAR1[AR0]      ; [CPU_] |158| 
    2967                      .dwpsn  file "C:/Users/wmj/Desktop/BM1000_v1.1/sw/modules/traj/src/32b/traj.h",line 210,column 3,is_s
    2968 0000037e D060          MOVB      XAR0,#96              ; [CPU_] |210| 
    2969                      .dwpsn  file "C:/Users/wmj/Desktop/BM1000_v1.1/sw/modules/traj/src/32b/traj.h",line 158,column 3,is_s
    2970 0000037f 1ED4          MOVL      *+XAR4[2],ACC         ; [CPU_] |158| 
    2971                      .dwpsn  file "C:/Users/wmj/Desktop/BM1000_v1.1/sw/modules/traj/src/32b/traj.h",line 210,column 3,is_s
    2972 00000380 8A91          MOVL      XAR4,*+XAR1[AR0]      ; [CPU_] |210| 
    2973                      .dwpsn  file "C:/Users/wmj/Desktop/BM1000_v1.1/sw/modules/traj/src/32b/traj.h",line 197,column 3,is_s
    2974 00000381 D060          MOVB      XAR0,#96              ; [CPU_] |197| 
    2975                      .dwpsn  file "C:/Users/wmj/Desktop/BM1000_v1.1/sw/modules/traj/src/32b/traj.h",line 210,column 3,is_s
    2976 00000382 1EC4          MOVL      *+XAR4[0],ACC         ; [CPU_] |210| 
    2977                      .dwpsn  file "C:/Users/wmj/Desktop/BM1000_v1.1/sw/modules/traj/src/32b/traj.h",line 197,column 3,is_s
    2978 00000383 8A91          MOVL      XAR4,*+XAR1[AR0]      ; [CPU_] |197| 
    2979                      .dwpsn  file "C:/Users/wmj/Desktop/BM1000_v1.1/sw/modules/traj/src/32b/traj.h",line 184,column 3,is_s
    2980 00000384 D060          MOVB      XAR0,#96              ; [CPU_] |184| 
    2981                      .dwpsn  file "C:/Users/wmj/Desktop/BM1000_v1.1/sw/modules/traj/src/32b/traj.h",line 197,column 3,is_s
    2982 00000385 1EE4          MOVL      *+XAR4[4],ACC         ; [CPU_] |197| 
    2983                      .dwpsn  file "C:/Users/wmj/Desktop/BM1000_v1.1/sw/modules/traj/src/32b/traj.h",line 184,column 3,is_s
    2984 00000386 8A91          MOVL      XAR4,*+XAR1[AR0]      ; [CPU_] |184| 
    2985                      .dwpsn  file "C:/Users/wmj/Desktop/BM1000_v1.1/sw/modules/traj/src/32b/traj.h",line 171,column 3,is_s
    2986 00000387 BE00          MOVB      XAR6,#0               ; [CPU_] |171| 
    2987 00000388 D060          MOVB      XAR0,#96              ; [CPU_] |171| 
    2988                      .dwpsn  file "C:/Users/wmj/Desktop/BM1000_v1.1/sw/modules/traj/src/32b/traj.h",line 184,column 3,is_s
    2989 00000389 1EF4          MOVL      *+XAR4[6],ACC         ; [CPU_] |184| 
    2990                      .dwpsn  file "C:/Users/wmj/Desktop/BM1000_v1.1/sw/modules/traj/src/32b/traj.h",line 171,column 3,is_s
    2991 0000038a 0208          MOVB      ACC,#8                ; [CPU_] |171| 
    2992 0000038b 0791          ADDL      ACC,*+XAR1[AR0]       ; [CPU_] |171| 
    2993 0000038c 8AA9          MOVL      XAR4,ACC              ; [CPU_] |171| 
    2994                      .dwpsn  file "C:/Users/wmj/Desktop/BM1000_v1.1/sw/modules/traj/src/32b/traj.h",line 158,column 3,is_s
TMS320C2000 Assembler PC v15.12.3 Wed Nov 22 00:56:17 2017

Tools Copyright (c) 1996-2015 Texas Instruments Incorporated
C:\Users\wmj\AppData\Local\Temp\0070810                              PAGE   58

    2995 0000038d D06C          MOVB      XAR0,#108             ; [CPU_] |158| 
    2996                      .dwpsn  file "C:/Users/wmj/Desktop/BM1000_v1.1/sw/modules/traj/src/32b/traj.h",line 171,column 3,is_s
    2997 0000038e C2C4          MOVL      *+XAR4[0],XAR6        ; [CPU_] |171| 
    2998                      .dwpsn  file "C:/Users/wmj/Desktop/BM1000_v1.1/sw/modules/traj/src/32b/traj.h",line 158,column 3,is_s
    2999 0000038f 8A91          MOVL      XAR4,*+XAR1[AR0]      ; [CPU_] |158| 
    3000 00000390 0200          MOVB      ACC,#0                ; [CPU_] |158| 
    3001                      .dwpsn  file "C:/Users/wmj/Desktop/BM1000_v1.1/sw/modules/traj/src/32b/traj.h",line 210,column 3,is_s
    3002 00000391 D06C          MOVB      XAR0,#108             ; [CPU_] |210| 
    3003                      .dwpsn  file "C:/Users/wmj/Desktop/BM1000_v1.1/sw/modules/traj/src/32b/traj.h",line 158,column 3,is_s
    3004 00000392 1ED4          MOVL      *+XAR4[2],ACC         ; [CPU_] |158| 
    3005                      .dwpsn  file "C:/Users/wmj/Desktop/BM1000_v1.1/sw/modules/traj/src/32b/traj.h",line 210,column 3,is_s
    3006 00000393 8A91          MOVL      XAR4,*+XAR1[AR0]      ; [CPU_] |210| 
    3007                      .dwpsn  file "C:/Users/wmj/Desktop/BM1000_v1.1/sw/modules/traj/src/32b/traj.h",line 197,column 3,is_s
    3008 00000394 D06C          MOVB      XAR0,#108             ; [CPU_] |197| 
    3009                      .dwpsn  file "C:/Users/wmj/Desktop/BM1000_v1.1/sw/modules/traj/src/32b/traj.h",line 210,column 3,is_s
    3010 00000395 1EC4          MOVL      *+XAR4[0],ACC         ; [CPU_] |210| 
    3011                      .dwpsn  file "C:/Users/wmj/Desktop/BM1000_v1.1/sw/modules/traj/src/32b/traj.h",line 197,column 3,is_s
    3012 00000396 8A91          MOVL      XAR4,*+XAR1[AR0]      ; [CPU_] |197| 
    3013                      .dwpsn  file "C:/Users/wmj/Desktop/BM1000_v1.1/sw/modules/traj/src/32b/traj.h",line 184,column 3,is_s
    3014 00000397 D06C          MOVB      XAR0,#108             ; [CPU_] |184| 
    3015                      .dwpsn  file "C:/Users/wmj/Desktop/BM1000_v1.1/sw/modules/traj/src/32b/traj.h",line 197,column 3,is_s
    3016 00000398 1EE4          MOVL      *+XAR4[4],ACC         ; [CPU_] |197| 
    3017                      .dwpsn  file "C:/Users/wmj/Desktop/BM1000_v1.1/sw/modules/traj/src/32b/traj.h",line 184,column 3,is_s
    3018 00000399 8A91          MOVL      XAR4,*+XAR1[AR0]      ; [CPU_] |184| 
    3019                      .dwpsn  file "C:/Users/wmj/Desktop/BM1000_v1.1/sw/modules/traj/src/32b/traj.h",line 171,column 3,is_s
    3020 0000039a D06C          MOVB      XAR0,#108             ; [CPU_] |171| 
    3021                      .dwpsn  file "C:/Users/wmj/Desktop/BM1000_v1.1/sw/modules/traj/src/32b/traj.h",line 184,column 3,is_s
    3022 0000039b 1EF4          MOVL      *+XAR4[6],ACC         ; [CPU_] |184| 
    3023                      .dwpsn  file "C:/Users/wmj/Desktop/BM1000_v1.1/sw/modules/traj/src/32b/traj.h",line 171,column 3,is_s
    3024 0000039c 0208          MOVB      ACC,#8                ; [CPU_] |171| 
    3025 0000039d 0791          ADDL      ACC,*+XAR1[AR0]       ; [CPU_] |171| 
    3026 0000039e 8AA9          MOVL      XAR4,ACC              ; [CPU_] |171| 
    3027                      .dwpsn  file "C:/Users/wmj/Desktop/BM1000_v1.1/sw/modules/traj/src/32b/traj.h",line 158,column 3,is_s
    3028 0000039f D078          MOVB      XAR0,#120             ; [CPU_] |158| 
    3029                      .dwpsn  file "C:/Users/wmj/Desktop/BM1000_v1.1/sw/modules/traj/src/32b/traj.h",line 171,column 3,is_s
    3030 000003a0 C2C4          MOVL      *+XAR4[0],XAR6        ; [CPU_] |171| 
    3031                      .dwpsn  file "C:/Users/wmj/Desktop/BM1000_v1.1/sw/modules/traj/src/32b/traj.h",line 158,column 3,is_s
    3032 000003a1 8A91          MOVL      XAR4,*+XAR1[AR0]      ; [CPU_] |158| 
    3033 000003a2 0200          MOVB      ACC,#0                ; [CPU_] |158| 
    3034                      .dwpsn  file "C:/Users/wmj/Desktop/BM1000_v1.1/sw/modules/traj/src/32b/traj.h",line 210,column 3,is_s
    3035 000003a3 D078          MOVB      XAR0,#120             ; [CPU_] |210| 
    3036                      .dwpsn  file "C:/Users/wmj/Desktop/BM1000_v1.1/sw/modules/traj/src/32b/traj.h",line 158,column 3,is_s
    3037 000003a4 1ED4          MOVL      *+XAR4[2],ACC         ; [CPU_] |158| 
    3038                      .dwpsn  file "C:/Users/wmj/Desktop/BM1000_v1.1/sw/modules/traj/src/32b/traj.h",line 210,column 3,is_s
    3039 000003a5 8A91          MOVL      XAR4,*+XAR1[AR0]      ; [CPU_] |210| 
    3040                      .dwpsn  file "C:/Users/wmj/Desktop/BM1000_v1.1/sw/modules/traj/src/32b/traj.h",line 197,column 3,is_s
    3041 000003a6 D078          MOVB      XAR0,#120             ; [CPU_] |197| 
    3042                      .dwpsn  file "C:/Users/wmj/Desktop/BM1000_v1.1/sw/modules/traj/src/32b/traj.h",line 210,column 3,is_s
    3043 000003a7 1EC4          MOVL      *+XAR4[0],ACC         ; [CPU_] |210| 
    3044                      .dwpsn  file "C:/Users/wmj/Desktop/BM1000_v1.1/sw/modules/traj/src/32b/traj.h",line 197,column 3,is_s
    3045 000003a8 8A91          MOVL      XAR4,*+XAR1[AR0]      ; [CPU_] |197| 
    3046                      .dwpsn  file "C:/Users/wmj/Desktop/BM1000_v1.1/sw/modules/traj/src/32b/traj.h",line 184,column 3,is_s
    3047 000003a9 D078          MOVB      XAR0,#120             ; [CPU_] |184| 
    3048                      .dwpsn  file "C:/Users/wmj/Desktop/BM1000_v1.1/sw/modules/traj/src/32b/traj.h",line 197,column 3,is_s
    3049 000003aa 1EE4          MOVL      *+XAR4[4],ACC         ; [CPU_] |197| 
TMS320C2000 Assembler PC v15.12.3 Wed Nov 22 00:56:17 2017

Tools Copyright (c) 1996-2015 Texas Instruments Incorporated
C:\Users\wmj\AppData\Local\Temp\0070810                              PAGE   59

    3050                      .dwpsn  file "C:/Users/wmj/Desktop/BM1000_v1.1/sw/modules/traj/src/32b/traj.h",line 184,column 3,is_s
    3051 000003ab 8A91          MOVL      XAR4,*+XAR1[AR0]      ; [CPU_] |184| 
    3052                      .dwpsn  file "C:/Users/wmj/Desktop/BM1000_v1.1/sw/modules/traj/src/32b/traj.h",line 171,column 3,is_s
    3053 000003ac D078          MOVB      XAR0,#120             ; [CPU_] |171| 
    3054                      .dwpsn  file "C:/Users/wmj/Desktop/BM1000_v1.1/sw/modules/traj/src/32b/traj.h",line 184,column 3,is_s
    3055 000003ad 1EF4          MOVL      *+XAR4[6],ACC         ; [CPU_] |184| 
    3056                      .dwpsn  file "C:/Users/wmj/Desktop/BM1000_v1.1/sw/modules/traj/src/32b/traj.h",line 171,column 3,is_s
    3057 000003ae 0208          MOVB      ACC,#8                ; [CPU_] |171| 
    3058 000003af 0791          ADDL      ACC,*+XAR1[AR0]       ; [CPU_] |171| 
    3059 000003b0 8AA9          MOVL      XAR4,ACC              ; [CPU_] |171| 
    3060                      .dwpsn  file "C:/Users/wmj/Desktop/BM1000_v1.1/sw/modules/ctrl/src/32b/ctrl.c",line 464,column 3,is_s
    3061 000003b1 D018          MOVB      XAR0,#24              ; [CPU_] |464| 
    3062                      .dwpsn  file "C:/Users/wmj/Desktop/BM1000_v1.1/sw/modules/traj/src/32b/traj.h",line 171,column 3,is_s
    3063 000003b2 C2C4          MOVL      *+XAR4[0],XAR6        ; [CPU_] |171| 
    3064                      .dwpsn  file "C:/Users/wmj/Desktop/BM1000_v1.1/sw/modules/ctrl/src/32b/ctrl.c",line 464,column 3,is_s
    3065 000003b3 836A          MOVL      XAR5,*-SP[42]         ; [CPU_] |464| 
    3066 000003b4 8A91          MOVL      XAR4,*+XAR1[AR0]      ; [CPU_] |464| 
    3067              $C$DW$250       .dwtag  DW_TAG_TI_branch
    3068                      .dwattr $C$DW$250, DW_AT_low_pc(0x00)
    3069                      .dwattr $C$DW$250, DW_AT_name("_CTRL_setEstParams")
    3070                      .dwattr $C$DW$250, DW_AT_TI_call
    3071              
    3072 000003b5 7640!         LCR       #_CTRL_setEstParams   ; [CPU_] |464| 
         000003b6 0000 
    3073                      ; call occurs [#_CTRL_setEstParams] ; [] |464| 
    3074                      .dwpsn  file "C:/Users/wmj/Desktop/BM1000_v1.1/sw/modules/svgen/src/32b/svgen.h",line 184,column 3,is
    3075 000003b7 D05C          MOVB      XAR0,#92              ; [CPU_] |184| 
    3076 000003b8 8A91          MOVL      XAR4,*+XAR1[AR0]      ; [CPU_] |184| 
    3077 000003b9 28A9          MOV       AL,#43691             ; [CPU_] |184| 
         000003ba AAAB 
    3078 000003bb 9BAA          MOV       AH,#170               ; [CPU_] |184| 
    3079 000003bc 1EC4          MOVL      *+XAR4[0],ACC         ; [CPU_] |184| 
    3080 000003bd FEAA          SUBB      SP,#42                ; [CPU_U] 
    3081                      .dwcfi  cfa_offset, -8
    3082 000003be 82BE          MOVL      XAR3,*--SP            ; [CPU_] 
    3083                      .dwcfi  cfa_offset, -6
    3084                      .dwcfi  restore_reg, 11
    3085 000003bf 86BE          MOVL      XAR2,*--SP            ; [CPU_] 
    3086                      .dwcfi  cfa_offset, -4
    3087                      .dwcfi  restore_reg, 9
    3088 000003c0 8BBE          MOVL      XAR1,*--SP            ; [CPU_] 
    3089                      .dwcfi  cfa_offset, -2
    3090                      .dwcfi  restore_reg, 7
    3091              $C$DW$251       .dwtag  DW_TAG_TI_branch
    3092                      .dwattr $C$DW$251, DW_AT_low_pc(0x00)
    3093                      .dwattr $C$DW$251, DW_AT_TI_return
    3094              
    3095 000003c1 0006          LRETR     ; [CPU_] 
    3096                      ; return occurs ; [] 
    3097                      .dwattr $C$DW$178, DW_AT_TI_end_file("C:/Users/wmj/Desktop/BM1000_v1.1/sw/modules/ctrl/src/32b/ctrl.c
    3098                      .dwattr $C$DW$178, DW_AT_TI_end_line(0x1d8)
    3099                      .dwattr $C$DW$178, DW_AT_TI_end_column(0x01)
    3100                      .dwendentry
    3101                      .dwendtag $C$DW$178
    3102              
TMS320C2000 Assembler PC v15.12.3 Wed Nov 22 00:56:17 2017

Tools Copyright (c) 1996-2015 Texas Instruments Incorporated
C:\Users\wmj\AppData\Local\Temp\0070810                              PAGE   60

    3103 0000000a               .sect   "ramfuncs"
    3104                      .clink
    3105                      .global _CTRL_run
    3106              
    3107              $C$DW$252       .dwtag  DW_TAG_subprogram
    3108                      .dwattr $C$DW$252, DW_AT_name("CTRL_run")
    3109                      .dwattr $C$DW$252, DW_AT_low_pc(_CTRL_run)
    3110                      .dwattr $C$DW$252, DW_AT_high_pc(0x00)
    3111                      .dwattr $C$DW$252, DW_AT_TI_symbol_name("_CTRL_run")
    3112                      .dwattr $C$DW$252, DW_AT_external
    3113                      .dwattr $C$DW$252, DW_AT_TI_begin_file("C:/Users/wmj/Desktop/BM1000_v1.1/sw/modules/ctrl/src/32b/ctrl
    3114                      .dwattr $C$DW$252, DW_AT_TI_begin_line(0xc3)
    3115                      .dwattr $C$DW$252, DW_AT_TI_begin_column(0x06)
    3116                      .dwattr $C$DW$252, DW_AT_TI_max_frame_size(-30)
    3117                      .dwpsn  file "C:/Users/wmj/Desktop/BM1000_v1.1/sw/modules/ctrl/src/32b/ctrl.c",line 198,column 1,is_s
    3118              
    3119                      .dwfde $C$DW$CIE, _CTRL_run
    3120              $C$DW$253       .dwtag  DW_TAG_formal_parameter
    3121                      .dwattr $C$DW$253, DW_AT_name("handle")
    3122                      .dwattr $C$DW$253, DW_AT_TI_symbol_name("_handle")
    3123                      .dwattr $C$DW$253, DW_AT_type(*$C$DW$T$170)
    3124                      .dwattr $C$DW$253, DW_AT_location[DW_OP_reg12]
    3125              
    3126              $C$DW$254       .dwtag  DW_TAG_formal_parameter
    3127                      .dwattr $C$DW$254, DW_AT_name("halHandle")
    3128                      .dwattr $C$DW$254, DW_AT_TI_symbol_name("_halHandle")
    3129                      .dwattr $C$DW$254, DW_AT_type(*$C$DW$T$201)
    3130                      .dwattr $C$DW$254, DW_AT_location[DW_OP_reg14]
    3131              
    3132              $C$DW$255       .dwtag  DW_TAG_formal_parameter
    3133                      .dwattr $C$DW$255, DW_AT_name("pAdcData")
    3134                      .dwattr $C$DW$255, DW_AT_TI_symbol_name("_pAdcData")
    3135                      .dwattr $C$DW$255, DW_AT_type(*$C$DW$T$194)
    3136                      .dwattr $C$DW$255, DW_AT_location[DW_OP_breg20 -32]
    3137              
    3138              $C$DW$256       .dwtag  DW_TAG_formal_parameter
    3139                      .dwattr $C$DW$256, DW_AT_name("pPwmData")
    3140                      .dwattr $C$DW$256, DW_AT_TI_symbol_name("_pPwmData")
    3141                      .dwattr $C$DW$256, DW_AT_type(*$C$DW$T$205)
    3142                      .dwattr $C$DW$256, DW_AT_location[DW_OP_breg20 -34]
    3143              
    3144              
    3145              ;***************************************************************
    3146              ;* FNAME: _CTRL_run                     FR SIZE:  28           *
    3147              ;*                                                             *
    3148              ;* FUNCTION ENVIRONMENT                                        *
    3149              ;*                                                             *
    3150              ;* FUNCTION PROPERTIES                                         *
    3151              ;*                            4 Parameter, 18 Auto,  6 SOE     *
    3152              ;***************************************************************
    3153              
    3154              _CTRL_run:
    3155              ;* AL    assigned to $O$C39
    3156              ;* AL    assigned to $O$C40
    3157              ;* AR2   assigned to $O$C41
TMS320C2000 Assembler PC v15.12.3 Wed Nov 22 00:56:17 2017

Tools Copyright (c) 1996-2015 Texas Instruments Incorporated
C:\Users\wmj\AppData\Local\Temp\0070810                              PAGE   61

    3158              ;* AR4   assigned to $O$C42
    3159              ;* AR7   assigned to $O$C43
    3160              ;* AR4   assigned to $O$C44
    3161              ;* AR4   assigned to $O$C45
    3162              ;* AR1   assigned to $O$C46
    3163              ;* AR6   assigned to $O$C47
    3164              ;* AR0   assigned to $O$C48
    3165              ;* AR4   assigned to $O$C49
    3166              ;* AR4   assigned to $O$C50
    3167              ;* AL    assigned to $O$C51
    3168              ;* AR6   assigned to $O$C52
    3169              ;* AL    assigned to $O$C53
    3170              ;* AR4   assigned to $O$C54
    3171              ;* AL    assigned to $O$C56
    3172              ;* AR2   assigned to $O$C57
    3173              ;* AR4   assigned to $O$C58
    3174              ;* AR7   assigned to $O$C59
    3175              ;* AR4   assigned to $O$C60
    3176              ;* AR4   assigned to $O$C61
    3177              ;* AR0   assigned to $O$C62
    3178              ;* AR4   assigned to $O$C63
    3179              ;* AR4   assigned to $O$C64
    3180              ;* AL    assigned to $O$C65
    3181              ;* AR6   assigned to $O$C66
    3182              ;* AL    assigned to $O$C67
    3183              ;* AR4   assigned to $O$C68
    3184              ;* AR4   assigned to $O$C69
    3185              ;* AL    assigned to $O$C70
    3186              ;* AR4   assigned to $O$C71
    3187              ;* AL    assigned to $O$C72
    3188              ;* AR2   assigned to _pInVec
    3189              $C$DW$257       .dwtag  DW_TAG_variable
    3190                      .dwattr $C$DW$257, DW_AT_name("pInVec")
    3191                      .dwattr $C$DW$257, DW_AT_TI_symbol_name("_pInVec")
    3192                      .dwattr $C$DW$257, DW_AT_type(*$C$DW$T$219)
    3193                      .dwattr $C$DW$257, DW_AT_location[DW_OP_reg8]
    3194              
    3195              ;* AR1   assigned to _pOutVec
    3196              $C$DW$258       .dwtag  DW_TAG_variable
    3197                      .dwattr $C$DW$258, DW_AT_name("pOutVec")
    3198                      .dwattr $C$DW$258, DW_AT_TI_symbol_name("_pOutVec")
    3199                      .dwattr $C$DW$258, DW_AT_type(*$C$DW$T$212)
    3200                      .dwattr $C$DW$258, DW_AT_location[DW_OP_reg6]
    3201              
    3202              ;* AR7   assigned to _alpha_sf
    3203              $C$DW$259       .dwtag  DW_TAG_variable
    3204                      .dwattr $C$DW$259, DW_AT_name("alpha_sf")
    3205                      .dwattr $C$DW$259, DW_AT_TI_symbol_name("_alpha_sf")
    3206                      .dwattr $C$DW$259, DW_AT_type(*$C$DW$T$31)
    3207                      .dwattr $C$DW$259, DW_AT_location[DW_OP_reg18]
    3208              
    3209              ;* AR6   assigned to _beta_sf
    3210              $C$DW$260       .dwtag  DW_TAG_variable
    3211                      .dwattr $C$DW$260, DW_AT_name("beta_sf")
    3212                      .dwattr $C$DW$260, DW_AT_TI_symbol_name("_beta_sf")
TMS320C2000 Assembler PC v15.12.3 Wed Nov 22 00:56:17 2017

Tools Copyright (c) 1996-2015 Texas Instruments Incorporated
C:\Users\wmj\AppData\Local\Temp\0070810                              PAGE   62

    3213                      .dwattr $C$DW$260, DW_AT_type(*$C$DW$T$31)
    3214                      .dwattr $C$DW$260, DW_AT_location[DW_OP_reg16]
    3215              
    3216              ;* AR4   assigned to _pInVec
    3217              $C$DW$261       .dwtag  DW_TAG_variable
    3218                      .dwattr $C$DW$261, DW_AT_name("pInVec")
    3219                      .dwattr $C$DW$261, DW_AT_TI_symbol_name("_pInVec")
    3220                      .dwattr $C$DW$261, DW_AT_type(*$C$DW$T$219)
    3221                      .dwattr $C$DW$261, DW_AT_location[DW_OP_reg12]
    3222              
    3223              ;* AR5   assigned to _pOutVec
    3224              $C$DW$262       .dwtag  DW_TAG_variable
    3225                      .dwattr $C$DW$262, DW_AT_name("pOutVec")
    3226                      .dwattr $C$DW$262, DW_AT_TI_symbol_name("_pOutVec")
    3227                      .dwattr $C$DW$262, DW_AT_type(*$C$DW$T$212)
    3228                      .dwattr $C$DW$262, DW_AT_location[DW_OP_reg14]
    3229              
    3230              ;* AR7   assigned to _alpha_sf
    3231              $C$DW$263       .dwtag  DW_TAG_variable
    3232                      .dwattr $C$DW$263, DW_AT_name("alpha_sf")
    3233                      .dwattr $C$DW$263, DW_AT_TI_symbol_name("_alpha_sf")
    3234                      .dwattr $C$DW$263, DW_AT_type(*$C$DW$T$31)
    3235                      .dwattr $C$DW$263, DW_AT_location[DW_OP_reg18]
    3236              
    3237              ;* AR0   assigned to _beta_sf
    3238              $C$DW$264       .dwtag  DW_TAG_variable
    3239                      .dwattr $C$DW$264, DW_AT_name("beta_sf")
    3240                      .dwattr $C$DW$264, DW_AT_TI_symbol_name("_beta_sf")
    3241                      .dwattr $C$DW$264, DW_AT_type(*$C$DW$T$31)
    3242                      .dwattr $C$DW$264, DW_AT_location[DW_OP_reg4]
    3243              
    3244              ;* AR4   assigned to _obj
    3245              $C$DW$265       .dwtag  DW_TAG_variable
    3246                      .dwattr $C$DW$265, DW_AT_name("obj")
    3247                      .dwattr $C$DW$265, DW_AT_TI_symbol_name("_obj")
    3248                      .dwattr $C$DW$265, DW_AT_type(*$C$DW$T$228)
    3249                      .dwattr $C$DW$265, DW_AT_location[DW_OP_reg12]
    3250              
    3251              ;* AR6   assigned to _sinTh
    3252              $C$DW$266       .dwtag  DW_TAG_variable
    3253                      .dwattr $C$DW$266, DW_AT_name("sinTh")
    3254                      .dwattr $C$DW$266, DW_AT_TI_symbol_name("_sinTh")
    3255                      .dwattr $C$DW$266, DW_AT_type(*$C$DW$T$31)
    3256                      .dwattr $C$DW$266, DW_AT_location[DW_OP_reg16]
    3257              
    3258              ;* AR7   assigned to _cosTh
    3259              $C$DW$267       .dwtag  DW_TAG_variable
    3260                      .dwattr $C$DW$267, DW_AT_name("cosTh")
    3261                      .dwattr $C$DW$267, DW_AT_TI_symbol_name("_cosTh")
    3262                      .dwattr $C$DW$267, DW_AT_type(*$C$DW$T$31)
    3263                      .dwattr $C$DW$267, DW_AT_location[DW_OP_reg18]
    3264              
    3265              ;* AR5   assigned to _value_0
    3266              $C$DW$268       .dwtag  DW_TAG_variable
    3267                      .dwattr $C$DW$268, DW_AT_name("value_0")
TMS320C2000 Assembler PC v15.12.3 Wed Nov 22 00:56:17 2017

Tools Copyright (c) 1996-2015 Texas Instruments Incorporated
C:\Users\wmj\AppData\Local\Temp\0070810                              PAGE   63

    3268                      .dwattr $C$DW$268, DW_AT_TI_symbol_name("_value_0")
    3269                      .dwattr $C$DW$268, DW_AT_type(*$C$DW$T$31)
    3270                      .dwattr $C$DW$268, DW_AT_location[DW_OP_reg14]
    3271              
    3272              ;* AR1   assigned to _value_1
    3273              $C$DW$269       .dwtag  DW_TAG_variable
    3274                      .dwattr $C$DW$269, DW_AT_name("value_1")
    3275                      .dwattr $C$DW$269, DW_AT_TI_symbol_name("_value_1")
    3276                      .dwattr $C$DW$269, DW_AT_type(*$C$DW$T$31)
    3277                      .dwattr $C$DW$269, DW_AT_location[DW_OP_reg6]
    3278              
    3279              ;* AR7   assigned to _outMax
    3280              $C$DW$270       .dwtag  DW_TAG_variable
    3281                      .dwattr $C$DW$270, DW_AT_name("outMax")
    3282                      .dwattr $C$DW$270, DW_AT_TI_symbol_name("_outMax")
    3283                      .dwattr $C$DW$270, DW_AT_type(*$C$DW$T$31)
    3284                      .dwattr $C$DW$270, DW_AT_location[DW_OP_reg18]
    3285              
    3286              ;* AR4   assigned to _obj
    3287              $C$DW$271       .dwtag  DW_TAG_variable
    3288                      .dwattr $C$DW$271, DW_AT_name("obj")
    3289                      .dwattr $C$DW$271, DW_AT_TI_symbol_name("_obj")
    3290                      .dwattr $C$DW$271, DW_AT_type(*$C$DW$T$229)
    3291                      .dwattr $C$DW$271, DW_AT_location[DW_OP_reg12]
    3292              
    3293              ;* AR7   assigned to _refValue
    3294              $C$DW$272       .dwtag  DW_TAG_variable
    3295                      .dwattr $C$DW$272, DW_AT_name("refValue")
    3296                      .dwattr $C$DW$272, DW_AT_TI_symbol_name("_refValue")
    3297                      .dwattr $C$DW$272, DW_AT_type(*$C$DW$T$31)
    3298                      .dwattr $C$DW$272, DW_AT_location[DW_OP_reg18]
    3299              
    3300              ;* AR4   assigned to _obj
    3301              $C$DW$273       .dwtag  DW_TAG_variable
    3302                      .dwattr $C$DW$273, DW_AT_name("obj")
    3303                      .dwattr $C$DW$273, DW_AT_TI_symbol_name("_obj")
    3304                      .dwattr $C$DW$273, DW_AT_type(*$C$DW$T$229)
    3305                      .dwattr $C$DW$273, DW_AT_location[DW_OP_reg12]
    3306              
    3307              ;* AR5   assigned to _Up
    3308              $C$DW$274       .dwtag  DW_TAG_variable
    3309                      .dwattr $C$DW$274, DW_AT_name("Up")
    3310                      .dwattr $C$DW$274, DW_AT_TI_symbol_name("_Up")
    3311                      .dwattr $C$DW$274, DW_AT_type(*$C$DW$T$31)
    3312                      .dwattr $C$DW$274, DW_AT_location[DW_OP_reg14]
    3313              
    3314              ;* AL    assigned to _Ui
    3315              $C$DW$275       .dwtag  DW_TAG_variable
    3316                      .dwattr $C$DW$275, DW_AT_name("Ui")
    3317                      .dwattr $C$DW$275, DW_AT_TI_symbol_name("_Ui")
    3318                      .dwattr $C$DW$275, DW_AT_type(*$C$DW$T$31)
    3319                      .dwattr $C$DW$275, DW_AT_location[DW_OP_reg0]
    3320              
    3321              ;* AR4   assigned to _obj
    3322              $C$DW$276       .dwtag  DW_TAG_variable
TMS320C2000 Assembler PC v15.12.3 Wed Nov 22 00:56:17 2017

Tools Copyright (c) 1996-2015 Texas Instruments Incorporated
C:\Users\wmj\AppData\Local\Temp\0070810                              PAGE   64

    3323                      .dwattr $C$DW$276, DW_AT_name("obj")
    3324                      .dwattr $C$DW$276, DW_AT_TI_symbol_name("_obj")
    3325                      .dwattr $C$DW$276, DW_AT_type(*$C$DW$T$229)
    3326                      .dwattr $C$DW$276, DW_AT_location[DW_OP_reg12]
    3327              
    3328              ;* AR6   assigned to _fbackValue
    3329              $C$DW$277       .dwtag  DW_TAG_variable
    3330                      .dwattr $C$DW$277, DW_AT_name("fbackValue")
    3331                      .dwattr $C$DW$277, DW_AT_TI_symbol_name("_fbackValue")
    3332                      .dwattr $C$DW$277, DW_AT_type(*$C$DW$T$31)
    3333                      .dwattr $C$DW$277, DW_AT_location[DW_OP_reg16]
    3334              
    3335              ;* AR4   assigned to _obj
    3336              $C$DW$278       .dwtag  DW_TAG_variable
    3337                      .dwattr $C$DW$278, DW_AT_name("obj")
    3338                      .dwattr $C$DW$278, DW_AT_TI_symbol_name("_obj")
    3339                      .dwattr $C$DW$278, DW_AT_type(*$C$DW$T$229)
    3340                      .dwattr $C$DW$278, DW_AT_location[DW_OP_reg12]
    3341              
    3342              ;* AR7   assigned to _Up
    3343              $C$DW$279       .dwtag  DW_TAG_variable
    3344                      .dwattr $C$DW$279, DW_AT_name("Up")
    3345                      .dwattr $C$DW$279, DW_AT_TI_symbol_name("_Up")
    3346                      .dwattr $C$DW$279, DW_AT_type(*$C$DW$T$31)
    3347                      .dwattr $C$DW$279, DW_AT_location[DW_OP_reg18]
    3348              
    3349              ;* AL    assigned to _Ui
    3350              $C$DW$280       .dwtag  DW_TAG_variable
    3351                      .dwattr $C$DW$280, DW_AT_name("Ui")
    3352                      .dwattr $C$DW$280, DW_AT_TI_symbol_name("_Ui")
    3353                      .dwattr $C$DW$280, DW_AT_type(*$C$DW$T$31)
    3354                      .dwattr $C$DW$280, DW_AT_location[DW_OP_reg0]
    3355              
    3356              ;* AR4   assigned to _obj
    3357              $C$DW$281       .dwtag  DW_TAG_variable
    3358                      .dwattr $C$DW$281, DW_AT_name("obj")
    3359                      .dwattr $C$DW$281, DW_AT_TI_symbol_name("_obj")
    3360                      .dwattr $C$DW$281, DW_AT_type(*$C$DW$T$229)
    3361                      .dwattr $C$DW$281, DW_AT_location[DW_OP_reg12]
    3362              
    3363              ;* AR6   assigned to _fbackValue
    3364              $C$DW$282       .dwtag  DW_TAG_variable
    3365                      .dwattr $C$DW$282, DW_AT_name("fbackValue")
    3366                      .dwattr $C$DW$282, DW_AT_TI_symbol_name("_fbackValue")
    3367                      .dwattr $C$DW$282, DW_AT_type(*$C$DW$T$31)
    3368                      .dwattr $C$DW$282, DW_AT_location[DW_OP_reg16]
    3369              
    3370              ;* AR4   assigned to _obj
    3371              $C$DW$283       .dwtag  DW_TAG_variable
    3372                      .dwattr $C$DW$283, DW_AT_name("obj")
    3373                      .dwattr $C$DW$283, DW_AT_TI_symbol_name("_obj")
    3374                      .dwattr $C$DW$283, DW_AT_type(*$C$DW$T$229)
    3375                      .dwattr $C$DW$283, DW_AT_location[DW_OP_reg12]
    3376              
    3377              ;* AR7   assigned to _Up
TMS320C2000 Assembler PC v15.12.3 Wed Nov 22 00:56:17 2017

Tools Copyright (c) 1996-2015 Texas Instruments Incorporated
C:\Users\wmj\AppData\Local\Temp\0070810                              PAGE   65

    3378              $C$DW$284       .dwtag  DW_TAG_variable
    3379                      .dwattr $C$DW$284, DW_AT_name("Up")
    3380                      .dwattr $C$DW$284, DW_AT_TI_symbol_name("_Up")
    3381                      .dwattr $C$DW$284, DW_AT_type(*$C$DW$T$31)
    3382                      .dwattr $C$DW$284, DW_AT_location[DW_OP_reg18]
    3383              
    3384              ;* AL    assigned to _Ui
    3385              $C$DW$285       .dwtag  DW_TAG_variable
    3386                      .dwattr $C$DW$285, DW_AT_name("Ui")
    3387                      .dwattr $C$DW$285, DW_AT_TI_symbol_name("_Ui")
    3388                      .dwattr $C$DW$285, DW_AT_type(*$C$DW$T$31)
    3389                      .dwattr $C$DW$285, DW_AT_location[DW_OP_reg0]
    3390              
    3391              ;* XT    assigned to _angleDelta_pu
    3392              $C$DW$286       .dwtag  DW_TAG_variable
    3393                      .dwattr $C$DW$286, DW_AT_name("angleDelta_pu")
    3394                      .dwattr $C$DW$286, DW_AT_TI_symbol_name("_angleDelta_pu")
    3395                      .dwattr $C$DW$286, DW_AT_type(*$C$DW$T$31)
    3396                      .dwattr $C$DW$286, DW_AT_location[DW_OP_reg21]
    3397              
    3398              ;* AR1   assigned to _angleComp_pu
    3399              $C$DW$287       .dwtag  DW_TAG_variable
    3400                      .dwattr $C$DW$287, DW_AT_name("angleComp_pu")
    3401                      .dwattr $C$DW$287, DW_AT_TI_symbol_name("_angleComp_pu")
    3402                      .dwattr $C$DW$287, DW_AT_type(*$C$DW$T$31)
    3403                      .dwattr $C$DW$287, DW_AT_location[DW_OP_reg6]
    3404              
    3405              ;* AR4   assigned to _obj
    3406              $C$DW$288       .dwtag  DW_TAG_variable
    3407                      .dwattr $C$DW$288, DW_AT_name("obj")
    3408                      .dwattr $C$DW$288, DW_AT_TI_symbol_name("_obj")
    3409                      .dwattr $C$DW$288, DW_AT_type(*$C$DW$T$209)
    3410                      .dwattr $C$DW$288, DW_AT_location[DW_OP_reg12]
    3411              
    3412              ;* AR7   assigned to _sinTh
    3413              $C$DW$289       .dwtag  DW_TAG_variable
    3414                      .dwattr $C$DW$289, DW_AT_name("sinTh")
    3415                      .dwattr $C$DW$289, DW_AT_TI_symbol_name("_sinTh")
    3416                      .dwattr $C$DW$289, DW_AT_type(*$C$DW$T$31)
    3417                      .dwattr $C$DW$289, DW_AT_location[DW_OP_reg18]
    3418              
    3419              ;* AR6   assigned to _cosTh
    3420              $C$DW$290       .dwtag  DW_TAG_variable
    3421                      .dwattr $C$DW$290, DW_AT_name("cosTh")
    3422                      .dwattr $C$DW$290, DW_AT_TI_symbol_name("_cosTh")
    3423                      .dwattr $C$DW$290, DW_AT_type(*$C$DW$T$31)
    3424                      .dwattr $C$DW$290, DW_AT_location[DW_OP_reg16]
    3425              
    3426              ;* AR5   assigned to _value_0
    3427              $C$DW$291       .dwtag  DW_TAG_variable
    3428                      .dwattr $C$DW$291, DW_AT_name("value_0")
    3429                      .dwattr $C$DW$291, DW_AT_TI_symbol_name("_value_0")
    3430                      .dwattr $C$DW$291, DW_AT_type(*$C$DW$T$31)
    3431                      .dwattr $C$DW$291, DW_AT_location[DW_OP_reg14]
    3432              
TMS320C2000 Assembler PC v15.12.3 Wed Nov 22 00:56:17 2017

Tools Copyright (c) 1996-2015 Texas Instruments Incorporated
C:\Users\wmj\AppData\Local\Temp\0070810                              PAGE   66

    3433              ;* AR0   assigned to _value_1
    3434              $C$DW$292       .dwtag  DW_TAG_variable
    3435                      .dwattr $C$DW$292, DW_AT_name("value_1")
    3436                      .dwattr $C$DW$292, DW_AT_TI_symbol_name("_value_1")
    3437                      .dwattr $C$DW$292, DW_AT_type(*$C$DW$T$31)
    3438                      .dwattr $C$DW$292, DW_AT_location[DW_OP_reg4]
    3439              
    3440              ;* AR5   assigned to _pT
    3441              $C$DW$293       .dwtag  DW_TAG_variable
    3442                      .dwattr $C$DW$293, DW_AT_name("pT")
    3443                      .dwattr $C$DW$293, DW_AT_TI_symbol_name("_pT")
    3444                      .dwattr $C$DW$293, DW_AT_type(*$C$DW$T$220)
    3445                      .dwattr $C$DW$293, DW_AT_location[DW_OP_reg14]
    3446              
    3447              ;* AR6   assigned to _Va
    3448              $C$DW$294       .dwtag  DW_TAG_variable
    3449                      .dwattr $C$DW$294, DW_AT_name("Va")
    3450                      .dwattr $C$DW$294, DW_AT_TI_symbol_name("_Va")
    3451                      .dwattr $C$DW$294, DW_AT_type(*$C$DW$T$31)
    3452                      .dwattr $C$DW$294, DW_AT_location[DW_OP_reg16]
    3453              
    3454              ;* AR0   assigned to _Vb
    3455              $C$DW$295       .dwtag  DW_TAG_variable
    3456                      .dwattr $C$DW$295, DW_AT_name("Vb")
    3457                      .dwattr $C$DW$295, DW_AT_TI_symbol_name("_Vb")
    3458                      .dwattr $C$DW$295, DW_AT_type(*$C$DW$T$31)
    3459                      .dwattr $C$DW$295, DW_AT_location[DW_OP_reg4]
    3460              
    3461              ;* AR7   assigned to _Vc
    3462              $C$DW$296       .dwtag  DW_TAG_variable
    3463                      .dwattr $C$DW$296, DW_AT_name("Vc")
    3464                      .dwattr $C$DW$296, DW_AT_TI_symbol_name("_Vc")
    3465                      .dwattr $C$DW$296, DW_AT_type(*$C$DW$T$31)
    3466                      .dwattr $C$DW$296, DW_AT_location[DW_OP_reg18]
    3467              
    3468              ;* AR2   assigned to _angle_pu
    3469              $C$DW$297       .dwtag  DW_TAG_variable
    3470                      .dwattr $C$DW$297, DW_AT_name("angle_pu")
    3471                      .dwattr $C$DW$297, DW_AT_TI_symbol_name("_angle_pu")
    3472                      .dwattr $C$DW$297, DW_AT_type(*$C$DW$T$31)
    3473                      .dwattr $C$DW$297, DW_AT_location[DW_OP_reg8]
    3474              
    3475              ;* AR1   assigned to _refValue
    3476              $C$DW$298       .dwtag  DW_TAG_variable
    3477                      .dwattr $C$DW$298, DW_AT_name("refValue")
    3478                      .dwattr $C$DW$298, DW_AT_TI_symbol_name("_refValue")
    3479                      .dwattr $C$DW$298, DW_AT_type(*$C$DW$T$31)
    3480                      .dwattr $C$DW$298, DW_AT_location[DW_OP_reg6]
    3481              
    3482              ;* AR6   assigned to _fbackValue
    3483              $C$DW$299       .dwtag  DW_TAG_variable
    3484                      .dwattr $C$DW$299, DW_AT_name("fbackValue")
    3485                      .dwattr $C$DW$299, DW_AT_TI_symbol_name("_fbackValue")
    3486                      .dwattr $C$DW$299, DW_AT_type(*$C$DW$T$31)
    3487                      .dwattr $C$DW$299, DW_AT_location[DW_OP_reg16]
TMS320C2000 Assembler PC v15.12.3 Wed Nov 22 00:56:17 2017

Tools Copyright (c) 1996-2015 Texas Instruments Incorporated
C:\Users\wmj\AppData\Local\Temp\0070810                              PAGE   67

    3488              
    3489              ;* AR7   assigned to _outMax
    3490              $C$DW$300       .dwtag  DW_TAG_variable
    3491                      .dwattr $C$DW$300, DW_AT_name("outMax")
    3492                      .dwattr $C$DW$300, DW_AT_TI_symbol_name("_outMax")
    3493                      .dwattr $C$DW$300, DW_AT_type(*$C$DW$T$31)
    3494                      .dwattr $C$DW$300, DW_AT_location[DW_OP_reg18]
    3495              
    3496              ;* AL    assigned to _outMin
    3497              $C$DW$301       .dwtag  DW_TAG_variable
    3498                      .dwattr $C$DW$301, DW_AT_name("outMin")
    3499                      .dwattr $C$DW$301, DW_AT_TI_symbol_name("_outMin")
    3500                      .dwattr $C$DW$301, DW_AT_type(*$C$DW$T$31)
    3501                      .dwattr $C$DW$301, DW_AT_location[DW_OP_reg0]
    3502              
    3503              ;* AR1   assigned to _Kp_Id
    3504              $C$DW$302       .dwtag  DW_TAG_variable
    3505                      .dwattr $C$DW$302, DW_AT_name("Kp_Id")
    3506                      .dwattr $C$DW$302, DW_AT_TI_symbol_name("_Kp_Id")
    3507                      .dwattr $C$DW$302, DW_AT_type(*$C$DW$T$31)
    3508                      .dwattr $C$DW$302, DW_AT_location[DW_OP_reg6]
    3509              
    3510              $C$DW$303       .dwtag  DW_TAG_variable
    3511                      .dwattr $C$DW$303, DW_AT_name("Kp_Iq")
    3512                      .dwattr $C$DW$303, DW_AT_TI_symbol_name("_Kp_Iq")
    3513                      .dwattr $C$DW$303, DW_AT_type(*$C$DW$T$31)
    3514                      .dwattr $C$DW$303, DW_AT_location[DW_OP_breg20 -18]
    3515              
    3516              $C$DW$304       .dwtag  DW_TAG_variable
    3517                      .dwattr $C$DW$304, DW_AT_name("refValue")
    3518                      .dwattr $C$DW$304, DW_AT_TI_symbol_name("_refValue")
    3519                      .dwattr $C$DW$304, DW_AT_type(*$C$DW$T$31)
    3520                      .dwattr $C$DW$304, DW_AT_location[DW_OP_breg20 -6]
    3521              
    3522              $C$DW$305       .dwtag  DW_TAG_variable
    3523                      .dwattr $C$DW$305, DW_AT_name("maxVsMag")
    3524                      .dwattr $C$DW$305, DW_AT_TI_symbol_name("_maxVsMag")
    3525                      .dwattr $C$DW$305, DW_AT_type(*$C$DW$T$31)
    3526                      .dwattr $C$DW$305, DW_AT_location[DW_OP_breg20 -20]
    3527              
    3528              ;* AR2   assigned to _pInVec
    3529              $C$DW$306       .dwtag  DW_TAG_variable
    3530                      .dwattr $C$DW$306, DW_AT_name("pInVec")
    3531                      .dwattr $C$DW$306, DW_AT_TI_symbol_name("_pInVec")
    3532                      .dwattr $C$DW$306, DW_AT_type(*$C$DW$T$219)
    3533                      .dwattr $C$DW$306, DW_AT_location[DW_OP_reg8]
    3534              
    3535              ;* AR1   assigned to _pOutVec
    3536              $C$DW$307       .dwtag  DW_TAG_variable
    3537                      .dwattr $C$DW$307, DW_AT_name("pOutVec")
    3538                      .dwattr $C$DW$307, DW_AT_TI_symbol_name("_pOutVec")
    3539                      .dwattr $C$DW$307, DW_AT_type(*$C$DW$T$212)
    3540                      .dwattr $C$DW$307, DW_AT_location[DW_OP_reg6]
    3541              
    3542              ;* AR7   assigned to _alpha_sf
TMS320C2000 Assembler PC v15.12.3 Wed Nov 22 00:56:17 2017

Tools Copyright (c) 1996-2015 Texas Instruments Incorporated
C:\Users\wmj\AppData\Local\Temp\0070810                              PAGE   68

    3543              $C$DW$308       .dwtag  DW_TAG_variable
    3544                      .dwattr $C$DW$308, DW_AT_name("alpha_sf")
    3545                      .dwattr $C$DW$308, DW_AT_TI_symbol_name("_alpha_sf")
    3546                      .dwattr $C$DW$308, DW_AT_type(*$C$DW$T$31)
    3547                      .dwattr $C$DW$308, DW_AT_location[DW_OP_reg18]
    3548              
    3549              ;* AR6   assigned to _beta_sf
    3550              $C$DW$309       .dwtag  DW_TAG_variable
    3551                      .dwattr $C$DW$309, DW_AT_name("beta_sf")
    3552                      .dwattr $C$DW$309, DW_AT_TI_symbol_name("_beta_sf")
    3553                      .dwattr $C$DW$309, DW_AT_type(*$C$DW$T$31)
    3554                      .dwattr $C$DW$309, DW_AT_location[DW_OP_reg16]
    3555              
    3556              ;* AR4   assigned to _pInVec
    3557              $C$DW$310       .dwtag  DW_TAG_variable
    3558                      .dwattr $C$DW$310, DW_AT_name("pInVec")
    3559                      .dwattr $C$DW$310, DW_AT_TI_symbol_name("_pInVec")
    3560                      .dwattr $C$DW$310, DW_AT_type(*$C$DW$T$219)
    3561                      .dwattr $C$DW$310, DW_AT_location[DW_OP_reg12]
    3562              
    3563              ;* AR5   assigned to _pOutVec
    3564              $C$DW$311       .dwtag  DW_TAG_variable
    3565                      .dwattr $C$DW$311, DW_AT_name("pOutVec")
    3566                      .dwattr $C$DW$311, DW_AT_TI_symbol_name("_pOutVec")
    3567                      .dwattr $C$DW$311, DW_AT_type(*$C$DW$T$212)
    3568                      .dwattr $C$DW$311, DW_AT_location[DW_OP_reg14]
    3569              
    3570              ;* AR7   assigned to _alpha_sf
    3571              $C$DW$312       .dwtag  DW_TAG_variable
    3572                      .dwattr $C$DW$312, DW_AT_name("alpha_sf")
    3573                      .dwattr $C$DW$312, DW_AT_TI_symbol_name("_alpha_sf")
    3574                      .dwattr $C$DW$312, DW_AT_type(*$C$DW$T$31)
    3575                      .dwattr $C$DW$312, DW_AT_location[DW_OP_reg18]
    3576              
    3577              ;* AR0   assigned to _beta_sf
    3578              $C$DW$313       .dwtag  DW_TAG_variable
    3579                      .dwattr $C$DW$313, DW_AT_name("beta_sf")
    3580                      .dwattr $C$DW$313, DW_AT_TI_symbol_name("_beta_sf")
    3581                      .dwattr $C$DW$313, DW_AT_type(*$C$DW$T$31)
    3582                      .dwattr $C$DW$313, DW_AT_location[DW_OP_reg4]
    3583              
    3584              ;* AR4   assigned to _obj
    3585              $C$DW$314       .dwtag  DW_TAG_variable
    3586                      .dwattr $C$DW$314, DW_AT_name("obj")
    3587                      .dwattr $C$DW$314, DW_AT_TI_symbol_name("_obj")
    3588                      .dwattr $C$DW$314, DW_AT_type(*$C$DW$T$228)
    3589                      .dwattr $C$DW$314, DW_AT_location[DW_OP_reg12]
    3590              
    3591              ;* AR6   assigned to _sinTh
    3592              $C$DW$315       .dwtag  DW_TAG_variable
    3593                      .dwattr $C$DW$315, DW_AT_name("sinTh")
    3594                      .dwattr $C$DW$315, DW_AT_TI_symbol_name("_sinTh")
    3595                      .dwattr $C$DW$315, DW_AT_type(*$C$DW$T$31)
    3596                      .dwattr $C$DW$315, DW_AT_location[DW_OP_reg16]
    3597              
TMS320C2000 Assembler PC v15.12.3 Wed Nov 22 00:56:17 2017

Tools Copyright (c) 1996-2015 Texas Instruments Incorporated
C:\Users\wmj\AppData\Local\Temp\0070810                              PAGE   69

    3598              ;* AR7   assigned to _cosTh
    3599              $C$DW$316       .dwtag  DW_TAG_variable
    3600                      .dwattr $C$DW$316, DW_AT_name("cosTh")
    3601                      .dwattr $C$DW$316, DW_AT_TI_symbol_name("_cosTh")
    3602                      .dwattr $C$DW$316, DW_AT_type(*$C$DW$T$31)
    3603                      .dwattr $C$DW$316, DW_AT_location[DW_OP_reg18]
    3604              
    3605              ;* AR0   assigned to _value_0
    3606              $C$DW$317       .dwtag  DW_TAG_variable
    3607                      .dwattr $C$DW$317, DW_AT_name("value_0")
    3608                      .dwattr $C$DW$317, DW_AT_TI_symbol_name("_value_0")
    3609                      .dwattr $C$DW$317, DW_AT_type(*$C$DW$T$31)
    3610                      .dwattr $C$DW$317, DW_AT_location[DW_OP_reg4]
    3611              
    3612              ;* AR5   assigned to _value_1
    3613              $C$DW$318       .dwtag  DW_TAG_variable
    3614                      .dwattr $C$DW$318, DW_AT_name("value_1")
    3615                      .dwattr $C$DW$318, DW_AT_TI_symbol_name("_value_1")
    3616                      .dwattr $C$DW$318, DW_AT_type(*$C$DW$T$31)
    3617                      .dwattr $C$DW$318, DW_AT_location[DW_OP_reg14]
    3618              
    3619              ;* AR7   assigned to _outMax
    3620              $C$DW$319       .dwtag  DW_TAG_variable
    3621                      .dwattr $C$DW$319, DW_AT_name("outMax")
    3622                      .dwattr $C$DW$319, DW_AT_TI_symbol_name("_outMax")
    3623                      .dwattr $C$DW$319, DW_AT_type(*$C$DW$T$31)
    3624                      .dwattr $C$DW$319, DW_AT_location[DW_OP_reg18]
    3625              
    3626              ;* AR4   assigned to _obj
    3627              $C$DW$320       .dwtag  DW_TAG_variable
    3628                      .dwattr $C$DW$320, DW_AT_name("obj")
    3629                      .dwattr $C$DW$320, DW_AT_TI_symbol_name("_obj")
    3630                      .dwattr $C$DW$320, DW_AT_type(*$C$DW$T$229)
    3631                      .dwattr $C$DW$320, DW_AT_location[DW_OP_reg12]
    3632              
    3633              ;* AR5   assigned to _refValue
    3634              $C$DW$321       .dwtag  DW_TAG_variable
    3635                      .dwattr $C$DW$321, DW_AT_name("refValue")
    3636                      .dwattr $C$DW$321, DW_AT_TI_symbol_name("_refValue")
    3637                      .dwattr $C$DW$321, DW_AT_type(*$C$DW$T$31)
    3638                      .dwattr $C$DW$321, DW_AT_location[DW_OP_reg14]
    3639              
    3640              ;* AR4   assigned to _obj
    3641              $C$DW$322       .dwtag  DW_TAG_variable
    3642                      .dwattr $C$DW$322, DW_AT_name("obj")
    3643                      .dwattr $C$DW$322, DW_AT_TI_symbol_name("_obj")
    3644                      .dwattr $C$DW$322, DW_AT_type(*$C$DW$T$229)
    3645                      .dwattr $C$DW$322, DW_AT_location[DW_OP_reg12]
    3646              
    3647              ;* AR7   assigned to _Up
    3648              $C$DW$323       .dwtag  DW_TAG_variable
    3649                      .dwattr $C$DW$323, DW_AT_name("Up")
    3650                      .dwattr $C$DW$323, DW_AT_TI_symbol_name("_Up")
    3651                      .dwattr $C$DW$323, DW_AT_type(*$C$DW$T$31)
    3652                      .dwattr $C$DW$323, DW_AT_location[DW_OP_reg18]
TMS320C2000 Assembler PC v15.12.3 Wed Nov 22 00:56:17 2017

Tools Copyright (c) 1996-2015 Texas Instruments Incorporated
C:\Users\wmj\AppData\Local\Temp\0070810                              PAGE   70

    3653              
    3654              ;* AL    assigned to _Ui
    3655              $C$DW$324       .dwtag  DW_TAG_variable
    3656                      .dwattr $C$DW$324, DW_AT_name("Ui")
    3657                      .dwattr $C$DW$324, DW_AT_TI_symbol_name("_Ui")
    3658                      .dwattr $C$DW$324, DW_AT_type(*$C$DW$T$31)
    3659                      .dwattr $C$DW$324, DW_AT_location[DW_OP_reg0]
    3660              
    3661              ;* AR4   assigned to _obj
    3662              $C$DW$325       .dwtag  DW_TAG_variable
    3663                      .dwattr $C$DW$325, DW_AT_name("obj")
    3664                      .dwattr $C$DW$325, DW_AT_TI_symbol_name("_obj")
    3665                      .dwattr $C$DW$325, DW_AT_type(*$C$DW$T$229)
    3666                      .dwattr $C$DW$325, DW_AT_location[DW_OP_reg12]
    3667              
    3668              ;* AR6   assigned to _refValue
    3669              $C$DW$326       .dwtag  DW_TAG_variable
    3670                      .dwattr $C$DW$326, DW_AT_name("refValue")
    3671                      .dwattr $C$DW$326, DW_AT_TI_symbol_name("_refValue")
    3672                      .dwattr $C$DW$326, DW_AT_type(*$C$DW$T$31)
    3673                      .dwattr $C$DW$326, DW_AT_location[DW_OP_reg16]
    3674              
    3675              ;* AR7   assigned to _fbackValue
    3676              $C$DW$327       .dwtag  DW_TAG_variable
    3677                      .dwattr $C$DW$327, DW_AT_name("fbackValue")
    3678                      .dwattr $C$DW$327, DW_AT_TI_symbol_name("_fbackValue")
    3679                      .dwattr $C$DW$327, DW_AT_type(*$C$DW$T$31)
    3680                      .dwattr $C$DW$327, DW_AT_location[DW_OP_reg18]
    3681              
    3682              ;* AR4   assigned to _obj
    3683              $C$DW$328       .dwtag  DW_TAG_variable
    3684                      .dwattr $C$DW$328, DW_AT_name("obj")
    3685                      .dwattr $C$DW$328, DW_AT_TI_symbol_name("_obj")
    3686                      .dwattr $C$DW$328, DW_AT_type(*$C$DW$T$229)
    3687                      .dwattr $C$DW$328, DW_AT_location[DW_OP_reg12]
    3688              
    3689              ;* AR5   assigned to _Up
    3690              $C$DW$329       .dwtag  DW_TAG_variable
    3691                      .dwattr $C$DW$329, DW_AT_name("Up")
    3692                      .dwattr $C$DW$329, DW_AT_TI_symbol_name("_Up")
    3693                      .dwattr $C$DW$329, DW_AT_type(*$C$DW$T$31)
    3694                      .dwattr $C$DW$329, DW_AT_location[DW_OP_reg14]
    3695              
    3696              ;* AL    assigned to _Ui
    3697              $C$DW$330       .dwtag  DW_TAG_variable
    3698                      .dwattr $C$DW$330, DW_AT_name("Ui")
    3699                      .dwattr $C$DW$330, DW_AT_TI_symbol_name("_Ui")
    3700                      .dwattr $C$DW$330, DW_AT_type(*$C$DW$T$31)
    3701                      .dwattr $C$DW$330, DW_AT_location[DW_OP_reg0]
    3702              
    3703              ;* AR2   assigned to _outMax
    3704              $C$DW$331       .dwtag  DW_TAG_variable
    3705                      .dwattr $C$DW$331, DW_AT_name("outMax")
    3706                      .dwattr $C$DW$331, DW_AT_TI_symbol_name("_outMax")
    3707                      .dwattr $C$DW$331, DW_AT_type(*$C$DW$T$31)
TMS320C2000 Assembler PC v15.12.3 Wed Nov 22 00:56:17 2017

Tools Copyright (c) 1996-2015 Texas Instruments Incorporated
C:\Users\wmj\AppData\Local\Temp\0070810                              PAGE   71

    3708                      .dwattr $C$DW$331, DW_AT_location[DW_OP_reg8]
    3709              
    3710              ;* AR4   assigned to _obj
    3711              $C$DW$332       .dwtag  DW_TAG_variable
    3712                      .dwattr $C$DW$332, DW_AT_name("obj")
    3713                      .dwattr $C$DW$332, DW_AT_TI_symbol_name("_obj")
    3714                      .dwattr $C$DW$332, DW_AT_type(*$C$DW$T$229)
    3715                      .dwattr $C$DW$332, DW_AT_location[DW_OP_reg12]
    3716              
    3717              ;* AR6   assigned to _fbackValue
    3718              $C$DW$333       .dwtag  DW_TAG_variable
    3719                      .dwattr $C$DW$333, DW_AT_name("fbackValue")
    3720                      .dwattr $C$DW$333, DW_AT_TI_symbol_name("_fbackValue")
    3721                      .dwattr $C$DW$333, DW_AT_type(*$C$DW$T$31)
    3722                      .dwattr $C$DW$333, DW_AT_location[DW_OP_reg16]
    3723              
    3724              ;* AR4   assigned to _obj
    3725              $C$DW$334       .dwtag  DW_TAG_variable
    3726                      .dwattr $C$DW$334, DW_AT_name("obj")
    3727                      .dwattr $C$DW$334, DW_AT_TI_symbol_name("_obj")
    3728                      .dwattr $C$DW$334, DW_AT_type(*$C$DW$T$229)
    3729                      .dwattr $C$DW$334, DW_AT_location[DW_OP_reg12]
    3730              
    3731              ;* AR7   assigned to _Up
    3732              $C$DW$335       .dwtag  DW_TAG_variable
    3733                      .dwattr $C$DW$335, DW_AT_name("Up")
    3734                      .dwattr $C$DW$335, DW_AT_TI_symbol_name("_Up")
    3735                      .dwattr $C$DW$335, DW_AT_type(*$C$DW$T$31)
    3736                      .dwattr $C$DW$335, DW_AT_location[DW_OP_reg18]
    3737              
    3738              ;* AL    assigned to _Ui
    3739              $C$DW$336       .dwtag  DW_TAG_variable
    3740                      .dwattr $C$DW$336, DW_AT_name("Ui")
    3741                      .dwattr $C$DW$336, DW_AT_TI_symbol_name("_Ui")
    3742                      .dwattr $C$DW$336, DW_AT_type(*$C$DW$T$31)
    3743                      .dwattr $C$DW$336, DW_AT_location[DW_OP_reg0]
    3744              
    3745              ;* AR4   assigned to _obj
    3746              $C$DW$337       .dwtag  DW_TAG_variable
    3747                      .dwattr $C$DW$337, DW_AT_name("obj")
    3748                      .dwattr $C$DW$337, DW_AT_TI_symbol_name("_obj")
    3749                      .dwattr $C$DW$337, DW_AT_type(*$C$DW$T$209)
    3750                      .dwattr $C$DW$337, DW_AT_location[DW_OP_reg12]
    3751              
    3752              ;* AR7   assigned to _sinTh
    3753              $C$DW$338       .dwtag  DW_TAG_variable
    3754                      .dwattr $C$DW$338, DW_AT_name("sinTh")
    3755                      .dwattr $C$DW$338, DW_AT_TI_symbol_name("_sinTh")
    3756                      .dwattr $C$DW$338, DW_AT_type(*$C$DW$T$31)
    3757                      .dwattr $C$DW$338, DW_AT_location[DW_OP_reg18]
    3758              
    3759              ;* AR6   assigned to _cosTh
    3760              $C$DW$339       .dwtag  DW_TAG_variable
    3761                      .dwattr $C$DW$339, DW_AT_name("cosTh")
    3762                      .dwattr $C$DW$339, DW_AT_TI_symbol_name("_cosTh")
TMS320C2000 Assembler PC v15.12.3 Wed Nov 22 00:56:17 2017

Tools Copyright (c) 1996-2015 Texas Instruments Incorporated
C:\Users\wmj\AppData\Local\Temp\0070810                              PAGE   72

    3763                      .dwattr $C$DW$339, DW_AT_type(*$C$DW$T$31)
    3764                      .dwattr $C$DW$339, DW_AT_location[DW_OP_reg16]
    3765              
    3766              ;* AR5   assigned to _value_0
    3767              $C$DW$340       .dwtag  DW_TAG_variable
    3768                      .dwattr $C$DW$340, DW_AT_name("value_0")
    3769                      .dwattr $C$DW$340, DW_AT_TI_symbol_name("_value_0")
    3770                      .dwattr $C$DW$340, DW_AT_type(*$C$DW$T$31)
    3771                      .dwattr $C$DW$340, DW_AT_location[DW_OP_reg14]
    3772              
    3773              ;* AR0   assigned to _value_1
    3774              $C$DW$341       .dwtag  DW_TAG_variable
    3775                      .dwattr $C$DW$341, DW_AT_name("value_1")
    3776                      .dwattr $C$DW$341, DW_AT_TI_symbol_name("_value_1")
    3777                      .dwattr $C$DW$341, DW_AT_type(*$C$DW$T$31)
    3778                      .dwattr $C$DW$341, DW_AT_location[DW_OP_reg4]
    3779              
    3780              ;* AR6   assigned to _Va
    3781              $C$DW$342       .dwtag  DW_TAG_variable
    3782                      .dwattr $C$DW$342, DW_AT_name("Va")
    3783                      .dwattr $C$DW$342, DW_AT_TI_symbol_name("_Va")
    3784                      .dwattr $C$DW$342, DW_AT_type(*$C$DW$T$31)
    3785                      .dwattr $C$DW$342, DW_AT_location[DW_OP_reg16]
    3786              
    3787              ;* AR0   assigned to _Vb
    3788              $C$DW$343       .dwtag  DW_TAG_variable
    3789                      .dwattr $C$DW$343, DW_AT_name("Vb")
    3790                      .dwattr $C$DW$343, DW_AT_TI_symbol_name("_Vb")
    3791                      .dwattr $C$DW$343, DW_AT_type(*$C$DW$T$31)
    3792                      .dwattr $C$DW$343, DW_AT_location[DW_OP_reg4]
    3793              
    3794              ;* AR7   assigned to _Vc
    3795              $C$DW$344       .dwtag  DW_TAG_variable
    3796                      .dwattr $C$DW$344, DW_AT_name("Vc")
    3797                      .dwattr $C$DW$344, DW_AT_TI_symbol_name("_Vc")
    3798                      .dwattr $C$DW$344, DW_AT_type(*$C$DW$T$31)
    3799                      .dwattr $C$DW$344, DW_AT_location[DW_OP_reg18]
    3800              
    3801              ;* AR2   assigned to _angle_pu
    3802              $C$DW$345       .dwtag  DW_TAG_variable
    3803                      .dwattr $C$DW$345, DW_AT_name("angle_pu")
    3804                      .dwattr $C$DW$345, DW_AT_TI_symbol_name("_angle_pu")
    3805                      .dwattr $C$DW$345, DW_AT_type(*$C$DW$T$31)
    3806                      .dwattr $C$DW$345, DW_AT_location[DW_OP_reg8]
    3807              
    3808              ;* AR1   assigned to _refValue
    3809              $C$DW$346       .dwtag  DW_TAG_variable
    3810                      .dwattr $C$DW$346, DW_AT_name("refValue")
    3811                      .dwattr $C$DW$346, DW_AT_TI_symbol_name("_refValue")
    3812                      .dwattr $C$DW$346, DW_AT_type(*$C$DW$T$31)
    3813                      .dwattr $C$DW$346, DW_AT_location[DW_OP_reg6]
    3814              
    3815              ;* AR6   assigned to _fbackValue
    3816              $C$DW$347       .dwtag  DW_TAG_variable
    3817                      .dwattr $C$DW$347, DW_AT_name("fbackValue")
TMS320C2000 Assembler PC v15.12.3 Wed Nov 22 00:56:17 2017

Tools Copyright (c) 1996-2015 Texas Instruments Incorporated
C:\Users\wmj\AppData\Local\Temp\0070810                              PAGE   73

    3818                      .dwattr $C$DW$347, DW_AT_TI_symbol_name("_fbackValue")
    3819                      .dwattr $C$DW$347, DW_AT_type(*$C$DW$T$31)
    3820                      .dwattr $C$DW$347, DW_AT_location[DW_OP_reg16]
    3821              
    3822              ;* AR7   assigned to _outMax
    3823              $C$DW$348       .dwtag  DW_TAG_variable
    3824                      .dwattr $C$DW$348, DW_AT_name("outMax")
    3825                      .dwattr $C$DW$348, DW_AT_TI_symbol_name("_outMax")
    3826                      .dwattr $C$DW$348, DW_AT_type(*$C$DW$T$31)
    3827                      .dwattr $C$DW$348, DW_AT_location[DW_OP_reg18]
    3828              
    3829              ;* AL    assigned to _outMin
    3830              $C$DW$349       .dwtag  DW_TAG_variable
    3831                      .dwattr $C$DW$349, DW_AT_name("outMin")
    3832                      .dwattr $C$DW$349, DW_AT_TI_symbol_name("_outMin")
    3833                      .dwattr $C$DW$349, DW_AT_type(*$C$DW$T$31)
    3834                      .dwattr $C$DW$349, DW_AT_location[DW_OP_reg0]
    3835              
    3836              ;* AR1   assigned to _Kp_Id
    3837              $C$DW$350       .dwtag  DW_TAG_variable
    3838                      .dwattr $C$DW$350, DW_AT_name("Kp_Id")
    3839                      .dwattr $C$DW$350, DW_AT_TI_symbol_name("_Kp_Id")
    3840                      .dwattr $C$DW$350, DW_AT_type(*$C$DW$T$31)
    3841                      .dwattr $C$DW$350, DW_AT_location[DW_OP_reg6]
    3842              
    3843              $C$DW$351       .dwtag  DW_TAG_variable
    3844                      .dwattr $C$DW$351, DW_AT_name("Kp_Iq")
    3845                      .dwattr $C$DW$351, DW_AT_TI_symbol_name("_Kp_Iq")
    3846                      .dwattr $C$DW$351, DW_AT_type(*$C$DW$T$31)
    3847                      .dwattr $C$DW$351, DW_AT_location[DW_OP_breg20 -18]
    3848              
    3849              $C$DW$352       .dwtag  DW_TAG_variable
    3850                      .dwattr $C$DW$352, DW_AT_name("refValue")
    3851                      .dwattr $C$DW$352, DW_AT_TI_symbol_name("_refValue")
    3852                      .dwattr $C$DW$352, DW_AT_type(*$C$DW$T$31)
    3853                      .dwattr $C$DW$352, DW_AT_location[DW_OP_breg20 -8]
    3854              
    3855              ;* AR2   assigned to _maxVsMag
    3856              $C$DW$353       .dwtag  DW_TAG_variable
    3857                      .dwattr $C$DW$353, DW_AT_name("maxVsMag")
    3858                      .dwattr $C$DW$353, DW_AT_TI_symbol_name("_maxVsMag")
    3859                      .dwattr $C$DW$353, DW_AT_type(*$C$DW$T$31)
    3860                      .dwattr $C$DW$353, DW_AT_location[DW_OP_reg8]
    3861              
    3862              ;* AR6   assigned to _obj
    3863              $C$DW$354       .dwtag  DW_TAG_variable
    3864                      .dwattr $C$DW$354, DW_AT_name("obj")
    3865                      .dwattr $C$DW$354, DW_AT_TI_symbol_name("_obj")
    3866                      .dwattr $C$DW$354, DW_AT_type(*$C$DW$T$191)
    3867                      .dwattr $C$DW$354, DW_AT_location[DW_OP_reg16]
    3868              
    3869              ;* AR7   assigned to _obj
    3870              $C$DW$355       .dwtag  DW_TAG_variable
    3871                      .dwattr $C$DW$355, DW_AT_name("obj")
    3872                      .dwattr $C$DW$355, DW_AT_TI_symbol_name("_obj")
TMS320C2000 Assembler PC v15.12.3 Wed Nov 22 00:56:17 2017

Tools Copyright (c) 1996-2015 Texas Instruments Incorporated
C:\Users\wmj\AppData\Local\Temp\0070810                              PAGE   74

    3873                      .dwattr $C$DW$355, DW_AT_type(*$C$DW$T$224)
    3874                      .dwattr $C$DW$355, DW_AT_location[DW_OP_reg18]
    3875              
    3876              ;* AR6   assigned to _obj
    3877              $C$DW$356       .dwtag  DW_TAG_variable
    3878                      .dwattr $C$DW$356, DW_AT_name("obj")
    3879                      .dwattr $C$DW$356, DW_AT_TI_symbol_name("_obj")
    3880                      .dwattr $C$DW$356, DW_AT_type(*$C$DW$T$191)
    3881                      .dwattr $C$DW$356, DW_AT_location[DW_OP_reg16]
    3882              
    3883              ;* AR7   assigned to _obj
    3884              $C$DW$357       .dwtag  DW_TAG_variable
    3885                      .dwattr $C$DW$357, DW_AT_name("obj")
    3886                      .dwattr $C$DW$357, DW_AT_TI_symbol_name("_obj")
    3887                      .dwattr $C$DW$357, DW_AT_type(*$C$DW$T$224)
    3888                      .dwattr $C$DW$357, DW_AT_location[DW_OP_reg18]
    3889              
    3890              ;* AR6   assigned to _ctrlState
    3891              $C$DW$358       .dwtag  DW_TAG_variable
    3892                      .dwattr $C$DW$358, DW_AT_name("ctrlState")
    3893                      .dwattr $C$DW$358, DW_AT_TI_symbol_name("_ctrlState")
    3894                      .dwattr $C$DW$358, DW_AT_type(*$C$DW$T$42)
    3895                      .dwattr $C$DW$358, DW_AT_location[DW_OP_reg16]
    3896              
    3897              $C$DW$359       .dwtag  DW_TAG_variable
    3898                      .dwattr $C$DW$359, DW_AT_name("pPwmData")
    3899                      .dwattr $C$DW$359, DW_AT_TI_symbol_name("_pPwmData")
    3900                      .dwattr $C$DW$359, DW_AT_type(*$C$DW$T$206)
    3901                      .dwattr $C$DW$359, DW_AT_location[DW_OP_breg20 -22]
    3902              
    3903              ;* AR2   assigned to _pAdcData
    3904              $C$DW$360       .dwtag  DW_TAG_variable
    3905                      .dwattr $C$DW$360, DW_AT_name("pAdcData")
    3906                      .dwattr $C$DW$360, DW_AT_TI_symbol_name("_pAdcData")
    3907                      .dwattr $C$DW$360, DW_AT_type(*$C$DW$T$195)
    3908                      .dwattr $C$DW$360, DW_AT_location[DW_OP_reg8]
    3909              
    3910              ;* AR5   assigned to _halHandle
    3911              $C$DW$361       .dwtag  DW_TAG_variable
    3912                      .dwattr $C$DW$361, DW_AT_name("halHandle")
    3913                      .dwattr $C$DW$361, DW_AT_TI_symbol_name("_halHandle")
    3914                      .dwattr $C$DW$361, DW_AT_type(*$C$DW$T$202)
    3915                      .dwattr $C$DW$361, DW_AT_location[DW_OP_reg14]
    3916              
    3917              ;* AR3   assigned to _handle
    3918              $C$DW$362       .dwtag  DW_TAG_variable
    3919                      .dwattr $C$DW$362, DW_AT_name("handle")
    3920                      .dwattr $C$DW$362, DW_AT_TI_symbol_name("_handle")
    3921                      .dwattr $C$DW$362, DW_AT_type(*$C$DW$T$189)
    3922                      .dwattr $C$DW$362, DW_AT_location[DW_OP_reg10]
    3923              
    3924              ;* PL    assigned to _Vmax
    3925              $C$DW$363       .dwtag  DW_TAG_variable
    3926                      .dwattr $C$DW$363, DW_AT_name("Vmax")
    3927                      .dwattr $C$DW$363, DW_AT_TI_symbol_name("_Vmax")
TMS320C2000 Assembler PC v15.12.3 Wed Nov 22 00:56:17 2017

Tools Copyright (c) 1996-2015 Texas Instruments Incorporated
C:\Users\wmj\AppData\Local\Temp\0070810                              PAGE   75

    3928                      .dwattr $C$DW$363, DW_AT_type(*$C$DW$T$31)
    3929                      .dwattr $C$DW$363, DW_AT_location[DW_OP_reg2]
    3930              
    3931              ;* XT    assigned to _Vmin
    3932              $C$DW$364       .dwtag  DW_TAG_variable
    3933                      .dwattr $C$DW$364, DW_AT_name("Vmin")
    3934                      .dwattr $C$DW$364, DW_AT_TI_symbol_name("_Vmin")
    3935                      .dwattr $C$DW$364, DW_AT_type(*$C$DW$T$31)
    3936                      .dwattr $C$DW$364, DW_AT_location[DW_OP_reg21]
    3937              
    3938              ;* AR6   assigned to _fbackValue
    3939              $C$DW$365       .dwtag  DW_TAG_variable
    3940                      .dwattr $C$DW$365, DW_AT_name("fbackValue")
    3941                      .dwattr $C$DW$365, DW_AT_TI_symbol_name("_fbackValue")
    3942                      .dwattr $C$DW$365, DW_AT_type(*$C$DW$T$31)
    3943                      .dwattr $C$DW$365, DW_AT_location[DW_OP_reg16]
    3944              
    3945              $C$DW$366       .dwtag  DW_TAG_variable
    3946                      .dwattr $C$DW$366, DW_AT_name("fbackValue")
    3947                      .dwattr $C$DW$366, DW_AT_TI_symbol_name("_fbackValue")
    3948                      .dwattr $C$DW$366, DW_AT_type(*$C$DW$T$31)
    3949                      .dwattr $C$DW$366, DW_AT_location[DW_OP_breg20 -18]
    3950              
    3951              ;* AR6   assigned to _outMax
    3952              $C$DW$367       .dwtag  DW_TAG_variable
    3953                      .dwattr $C$DW$367, DW_AT_name("outMax")
    3954                      .dwattr $C$DW$367, DW_AT_TI_symbol_name("_outMax")
    3955                      .dwattr $C$DW$367, DW_AT_type(*$C$DW$T$31)
    3956                      .dwattr $C$DW$367, DW_AT_location[DW_OP_reg16]
    3957              
    3958              ;* PL    assigned to _Vmax
    3959              $C$DW$368       .dwtag  DW_TAG_variable
    3960                      .dwattr $C$DW$368, DW_AT_name("Vmax")
    3961                      .dwattr $C$DW$368, DW_AT_TI_symbol_name("_Vmax")
    3962                      .dwattr $C$DW$368, DW_AT_type(*$C$DW$T$31)
    3963                      .dwattr $C$DW$368, DW_AT_location[DW_OP_reg2]
    3964              
    3965              ;* XT    assigned to _Vmin
    3966              $C$DW$369       .dwtag  DW_TAG_variable
    3967                      .dwattr $C$DW$369, DW_AT_name("Vmin")
    3968                      .dwattr $C$DW$369, DW_AT_TI_symbol_name("_Vmin")
    3969                      .dwattr $C$DW$369, DW_AT_type(*$C$DW$T$31)
    3970                      .dwattr $C$DW$369, DW_AT_location[DW_OP_reg21]
    3971              
    3972              ;* AR7   assigned to _fbackValue
    3973              $C$DW$370       .dwtag  DW_TAG_variable
    3974                      .dwattr $C$DW$370, DW_AT_name("fbackValue")
    3975                      .dwattr $C$DW$370, DW_AT_TI_symbol_name("_fbackValue")
    3976                      .dwattr $C$DW$370, DW_AT_type(*$C$DW$T$31)
    3977                      .dwattr $C$DW$370, DW_AT_location[DW_OP_reg18]
    3978              
    3979              ;* AR6   assigned to _fbackValue
    3980              $C$DW$371       .dwtag  DW_TAG_variable
    3981                      .dwattr $C$DW$371, DW_AT_name("fbackValue")
    3982                      .dwattr $C$DW$371, DW_AT_TI_symbol_name("_fbackValue")
TMS320C2000 Assembler PC v15.12.3 Wed Nov 22 00:56:17 2017

Tools Copyright (c) 1996-2015 Texas Instruments Incorporated
C:\Users\wmj\AppData\Local\Temp\0070810                              PAGE   76

    3983                      .dwattr $C$DW$371, DW_AT_type(*$C$DW$T$31)
    3984                      .dwattr $C$DW$371, DW_AT_location[DW_OP_reg16]
    3985              
    3986              ;* AR3   assigned to _cnt
    3987              $C$DW$372       .dwtag  DW_TAG_variable
    3988                      .dwattr $C$DW$372, DW_AT_name("cnt")
    3989                      .dwattr $C$DW$372, DW_AT_TI_symbol_name("_cnt")
    3990                      .dwattr $C$DW$372, DW_AT_type(*$C$DW$T$35)
    3991                      .dwattr $C$DW$372, DW_AT_location[DW_OP_reg10]
    3992              
    3993              ;* AR3   assigned to _cnt
    3994              $C$DW$373       .dwtag  DW_TAG_variable
    3995                      .dwattr $C$DW$373, DW_AT_name("cnt")
    3996                      .dwattr $C$DW$373, DW_AT_TI_symbol_name("_cnt")
    3997                      .dwattr $C$DW$373, DW_AT_type(*$C$DW$T$35)
    3998                      .dwattr $C$DW$373, DW_AT_location[DW_OP_reg10]
    3999              
    4000              ;* AR1   assigned to $O$K113
    4001              ;* AR1   assigned to $O$K113
    4002              ;* AR5   assigned to $O$K153
    4003              ;* AR5   assigned to $O$K153
    4004              ;* AR4   assigned to $O$K389
    4005              ;* AR4   assigned to $O$K389
    4006              ;* AR4   assigned to $O$U469
    4007              ;* AR4   assigned to $O$U469
    4008              ;* AR4   assigned to $O$U469
    4009              $C$DW$374       .dwtag  DW_TAG_variable
    4010                      .dwattr $C$DW$374, DW_AT_name("phasor")
    4011                      .dwattr $C$DW$374, DW_AT_TI_symbol_name("_phasor")
    4012                      .dwattr $C$DW$374, DW_AT_type(*$C$DW$T$32)
    4013                      .dwattr $C$DW$374, DW_AT_location[DW_OP_breg20 -12]
    4014              
    4015              $C$DW$375       .dwtag  DW_TAG_variable
    4016                      .dwattr $C$DW$375, DW_AT_name("phasor")
    4017                      .dwattr $C$DW$375, DW_AT_TI_symbol_name("_phasor")
    4018                      .dwattr $C$DW$375, DW_AT_type(*$C$DW$T$32)
    4019                      .dwattr $C$DW$375, DW_AT_location[DW_OP_breg20 -16]
    4020              
    4021                      .dwcfi  cfa_offset, -2
    4022                      .dwcfi  save_reg_to_mem, 26, 0
    4023 0000000a B2BD          MOVL      *SP++,XAR1            ; [CPU_] 
    4024                      .dwcfi  save_reg_to_mem, 7, 2
    4025                      .dwcfi  cfa_offset, -4
    4026 0000000b AABD          MOVL      *SP++,XAR2            ; [CPU_] 
    4027                      .dwcfi  save_reg_to_mem, 9, 4
    4028                      .dwcfi  cfa_offset, -6
    4029 0000000c A2BD          MOVL      *SP++,XAR3            ; [CPU_] 
    4030                      .dwcfi  save_reg_to_mem, 11, 6
    4031                      .dwcfi  cfa_offset, -8
    4032 0000000d FE16          ADDB      SP,#22                ; [CPU_U] 
    4033                      .dwcfi  cfa_offset, -30
    4034                      .dwpsn  file "C:/Users/wmj/Desktop/BM1000_v1.1/sw/modules/ctrl/src/32b/ctrl.c",line 204,column 3,is_s
    4035 0000000e D09C          MOVB      XAR0,#156             ; [CPU_] |204| 
    4036                      .dwpsn  file "C:/Users/wmj/Desktop/BM1000_v1.1/sw/modules/ctrl/src/32b/ctrl.c",line 198,column 1,is_s
    4037 0000000f 82A4          MOVL      XAR3,XAR4             ; [CPU_] |198| 
TMS320C2000 Assembler PC v15.12.3 Wed Nov 22 00:56:17 2017

Tools Copyright (c) 1996-2015 Texas Instruments Incorporated
C:\Users\wmj\AppData\Local\Temp\0070810                              PAGE   77

    4038 00000010 0662          MOVL      ACC,*-SP[34]          ; [CPU_] |198| 
    4039 00000011 8660          MOVL      XAR2,*-SP[32]         ; [CPU_] |198| 
    4040 00000012 1E56          MOVL      *-SP[22],ACC          ; [CPU_] |198| 
    4041                      .dwpsn  file "C:/Users/wmj/Desktop/BM1000_v1.1/sw/modules/ctrl/src/32b/ctrl.c",line 204,column 3,is_s
    4042 00000013 9293          MOV       AL,*+XAR3[AR0]        ; [CPU_] |204| 
    4043 00000014 D0ED          MOVB      XAR0,#237             ; [CPU_] |204| 
    4044 00000015 5493          CMP       AL,*+XAR3[AR0]        ; [CPU_] |204| 
    4045 00000016 FFE6          B         $C$L84,HI             ; [CPU_] |204| 
         00000017 0511 
    4046                      ; branchcc occurs ; [] |204| 
    4047                      .dwpsn  file "C:/Users/wmj/Desktop/BM1000_v1.1/sw/modules/ctrl/src/32b/ctrl.h",line 1050,column 3,is_
    4048 00000018 A2A9          MOVL      ACC,XAR3              ; [CPU_] |1050| 
    4049                      .dwpsn  file "C:/Users/wmj/Desktop/BM1000_v1.1/sw/modules/ctrl/src/32b/ctrl.h",line 1124,column 3,is_
    4050 00000019 D0ED          MOVB      XAR0,#237             ; [CPU_] |1124| 
    4051                      .dwpsn  file "C:/Users/wmj/Desktop/BM1000_v1.1/sw/modules/ctrl/src/32b/ctrl.h",line 1050,column 3,is_
    4052 0000001a 099A          ADDB      ACC,#154              ; [CPU_] |1050| 
    4053 0000001b 8AA9          MOVL      XAR4,ACC              ; [CPU_] |1050| 
    4054                      .dwpsn  file "C:/Users/wmj/Desktop/BM1000_v1.1/sw/modules/ctrl/src/32b/ctrl.h",line 808,column 3,is_s
    4055 0000001c 88E3          MOVZ      AR6,*+XAR3[4]         ; [CPU_] |808| 
    4056                      .dwpsn  file "C:/Users/wmj/Desktop/BM1000_v1.1/sw/modules/ctrl/src/32b/ctrl.h",line 1124,column 3,is_
    4057 0000001d 56BF          MOVB      *+XAR3[AR0],#1,UNC    ; [CPU_] |1124| 
         0000001e 0193 
    4058                      .dwpsn  file "C:/Users/wmj/Desktop/BM1000_v1.1/sw/modules/ctrl/src/32b/ctrl.h",line 1050,column 3,is_
    4059 0000001f 0201          MOVB      ACC,#1                ; [CPU_] |1050| 
    4060 00000020 5601          ADDL      *+XAR4[0],ACC         ; [CPU_] |1050| 
         00000021 00C4 
    4061                      .dwpsn  file "C:/Users/wmj/Desktop/BM1000_v1.1/sw/modules/ctrl/src/32b/ctrl.h",line 1068,column 3,is_
    4062 00000022 A2A9          MOVL      ACC,XAR3              ; [CPU_] |1068| 
    4063 00000023 09EF          ADDB      ACC,#239              ; [CPU_] |1068| 
    4064 00000024 8AA9          MOVL      XAR4,ACC              ; [CPU_] |1068| 
    4065 00000025 92A6          MOV       AL,AR6                ; [CPU_] |1068| 
    4066 00000026 0AC4          INC       *+XAR4[0]             ; [CPU_] |1068| 
    4067                      .dwpsn  file "C:/Users/wmj/Desktop/BM1000_v1.1/sw/modules/ctrl/src/32b/ctrl.c",line 218,column 7,is_s
    4068 00000027 5203          CMPB      AL,#3                 ; [CPU_] |218| 
    4069 00000028 6170          B         $C$L39,EQ             ; [CPU_] |218| 
    4070                      ; branchcc occurs ; [] |218| 
    4071                      .dwpsn  file "C:/Users/wmj/Desktop/BM1000_v1.1/sw/modules/ctrl/src/32b/ctrl.c",line 239,column 12,is_
    4072 00000029 5202          CMPB      AL,#2                 ; [CPU_] |239| 
    4073 0000002a 6105          B         $C$L33,EQ             ; [CPU_] |239| 
    4074                      ; branchcc occurs ; [] |239| 
    4075                      .dwpsn  file "C:/Users/wmj/Desktop/BM1000_v1.1/sw/modules/ctrl/src/32b/ctrl.c",line 244,column 12,is_
    4076 0000002b 5201          CMPB      AL,#1                 ; [CPU_] |244| 
    4077 0000002c 610F          B         $C$L36,EQ             ; [CPU_] |244| 
    4078                      ; branchcc occurs ; [] |244| 
    4079 0000002d FFEF          B         $C$L85,UNC            ; [CPU_] |244| 
         0000002e 04FE 
    4080                      ; branch occurs ; [] |244| 
    4081 0000002f       $C$L33:    
    4082                      .dwpsn  file "C:/Users/wmj/Desktop/BM1000_v1.1/sw/modules/hal/boards/hvkit_rev1p1/f28x/f2802x/src/hal
    4083 0000002f D300          MOVB      XAR3,#0               ; [CPU_] |252| 
    4084 00000030 2901          CLRC      SXM                   ; [CPU_] 
    4085 00000031       $C$L34:    
    4086                      .dwpsn  file "C:/Users/wmj/Desktop/BM1000_v1.1/sw/modules/hal/boards/hvkit_rev1p1/f28x/f2802x/src/hal
    4087 00000031 D0B0          MOVB      XAR0,#176             ; [CPU_] |252| 
    4088 00000032 92A3          MOV       AL,AR3                ; [CPU_] |252| 
TMS320C2000 Assembler PC v15.12.3 Wed Nov 22 00:56:17 2017

Tools Copyright (c) 1996-2015 Texas Instruments Incorporated
C:\Users\wmj\AppData\Local\Temp\0070810                              PAGE   78

    4089 00000033 5495          CMP       AL,*+XAR5[AR0]        ; [CPU_] |252| 
    4090 00000034 6839          B         $C$L38,LO             ; [CPU_] |252| 
    4091                      ; branchcc occurs ; [] |252| 
    4092                      .dwpsn  file "C:/Users/wmj/Desktop/BM1000_v1.1/sw/modules/hal/boards/hvkit_rev1p1/f28x/f2802x/src/hal
    4093 00000035 D300          MOVB      XAR3,#0               ; [CPU_] |259| 
    4094 00000036 2901          CLRC      SXM                   ; [CPU_] 
    4095 00000037       $C$L35:    
    4096                      .dwpsn  file "C:/Users/wmj/Desktop/BM1000_v1.1/sw/modules/hal/boards/hvkit_rev1p1/f28x/f2802x/src/hal
    4097 00000037 D0B1          MOVB      XAR0,#177             ; [CPU_] |259| 
    4098 00000038 92A3          MOV       AL,AR3                ; [CPU_] |259| 
    4099 00000039 5495          CMP       AL,*+XAR5[AR0]        ; [CPU_] |259| 
    4100 0000003a 6808          B         $C$L37,LO             ; [CPU_] |259| 
    4101                      ; branchcc occurs ; [] |259| 
    4102 0000003b       $C$L36:    
    4103                      .dwpsn  file "C:/Users/wmj/Desktop/BM1000_v1.1/sw/modules/ctrl/src/32b/ctrl.h",line 2163,column 3,is_
    4104 0000003b 8A56          MOVL      XAR4,*-SP[22]         ; [CPU_] |2163| 
    4105 0000003c 0200          MOVB      ACC,#0                ; [CPU_] |2163| 
    4106 0000003d 1EC4          MOVL      *+XAR4[0],ACC         ; [CPU_] |2163| 
    4107                      .dwpsn  file "C:/Users/wmj/Desktop/BM1000_v1.1/sw/modules/ctrl/src/32b/ctrl.h",line 2164,column 3,is_
    4108 0000003e 1ED4          MOVL      *+XAR4[2],ACC         ; [CPU_] |2164| 
    4109                      .dwpsn  file "C:/Users/wmj/Desktop/BM1000_v1.1/sw/modules/ctrl/src/32b/ctrl.h",line 2165,column 3,is_
    4110 0000003f 1EE4          MOVL      *+XAR4[4],ACC         ; [CPU_] |2165| 
    4111                      .dwpsn  file "C:/Users/wmj/Desktop/BM1000_v1.1/sw/modules/ctrl/src/32b/ctrl.h",line 2167,column 3,is_
    4112 00000040 FFEF          B         $C$L85,UNC            ; [CPU_] |2167| 
         00000041 04EB 
    4113                      ; branch occurs ; [] |2167| 
    4114 00000042       $C$L37:    
    4115                      .dwpsn  file "C:/Users/wmj/Desktop/BM1000_v1.1/sw/modules/offset/src/32b/offset.h",line 139,column 19
    4116 00000042 8AA5          MOVL      XAR4,XAR5             ; [CPU_] |139| 
    4117 00000043 5603          MOV       ACC,AL << 1           ; [CPU_] |139| 
         00000044 01A9 
    4118 00000045 5601          ADDL      XAR4,ACC              ; [CPU_] |139| 
         00000046 00A4 
    4119 00000047 D040          MOVB      XAR0,#64              ; [CPU_] |139| 
    4120 00000048 C594          MOVL      XAR7,*+XAR4[AR0]      ; [CPU_] |139| 
    4121                      .dwpsn  file "C:/Users/wmj/Desktop/BM1000_v1.1/sw/modules/filter/src/32b/filter_fo.h",line 201,column
    4122 00000049 8AA2          MOVL      XAR4,XAR2             ; [CPU_] |201| 
    4123                      .dwpsn  file "C:/Users/wmj/Desktop/BM1000_v1.1/sw/modules/filter/src/32b/filter_fo.h",line 191,column
    4124 0000004a D00E          MOVB      XAR0,#14              ; [CPU_] |191| 
    4125 0000004b C497          MOVL      XAR6,*+XAR7[AR0]      ; [CPU_] |191| 
    4126                      .dwpsn  file "C:/Users/wmj/Desktop/BM1000_v1.1/sw/modules/filter/src/32b/filter_fo.h",line 201,column
    4127 0000004c 5601          ADDL      XAR4,ACC              ; [CPU_] |201| 
         0000004d 00A4 
    4128 0000004e 87D6          MOVL      XT,*+XAR6[2]          ; [CPU_] |201| 
    4129 0000004f 5605          IMPYL     P,XT,*+XAR4[6]        ; [CPU_] |201| 
         00000050 00F4 
    4130 00000051 5663          QMPYL     ACC,XT,*+XAR4[6]      ; [CPU_] |201| 
         00000052 00F4 
    4131 00000053 56A7          LSL64     ACC:P,#8              ; [CPU_] |201| 
    4132 00000054 87E6          MOVL      XT,*+XAR6[4]          ; [CPU_] |201| 
    4133 00000055 8EA9          MOVL      XAR0,ACC              ; [CPU_] |201| 
    4134 00000056 5605          IMPYL     P,XT,*+XAR6[6]        ; [CPU_] |201| 
         00000057 00F6 
    4135 00000058 5663          QMPYL     ACC,XT,*+XAR6[6]      ; [CPU_] |201| 
         00000059 00F6 
TMS320C2000 Assembler PC v15.12.3 Wed Nov 22 00:56:17 2017

Tools Copyright (c) 1996-2015 Texas Instruments Incorporated
C:\Users\wmj\AppData\Local\Temp\0070810                              PAGE   79

    4136 0000005a 56A7          LSL64     ACC:P,#8              ; [CPU_] |201| 
    4137 0000005b 87C6          MOVL      XT,*+XAR6[0]          ; [CPU_] |201| 
    4138 0000005c 07A0          ADDL      ACC,XAR0              ; [CPU_] |201| 
    4139 0000005d 8BA9          MOVL      XAR1,ACC              ; [CPU_] |201| 
    4140 0000005e D008          MOVB      XAR0,#8               ; [CPU_] |201| 
    4141 0000005f 5605          IMPYL     P,XT,*+XAR6[AR0]      ; [CPU_] |201| 
         00000060 0096 
    4142 00000061 5663          QMPYL     ACC,XT,*+XAR6[AR0]    ; [CPU_] |201| 
         00000062 0096 
    4143 00000063 56A7          LSL64     ACC:P,#8              ; [CPU_] |201| 
    4144                      .dwpsn  file "C:/Users/wmj/Desktop/BM1000_v1.1/sw/modules/filter/src/32b/filter_fo.h",line 206,column
    4145 00000064 A3F4          MOVL      P,*+XAR4[6]           ; [CPU_] |206| 
    4146                      .dwpsn  file "C:/Users/wmj/Desktop/BM1000_v1.1/sw/modules/filter/src/32b/filter_fo.h",line 201,column
    4147 00000065 5641          SUBL      XAR1,ACC              ; [CPU_] |201| 
         00000066 00A1 
    4148                      .dwpsn  file "C:/Users/wmj/Desktop/BM1000_v1.1/sw/modules/filter/src/32b/filter_fo.h",line 207,column
    4149 00000067 D008          MOVB      XAR0,#8               ; [CPU_] |207| 
    4150                      .dwpsn  file "C:/Users/wmj/Desktop/BM1000_v1.1/sw/modules/hal/boards/hvkit_rev1p1/f28x/f2802x/src/hal
    4151 00000068 DB01          ADDB      XAR3,#1               ; [CPU_] |259| 
    4152                      .dwpsn  file "C:/Users/wmj/Desktop/BM1000_v1.1/sw/modules/filter/src/32b/filter_fo.h",line 206,column
    4153 00000069 A9F6          MOVL      *+XAR6[6],P           ; [CPU_] |206| 
    4154                      .dwpsn  file "C:/Users/wmj/Desktop/BM1000_v1.1/sw/modules/filter/src/32b/filter_fo.h",line 207,column
    4155 0000006a B296          MOVL      *+XAR6[AR0],XAR1      ; [CPU_] |207| 
    4156                      .dwpsn  file "C:/Users/wmj/Desktop/BM1000_v1.1/sw/modules/offset/src/32b/offset.h",line 141,column 3,
    4157 0000006b B2C7          MOVL      *+XAR7[0],XAR1        ; [CPU_] |141| 
    4158                      .dwpsn  file "C:/Users/wmj/Desktop/BM1000_v1.1/sw/modules/hal/boards/hvkit_rev1p1/f28x/f2802x/src/hal
    4159 0000006c 6FCB          B         $C$L35,UNC            ; [CPU_] |259| 
    4160                      ; branch occurs ; [] |259| 
    4161 0000006d       $C$L38:    
    4162                      .dwpsn  file "C:/Users/wmj/Desktop/BM1000_v1.1/sw/modules/offset/src/32b/offset.h",line 139,column 19
    4163 0000006d 8AA5          MOVL      XAR4,XAR5             ; [CPU_] |139| 
    4164 0000006e 5603          MOV       ACC,AL << 1           ; [CPU_] |139| 
         0000006f 01A9 
    4165 00000070 5601          ADDL      XAR4,ACC              ; [CPU_] |139| 
         00000071 00A4 
    4166 00000072 D00A          MOVB      XAR0,#10              ; [CPU_] |139| 
    4167 00000073 C594          MOVL      XAR7,*+XAR4[AR0]      ; [CPU_] |139| 
    4168                      .dwpsn  file "C:/Users/wmj/Desktop/BM1000_v1.1/sw/modules/filter/src/32b/filter_fo.h",line 201,column
    4169 00000074 8AA2          MOVL      XAR4,XAR2             ; [CPU_] |201| 
    4170                      .dwpsn  file "C:/Users/wmj/Desktop/BM1000_v1.1/sw/modules/filter/src/32b/filter_fo.h",line 191,column
    4171 00000075 D00E          MOVB      XAR0,#14              ; [CPU_] |191| 
    4172 00000076 C497          MOVL      XAR6,*+XAR7[AR0]      ; [CPU_] |191| 
    4173                      .dwpsn  file "C:/Users/wmj/Desktop/BM1000_v1.1/sw/modules/filter/src/32b/filter_fo.h",line 201,column
    4174 00000077 5601          ADDL      XAR4,ACC              ; [CPU_] |201| 
         00000078 00A4 
    4175 00000079 87D6          MOVL      XT,*+XAR6[2]          ; [CPU_] |201| 
    4176 0000007a 5605          IMPYL     P,XT,*+XAR4[0]        ; [CPU_] |201| 
         0000007b 00C4 
    4177 0000007c 5663          QMPYL     ACC,XT,*+XAR4[0]      ; [CPU_] |201| 
         0000007d 00C4 
    4178 0000007e 56A7          LSL64     ACC:P,#8              ; [CPU_] |201| 
    4179 0000007f 87E6          MOVL      XT,*+XAR6[4]          ; [CPU_] |201| 
    4180 00000080 8EA9          MOVL      XAR0,ACC              ; [CPU_] |201| 
    4181 00000081 5605          IMPYL     P,XT,*+XAR6[6]        ; [CPU_] |201| 
         00000082 00F6 
TMS320C2000 Assembler PC v15.12.3 Wed Nov 22 00:56:17 2017

Tools Copyright (c) 1996-2015 Texas Instruments Incorporated
C:\Users\wmj\AppData\Local\Temp\0070810                              PAGE   80

    4182 00000083 5663          QMPYL     ACC,XT,*+XAR6[6]      ; [CPU_] |201| 
         00000084 00F6 
    4183 00000085 56A7          LSL64     ACC:P,#8              ; [CPU_] |201| 
    4184 00000086 87C6          MOVL      XT,*+XAR6[0]          ; [CPU_] |201| 
    4185 00000087 07A0          ADDL      ACC,XAR0              ; [CPU_] |201| 
    4186 00000088 8BA9          MOVL      XAR1,ACC              ; [CPU_] |201| 
    4187 00000089 D008          MOVB      XAR0,#8               ; [CPU_] |201| 
    4188 0000008a 5605          IMPYL     P,XT,*+XAR6[AR0]      ; [CPU_] |201| 
         0000008b 0096 
    4189 0000008c 5663          QMPYL     ACC,XT,*+XAR6[AR0]    ; [CPU_] |201| 
         0000008d 0096 
    4190 0000008e 56A7          LSL64     ACC:P,#8              ; [CPU_] |201| 
    4191                      .dwpsn  file "C:/Users/wmj/Desktop/BM1000_v1.1/sw/modules/filter/src/32b/filter_fo.h",line 206,column
    4192 0000008f A3C4          MOVL      P,*+XAR4[0]           ; [CPU_] |206| 
    4193                      .dwpsn  file "C:/Users/wmj/Desktop/BM1000_v1.1/sw/modules/filter/src/32b/filter_fo.h",line 201,column
    4194 00000090 5641          SUBL      XAR1,ACC              ; [CPU_] |201| 
         00000091 00A1 
    4195                      .dwpsn  file "C:/Users/wmj/Desktop/BM1000_v1.1/sw/modules/filter/src/32b/filter_fo.h",line 207,column
    4196 00000092 D008          MOVB      XAR0,#8               ; [CPU_] |207| 
    4197                      .dwpsn  file "C:/Users/wmj/Desktop/BM1000_v1.1/sw/modules/hal/boards/hvkit_rev1p1/f28x/f2802x/src/hal
    4198 00000093 DB01          ADDB      XAR3,#1               ; [CPU_] |252| 
    4199                      .dwpsn  file "C:/Users/wmj/Desktop/BM1000_v1.1/sw/modules/filter/src/32b/filter_fo.h",line 206,column
    4200 00000094 A9F6          MOVL      *+XAR6[6],P           ; [CPU_] |206| 
    4201                      .dwpsn  file "C:/Users/wmj/Desktop/BM1000_v1.1/sw/modules/filter/src/32b/filter_fo.h",line 207,column
    4202 00000095 B296          MOVL      *+XAR6[AR0],XAR1      ; [CPU_] |207| 
    4203                      .dwpsn  file "C:/Users/wmj/Desktop/BM1000_v1.1/sw/modules/offset/src/32b/offset.h",line 141,column 3,
    4204 00000096 B2C7          MOVL      *+XAR7[0],XAR1        ; [CPU_] |141| 
    4205                      .dwpsn  file "C:/Users/wmj/Desktop/BM1000_v1.1/sw/modules/hal/boards/hvkit_rev1p1/f28x/f2802x/src/hal
    4206 00000097 6F9A          B         $C$L34,UNC            ; [CPU_] |252| 
    4207                      ; branch occurs ; [] |252| 
    4208 00000098       $C$L39:    
    4209                      .dwpsn  file "C:/Users/wmj/Desktop/BM1000_v1.1/sw/modules/ctrl/src/32b/ctrl.h",line 996,column 3,is_s
    4210 00000098 A2A9          MOVL      ACC,XAR3              ; [CPU_] |996| 
    4211 00000099 09EC          ADDB      ACC,#236              ; [CPU_] |996| 
    4212 0000009a 8AA9          MOVL      XAR4,ACC              ; [CPU_] |996| 
    4213                      .dwpsn  file "C:/Users/wmj/Desktop/BM1000_v1.1/sw/modules/ctrl/src/32b/ctrl.h",line 1032,column 3,is_
    4214 0000009b A2A9          MOVL      ACC,XAR3              ; [CPU_] |1032| 
    4215                      .dwpsn  file "C:/Users/wmj/Desktop/BM1000_v1.1/sw/modules/ctrl/src/32b/ctrl.h",line 996,column 3,is_s
    4216 0000009c 0AC4          INC       *+XAR4[0]             ; [CPU_] |996| 
    4217                      .dwpsn  file "C:/Users/wmj/Desktop/BM1000_v1.1/sw/modules/ctrl/src/32b/ctrl.h",line 1032,column 3,is_
    4218 0000009d 09EE          ADDB      ACC,#238              ; [CPU_] |1032| 
    4219 0000009e 8AA9          MOVL      XAR4,ACC              ; [CPU_] |1032| 
    4220                      .dwpsn  file "C:/Users/wmj/Desktop/BM1000_v1.1/sw/modules/ctrl/src/32b/ctrl.c",line 228,column 11,is_
    4221 0000009f D018          MOVB      XAR0,#24              ; [CPU_] |228| 
    4222                      .dwpsn  file "C:/Users/wmj/Desktop/BM1000_v1.1/sw/modules/ctrl/src/32b/ctrl.h",line 1032,column 3,is_
    4223 000000a0 0AC4          INC       *+XAR4[0]             ; [CPU_] |1032| 
    4224                      .dwpsn  file "C:/Users/wmj/Desktop/BM1000_v1.1/sw/modules/ctrl/src/32b/ctrl.c",line 228,column 11,is_
    4225 000000a1 8A93          MOVL      XAR4,*+XAR3[AR0]      ; [CPU_] |228| 
    4226              $C$DW$376       .dwtag  DW_TAG_TI_branch
    4227                      .dwattr $C$DW$376, DW_AT_low_pc(0x00)
    4228                      .dwattr $C$DW$376, DW_AT_name("_EST_getState")
    4229                      .dwattr $C$DW$376, DW_AT_TI_call
    4230              
    4231 000000a2 7640!         LCR       #_EST_getState        ; [CPU_] |228| 
         000000a3 0000 
TMS320C2000 Assembler PC v15.12.3 Wed Nov 22 00:56:17 2017

Tools Copyright (c) 1996-2015 Texas Instruments Incorporated
C:\Users\wmj\AppData\Local\Temp\0070810                              PAGE   81

    4232                      ; call occurs [#_EST_getState] ; [] |228| 
    4233 000000a4 520C          CMPB      AL,#12                ; [CPU_] |228| 
    4234 000000a5 FFE7          B         $C$L57,HIS            ; [CPU_] |228| 
         000000a6 021E 
    4235                      ; branchcc occurs ; [] |228| 
    4236                      .dwpsn  file "C:/Users/wmj/Desktop/BM1000_v1.1/sw/modules/clarke/src/32b/clarke.h",line 125,column 16
    4237 000000a7 D008          MOVB      XAR0,#8               ; [CPU_] |125| 
    4238 000000a8 8A93          MOVL      XAR4,*+XAR3[AR0]      ; [CPU_] |125| 
    4239                      .dwpsn  file "C:/Users/wmj/Desktop/BM1000_v1.1/sw/modules/ctrl/src/32b/ctrl.h",line 2321,column 2,is_
    4240 000000a9 A2A9          MOVL      ACC,XAR3              ; [CPU_] |2321| 
    4241 000000aa 09AA          ADDB      ACC,#170              ; [CPU_] |2321| 
    4242 000000ab 8BA9          MOVL      XAR1,ACC              ; [CPU_] |2321| 
    4243                      .dwpsn  file "C:/Users/wmj/Desktop/BM1000_v1.1/sw/modules/clarke/src/32b/clarke.h",line 125,column 16
    4244 000000ac C5C4          MOVL      XAR7,*+XAR4[0]        ; [CPU_] |125| 
    4245                      .dwpsn  file "C:/Users/wmj/Desktop/BM1000_v1.1/sw/modules/clarke/src/32b/clarke.h",line 126,column 15
    4246 000000ad C4D4          MOVL      XAR6,*+XAR4[2]        ; [CPU_] |126| 
    4247                      .dwpsn  file "C:/Users/wmj/Desktop/BM1000_v1.1/sw/modules/clarke/src/32b/clarke.h",line 129,column 3,
    4248 000000ae 92E4          MOV       AL,*+XAR4[4]          ; [CPU_] |129| 
    4249 000000af 5203          CMPB      AL,#3                 ; [CPU_] |129| 
    4250 000000b0 610E          B         $C$L40,EQ             ; [CPU_] |129| 
    4251                      ; branchcc occurs ; [] |129| 
    4252                      .dwpsn  file "C:/Users/wmj/Desktop/BM1000_v1.1/sw/modules/clarke/src/32b/clarke.h",line 134,column 8,
    4253 000000b1 5202          CMPB      AL,#2                 ; [CPU_] |134| 
    4254 000000b2 6020          B         $C$L42,NEQ            ; [CPU_] |134| 
    4255                      ; branchcc occurs ; [] |134| 
    4256                      .dwpsn  file "C:/Users/wmj/Desktop/BM1000_v1.1/sw/modules/clarke/src/32b/clarke.h",line 136,column 7,
    4257 000000b3 87C2          MOVL      XT,*+XAR2[0]          ; [CPU_] |136| 
    4258 000000b4 5605          IMPYL     P,XT,XAR7             ; [CPU_] |136| 
         000000b5 00A7 
    4259 000000b6 5663          QMPYL     ACC,XT,XAR7           ; [CPU_] |136| 
         000000b7 00A7 
    4260 000000b8 56A7          LSL64     ACC:P,#8              ; [CPU_] |136| 
    4261 000000b9 1EC1          MOVL      *+XAR1[0],ACC         ; [CPU_] |136| 
    4262                      .dwpsn  file "C:/Users/wmj/Desktop/BM1000_v1.1/sw/modules/clarke/src/32b/clarke.h",line 137,column 7,
    4263 000000ba 06D2          MOVL      ACC,*+XAR2[2]         ; [CPU_] |137| 
    4264 000000bb FF30          LSL       ACC,1                 ; [CPU_] |137| 
    4265 000000bc 07C2          ADDL      ACC,*+XAR2[0]         ; [CPU_] |137| 
    4266 000000bd 6F0E          B         $C$L41,UNC            ; [CPU_] |137| 
    4267                      ; branch occurs ; [] |137| 
    4268 000000be       $C$L40:    
    4269                      .dwpsn  file "C:/Users/wmj/Desktop/BM1000_v1.1/sw/modules/clarke/src/32b/clarke.h",line 131,column 7,
    4270 000000be 06C2          MOVL      ACC,*+XAR2[0]         ; [CPU_] |131| 
    4271 000000bf FF30          LSL       ACC,1                 ; [CPU_] |131| 
    4272 000000c0 03D2          SUBL      ACC,*+XAR2[2]         ; [CPU_] |131| 
    4273 000000c1 03E2          SUBL      ACC,*+XAR2[4]         ; [CPU_] |131| 
    4274 000000c2 1EAC          MOVL      XT,ACC                ; [CPU_] |131| 
    4275 000000c3 5605          IMPYL     P,XT,XAR7             ; [CPU_] |131| 
         000000c4 00A7 
    4276 000000c5 5663          QMPYL     ACC,XT,XAR7           ; [CPU_] |131| 
         000000c6 00A7 
    4277 000000c7 56A7          LSL64     ACC:P,#8              ; [CPU_] |131| 
    4278 000000c8 1EC1          MOVL      *+XAR1[0],ACC         ; [CPU_] |131| 
    4279                      .dwpsn  file "C:/Users/wmj/Desktop/BM1000_v1.1/sw/modules/clarke/src/32b/clarke.h",line 132,column 7,
    4280 000000c9 06D2          MOVL      ACC,*+XAR2[2]         ; [CPU_] |132| 
    4281 000000ca 03E2          SUBL      ACC,*+XAR2[4]         ; [CPU_] |132| 
TMS320C2000 Assembler PC v15.12.3 Wed Nov 22 00:56:17 2017

Tools Copyright (c) 1996-2015 Texas Instruments Incorporated
C:\Users\wmj\AppData\Local\Temp\0070810                              PAGE   82

    4282 000000cb       $C$L41:    
    4283 000000cb 1EAC          MOVL      XT,ACC                ; [CPU_] |132| 
    4284 000000cc 5605          IMPYL     P,XT,XAR6             ; [CPU_] |132| 
         000000cd 00A6 
    4285 000000ce 5663          QMPYL     ACC,XT,XAR6           ; [CPU_] |132| 
         000000cf 00A6 
    4286 000000d0 56A7          LSL64     ACC:P,#8              ; [CPU_] |132| 
    4287 000000d1 1ED1          MOVL      *+XAR1[2],ACC         ; [CPU_] |132| 
    4288 000000d2       $C$L42:    
    4289                      .dwpsn  file "C:/Users/wmj/Desktop/BM1000_v1.1/sw/modules/clarke/src/32b/clarke.h",line 125,column 16
    4290 000000d2 D010          MOVB      XAR0,#16              ; [CPU_] |125| 
    4291                      .dwpsn  file "C:/Users/wmj/Desktop/BM1000_v1.1/sw/modules/ctrl/src/32b/ctrl.h",line 2325,column 2,is_
    4292 000000d3 A2A9          MOVL      ACC,XAR3              ; [CPU_] |2325| 
    4293                      .dwpsn  file "C:/Users/wmj/Desktop/BM1000_v1.1/sw/modules/clarke/src/32b/clarke.h",line 125,column 16
    4294 000000d4 C493          MOVL      XAR6,*+XAR3[AR0]      ; [CPU_] |125| 
    4295                      .dwpsn  file "C:/Users/wmj/Desktop/BM1000_v1.1/sw/modules/ctrl/src/32b/ctrl.h",line 2325,column 2,is_
    4296 000000d5 8AA2          MOVL      XAR4,XAR2             ; [CPU_] |2325| 
    4297 000000d6 09B6          ADDB      ACC,#182              ; [CPU_] |2325| 
    4298 000000d7 83A9          MOVL      XAR5,ACC              ; [CPU_] |2325| 
    4299                      .dwpsn  file "C:/Users/wmj/Desktop/BM1000_v1.1/sw/modules/clarke/src/32b/clarke.h",line 125,column 16
    4300 000000d8 C5C6          MOVL      XAR7,*+XAR6[0]        ; [CPU_] |125| 
    4301                      .dwpsn  file "C:/Users/wmj/Desktop/BM1000_v1.1/sw/modules/clarke/src/32b/clarke.h",line 126,column 15
    4302 000000d9 8ED6          MOVL      XAR0,*+XAR6[2]        ; [CPU_] |126| 
    4303                      .dwpsn  file "C:/Users/wmj/Desktop/BM1000_v1.1/sw/modules/ctrl/src/32b/ctrl.h",line 2325,column 2,is_
    4304 000000da DC06          ADDB      XAR4,#6               ; [CPU_] |2325| 
    4305                      .dwpsn  file "C:/Users/wmj/Desktop/BM1000_v1.1/sw/modules/clarke/src/32b/clarke.h",line 129,column 3,
    4306 000000db 92E6          MOV       AL,*+XAR6[4]          ; [CPU_] |129| 
    4307 000000dc 5203          CMPB      AL,#3                 ; [CPU_] |129| 
    4308 000000dd 610E          B         $C$L43,EQ             ; [CPU_] |129| 
    4309                      ; branchcc occurs ; [] |129| 
    4310                      .dwpsn  file "C:/Users/wmj/Desktop/BM1000_v1.1/sw/modules/clarke/src/32b/clarke.h",line 134,column 8,
    4311 000000de 5202          CMPB      AL,#2                 ; [CPU_] |134| 
    4312 000000df 6020          B         $C$L45,NEQ            ; [CPU_] |134| 
    4313                      ; branchcc occurs ; [] |134| 
    4314                      .dwpsn  file "C:/Users/wmj/Desktop/BM1000_v1.1/sw/modules/clarke/src/32b/clarke.h",line 136,column 7,
    4315 000000e0 87C4          MOVL      XT,*+XAR4[0]          ; [CPU_] |136| 
    4316 000000e1 5605          IMPYL     P,XT,XAR7             ; [CPU_] |136| 
         000000e2 00A7 
    4317 000000e3 5663          QMPYL     ACC,XT,XAR7           ; [CPU_] |136| 
         000000e4 00A7 
    4318 000000e5 56A7          LSL64     ACC:P,#8              ; [CPU_] |136| 
    4319 000000e6 1EC5          MOVL      *+XAR5[0],ACC         ; [CPU_] |136| 
    4320                      .dwpsn  file "C:/Users/wmj/Desktop/BM1000_v1.1/sw/modules/clarke/src/32b/clarke.h",line 137,column 7,
    4321 000000e7 06D4          MOVL      ACC,*+XAR4[2]         ; [CPU_] |137| 
    4322 000000e8 FF30          LSL       ACC,1                 ; [CPU_] |137| 
    4323 000000e9 07C4          ADDL      ACC,*+XAR4[0]         ; [CPU_] |137| 
    4324 000000ea 6F0E          B         $C$L44,UNC            ; [CPU_] |137| 
    4325                      ; branch occurs ; [] |137| 
    4326 000000eb       $C$L43:    
    4327                      .dwpsn  file "C:/Users/wmj/Desktop/BM1000_v1.1/sw/modules/clarke/src/32b/clarke.h",line 131,column 7,
    4328 000000eb 06C4          MOVL      ACC,*+XAR4[0]         ; [CPU_] |131| 
    4329 000000ec FF30          LSL       ACC,1                 ; [CPU_] |131| 
    4330 000000ed 03D4          SUBL      ACC,*+XAR4[2]         ; [CPU_] |131| 
    4331 000000ee 03E4          SUBL      ACC,*+XAR4[4]         ; [CPU_] |131| 
    4332 000000ef 1EAC          MOVL      XT,ACC                ; [CPU_] |131| 
TMS320C2000 Assembler PC v15.12.3 Wed Nov 22 00:56:17 2017

Tools Copyright (c) 1996-2015 Texas Instruments Incorporated
C:\Users\wmj\AppData\Local\Temp\0070810                              PAGE   83

    4333 000000f0 5605          IMPYL     P,XT,XAR7             ; [CPU_] |131| 
         000000f1 00A7 
    4334 000000f2 5663          QMPYL     ACC,XT,XAR7           ; [CPU_] |131| 
         000000f3 00A7 
    4335 000000f4 56A7          LSL64     ACC:P,#8              ; [CPU_] |131| 
    4336 000000f5 1EC5          MOVL      *+XAR5[0],ACC         ; [CPU_] |131| 
    4337                      .dwpsn  file "C:/Users/wmj/Desktop/BM1000_v1.1/sw/modules/clarke/src/32b/clarke.h",line 132,column 7,
    4338 000000f6 06D4          MOVL      ACC,*+XAR4[2]         ; [CPU_] |132| 
    4339 000000f7 03E4          SUBL      ACC,*+XAR4[4]         ; [CPU_] |132| 
    4340 000000f8       $C$L44:    
    4341 000000f8 1EAC          MOVL      XT,ACC                ; [CPU_] |132| 
    4342 000000f9 5605          IMPYL     P,XT,XAR0             ; [CPU_] |132| 
         000000fa 00A0 
    4343 000000fb 5663          QMPYL     ACC,XT,XAR0           ; [CPU_] |132| 
         000000fc 00A0 
    4344 000000fd 56A7          LSL64     ACC:P,#8              ; [CPU_] |132| 
    4345 000000fe 1ED5          MOVL      *+XAR5[2],ACC         ; [CPU_] |132| 
    4346 000000ff       $C$L45:    
    4347                      .dwpsn  file "C:/Users/wmj/Desktop/BM1000_v1.1/sw/modules/ctrl/src/32b/ctrl.h",line 2329,column 2,is_
    4348 000000ff A042          MOVL      *-SP[2],XAR5          ; [CPU_] |2329| 
    4349 00000100 D06C          MOVB      XAR0,#108             ; [CPU_] |2329| 
    4350 00000101 8A93          MOVL      XAR4,*+XAR3[AR0]      ; [CPU_] |2329| 
    4351 00000102 83A1          MOVL      XAR5,XAR1             ; [CPU_] |2329| 
    4352 00000103 D018          MOVB      XAR0,#24              ; [CPU_] |2329| 
    4353 00000104 06D4          MOVL      ACC,*+XAR4[2]         ; [CPU_] |2329| 
    4354 00000105 1E44          MOVL      *-SP[4],ACC           ; [CPU_] |2329| 
    4355 00000106 8A93          MOVL      XAR4,*+XAR3[AR0]      ; [CPU_] |2329| 
    4356 00000107 D00C          MOVB      XAR0,#12              ; [CPU_] |2329| 
    4357 00000108 0692          MOVL      ACC,*+XAR2[AR0]       ; [CPU_] |2329| 
    4358              $C$DW$377       .dwtag  DW_TAG_TI_branch
    4359                      .dwattr $C$DW$377, DW_AT_low_pc(0x00)
    4360                      .dwattr $C$DW$377, DW_AT_name("_EST_run")
    4361                      .dwattr $C$DW$377, DW_AT_TI_call
    4362              
    4363 00000109 7640!         LCR       #_EST_run             ; [CPU_] |2329| 
         0000010a 0000 
    4364                      ; call occurs [#_EST_run] ; [] |2329| 
    4365                      .dwpsn  file "C:/Users/wmj/Desktop/BM1000_v1.1/sw/modules/ctrl/src/32b/ctrl.h",line 2334,column 2,is_
    4366 0000010b D018          MOVB      XAR0,#24              ; [CPU_] |2334| 
    4367 0000010c 8A93          MOVL      XAR4,*+XAR3[AR0]      ; [CPU_] |2334| 
    4368              $C$DW$378       .dwtag  DW_TAG_TI_branch
    4369                      .dwattr $C$DW$378, DW_AT_low_pc(0x00)
    4370                      .dwattr $C$DW$378, DW_AT_name("_EST_getAngle_pu")
    4371                      .dwattr $C$DW$378, DW_AT_TI_call
    4372              
    4373 0000010d 7640!         LCR       #_EST_getAngle_pu     ; [CPU_] |2334| 
         0000010e 0000 
    4374                      ; call occurs [#_EST_getAngle_pu] ; [] |2334| 
    4375 0000010f 86A9          MOVL      XAR2,ACC              ; [CPU_] |2334| 
    4376                      .dwpsn  file "C:/Users/wmj/Desktop/BM1000_v1.1/sw/modules/ctrl/src/32b/ctrl.h",line 2109,column 3,is_
    4377              $C$DW$379       .dwtag  DW_TAG_TI_branch
    4378                      .dwattr $C$DW$379, DW_AT_low_pc(0x00)
    4379                      .dwattr $C$DW$379, DW_AT_name("__IQ24cosPU")
    4380                      .dwattr $C$DW$379, DW_AT_TI_call
    4381              
TMS320C2000 Assembler PC v15.12.3 Wed Nov 22 00:56:17 2017

Tools Copyright (c) 1996-2015 Texas Instruments Incorporated
C:\Users\wmj\AppData\Local\Temp\0070810                              PAGE   84

    4382 00000110 7640!         LCR       #__IQ24cosPU          ; [CPU_] |2109| 
         00000111 0000 
    4383                      ; call occurs [#__IQ24cosPU] ; [] |2109| 
    4384 00000112 1E4C          MOVL      *-SP[12],ACC          ; [CPU_] |2109| 
    4385                      .dwpsn  file "C:/Users/wmj/Desktop/BM1000_v1.1/sw/modules/ctrl/src/32b/ctrl.h",line 2110,column 3,is_
    4386 00000113 AAA9          MOVL      ACC,XAR2              ; [CPU_] |2110| 
    4387              $C$DW$380       .dwtag  DW_TAG_TI_branch
    4388                      .dwattr $C$DW$380, DW_AT_low_pc(0x00)
    4389                      .dwattr $C$DW$380, DW_AT_name("__IQ24sinPU")
    4390                      .dwattr $C$DW$380, DW_AT_TI_call
    4391              
    4392 00000114 7640!         LCR       #__IQ24sinPU          ; [CPU_] |2110| 
         00000115 0000 
    4393                      ; call occurs [#__IQ24sinPU] ; [] |2110| 
    4394                      .dwpsn  file "C:/Users/wmj/Desktop/BM1000_v1.1/sw/modules/park/src/32b/park.h",line 173,column 17,is_
    4395 00000116 D01A          MOVB      XAR0,#26              ; [CPU_] |173| 
    4396                      .dwpsn  file "C:/Users/wmj/Desktop/BM1000_v1.1/sw/modules/ctrl/src/32b/ctrl.h",line 2110,column 3,is_
    4397 00000117 1E4A          MOVL      *-SP[10],ACC          ; [CPU_] |2110| 
    4398                      .dwpsn  file "C:/Users/wmj/Desktop/BM1000_v1.1/sw/modules/park/src/32b/park.h",line 173,column 17,is_
    4399 00000118 8A93          MOVL      XAR4,*+XAR3[AR0]      ; [CPU_] |173| 
    4400                      .dwpsn  file "C:/Users/wmj/Desktop/BM1000_v1.1/sw/modules/park/src/32b/park.h",line 175,column 3,is_s
    4401 00000119 064C          MOVL      ACC,*-SP[12]          ; [CPU_] |175| 
    4402                      .dwpsn  file "C:/Users/wmj/Desktop/BM1000_v1.1/sw/modules/park/src/32b/park.h",line 141,column 13,is_
    4403 0000011a D01A          MOVB      XAR0,#26              ; [CPU_] |141| 
    4404                      .dwpsn  file "C:/Users/wmj/Desktop/BM1000_v1.1/sw/modules/park/src/32b/park.h",line 175,column 3,is_s
    4405 0000011b 1ED4          MOVL      *+XAR4[2],ACC         ; [CPU_] |175| 
    4406                      .dwpsn  file "C:/Users/wmj/Desktop/BM1000_v1.1/sw/modules/park/src/32b/park.h",line 176,column 3,is_s
    4407 0000011c 064A          MOVL      ACC,*-SP[10]          ; [CPU_] |176| 
    4408 0000011d 1EC4          MOVL      *+XAR4[0],ACC         ; [CPU_] |176| 
    4409                      .dwpsn  file "C:/Users/wmj/Desktop/BM1000_v1.1/sw/modules/park/src/32b/park.h",line 148,column 3,is_s
    4410 0000011e A2A9          MOVL      ACC,XAR3              ; [CPU_] |148| 
    4411                      .dwpsn  file "C:/Users/wmj/Desktop/BM1000_v1.1/sw/modules/park/src/32b/park.h",line 141,column 13,is_
    4412 0000011f 8A93          MOVL      XAR4,*+XAR3[AR0]      ; [CPU_] |141| 
    4413                      .dwpsn  file "C:/Users/wmj/Desktop/BM1000_v1.1/sw/modules/park/src/32b/park.h",line 148,column 3,is_s
    4414 00000120 09B2          ADDB      ACC,#178              ; [CPU_] |148| 
    4415                      .dwpsn  file "C:/Users/wmj/Desktop/BM1000_v1.1/sw/modules/park/src/32b/park.h",line 144,column 15,is_
    4416 00000121 8EC1          MOVL      XAR0,*+XAR1[0]        ; [CPU_] |144| 
    4417                      .dwpsn  file "C:/Users/wmj/Desktop/BM1000_v1.1/sw/modules/park/src/32b/park.h",line 145,column 15,is_
    4418 00000122 83D1          MOVL      XAR5,*+XAR1[2]        ; [CPU_] |145| 
    4419                      .dwpsn  file "C:/Users/wmj/Desktop/BM1000_v1.1/sw/modules/park/src/32b/park.h",line 142,column 13,is_
    4420 00000123 C5D4          MOVL      XAR7,*+XAR4[2]        ; [CPU_] |142| 
    4421                      .dwpsn  file "C:/Users/wmj/Desktop/BM1000_v1.1/sw/modules/park/src/32b/park.h",line 141,column 13,is_
    4422 00000124 C4C4          MOVL      XAR6,*+XAR4[0]        ; [CPU_] |141| 
    4423                      .dwpsn  file "C:/Users/wmj/Desktop/BM1000_v1.1/sw/modules/park/src/32b/park.h",line 148,column 3,is_s
    4424 00000125 3AAC          MOVL      XT,XAR0               ; [CPU_] |148| 
    4425 00000126 8AA9          MOVL      XAR4,ACC              ; [CPU_] |148| 
    4426 00000127 5605          IMPYL     P,XT,XAR7             ; [CPU_] |148| 
         00000128 00A7 
    4427 00000129 5663          QMPYL     ACC,XT,XAR7           ; [CPU_] |148| 
         0000012a 00A7 
    4428 0000012b 56A7          LSL64     ACC:P,#8              ; [CPU_] |148| 
    4429 0000012c A0AC          MOVL      XT,XAR5               ; [CPU_] |148| 
    4430 0000012d 86A9          MOVL      XAR2,ACC              ; [CPU_] |148| 
    4431 0000012e 5605          IMPYL     P,XT,XAR6             ; [CPU_] |148| 
         0000012f 00A6 
TMS320C2000 Assembler PC v15.12.3 Wed Nov 22 00:56:17 2017

Tools Copyright (c) 1996-2015 Texas Instruments Incorporated
C:\Users\wmj\AppData\Local\Temp\0070810                              PAGE   85

    4432 00000130 5663          QMPYL     ACC,XT,XAR6           ; [CPU_] |148| 
         00000131 00A6 
    4433 00000132 56A7          LSL64     ACC:P,#8              ; [CPU_] |148| 
    4434 00000133 3AAC          MOVL      XT,XAR0               ; [CPU_] |148| 
    4435 00000134 07A2          ADDL      ACC,XAR2              ; [CPU_] |148| 
    4436                      .dwpsn  file "C:/Users/wmj/Desktop/BM1000_v1.1/sw/modules/ctrl/src/32b/ctrl.h",line 2350,column 2,is_
    4437 00000135 D018          MOVB      XAR0,#24              ; [CPU_] |2350| 
    4438                      .dwpsn  file "C:/Users/wmj/Desktop/BM1000_v1.1/sw/modules/park/src/32b/park.h",line 149,column 3,is_s
    4439 00000136 5605          IMPYL     P,XT,XAR6             ; [CPU_] |149| 
         00000137 00A6 
    4440                      .dwpsn  file "C:/Users/wmj/Desktop/BM1000_v1.1/sw/modules/park/src/32b/park.h",line 148,column 3,is_s
    4441 00000138 1EC4          MOVL      *+XAR4[0],ACC         ; [CPU_] |148| 
    4442                      .dwpsn  file "C:/Users/wmj/Desktop/BM1000_v1.1/sw/modules/park/src/32b/park.h",line 149,column 3,is_s
    4443 00000139 5663          QMPYL     ACC,XT,XAR6           ; [CPU_] |149| 
         0000013a 00A6 
    4444 0000013b 56A7          LSL64     ACC:P,#8              ; [CPU_] |149| 
    4445 0000013c A0AC          MOVL      XT,XAR5               ; [CPU_] |149| 
    4446 0000013d 1EA6          MOVL      XAR6,ACC              ; [CPU_] |149| 
    4447 0000013e 5605          IMPYL     P,XT,XAR7             ; [CPU_] |149| 
         0000013f 00A7 
    4448 00000140 5663          QMPYL     ACC,XT,XAR7           ; [CPU_] |149| 
         00000141 00A7 
    4449 00000142 56A7          LSL64     ACC:P,#8              ; [CPU_] |149| 
    4450 00000143 03A6          SUBL      ACC,XAR6              ; [CPU_] |149| 
    4451 00000144 1ED4          MOVL      *+XAR4[2],ACC         ; [CPU_] |149| 
    4452                      .dwpsn  file "C:/Users/wmj/Desktop/BM1000_v1.1/sw/modules/ctrl/src/32b/ctrl.h",line 2350,column 2,is_
    4453 00000145 8A93          MOVL      XAR4,*+XAR3[AR0]      ; [CPU_] |2350| 
    4454              $C$DW$381       .dwtag  DW_TAG_TI_branch
    4455                      .dwattr $C$DW$381, DW_AT_low_pc(0x00)
    4456                      .dwattr $C$DW$381, DW_AT_name("_EST_doSpeedCtrl")
    4457                      .dwattr $C$DW$381, DW_AT_TI_call
    4458              
    4459 00000146 7640!         LCR       #_EST_doSpeedCtrl     ; [CPU_] |2350| 
         00000147 0000 
    4460                      ; call occurs [#_EST_doSpeedCtrl] ; [] |2350| 
    4461 00000148 5200          CMPB      AL,#0                 ; [CPU_] |2350| 
    4462 00000149 6145          B         $C$L46,EQ             ; [CPU_] |2350| 
    4463                      ; branchcc occurs ; [] |2350| 
    4464                      .dwpsn  file "C:/Users/wmj/Desktop/BM1000_v1.1/sw/modules/ctrl/src/32b/ctrl.h",line 2141,column 3,is_
    4465 0000014a D09E          MOVB      XAR0,#158             ; [CPU_] |2141| 
    4466 0000014b 9293          MOV       AL,*+XAR3[AR0]        ; [CPU_] |2141| 
    4467 0000014c D0EE          MOVB      XAR0,#238             ; [CPU_] |2141| 
    4468 0000014d 5493          CMP       AL,*+XAR3[AR0]        ; [CPU_] |2141| 
    4469 0000014e 6646          B         $C$L47,HI             ; [CPU_] |2141| 
    4470                      ; branchcc occurs ; [] |2141| 
    4471                      .dwpsn  file "C:/Users/wmj/Desktop/BM1000_v1.1/sw/modules/traj/src/32b/traj.h",line 96,column 3,is_st
    4472 0000014f D06C          MOVB      XAR0,#108             ; [CPU_] |96| 
    4473 00000150 8A93          MOVL      XAR4,*+XAR3[AR0]      ; [CPU_] |96| 
    4474                      .dwpsn  file "C:/Users/wmj/Desktop/BM1000_v1.1/sw/modules/ctrl/src/32b/ctrl.h",line 2355,column 25,is
    4475 00000151 D018          MOVB      XAR0,#24              ; [CPU_] |2355| 
    4476                      .dwpsn  file "C:/Users/wmj/Desktop/BM1000_v1.1/sw/modules/traj/src/32b/traj.h",line 96,column 3,is_st
    4477 00000152 8BD4          MOVL      XAR1,*+XAR4[2]        ; [CPU_] |96| 
    4478                      .dwpsn  file "C:/Users/wmj/Desktop/BM1000_v1.1/sw/modules/ctrl/src/32b/ctrl.h",line 2355,column 25,is
    4479 00000153 8A93          MOVL      XAR4,*+XAR3[AR0]      ; [CPU_] |2355| 
    4480              $C$DW$382       .dwtag  DW_TAG_TI_branch
TMS320C2000 Assembler PC v15.12.3 Wed Nov 22 00:56:17 2017

Tools Copyright (c) 1996-2015 Texas Instruments Incorporated
C:\Users\wmj\AppData\Local\Temp\0070810                              PAGE   86

    4481                      .dwattr $C$DW$382, DW_AT_low_pc(0x00)
    4482                      .dwattr $C$DW$382, DW_AT_name("_EST_getFm_pu")
    4483                      .dwattr $C$DW$382, DW_AT_TI_call
    4484              
    4485 00000154 7640!         LCR       #_EST_getFm_pu        ; [CPU_] |2355| 
         00000155 0000 
    4486                      ; call occurs [#_EST_getFm_pu] ; [] |2355| 
    4487                      .dwpsn  file "C:/Users/wmj/Desktop/BM1000_v1.1/sw/modules/traj/src/32b/traj.h",line 96,column 3,is_st
    4488 00000156 D078          MOVB      XAR0,#120             ; [CPU_] |96| 
    4489 00000157 8A93          MOVL      XAR4,*+XAR3[AR0]      ; [CPU_] |96| 
    4490                      .dwpsn  file "C:/Users/wmj/Desktop/BM1000_v1.1/sw/modules/ctrl/src/32b/ctrl.h",line 2355,column 25,is
    4491 00000158 1EA6          MOVL      XAR6,ACC              ; [CPU_] |2355| 
    4492                      .dwpsn  file "C:/Users/wmj/Desktop/BM1000_v1.1/sw/modules/ctrl/src/32b/ctrl.h",line 1136,column 3,is_
    4493 00000159 D0EE          MOVB      XAR0,#238             ; [CPU_] |1136| 
    4494                      .dwpsn  file "C:/Users/wmj/Desktop/BM1000_v1.1/sw/modules/traj/src/32b/traj.h",line 96,column 3,is_st
    4495 0000015a C5D4          MOVL      XAR7,*+XAR4[2]        ; [CPU_] |96| 
    4496                      .dwpsn  file "C:/Users/wmj/Desktop/BM1000_v1.1/sw/modules/ctrl/src/32b/ctrl.h",line 2364,column 10,is
    4497 0000015b B2AB          MOVL      P,XAR1                ; [CPU_] |2364| 
    4498                      .dwpsn  file "C:/Users/wmj/Desktop/BM1000_v1.1/sw/modules/ctrl/src/32b/ctrl.h",line 1136,column 3,is_
    4499 0000015c 2B93          MOV       *+XAR3[AR0],#0        ; [CPU_] |1136| 
    4500                      .dwpsn  file "C:/Users/wmj/Desktop/BM1000_v1.1/sw/modules/pid/src/32b/pid.h",line 358,column 16,is_st
    4501 0000015d D044          MOVB      XAR0,#68              ; [CPU_] |358| 
    4502                      .dwpsn  file "C:/Users/wmj/Desktop/BM1000_v1.1/sw/modules/ctrl/src/32b/ctrl.h",line 2357,column 21,is
    4503 0000015e 06A7          MOVL      ACC,XAR7              ; [CPU_] |2357| 
    4504                      .dwpsn  file "C:/Users/wmj/Desktop/BM1000_v1.1/sw/modules/pid/src/32b/pid.h",line 358,column 16,is_st
    4505 0000015f 8A93          MOVL      XAR4,*+XAR3[AR0]      ; [CPU_] |358| 
    4506                      .dwpsn  file "C:/Users/wmj/Desktop/BM1000_v1.1/sw/modules/pid/src/32b/pid.h",line 270,column 3,is_stm
    4507 00000160 565D          SUBUL     P,XAR6                ; [CPU_] |270| 
         00000161 00A6 
    4508                      .dwpsn  file "C:/Users/wmj/Desktop/BM1000_v1.1/sw/modules/ctrl/src/32b/ctrl.h",line 2357,column 21,is
    4509 00000162 FF54          NEG       ACC                   ; [CPU_] |2357| 
    4510                      .dwpsn  file "C:/Users/wmj/Desktop/BM1000_v1.1/sw/modules/pid/src/32b/pid.h",line 360,column 3,is_stm
    4511 00000163 D00C          MOVB      XAR0,#12              ; [CPU_] |360| 
    4512 00000164 1E94          MOVL      *+XAR4[AR0],ACC       ; [CPU_] |360| 
    4513                      .dwpsn  file "C:/Users/wmj/Desktop/BM1000_v1.1/sw/modules/pid/src/32b/pid.h",line 361,column 3,is_stm
    4514 00000165 D00E          MOVB      XAR0,#14              ; [CPU_] |361| 
    4515 00000166 C394          MOVL      *+XAR4[AR0],XAR7      ; [CPU_] |361| 
    4516                      .dwpsn  file "C:/Users/wmj/Desktop/BM1000_v1.1/sw/modules/pid/src/32b/pid.h",line 262,column 16,is_st
    4517 00000167 D044          MOVB      XAR0,#68              ; [CPU_] |262| 
    4518 00000168 8A93          MOVL      XAR4,*+XAR3[AR0]      ; [CPU_] |262| 
    4519                      .dwpsn  file "C:/Users/wmj/Desktop/BM1000_v1.1/sw/modules/pid/src/32b/pid.h",line 270,column 3,is_stm
    4520 00000169 A9A0          MOVL      XAR0,P                ; [CPU_] |270| 
    4521                      .dwpsn  file "C:/Users/wmj/Desktop/BM1000_v1.1/sw/modules/ctrl/src/32b/ctrl.h",line 2364,column 10,is
    4522 0000016a 83A1          MOVL      XAR5,XAR1             ; [CPU_] |2364| 
    4523                      .dwpsn  file "C:/Users/wmj/Desktop/BM1000_v1.1/sw/modules/pid/src/32b/pid.h",line 271,column 3,is_stm
    4524 0000016b D10E          MOVB      XAR1,#14              ; [CPU_] |271| 
    4525                      .dwpsn  file "C:/Users/wmj/Desktop/BM1000_v1.1/sw/modules/pid/src/32b/pid.h",line 270,column 3,is_stm
    4526 0000016c 87C4          MOVL      XT,*+XAR4[0]          ; [CPU_] |270| 
    4527 0000016d 5663          QMPYL     ACC,XT,XAR0           ; [CPU_] |270| 
         0000016e 00A0 
    4528 0000016f 5605          IMPYL     P,XT,XAR0             ; [CPU_] |270| 
         00000170 00A0 
    4529 00000171 56A7          LSL64     ACC:P,#8              ; [CPU_] |270| 
    4530                      .dwpsn  file "C:/Users/wmj/Desktop/BM1000_v1.1/sw/modules/pid/src/32b/pid.h",line 271,column 3,is_stm
    4531 00000172 87D4          MOVL      XT,*+XAR4[2]          ; [CPU_] |271| 
TMS320C2000 Assembler PC v15.12.3 Wed Nov 22 00:56:17 2017

Tools Copyright (c) 1996-2015 Texas Instruments Incorporated
C:\Users\wmj\AppData\Local\Temp\0070810                              PAGE   87

    4532                      .dwpsn  file "C:/Users/wmj/Desktop/BM1000_v1.1/sw/modules/pid/src/32b/pid.h",line 270,column 3,is_stm
    4533 00000173 1EA7          MOVL      XAR7,ACC              ; [CPU_] |270| 
    4534                      .dwpsn  file "C:/Users/wmj/Desktop/BM1000_v1.1/sw/modules/pid/src/32b/pid.h",line 271,column 3,is_stm
    4535 00000174 5605          IMPYL     P,XT,XAR0             ; [CPU_] |271| 
         00000175 00A0 
    4536 00000176 5663          QMPYL     ACC,XT,XAR0           ; [CPU_] |271| 
         00000177 00A0 
    4537 00000178 D00C          MOVB      XAR0,#12              ; [CPU_] |271| 
    4538 00000179 56A7          LSL64     ACC:P,#8              ; [CPU_] |271| 
    4539 0000017a 07F4          ADDL      ACC,*+XAR4[6]         ; [CPU_] |271| 
    4540 0000017b 5650          MINL      ACC,*+XAR4[AR1]       ; [CPU_] |271| 
         0000017c 009C 
    4541                      .dwpsn  file "C:/Users/wmj/Desktop/BM1000_v1.1/sw/modules/pid/src/32b/pid.h",line 277,column 3,is_stm
    4542 0000017d D10E          MOVB      XAR1,#14              ; [CPU_] |277| 
    4543                      .dwpsn  file "C:/Users/wmj/Desktop/BM1000_v1.1/sw/modules/pid/src/32b/pid.h",line 271,column 3,is_stm
    4544 0000017e 5661          MAXL      ACC,*+XAR4[AR0]       ; [CPU_] |271| 
         0000017f 0094 
    4545                      .dwpsn  file "C:/Users/wmj/Desktop/BM1000_v1.1/sw/modules/pid/src/32b/pid.h",line 274,column 3,is_stm
    4546 00000180 D008          MOVB      XAR0,#8               ; [CPU_] |274| 
    4547                      .dwpsn  file "C:/Users/wmj/Desktop/BM1000_v1.1/sw/modules/pid/src/32b/pid.h",line 273,column 3,is_stm
    4548 00000181 1EF4          MOVL      *+XAR4[6],ACC         ; [CPU_] |273| 
    4549                      .dwpsn  file "C:/Users/wmj/Desktop/BM1000_v1.1/sw/modules/pid/src/32b/pid.h",line 277,column 3,is_stm
    4550 00000182 07A7          ADDL      ACC,XAR7              ; [CPU_] |277| 
    4551                      .dwpsn  file "C:/Users/wmj/Desktop/BM1000_v1.1/sw/modules/pid/src/32b/pid.h",line 274,column 3,is_stm
    4552 00000183 A094          MOVL      *+XAR4[AR0],XAR5      ; [CPU_] |274| 
    4553                      .dwpsn  file "C:/Users/wmj/Desktop/BM1000_v1.1/sw/modules/pid/src/32b/pid.h",line 275,column 3,is_stm
    4554 00000184 D00A          MOVB      XAR0,#10              ; [CPU_] |275| 
    4555 00000185 C294          MOVL      *+XAR4[AR0],XAR6      ; [CPU_] |275| 
    4556                      .dwpsn  file "C:/Users/wmj/Desktop/BM1000_v1.1/sw/modules/pid/src/32b/pid.h",line 277,column 3,is_stm
    4557 00000186 D00C          MOVB      XAR0,#12              ; [CPU_] |277| 
    4558 00000187 5650          MINL      ACC,*+XAR4[AR1]       ; [CPU_] |277| 
         00000188 009C 
    4559 00000189 5661          MAXL      ACC,*+XAR4[AR0]       ; [CPU_] |277| 
         0000018a 0094 
    4560 0000018b D0BA          MOVB      XAR0,#186             ; [CPU_] |277| 
    4561 0000018c 1E93          MOVL      *+XAR3[AR0],ACC       ; [CPU_] |277| 
    4562                      .dwpsn  file "C:/Users/wmj/Desktop/BM1000_v1.1/sw/modules/pid/src/32b/pid.h",line 279,column 3,is_stm
    4563 0000018d 6F07          B         $C$L47,UNC            ; [CPU_] |279| 
    4564                      ; branch occurs ; [] |279| 
    4565 0000018e       $C$L46:    
    4566                      .dwpsn  file "C:/Users/wmj/Desktop/BM1000_v1.1/sw/modules/ctrl/src/32b/ctrl.h",line 1791,column 3,is_
    4567 0000018e D0BA          MOVB      XAR0,#186             ; [CPU_] |1791| 
    4568 0000018f 0200          MOVB      ACC,#0                ; [CPU_] |1791| 
    4569 00000190 1E93          MOVL      *+XAR3[AR0],ACC       ; [CPU_] |1791| 
    4570                      .dwpsn  file "C:/Users/wmj/Desktop/BM1000_v1.1/sw/modules/pid/src/32b/pid.h",line 413,column 3,is_stm
    4571 00000191 D044          MOVB      XAR0,#68              ; [CPU_] |413| 
    4572 00000192 8A93          MOVL      XAR4,*+XAR3[AR0]      ; [CPU_] |413| 
    4573 00000193 1EF4          MOVL      *+XAR4[6],ACC         ; [CPU_] |413| 
    4574 00000194       $C$L47:    
    4575                      .dwpsn  file "C:/Users/wmj/Desktop/BM1000_v1.1/sw/modules/ctrl/src/32b/ctrl.h",line 256,column 3,is_s
    4576 00000194 D0F6          MOVB      XAR0,#246             ; [CPU_] |256| 
    4577 00000195 9293          MOV       AL,*+XAR3[AR0]        ; [CPU_] |256| 
    4578 00000196 FFE1          B         $C$L54,EQ             ; [CPU_] |256| 
         00000197 00C9 
    4579                      ; branchcc occurs ; [] |256| 
TMS320C2000 Assembler PC v15.12.3 Wed Nov 22 00:56:17 2017

Tools Copyright (c) 1996-2015 Texas Instruments Incorporated
C:\Users\wmj\AppData\Local\Temp\0070810                              PAGE   88

    4580 00000198 D09D          MOVB      XAR0,#157             ; [CPU_] |256| 
    4581 00000199 9293          MOV       AL,*+XAR3[AR0]        ; [CPU_] |256| 
    4582 0000019a D0EC          MOVB      XAR0,#236             ; [CPU_] |256| 
    4583 0000019b 5493          CMP       AL,*+XAR3[AR0]        ; [CPU_] |256| 
    4584 0000019c FFE6          B         $C$L54,HI             ; [CPU_] |256| 
         0000019d 00C3 
    4585                      ; branchcc occurs ; [] |256| 
    4586                      .dwpsn  file "C:/Users/wmj/Desktop/BM1000_v1.1/sw/modules/ctrl/src/32b/ctrl.h",line 2378,column 2,is_
    4587 0000019e D018          MOVB      XAR0,#24              ; [CPU_] |2378| 
    4588 0000019f 8A93          MOVL      XAR4,*+XAR3[AR0]      ; [CPU_] |2378| 
    4589              $C$DW$383       .dwtag  DW_TAG_TI_branch
    4590                      .dwattr $C$DW$383, DW_AT_low_pc(0x00)
    4591                      .dwattr $C$DW$383, DW_AT_name("_EST_doCurrentCtrl")
    4592                      .dwattr $C$DW$383, DW_AT_TI_call
    4593              
    4594 000001a0 7640!         LCR       #_EST_doCurrentCtrl   ; [CPU_] |2378| 
         000001a1 0000 
    4595                      ; call occurs [#_EST_doCurrentCtrl] ; [] |2378| 
    4596 000001a2 5200          CMPB      AL,#0                 ; [CPU_] |2378| 
    4597 000001a3 FFE1          B         $C$L54,EQ             ; [CPU_] |2378| 
         000001a4 00BC 
    4598                      ; branchcc occurs ; [] |2378| 
    4599                      .dwpsn  file "C:/Users/wmj/Desktop/BM1000_v1.1/sw/modules/ctrl/src/32b/ctrl.h",line 554,column 3,is_s
    4600 000001a5 D0CA          MOVB      XAR0,#202             ; [CPU_] |554| 
    4601 000001a6 8B93          MOVL      XAR1,*+XAR3[AR0]      ; [CPU_] |554| 
    4602 000001a7 D0CC          MOVB      XAR0,#204             ; [CPU_] |554| 
    4603 000001a8 0693          MOVL      ACC,*+XAR3[AR0]       ; [CPU_] |554| 
    4604                      .dwpsn  file "C:/Users/wmj/Desktop/BM1000_v1.1/sw/modules/ctrl/src/32b/ctrl.h",line 582,column 3,is_s
    4605 000001a9 D0A8          MOVB      XAR0,#168             ; [CPU_] |582| 
    4606                      .dwpsn  file "C:/Users/wmj/Desktop/BM1000_v1.1/sw/modules/ctrl/src/32b/ctrl.h",line 554,column 3,is_s
    4607 000001aa 1E52          MOVL      *-SP[18],ACC          ; [CPU_] |554| 
    4608                      .dwpsn  file "C:/Users/wmj/Desktop/BM1000_v1.1/sw/modules/ctrl/src/32b/ctrl.h",line 582,column 3,is_s
    4609 000001ab 8693          MOVL      XAR2,*+XAR3[AR0]      ; [CPU_] |582| 
    4610                      .dwpsn  file "C:/Users/wmj/Desktop/BM1000_v1.1/sw/modules/ctrl/src/32b/ctrl.h",line 1112,column 3,is_
    4611 000001ac D0EC          MOVB      XAR0,#236             ; [CPU_] |1112| 
    4612 000001ad 2B93          MOV       *+XAR3[AR0],#0        ; [CPU_] |1112| 
    4613                      .dwpsn  file "C:/Users/wmj/Desktop/BM1000_v1.1/sw/modules/ctrl/src/32b/ctrl.h",line 267,column 3,is_s
    4614 000001ae D0F1          MOVB      XAR0,#241             ; [CPU_] |267| 
    4615 000001af 9293          MOV       AL,*+XAR3[AR0]        ; [CPU_] |267| 
    4616 000001b0 610C          B         $C$L48,EQ             ; [CPU_] |267| 
    4617                      ; branchcc occurs ; [] |267| 
    4618                      .dwpsn  file "C:/Users/wmj/Desktop/BM1000_v1.1/sw/modules/ctrl/src/32b/ctrl.h",line 2398,column 10,is
    4619 000001b1 D018          MOVB      XAR0,#24              ; [CPU_] |2398| 
    4620 000001b2 8A93          MOVL      XAR4,*+XAR3[AR0]      ; [CPU_] |2398| 
    4621              $C$DW$384       .dwtag  DW_TAG_TI_branch
    4622                      .dwattr $C$DW$384, DW_AT_low_pc(0x00)
    4623                      .dwattr $C$DW$384, DW_AT_name("_EST_getOneOverDcBus_pu")
    4624                      .dwattr $C$DW$384, DW_AT_TI_call
    4625              
    4626 000001b3 7640!         LCR       #_EST_getOneOverDcBus_pu ; [CPU_] |2398| 
         000001b4 0000 
    4627                      ; call occurs [#_EST_getOneOverDcBus_pu] ; [] |2398| 
    4628 000001b5 B2AC          MOVL      XT,XAR1               ; [CPU_] |2398| 
    4629 000001b6 5605          IMPYL     P,XT,ACC              ; [CPU_] |2398| 
         000001b7 00A9 
TMS320C2000 Assembler PC v15.12.3 Wed Nov 22 00:56:17 2017

Tools Copyright (c) 1996-2015 Texas Instruments Incorporated
C:\Users\wmj\AppData\Local\Temp\0070810                              PAGE   89

    4630 000001b8 5663          QMPYL     ACC,XT,ACC            ; [CPU_] |2398| 
         000001b9 00A9 
    4631 000001ba 56A7          LSL64     ACC:P,#8              ; [CPU_] |2398| 
    4632 000001bb 8BA9          MOVL      XAR1,ACC              ; [CPU_] |2398| 
    4633 000001bc       $C$L48:    
    4634                      .dwpsn  file "C:/Users/wmj/Desktop/BM1000_v1.1/sw/modules/ctrl/src/32b/ctrl.h",line 2407,column 6,is_
    4635 000001bc 5DAD          MOVZ      AR5,SP                ; [CPU_] |2407| 
    4636                      .dwpsn  file "C:/Users/wmj/Desktop/BM1000_v1.1/sw/modules/pid/src/32b/pid.h",line 346,column 3,is_stm
    4637 000001bd D020          MOVB      XAR0,#32              ; [CPU_] |346| 
    4638 000001be 8A93          MOVL      XAR4,*+XAR3[AR0]      ; [CPU_] |346| 
    4639                      .dwpsn  file "C:/Users/wmj/Desktop/BM1000_v1.1/sw/modules/ctrl/src/32b/ctrl.h",line 2404,column 6,is_
    4640 000001bf D060          MOVB      XAR0,#96              ; [CPU_] |2404| 
    4641                      .dwpsn  file "C:/Users/wmj/Desktop/BM1000_v1.1/sw/modules/ctrl/src/32b/ctrl.h",line 2407,column 6,is_
    4642 000001c0 DD88          SUBB      XAR5,#8               ; [CPU_U] |2407| 
    4643                      .dwpsn  file "C:/Users/wmj/Desktop/BM1000_v1.1/sw/modules/pid/src/32b/pid.h",line 346,column 3,is_stm
    4644 000001c1 B2C4          MOVL      *+XAR4[0],XAR1        ; [CPU_] |346| 
    4645                      .dwpsn  file "C:/Users/wmj/Desktop/BM1000_v1.1/sw/modules/ctrl/src/32b/ctrl.h",line 2407,column 6,is_
    4646 000001c2 5DA5          MOVZ      AR5,AR5               ; [CPU_] |2407| 
    4647                      .dwpsn  file "C:/Users/wmj/Desktop/BM1000_v1.1/sw/modules/ctrl/src/32b/ctrl.h",line 2404,column 6,is_
    4648 000001c3 8A93          MOVL      XAR4,*+XAR3[AR0]      ; [CPU_] |2404| 
    4649 000001c4 D0E2          MOVB      XAR0,#226             ; [CPU_] |2404| 
    4650 000001c5 0693          MOVL      ACC,*+XAR3[AR0]       ; [CPU_] |2404| 
    4651                      .dwpsn  file "C:/Users/wmj/Desktop/BM1000_v1.1/sw/modules/ctrl/src/32b/ctrl.h",line 2407,column 6,is_
    4652 000001c6 D018          MOVB      XAR0,#24              ; [CPU_] |2407| 
    4653                      .dwpsn  file "C:/Users/wmj/Desktop/BM1000_v1.1/sw/modules/ctrl/src/32b/ctrl.h",line 2404,column 6,is_
    4654 000001c7 07D4          ADDL      ACC,*+XAR4[2]         ; [CPU_] |2404| 
    4655 000001c8 1E48          MOVL      *-SP[8],ACC           ; [CPU_] |2404| 
    4656                      .dwpsn  file "C:/Users/wmj/Desktop/BM1000_v1.1/sw/modules/ctrl/src/32b/ctrl.h",line 2407,column 6,is_
    4657 000001c9 8A93          MOVL      XAR4,*+XAR3[AR0]      ; [CPU_] |2407| 
    4658              $C$DW$385       .dwtag  DW_TAG_TI_branch
    4659                      .dwattr $C$DW$385, DW_AT_low_pc(0x00)
    4660                      .dwattr $C$DW$385, DW_AT_name("_EST_updateId_ref_pu")
    4661                      .dwattr $C$DW$385, DW_AT_TI_call
    4662              
    4663 000001ca 7640!         LCR       #_EST_updateId_ref_pu ; [CPU_] |2407| 
         000001cb 0000 
    4664                      ; call occurs [#_EST_updateId_ref_pu] ; [] |2407| 
    4665                      .dwpsn  file "C:/Users/wmj/Desktop/BM1000_v1.1/sw/modules/ctrl/src/32b/ctrl.h",line 366,column 3,is_s
    4666 000001cc D0B2          MOVB      XAR0,#178             ; [CPU_] |366| 
    4667 000001cd C593          MOVL      XAR7,*+XAR3[AR0]      ; [CPU_] |366| 
    4668                      .dwpsn  file "C:/Users/wmj/Desktop/BM1000_v1.1/sw/modules/pid/src/32b/pid.h",line 358,column 16,is_st
    4669 000001ce D020          MOVB      XAR0,#32              ; [CPU_] |358| 
    4670 000001cf 8A93          MOVL      XAR4,*+XAR3[AR0]      ; [CPU_] |358| 
    4671                      .dwpsn  file "C:/Users/wmj/Desktop/BM1000_v1.1/sw/modules/pid/src/32b/pid.h",line 360,column 3,is_stm
    4672 000001d0 AAA9          MOVL      ACC,XAR2              ; [CPU_] |360| 
    4673 000001d1 FF54          NEG       ACC                   ; [CPU_] |360| 
    4674 000001d2 D00C          MOVB      XAR0,#12              ; [CPU_] |360| 
    4675 000001d3 1E94          MOVL      *+XAR4[AR0],ACC       ; [CPU_] |360| 
    4676                      .dwpsn  file "C:/Users/wmj/Desktop/BM1000_v1.1/sw/modules/pid/src/32b/pid.h",line 361,column 3,is_stm
    4677 000001d4 D00E          MOVB      XAR0,#14              ; [CPU_] |361| 
    4678 000001d5 AA94          MOVL      *+XAR4[AR0],XAR2      ; [CPU_] |361| 
    4679                      .dwpsn  file "C:/Users/wmj/Desktop/BM1000_v1.1/sw/modules/ctrl/src/32b/ctrl.h",line 2420,column 6,is_
    4680 000001d6 C448          MOVL      XAR6,*-SP[8]          ; [CPU_] |2420| 
    4681                      .dwpsn  file "C:/Users/wmj/Desktop/BM1000_v1.1/sw/modules/pid/src/32b/pid.h",line 233,column 16,is_st
    4682 000001d7 D020          MOVB      XAR0,#32              ; [CPU_] |233| 
TMS320C2000 Assembler PC v15.12.3 Wed Nov 22 00:56:17 2017

Tools Copyright (c) 1996-2015 Texas Instruments Incorporated
C:\Users\wmj\AppData\Local\Temp\0070810                              PAGE   90

    4683 000001d8 8A93          MOVL      XAR4,*+XAR3[AR0]      ; [CPU_] |233| 
    4684                      .dwpsn  file "C:/Users/wmj/Desktop/BM1000_v1.1/sw/modules/pid/src/32b/pid.h",line 242,column 3,is_stm
    4685 000001d9 06A6          MOVL      ACC,XAR6              ; [CPU_] |242| 
    4686 000001da 87C4          MOVL      XT,*+XAR4[0]          ; [CPU_] |242| 
    4687 000001db 03A7          SUBL      ACC,XAR7              ; [CPU_] |242| 
    4688 000001dc 5605          IMPYL     P,XT,ACC              ; [CPU_] |242| 
         000001dd 00A9 
    4689 000001de 5663          QMPYL     ACC,XT,ACC            ; [CPU_] |242| 
         000001df 00A9 
    4690 000001e0 56A7          LSL64     ACC:P,#8              ; [CPU_] |242| 
    4691 000001e1 83A9          MOVL      XAR5,ACC              ; [CPU_] |242| 
    4692                      .dwpsn  file "C:/Users/wmj/Desktop/BM1000_v1.1/sw/modules/pid/src/32b/pid.h",line 243,column 3,is_stm
    4693 000001e2 D10E          MOVB      XAR1,#14              ; [CPU_] |243| 
    4694 000001e3 D00C          MOVB      XAR0,#12              ; [CPU_] |243| 
    4695 000001e4 87D4          MOVL      XT,*+XAR4[2]          ; [CPU_] |243| 
    4696 000001e5 5605          IMPYL     P,XT,XAR5             ; [CPU_] |243| 
         000001e6 00A5 
    4697 000001e7 5663          QMPYL     ACC,XT,XAR5           ; [CPU_] |243| 
         000001e8 00A5 
    4698 000001e9 56A7          LSL64     ACC:P,#8              ; [CPU_] |243| 
    4699 000001ea 07F4          ADDL      ACC,*+XAR4[6]         ; [CPU_] |243| 
    4700 000001eb 5650          MINL      ACC,*+XAR4[AR1]       ; [CPU_] |243| 
         000001ec 009C 
    4701                      .dwpsn  file "C:/Users/wmj/Desktop/BM1000_v1.1/sw/modules/pid/src/32b/pid.h",line 249,column 3,is_stm
    4702 000001ed D10E          MOVB      XAR1,#14              ; [CPU_] |249| 
    4703                      .dwpsn  file "C:/Users/wmj/Desktop/BM1000_v1.1/sw/modules/pid/src/32b/pid.h",line 243,column 3,is_stm
    4704 000001ee 5661          MAXL      ACC,*+XAR4[AR0]       ; [CPU_] |243| 
         000001ef 0094 
    4705                      .dwpsn  file "C:/Users/wmj/Desktop/BM1000_v1.1/sw/modules/pid/src/32b/pid.h",line 246,column 3,is_stm
    4706 000001f0 D008          MOVB      XAR0,#8               ; [CPU_] |246| 
    4707                      .dwpsn  file "C:/Users/wmj/Desktop/BM1000_v1.1/sw/modules/pid/src/32b/pid.h",line 245,column 3,is_stm
    4708 000001f1 1EF4          MOVL      *+XAR4[6],ACC         ; [CPU_] |245| 
    4709                      .dwpsn  file "C:/Users/wmj/Desktop/BM1000_v1.1/sw/modules/pid/src/32b/pid.h",line 249,column 3,is_stm
    4710 000001f2 07A5          ADDL      ACC,XAR5              ; [CPU_] |249| 
    4711                      .dwpsn  file "C:/Users/wmj/Desktop/BM1000_v1.1/sw/modules/pid/src/32b/pid.h",line 246,column 3,is_stm
    4712 000001f3 C294          MOVL      *+XAR4[AR0],XAR6      ; [CPU_] |246| 
    4713                      .dwpsn  file "C:/Users/wmj/Desktop/BM1000_v1.1/sw/modules/pid/src/32b/pid.h",line 247,column 3,is_stm
    4714 000001f4 D00A          MOVB      XAR0,#10              ; [CPU_] |247| 
    4715 000001f5 C394          MOVL      *+XAR4[AR0],XAR7      ; [CPU_] |247| 
    4716                      .dwpsn  file "C:/Users/wmj/Desktop/BM1000_v1.1/sw/modules/pid/src/32b/pid.h",line 249,column 3,is_stm
    4717 000001f6 D00C          MOVB      XAR0,#12              ; [CPU_] |249| 
    4718 000001f7 5650          MINL      ACC,*+XAR4[AR1]       ; [CPU_] |249| 
         000001f8 009C 
    4719 000001f9 5661          MAXL      ACC,*+XAR4[AR0]       ; [CPU_] |249| 
         000001fa 0094 
    4720 000001fb D0C0          MOVB      XAR0,#192             ; [CPU_] |249| 
    4721 000001fc 1E93          MOVL      *+XAR3[AR0],ACC       ; [CPU_] |249| 
    4722                      .dwpsn  file "C:/Users/wmj/Desktop/BM1000_v1.1/sw/modules/ctrl/src/32b/ctrl.h",line 2423,column 6,is_
    4723 000001fd D018          MOVB      XAR0,#24              ; [CPU_] |2423| 
    4724 000001fe 06A6          MOVL      ACC,XAR6              ; [CPU_] |2423| 
    4725 000001ff 8A93          MOVL      XAR4,*+XAR3[AR0]      ; [CPU_] |2423| 
    4726              $C$DW$386       .dwtag  DW_TAG_TI_branch
    4727                      .dwattr $C$DW$386, DW_AT_low_pc(0x00)
    4728                      .dwattr $C$DW$386, DW_AT_name("_EST_setId_ref_pu")
    4729                      .dwattr $C$DW$386, DW_AT_TI_call
TMS320C2000 Assembler PC v15.12.3 Wed Nov 22 00:56:17 2017

Tools Copyright (c) 1996-2015 Texas Instruments Incorporated
C:\Users\wmj\AppData\Local\Temp\0070810                              PAGE   91

    4730              
    4731 00000200 7640!         LCR       #_EST_setId_ref_pu    ; [CPU_] |2423| 
         00000201 0000 
    4732                      ; call occurs [#_EST_setId_ref_pu] ; [] |2423| 
    4733                      .dwpsn  file "C:/Users/wmj/Desktop/BM1000_v1.1/sw/modules/ctrl/src/32b/ctrl.h",line 267,column 3,is_s
    4734 00000202 D0F1          MOVB      XAR0,#241             ; [CPU_] |267| 
    4735 00000203 9293          MOV       AL,*+XAR3[AR0]        ; [CPU_] |267| 
    4736 00000204 610C          B         $C$L49,EQ             ; [CPU_] |267| 
    4737                      ; branchcc occurs ; [] |267| 
    4738                      .dwpsn  file "C:/Users/wmj/Desktop/BM1000_v1.1/sw/modules/ctrl/src/32b/ctrl.h",line 2432,column 10,is
    4739 00000205 D018          MOVB      XAR0,#24              ; [CPU_] |2432| 
    4740 00000206 8A93          MOVL      XAR4,*+XAR3[AR0]      ; [CPU_] |2432| 
    4741              $C$DW$387       .dwtag  DW_TAG_TI_branch
    4742                      .dwattr $C$DW$387, DW_AT_low_pc(0x00)
    4743                      .dwattr $C$DW$387, DW_AT_name("_EST_getOneOverDcBus_pu")
    4744                      .dwattr $C$DW$387, DW_AT_TI_call
    4745              
    4746 00000207 7640!         LCR       #_EST_getOneOverDcBus_pu ; [CPU_] |2432| 
         00000208 0000 
    4747                      ; call occurs [#_EST_getOneOverDcBus_pu] ; [] |2432| 
    4748 00000209 8752          MOVL      XT,*-SP[18]           ; [CPU_] |2432| 
    4749 0000020a 5605          IMPYL     P,XT,ACC              ; [CPU_] |2432| 
         0000020b 00A9 
    4750 0000020c 5663          QMPYL     ACC,XT,ACC            ; [CPU_] |2432| 
         0000020d 00A9 
    4751 0000020e 56A7          LSL64     ACC:P,#8              ; [CPU_] |2432| 
    4752 0000020f 1E52          MOVL      *-SP[18],ACC          ; [CPU_] |2432| 
    4753 00000210       $C$L49:    
    4754                      .dwpsn  file "C:/Users/wmj/Desktop/BM1000_v1.1/sw/modules/pid/src/32b/pid.h",line 346,column 3,is_stm
    4755 00000210 D032          MOVB      XAR0,#50              ; [CPU_] |346| 
    4756 00000211 8A93          MOVL      XAR4,*+XAR3[AR0]      ; [CPU_] |346| 
    4757 00000212 0652          MOVL      ACC,*-SP[18]          ; [CPU_] |346| 
    4758                      .dwpsn  file "C:/Users/wmj/Desktop/BM1000_v1.1/sw/modules/ctrl/src/32b/ctrl.h",line 300,column 3,is_s
    4759 00000213 D0F4          MOVB      XAR0,#244             ; [CPU_] |300| 
    4760                      .dwpsn  file "C:/Users/wmj/Desktop/BM1000_v1.1/sw/modules/pid/src/32b/pid.h",line 346,column 3,is_stm
    4761 00000214 1EC4          MOVL      *+XAR4[0],ACC         ; [CPU_] |346| 
    4762                      .dwpsn  file "C:/Users/wmj/Desktop/BM1000_v1.1/sw/modules/ctrl/src/32b/ctrl.h",line 300,column 3,is_s
    4763 00000215 9293          MOV       AL,*+XAR3[AR0]        ; [CPU_] |300| 
    4764 00000216 610B          B         $C$L51,EQ             ; [CPU_] |300| 
    4765                      ; branchcc occurs ; [] |300| 
    4766                      .dwpsn  file "C:/Users/wmj/Desktop/BM1000_v1.1/sw/modules/ctrl/src/32b/ctrl.h",line 2042,column 3,is_
    4767 00000217 D018          MOVB      XAR0,#24              ; [CPU_] |2042| 
    4768 00000218 8A93          MOVL      XAR4,*+XAR3[AR0]      ; [CPU_] |2042| 
    4769              $C$DW$388       .dwtag  DW_TAG_TI_branch
    4770                      .dwattr $C$DW$388, DW_AT_low_pc(0x00)
    4771                      .dwattr $C$DW$388, DW_AT_name("_EST_useZeroIq_ref")
    4772                      .dwattr $C$DW$388, DW_AT_TI_call
    4773              
    4774 00000219 7640!         LCR       #_EST_useZeroIq_ref   ; [CPU_] |2042| 
         0000021a 0000 
    4775                      ; call occurs [#_EST_useZeroIq_ref] ; [] |2042| 
    4776 0000021b 5200          CMPB      AL,#0                 ; [CPU_] |2042| 
    4777 0000021c 6003          B         $C$L50,NEQ            ; [CPU_] |2042| 
    4778                      ; branchcc occurs ; [] |2042| 
    4779                      .dwpsn  file "C:/Users/wmj/Desktop/BM1000_v1.1/sw/modules/ctrl/src/32b/ctrl.h",line 764,column 3,is_s
TMS320C2000 Assembler PC v15.12.3 Wed Nov 22 00:56:17 2017

Tools Copyright (c) 1996-2015 Texas Instruments Incorporated
C:\Users\wmj\AppData\Local\Temp\0070810                              PAGE   92

    4780 0000021d D0BA          MOVB      XAR0,#186             ; [CPU_] |764| 
    4781 0000021e 6F04          B         $C$L52,UNC            ; [CPU_] |764| 
    4782                      ; branch occurs ; [] |764| 
    4783 0000021f       $C$L50:    
    4784                      .dwpsn  file "C:/Users/wmj/Desktop/BM1000_v1.1/sw/modules/ctrl/src/32b/ctrl.h",line 2446,column 14,is
    4785 0000021f 0200          MOVB      ACC,#0                ; [CPU_] |2446| 
    4786 00000220 6F03          B         $C$L53,UNC            ; [CPU_] |2446| 
    4787                      ; branch occurs ; [] |2446| 
    4788 00000221       $C$L51:    
    4789                      .dwpsn  file "C:/Users/wmj/Desktop/BM1000_v1.1/sw/modules/ctrl/src/32b/ctrl.h",line 455,column 3,is_s
    4790 00000221 D0E4          MOVB      XAR0,#228             ; [CPU_] |455| 
    4791 00000222       $C$L52:    
    4792 00000222 0693          MOVL      ACC,*+XAR3[AR0]       ; [CPU_] |455| 
    4793 00000223       $C$L53:    
    4794 00000223 1E48          MOVL      *-SP[8],ACC           ; [CPU_] |455| 
    4795                      .dwpsn  file "C:/Users/wmj/Desktop/BM1000_v1.1/sw/modules/ctrl/src/32b/ctrl.h",line 433,column 3,is_s
    4796 00000224 D0B4          MOVB      XAR0,#180             ; [CPU_] |433| 
    4797 00000225 C493          MOVL      XAR6,*+XAR3[AR0]      ; [CPU_] |433| 
    4798                      .dwpsn  file "C:/Users/wmj/Desktop/BM1000_v1.1/sw/modules/ctrl/src/32b/ctrl.h",line 2463,column 6,is_
    4799 00000226 D0C0          MOVB      XAR0,#192             ; [CPU_] |2463| 
    4800 00000227 0693          MOVL      ACC,*+XAR3[AR0]       ; [CPU_] |2463| 
    4801 00000228 FF56          ABS       ACC                   ; [CPU_] |2463| 
    4802 00000229 5641          SUBL      XAR2,ACC              ; [CPU_] |2463| 
         0000022a 00A2 
    4803                      .dwpsn  file "C:/Users/wmj/Desktop/BM1000_v1.1/sw/modules/pid/src/32b/pid.h",line 358,column 16,is_st
    4804 0000022b D032          MOVB      XAR0,#50              ; [CPU_] |358| 
    4805 0000022c 8A93          MOVL      XAR4,*+XAR3[AR0]      ; [CPU_] |358| 
    4806                      .dwpsn  file "C:/Users/wmj/Desktop/BM1000_v1.1/sw/modules/pid/src/32b/pid.h",line 360,column 3,is_stm
    4807 0000022d D00C          MOVB      XAR0,#12              ; [CPU_] |360| 
    4808 0000022e AAA9          MOVL      ACC,XAR2              ; [CPU_] |360| 
    4809 0000022f FF54          NEG       ACC                   ; [CPU_] |360| 
    4810 00000230 1E94          MOVL      *+XAR4[AR0],ACC       ; [CPU_] |360| 
    4811                      .dwpsn  file "C:/Users/wmj/Desktop/BM1000_v1.1/sw/modules/pid/src/32b/pid.h",line 361,column 3,is_stm
    4812 00000231 D00E          MOVB      XAR0,#14              ; [CPU_] |361| 
    4813 00000232 AA94          MOVL      *+XAR4[AR0],XAR2      ; [CPU_] |361| 
    4814                      .dwpsn  file "C:/Users/wmj/Desktop/BM1000_v1.1/sw/modules/pid/src/32b/pid.h",line 233,column 16,is_st
    4815 00000233 D032          MOVB      XAR0,#50              ; [CPU_] |233| 
    4816 00000234 8A93          MOVL      XAR4,*+XAR3[AR0]      ; [CPU_] |233| 
    4817                      .dwpsn  file "C:/Users/wmj/Desktop/BM1000_v1.1/sw/modules/pid/src/32b/pid.h",line 242,column 3,is_stm
    4818 00000235 0648          MOVL      ACC,*-SP[8]           ; [CPU_] |242| 
    4819 00000236 03A6          SUBL      ACC,XAR6              ; [CPU_] |242| 
    4820 00000237 87C4          MOVL      XT,*+XAR4[0]          ; [CPU_] |242| 
    4821 00000238 5605          IMPYL     P,XT,ACC              ; [CPU_] |242| 
         00000239 00A9 
    4822 0000023a 5663          QMPYL     ACC,XT,ACC            ; [CPU_] |242| 
         0000023b 00A9 
    4823 0000023c 56A7          LSL64     ACC:P,#8              ; [CPU_] |242| 
    4824 0000023d 1EA7          MOVL      XAR7,ACC              ; [CPU_] |242| 
    4825                      .dwpsn  file "C:/Users/wmj/Desktop/BM1000_v1.1/sw/modules/pid/src/32b/pid.h",line 243,column 3,is_stm
    4826 0000023e D10E          MOVB      XAR1,#14              ; [CPU_] |243| 
    4827 0000023f D00C          MOVB      XAR0,#12              ; [CPU_] |243| 
    4828 00000240 87D4          MOVL      XT,*+XAR4[2]          ; [CPU_] |243| 
    4829 00000241 5605          IMPYL     P,XT,XAR7             ; [CPU_] |243| 
         00000242 00A7 
    4830 00000243 5663          QMPYL     ACC,XT,XAR7           ; [CPU_] |243| 
TMS320C2000 Assembler PC v15.12.3 Wed Nov 22 00:56:17 2017

Tools Copyright (c) 1996-2015 Texas Instruments Incorporated
C:\Users\wmj\AppData\Local\Temp\0070810                              PAGE   93

         00000244 00A7 
    4831 00000245 56A7          LSL64     ACC:P,#8              ; [CPU_] |243| 
    4832 00000246 07F4          ADDL      ACC,*+XAR4[6]         ; [CPU_] |243| 
    4833 00000247 5650          MINL      ACC,*+XAR4[AR1]       ; [CPU_] |243| 
         00000248 009C 
    4834                      .dwpsn  file "C:/Users/wmj/Desktop/BM1000_v1.1/sw/modules/pid/src/32b/pid.h",line 249,column 3,is_stm
    4835 00000249 D10E          MOVB      XAR1,#14              ; [CPU_] |249| 
    4836                      .dwpsn  file "C:/Users/wmj/Desktop/BM1000_v1.1/sw/modules/pid/src/32b/pid.h",line 243,column 3,is_stm
    4837 0000024a 5661          MAXL      ACC,*+XAR4[AR0]       ; [CPU_] |243| 
         0000024b 0094 
    4838                      .dwpsn  file "C:/Users/wmj/Desktop/BM1000_v1.1/sw/modules/pid/src/32b/pid.h",line 246,column 3,is_stm
    4839 0000024c D008          MOVB      XAR0,#8               ; [CPU_] |246| 
    4840                      .dwpsn  file "C:/Users/wmj/Desktop/BM1000_v1.1/sw/modules/pid/src/32b/pid.h",line 245,column 3,is_stm
    4841 0000024d 1EF4          MOVL      *+XAR4[6],ACC         ; [CPU_] |245| 
    4842                      .dwpsn  file "C:/Users/wmj/Desktop/BM1000_v1.1/sw/modules/pid/src/32b/pid.h",line 246,column 3,is_stm
    4843 0000024e A348          MOVL      P,*-SP[8]             ; [CPU_] |246| 
    4844                      .dwpsn  file "C:/Users/wmj/Desktop/BM1000_v1.1/sw/modules/pid/src/32b/pid.h",line 249,column 3,is_stm
    4845 0000024f 07A7          ADDL      ACC,XAR7              ; [CPU_] |249| 
    4846                      .dwpsn  file "C:/Users/wmj/Desktop/BM1000_v1.1/sw/modules/pid/src/32b/pid.h",line 246,column 3,is_stm
    4847 00000250 A994          MOVL      *+XAR4[AR0],P         ; [CPU_] |246| 
    4848                      .dwpsn  file "C:/Users/wmj/Desktop/BM1000_v1.1/sw/modules/pid/src/32b/pid.h",line 247,column 3,is_stm
    4849 00000251 D00A          MOVB      XAR0,#10              ; [CPU_] |247| 
    4850 00000252 C294          MOVL      *+XAR4[AR0],XAR6      ; [CPU_] |247| 
    4851                      .dwpsn  file "C:/Users/wmj/Desktop/BM1000_v1.1/sw/modules/pid/src/32b/pid.h",line 249,column 3,is_stm
    4852 00000253 D00C          MOVB      XAR0,#12              ; [CPU_] |249| 
    4853 00000254 5650          MINL      ACC,*+XAR4[AR1]       ; [CPU_] |249| 
         00000255 009C 
    4854 00000256 5661          MAXL      ACC,*+XAR4[AR0]       ; [CPU_] |249| 
         00000257 0094 
    4855 00000258 D0C2          MOVB      XAR0,#194             ; [CPU_] |249| 
    4856 00000259 1E93          MOVL      *+XAR3[AR0],ACC       ; [CPU_] |249| 
    4857                      .dwpsn  file "C:/Users/wmj/Desktop/BM1000_v1.1/sw/modules/ctrl/src/32b/ctrl.h",line 2469,column 6,is_
    4858 0000025a D018          MOVB      XAR0,#24              ; [CPU_] |2469| 
    4859 0000025b 0648          MOVL      ACC,*-SP[8]           ; [CPU_] |2469| 
    4860 0000025c 8A93          MOVL      XAR4,*+XAR3[AR0]      ; [CPU_] |2469| 
    4861              $C$DW$389       .dwtag  DW_TAG_TI_branch
    4862                      .dwattr $C$DW$389, DW_AT_low_pc(0x00)
    4863                      .dwattr $C$DW$389, DW_AT_name("_EST_setIq_ref_pu")
    4864                      .dwattr $C$DW$389, DW_AT_TI_call
    4865              
    4866 0000025d 7640!         LCR       #_EST_setIq_ref_pu    ; [CPU_] |2469| 
         0000025e 0000 
    4867                      ; call occurs [#_EST_setIq_ref_pu] ; [] |2469| 
    4868 0000025f       $C$L54:    
    4869                      .dwpsn  file "C:/Users/wmj/Desktop/BM1000_v1.1/sw/modules/ipark/src/32b/ipark.h",line 173,column 18,i
    4870 0000025f D056          MOVB      XAR0,#86              ; [CPU_] |173| 
    4871 00000260 8A93          MOVL      XAR4,*+XAR3[AR0]      ; [CPU_] |173| 
    4872                      .dwpsn  file "C:/Users/wmj/Desktop/BM1000_v1.1/sw/modules/ipark/src/32b/ipark.h",line 175,column 3,is
    4873 00000261 064C          MOVL      ACC,*-SP[12]          ; [CPU_] |175| 
    4874                      .dwpsn  file "C:/Users/wmj/Desktop/BM1000_v1.1/sw/modules/ipark/src/32b/ipark.h",line 141,column 13,i
    4875 00000262 D056          MOVB      XAR0,#86              ; [CPU_] |141| 
    4876                      .dwpsn  file "C:/Users/wmj/Desktop/BM1000_v1.1/sw/modules/ipark/src/32b/ipark.h",line 175,column 3,is
    4877 00000263 1ED4          MOVL      *+XAR4[2],ACC         ; [CPU_] |175| 
    4878                      .dwpsn  file "C:/Users/wmj/Desktop/BM1000_v1.1/sw/modules/ipark/src/32b/ipark.h",line 176,column 3,is
    4879 00000264 064A          MOVL      ACC,*-SP[10]          ; [CPU_] |176| 
TMS320C2000 Assembler PC v15.12.3 Wed Nov 22 00:56:17 2017

Tools Copyright (c) 1996-2015 Texas Instruments Incorporated
C:\Users\wmj\AppData\Local\Temp\0070810                              PAGE   94

    4880 00000265 1EC4          MOVL      *+XAR4[0],ACC         ; [CPU_] |176| 
    4881                      .dwpsn  file "C:/Users/wmj/Desktop/BM1000_v1.1/sw/modules/ipark/src/32b/ipark.h",line 141,column 13,i
    4882 00000266 8A93          MOVL      XAR4,*+XAR3[AR0]      ; [CPU_] |141| 
    4883                      .dwpsn  file "C:/Users/wmj/Desktop/BM1000_v1.1/sw/modules/ipark/src/32b/ipark.h",line 144,column 15,i
    4884 00000267 A2A9          MOVL      ACC,XAR3              ; [CPU_] |144| 
    4885 00000268 09C0          ADDB      ACC,#192              ; [CPU_] |144| 
    4886                      .dwpsn  file "C:/Users/wmj/Desktop/BM1000_v1.1/sw/modules/ipark/src/32b/ipark.h",line 141,column 13,i
    4887 00000269 C5C4          MOVL      XAR7,*+XAR4[0]        ; [CPU_] |141| 
    4888                      .dwpsn  file "C:/Users/wmj/Desktop/BM1000_v1.1/sw/modules/ipark/src/32b/ipark.h",line 142,column 13,i
    4889 0000026a C4D4          MOVL      XAR6,*+XAR4[2]        ; [CPU_] |142| 
    4890                      .dwpsn  file "C:/Users/wmj/Desktop/BM1000_v1.1/sw/modules/ipark/src/32b/ipark.h",line 144,column 15,i
    4891 0000026b 8AA9          MOVL      XAR4,ACC              ; [CPU_] |144| 
    4892                      .dwpsn  file "C:/Users/wmj/Desktop/BM1000_v1.1/sw/modules/ipark/src/32b/ipark.h",line 148,column 3,is
    4893 0000026c A2A9          MOVL      ACC,XAR3              ; [CPU_] |148| 
    4894                      .dwpsn  file "C:/Users/wmj/Desktop/BM1000_v1.1/sw/modules/ipark/src/32b/ipark.h",line 145,column 15,i
    4895 0000026d 8ED4          MOVL      XAR0,*+XAR4[2]        ; [CPU_] |145| 
    4896                      .dwpsn  file "C:/Users/wmj/Desktop/BM1000_v1.1/sw/modules/ipark/src/32b/ipark.h",line 144,column 15,i
    4897 0000026e 83C4          MOVL      XAR5,*+XAR4[0]        ; [CPU_] |144| 
    4898 0000026f 3B01          SETC      SXM                   ; [CPU_] 
    4899                      .dwpsn  file "C:/Users/wmj/Desktop/BM1000_v1.1/sw/modules/ipark/src/32b/ipark.h",line 148,column 3,is
    4900 00000270 09BC          ADDB      ACC,#188              ; [CPU_] |148| 
    4901 00000271 3AAC          MOVL      XT,XAR0               ; [CPU_] |148| 
    4902 00000272 8AA9          MOVL      XAR4,ACC              ; [CPU_] |148| 
    4903 00000273 5605          IMPYL     P,XT,XAR7             ; [CPU_] |148| 
         00000274 00A7 
    4904 00000275 5663          QMPYL     ACC,XT,XAR7           ; [CPU_] |148| 
         00000276 00A7 
    4905 00000277 56A7          LSL64     ACC:P,#8              ; [CPU_] |148| 
    4906 00000278 A0AC          MOVL      XT,XAR5               ; [CPU_] |148| 
    4907 00000279 86A9          MOVL      XAR2,ACC              ; [CPU_] |148| 
    4908 0000027a 5605          IMPYL     P,XT,XAR6             ; [CPU_] |148| 
         0000027b 00A6 
    4909 0000027c 5663          QMPYL     ACC,XT,XAR6           ; [CPU_] |148| 
         0000027d 00A6 
    4910 0000027e 56A7          LSL64     ACC:P,#8              ; [CPU_] |148| 
    4911 0000027f 3AAC          MOVL      XT,XAR0               ; [CPU_] |148| 
    4912 00000280 03A2          SUBL      ACC,XAR2              ; [CPU_] |148| 
    4913                      .dwpsn  file "C:/Users/wmj/Desktop/BM1000_v1.1/sw/modules/ipark/src/32b/ipark.h",line 149,column 3,is
    4914 00000281 5605          IMPYL     P,XT,XAR6             ; [CPU_] |149| 
         00000282 00A6 
    4915                      .dwpsn  file "C:/Users/wmj/Desktop/BM1000_v1.1/sw/modules/svgen/src/32b/svgen.h",line 132,column 3,is
    4916 00000283 D0BC          MOVB      XAR0,#188             ; [CPU_] |132| 
    4917                      .dwpsn  file "C:/Users/wmj/Desktop/BM1000_v1.1/sw/modules/ipark/src/32b/ipark.h",line 148,column 3,is
    4918 00000284 1EC4          MOVL      *+XAR4[0],ACC         ; [CPU_] |148| 
    4919                      .dwpsn  file "C:/Users/wmj/Desktop/BM1000_v1.1/sw/modules/ipark/src/32b/ipark.h",line 149,column 3,is
    4920 00000285 5663          QMPYL     ACC,XT,XAR6           ; [CPU_] |149| 
         00000286 00A6 
    4921 00000287 56A7          LSL64     ACC:P,#8              ; [CPU_] |149| 
    4922 00000288 A0AC          MOVL      XT,XAR5               ; [CPU_] |149| 
    4923 00000289 1EA6          MOVL      XAR6,ACC              ; [CPU_] |149| 
    4924 0000028a 5605          IMPYL     P,XT,XAR7             ; [CPU_] |149| 
         0000028b 00A7 
    4925 0000028c 5663          QMPYL     ACC,XT,XAR7           ; [CPU_] |149| 
         0000028d 00A7 
    4926 0000028e 56A7          LSL64     ACC:P,#8              ; [CPU_] |149| 
TMS320C2000 Assembler PC v15.12.3 Wed Nov 22 00:56:17 2017

Tools Copyright (c) 1996-2015 Texas Instruments Incorporated
C:\Users\wmj\AppData\Local\Temp\0070810                              PAGE   95

    4927 0000028f 07A6          ADDL      ACC,XAR6              ; [CPU_] |149| 
    4928 00000290 1ED4          MOVL      *+XAR4[2],ACC         ; [CPU_] |149| 
    4929                      .dwpsn  file "C:/Users/wmj/Desktop/BM1000_v1.1/sw/modules/svgen/src/32b/svgen.h",line 133,column 3,is
    4930 00000291 28A9          MOV       AL,#46039             ; [CPU_] |133| 
         00000292 B3D7 
    4931 00000293 9BDD          MOV       AH,#221               ; [CPU_] |133| 
    4932 00000294 1EAC          MOVL      XT,ACC                ; [CPU_] |133| 
    4933                      .dwpsn  file "C:/Users/wmj/Desktop/BM1000_v1.1/sw/modules/svgen/src/32b/svgen.h",line 132,column 3,is
    4934 00000295 C493          MOVL      XAR6,*+XAR3[AR0]      ; [CPU_] |132| 
    4935                      .dwpsn  file "C:/Users/wmj/Desktop/BM1000_v1.1/sw/modules/ipark/src/32b/ipark.h",line 149,column 3,is
    4936 00000296 8356          MOVL      XAR5,*-SP[22]         ; [CPU_] |149| 
    4937                      .dwpsn  file "C:/Users/wmj/Desktop/BM1000_v1.1/sw/modules/svgen/src/32b/svgen.h",line 133,column 3,is
    4938 00000297 5605          IMPYL     P,XT,*+XAR4[2]        ; [CPU_] |133| 
         00000298 00D4 
    4939 00000299 5663          QMPYL     ACC,XT,*+XAR4[2]      ; [CPU_] |133| 
         0000029a 00D4 
    4940 0000029b 56A7          LSL64     ACC:P,#8              ; [CPU_] |133| 
    4941 0000029c 1EA7          MOVL      XAR7,ACC              ; [CPU_] |133| 
    4942 0000029d 06A6          MOVL      ACC,XAR6              ; [CPU_] |133| 
    4943 0000029e FF40          SFR       ACC,1                 ; [CPU_] |133| 
    4944 0000029f FF54          NEG       ACC                   ; [CPU_] |133| 
    4945 000002a0 FF5A          MOVL      P,ACC                 ; [CPU_] |133| 
    4946 000002a1 86A9          MOVL      XAR2,ACC              ; [CPU_] |133| 
    4947                      .dwpsn  file "C:/Users/wmj/Desktop/BM1000_v1.1/sw/modules/svgen/src/32b/svgen.h",line 134,column 3,is
    4948 000002a2 565D          SUBUL     P,XAR7                ; [CPU_] |134| 
         000002a3 00A7 
    4949                      .dwpsn  file "C:/Users/wmj/Desktop/BM1000_v1.1/sw/modules/svgen/src/32b/svgen.h",line 133,column 3,is
    4950 000002a4 06A7          MOVL      ACC,XAR7              ; [CPU_] |133| 
    4951                      .dwpsn  file "C:/Users/wmj/Desktop/BM1000_v1.1/sw/modules/svgen/src/32b/svgen.h",line 134,column 3,is
    4952 000002a5 A9A7          MOVL      XAR7,P                ; [CPU_] |134| 
    4953                      .dwpsn  file "C:/Users/wmj/Desktop/BM1000_v1.1/sw/modules/svgen/src/32b/svgen.h",line 133,column 3,is
    4954 000002a6 07A2          ADDL      ACC,XAR2              ; [CPU_] |133| 
    4955 000002a7 8EA9          MOVL      XAR0,ACC              ; [CPU_] |133| 
    4956                      .dwpsn  file "C:/Users/wmj/Desktop/BM1000_v1.1/sw/modules/svgen/src/32b/svgen.h",line 140,column 3,is
    4957 000002a8 28A9          MOV       AL,#46039             ; [CPU_] |140| 
         000002a9 B3D7 
    4958 000002aa 9BDD          MOV       AH,#221               ; [CPU_] |140| 
    4959 000002ab 1EAC          MOVL      XT,ACC                ; [CPU_] |140| 
    4960 000002ac 5605          IMPYL     P,XT,*+XAR4[2]        ; [CPU_] |140| 
         000002ad 00D4 
    4961 000002ae 5663          QMPYL     ACC,XT,*+XAR4[2]      ; [CPU_] |140| 
         000002af 00D4 
    4962 000002b0 56A7          LSL64     ACC:P,#8              ; [CPU_] |140| 
    4963 000002b1 07A2          ADDL      ACC,XAR2              ; [CPU_] |140| 
    4964 000002b2 0FA6          CMPL      ACC,XAR6              ; [CPU_] |140| 
    4965 000002b3 6404          B         $C$L55,LT             ; [CPU_] |140| 
    4966                      ; branchcc occurs ; [] |140| 
    4967                      .dwpsn  file "C:/Users/wmj/Desktop/BM1000_v1.1/sw/modules/svgen/src/32b/svgen.h",line 147,column 5,is
    4968 000002b4 FF5A          MOVL      P,ACC                 ; [CPU_] |147| 
    4969                      .dwpsn  file "C:/Users/wmj/Desktop/BM1000_v1.1/sw/modules/svgen/src/32b/svgen.h",line 148,column 5,is
    4970 000002b5 87A6          MOVL      XT,XAR6               ; [CPU_] |148| 
    4971 000002b6 6F03          B         $C$L56,UNC            ; [CPU_] |148| 
    4972                      ; branch occurs ; [] |148| 
    4973 000002b7       $C$L55:    
    4974                      .dwpsn  file "C:/Users/wmj/Desktop/BM1000_v1.1/sw/modules/svgen/src/32b/svgen.h",line 142,column 5,is
TMS320C2000 Assembler PC v15.12.3 Wed Nov 22 00:56:17 2017

Tools Copyright (c) 1996-2015 Texas Instruments Incorporated
C:\Users\wmj\AppData\Local\Temp\0070810                              PAGE   96

    4975 000002b7 A3A6          MOVL      P,XAR6                ; [CPU_] |142| 
    4976                      .dwpsn  file "C:/Users/wmj/Desktop/BM1000_v1.1/sw/modules/svgen/src/32b/svgen.h",line 143,column 5,is
    4977 000002b8 3AAC          MOVL      XT,XAR0               ; [CPU_] |143| 
    4978 000002b9       $C$L56:    
    4979 000002b9 A9A9          MOVL      ACC,P                 ; [CPU_] 
    4980                      .dwpsn  file "C:/Users/wmj/Desktop/BM1000_v1.1/sw/modules/svgen/src/32b/svgen.h",line 151,column 3,is
    4981 000002ba 0FA7          CMPL      ACC,XAR7              ; [CPU_] |151| 
    4982 000002bb FFE4          B         $C$L82,LT             ; [CPU_] |151| 
         000002bc 0257 
    4983                      ; branchcc occurs ; [] |151| 
    4984 000002bd ABA9          MOVL      ACC,XT                ; [CPU_] 
    4985                      .dwpsn  file "C:/Users/wmj/Desktop/BM1000_v1.1/sw/modules/svgen/src/32b/svgen.h",line 155,column 8,is
    4986 000002be 0FA7          CMPL      ACC,XAR7              ; [CPU_] |155| 
    4987 000002bf FFE5          B         $C$L83,LEQ            ; [CPU_] |155| 
         000002c0 0254 
    4988                      ; branchcc occurs ; [] |155| 
    4989                      .dwpsn  file "C:/Users/wmj/Desktop/BM1000_v1.1/sw/modules/svgen/src/32b/svgen.h",line 157,column 5,is
    4990 000002c1 FFEF          B         $C$L81,UNC            ; [CPU_] |157| 
         000002c2 024F 
    4991                      ; branch occurs ; [] |157| 
    4992 000002c3       $C$L57:    
    4993                      .dwpsn  file "C:/Users/wmj/Desktop/BM1000_v1.1/sw/modules/clarke/src/32b/clarke.h",line 125,column 16
    4994 000002c3 D008          MOVB      XAR0,#8               ; [CPU_] |125| 
    4995 000002c4 8A93          MOVL      XAR4,*+XAR3[AR0]      ; [CPU_] |125| 
    4996                      .dwpsn  file "C:/Users/wmj/Desktop/BM1000_v1.1/sw/modules/ctrl/src/32b/ctrl.h",line 2506,column 2,is_
    4997 000002c5 A2A9          MOVL      ACC,XAR3              ; [CPU_] |2506| 
    4998 000002c6 09AA          ADDB      ACC,#170              ; [CPU_] |2506| 
    4999 000002c7 8BA9          MOVL      XAR1,ACC              ; [CPU_] |2506| 
    5000                      .dwpsn  file "C:/Users/wmj/Desktop/BM1000_v1.1/sw/modules/clarke/src/32b/clarke.h",line 125,column 16
    5001 000002c8 C5C4          MOVL      XAR7,*+XAR4[0]        ; [CPU_] |125| 
    5002                      .dwpsn  file "C:/Users/wmj/Desktop/BM1000_v1.1/sw/modules/clarke/src/32b/clarke.h",line 126,column 15
    5003 000002c9 C4D4          MOVL      XAR6,*+XAR4[2]        ; [CPU_] |126| 
    5004                      .dwpsn  file "C:/Users/wmj/Desktop/BM1000_v1.1/sw/modules/clarke/src/32b/clarke.h",line 129,column 3,
    5005 000002ca 92E4          MOV       AL,*+XAR4[4]          ; [CPU_] |129| 
    5006 000002cb 5203          CMPB      AL,#3                 ; [CPU_] |129| 
    5007 000002cc 610E          B         $C$L58,EQ             ; [CPU_] |129| 
    5008                      ; branchcc occurs ; [] |129| 
    5009                      .dwpsn  file "C:/Users/wmj/Desktop/BM1000_v1.1/sw/modules/clarke/src/32b/clarke.h",line 134,column 8,
    5010 000002cd 5202          CMPB      AL,#2                 ; [CPU_] |134| 
    5011 000002ce 6020          B         $C$L60,NEQ            ; [CPU_] |134| 
    5012                      ; branchcc occurs ; [] |134| 
    5013                      .dwpsn  file "C:/Users/wmj/Desktop/BM1000_v1.1/sw/modules/clarke/src/32b/clarke.h",line 136,column 7,
    5014 000002cf 87C2          MOVL      XT,*+XAR2[0]          ; [CPU_] |136| 
    5015 000002d0 5605          IMPYL     P,XT,XAR7             ; [CPU_] |136| 
         000002d1 00A7 
    5016 000002d2 5663          QMPYL     ACC,XT,XAR7           ; [CPU_] |136| 
         000002d3 00A7 
    5017 000002d4 56A7          LSL64     ACC:P,#8              ; [CPU_] |136| 
    5018 000002d5 1EC1          MOVL      *+XAR1[0],ACC         ; [CPU_] |136| 
    5019                      .dwpsn  file "C:/Users/wmj/Desktop/BM1000_v1.1/sw/modules/clarke/src/32b/clarke.h",line 137,column 7,
    5020 000002d6 06D2          MOVL      ACC,*+XAR2[2]         ; [CPU_] |137| 
    5021 000002d7 FF30          LSL       ACC,1                 ; [CPU_] |137| 
    5022 000002d8 07C2          ADDL      ACC,*+XAR2[0]         ; [CPU_] |137| 
    5023 000002d9 6F0E          B         $C$L59,UNC            ; [CPU_] |137| 
    5024                      ; branch occurs ; [] |137| 
TMS320C2000 Assembler PC v15.12.3 Wed Nov 22 00:56:17 2017

Tools Copyright (c) 1996-2015 Texas Instruments Incorporated
C:\Users\wmj\AppData\Local\Temp\0070810                              PAGE   97

    5025 000002da       $C$L58:    
    5026                      .dwpsn  file "C:/Users/wmj/Desktop/BM1000_v1.1/sw/modules/clarke/src/32b/clarke.h",line 131,column 7,
    5027 000002da 06C2          MOVL      ACC,*+XAR2[0]         ; [CPU_] |131| 
    5028 000002db FF30          LSL       ACC,1                 ; [CPU_] |131| 
    5029 000002dc 03D2          SUBL      ACC,*+XAR2[2]         ; [CPU_] |131| 
    5030 000002dd 03E2          SUBL      ACC,*+XAR2[4]         ; [CPU_] |131| 
    5031 000002de 1EAC          MOVL      XT,ACC                ; [CPU_] |131| 
    5032 000002df 5605          IMPYL     P,XT,XAR7             ; [CPU_] |131| 
         000002e0 00A7 
    5033 000002e1 5663          QMPYL     ACC,XT,XAR7           ; [CPU_] |131| 
         000002e2 00A7 
    5034 000002e3 56A7          LSL64     ACC:P,#8              ; [CPU_] |131| 
    5035 000002e4 1EC1          MOVL      *+XAR1[0],ACC         ; [CPU_] |131| 
    5036                      .dwpsn  file "C:/Users/wmj/Desktop/BM1000_v1.1/sw/modules/clarke/src/32b/clarke.h",line 132,column 7,
    5037 000002e5 06D2          MOVL      ACC,*+XAR2[2]         ; [CPU_] |132| 
    5038 000002e6 03E2          SUBL      ACC,*+XAR2[4]         ; [CPU_] |132| 
    5039 000002e7       $C$L59:    
    5040 000002e7 1EAC          MOVL      XT,ACC                ; [CPU_] |132| 
    5041 000002e8 5605          IMPYL     P,XT,XAR6             ; [CPU_] |132| 
         000002e9 00A6 
    5042 000002ea 5663          QMPYL     ACC,XT,XAR6           ; [CPU_] |132| 
         000002eb 00A6 
    5043 000002ec 56A7          LSL64     ACC:P,#8              ; [CPU_] |132| 
    5044 000002ed 1ED1          MOVL      *+XAR1[2],ACC         ; [CPU_] |132| 
    5045 000002ee       $C$L60:    
    5046                      .dwpsn  file "C:/Users/wmj/Desktop/BM1000_v1.1/sw/modules/clarke/src/32b/clarke.h",line 125,column 16
    5047 000002ee D010          MOVB      XAR0,#16              ; [CPU_] |125| 
    5048                      .dwpsn  file "C:/Users/wmj/Desktop/BM1000_v1.1/sw/modules/ctrl/src/32b/ctrl.h",line 2510,column 2,is_
    5049 000002ef A2A9          MOVL      ACC,XAR3              ; [CPU_] |2510| 
    5050                      .dwpsn  file "C:/Users/wmj/Desktop/BM1000_v1.1/sw/modules/clarke/src/32b/clarke.h",line 125,column 16
    5051 000002f0 C493          MOVL      XAR6,*+XAR3[AR0]      ; [CPU_] |125| 
    5052                      .dwpsn  file "C:/Users/wmj/Desktop/BM1000_v1.1/sw/modules/ctrl/src/32b/ctrl.h",line 2510,column 2,is_
    5053 000002f1 8AA2          MOVL      XAR4,XAR2             ; [CPU_] |2510| 
    5054 000002f2 09B6          ADDB      ACC,#182              ; [CPU_] |2510| 
    5055 000002f3 83A9          MOVL      XAR5,ACC              ; [CPU_] |2510| 
    5056                      .dwpsn  file "C:/Users/wmj/Desktop/BM1000_v1.1/sw/modules/clarke/src/32b/clarke.h",line 125,column 16
    5057 000002f4 C5C6          MOVL      XAR7,*+XAR6[0]        ; [CPU_] |125| 
    5058                      .dwpsn  file "C:/Users/wmj/Desktop/BM1000_v1.1/sw/modules/clarke/src/32b/clarke.h",line 126,column 15
    5059 000002f5 8ED6          MOVL      XAR0,*+XAR6[2]        ; [CPU_] |126| 
    5060                      .dwpsn  file "C:/Users/wmj/Desktop/BM1000_v1.1/sw/modules/ctrl/src/32b/ctrl.h",line 2510,column 2,is_
    5061 000002f6 DC06          ADDB      XAR4,#6               ; [CPU_] |2510| 
    5062                      .dwpsn  file "C:/Users/wmj/Desktop/BM1000_v1.1/sw/modules/clarke/src/32b/clarke.h",line 129,column 3,
    5063 000002f7 92E6          MOV       AL,*+XAR6[4]          ; [CPU_] |129| 
    5064 000002f8 5203          CMPB      AL,#3                 ; [CPU_] |129| 
    5065 000002f9 610E          B         $C$L61,EQ             ; [CPU_] |129| 
    5066                      ; branchcc occurs ; [] |129| 
    5067                      .dwpsn  file "C:/Users/wmj/Desktop/BM1000_v1.1/sw/modules/clarke/src/32b/clarke.h",line 134,column 8,
    5068 000002fa 5202          CMPB      AL,#2                 ; [CPU_] |134| 
    5069 000002fb 6020          B         $C$L63,NEQ            ; [CPU_] |134| 
    5070                      ; branchcc occurs ; [] |134| 
    5071                      .dwpsn  file "C:/Users/wmj/Desktop/BM1000_v1.1/sw/modules/clarke/src/32b/clarke.h",line 136,column 7,
    5072 000002fc 87C4          MOVL      XT,*+XAR4[0]          ; [CPU_] |136| 
    5073 000002fd 5605          IMPYL     P,XT,XAR7             ; [CPU_] |136| 
         000002fe 00A7 
    5074 000002ff 5663          QMPYL     ACC,XT,XAR7           ; [CPU_] |136| 
TMS320C2000 Assembler PC v15.12.3 Wed Nov 22 00:56:17 2017

Tools Copyright (c) 1996-2015 Texas Instruments Incorporated
C:\Users\wmj\AppData\Local\Temp\0070810                              PAGE   98

         00000300 00A7 
    5075 00000301 56A7          LSL64     ACC:P,#8              ; [CPU_] |136| 
    5076 00000302 1EC5          MOVL      *+XAR5[0],ACC         ; [CPU_] |136| 
    5077                      .dwpsn  file "C:/Users/wmj/Desktop/BM1000_v1.1/sw/modules/clarke/src/32b/clarke.h",line 137,column 7,
    5078 00000303 06D4          MOVL      ACC,*+XAR4[2]         ; [CPU_] |137| 
    5079 00000304 FF30          LSL       ACC,1                 ; [CPU_] |137| 
    5080 00000305 07C4          ADDL      ACC,*+XAR4[0]         ; [CPU_] |137| 
    5081 00000306 6F0E          B         $C$L62,UNC            ; [CPU_] |137| 
    5082                      ; branch occurs ; [] |137| 
    5083 00000307       $C$L61:    
    5084                      .dwpsn  file "C:/Users/wmj/Desktop/BM1000_v1.1/sw/modules/clarke/src/32b/clarke.h",line 131,column 7,
    5085 00000307 06C4          MOVL      ACC,*+XAR4[0]         ; [CPU_] |131| 
    5086 00000308 FF30          LSL       ACC,1                 ; [CPU_] |131| 
    5087 00000309 03D4          SUBL      ACC,*+XAR4[2]         ; [CPU_] |131| 
    5088 0000030a 03E4          SUBL      ACC,*+XAR4[4]         ; [CPU_] |131| 
    5089 0000030b 1EAC          MOVL      XT,ACC                ; [CPU_] |131| 
    5090 0000030c 5605          IMPYL     P,XT,XAR7             ; [CPU_] |131| 
         0000030d 00A7 
    5091 0000030e 5663          QMPYL     ACC,XT,XAR7           ; [CPU_] |131| 
         0000030f 00A7 
    5092 00000310 56A7          LSL64     ACC:P,#8              ; [CPU_] |131| 
    5093 00000311 1EC5          MOVL      *+XAR5[0],ACC         ; [CPU_] |131| 
    5094                      .dwpsn  file "C:/Users/wmj/Desktop/BM1000_v1.1/sw/modules/clarke/src/32b/clarke.h",line 132,column 7,
    5095 00000312 06D4          MOVL      ACC,*+XAR4[2]         ; [CPU_] |132| 
    5096 00000313 03E4          SUBL      ACC,*+XAR4[4]         ; [CPU_] |132| 
    5097 00000314       $C$L62:    
    5098 00000314 1EAC          MOVL      XT,ACC                ; [CPU_] |132| 
    5099 00000315 5605          IMPYL     P,XT,XAR0             ; [CPU_] |132| 
         00000316 00A0 
    5100 00000317 5663          QMPYL     ACC,XT,XAR0           ; [CPU_] |132| 
         00000318 00A0 
    5101 00000319 56A7          LSL64     ACC:P,#8              ; [CPU_] |132| 
    5102 0000031a 1ED5          MOVL      *+XAR5[2],ACC         ; [CPU_] |132| 
    5103 0000031b       $C$L63:    
    5104                      .dwpsn  file "C:/Users/wmj/Desktop/BM1000_v1.1/sw/modules/ctrl/src/32b/ctrl.h",line 2514,column 2,is_
    5105 0000031b A042          MOVL      *-SP[2],XAR5          ; [CPU_] |2514| 
    5106 0000031c D06C          MOVB      XAR0,#108             ; [CPU_] |2514| 
    5107 0000031d 8A93          MOVL      XAR4,*+XAR3[AR0]      ; [CPU_] |2514| 
    5108 0000031e 83A1          MOVL      XAR5,XAR1             ; [CPU_] |2514| 
    5109 0000031f D018          MOVB      XAR0,#24              ; [CPU_] |2514| 
    5110 00000320 06D4          MOVL      ACC,*+XAR4[2]         ; [CPU_] |2514| 
    5111 00000321 1E44          MOVL      *-SP[4],ACC           ; [CPU_] |2514| 
    5112 00000322 8A93          MOVL      XAR4,*+XAR3[AR0]      ; [CPU_] |2514| 
    5113 00000323 D00C          MOVB      XAR0,#12              ; [CPU_] |2514| 
    5114 00000324 0692          MOVL      ACC,*+XAR2[AR0]       ; [CPU_] |2514| 
    5115              $C$DW$390       .dwtag  DW_TAG_TI_branch
    5116                      .dwattr $C$DW$390, DW_AT_low_pc(0x00)
    5117                      .dwattr $C$DW$390, DW_AT_name("_EST_run")
    5118                      .dwattr $C$DW$390, DW_AT_TI_call
    5119              
    5120 00000325 7640!         LCR       #_EST_run             ; [CPU_] |2514| 
         00000326 0000 
    5121                      ; call occurs [#_EST_run] ; [] |2514| 
    5122                      .dwpsn  file "C:/Users/wmj/Desktop/BM1000_v1.1/sw/modules/ctrl/src/32b/ctrl.h",line 100,column 3,is_s
    5123 00000327 D0FC          MOVB      XAR0,#252             ; [CPU_] |100| 
TMS320C2000 Assembler PC v15.12.3 Wed Nov 22 00:56:17 2017

Tools Copyright (c) 1996-2015 Texas Instruments Incorporated
C:\Users\wmj\AppData\Local\Temp\0070810                              PAGE   99

    5124 00000328 9293          MOV       AL,*+XAR3[AR0]        ; [CPU_] |100| 
    5125 00000329 6104          B         $C$L64,EQ             ; [CPU_] |100| 
    5126                      ; branchcc occurs ; [] |100| 
    5127 0000032a D0FA          MOVB      XAR0,#250             ; [CPU_] |100| 
    5128 0000032b 8693          MOVL      XAR2,*+XAR3[AR0]      ; [CPU_] |100| 
    5129 0000032c 6F06          B         $C$L65,UNC            ; [CPU_] |100| 
    5130                      ; branch occurs ; [] |100| 
    5131 0000032d       $C$L64:    
    5132 0000032d D018          MOVB      XAR0,#24              ; [CPU_] |100| 
    5133 0000032e 8A93          MOVL      XAR4,*+XAR3[AR0]      ; [CPU_] |100| 
    5134              $C$DW$391       .dwtag  DW_TAG_TI_branch
    5135                      .dwattr $C$DW$391, DW_AT_low_pc(0x00)
    5136                      .dwattr $C$DW$391, DW_AT_name("_EST_getAngle_pu")
    5137                      .dwattr $C$DW$391, DW_AT_TI_call
    5138              
    5139 0000032f 7640!         LCR       #_EST_getAngle_pu     ; [CPU_] |100| 
         00000330 0000 
    5140                      ; call occurs [#_EST_getAngle_pu] ; [] |100| 
    5141 00000331 86A9          MOVL      XAR2,ACC              ; [CPU_] |100| 
    5142 00000332       $C$L65:    
    5143                      .dwpsn  file "C:/Users/wmj/Desktop/BM1000_v1.1/sw/drivers/drvic/brake.h",line 42,column 3,is_stmt,isa
    5144 00000332 D0FE          MOVB      XAR0,#254             ; [CPU_] |42| 
    5145 00000333 8A93          MOVL      XAR4,*+XAR3[AR0]      ; [CPU_] |42| 
    5146 00000334 92F4          MOV       AL,*+XAR4[6]          ; [CPU_] |42| 
    5147 00000335 6003          B         $C$L66,NEQ            ; [CPU_] |42| 
    5148                      ; branchcc occurs ; [] |42| 
    5149                      .dwpsn  file "C:/Users/wmj/Desktop/BM1000_v1.1/sw/drivers/drvic/brake.h",line 90,column 3,is_stmt,isa
    5150 00000336 AAC4          MOVL      *+XAR4[0],XAR2        ; [CPU_] |90| 
    5151                      .dwpsn  file "C:/Users/wmj/Desktop/BM1000_v1.1/sw/drivers/drvic/brake.h",line 91,column 3,is_stmt,isa
    5152 00000337 6F02          B         $C$L67,UNC            ; [CPU_] |91| 
    5153                      ; branch occurs ; [] |91| 
    5154 00000338       $C$L66:    
    5155                      .dwpsn  file "C:/Users/wmj/Desktop/BM1000_v1.1/sw/drivers/drvic/brake.h",line 49,column 3,is_stmt,isa
    5156 00000338 86C4          MOVL      XAR2,*+XAR4[0]        ; [CPU_] |49| 
    5157 00000339       $C$L67:    
    5158                      .dwpsn  file "C:/Users/wmj/Desktop/BM1000_v1.1/sw/modules/ctrl/src/32b/ctrl.h",line 2109,column 3,is_
    5159 00000339 AAA9          MOVL      ACC,XAR2              ; [CPU_] |2109| 
    5160              $C$DW$392       .dwtag  DW_TAG_TI_branch
    5161                      .dwattr $C$DW$392, DW_AT_low_pc(0x00)
    5162                      .dwattr $C$DW$392, DW_AT_name("__IQ24cosPU")
    5163                      .dwattr $C$DW$392, DW_AT_TI_call
    5164              
    5165 0000033a 7640!         LCR       #__IQ24cosPU          ; [CPU_] |2109| 
         0000033b 0000 
    5166                      ; call occurs [#__IQ24cosPU] ; [] |2109| 
    5167 0000033c 1E50          MOVL      *-SP[16],ACC          ; [CPU_] |2109| 
    5168                      .dwpsn  file "C:/Users/wmj/Desktop/BM1000_v1.1/sw/modules/ctrl/src/32b/ctrl.h",line 2110,column 3,is_
    5169 0000033d AAA9          MOVL      ACC,XAR2              ; [CPU_] |2110| 
    5170              $C$DW$393       .dwtag  DW_TAG_TI_branch
    5171                      .dwattr $C$DW$393, DW_AT_low_pc(0x00)
    5172                      .dwattr $C$DW$393, DW_AT_name("__IQ24sinPU")
    5173                      .dwattr $C$DW$393, DW_AT_TI_call
    5174              
    5175 0000033e 7640!         LCR       #__IQ24sinPU          ; [CPU_] |2110| 
         0000033f 0000 
TMS320C2000 Assembler PC v15.12.3 Wed Nov 22 00:56:17 2017

Tools Copyright (c) 1996-2015 Texas Instruments Incorporated
C:\Users\wmj\AppData\Local\Temp\0070810                              PAGE  100

    5176                      ; call occurs [#__IQ24sinPU] ; [] |2110| 
    5177                      .dwpsn  file "C:/Users/wmj/Desktop/BM1000_v1.1/sw/modules/park/src/32b/park.h",line 173,column 17,is_
    5178 00000340 D01A          MOVB      XAR0,#26              ; [CPU_] |173| 
    5179                      .dwpsn  file "C:/Users/wmj/Desktop/BM1000_v1.1/sw/modules/ctrl/src/32b/ctrl.h",line 2110,column 3,is_
    5180 00000341 1E4E          MOVL      *-SP[14],ACC          ; [CPU_] |2110| 
    5181                      .dwpsn  file "C:/Users/wmj/Desktop/BM1000_v1.1/sw/modules/park/src/32b/park.h",line 173,column 17,is_
    5182 00000342 8A93          MOVL      XAR4,*+XAR3[AR0]      ; [CPU_] |173| 
    5183                      .dwpsn  file "C:/Users/wmj/Desktop/BM1000_v1.1/sw/modules/park/src/32b/park.h",line 175,column 3,is_s
    5184 00000343 0650          MOVL      ACC,*-SP[16]          ; [CPU_] |175| 
    5185                      .dwpsn  file "C:/Users/wmj/Desktop/BM1000_v1.1/sw/modules/park/src/32b/park.h",line 141,column 13,is_
    5186 00000344 D01A          MOVB      XAR0,#26              ; [CPU_] |141| 
    5187                      .dwpsn  file "C:/Users/wmj/Desktop/BM1000_v1.1/sw/modules/park/src/32b/park.h",line 175,column 3,is_s
    5188 00000345 1ED4          MOVL      *+XAR4[2],ACC         ; [CPU_] |175| 
    5189                      .dwpsn  file "C:/Users/wmj/Desktop/BM1000_v1.1/sw/modules/park/src/32b/park.h",line 176,column 3,is_s
    5190 00000346 064E          MOVL      ACC,*-SP[14]          ; [CPU_] |176| 
    5191 00000347 1EC4          MOVL      *+XAR4[0],ACC         ; [CPU_] |176| 
    5192                      .dwpsn  file "C:/Users/wmj/Desktop/BM1000_v1.1/sw/modules/park/src/32b/park.h",line 148,column 3,is_s
    5193 00000348 A2A9          MOVL      ACC,XAR3              ; [CPU_] |148| 
    5194                      .dwpsn  file "C:/Users/wmj/Desktop/BM1000_v1.1/sw/modules/park/src/32b/park.h",line 141,column 13,is_
    5195 00000349 8A93          MOVL      XAR4,*+XAR3[AR0]      ; [CPU_] |141| 
    5196                      .dwpsn  file "C:/Users/wmj/Desktop/BM1000_v1.1/sw/modules/park/src/32b/park.h",line 144,column 15,is_
    5197 0000034a 83C1          MOVL      XAR5,*+XAR1[0]        ; [CPU_] |144| 
    5198                      .dwpsn  file "C:/Users/wmj/Desktop/BM1000_v1.1/sw/modules/park/src/32b/park.h",line 148,column 3,is_s
    5199 0000034b 09B2          ADDB      ACC,#178              ; [CPU_] |148| 
    5200                      .dwpsn  file "C:/Users/wmj/Desktop/BM1000_v1.1/sw/modules/park/src/32b/park.h",line 145,column 15,is_
    5201 0000034c 8BD1          MOVL      XAR1,*+XAR1[2]        ; [CPU_] |145| 
    5202                      .dwpsn  file "C:/Users/wmj/Desktop/BM1000_v1.1/sw/modules/park/src/32b/park.h",line 142,column 13,is_
    5203 0000034d C5D4          MOVL      XAR7,*+XAR4[2]        ; [CPU_] |142| 
    5204                      .dwpsn  file "C:/Users/wmj/Desktop/BM1000_v1.1/sw/modules/park/src/32b/park.h",line 148,column 3,is_s
    5205 0000034e A0AC          MOVL      XT,XAR5               ; [CPU_] |148| 
    5206                      .dwpsn  file "C:/Users/wmj/Desktop/BM1000_v1.1/sw/modules/park/src/32b/park.h",line 141,column 13,is_
    5207 0000034f C4C4          MOVL      XAR6,*+XAR4[0]        ; [CPU_] |141| 
    5208                      .dwpsn  file "C:/Users/wmj/Desktop/BM1000_v1.1/sw/modules/park/src/32b/park.h",line 148,column 3,is_s
    5209 00000350 8AA9          MOVL      XAR4,ACC              ; [CPU_] |148| 
    5210 00000351 5605          IMPYL     P,XT,XAR7             ; [CPU_] |148| 
         00000352 00A7 
    5211 00000353 5663          QMPYL     ACC,XT,XAR7           ; [CPU_] |148| 
         00000354 00A7 
    5212 00000355 56A7          LSL64     ACC:P,#8              ; [CPU_] |148| 
    5213 00000356 B2AC          MOVL      XT,XAR1               ; [CPU_] |148| 
    5214 00000357 8EA9          MOVL      XAR0,ACC              ; [CPU_] |148| 
    5215 00000358 5605          IMPYL     P,XT,XAR6             ; [CPU_] |148| 
         00000359 00A6 
    5216 0000035a 5663          QMPYL     ACC,XT,XAR6           ; [CPU_] |148| 
         0000035b 00A6 
    5217 0000035c 56A7          LSL64     ACC:P,#8              ; [CPU_] |148| 
    5218 0000035d A0AC          MOVL      XT,XAR5               ; [CPU_] |148| 
    5219 0000035e 07A0          ADDL      ACC,XAR0              ; [CPU_] |148| 
    5220                      .dwpsn  file "C:/Users/wmj/Desktop/BM1000_v1.1/sw/modules/park/src/32b/park.h",line 149,column 3,is_s
    5221 0000035f 5605          IMPYL     P,XT,XAR6             ; [CPU_] |149| 
         00000360 00A6 
    5222                      .dwpsn  file "C:/Users/wmj/Desktop/BM1000_v1.1/sw/modules/ctrl/src/32b/ctrl.h",line 2141,column 3,is_
    5223 00000361 D09E          MOVB      XAR0,#158             ; [CPU_] |2141| 
    5224                      .dwpsn  file "C:/Users/wmj/Desktop/BM1000_v1.1/sw/modules/park/src/32b/park.h",line 148,column 3,is_s
    5225 00000362 1EC4          MOVL      *+XAR4[0],ACC         ; [CPU_] |148| 
TMS320C2000 Assembler PC v15.12.3 Wed Nov 22 00:56:17 2017

Tools Copyright (c) 1996-2015 Texas Instruments Incorporated
C:\Users\wmj\AppData\Local\Temp\0070810                              PAGE  101

    5226                      .dwpsn  file "C:/Users/wmj/Desktop/BM1000_v1.1/sw/modules/park/src/32b/park.h",line 149,column 3,is_s
    5227 00000363 5663          QMPYL     ACC,XT,XAR6           ; [CPU_] |149| 
         00000364 00A6 
    5228 00000365 56A7          LSL64     ACC:P,#8              ; [CPU_] |149| 
    5229 00000366 B2AC          MOVL      XT,XAR1               ; [CPU_] |149| 
    5230 00000367 1EA6          MOVL      XAR6,ACC              ; [CPU_] |149| 
    5231 00000368 5605          IMPYL     P,XT,XAR7             ; [CPU_] |149| 
         00000369 00A7 
    5232 0000036a 5663          QMPYL     ACC,XT,XAR7           ; [CPU_] |149| 
         0000036b 00A7 
    5233 0000036c 56A7          LSL64     ACC:P,#8              ; [CPU_] |149| 
    5234 0000036d 03A6          SUBL      ACC,XAR6              ; [CPU_] |149| 
    5235 0000036e 1ED4          MOVL      *+XAR4[2],ACC         ; [CPU_] |149| 
    5236                      .dwpsn  file "C:/Users/wmj/Desktop/BM1000_v1.1/sw/modules/ctrl/src/32b/ctrl.h",line 2141,column 3,is_
    5237 0000036f 9293          MOV       AL,*+XAR3[AR0]        ; [CPU_] |2141| 
    5238 00000370 D0EE          MOVB      XAR0,#238             ; [CPU_] |2141| 
    5239 00000371 5493          CMP       AL,*+XAR3[AR0]        ; [CPU_] |2141| 
    5240 00000372 6645          B         $C$L68,HI             ; [CPU_] |2141| 
    5241                      ; branchcc occurs ; [] |2141| 
    5242                      .dwpsn  file "C:/Users/wmj/Desktop/BM1000_v1.1/sw/modules/traj/src/32b/traj.h",line 96,column 3,is_st
    5243 00000373 D06C          MOVB      XAR0,#108             ; [CPU_] |96| 
    5244 00000374 8A93          MOVL      XAR4,*+XAR3[AR0]      ; [CPU_] |96| 
    5245                      .dwpsn  file "C:/Users/wmj/Desktop/BM1000_v1.1/sw/modules/ctrl/src/32b/ctrl.h",line 2556,column 21,is
    5246 00000375 D018          MOVB      XAR0,#24              ; [CPU_] |2556| 
    5247                      .dwpsn  file "C:/Users/wmj/Desktop/BM1000_v1.1/sw/modules/traj/src/32b/traj.h",line 96,column 3,is_st
    5248 00000376 8BD4          MOVL      XAR1,*+XAR4[2]        ; [CPU_] |96| 
    5249                      .dwpsn  file "C:/Users/wmj/Desktop/BM1000_v1.1/sw/modules/ctrl/src/32b/ctrl.h",line 2556,column 21,is
    5250 00000377 8A93          MOVL      XAR4,*+XAR3[AR0]      ; [CPU_] |2556| 
    5251              $C$DW$394       .dwtag  DW_TAG_TI_branch
    5252                      .dwattr $C$DW$394, DW_AT_low_pc(0x00)
    5253                      .dwattr $C$DW$394, DW_AT_name("_EST_getFm_pu")
    5254                      .dwattr $C$DW$394, DW_AT_TI_call
    5255              
    5256 00000378 7640!         LCR       #_EST_getFm_pu        ; [CPU_] |2556| 
         00000379 0000 
    5257                      ; call occurs [#_EST_getFm_pu] ; [] |2556| 
    5258                      .dwpsn  file "C:/Users/wmj/Desktop/BM1000_v1.1/sw/modules/ctrl/src/32b/ctrl.h",line 2557,column 17,is
    5259 0000037a D078          MOVB      XAR0,#120             ; [CPU_] |2557| 
    5260 0000037b 8A93          MOVL      XAR4,*+XAR3[AR0]      ; [CPU_] |2557| 
    5261                      .dwpsn  file "C:/Users/wmj/Desktop/BM1000_v1.1/sw/modules/ctrl/src/32b/ctrl.h",line 2556,column 21,is
    5262 0000037c 1EA6          MOVL      XAR6,ACC              ; [CPU_] |2556| 
    5263                      .dwpsn  file "C:/Users/wmj/Desktop/BM1000_v1.1/sw/modules/ctrl/src/32b/ctrl.h",line 2557,column 17,is
    5264 0000037d D0F8          MOVB      XAR0,#248             ; [CPU_] |2557| 
    5265 0000037e 8793          MOVL      XT,*+XAR3[AR0]        ; [CPU_] |2557| 
    5266                      .dwpsn  file "C:/Users/wmj/Desktop/BM1000_v1.1/sw/modules/ctrl/src/32b/ctrl.h",line 1136,column 3,is_
    5267 0000037f D0EE          MOVB      XAR0,#238             ; [CPU_] |1136| 
    5268                      .dwpsn  file "C:/Users/wmj/Desktop/BM1000_v1.1/sw/modules/ctrl/src/32b/ctrl.h",line 2557,column 17,is
    5269 00000380 5605          IMPYL     P,XT,*+XAR4[2]        ; [CPU_] |2557| 
         00000381 00D4 
    5270 00000382 5663          QMPYL     ACC,XT,*+XAR4[2]      ; [CPU_] |2557| 
         00000383 00D4 
    5271                      .dwpsn  file "C:/Users/wmj/Desktop/BM1000_v1.1/sw/modules/ctrl/src/32b/ctrl.h",line 1136,column 3,is_
    5272 00000384 2B93          MOV       *+XAR3[AR0],#0        ; [CPU_] |1136| 
    5273                      .dwpsn  file "C:/Users/wmj/Desktop/BM1000_v1.1/sw/modules/pid/src/32b/pid.h",line 358,column 16,is_st
    5274 00000385 D044          MOVB      XAR0,#68              ; [CPU_] |358| 
TMS320C2000 Assembler PC v15.12.3 Wed Nov 22 00:56:17 2017

Tools Copyright (c) 1996-2015 Texas Instruments Incorporated
C:\Users\wmj\AppData\Local\Temp\0070810                              PAGE  102

    5275                      .dwpsn  file "C:/Users/wmj/Desktop/BM1000_v1.1/sw/modules/ctrl/src/32b/ctrl.h",line 2557,column 17,is
    5276 00000386 56A7          LSL64     ACC:P,#8              ; [CPU_] |2557| 
    5277                      .dwpsn  file "C:/Users/wmj/Desktop/BM1000_v1.1/sw/modules/pid/src/32b/pid.h",line 358,column 16,is_st
    5278 00000387 8A93          MOVL      XAR4,*+XAR3[AR0]      ; [CPU_] |358| 
    5279                      .dwpsn  file "C:/Users/wmj/Desktop/BM1000_v1.1/sw/modules/ctrl/src/32b/ctrl.h",line 2557,column 17,is
    5280 00000388 1EA7          MOVL      XAR7,ACC              ; [CPU_] |2557| 
    5281                      .dwpsn  file "C:/Users/wmj/Desktop/BM1000_v1.1/sw/modules/pid/src/32b/pid.h",line 360,column 3,is_stm
    5282 00000389 D00C          MOVB      XAR0,#12              ; [CPU_] |360| 
    5283                      .dwpsn  file "C:/Users/wmj/Desktop/BM1000_v1.1/sw/modules/ctrl/src/32b/ctrl.h",line 2565,column 6,is_
    5284 0000038a B2AB          MOVL      P,XAR1                ; [CPU_] |2565| 
    5285                      .dwpsn  file "C:/Users/wmj/Desktop/BM1000_v1.1/sw/modules/ctrl/src/32b/ctrl.h",line 2558,column 17,is
    5286 0000038b FF54          NEG       ACC                   ; [CPU_] |2558| 
    5287                      .dwpsn  file "C:/Users/wmj/Desktop/BM1000_v1.1/sw/modules/pid/src/32b/pid.h",line 270,column 3,is_stm
    5288 0000038c 565D          SUBUL     P,XAR6                ; [CPU_] |270| 
         0000038d 00A6 
    5289                      .dwpsn  file "C:/Users/wmj/Desktop/BM1000_v1.1/sw/modules/pid/src/32b/pid.h",line 360,column 3,is_stm
    5290 0000038e 1E94          MOVL      *+XAR4[AR0],ACC       ; [CPU_] |360| 
    5291                      .dwpsn  file "C:/Users/wmj/Desktop/BM1000_v1.1/sw/modules/pid/src/32b/pid.h",line 361,column 3,is_stm
    5292 0000038f D00E          MOVB      XAR0,#14              ; [CPU_] |361| 
    5293 00000390 C394          MOVL      *+XAR4[AR0],XAR7      ; [CPU_] |361| 
    5294                      .dwpsn  file "C:/Users/wmj/Desktop/BM1000_v1.1/sw/modules/pid/src/32b/pid.h",line 262,column 16,is_st
    5295 00000391 D044          MOVB      XAR0,#68              ; [CPU_] |262| 
    5296 00000392 8A93          MOVL      XAR4,*+XAR3[AR0]      ; [CPU_] |262| 
    5297                      .dwpsn  file "C:/Users/wmj/Desktop/BM1000_v1.1/sw/modules/pid/src/32b/pid.h",line 270,column 3,is_stm
    5298 00000393 A9A0          MOVL      XAR0,P                ; [CPU_] |270| 
    5299                      .dwpsn  file "C:/Users/wmj/Desktop/BM1000_v1.1/sw/modules/ctrl/src/32b/ctrl.h",line 2565,column 6,is_
    5300 00000394 C5A1          MOVL      XAR7,XAR1             ; [CPU_] |2565| 
    5301                      .dwpsn  file "C:/Users/wmj/Desktop/BM1000_v1.1/sw/modules/pid/src/32b/pid.h",line 271,column 3,is_stm
    5302 00000395 D10E          MOVB      XAR1,#14              ; [CPU_] |271| 
    5303                      .dwpsn  file "C:/Users/wmj/Desktop/BM1000_v1.1/sw/modules/pid/src/32b/pid.h",line 270,column 3,is_stm
    5304 00000396 87C4          MOVL      XT,*+XAR4[0]          ; [CPU_] |270| 
    5305 00000397 5663          QMPYL     ACC,XT,XAR0           ; [CPU_] |270| 
         00000398 00A0 
    5306 00000399 5605          IMPYL     P,XT,XAR0             ; [CPU_] |270| 
         0000039a 00A0 
    5307 0000039b 56A7          LSL64     ACC:P,#8              ; [CPU_] |270| 
    5308 0000039c 83A9          MOVL      XAR5,ACC              ; [CPU_] |270| 
    5309                      .dwpsn  file "C:/Users/wmj/Desktop/BM1000_v1.1/sw/modules/pid/src/32b/pid.h",line 271,column 3,is_stm
    5310 0000039d 87D4          MOVL      XT,*+XAR4[2]          ; [CPU_] |271| 
    5311 0000039e 5605          IMPYL     P,XT,XAR0             ; [CPU_] |271| 
         0000039f 00A0 
    5312 000003a0 5663          QMPYL     ACC,XT,XAR0           ; [CPU_] |271| 
         000003a1 00A0 
    5313 000003a2 D00C          MOVB      XAR0,#12              ; [CPU_] |271| 
    5314 000003a3 56A7          LSL64     ACC:P,#8              ; [CPU_] |271| 
    5315 000003a4 07F4          ADDL      ACC,*+XAR4[6]         ; [CPU_] |271| 
    5316 000003a5 5650          MINL      ACC,*+XAR4[AR1]       ; [CPU_] |271| 
         000003a6 009C 
    5317                      .dwpsn  file "C:/Users/wmj/Desktop/BM1000_v1.1/sw/modules/pid/src/32b/pid.h",line 277,column 3,is_stm
    5318 000003a7 D10E          MOVB      XAR1,#14              ; [CPU_] |277| 
    5319                      .dwpsn  file "C:/Users/wmj/Desktop/BM1000_v1.1/sw/modules/pid/src/32b/pid.h",line 271,column 3,is_stm
    5320 000003a8 5661          MAXL      ACC,*+XAR4[AR0]       ; [CPU_] |271| 
         000003a9 0094 
    5321                      .dwpsn  file "C:/Users/wmj/Desktop/BM1000_v1.1/sw/modules/pid/src/32b/pid.h",line 274,column 3,is_stm
    5322 000003aa D008          MOVB      XAR0,#8               ; [CPU_] |274| 
TMS320C2000 Assembler PC v15.12.3 Wed Nov 22 00:56:17 2017

Tools Copyright (c) 1996-2015 Texas Instruments Incorporated
C:\Users\wmj\AppData\Local\Temp\0070810                              PAGE  103

    5323                      .dwpsn  file "C:/Users/wmj/Desktop/BM1000_v1.1/sw/modules/pid/src/32b/pid.h",line 273,column 3,is_stm
    5324 000003ab 1EF4          MOVL      *+XAR4[6],ACC         ; [CPU_] |273| 
    5325                      .dwpsn  file "C:/Users/wmj/Desktop/BM1000_v1.1/sw/modules/pid/src/32b/pid.h",line 277,column 3,is_stm
    5326 000003ac 07A5          ADDL      ACC,XAR5              ; [CPU_] |277| 
    5327                      .dwpsn  file "C:/Users/wmj/Desktop/BM1000_v1.1/sw/modules/pid/src/32b/pid.h",line 274,column 3,is_stm
    5328 000003ad C394          MOVL      *+XAR4[AR0],XAR7      ; [CPU_] |274| 
    5329                      .dwpsn  file "C:/Users/wmj/Desktop/BM1000_v1.1/sw/modules/pid/src/32b/pid.h",line 275,column 3,is_stm
    5330 000003ae D00A          MOVB      XAR0,#10              ; [CPU_] |275| 
    5331 000003af C294          MOVL      *+XAR4[AR0],XAR6      ; [CPU_] |275| 
    5332                      .dwpsn  file "C:/Users/wmj/Desktop/BM1000_v1.1/sw/modules/pid/src/32b/pid.h",line 277,column 3,is_stm
    5333 000003b0 D00C          MOVB      XAR0,#12              ; [CPU_] |277| 
    5334 000003b1 5650          MINL      ACC,*+XAR4[AR1]       ; [CPU_] |277| 
         000003b2 009C 
    5335 000003b3 5661          MAXL      ACC,*+XAR4[AR0]       ; [CPU_] |277| 
         000003b4 0094 
    5336 000003b5 D0BA          MOVB      XAR0,#186             ; [CPU_] |277| 
    5337 000003b6 1E93          MOVL      *+XAR3[AR0],ACC       ; [CPU_] |277| 
    5338 000003b7       $C$L68:    
    5339                      .dwpsn  file "C:/Users/wmj/Desktop/BM1000_v1.1/sw/modules/ctrl/src/32b/ctrl.h",line 256,column 3,is_s
    5340 000003b7 D0F6          MOVB      XAR0,#246             ; [CPU_] |256| 
    5341 000003b8 9293          MOV       AL,*+XAR3[AR0]        ; [CPU_] |256| 
    5342 000003b9 FFE1          B         $C$L77,EQ             ; [CPU_] |256| 
         000003ba 00D1 
    5343                      ; branchcc occurs ; [] |256| 
    5344 000003bb D09D          MOVB      XAR0,#157             ; [CPU_] |256| 
    5345 000003bc 9293          MOV       AL,*+XAR3[AR0]        ; [CPU_] |256| 
    5346 000003bd D0EC          MOVB      XAR0,#236             ; [CPU_] |256| 
    5347 000003be 5493          CMP       AL,*+XAR3[AR0]        ; [CPU_] |256| 
    5348 000003bf FFE6          B         $C$L77,HI             ; [CPU_] |256| 
         000003c0 00CB 
    5349                      ; branchcc occurs ; [] |256| 
    5350                      .dwpsn  file "C:/Users/wmj/Desktop/BM1000_v1.1/sw/modules/ctrl/src/32b/ctrl.h",line 554,column 3,is_s
    5351 000003c1 D0CA          MOVB      XAR0,#202             ; [CPU_] |554| 
    5352 000003c2 8B93          MOVL      XAR1,*+XAR3[AR0]      ; [CPU_] |554| 
    5353 000003c3 D0CC          MOVB      XAR0,#204             ; [CPU_] |554| 
    5354 000003c4 0693          MOVL      ACC,*+XAR3[AR0]       ; [CPU_] |554| 
    5355                      .dwpsn  file "C:/Users/wmj/Desktop/BM1000_v1.1/sw/modules/ctrl/src/32b/ctrl.h",line 582,column 3,is_s
    5356 000003c5 D0A8          MOVB      XAR0,#168             ; [CPU_] |582| 
    5357                      .dwpsn  file "C:/Users/wmj/Desktop/BM1000_v1.1/sw/modules/ctrl/src/32b/ctrl.h",line 554,column 3,is_s
    5358 000003c6 1E52          MOVL      *-SP[18],ACC          ; [CPU_] |554| 
    5359                      .dwpsn  file "C:/Users/wmj/Desktop/BM1000_v1.1/sw/modules/ctrl/src/32b/ctrl.h",line 582,column 3,is_s
    5360 000003c7 0693          MOVL      ACC,*+XAR3[AR0]       ; [CPU_] |582| 
    5361                      .dwpsn  file "C:/Users/wmj/Desktop/BM1000_v1.1/sw/modules/ctrl/src/32b/ctrl.h",line 1112,column 3,is_
    5362 000003c8 D0EC          MOVB      XAR0,#236             ; [CPU_] |1112| 
    5363                      .dwpsn  file "C:/Users/wmj/Desktop/BM1000_v1.1/sw/modules/ctrl/src/32b/ctrl.h",line 582,column 3,is_s
    5364 000003c9 1E54          MOVL      *-SP[20],ACC          ; [CPU_] |582| 
    5365                      .dwpsn  file "C:/Users/wmj/Desktop/BM1000_v1.1/sw/modules/ctrl/src/32b/ctrl.h",line 1112,column 3,is_
    5366 000003ca 2B93          MOV       *+XAR3[AR0],#0        ; [CPU_] |1112| 
    5367                      .dwpsn  file "C:/Users/wmj/Desktop/BM1000_v1.1/sw/modules/ctrl/src/32b/ctrl.h",line 267,column 3,is_s
    5368 000003cb D0F1          MOVB      XAR0,#241             ; [CPU_] |267| 
    5369 000003cc 9293          MOV       AL,*+XAR3[AR0]        ; [CPU_] |267| 
    5370 000003cd 610C          B         $C$L69,EQ             ; [CPU_] |267| 
    5371                      ; branchcc occurs ; [] |267| 
    5372                      .dwpsn  file "C:/Users/wmj/Desktop/BM1000_v1.1/sw/modules/ctrl/src/32b/ctrl.h",line 2592,column 10,is
    5373 000003ce D018          MOVB      XAR0,#24              ; [CPU_] |2592| 
TMS320C2000 Assembler PC v15.12.3 Wed Nov 22 00:56:17 2017

Tools Copyright (c) 1996-2015 Texas Instruments Incorporated
C:\Users\wmj\AppData\Local\Temp\0070810                              PAGE  104

    5374 000003cf 8A93          MOVL      XAR4,*+XAR3[AR0]      ; [CPU_] |2592| 
    5375              $C$DW$395       .dwtag  DW_TAG_TI_branch
    5376                      .dwattr $C$DW$395, DW_AT_low_pc(0x00)
    5377                      .dwattr $C$DW$395, DW_AT_name("_EST_getOneOverDcBus_pu")
    5378                      .dwattr $C$DW$395, DW_AT_TI_call
    5379              
    5380 000003d0 7640!         LCR       #_EST_getOneOverDcBus_pu ; [CPU_] |2592| 
         000003d1 0000 
    5381                      ; call occurs [#_EST_getOneOverDcBus_pu] ; [] |2592| 
    5382 000003d2 B2AC          MOVL      XT,XAR1               ; [CPU_] |2592| 
    5383 000003d3 5605          IMPYL     P,XT,ACC              ; [CPU_] |2592| 
         000003d4 00A9 
    5384 000003d5 5663          QMPYL     ACC,XT,ACC            ; [CPU_] |2592| 
         000003d6 00A9 
    5385 000003d7 56A7          LSL64     ACC:P,#8              ; [CPU_] |2592| 
    5386 000003d8 8BA9          MOVL      XAR1,ACC              ; [CPU_] |2592| 
    5387 000003d9       $C$L69:    
    5388                      .dwpsn  file "C:/Users/wmj/Desktop/BM1000_v1.1/sw/modules/pid/src/32b/pid.h",line 346,column 3,is_stm
    5389 000003d9 D020          MOVB      XAR0,#32              ; [CPU_] |346| 
    5390 000003da 8A93          MOVL      XAR4,*+XAR3[AR0]      ; [CPU_] |346| 
    5391                      .dwpsn  file "C:/Users/wmj/Desktop/BM1000_v1.1/sw/drivers/drvic/brake.h",line 42,column 3,is_stmt,isa
    5392 000003db D0FE          MOVB      XAR0,#254             ; [CPU_] |42| 
    5393                      .dwpsn  file "C:/Users/wmj/Desktop/BM1000_v1.1/sw/modules/pid/src/32b/pid.h",line 346,column 3,is_stm
    5394 000003dc B2C4          MOVL      *+XAR4[0],XAR1        ; [CPU_] |346| 
    5395                      .dwpsn  file "C:/Users/wmj/Desktop/BM1000_v1.1/sw/drivers/drvic/brake.h",line 42,column 3,is_stmt,isa
    5396 000003dd 8A93          MOVL      XAR4,*+XAR3[AR0]      ; [CPU_] |42| 
    5397                      .dwpsn  file "C:/Users/wmj/Desktop/BM1000_v1.1/sw/drivers/drvic/brake.h",line 56,column 3,is_stmt,isa
    5398 000003de 92F4          MOV       AL,*+XAR4[6]          ; [CPU_] |56| 
    5399 000003df 6103          B         $C$L70,EQ             ; [CPU_] |56| 
    5400                      ; branchcc occurs ; [] |56| 
    5401 000003e0 06D4          MOVL      ACC,*+XAR4[2]         ; [CPU_] |56| 
    5402 000003e1 6F06          B         $C$L71,UNC            ; [CPU_] |56| 
    5403                      ; branch occurs ; [] |56| 
    5404 000003e2       $C$L70:    
    5405 000003e2 D060          MOVB      XAR0,#96              ; [CPU_] |56| 
    5406 000003e3 8A93          MOVL      XAR4,*+XAR3[AR0]      ; [CPU_] |56| 
    5407 000003e4 D0E2          MOVB      XAR0,#226             ; [CPU_] |56| 
    5408 000003e5 0693          MOVL      ACC,*+XAR3[AR0]       ; [CPU_] |56| 
    5409 000003e6 07D4          ADDL      ACC,*+XAR4[2]         ; [CPU_] |56| 
    5410 000003e7       $C$L71:    
    5411                      .dwpsn  file "C:/Users/wmj/Desktop/BM1000_v1.1/sw/modules/ctrl/src/32b/ctrl.h",line 2608,column 6,is_
    5412 000003e7 5DAD          MOVZ      AR5,SP                ; [CPU_] |2608| 
    5413                      .dwpsn  file "C:/Users/wmj/Desktop/BM1000_v1.1/sw/drivers/drvic/brake.h",line 56,column 3,is_stmt,isa
    5414 000003e8 1E46          MOVL      *-SP[6],ACC           ; [CPU_] |56| 
    5415                      .dwpsn  file "C:/Users/wmj/Desktop/BM1000_v1.1/sw/modules/ctrl/src/32b/ctrl.h",line 2608,column 6,is_
    5416 000003e9 D018          MOVB      XAR0,#24              ; [CPU_] |2608| 
    5417 000003ea 8A93          MOVL      XAR4,*+XAR3[AR0]      ; [CPU_] |2608| 
    5418 000003eb DD86          SUBB      XAR5,#6               ; [CPU_U] |2608| 
    5419 000003ec 5DA5          MOVZ      AR5,AR5               ; [CPU_] |2608| 
    5420              $C$DW$396       .dwtag  DW_TAG_TI_branch
    5421                      .dwattr $C$DW$396, DW_AT_low_pc(0x00)
    5422                      .dwattr $C$DW$396, DW_AT_name("_EST_updateId_ref_pu")
    5423                      .dwattr $C$DW$396, DW_AT_TI_call
    5424              
    5425 000003ed 7640!         LCR       #_EST_updateId_ref_pu ; [CPU_] |2608| 
TMS320C2000 Assembler PC v15.12.3 Wed Nov 22 00:56:17 2017

Tools Copyright (c) 1996-2015 Texas Instruments Incorporated
C:\Users\wmj\AppData\Local\Temp\0070810                              PAGE  105

         000003ee 0000 
    5426                      ; call occurs [#_EST_updateId_ref_pu] ; [] |2608| 
    5427                      .dwpsn  file "C:/Users/wmj/Desktop/BM1000_v1.1/sw/modules/ctrl/src/32b/ctrl.h",line 366,column 3,is_s
    5428 000003ef D0B2          MOVB      XAR0,#178             ; [CPU_] |366| 
    5429 000003f0 C493          MOVL      XAR6,*+XAR3[AR0]      ; [CPU_] |366| 
    5430                      .dwpsn  file "C:/Users/wmj/Desktop/BM1000_v1.1/sw/modules/pid/src/32b/pid.h",line 358,column 16,is_st
    5431 000003f1 D020          MOVB      XAR0,#32              ; [CPU_] |358| 
    5432 000003f2 8A93          MOVL      XAR4,*+XAR3[AR0]      ; [CPU_] |358| 
    5433                      .dwpsn  file "C:/Users/wmj/Desktop/BM1000_v1.1/sw/modules/pid/src/32b/pid.h",line 360,column 3,is_stm
    5434 000003f3 0654          MOVL      ACC,*-SP[20]          ; [CPU_] |360| 
    5435 000003f4 FF54          NEG       ACC                   ; [CPU_] |360| 
    5436 000003f5 D00C          MOVB      XAR0,#12              ; [CPU_] |360| 
    5437 000003f6 1E94          MOVL      *+XAR4[AR0],ACC       ; [CPU_] |360| 
    5438                      .dwpsn  file "C:/Users/wmj/Desktop/BM1000_v1.1/sw/modules/pid/src/32b/pid.h",line 361,column 3,is_stm
    5439 000003f7 D00E          MOVB      XAR0,#14              ; [CPU_] |361| 
    5440 000003f8 0654          MOVL      ACC,*-SP[20]          ; [CPU_] |361| 
    5441 000003f9 1E94          MOVL      *+XAR4[AR0],ACC       ; [CPU_] |361| 
    5442                      .dwpsn  file "C:/Users/wmj/Desktop/BM1000_v1.1/sw/modules/pid/src/32b/pid.h",line 233,column 16,is_st
    5443 000003fa D020          MOVB      XAR0,#32              ; [CPU_] |233| 
    5444 000003fb 8A93          MOVL      XAR4,*+XAR3[AR0]      ; [CPU_] |233| 
    5445                      .dwpsn  file "C:/Users/wmj/Desktop/BM1000_v1.1/sw/modules/pid/src/32b/pid.h",line 242,column 3,is_stm
    5446 000003fc 0646          MOVL      ACC,*-SP[6]           ; [CPU_] |242| 
    5447 000003fd 03A6          SUBL      ACC,XAR6              ; [CPU_] |242| 
    5448 000003fe 87C4          MOVL      XT,*+XAR4[0]          ; [CPU_] |242| 
    5449 000003ff 5605          IMPYL     P,XT,ACC              ; [CPU_] |242| 
         00000400 00A9 
    5450 00000401 5663          QMPYL     ACC,XT,ACC            ; [CPU_] |242| 
         00000402 00A9 
    5451 00000403 56A7          LSL64     ACC:P,#8              ; [CPU_] |242| 
    5452 00000404 1EA7          MOVL      XAR7,ACC              ; [CPU_] |242| 
    5453                      .dwpsn  file "C:/Users/wmj/Desktop/BM1000_v1.1/sw/modules/pid/src/32b/pid.h",line 243,column 3,is_stm
    5454 00000405 D10E          MOVB      XAR1,#14              ; [CPU_] |243| 
    5455 00000406 D00C          MOVB      XAR0,#12              ; [CPU_] |243| 
    5456 00000407 87D4          MOVL      XT,*+XAR4[2]          ; [CPU_] |243| 
    5457 00000408 5605          IMPYL     P,XT,XAR7             ; [CPU_] |243| 
         00000409 00A7 
    5458 0000040a 5663          QMPYL     ACC,XT,XAR7           ; [CPU_] |243| 
         0000040b 00A7 
    5459 0000040c 56A7          LSL64     ACC:P,#8              ; [CPU_] |243| 
    5460 0000040d 07F4          ADDL      ACC,*+XAR4[6]         ; [CPU_] |243| 
    5461 0000040e 5650          MINL      ACC,*+XAR4[AR1]       ; [CPU_] |243| 
         0000040f 009C 
    5462                      .dwpsn  file "C:/Users/wmj/Desktop/BM1000_v1.1/sw/modules/pid/src/32b/pid.h",line 249,column 3,is_stm
    5463 00000410 D10E          MOVB      XAR1,#14              ; [CPU_] |249| 
    5464                      .dwpsn  file "C:/Users/wmj/Desktop/BM1000_v1.1/sw/modules/pid/src/32b/pid.h",line 243,column 3,is_stm
    5465 00000411 5661          MAXL      ACC,*+XAR4[AR0]       ; [CPU_] |243| 
         00000412 0094 
    5466                      .dwpsn  file "C:/Users/wmj/Desktop/BM1000_v1.1/sw/modules/pid/src/32b/pid.h",line 246,column 3,is_stm
    5467 00000413 D008          MOVB      XAR0,#8               ; [CPU_] |246| 
    5468                      .dwpsn  file "C:/Users/wmj/Desktop/BM1000_v1.1/sw/modules/pid/src/32b/pid.h",line 245,column 3,is_stm
    5469 00000414 1EF4          MOVL      *+XAR4[6],ACC         ; [CPU_] |245| 
    5470                      .dwpsn  file "C:/Users/wmj/Desktop/BM1000_v1.1/sw/modules/pid/src/32b/pid.h",line 246,column 3,is_stm
    5471 00000415 A346          MOVL      P,*-SP[6]             ; [CPU_] |246| 
    5472                      .dwpsn  file "C:/Users/wmj/Desktop/BM1000_v1.1/sw/modules/pid/src/32b/pid.h",line 249,column 3,is_stm
    5473 00000416 07A7          ADDL      ACC,XAR7              ; [CPU_] |249| 
TMS320C2000 Assembler PC v15.12.3 Wed Nov 22 00:56:17 2017

Tools Copyright (c) 1996-2015 Texas Instruments Incorporated
C:\Users\wmj\AppData\Local\Temp\0070810                              PAGE  106

    5474                      .dwpsn  file "C:/Users/wmj/Desktop/BM1000_v1.1/sw/modules/pid/src/32b/pid.h",line 246,column 3,is_stm
    5475 00000417 A994          MOVL      *+XAR4[AR0],P         ; [CPU_] |246| 
    5476                      .dwpsn  file "C:/Users/wmj/Desktop/BM1000_v1.1/sw/modules/pid/src/32b/pid.h",line 247,column 3,is_stm
    5477 00000418 D00A          MOVB      XAR0,#10              ; [CPU_] |247| 
    5478 00000419 C294          MOVL      *+XAR4[AR0],XAR6      ; [CPU_] |247| 
    5479                      .dwpsn  file "C:/Users/wmj/Desktop/BM1000_v1.1/sw/modules/pid/src/32b/pid.h",line 249,column 3,is_stm
    5480 0000041a D00C          MOVB      XAR0,#12              ; [CPU_] |249| 
    5481 0000041b 5650          MINL      ACC,*+XAR4[AR1]       ; [CPU_] |249| 
         0000041c 009C 
    5482 0000041d 5661          MAXL      ACC,*+XAR4[AR0]       ; [CPU_] |249| 
         0000041e 0094 
    5483 0000041f D0C0          MOVB      XAR0,#192             ; [CPU_] |249| 
    5484 00000420 1E93          MOVL      *+XAR3[AR0],ACC       ; [CPU_] |249| 
    5485                      .dwpsn  file "C:/Users/wmj/Desktop/BM1000_v1.1/sw/modules/ctrl/src/32b/ctrl.h",line 267,column 3,is_s
    5486 00000421 D0F1          MOVB      XAR0,#241             ; [CPU_] |267| 
    5487 00000422 9293          MOV       AL,*+XAR3[AR0]        ; [CPU_] |267| 
    5488 00000423 610C          B         $C$L72,EQ             ; [CPU_] |267| 
    5489                      ; branchcc occurs ; [] |267| 
    5490                      .dwpsn  file "C:/Users/wmj/Desktop/BM1000_v1.1/sw/modules/ctrl/src/32b/ctrl.h",line 2630,column 10,is
    5491 00000424 D018          MOVB      XAR0,#24              ; [CPU_] |2630| 
    5492 00000425 8A93          MOVL      XAR4,*+XAR3[AR0]      ; [CPU_] |2630| 
    5493              $C$DW$397       .dwtag  DW_TAG_TI_branch
    5494                      .dwattr $C$DW$397, DW_AT_low_pc(0x00)
    5495                      .dwattr $C$DW$397, DW_AT_name("_EST_getOneOverDcBus_pu")
    5496                      .dwattr $C$DW$397, DW_AT_TI_call
    5497              
    5498 00000426 7640!         LCR       #_EST_getOneOverDcBus_pu ; [CPU_] |2630| 
         00000427 0000 
    5499                      ; call occurs [#_EST_getOneOverDcBus_pu] ; [] |2630| 
    5500 00000428 8752          MOVL      XT,*-SP[18]           ; [CPU_] |2630| 
    5501 00000429 5605          IMPYL     P,XT,ACC              ; [CPU_] |2630| 
         0000042a 00A9 
    5502 0000042b 5663          QMPYL     ACC,XT,ACC            ; [CPU_] |2630| 
         0000042c 00A9 
    5503 0000042d 56A7          LSL64     ACC:P,#8              ; [CPU_] |2630| 
    5504 0000042e 1E52          MOVL      *-SP[18],ACC          ; [CPU_] |2630| 
    5505 0000042f       $C$L72:    
    5506                      .dwpsn  file "C:/Users/wmj/Desktop/BM1000_v1.1/sw/modules/pid/src/32b/pid.h",line 346,column 3,is_stm
    5507 0000042f D032          MOVB      XAR0,#50              ; [CPU_] |346| 
    5508 00000430 8A93          MOVL      XAR4,*+XAR3[AR0]      ; [CPU_] |346| 
    5509 00000431 0652          MOVL      ACC,*-SP[18]          ; [CPU_] |346| 
    5510                      .dwpsn  file "C:/Users/wmj/Desktop/BM1000_v1.1/sw/drivers/drvic/brake.h",line 42,column 3,is_stmt,isa
    5511 00000432 D0FE          MOVB      XAR0,#254             ; [CPU_] |42| 
    5512                      .dwpsn  file "C:/Users/wmj/Desktop/BM1000_v1.1/sw/modules/pid/src/32b/pid.h",line 346,column 3,is_stm
    5513 00000433 1EC4          MOVL      *+XAR4[0],ACC         ; [CPU_] |346| 
    5514                      .dwpsn  file "C:/Users/wmj/Desktop/BM1000_v1.1/sw/drivers/drvic/brake.h",line 42,column 3,is_stmt,isa
    5515 00000434 8A93          MOVL      XAR4,*+XAR3[AR0]      ; [CPU_] |42| 
    5516 00000435 92F4          MOV       AL,*+XAR4[6]          ; [CPU_] |42| 
    5517 00000436 600C          B         $C$L74,NEQ            ; [CPU_] |42| 
    5518                      ; branchcc occurs ; [] |42| 
    5519                      .dwpsn  file "C:/Users/wmj/Desktop/BM1000_v1.1/sw/modules/ctrl/src/32b/ctrl.h",line 300,column 3,is_s
    5520 00000437 D0F4          MOVB      XAR0,#244             ; [CPU_] |300| 
    5521 00000438 9293          MOV       AL,*+XAR3[AR0]        ; [CPU_] |300| 
    5522 00000439 6004          B         $C$L73,NEQ            ; [CPU_] |300| 
    5523                      ; branchcc occurs ; [] |300| 
TMS320C2000 Assembler PC v15.12.3 Wed Nov 22 00:56:17 2017

Tools Copyright (c) 1996-2015 Texas Instruments Incorporated
C:\Users\wmj\AppData\Local\Temp\0070810                              PAGE  107

    5524                      .dwpsn  file "C:/Users/wmj/Desktop/BM1000_v1.1/sw/modules/ctrl/src/32b/ctrl.h",line 455,column 3,is_s
    5525 0000043a D0E4          MOVB      XAR0,#228             ; [CPU_] |455| 
    5526 0000043b 0693          MOVL      ACC,*+XAR3[AR0]       ; [CPU_] |455| 
    5527 0000043c 6F07          B         $C$L75,UNC            ; [CPU_] |455| 
    5528                      ; branch occurs ; [] |455| 
    5529 0000043d       $C$L73:    
    5530                      .dwpsn  file "C:/Users/wmj/Desktop/BM1000_v1.1/sw/modules/ctrl/src/32b/ctrl.h",line 764,column 3,is_s
    5531 0000043d D0BA          MOVB      XAR0,#186             ; [CPU_] |764| 
    5532 0000043e 0693          MOVL      ACC,*+XAR3[AR0]       ; [CPU_] |764| 
    5533 0000043f 1E46          MOVL      *-SP[6],ACC           ; [CPU_] |764| 
    5534                      .dwpsn  file "C:/Users/wmj/Desktop/BM1000_v1.1/sw/drivers/drvic/brake.h",line 81,column 3,is_stmt,isa
    5535 00000440 1EE4          MOVL      *+XAR4[4],ACC         ; [CPU_] |81| 
    5536                      .dwpsn  file "C:/Users/wmj/Desktop/BM1000_v1.1/sw/drivers/drvic/brake.h",line 83,column 3,is_stmt,isa
    5537 00000441 6F03          B         $C$L76,UNC            ; [CPU_] |83| 
    5538                      ; branch occurs ; [] |83| 
    5539 00000442       $C$L74:    
    5540                      .dwpsn  file "C:/Users/wmj/Desktop/BM1000_v1.1/sw/drivers/drvic/brake.h",line 63,column 3,is_stmt,isa
    5541 00000442 06E4          MOVL      ACC,*+XAR4[4]         ; [CPU_] |63| 
    5542 00000443       $C$L75:    
    5543 00000443 1E46          MOVL      *-SP[6],ACC           ; [CPU_] |63| 
    5544 00000444       $C$L76:    
    5545                      .dwpsn  file "C:/Users/wmj/Desktop/BM1000_v1.1/sw/modules/ctrl/src/32b/ctrl.h",line 433,column 3,is_s
    5546 00000444 D0B4          MOVB      XAR0,#180             ; [CPU_] |433| 
    5547 00000445 0693          MOVL      ACC,*+XAR3[AR0]       ; [CPU_] |433| 
    5548                      .dwpsn  file "C:/Users/wmj/Desktop/BM1000_v1.1/sw/modules/ctrl/src/32b/ctrl.h",line 2658,column 6,is_
    5549 00000446 D1C0          MOVB      XAR1,#192             ; [CPU_] |2658| 
    5550 00000447 D0C0          MOVB      XAR0,#192             ; [CPU_] |2658| 
    5551                      .dwpsn  file "C:/Users/wmj/Desktop/BM1000_v1.1/sw/modules/ctrl/src/32b/ctrl.h",line 433,column 3,is_s
    5552 00000448 1E52          MOVL      *-SP[18],ACC          ; [CPU_] |433| 
    5553                      .dwpsn  file "C:/Users/wmj/Desktop/BM1000_v1.1/sw/modules/ctrl/src/32b/ctrl.h",line 2658,column 6,is_
    5554 00000449 879B          MOVL      XT,*+XAR3[AR1]        ; [CPU_] |2658| 
    5555 0000044a 5605          IMPYL     P,XT,*+XAR3[AR0]      ; [CPU_] |2658| 
         0000044b 0093 
    5556 0000044c 5663          QMPYL     ACC,XT,*+XAR3[AR0]    ; [CPU_] |2658| 
         0000044d 0093 
    5557 0000044e 8754          MOVL      XT,*-SP[20]           ; [CPU_] |2658| 
    5558 0000044f 56A7          LSL64     ACC:P,#8              ; [CPU_] |2658| 
    5559 00000450 1EA6          MOVL      XAR6,ACC              ; [CPU_] |2658| 
    5560 00000451 0654          MOVL      ACC,*-SP[20]          ; [CPU_] |2658| 
    5561 00000452 5605          IMPYL     P,XT,ACC              ; [CPU_] |2658| 
         00000453 00A9 
    5562 00000454 5663          QMPYL     ACC,XT,ACC            ; [CPU_] |2658| 
         00000455 00A9 
    5563 00000456 56A7          LSL64     ACC:P,#8              ; [CPU_] |2658| 
    5564 00000457 03A6          SUBL      ACC,XAR6              ; [CPU_] |2658| 
    5565              $C$DW$398       .dwtag  DW_TAG_TI_branch
    5566                      .dwattr $C$DW$398, DW_AT_low_pc(0x00)
    5567                      .dwattr $C$DW$398, DW_AT_name("__IQ24sqrt")
    5568                      .dwattr $C$DW$398, DW_AT_TI_call
    5569              
    5570 00000458 7640!         LCR       #__IQ24sqrt           ; [CPU_] |2658| 
         00000459 0000 
    5571                      ; call occurs [#__IQ24sqrt] ; [] |2658| 
    5572                      .dwpsn  file "C:/Users/wmj/Desktop/BM1000_v1.1/sw/modules/pid/src/32b/pid.h",line 358,column 16,is_st
    5573 0000045a D032          MOVB      XAR0,#50              ; [CPU_] |358| 
TMS320C2000 Assembler PC v15.12.3 Wed Nov 22 00:56:17 2017

Tools Copyright (c) 1996-2015 Texas Instruments Incorporated
C:\Users\wmj\AppData\Local\Temp\0070810                              PAGE  108

    5574 0000045b 8A93          MOVL      XAR4,*+XAR3[AR0]      ; [CPU_] |358| 
    5575                      .dwpsn  file "C:/Users/wmj/Desktop/BM1000_v1.1/sw/modules/ctrl/src/32b/ctrl.h",line 2658,column 6,is_
    5576 0000045c 1EA6          MOVL      XAR6,ACC              ; [CPU_] |2658| 
    5577                      .dwpsn  file "C:/Users/wmj/Desktop/BM1000_v1.1/sw/modules/pid/src/32b/pid.h",line 360,column 3,is_stm
    5578 0000045d D00C          MOVB      XAR0,#12              ; [CPU_] |360| 
    5579 0000045e FF54          NEG       ACC                   ; [CPU_] |360| 
    5580 0000045f 1E94          MOVL      *+XAR4[AR0],ACC       ; [CPU_] |360| 
    5581                      .dwpsn  file "C:/Users/wmj/Desktop/BM1000_v1.1/sw/modules/pid/src/32b/pid.h",line 361,column 3,is_stm
    5582 00000460 D00E          MOVB      XAR0,#14              ; [CPU_] |361| 
    5583 00000461 C294          MOVL      *+XAR4[AR0],XAR6      ; [CPU_] |361| 
    5584 00000462 C452          MOVL      XAR6,*-SP[18]         ; [CPU_] |361| 
    5585                      .dwpsn  file "C:/Users/wmj/Desktop/BM1000_v1.1/sw/modules/pid/src/32b/pid.h",line 233,column 16,is_st
    5586 00000463 D032          MOVB      XAR0,#50              ; [CPU_] |233| 
    5587 00000464 8A93          MOVL      XAR4,*+XAR3[AR0]      ; [CPU_] |233| 
    5588                      .dwpsn  file "C:/Users/wmj/Desktop/BM1000_v1.1/sw/modules/pid/src/32b/pid.h",line 242,column 3,is_stm
    5589 00000465 0646          MOVL      ACC,*-SP[6]           ; [CPU_] |242| 
    5590 00000466 03A6          SUBL      ACC,XAR6              ; [CPU_] |242| 
    5591 00000467 87C4          MOVL      XT,*+XAR4[0]          ; [CPU_] |242| 
    5592 00000468 5605          IMPYL     P,XT,ACC              ; [CPU_] |242| 
         00000469 00A9 
    5593 0000046a 5663          QMPYL     ACC,XT,ACC            ; [CPU_] |242| 
         0000046b 00A9 
    5594 0000046c 56A7          LSL64     ACC:P,#8              ; [CPU_] |242| 
    5595 0000046d 1EA7          MOVL      XAR7,ACC              ; [CPU_] |242| 
    5596                      .dwpsn  file "C:/Users/wmj/Desktop/BM1000_v1.1/sw/modules/pid/src/32b/pid.h",line 243,column 3,is_stm
    5597 0000046e D10E          MOVB      XAR1,#14              ; [CPU_] |243| 
    5598 0000046f D00C          MOVB      XAR0,#12              ; [CPU_] |243| 
    5599 00000470 87D4          MOVL      XT,*+XAR4[2]          ; [CPU_] |243| 
    5600 00000471 5605          IMPYL     P,XT,XAR7             ; [CPU_] |243| 
         00000472 00A7 
    5601 00000473 5663          QMPYL     ACC,XT,XAR7           ; [CPU_] |243| 
         00000474 00A7 
    5602 00000475 56A7          LSL64     ACC:P,#8              ; [CPU_] |243| 
    5603 00000476 07F4          ADDL      ACC,*+XAR4[6]         ; [CPU_] |243| 
    5604 00000477 5650          MINL      ACC,*+XAR4[AR1]       ; [CPU_] |243| 
         00000478 009C 
    5605                      .dwpsn  file "C:/Users/wmj/Desktop/BM1000_v1.1/sw/modules/pid/src/32b/pid.h",line 249,column 3,is_stm
    5606 00000479 D10E          MOVB      XAR1,#14              ; [CPU_] |249| 
    5607                      .dwpsn  file "C:/Users/wmj/Desktop/BM1000_v1.1/sw/modules/pid/src/32b/pid.h",line 243,column 3,is_stm
    5608 0000047a 5661          MAXL      ACC,*+XAR4[AR0]       ; [CPU_] |243| 
         0000047b 0094 
    5609                      .dwpsn  file "C:/Users/wmj/Desktop/BM1000_v1.1/sw/modules/pid/src/32b/pid.h",line 246,column 3,is_stm
    5610 0000047c D008          MOVB      XAR0,#8               ; [CPU_] |246| 
    5611                      .dwpsn  file "C:/Users/wmj/Desktop/BM1000_v1.1/sw/modules/pid/src/32b/pid.h",line 245,column 3,is_stm
    5612 0000047d 1EF4          MOVL      *+XAR4[6],ACC         ; [CPU_] |245| 
    5613                      .dwpsn  file "C:/Users/wmj/Desktop/BM1000_v1.1/sw/modules/pid/src/32b/pid.h",line 246,column 3,is_stm
    5614 0000047e A346          MOVL      P,*-SP[6]             ; [CPU_] |246| 
    5615                      .dwpsn  file "C:/Users/wmj/Desktop/BM1000_v1.1/sw/modules/pid/src/32b/pid.h",line 249,column 3,is_stm
    5616 0000047f 07A7          ADDL      ACC,XAR7              ; [CPU_] |249| 
    5617                      .dwpsn  file "C:/Users/wmj/Desktop/BM1000_v1.1/sw/modules/pid/src/32b/pid.h",line 246,column 3,is_stm
    5618 00000480 A994          MOVL      *+XAR4[AR0],P         ; [CPU_] |246| 
    5619                      .dwpsn  file "C:/Users/wmj/Desktop/BM1000_v1.1/sw/modules/pid/src/32b/pid.h",line 247,column 3,is_stm
    5620 00000481 D00A          MOVB      XAR0,#10              ; [CPU_] |247| 
    5621 00000482 C294          MOVL      *+XAR4[AR0],XAR6      ; [CPU_] |247| 
    5622                      .dwpsn  file "C:/Users/wmj/Desktop/BM1000_v1.1/sw/modules/pid/src/32b/pid.h",line 249,column 3,is_stm
TMS320C2000 Assembler PC v15.12.3 Wed Nov 22 00:56:17 2017

Tools Copyright (c) 1996-2015 Texas Instruments Incorporated
C:\Users\wmj\AppData\Local\Temp\0070810                              PAGE  109

    5623 00000483 D00C          MOVB      XAR0,#12              ; [CPU_] |249| 
    5624 00000484 5650          MINL      ACC,*+XAR4[AR1]       ; [CPU_] |249| 
         00000485 009C 
    5625 00000486 5661          MAXL      ACC,*+XAR4[AR0]       ; [CPU_] |249| 
         00000487 0094 
    5626 00000488 D0C2          MOVB      XAR0,#194             ; [CPU_] |249| 
    5627 00000489 1E93          MOVL      *+XAR3[AR0],ACC       ; [CPU_] |249| 
    5628 0000048a       $C$L77:    
    5629                      .dwpsn  file "C:/Users/wmj/Desktop/BM1000_v1.1/sw/modules/ctrl/src/32b/ctrl.h",line 2195,column 21,is
    5630 0000048a D018          MOVB      XAR0,#24              ; [CPU_] |2195| 
    5631 0000048b 8A93          MOVL      XAR4,*+XAR3[AR0]      ; [CPU_] |2195| 
    5632              $C$DW$399       .dwtag  DW_TAG_TI_branch
    5633                      .dwattr $C$DW$399, DW_AT_low_pc(0x00)
    5634                      .dwattr $C$DW$399, DW_AT_name("_EST_getFm_pu")
    5635                      .dwattr $C$DW$399, DW_AT_TI_call
    5636              
    5637 0000048c 7640!         LCR       #_EST_getFm_pu        ; [CPU_] |2195| 
         0000048d 0000 
    5638                      ; call occurs [#_EST_getFm_pu] ; [] |2195| 
    5639 0000048e 8F02          MOVL      XAR4,#167772          ; [CPU_U] |2195| 
         0000048f 8F5C 
    5640 00000490 1EAC          MOVL      XT,ACC                ; [CPU_] |2195| 
    5641 00000491 5605          IMPYL     P,XT,XAR4             ; [CPU_] |2195| 
         00000492 00A4 
    5642 00000493 5663          QMPYL     ACC,XT,XAR4           ; [CPU_] |2195| 
         00000494 00A4 
    5643 00000495 56A7          LSL64     ACC:P,#8              ; [CPU_] |2195| 
    5644 00000496 1EAC          MOVL      XT,ACC                ; [CPU_] |2195| 
    5645                      .dwpsn  file "C:/Users/wmj/Desktop/BM1000_v1.1/sw/modules/ctrl/src/32b/ctrl.h",line 2208,column 3,is_
    5646 00000497 FF2F          MOV       ACC,#1536 << 15       ; [CPU_] |2208| 
         00000498 0600 
    5647 00000499 5605          IMPYL     P,XT,ACC              ; [CPU_] |2208| 
         0000049a 00A9 
    5648 0000049b 5663          QMPYL     ACC,XT,ACC            ; [CPU_] |2208| 
         0000049c 00A9 
    5649 0000049d 56A7          LSL64     ACC:P,#8              ; [CPU_] |2208| 
    5650 0000049e 07A2          ADDL      ACC,XAR2              ; [CPU_] |2208| 
    5651 0000049f 1EA6          MOVL      XAR6,ACC              ; [CPU_] |2208| 
    5652 000004a0 FF56          ABS       ACC                   ; [CPU_] |2208| 
    5653 000004a1 91FF          ANDB      AH,#255               ; [CPU_] |2208| 
    5654 000004a2 8BA9          MOVL      XAR1,ACC              ; [CPU_] |2208| 
    5655 000004a3 06A6          MOVL      ACC,XAR6              ; [CPU_] |2208| 
    5656                      .dwpsn  file "C:/Users/wmj/Desktop/BM1000_v1.1/sw/modules/ctrl/src/32b/ctrl.h",line 2211,column 3,is_
    5657 000004a4 6304          B         $C$L78,GEQ            ; [CPU_] |2211| 
    5658                      ; branchcc occurs ; [] |2211| 
    5659                      .dwpsn  file "C:/Users/wmj/Desktop/BM1000_v1.1/sw/modules/ctrl/src/32b/ctrl.h",line 2213,column 7,is_
    5660 000004a5 B2A9          MOVL      ACC,XAR1              ; [CPU_] |2213| 
    5661 000004a6 FF54          NEG       ACC                   ; [CPU_] |2213| 
    5662 000004a7 8BA9          MOVL      XAR1,ACC              ; [CPU_] |2213| 
    5663 000004a8       $C$L78:    
    5664                      .dwpsn  file "C:/Users/wmj/Desktop/BM1000_v1.1/sw/modules/ctrl/src/32b/ctrl.h",line 2109,column 3,is_
    5665 000004a8 B2A9          MOVL      ACC,XAR1              ; [CPU_] |2109| 
    5666              $C$DW$400       .dwtag  DW_TAG_TI_branch
    5667                      .dwattr $C$DW$400, DW_AT_low_pc(0x00)
    5668                      .dwattr $C$DW$400, DW_AT_name("__IQ24cosPU")
TMS320C2000 Assembler PC v15.12.3 Wed Nov 22 00:56:17 2017

Tools Copyright (c) 1996-2015 Texas Instruments Incorporated
C:\Users\wmj\AppData\Local\Temp\0070810                              PAGE  110

    5669                      .dwattr $C$DW$400, DW_AT_TI_call
    5670              
    5671 000004a9 7640!         LCR       #__IQ24cosPU          ; [CPU_] |2109| 
         000004aa 0000 
    5672                      ; call occurs [#__IQ24cosPU] ; [] |2109| 
    5673 000004ab 1E50          MOVL      *-SP[16],ACC          ; [CPU_] |2109| 
    5674                      .dwpsn  file "C:/Users/wmj/Desktop/BM1000_v1.1/sw/modules/ctrl/src/32b/ctrl.h",line 2110,column 3,is_
    5675 000004ac B2A9          MOVL      ACC,XAR1              ; [CPU_] |2110| 
    5676              $C$DW$401       .dwtag  DW_TAG_TI_branch
    5677                      .dwattr $C$DW$401, DW_AT_low_pc(0x00)
    5678                      .dwattr $C$DW$401, DW_AT_name("__IQ24sinPU")
    5679                      .dwattr $C$DW$401, DW_AT_TI_call
    5680              
    5681 000004ad 7640!         LCR       #__IQ24sinPU          ; [CPU_] |2110| 
         000004ae 0000 
    5682                      ; call occurs [#__IQ24sinPU] ; [] |2110| 
    5683                      .dwpsn  file "C:/Users/wmj/Desktop/BM1000_v1.1/sw/modules/ipark/src/32b/ipark.h",line 173,column 18,i
    5684 000004af D056          MOVB      XAR0,#86              ; [CPU_] |173| 
    5685                      .dwpsn  file "C:/Users/wmj/Desktop/BM1000_v1.1/sw/modules/ctrl/src/32b/ctrl.h",line 2110,column 3,is_
    5686 000004b0 1E4E          MOVL      *-SP[14],ACC          ; [CPU_] |2110| 
    5687                      .dwpsn  file "C:/Users/wmj/Desktop/BM1000_v1.1/sw/modules/ipark/src/32b/ipark.h",line 173,column 18,i
    5688 000004b1 8A93          MOVL      XAR4,*+XAR3[AR0]      ; [CPU_] |173| 
    5689                      .dwpsn  file "C:/Users/wmj/Desktop/BM1000_v1.1/sw/modules/ipark/src/32b/ipark.h",line 175,column 3,is
    5690 000004b2 0650          MOVL      ACC,*-SP[16]          ; [CPU_] |175| 
    5691                      .dwpsn  file "C:/Users/wmj/Desktop/BM1000_v1.1/sw/modules/ipark/src/32b/ipark.h",line 141,column 13,i
    5692 000004b3 D056          MOVB      XAR0,#86              ; [CPU_] |141| 
    5693                      .dwpsn  file "C:/Users/wmj/Desktop/BM1000_v1.1/sw/modules/ipark/src/32b/ipark.h",line 175,column 3,is
    5694 000004b4 1ED4          MOVL      *+XAR4[2],ACC         ; [CPU_] |175| 
    5695                      .dwpsn  file "C:/Users/wmj/Desktop/BM1000_v1.1/sw/modules/ipark/src/32b/ipark.h",line 176,column 3,is
    5696 000004b5 064E          MOVL      ACC,*-SP[14]          ; [CPU_] |176| 
    5697 000004b6 1EC4          MOVL      *+XAR4[0],ACC         ; [CPU_] |176| 
    5698                      .dwpsn  file "C:/Users/wmj/Desktop/BM1000_v1.1/sw/modules/ipark/src/32b/ipark.h",line 141,column 13,i
    5699 000004b7 8A93          MOVL      XAR4,*+XAR3[AR0]      ; [CPU_] |141| 
    5700                      .dwpsn  file "C:/Users/wmj/Desktop/BM1000_v1.1/sw/modules/ipark/src/32b/ipark.h",line 144,column 15,i
    5701 000004b8 A2A9          MOVL      ACC,XAR3              ; [CPU_] |144| 
    5702 000004b9 09C0          ADDB      ACC,#192              ; [CPU_] |144| 
    5703                      .dwpsn  file "C:/Users/wmj/Desktop/BM1000_v1.1/sw/modules/ipark/src/32b/ipark.h",line 141,column 13,i
    5704 000004ba C5C4          MOVL      XAR7,*+XAR4[0]        ; [CPU_] |141| 
    5705                      .dwpsn  file "C:/Users/wmj/Desktop/BM1000_v1.1/sw/modules/ipark/src/32b/ipark.h",line 142,column 13,i
    5706 000004bb C4D4          MOVL      XAR6,*+XAR4[2]        ; [CPU_] |142| 
    5707                      .dwpsn  file "C:/Users/wmj/Desktop/BM1000_v1.1/sw/modules/ipark/src/32b/ipark.h",line 144,column 15,i
    5708 000004bc 8AA9          MOVL      XAR4,ACC              ; [CPU_] |144| 
    5709                      .dwpsn  file "C:/Users/wmj/Desktop/BM1000_v1.1/sw/modules/ipark/src/32b/ipark.h",line 148,column 3,is
    5710 000004bd A2A9          MOVL      ACC,XAR3              ; [CPU_] |148| 
    5711 000004be 09BC          ADDB      ACC,#188              ; [CPU_] |148| 
    5712                      .dwpsn  file "C:/Users/wmj/Desktop/BM1000_v1.1/sw/modules/ipark/src/32b/ipark.h",line 145,column 15,i
    5713 000004bf 8ED4          MOVL      XAR0,*+XAR4[2]        ; [CPU_] |145| 
    5714 000004c0 3B01          SETC      SXM                   ; [CPU_] 
    5715                      .dwpsn  file "C:/Users/wmj/Desktop/BM1000_v1.1/sw/modules/ipark/src/32b/ipark.h",line 144,column 15,i
    5716 000004c1 83C4          MOVL      XAR5,*+XAR4[0]        ; [CPU_] |144| 
    5717                      .dwpsn  file "C:/Users/wmj/Desktop/BM1000_v1.1/sw/modules/ipark/src/32b/ipark.h",line 148,column 3,is
    5718 000004c2 8AA9          MOVL      XAR4,ACC              ; [CPU_] |148| 
    5719 000004c3 3AAC          MOVL      XT,XAR0               ; [CPU_] |148| 
    5720 000004c4 5605          IMPYL     P,XT,XAR7             ; [CPU_] |148| 
         000004c5 00A7 
TMS320C2000 Assembler PC v15.12.3 Wed Nov 22 00:56:17 2017

Tools Copyright (c) 1996-2015 Texas Instruments Incorporated
C:\Users\wmj\AppData\Local\Temp\0070810                              PAGE  111

    5721 000004c6 5663          QMPYL     ACC,XT,XAR7           ; [CPU_] |148| 
         000004c7 00A7 
    5722 000004c8 56A7          LSL64     ACC:P,#8              ; [CPU_] |148| 
    5723 000004c9 A0AC          MOVL      XT,XAR5               ; [CPU_] |148| 
    5724 000004ca 86A9          MOVL      XAR2,ACC              ; [CPU_] |148| 
    5725 000004cb 5605          IMPYL     P,XT,XAR6             ; [CPU_] |148| 
         000004cc 00A6 
    5726 000004cd 5663          QMPYL     ACC,XT,XAR6           ; [CPU_] |148| 
         000004ce 00A6 
    5727 000004cf 56A7          LSL64     ACC:P,#8              ; [CPU_] |148| 
    5728 000004d0 3AAC          MOVL      XT,XAR0               ; [CPU_] |148| 
    5729 000004d1 03A2          SUBL      ACC,XAR2              ; [CPU_] |148| 
    5730                      .dwpsn  file "C:/Users/wmj/Desktop/BM1000_v1.1/sw/modules/svgen/src/32b/svgen.h",line 132,column 3,is
    5731 000004d2 D0BC          MOVB      XAR0,#188             ; [CPU_] |132| 
    5732                      .dwpsn  file "C:/Users/wmj/Desktop/BM1000_v1.1/sw/modules/ipark/src/32b/ipark.h",line 149,column 3,is
    5733 000004d3 5605          IMPYL     P,XT,XAR6             ; [CPU_] |149| 
         000004d4 00A6 
    5734                      .dwpsn  file "C:/Users/wmj/Desktop/BM1000_v1.1/sw/modules/ipark/src/32b/ipark.h",line 148,column 3,is
    5735 000004d5 1EC4          MOVL      *+XAR4[0],ACC         ; [CPU_] |148| 
    5736                      .dwpsn  file "C:/Users/wmj/Desktop/BM1000_v1.1/sw/modules/ipark/src/32b/ipark.h",line 149,column 3,is
    5737 000004d6 5663          QMPYL     ACC,XT,XAR6           ; [CPU_] |149| 
         000004d7 00A6 
    5738 000004d8 56A7          LSL64     ACC:P,#8              ; [CPU_] |149| 
    5739 000004d9 A0AC          MOVL      XT,XAR5               ; [CPU_] |149| 
    5740 000004da 1EA6          MOVL      XAR6,ACC              ; [CPU_] |149| 
    5741 000004db 5605          IMPYL     P,XT,XAR7             ; [CPU_] |149| 
         000004dc 00A7 
    5742 000004dd 5663          QMPYL     ACC,XT,XAR7           ; [CPU_] |149| 
         000004de 00A7 
    5743 000004df 56A7          LSL64     ACC:P,#8              ; [CPU_] |149| 
    5744 000004e0 07A6          ADDL      ACC,XAR6              ; [CPU_] |149| 
    5745 000004e1 1ED4          MOVL      *+XAR4[2],ACC         ; [CPU_] |149| 
    5746                      .dwpsn  file "C:/Users/wmj/Desktop/BM1000_v1.1/sw/modules/svgen/src/32b/svgen.h",line 133,column 3,is
    5747 000004e2 28A9          MOV       AL,#46039             ; [CPU_] |133| 
         000004e3 B3D7 
    5748 000004e4 9BDD          MOV       AH,#221               ; [CPU_] |133| 
    5749 000004e5 1EAC          MOVL      XT,ACC                ; [CPU_] |133| 
    5750                      .dwpsn  file "C:/Users/wmj/Desktop/BM1000_v1.1/sw/modules/svgen/src/32b/svgen.h",line 132,column 3,is
    5751 000004e6 C493          MOVL      XAR6,*+XAR3[AR0]      ; [CPU_] |132| 
    5752                      .dwpsn  file "C:/Users/wmj/Desktop/BM1000_v1.1/sw/modules/ipark/src/32b/ipark.h",line 149,column 3,is
    5753 000004e7 8356          MOVL      XAR5,*-SP[22]         ; [CPU_] |149| 
    5754                      .dwpsn  file "C:/Users/wmj/Desktop/BM1000_v1.1/sw/modules/svgen/src/32b/svgen.h",line 133,column 3,is
    5755 000004e8 5605          IMPYL     P,XT,*+XAR4[2]        ; [CPU_] |133| 
         000004e9 00D4 
    5756 000004ea 5663          QMPYL     ACC,XT,*+XAR4[2]      ; [CPU_] |133| 
         000004eb 00D4 
    5757 000004ec 56A7          LSL64     ACC:P,#8              ; [CPU_] |133| 
    5758 000004ed 1EA7          MOVL      XAR7,ACC              ; [CPU_] |133| 
    5759 000004ee 06A6          MOVL      ACC,XAR6              ; [CPU_] |133| 
    5760 000004ef FF40          SFR       ACC,1                 ; [CPU_] |133| 
    5761 000004f0 FF54          NEG       ACC                   ; [CPU_] |133| 
    5762 000004f1 FF5A          MOVL      P,ACC                 ; [CPU_] |133| 
    5763 000004f2 86A9          MOVL      XAR2,ACC              ; [CPU_] |133| 
    5764                      .dwpsn  file "C:/Users/wmj/Desktop/BM1000_v1.1/sw/modules/svgen/src/32b/svgen.h",line 134,column 3,is
    5765 000004f3 565D          SUBUL     P,XAR7                ; [CPU_] |134| 
TMS320C2000 Assembler PC v15.12.3 Wed Nov 22 00:56:17 2017

Tools Copyright (c) 1996-2015 Texas Instruments Incorporated
C:\Users\wmj\AppData\Local\Temp\0070810                              PAGE  112

         000004f4 00A7 
    5766                      .dwpsn  file "C:/Users/wmj/Desktop/BM1000_v1.1/sw/modules/svgen/src/32b/svgen.h",line 133,column 3,is
    5767 000004f5 06A7          MOVL      ACC,XAR7              ; [CPU_] |133| 
    5768                      .dwpsn  file "C:/Users/wmj/Desktop/BM1000_v1.1/sw/modules/svgen/src/32b/svgen.h",line 134,column 3,is
    5769 000004f6 A9A7          MOVL      XAR7,P                ; [CPU_] |134| 
    5770                      .dwpsn  file "C:/Users/wmj/Desktop/BM1000_v1.1/sw/modules/svgen/src/32b/svgen.h",line 133,column 3,is
    5771 000004f7 07A2          ADDL      ACC,XAR2              ; [CPU_] |133| 
    5772 000004f8 8EA9          MOVL      XAR0,ACC              ; [CPU_] |133| 
    5773                      .dwpsn  file "C:/Users/wmj/Desktop/BM1000_v1.1/sw/modules/svgen/src/32b/svgen.h",line 140,column 3,is
    5774 000004f9 28A9          MOV       AL,#46039             ; [CPU_] |140| 
         000004fa B3D7 
    5775 000004fb 9BDD          MOV       AH,#221               ; [CPU_] |140| 
    5776 000004fc 1EAC          MOVL      XT,ACC                ; [CPU_] |140| 
    5777 000004fd 5663          QMPYL     ACC,XT,*+XAR4[2]      ; [CPU_] |140| 
         000004fe 00D4 
    5778 000004ff 5605          IMPYL     P,XT,*+XAR4[2]        ; [CPU_] |140| 
         00000500 00D4 
    5779 00000501 56A7          LSL64     ACC:P,#8              ; [CPU_] |140| 
    5780 00000502 07A2          ADDL      ACC,XAR2              ; [CPU_] |140| 
    5781 00000503 0FA6          CMPL      ACC,XAR6              ; [CPU_] |140| 
    5782 00000504 6404          B         $C$L79,LT             ; [CPU_] |140| 
    5783                      ; branchcc occurs ; [] |140| 
    5784                      .dwpsn  file "C:/Users/wmj/Desktop/BM1000_v1.1/sw/modules/svgen/src/32b/svgen.h",line 147,column 5,is
    5785 00000505 FF5A          MOVL      P,ACC                 ; [CPU_] |147| 
    5786                      .dwpsn  file "C:/Users/wmj/Desktop/BM1000_v1.1/sw/modules/svgen/src/32b/svgen.h",line 148,column 5,is
    5787 00000506 87A6          MOVL      XT,XAR6               ; [CPU_] |148| 
    5788 00000507 6F03          B         $C$L80,UNC            ; [CPU_] |148| 
    5789                      ; branch occurs ; [] |148| 
    5790 00000508       $C$L79:    
    5791                      .dwpsn  file "C:/Users/wmj/Desktop/BM1000_v1.1/sw/modules/svgen/src/32b/svgen.h",line 142,column 5,is
    5792 00000508 A3A6          MOVL      P,XAR6                ; [CPU_] |142| 
    5793                      .dwpsn  file "C:/Users/wmj/Desktop/BM1000_v1.1/sw/modules/svgen/src/32b/svgen.h",line 143,column 5,is
    5794 00000509 3AAC          MOVL      XT,XAR0               ; [CPU_] |143| 
    5795 0000050a       $C$L80:    
    5796 0000050a A9A9          MOVL      ACC,P                 ; [CPU_] 
    5797                      .dwpsn  file "C:/Users/wmj/Desktop/BM1000_v1.1/sw/modules/svgen/src/32b/svgen.h",line 151,column 3,is
    5798 0000050b 0FA7          CMPL      ACC,XAR7              ; [CPU_] |151| 
    5799 0000050c 6406          B         $C$L82,LT             ; [CPU_] |151| 
    5800                      ; branchcc occurs ; [] |151| 
    5801 0000050d ABA9          MOVL      ACC,XT                ; [CPU_] 
    5802                      .dwpsn  file "C:/Users/wmj/Desktop/BM1000_v1.1/sw/modules/svgen/src/32b/svgen.h",line 155,column 8,is
    5803 0000050e 0FA7          CMPL      ACC,XAR7              ; [CPU_] |155| 
    5804 0000050f 6504          B         $C$L83,LEQ            ; [CPU_] |155| 
    5805                      ; branchcc occurs ; [] |155| 
    5806 00000510       $C$L81:    
    5807                      .dwpsn  file "C:/Users/wmj/Desktop/BM1000_v1.1/sw/modules/svgen/src/32b/svgen.h",line 157,column 5,is
    5808 00000510 87A7          MOVL      XT,XAR7               ; [CPU_] |157| 
    5809 00000511 6F02          B         $C$L83,UNC            ; [CPU_] |157| 
    5810                      ; branch occurs ; [] |157| 
    5811 00000512       $C$L82:    
    5812                      .dwpsn  file "C:/Users/wmj/Desktop/BM1000_v1.1/sw/modules/svgen/src/32b/svgen.h",line 153,column 5,is
    5813 00000512 A3A7          MOVL      P,XAR7                ; [CPU_] |153| 
    5814 00000513       $C$L83:    
    5815                      .dwpsn  file "C:/Users/wmj/Desktop/BM1000_v1.1/sw/modules/svgen/src/32b/svgen.h",line 163,column 3,is
    5816 00000513 A9A9          MOVL      ACC,P                 ; [CPU_] |163| 
TMS320C2000 Assembler PC v15.12.3 Wed Nov 22 00:56:17 2017

Tools Copyright (c) 1996-2015 Texas Instruments Incorporated
C:\Users\wmj\AppData\Local\Temp\0070810                              PAGE  113

    5817 00000514 5601          ADDL      XT,ACC                ; [CPU_] |163| 
         00000515 00AC 
    5818 00000516 9A00          MOV       AL,#0                 ; [CPU_] |163| 
    5819 00000517 9B80          MOV       AH,#128               ; [CPU_] |163| 
    5820 00000518 5605          IMPYL     P,XT,ACC              ; [CPU_] |163| 
         00000519 00A9 
    5821 0000051a 5663          QMPYL     ACC,XT,ACC            ; [CPU_] |163| 
         0000051b 00A9 
    5822 0000051c 56A7          LSL64     ACC:P,#8              ; [CPU_] |163| 
    5823 0000051d 5641          SUBL      XAR6,ACC              ; [CPU_] |163| 
         0000051e 00A6 
    5824                      .dwpsn  file "C:/Users/wmj/Desktop/BM1000_v1.1/sw/modules/svgen/src/32b/svgen.h",line 164,column 3,is
    5825 0000051f 5641          SUBL      XAR0,ACC              ; [CPU_] |164| 
         00000520 00A0 
    5826                      .dwpsn  file "C:/Users/wmj/Desktop/BM1000_v1.1/sw/modules/svgen/src/32b/svgen.h",line 165,column 3,is
    5827 00000521 5641          SUBL      XAR7,ACC              ; [CPU_] |165| 
         00000522 00A7 
    5828                      .dwpsn  file "C:/Users/wmj/Desktop/BM1000_v1.1/sw/modules/svgen/src/32b/svgen.h",line 163,column 3,is
    5829 00000523 C2C5          MOVL      *+XAR5[0],XAR6        ; [CPU_] |163| 
    5830                      .dwpsn  file "C:/Users/wmj/Desktop/BM1000_v1.1/sw/modules/svgen/src/32b/svgen.h",line 164,column 3,is
    5831 00000524 3AD5          MOVL      *+XAR5[2],XAR0        ; [CPU_] |164| 
    5832                      .dwpsn  file "C:/Users/wmj/Desktop/BM1000_v1.1/sw/modules/svgen/src/32b/svgen.h",line 165,column 3,is
    5833 00000525 C3E5          MOVL      *+XAR5[4],XAR7        ; [CPU_] |165| 
    5834                      .dwpsn  file "C:/Users/wmj/Desktop/BM1000_v1.1/sw/modules/svgen/src/32b/svgen.h",line 167,column 3,is
    5835 00000526 6F05          B         $C$L85,UNC            ; [CPU_] |167| 
    5836                      ; branch occurs ; [] |167| 
    5837 00000527       $C$L84:    
    5838                      .dwpsn  file "C:/Users/wmj/Desktop/BM1000_v1.1/sw/modules/ctrl/src/32b/ctrl.h",line 1014,column 3,is_
    5839 00000527 A2A9          MOVL      ACC,XAR3              ; [CPU_] |1014| 
    5840 00000528 09ED          ADDB      ACC,#237              ; [CPU_] |1014| 
    5841 00000529 82A9          MOVL      XAR3,ACC              ; [CPU_] |1014| 
    5842 0000052a 0AC3          INC       *+XAR3[0]             ; [CPU_] |1014| 
    5843 0000052b       $C$L85:    
    5844 0000052b FE96          SUBB      SP,#22                ; [CPU_U] 
    5845                      .dwcfi  cfa_offset, -8
    5846 0000052c 82BE          MOVL      XAR3,*--SP            ; [CPU_] 
    5847                      .dwcfi  cfa_offset, -6
    5848                      .dwcfi  restore_reg, 11
    5849 0000052d 86BE          MOVL      XAR2,*--SP            ; [CPU_] 
    5850                      .dwcfi  cfa_offset, -4
    5851                      .dwcfi  restore_reg, 9
    5852 0000052e 8BBE          MOVL      XAR1,*--SP            ; [CPU_] 
    5853                      .dwcfi  cfa_offset, -2
    5854                      .dwcfi  restore_reg, 7
    5855              $C$DW$402       .dwtag  DW_TAG_TI_branch
    5856                      .dwattr $C$DW$402, DW_AT_low_pc(0x00)
    5857                      .dwattr $C$DW$402, DW_AT_TI_return
    5858              
    5859 0000052f 0006          LRETR     ; [CPU_] 
    5860                      ; return occurs ; [] 
    5861                      .dwattr $C$DW$252, DW_AT_TI_end_file("C:/Users/wmj/Desktop/BM1000_v1.1/sw/modules/ctrl/src/32b/ctrl.c
    5862                      .dwattr $C$DW$252, DW_AT_TI_end_line(0x103)
    5863                      .dwattr $C$DW$252, DW_AT_TI_end_column(0x01)
    5864                      .dwendentry
    5865                      .dwendtag $C$DW$252
TMS320C2000 Assembler PC v15.12.3 Wed Nov 22 00:56:17 2017

Tools Copyright (c) 1996-2015 Texas Instruments Incorporated
C:\Users\wmj\AppData\Local\Temp\0070810                              PAGE  114

    5866              
    5867 000003c2               .sect   ".text"
    5868                      .clink
    5869                      .global _CTRL_getWaitTimes
    5870              
    5871              $C$DW$403       .dwtag  DW_TAG_subprogram
    5872                      .dwattr $C$DW$403, DW_AT_name("CTRL_getWaitTimes")
    5873                      .dwattr $C$DW$403, DW_AT_low_pc(_CTRL_getWaitTimes)
    5874                      .dwattr $C$DW$403, DW_AT_high_pc(0x00)
    5875                      .dwattr $C$DW$403, DW_AT_TI_symbol_name("_CTRL_getWaitTimes")
    5876                      .dwattr $C$DW$403, DW_AT_external
    5877                      .dwattr $C$DW$403, DW_AT_TI_begin_file("C:/Users/wmj/Desktop/BM1000_v1.1/sw/modules/ctrl/src/32b/ctrl
    5878                      .dwattr $C$DW$403, DW_AT_TI_begin_line(0xb5)
    5879                      .dwattr $C$DW$403, DW_AT_TI_begin_column(0x06)
    5880                      .dwattr $C$DW$403, DW_AT_TI_max_frame_size(-2)
    5881                      .dwpsn  file "C:/Users/wmj/Desktop/BM1000_v1.1/sw/modules/ctrl/src/32b/ctrl.c",line 182,column 1,is_s
    5882              
    5883                      .dwfde $C$DW$CIE, _CTRL_getWaitTimes
    5884              $C$DW$404       .dwtag  DW_TAG_formal_parameter
    5885                      .dwattr $C$DW$404, DW_AT_name("handle")
    5886                      .dwattr $C$DW$404, DW_AT_TI_symbol_name("_handle")
    5887                      .dwattr $C$DW$404, DW_AT_type(*$C$DW$T$170)
    5888                      .dwattr $C$DW$404, DW_AT_location[DW_OP_reg12]
    5889              
    5890              $C$DW$405       .dwtag  DW_TAG_formal_parameter
    5891                      .dwattr $C$DW$405, DW_AT_name("pWaitTimes")
    5892                      .dwattr $C$DW$405, DW_AT_TI_symbol_name("_pWaitTimes")
    5893                      .dwattr $C$DW$405, DW_AT_type(*$C$DW$T$288)
    5894                      .dwattr $C$DW$405, DW_AT_location[DW_OP_reg14]
    5895              
    5896              
    5897              ;***************************************************************
    5898              ;* FNAME: _CTRL_getWaitTimes            FR SIZE:   0           *
    5899              ;*                                                             *
    5900              ;* FUNCTION ENVIRONMENT                                        *
    5901              ;*                                                             *
    5902              ;* FUNCTION PROPERTIES                                         *
    5903              ;*                            0 Parameter,  0 Auto,  0 SOE     *
    5904              ;***************************************************************
    5905              
    5906              _CTRL_getWaitTimes:
    5907              ;* AR4   assigned to _handle
    5908              $C$DW$406       .dwtag  DW_TAG_variable
    5909                      .dwattr $C$DW$406, DW_AT_name("handle")
    5910                      .dwattr $C$DW$406, DW_AT_TI_symbol_name("_handle")
    5911                      .dwattr $C$DW$406, DW_AT_type(*$C$DW$T$189)
    5912                      .dwattr $C$DW$406, DW_AT_location[DW_OP_reg12]
    5913              
    5914              ;* AR5   assigned to $O$U11
    5915              ;* AR4   assigned to $O$U9
    5916                      .dwcfi  cfa_offset, -2
    5917                      .dwcfi  save_reg_to_mem, 26, 0
    5918 000003c2 A8A9          MOVL      ACC,XAR4              ; [CPU_] 
    5919 000003c3 0992          ADDB      ACC,#146              ; [CPU_] 
    5920 000003c4 8AA9          MOVL      XAR4,ACC              ; [CPU_] 
TMS320C2000 Assembler PC v15.12.3 Wed Nov 22 00:56:17 2017

Tools Copyright (c) 1996-2015 Texas Instruments Incorporated
C:\Users\wmj\AppData\Local\Temp\0070810                              PAGE  115

    5921 000003c5 BE03          MOVB      XAR6,#3               ; [CPU_] 
    5922 000003c6       $C$L86:    
    5923                      .dwpsn  file "C:/Users/wmj/Desktop/BM1000_v1.1/sw/modules/ctrl/src/32b/ctrl.c",line 188,column 7,is_s
    5924 000003c6 0684          MOVL      ACC,*XAR4++           ; [CPU_] |188| 
    5925 000003c7 1E85          MOVL      *XAR5++,ACC           ; [CPU_] |188| 
    5926                      .dwpsn  file "C:/Users/wmj/Desktop/BM1000_v1.1/sw/modules/ctrl/src/32b/ctrl.c",line 186,column 18,is_
    5927 000003c8 000E          BANZ      $C$L86,AR6--          ; [CPU_] |186| 
         000003c9 FFFE 
    5928                      ; branchcc occurs ; [] |186| 
    5929              $C$DW$407       .dwtag  DW_TAG_TI_branch
    5930                      .dwattr $C$DW$407, DW_AT_low_pc(0x00)
    5931                      .dwattr $C$DW$407, DW_AT_TI_return
    5932              
    5933 000003ca 0006          LRETR     ; [CPU_] 
    5934                      ; return occurs ; [] 
    5935                      .dwattr $C$DW$403, DW_AT_TI_end_file("C:/Users/wmj/Desktop/BM1000_v1.1/sw/modules/ctrl/src/32b/ctrl.c
    5936                      .dwattr $C$DW$403, DW_AT_TI_end_line(0xc0)
    5937                      .dwattr $C$DW$403, DW_AT_TI_end_column(0x01)
    5938                      .dwendentry
    5939                      .dwendtag $C$DW$403
    5940              
    5941 000003cb               .sect   ".text"
    5942                      .clink
    5943                      .global _CTRL_getVdq_out_pu
    5944              
    5945              $C$DW$408       .dwtag  DW_TAG_subprogram
    5946                      .dwattr $C$DW$408, DW_AT_name("CTRL_getVdq_out_pu")
    5947                      .dwattr $C$DW$408, DW_AT_low_pc(_CTRL_getVdq_out_pu)
    5948                      .dwattr $C$DW$408, DW_AT_high_pc(0x00)
    5949                      .dwattr $C$DW$408, DW_AT_TI_symbol_name("_CTRL_getVdq_out_pu")
    5950                      .dwattr $C$DW$408, DW_AT_external
    5951                      .dwattr $C$DW$408, DW_AT_TI_begin_file("C:/Users/wmj/Desktop/BM1000_v1.1/sw/modules/ctrl/src/32b/ctrl
    5952                      .dwattr $C$DW$408, DW_AT_TI_begin_line(0xaa)
    5953                      .dwattr $C$DW$408, DW_AT_TI_begin_column(0x06)
    5954                      .dwattr $C$DW$408, DW_AT_TI_max_frame_size(-2)
    5955                      .dwpsn  file "C:/Users/wmj/Desktop/BM1000_v1.1/sw/modules/ctrl/src/32b/ctrl.c",line 171,column 1,is_s
    5956              
    5957                      .dwfde $C$DW$CIE, _CTRL_getVdq_out_pu
    5958              $C$DW$409       .dwtag  DW_TAG_formal_parameter
    5959                      .dwattr $C$DW$409, DW_AT_name("handle")
    5960                      .dwattr $C$DW$409, DW_AT_TI_symbol_name("_handle")
    5961                      .dwattr $C$DW$409, DW_AT_type(*$C$DW$T$170)
    5962                      .dwattr $C$DW$409, DW_AT_location[DW_OP_reg12]
    5963              
    5964              $C$DW$410       .dwtag  DW_TAG_formal_parameter
    5965                      .dwattr $C$DW$410, DW_AT_name("pVdq_out_pu")
    5966                      .dwattr $C$DW$410, DW_AT_TI_symbol_name("_pVdq_out_pu")
    5967                      .dwattr $C$DW$410, DW_AT_type(*$C$DW$T$212)
    5968                      .dwattr $C$DW$410, DW_AT_location[DW_OP_reg14]
    5969              
    5970              
    5971              ;***************************************************************
    5972              ;* FNAME: _CTRL_getVdq_out_pu           FR SIZE:   0           *
    5973              ;*                                                             *
    5974              ;* FUNCTION ENVIRONMENT                                        *
TMS320C2000 Assembler PC v15.12.3 Wed Nov 22 00:56:17 2017

Tools Copyright (c) 1996-2015 Texas Instruments Incorporated
C:\Users\wmj\AppData\Local\Temp\0070810                              PAGE  116

    5975              ;*                                                             *
    5976              ;* FUNCTION PROPERTIES                                         *
    5977              ;*                            0 Parameter,  0 Auto,  0 SOE     *
    5978              ;***************************************************************
    5979              
    5980              _CTRL_getVdq_out_pu:
    5981              ;* AR4   assigned to _handle
    5982              $C$DW$411       .dwtag  DW_TAG_variable
    5983                      .dwattr $C$DW$411, DW_AT_name("handle")
    5984                      .dwattr $C$DW$411, DW_AT_TI_symbol_name("_handle")
    5985                      .dwattr $C$DW$411, DW_AT_type(*$C$DW$T$189)
    5986                      .dwattr $C$DW$411, DW_AT_location[DW_OP_reg12]
    5987              
    5988              ;* AR5   assigned to _pVdq_out_pu
    5989              $C$DW$412       .dwtag  DW_TAG_variable
    5990                      .dwattr $C$DW$412, DW_AT_name("pVdq_out_pu")
    5991                      .dwattr $C$DW$412, DW_AT_TI_symbol_name("_pVdq_out_pu")
    5992                      .dwattr $C$DW$412, DW_AT_type(*$C$DW$T$214)
    5993                      .dwattr $C$DW$412, DW_AT_location[DW_OP_reg14]
    5994              
    5995                      .dwcfi  cfa_offset, -2
    5996                      .dwcfi  save_reg_to_mem, 26, 0
    5997                      .dwpsn  file "C:/Users/wmj/Desktop/BM1000_v1.1/sw/modules/ctrl/src/32b/ctrl.c",line 174,column 3,is_s
    5998 000003cb D0C0          MOVB      XAR0,#192             ; [CPU_] |174| 
    5999 000003cc 0694          MOVL      ACC,*+XAR4[AR0]       ; [CPU_] |174| 
    6000                      .dwpsn  file "C:/Users/wmj/Desktop/BM1000_v1.1/sw/modules/ctrl/src/32b/ctrl.c",line 175,column 3,is_s
    6001 000003cd D0C2          MOVB      XAR0,#194             ; [CPU_] |175| 
    6002                      .dwpsn  file "C:/Users/wmj/Desktop/BM1000_v1.1/sw/modules/ctrl/src/32b/ctrl.c",line 174,column 3,is_s
    6003 000003ce 1EC5          MOVL      *+XAR5[0],ACC         ; [CPU_] |174| 
    6004                      .dwpsn  file "C:/Users/wmj/Desktop/BM1000_v1.1/sw/modules/ctrl/src/32b/ctrl.c",line 175,column 3,is_s
    6005 000003cf 0694          MOVL      ACC,*+XAR4[AR0]       ; [CPU_] |175| 
    6006 000003d0 1ED5          MOVL      *+XAR5[2],ACC         ; [CPU_] |175| 
    6007              $C$DW$413       .dwtag  DW_TAG_TI_branch
    6008                      .dwattr $C$DW$413, DW_AT_low_pc(0x00)
    6009                      .dwattr $C$DW$413, DW_AT_TI_return
    6010              
    6011 000003d1 0006          LRETR     ; [CPU_] 
    6012                      ; return occurs ; [] 
    6013                      .dwattr $C$DW$408, DW_AT_TI_end_file("C:/Users/wmj/Desktop/BM1000_v1.1/sw/modules/ctrl/src/32b/ctrl.c
    6014                      .dwattr $C$DW$408, DW_AT_TI_end_line(0xb2)
    6015                      .dwattr $C$DW$408, DW_AT_TI_end_column(0x01)
    6016                      .dwendentry
    6017                      .dwendtag $C$DW$408
    6018              
    6019 000003d2               .sect   ".text"
    6020                      .clink
    6021                      .global _CTRL_getVab_out_pu
    6022              
    6023              $C$DW$414       .dwtag  DW_TAG_subprogram
    6024                      .dwattr $C$DW$414, DW_AT_name("CTRL_getVab_out_pu")
    6025                      .dwattr $C$DW$414, DW_AT_low_pc(_CTRL_getVab_out_pu)
    6026                      .dwattr $C$DW$414, DW_AT_high_pc(0x00)
    6027                      .dwattr $C$DW$414, DW_AT_TI_symbol_name("_CTRL_getVab_out_pu")
    6028                      .dwattr $C$DW$414, DW_AT_external
    6029                      .dwattr $C$DW$414, DW_AT_TI_begin_file("C:/Users/wmj/Desktop/BM1000_v1.1/sw/modules/ctrl/src/32b/ctrl
TMS320C2000 Assembler PC v15.12.3 Wed Nov 22 00:56:17 2017

Tools Copyright (c) 1996-2015 Texas Instruments Incorporated
C:\Users\wmj\AppData\Local\Temp\0070810                              PAGE  117

    6030                      .dwattr $C$DW$414, DW_AT_TI_begin_line(0x9f)
    6031                      .dwattr $C$DW$414, DW_AT_TI_begin_column(0x06)
    6032                      .dwattr $C$DW$414, DW_AT_TI_max_frame_size(-2)
    6033                      .dwpsn  file "C:/Users/wmj/Desktop/BM1000_v1.1/sw/modules/ctrl/src/32b/ctrl.c",line 160,column 1,is_s
    6034              
    6035                      .dwfde $C$DW$CIE, _CTRL_getVab_out_pu
    6036              $C$DW$415       .dwtag  DW_TAG_formal_parameter
    6037                      .dwattr $C$DW$415, DW_AT_name("handle")
    6038                      .dwattr $C$DW$415, DW_AT_TI_symbol_name("_handle")
    6039                      .dwattr $C$DW$415, DW_AT_type(*$C$DW$T$170)
    6040                      .dwattr $C$DW$415, DW_AT_location[DW_OP_reg12]
    6041              
    6042              $C$DW$416       .dwtag  DW_TAG_formal_parameter
    6043                      .dwattr $C$DW$416, DW_AT_name("pVab_out_pu")
    6044                      .dwattr $C$DW$416, DW_AT_TI_symbol_name("_pVab_out_pu")
    6045                      .dwattr $C$DW$416, DW_AT_type(*$C$DW$T$212)
    6046                      .dwattr $C$DW$416, DW_AT_location[DW_OP_reg14]
    6047              
    6048              
    6049              ;***************************************************************
    6050              ;* FNAME: _CTRL_getVab_out_pu           FR SIZE:   0           *
    6051              ;*                                                             *
    6052              ;* FUNCTION ENVIRONMENT                                        *
    6053              ;*                                                             *
    6054              ;* FUNCTION PROPERTIES                                         *
    6055              ;*                            0 Parameter,  0 Auto,  0 SOE     *
    6056              ;***************************************************************
    6057              
    6058              _CTRL_getVab_out_pu:
    6059              ;* AR4   assigned to _handle
    6060              $C$DW$417       .dwtag  DW_TAG_variable
    6061                      .dwattr $C$DW$417, DW_AT_name("handle")
    6062                      .dwattr $C$DW$417, DW_AT_TI_symbol_name("_handle")
    6063                      .dwattr $C$DW$417, DW_AT_type(*$C$DW$T$189)
    6064                      .dwattr $C$DW$417, DW_AT_location[DW_OP_reg12]
    6065              
    6066              ;* AR5   assigned to _pVab_out_pu
    6067              $C$DW$418       .dwtag  DW_TAG_variable
    6068                      .dwattr $C$DW$418, DW_AT_name("pVab_out_pu")
    6069                      .dwattr $C$DW$418, DW_AT_TI_symbol_name("_pVab_out_pu")
    6070                      .dwattr $C$DW$418, DW_AT_type(*$C$DW$T$214)
    6071                      .dwattr $C$DW$418, DW_AT_location[DW_OP_reg14]
    6072              
    6073                      .dwcfi  cfa_offset, -2
    6074                      .dwcfi  save_reg_to_mem, 26, 0
    6075                      .dwpsn  file "C:/Users/wmj/Desktop/BM1000_v1.1/sw/modules/ctrl/src/32b/ctrl.c",line 163,column 3,is_s
    6076 000003d2 D0BC          MOVB      XAR0,#188             ; [CPU_] |163| 
    6077 000003d3 0694          MOVL      ACC,*+XAR4[AR0]       ; [CPU_] |163| 
    6078                      .dwpsn  file "C:/Users/wmj/Desktop/BM1000_v1.1/sw/modules/ctrl/src/32b/ctrl.c",line 164,column 3,is_s
    6079 000003d4 D0BE          MOVB      XAR0,#190             ; [CPU_] |164| 
    6080                      .dwpsn  file "C:/Users/wmj/Desktop/BM1000_v1.1/sw/modules/ctrl/src/32b/ctrl.c",line 163,column 3,is_s
    6081 000003d5 1EC5          MOVL      *+XAR5[0],ACC         ; [CPU_] |163| 
    6082                      .dwpsn  file "C:/Users/wmj/Desktop/BM1000_v1.1/sw/modules/ctrl/src/32b/ctrl.c",line 164,column 3,is_s
    6083 000003d6 0694          MOVL      ACC,*+XAR4[AR0]       ; [CPU_] |164| 
    6084 000003d7 1ED5          MOVL      *+XAR5[2],ACC         ; [CPU_] |164| 
TMS320C2000 Assembler PC v15.12.3 Wed Nov 22 00:56:17 2017

Tools Copyright (c) 1996-2015 Texas Instruments Incorporated
C:\Users\wmj\AppData\Local\Temp\0070810                              PAGE  118

    6085              $C$DW$419       .dwtag  DW_TAG_TI_branch
    6086                      .dwattr $C$DW$419, DW_AT_low_pc(0x00)
    6087                      .dwattr $C$DW$419, DW_AT_TI_return
    6088              
    6089 000003d8 0006          LRETR     ; [CPU_] 
    6090                      ; return occurs ; [] 
    6091                      .dwattr $C$DW$414, DW_AT_TI_end_file("C:/Users/wmj/Desktop/BM1000_v1.1/sw/modules/ctrl/src/32b/ctrl.c
    6092                      .dwattr $C$DW$414, DW_AT_TI_end_line(0xa7)
    6093                      .dwattr $C$DW$414, DW_AT_TI_end_column(0x01)
    6094                      .dwendentry
    6095                      .dwendtag $C$DW$414
    6096              
    6097 000003d9               .sect   ".text"
    6098                      .clink
    6099                      .global _CTRL_getVab_in_pu
    6100              
    6101              $C$DW$420       .dwtag  DW_TAG_subprogram
    6102                      .dwattr $C$DW$420, DW_AT_name("CTRL_getVab_in_pu")
    6103                      .dwattr $C$DW$420, DW_AT_low_pc(_CTRL_getVab_in_pu)
    6104                      .dwattr $C$DW$420, DW_AT_high_pc(0x00)
    6105                      .dwattr $C$DW$420, DW_AT_TI_symbol_name("_CTRL_getVab_in_pu")
    6106                      .dwattr $C$DW$420, DW_AT_external
    6107                      .dwattr $C$DW$420, DW_AT_TI_begin_file("C:/Users/wmj/Desktop/BM1000_v1.1/sw/modules/ctrl/src/32b/ctrl
    6108                      .dwattr $C$DW$420, DW_AT_TI_begin_line(0x94)
    6109                      .dwattr $C$DW$420, DW_AT_TI_begin_column(0x06)
    6110                      .dwattr $C$DW$420, DW_AT_TI_max_frame_size(-2)
    6111                      .dwpsn  file "C:/Users/wmj/Desktop/BM1000_v1.1/sw/modules/ctrl/src/32b/ctrl.c",line 149,column 1,is_s
    6112              
    6113                      .dwfde $C$DW$CIE, _CTRL_getVab_in_pu
    6114              $C$DW$421       .dwtag  DW_TAG_formal_parameter
    6115                      .dwattr $C$DW$421, DW_AT_name("handle")
    6116                      .dwattr $C$DW$421, DW_AT_TI_symbol_name("_handle")
    6117                      .dwattr $C$DW$421, DW_AT_type(*$C$DW$T$170)
    6118                      .dwattr $C$DW$421, DW_AT_location[DW_OP_reg12]
    6119              
    6120              $C$DW$422       .dwtag  DW_TAG_formal_parameter
    6121                      .dwattr $C$DW$422, DW_AT_name("pVab_in_pu")
    6122                      .dwattr $C$DW$422, DW_AT_TI_symbol_name("_pVab_in_pu")
    6123                      .dwattr $C$DW$422, DW_AT_type(*$C$DW$T$212)
    6124                      .dwattr $C$DW$422, DW_AT_location[DW_OP_reg14]
    6125              
    6126              
    6127              ;***************************************************************
    6128              ;* FNAME: _CTRL_getVab_in_pu            FR SIZE:   0           *
    6129              ;*                                                             *
    6130              ;* FUNCTION ENVIRONMENT                                        *
    6131              ;*                                                             *
    6132              ;* FUNCTION PROPERTIES                                         *
    6133              ;*                            0 Parameter,  0 Auto,  0 SOE     *
    6134              ;***************************************************************
    6135              
    6136              _CTRL_getVab_in_pu:
    6137              ;* AR4   assigned to _handle
    6138              $C$DW$423       .dwtag  DW_TAG_variable
    6139                      .dwattr $C$DW$423, DW_AT_name("handle")
TMS320C2000 Assembler PC v15.12.3 Wed Nov 22 00:56:17 2017

Tools Copyright (c) 1996-2015 Texas Instruments Incorporated
C:\Users\wmj\AppData\Local\Temp\0070810                              PAGE  119

    6140                      .dwattr $C$DW$423, DW_AT_TI_symbol_name("_handle")
    6141                      .dwattr $C$DW$423, DW_AT_type(*$C$DW$T$189)
    6142                      .dwattr $C$DW$423, DW_AT_location[DW_OP_reg12]
    6143              
    6144              ;* AR5   assigned to _pVab_in_pu
    6145              $C$DW$424       .dwtag  DW_TAG_variable
    6146                      .dwattr $C$DW$424, DW_AT_name("pVab_in_pu")
    6147                      .dwattr $C$DW$424, DW_AT_TI_symbol_name("_pVab_in_pu")
    6148                      .dwattr $C$DW$424, DW_AT_type(*$C$DW$T$214)
    6149                      .dwattr $C$DW$424, DW_AT_location[DW_OP_reg14]
    6150              
    6151                      .dwcfi  cfa_offset, -2
    6152                      .dwcfi  save_reg_to_mem, 26, 0
    6153                      .dwpsn  file "C:/Users/wmj/Desktop/BM1000_v1.1/sw/modules/ctrl/src/32b/ctrl.c",line 152,column 3,is_s
    6154 000003d9 D0B6          MOVB      XAR0,#182             ; [CPU_] |152| 
    6155 000003da 0694          MOVL      ACC,*+XAR4[AR0]       ; [CPU_] |152| 
    6156                      .dwpsn  file "C:/Users/wmj/Desktop/BM1000_v1.1/sw/modules/ctrl/src/32b/ctrl.c",line 153,column 3,is_s
    6157 000003db D0B8          MOVB      XAR0,#184             ; [CPU_] |153| 
    6158                      .dwpsn  file "C:/Users/wmj/Desktop/BM1000_v1.1/sw/modules/ctrl/src/32b/ctrl.c",line 152,column 3,is_s
    6159 000003dc 1EC5          MOVL      *+XAR5[0],ACC         ; [CPU_] |152| 
    6160                      .dwpsn  file "C:/Users/wmj/Desktop/BM1000_v1.1/sw/modules/ctrl/src/32b/ctrl.c",line 153,column 3,is_s
    6161 000003dd 0694          MOVL      ACC,*+XAR4[AR0]       ; [CPU_] |153| 
    6162 000003de 1ED5          MOVL      *+XAR5[2],ACC         ; [CPU_] |153| 
    6163              $C$DW$425       .dwtag  DW_TAG_TI_branch
    6164                      .dwattr $C$DW$425, DW_AT_low_pc(0x00)
    6165                      .dwattr $C$DW$425, DW_AT_TI_return
    6166              
    6167 000003df 0006          LRETR     ; [CPU_] 
    6168                      ; return occurs ; [] 
    6169                      .dwattr $C$DW$420, DW_AT_TI_end_file("C:/Users/wmj/Desktop/BM1000_v1.1/sw/modules/ctrl/src/32b/ctrl.c
    6170                      .dwattr $C$DW$420, DW_AT_TI_end_line(0x9c)
    6171                      .dwattr $C$DW$420, DW_AT_TI_end_column(0x01)
    6172                      .dwendentry
    6173                      .dwendtag $C$DW$420
    6174              
    6175 000003e0               .sect   ".text"
    6176                      .clink
    6177                      .global _CTRL_getIdq_ref_pu
    6178              
    6179              $C$DW$426       .dwtag  DW_TAG_subprogram
    6180                      .dwattr $C$DW$426, DW_AT_name("CTRL_getIdq_ref_pu")
    6181                      .dwattr $C$DW$426, DW_AT_low_pc(_CTRL_getIdq_ref_pu)
    6182                      .dwattr $C$DW$426, DW_AT_high_pc(0x00)
    6183                      .dwattr $C$DW$426, DW_AT_TI_symbol_name("_CTRL_getIdq_ref_pu")
    6184                      .dwattr $C$DW$426, DW_AT_external
    6185                      .dwattr $C$DW$426, DW_AT_TI_begin_file("C:/Users/wmj/Desktop/BM1000_v1.1/sw/modules/ctrl/src/32b/ctrl
    6186                      .dwattr $C$DW$426, DW_AT_TI_begin_line(0x7b)
    6187                      .dwattr $C$DW$426, DW_AT_TI_begin_column(0x06)
    6188                      .dwattr $C$DW$426, DW_AT_TI_max_frame_size(-2)
    6189                      .dwpsn  file "C:/Users/wmj/Desktop/BM1000_v1.1/sw/modules/ctrl/src/32b/ctrl.c",line 124,column 1,is_s
    6190              
    6191                      .dwfde $C$DW$CIE, _CTRL_getIdq_ref_pu
    6192              $C$DW$427       .dwtag  DW_TAG_formal_parameter
    6193                      .dwattr $C$DW$427, DW_AT_name("handle")
    6194                      .dwattr $C$DW$427, DW_AT_TI_symbol_name("_handle")
TMS320C2000 Assembler PC v15.12.3 Wed Nov 22 00:56:17 2017

Tools Copyright (c) 1996-2015 Texas Instruments Incorporated
C:\Users\wmj\AppData\Local\Temp\0070810                              PAGE  120

    6195                      .dwattr $C$DW$427, DW_AT_type(*$C$DW$T$170)
    6196                      .dwattr $C$DW$427, DW_AT_location[DW_OP_reg12]
    6197              
    6198              $C$DW$428       .dwtag  DW_TAG_formal_parameter
    6199                      .dwattr $C$DW$428, DW_AT_name("pIdq_ref_pu")
    6200                      .dwattr $C$DW$428, DW_AT_TI_symbol_name("_pIdq_ref_pu")
    6201                      .dwattr $C$DW$428, DW_AT_type(*$C$DW$T$212)
    6202                      .dwattr $C$DW$428, DW_AT_location[DW_OP_reg14]
    6203              
    6204              
    6205              ;***************************************************************
    6206              ;* FNAME: _CTRL_getIdq_ref_pu           FR SIZE:   0           *
    6207              ;*                                                             *
    6208              ;* FUNCTION ENVIRONMENT                                        *
    6209              ;*                                                             *
    6210              ;* FUNCTION PROPERTIES                                         *
    6211              ;*                            0 Parameter,  0 Auto,  0 SOE     *
    6212              ;***************************************************************
    6213              
    6214              _CTRL_getIdq_ref_pu:
    6215              ;* AR4   assigned to _handle
    6216              $C$DW$429       .dwtag  DW_TAG_variable
    6217                      .dwattr $C$DW$429, DW_AT_name("handle")
    6218                      .dwattr $C$DW$429, DW_AT_TI_symbol_name("_handle")
    6219                      .dwattr $C$DW$429, DW_AT_type(*$C$DW$T$189)
    6220                      .dwattr $C$DW$429, DW_AT_location[DW_OP_reg12]
    6221              
    6222              ;* AR5   assigned to _pIdq_ref_pu
    6223              $C$DW$430       .dwtag  DW_TAG_variable
    6224                      .dwattr $C$DW$430, DW_AT_name("pIdq_ref_pu")
    6225                      .dwattr $C$DW$430, DW_AT_TI_symbol_name("_pIdq_ref_pu")
    6226                      .dwattr $C$DW$430, DW_AT_type(*$C$DW$T$214)
    6227                      .dwattr $C$DW$430, DW_AT_location[DW_OP_reg14]
    6228              
    6229                      .dwcfi  cfa_offset, -2
    6230                      .dwcfi  save_reg_to_mem, 26, 0
    6231                      .dwpsn  file "C:/Users/wmj/Desktop/BM1000_v1.1/sw/modules/ctrl/src/32b/ctrl.c",line 127,column 3,is_s
    6232 000003e0 D0E2          MOVB      XAR0,#226             ; [CPU_] |127| 
    6233 000003e1 0694          MOVL      ACC,*+XAR4[AR0]       ; [CPU_] |127| 
    6234                      .dwpsn  file "C:/Users/wmj/Desktop/BM1000_v1.1/sw/modules/ctrl/src/32b/ctrl.c",line 128,column 3,is_s
    6235 000003e2 D0E4          MOVB      XAR0,#228             ; [CPU_] |128| 
    6236                      .dwpsn  file "C:/Users/wmj/Desktop/BM1000_v1.1/sw/modules/ctrl/src/32b/ctrl.c",line 127,column 3,is_s
    6237 000003e3 1EC5          MOVL      *+XAR5[0],ACC         ; [CPU_] |127| 
    6238                      .dwpsn  file "C:/Users/wmj/Desktop/BM1000_v1.1/sw/modules/ctrl/src/32b/ctrl.c",line 128,column 3,is_s
    6239 000003e4 0694          MOVL      ACC,*+XAR4[AR0]       ; [CPU_] |128| 
    6240 000003e5 1ED5          MOVL      *+XAR5[2],ACC         ; [CPU_] |128| 
    6241              $C$DW$431       .dwtag  DW_TAG_TI_branch
    6242                      .dwattr $C$DW$431, DW_AT_low_pc(0x00)
    6243                      .dwattr $C$DW$431, DW_AT_TI_return
    6244              
    6245 000003e6 0006          LRETR     ; [CPU_] 
    6246                      ; return occurs ; [] 
    6247                      .dwattr $C$DW$426, DW_AT_TI_end_file("C:/Users/wmj/Desktop/BM1000_v1.1/sw/modules/ctrl/src/32b/ctrl.c
    6248                      .dwattr $C$DW$426, DW_AT_TI_end_line(0x83)
    6249                      .dwattr $C$DW$426, DW_AT_TI_end_column(0x01)
TMS320C2000 Assembler PC v15.12.3 Wed Nov 22 00:56:17 2017

Tools Copyright (c) 1996-2015 Texas Instruments Incorporated
C:\Users\wmj\AppData\Local\Temp\0070810                              PAGE  121

    6250                      .dwendentry
    6251                      .dwendtag $C$DW$426
    6252              
    6253 000003e7               .sect   ".text"
    6254                      .clink
    6255                      .global _CTRL_getIdq_in_pu
    6256              
    6257              $C$DW$432       .dwtag  DW_TAG_subprogram
    6258                      .dwattr $C$DW$432, DW_AT_name("CTRL_getIdq_in_pu")
    6259                      .dwattr $C$DW$432, DW_AT_low_pc(_CTRL_getIdq_in_pu)
    6260                      .dwattr $C$DW$432, DW_AT_high_pc(0x00)
    6261                      .dwattr $C$DW$432, DW_AT_TI_symbol_name("_CTRL_getIdq_in_pu")
    6262                      .dwattr $C$DW$432, DW_AT_external
    6263                      .dwattr $C$DW$432, DW_AT_TI_begin_file("C:/Users/wmj/Desktop/BM1000_v1.1/sw/modules/ctrl/src/32b/ctrl
    6264                      .dwattr $C$DW$432, DW_AT_TI_begin_line(0x70)
    6265                      .dwattr $C$DW$432, DW_AT_TI_begin_column(0x06)
    6266                      .dwattr $C$DW$432, DW_AT_TI_max_frame_size(-2)
    6267                      .dwpsn  file "C:/Users/wmj/Desktop/BM1000_v1.1/sw/modules/ctrl/src/32b/ctrl.c",line 113,column 1,is_s
    6268              
    6269                      .dwfde $C$DW$CIE, _CTRL_getIdq_in_pu
    6270              $C$DW$433       .dwtag  DW_TAG_formal_parameter
    6271                      .dwattr $C$DW$433, DW_AT_name("handle")
    6272                      .dwattr $C$DW$433, DW_AT_TI_symbol_name("_handle")
    6273                      .dwattr $C$DW$433, DW_AT_type(*$C$DW$T$170)
    6274                      .dwattr $C$DW$433, DW_AT_location[DW_OP_reg12]
    6275              
    6276              $C$DW$434       .dwtag  DW_TAG_formal_parameter
    6277                      .dwattr $C$DW$434, DW_AT_name("pIdq_in_pu")
    6278                      .dwattr $C$DW$434, DW_AT_TI_symbol_name("_pIdq_in_pu")
    6279                      .dwattr $C$DW$434, DW_AT_type(*$C$DW$T$212)
    6280                      .dwattr $C$DW$434, DW_AT_location[DW_OP_reg14]
    6281              
    6282              
    6283              ;***************************************************************
    6284              ;* FNAME: _CTRL_getIdq_in_pu            FR SIZE:   0           *
    6285              ;*                                                             *
    6286              ;* FUNCTION ENVIRONMENT                                        *
    6287              ;*                                                             *
    6288              ;* FUNCTION PROPERTIES                                         *
    6289              ;*                            0 Parameter,  0 Auto,  0 SOE     *
    6290              ;***************************************************************
    6291              
    6292              _CTRL_getIdq_in_pu:
    6293              ;* AR4   assigned to _handle
    6294              $C$DW$435       .dwtag  DW_TAG_variable
    6295                      .dwattr $C$DW$435, DW_AT_name("handle")
    6296                      .dwattr $C$DW$435, DW_AT_TI_symbol_name("_handle")
    6297                      .dwattr $C$DW$435, DW_AT_type(*$C$DW$T$189)
    6298                      .dwattr $C$DW$435, DW_AT_location[DW_OP_reg12]
    6299              
    6300              ;* AR5   assigned to _pIdq_in_pu
    6301              $C$DW$436       .dwtag  DW_TAG_variable
    6302                      .dwattr $C$DW$436, DW_AT_name("pIdq_in_pu")
    6303                      .dwattr $C$DW$436, DW_AT_TI_symbol_name("_pIdq_in_pu")
    6304                      .dwattr $C$DW$436, DW_AT_type(*$C$DW$T$214)
TMS320C2000 Assembler PC v15.12.3 Wed Nov 22 00:56:17 2017

Tools Copyright (c) 1996-2015 Texas Instruments Incorporated
C:\Users\wmj\AppData\Local\Temp\0070810                              PAGE  122

    6305                      .dwattr $C$DW$436, DW_AT_location[DW_OP_reg14]
    6306              
    6307                      .dwcfi  cfa_offset, -2
    6308                      .dwcfi  save_reg_to_mem, 26, 0
    6309                      .dwpsn  file "C:/Users/wmj/Desktop/BM1000_v1.1/sw/modules/ctrl/src/32b/ctrl.c",line 116,column 3,is_s
    6310 000003e7 D0B2          MOVB      XAR0,#178             ; [CPU_] |116| 
    6311 000003e8 0694          MOVL      ACC,*+XAR4[AR0]       ; [CPU_] |116| 
    6312                      .dwpsn  file "C:/Users/wmj/Desktop/BM1000_v1.1/sw/modules/ctrl/src/32b/ctrl.c",line 117,column 3,is_s
    6313 000003e9 D0B4          MOVB      XAR0,#180             ; [CPU_] |117| 
    6314                      .dwpsn  file "C:/Users/wmj/Desktop/BM1000_v1.1/sw/modules/ctrl/src/32b/ctrl.c",line 116,column 3,is_s
    6315 000003ea 1EC5          MOVL      *+XAR5[0],ACC         ; [CPU_] |116| 
    6316                      .dwpsn  file "C:/Users/wmj/Desktop/BM1000_v1.1/sw/modules/ctrl/src/32b/ctrl.c",line 117,column 3,is_s
    6317 000003eb 0694          MOVL      ACC,*+XAR4[AR0]       ; [CPU_] |117| 
    6318 000003ec 1ED5          MOVL      *+XAR5[2],ACC         ; [CPU_] |117| 
    6319              $C$DW$437       .dwtag  DW_TAG_TI_branch
    6320                      .dwattr $C$DW$437, DW_AT_low_pc(0x00)
    6321                      .dwattr $C$DW$437, DW_AT_TI_return
    6322              
    6323 000003ed 0006          LRETR     ; [CPU_] 
    6324                      ; return occurs ; [] 
    6325                      .dwattr $C$DW$432, DW_AT_TI_end_file("C:/Users/wmj/Desktop/BM1000_v1.1/sw/modules/ctrl/src/32b/ctrl.c
    6326                      .dwattr $C$DW$432, DW_AT_TI_end_line(0x78)
    6327                      .dwattr $C$DW$432, DW_AT_TI_end_column(0x01)
    6328                      .dwendentry
    6329                      .dwendtag $C$DW$432
    6330              
    6331 000003ee               .sect   ".text"
    6332                      .clink
    6333                      .global _CTRL_getIab_in_pu
    6334              
    6335              $C$DW$438       .dwtag  DW_TAG_subprogram
    6336                      .dwattr $C$DW$438, DW_AT_name("CTRL_getIab_in_pu")
    6337                      .dwattr $C$DW$438, DW_AT_low_pc(_CTRL_getIab_in_pu)
    6338                      .dwattr $C$DW$438, DW_AT_high_pc(0x00)
    6339                      .dwattr $C$DW$438, DW_AT_TI_symbol_name("_CTRL_getIab_in_pu")
    6340                      .dwattr $C$DW$438, DW_AT_external
    6341                      .dwattr $C$DW$438, DW_AT_TI_begin_file("C:/Users/wmj/Desktop/BM1000_v1.1/sw/modules/ctrl/src/32b/ctrl
    6342                      .dwattr $C$DW$438, DW_AT_TI_begin_line(0x65)
    6343                      .dwattr $C$DW$438, DW_AT_TI_begin_column(0x06)
    6344                      .dwattr $C$DW$438, DW_AT_TI_max_frame_size(-2)
    6345                      .dwpsn  file "C:/Users/wmj/Desktop/BM1000_v1.1/sw/modules/ctrl/src/32b/ctrl.c",line 102,column 1,is_s
    6346              
    6347                      .dwfde $C$DW$CIE, _CTRL_getIab_in_pu
    6348              $C$DW$439       .dwtag  DW_TAG_formal_parameter
    6349                      .dwattr $C$DW$439, DW_AT_name("handle")
    6350                      .dwattr $C$DW$439, DW_AT_TI_symbol_name("_handle")
    6351                      .dwattr $C$DW$439, DW_AT_type(*$C$DW$T$170)
    6352                      .dwattr $C$DW$439, DW_AT_location[DW_OP_reg12]
    6353              
    6354              $C$DW$440       .dwtag  DW_TAG_formal_parameter
    6355                      .dwattr $C$DW$440, DW_AT_name("pIab_in_pu")
    6356                      .dwattr $C$DW$440, DW_AT_TI_symbol_name("_pIab_in_pu")
    6357                      .dwattr $C$DW$440, DW_AT_type(*$C$DW$T$212)
    6358                      .dwattr $C$DW$440, DW_AT_location[DW_OP_reg14]
    6359              
TMS320C2000 Assembler PC v15.12.3 Wed Nov 22 00:56:17 2017

Tools Copyright (c) 1996-2015 Texas Instruments Incorporated
C:\Users\wmj\AppData\Local\Temp\0070810                              PAGE  123

    6360              
    6361              ;***************************************************************
    6362              ;* FNAME: _CTRL_getIab_in_pu            FR SIZE:   0           *
    6363              ;*                                                             *
    6364              ;* FUNCTION ENVIRONMENT                                        *
    6365              ;*                                                             *
    6366              ;* FUNCTION PROPERTIES                                         *
    6367              ;*                            0 Parameter,  0 Auto,  0 SOE     *
    6368              ;***************************************************************
    6369              
    6370              _CTRL_getIab_in_pu:
    6371              ;* AR4   assigned to _handle
    6372              $C$DW$441       .dwtag  DW_TAG_variable
    6373                      .dwattr $C$DW$441, DW_AT_name("handle")
    6374                      .dwattr $C$DW$441, DW_AT_TI_symbol_name("_handle")
    6375                      .dwattr $C$DW$441, DW_AT_type(*$C$DW$T$189)
    6376                      .dwattr $C$DW$441, DW_AT_location[DW_OP_reg12]
    6377              
    6378              ;* AR5   assigned to _pIab_in_pu
    6379              $C$DW$442       .dwtag  DW_TAG_variable
    6380                      .dwattr $C$DW$442, DW_AT_name("pIab_in_pu")
    6381                      .dwattr $C$DW$442, DW_AT_TI_symbol_name("_pIab_in_pu")
    6382                      .dwattr $C$DW$442, DW_AT_type(*$C$DW$T$214)
    6383                      .dwattr $C$DW$442, DW_AT_location[DW_OP_reg14]
    6384              
    6385                      .dwcfi  cfa_offset, -2
    6386                      .dwcfi  save_reg_to_mem, 26, 0
    6387                      .dwpsn  file "C:/Users/wmj/Desktop/BM1000_v1.1/sw/modules/ctrl/src/32b/ctrl.c",line 105,column 3,is_s
    6388 000003ee D0AA          MOVB      XAR0,#170             ; [CPU_] |105| 
    6389 000003ef 0694          MOVL      ACC,*+XAR4[AR0]       ; [CPU_] |105| 
    6390                      .dwpsn  file "C:/Users/wmj/Desktop/BM1000_v1.1/sw/modules/ctrl/src/32b/ctrl.c",line 106,column 3,is_s
    6391 000003f0 D0AC          MOVB      XAR0,#172             ; [CPU_] |106| 
    6392                      .dwpsn  file "C:/Users/wmj/Desktop/BM1000_v1.1/sw/modules/ctrl/src/32b/ctrl.c",line 105,column 3,is_s
    6393 000003f1 1EC5          MOVL      *+XAR5[0],ACC         ; [CPU_] |105| 
    6394                      .dwpsn  file "C:/Users/wmj/Desktop/BM1000_v1.1/sw/modules/ctrl/src/32b/ctrl.c",line 106,column 3,is_s
    6395 000003f2 0694          MOVL      ACC,*+XAR4[AR0]       ; [CPU_] |106| 
    6396 000003f3 1ED5          MOVL      *+XAR5[2],ACC         ; [CPU_] |106| 
    6397              $C$DW$443       .dwtag  DW_TAG_TI_branch
    6398                      .dwattr $C$DW$443, DW_AT_low_pc(0x00)
    6399                      .dwattr $C$DW$443, DW_AT_TI_return
    6400              
    6401 000003f4 0006          LRETR     ; [CPU_] 
    6402                      ; return occurs ; [] 
    6403                      .dwattr $C$DW$438, DW_AT_TI_end_file("C:/Users/wmj/Desktop/BM1000_v1.1/sw/modules/ctrl/src/32b/ctrl.c
    6404                      .dwattr $C$DW$438, DW_AT_TI_end_line(0x6d)
    6405                      .dwattr $C$DW$438, DW_AT_TI_end_column(0x01)
    6406                      .dwendentry
    6407                      .dwendtag $C$DW$438
    6408              
    6409 000003f5               .sect   ".text"
    6410                      .clink
    6411                      .global _CTRL_getIab_filt_pu
    6412              
    6413              $C$DW$444       .dwtag  DW_TAG_subprogram
    6414                      .dwattr $C$DW$444, DW_AT_name("CTRL_getIab_filt_pu")
TMS320C2000 Assembler PC v15.12.3 Wed Nov 22 00:56:17 2017

Tools Copyright (c) 1996-2015 Texas Instruments Incorporated
C:\Users\wmj\AppData\Local\Temp\0070810                              PAGE  124

    6415                      .dwattr $C$DW$444, DW_AT_low_pc(_CTRL_getIab_filt_pu)
    6416                      .dwattr $C$DW$444, DW_AT_high_pc(0x00)
    6417                      .dwattr $C$DW$444, DW_AT_TI_symbol_name("_CTRL_getIab_filt_pu")
    6418                      .dwattr $C$DW$444, DW_AT_external
    6419                      .dwattr $C$DW$444, DW_AT_TI_begin_file("C:/Users/wmj/Desktop/BM1000_v1.1/sw/modules/ctrl/src/32b/ctrl
    6420                      .dwattr $C$DW$444, DW_AT_TI_begin_line(0x5a)
    6421                      .dwattr $C$DW$444, DW_AT_TI_begin_column(0x06)
    6422                      .dwattr $C$DW$444, DW_AT_TI_max_frame_size(-2)
    6423                      .dwpsn  file "C:/Users/wmj/Desktop/BM1000_v1.1/sw/modules/ctrl/src/32b/ctrl.c",line 91,column 1,is_st
    6424              
    6425                      .dwfde $C$DW$CIE, _CTRL_getIab_filt_pu
    6426              $C$DW$445       .dwtag  DW_TAG_formal_parameter
    6427                      .dwattr $C$DW$445, DW_AT_name("handle")
    6428                      .dwattr $C$DW$445, DW_AT_TI_symbol_name("_handle")
    6429                      .dwattr $C$DW$445, DW_AT_type(*$C$DW$T$170)
    6430                      .dwattr $C$DW$445, DW_AT_location[DW_OP_reg12]
    6431              
    6432              $C$DW$446       .dwtag  DW_TAG_formal_parameter
    6433                      .dwattr $C$DW$446, DW_AT_name("pIab_filt_pu")
    6434                      .dwattr $C$DW$446, DW_AT_TI_symbol_name("_pIab_filt_pu")
    6435                      .dwattr $C$DW$446, DW_AT_type(*$C$DW$T$212)
    6436                      .dwattr $C$DW$446, DW_AT_location[DW_OP_reg14]
    6437              
    6438              
    6439              ;***************************************************************
    6440              ;* FNAME: _CTRL_getIab_filt_pu          FR SIZE:   0           *
    6441              ;*                                                             *
    6442              ;* FUNCTION ENVIRONMENT                                        *
    6443              ;*                                                             *
    6444              ;* FUNCTION PROPERTIES                                         *
    6445              ;*                            0 Parameter,  0 Auto,  0 SOE     *
    6446              ;***************************************************************
    6447              
    6448              _CTRL_getIab_filt_pu:
    6449              ;* AR4   assigned to _handle
    6450              $C$DW$447       .dwtag  DW_TAG_variable
    6451                      .dwattr $C$DW$447, DW_AT_name("handle")
    6452                      .dwattr $C$DW$447, DW_AT_TI_symbol_name("_handle")
    6453                      .dwattr $C$DW$447, DW_AT_type(*$C$DW$T$189)
    6454                      .dwattr $C$DW$447, DW_AT_location[DW_OP_reg12]
    6455              
    6456              ;* AR5   assigned to _pIab_filt_pu
    6457              $C$DW$448       .dwtag  DW_TAG_variable
    6458                      .dwattr $C$DW$448, DW_AT_name("pIab_filt_pu")
    6459                      .dwattr $C$DW$448, DW_AT_TI_symbol_name("_pIab_filt_pu")
    6460                      .dwattr $C$DW$448, DW_AT_type(*$C$DW$T$214)
    6461                      .dwattr $C$DW$448, DW_AT_location[DW_OP_reg14]
    6462              
    6463                      .dwcfi  cfa_offset, -2
    6464                      .dwcfi  save_reg_to_mem, 26, 0
    6465                      .dwpsn  file "C:/Users/wmj/Desktop/BM1000_v1.1/sw/modules/ctrl/src/32b/ctrl.c",line 94,column 3,is_st
    6466 000003f5 D0AE          MOVB      XAR0,#174             ; [CPU_] |94| 
    6467 000003f6 0694          MOVL      ACC,*+XAR4[AR0]       ; [CPU_] |94| 
    6468                      .dwpsn  file "C:/Users/wmj/Desktop/BM1000_v1.1/sw/modules/ctrl/src/32b/ctrl.c",line 95,column 3,is_st
    6469 000003f7 D0B0          MOVB      XAR0,#176             ; [CPU_] |95| 
TMS320C2000 Assembler PC v15.12.3 Wed Nov 22 00:56:17 2017

Tools Copyright (c) 1996-2015 Texas Instruments Incorporated
C:\Users\wmj\AppData\Local\Temp\0070810                              PAGE  125

    6470                      .dwpsn  file "C:/Users/wmj/Desktop/BM1000_v1.1/sw/modules/ctrl/src/32b/ctrl.c",line 94,column 3,is_st
    6471 000003f8 1EC5          MOVL      *+XAR5[0],ACC         ; [CPU_] |94| 
    6472                      .dwpsn  file "C:/Users/wmj/Desktop/BM1000_v1.1/sw/modules/ctrl/src/32b/ctrl.c",line 95,column 3,is_st
    6473 000003f9 0694          MOVL      ACC,*+XAR4[AR0]       ; [CPU_] |95| 
    6474 000003fa 1ED5          MOVL      *+XAR5[2],ACC         ; [CPU_] |95| 
    6475              $C$DW$449       .dwtag  DW_TAG_TI_branch
    6476                      .dwattr $C$DW$449, DW_AT_low_pc(0x00)
    6477                      .dwattr $C$DW$449, DW_AT_TI_return
    6478              
    6479 000003fb 0006          LRETR     ; [CPU_] 
    6480                      ; return occurs ; [] 
    6481                      .dwattr $C$DW$444, DW_AT_TI_end_file("C:/Users/wmj/Desktop/BM1000_v1.1/sw/modules/ctrl/src/32b/ctrl.c
    6482                      .dwattr $C$DW$444, DW_AT_TI_end_line(0x62)
    6483                      .dwattr $C$DW$444, DW_AT_TI_end_column(0x01)
    6484                      .dwendentry
    6485                      .dwendtag $C$DW$444
    6486              
    6487 000003fc               .sect   ".text"
    6488                      .clink
    6489                      .global _CTRL_getGains
    6490              
    6491              $C$DW$450       .dwtag  DW_TAG_subprogram
    6492                      .dwattr $C$DW$450, DW_AT_name("CTRL_getGains")
    6493                      .dwattr $C$DW$450, DW_AT_low_pc(_CTRL_getGains)
    6494                      .dwattr $C$DW$450, DW_AT_high_pc(0x00)
    6495                      .dwattr $C$DW$450, DW_AT_TI_symbol_name("_CTRL_getGains")
    6496                      .dwattr $C$DW$450, DW_AT_external
    6497                      .dwattr $C$DW$450, DW_AT_TI_begin_file("C:/Users/wmj/Desktop/BM1000_v1.1/sw/modules/ctrl/src/32b/ctrl
    6498                      .dwattr $C$DW$450, DW_AT_TI_begin_line(0x4e)
    6499                      .dwattr $C$DW$450, DW_AT_TI_begin_column(0x06)
    6500                      .dwattr $C$DW$450, DW_AT_TI_max_frame_size(-2)
    6501                      .dwpsn  file "C:/Users/wmj/Desktop/BM1000_v1.1/sw/modules/ctrl/src/32b/ctrl.c",line 80,column 1,is_st
    6502              
    6503                      .dwfde $C$DW$CIE, _CTRL_getGains
    6504              $C$DW$451       .dwtag  DW_TAG_formal_parameter
    6505                      .dwattr $C$DW$451, DW_AT_name("handle")
    6506                      .dwattr $C$DW$451, DW_AT_TI_symbol_name("_handle")
    6507                      .dwattr $C$DW$451, DW_AT_type(*$C$DW$T$170)
    6508                      .dwattr $C$DW$451, DW_AT_location[DW_OP_reg12]
    6509              
    6510              $C$DW$452       .dwtag  DW_TAG_formal_parameter
    6511                      .dwattr $C$DW$452, DW_AT_name("ctrlType")
    6512                      .dwattr $C$DW$452, DW_AT_TI_symbol_name("_ctrlType")
    6513                      .dwattr $C$DW$452, DW_AT_type(*$C$DW$T$181)
    6514                      .dwattr $C$DW$452, DW_AT_location[DW_OP_reg0]
    6515              
    6516              $C$DW$453       .dwtag  DW_TAG_formal_parameter
    6517                      .dwattr $C$DW$453, DW_AT_name("pKp")
    6518                      .dwattr $C$DW$453, DW_AT_TI_symbol_name("_pKp")
    6519                      .dwattr $C$DW$453, DW_AT_type(*$C$DW$T$245)
    6520                      .dwattr $C$DW$453, DW_AT_location[DW_OP_reg14]
    6521              
    6522              $C$DW$454       .dwtag  DW_TAG_formal_parameter
    6523                      .dwattr $C$DW$454, DW_AT_name("pKi")
    6524                      .dwattr $C$DW$454, DW_AT_TI_symbol_name("_pKi")
TMS320C2000 Assembler PC v15.12.3 Wed Nov 22 00:56:17 2017

Tools Copyright (c) 1996-2015 Texas Instruments Incorporated
C:\Users\wmj\AppData\Local\Temp\0070810                              PAGE  126

    6525                      .dwattr $C$DW$454, DW_AT_type(*$C$DW$T$245)
    6526                      .dwattr $C$DW$454, DW_AT_location[DW_OP_breg20 -4]
    6527              
    6528              $C$DW$455       .dwtag  DW_TAG_formal_parameter
    6529                      .dwattr $C$DW$455, DW_AT_name("pKd")
    6530                      .dwattr $C$DW$455, DW_AT_TI_symbol_name("_pKd")
    6531                      .dwattr $C$DW$455, DW_AT_type(*$C$DW$T$245)
    6532                      .dwattr $C$DW$455, DW_AT_location[DW_OP_breg20 -6]
    6533              
    6534              
    6535              ;***************************************************************
    6536              ;* FNAME: _CTRL_getGains                FR SIZE:   0           *
    6537              ;*                                                             *
    6538              ;* FUNCTION ENVIRONMENT                                        *
    6539              ;*                                                             *
    6540              ;* FUNCTION PROPERTIES                                         *
    6541              ;*                            0 Parameter,  0 Auto,  0 SOE     *
    6542              ;***************************************************************
    6543              
    6544              _CTRL_getGains:
    6545              ;* PL    assigned to _Kp
    6546              $C$DW$456       .dwtag  DW_TAG_variable
    6547                      .dwattr $C$DW$456, DW_AT_name("Kp")
    6548                      .dwattr $C$DW$456, DW_AT_TI_symbol_name("_Kp")
    6549                      .dwattr $C$DW$456, DW_AT_type(*$C$DW$T$31)
    6550                      .dwattr $C$DW$456, DW_AT_location[DW_OP_reg2]
    6551              
    6552              ;* PL    assigned to _Ki
    6553              $C$DW$457       .dwtag  DW_TAG_variable
    6554                      .dwattr $C$DW$457, DW_AT_name("Ki")
    6555                      .dwattr $C$DW$457, DW_AT_TI_symbol_name("_Ki")
    6556                      .dwattr $C$DW$457, DW_AT_type(*$C$DW$T$31)
    6557                      .dwattr $C$DW$457, DW_AT_location[DW_OP_reg2]
    6558              
    6559              ;* AL    assigned to _Kd
    6560              $C$DW$458       .dwtag  DW_TAG_variable
    6561                      .dwattr $C$DW$458, DW_AT_name("Kd")
    6562                      .dwattr $C$DW$458, DW_AT_TI_symbol_name("_Kd")
    6563                      .dwattr $C$DW$458, DW_AT_type(*$C$DW$T$31)
    6564                      .dwattr $C$DW$458, DW_AT_location[DW_OP_reg0]
    6565              
    6566              ;* AR6   assigned to _pKd
    6567              $C$DW$459       .dwtag  DW_TAG_variable
    6568                      .dwattr $C$DW$459, DW_AT_name("pKd")
    6569                      .dwattr $C$DW$459, DW_AT_TI_symbol_name("_pKd")
    6570                      .dwattr $C$DW$459, DW_AT_type(*$C$DW$T$319)
    6571                      .dwattr $C$DW$459, DW_AT_location[DW_OP_reg16]
    6572              
    6573              ;* AR7   assigned to _pKi
    6574              $C$DW$460       .dwtag  DW_TAG_variable
    6575                      .dwattr $C$DW$460, DW_AT_name("pKi")
    6576                      .dwattr $C$DW$460, DW_AT_TI_symbol_name("_pKi")
    6577                      .dwattr $C$DW$460, DW_AT_type(*$C$DW$T$319)
    6578                      .dwattr $C$DW$460, DW_AT_location[DW_OP_reg18]
    6579              
TMS320C2000 Assembler PC v15.12.3 Wed Nov 22 00:56:17 2017

Tools Copyright (c) 1996-2015 Texas Instruments Incorporated
C:\Users\wmj\AppData\Local\Temp\0070810                              PAGE  127

    6580              ;* AR5   assigned to _pKp
    6581              $C$DW$461       .dwtag  DW_TAG_variable
    6582                      .dwattr $C$DW$461, DW_AT_name("pKp")
    6583                      .dwattr $C$DW$461, DW_AT_TI_symbol_name("_pKp")
    6584                      .dwattr $C$DW$461, DW_AT_type(*$C$DW$T$319)
    6585                      .dwattr $C$DW$461, DW_AT_location[DW_OP_reg14]
    6586              
    6587              ;* AL    assigned to _ctrlType
    6588              $C$DW$462       .dwtag  DW_TAG_variable
    6589                      .dwattr $C$DW$462, DW_AT_name("ctrlType")
    6590                      .dwattr $C$DW$462, DW_AT_TI_symbol_name("_ctrlType")
    6591                      .dwattr $C$DW$462, DW_AT_type(*$C$DW$T$181)
    6592                      .dwattr $C$DW$462, DW_AT_location[DW_OP_reg0]
    6593              
    6594              ;* AR4   assigned to _handle
    6595              $C$DW$463       .dwtag  DW_TAG_variable
    6596                      .dwattr $C$DW$463, DW_AT_name("handle")
    6597                      .dwattr $C$DW$463, DW_AT_TI_symbol_name("_handle")
    6598                      .dwattr $C$DW$463, DW_AT_type(*$C$DW$T$189)
    6599                      .dwattr $C$DW$463, DW_AT_location[DW_OP_reg12]
    6600              
    6601                      .dwcfi  cfa_offset, -2
    6602                      .dwcfi  save_reg_to_mem, 26, 0
    6603                      .dwpsn  file "C:/Users/wmj/Desktop/BM1000_v1.1/sw/modules/ctrl/src/32b/ctrl.h",line 547,column 7,is_s
    6604 000003fc 5200          CMPB      AL,#0                 ; [CPU_] |547| 
    6605                      .dwpsn  file "C:/Users/wmj/Desktop/BM1000_v1.1/sw/modules/ctrl/src/32b/ctrl.c",line 80,column 1,is_st
    6606 000003fd C446          MOVL      XAR6,*-SP[6]          ; [CPU_] |80| 
    6607 000003fe C544          MOVL      XAR7,*-SP[4]          ; [CPU_] |80| 
    6608                      .dwpsn  file "C:/Users/wmj/Desktop/BM1000_v1.1/sw/modules/ctrl/src/32b/ctrl.h",line 547,column 7,is_s
    6609 000003ff 610B          B         $C$L89,EQ             ; [CPU_] |547| 
    6610                      ; branchcc occurs ; [] |547| 
    6611 00000400 5201          CMPB      AL,#1                 ; [CPU_] |547| 
    6612 00000401 6003          B         $C$L87,NEQ            ; [CPU_] |547| 
    6613                      ; branchcc occurs ; [] |547| 
    6614 00000402 D0CA          MOVB      XAR0,#202             ; [CPU_] |547| 
    6615 00000403 6F08          B         $C$L90,UNC            ; [CPU_] |547| 
    6616                      ; branch occurs ; [] |547| 
    6617 00000404       $C$L87:    
    6618 00000404 5202          CMPB      AL,#2                 ; [CPU_] |547| 
    6619 00000405 6003          B         $C$L88,NEQ            ; [CPU_] |547| 
    6620                      ; branchcc occurs ; [] |547| 
    6621 00000406 D0CC          MOVB      XAR0,#204             ; [CPU_] |547| 
    6622 00000407 6F04          B         $C$L90,UNC            ; [CPU_] |547| 
    6623                      ; branch occurs ; [] |547| 
    6624 00000408       $C$L88:    
    6625 00000408 3100          MOV       P,#0                  ; [CPU_] |547| 
    6626 00000409 6F03          B         $C$L91,UNC            ; [CPU_] |547| 
    6627                      ; branch occurs ; [] |547| 
    6628 0000040a       $C$L89:    
    6629 0000040a D0CE          MOVB      XAR0,#206             ; [CPU_] |547| 
    6630 0000040b       $C$L90:    
    6631 0000040b A394          MOVL      P,*+XAR4[AR0]         ; [CPU_] |547| 
    6632 0000040c       $C$L91:    
    6633                      .dwpsn  file "C:/Users/wmj/Desktop/BM1000_v1.1/sw/modules/ctrl/src/32b/ctrl.h",line 495,column 7,is_s
    6634 0000040c 5200          CMPB      AL,#0                 ; [CPU_] |495| 
TMS320C2000 Assembler PC v15.12.3 Wed Nov 22 00:56:17 2017

Tools Copyright (c) 1996-2015 Texas Instruments Incorporated
C:\Users\wmj\AppData\Local\Temp\0070810                              PAGE  128

    6635                      .dwpsn  file "C:/Users/wmj/Desktop/BM1000_v1.1/sw/modules/ctrl/src/32b/ctrl.c",line 82,column 3,is_st
    6636 0000040d A9C5          MOVL      *+XAR5[0],P           ; [CPU_] |82| 
    6637                      .dwpsn  file "C:/Users/wmj/Desktop/BM1000_v1.1/sw/modules/ctrl/src/32b/ctrl.h",line 495,column 7,is_s
    6638 0000040e 610B          B         $C$L94,EQ             ; [CPU_] |495| 
    6639                      ; branchcc occurs ; [] |495| 
    6640 0000040f 5201          CMPB      AL,#1                 ; [CPU_] |495| 
    6641 00000410 6003          B         $C$L92,NEQ            ; [CPU_] |495| 
    6642                      ; branchcc occurs ; [] |495| 
    6643 00000411 D0D0          MOVB      XAR0,#208             ; [CPU_] |495| 
    6644 00000412 6F08          B         $C$L95,UNC            ; [CPU_] |495| 
    6645                      ; branch occurs ; [] |495| 
    6646 00000413       $C$L92:    
    6647 00000413 5202          CMPB      AL,#2                 ; [CPU_] |495| 
    6648 00000414 6003          B         $C$L93,NEQ            ; [CPU_] |495| 
    6649                      ; branchcc occurs ; [] |495| 
    6650 00000415 D0D2          MOVB      XAR0,#210             ; [CPU_] |495| 
    6651 00000416 6F04          B         $C$L95,UNC            ; [CPU_] |495| 
    6652                      ; branch occurs ; [] |495| 
    6653 00000417       $C$L93:    
    6654 00000417 3100          MOV       P,#0                  ; [CPU_] |495| 
    6655 00000418 6F03          B         $C$L96,UNC            ; [CPU_] |495| 
    6656                      ; branch occurs ; [] |495| 
    6657 00000419       $C$L94:    
    6658 00000419 D0D4          MOVB      XAR0,#212             ; [CPU_] |495| 
    6659 0000041a       $C$L95:    
    6660 0000041a A394          MOVL      P,*+XAR4[AR0]         ; [CPU_] |495| 
    6661 0000041b       $C$L96:    
    6662                      .dwpsn  file "C:/Users/wmj/Desktop/BM1000_v1.1/sw/modules/ctrl/src/32b/ctrl.h",line 521,column 7,is_s
    6663 0000041b 5200          CMPB      AL,#0                 ; [CPU_] |521| 
    6664                      .dwpsn  file "C:/Users/wmj/Desktop/BM1000_v1.1/sw/modules/ctrl/src/32b/ctrl.c",line 83,column 3,is_st
    6665 0000041c A9C7          MOVL      *+XAR7[0],P           ; [CPU_] |83| 
    6666                      .dwpsn  file "C:/Users/wmj/Desktop/BM1000_v1.1/sw/modules/ctrl/src/32b/ctrl.h",line 521,column 7,is_s
    6667 0000041d 610B          B         $C$L99,EQ             ; [CPU_] |521| 
    6668                      ; branchcc occurs ; [] |521| 
    6669 0000041e 5201          CMPB      AL,#1                 ; [CPU_] |521| 
    6670 0000041f 6003          B         $C$L97,NEQ            ; [CPU_] |521| 
    6671                      ; branchcc occurs ; [] |521| 
    6672 00000420 D0D6          MOVB      XAR0,#214             ; [CPU_] |521| 
    6673 00000421 6F08          B         $C$L100,UNC           ; [CPU_] |521| 
    6674                      ; branch occurs ; [] |521| 
    6675 00000422       $C$L97:    
    6676 00000422 5202          CMPB      AL,#2                 ; [CPU_] |521| 
    6677 00000423 6003          B         $C$L98,NEQ            ; [CPU_] |521| 
    6678                      ; branchcc occurs ; [] |521| 
    6679 00000424 D0D8          MOVB      XAR0,#216             ; [CPU_] |521| 
    6680 00000425 6F04          B         $C$L100,UNC           ; [CPU_] |521| 
    6681                      ; branch occurs ; [] |521| 
    6682 00000426       $C$L98:    
    6683 00000426 0200          MOVB      ACC,#0                ; [CPU_] |521| 
    6684 00000427 6F03          B         $C$L101,UNC           ; [CPU_] |521| 
    6685                      ; branch occurs ; [] |521| 
    6686 00000428       $C$L99:    
    6687 00000428 D0DA          MOVB      XAR0,#218             ; [CPU_] |521| 
    6688 00000429       $C$L100:    
    6689 00000429 0694          MOVL      ACC,*+XAR4[AR0]       ; [CPU_] |521| 
TMS320C2000 Assembler PC v15.12.3 Wed Nov 22 00:56:17 2017

Tools Copyright (c) 1996-2015 Texas Instruments Incorporated
C:\Users\wmj\AppData\Local\Temp\0070810                              PAGE  129

    6690 0000042a       $C$L101:    
    6691                      .dwpsn  file "C:/Users/wmj/Desktop/BM1000_v1.1/sw/modules/ctrl/src/32b/ctrl.c",line 84,column 3,is_st
    6692 0000042a 1EC6          MOVL      *+XAR6[0],ACC         ; [CPU_] |84| 
    6693              $C$DW$464       .dwtag  DW_TAG_TI_branch
    6694                      .dwattr $C$DW$464, DW_AT_low_pc(0x00)
    6695                      .dwattr $C$DW$464, DW_AT_TI_return
    6696              
    6697 0000042b 0006          LRETR     ; [CPU_] 
    6698                      ; return occurs ; [] 
    6699                      .dwattr $C$DW$450, DW_AT_TI_end_file("C:/Users/wmj/Desktop/BM1000_v1.1/sw/modules/ctrl/src/32b/ctrl.c
    6700                      .dwattr $C$DW$450, DW_AT_TI_end_line(0x57)
    6701                      .dwattr $C$DW$450, DW_AT_TI_end_column(0x01)
    6702                      .dwendentry
    6703                      .dwendtag $C$DW$450
    6704              
    6705 0000042c               .sect   ".text"
    6706                      .clink
    6707              
    6708              $C$DW$465       .dwtag  DW_TAG_subprogram
    6709                      .dwattr $C$DW$465, DW_AT_name("CTRL_setIdRated_pu")
    6710                      .dwattr $C$DW$465, DW_AT_low_pc(_CTRL_setIdRated_pu)
    6711                      .dwattr $C$DW$465, DW_AT_high_pc(0x00)
    6712                      .dwattr $C$DW$465, DW_AT_TI_symbol_name("_CTRL_setIdRated_pu")
    6713                      .dwattr $C$DW$465, DW_AT_TI_begin_file("C:/Users/wmj/Desktop/BM1000_v1.1/sw/modules/ctrl/src/32b/ctrl
    6714                      .dwattr $C$DW$465, DW_AT_TI_begin_line(0x59b)
    6715                      .dwattr $C$DW$465, DW_AT_TI_begin_column(0x0d)
    6716                      .dwattr $C$DW$465, DW_AT_TI_max_frame_size(-2)
    6717                      .dwpsn  file "C:/Users/wmj/Desktop/BM1000_v1.1/sw/modules/ctrl/src/32b/ctrl.h",line 1436,column 1,is_
    6718              
    6719                      .dwfde $C$DW$CIE, _CTRL_setIdRated_pu
    6720              $C$DW$466       .dwtag  DW_TAG_formal_parameter
    6721                      .dwattr $C$DW$466, DW_AT_name("handle")
    6722                      .dwattr $C$DW$466, DW_AT_TI_symbol_name("_handle")
    6723                      .dwattr $C$DW$466, DW_AT_type(*$C$DW$T$170)
    6724                      .dwattr $C$DW$466, DW_AT_location[DW_OP_reg12]
    6725              
    6726              $C$DW$467       .dwtag  DW_TAG_formal_parameter
    6727                      .dwattr $C$DW$467, DW_AT_name("IdRated_pu")
    6728                      .dwattr $C$DW$467, DW_AT_TI_symbol_name("_IdRated_pu")
    6729                      .dwattr $C$DW$467, DW_AT_type(*$C$DW$T$238)
    6730                      .dwattr $C$DW$467, DW_AT_location[DW_OP_reg0]
    6731              
    6732              
    6733              ;***************************************************************
    6734              ;* FNAME: _CTRL_setIdRated_pu           FR SIZE:   0           *
    6735              ;*                                                             *
    6736              ;* FUNCTION ENVIRONMENT                                        *
    6737              ;*                                                             *
    6738              ;* FUNCTION PROPERTIES                                         *
    6739              ;*                            0 Parameter,  0 Auto,  0 SOE     *
    6740              ;***************************************************************
    6741              
    6742              _CTRL_setIdRated_pu:
    6743              ;* AR4   assigned to _handle
    6744              $C$DW$468       .dwtag  DW_TAG_variable
TMS320C2000 Assembler PC v15.12.3 Wed Nov 22 00:56:17 2017

Tools Copyright (c) 1996-2015 Texas Instruments Incorporated
C:\Users\wmj\AppData\Local\Temp\0070810                              PAGE  130

    6745                      .dwattr $C$DW$468, DW_AT_name("handle")
    6746                      .dwattr $C$DW$468, DW_AT_TI_symbol_name("_handle")
    6747                      .dwattr $C$DW$468, DW_AT_type(*$C$DW$T$189)
    6748                      .dwattr $C$DW$468, DW_AT_location[DW_OP_reg12]
    6749              
    6750              ;* AL    assigned to _IdRated_pu
    6751              $C$DW$469       .dwtag  DW_TAG_variable
    6752                      .dwattr $C$DW$469, DW_AT_name("IdRated_pu")
    6753                      .dwattr $C$DW$469, DW_AT_TI_symbol_name("_IdRated_pu")
    6754                      .dwattr $C$DW$469, DW_AT_type(*$C$DW$T$238)
    6755                      .dwattr $C$DW$469, DW_AT_location[DW_OP_reg0]
    6756              
    6757                      .dwcfi  cfa_offset, -2
    6758                      .dwcfi  save_reg_to_mem, 26, 0
    6759                      .dwpsn  file "C:/Users/wmj/Desktop/BM1000_v1.1/sw/modules/ctrl/src/32b/ctrl.h",line 1439,column 3,is_
    6760 0000042c D0E6          MOVB      XAR0,#230             ; [CPU_] |1439| 
    6761 0000042d 1E94          MOVL      *+XAR4[AR0],ACC       ; [CPU_] |1439| 
    6762              $C$DW$470       .dwtag  DW_TAG_TI_branch
    6763                      .dwattr $C$DW$470, DW_AT_low_pc(0x00)
    6764                      .dwattr $C$DW$470, DW_AT_TI_return
    6765              
    6766 0000042e 0006          LRETR     ; [CPU_] 
    6767                      ; return occurs ; [] 
    6768                      .dwattr $C$DW$465, DW_AT_TI_end_file("C:/Users/wmj/Desktop/BM1000_v1.1/sw/modules/ctrl/src/32b/ctrl.h
    6769                      .dwattr $C$DW$465, DW_AT_TI_end_line(0x5a2)
    6770                      .dwattr $C$DW$465, DW_AT_TI_end_column(0x01)
    6771                      .dwendentry
    6772                      .dwendtag $C$DW$465
    6773              
    6774 0000042f               .sect   ".text"
    6775                      .clink
    6776              
    6777              $C$DW$471       .dwtag  DW_TAG_subprogram
    6778                      .dwattr $C$DW$471, DW_AT_name("CTRL_setSpd_max_pu")
    6779                      .dwattr $C$DW$471, DW_AT_low_pc(_CTRL_setSpd_max_pu)
    6780                      .dwattr $C$DW$471, DW_AT_high_pc(0x00)
    6781                      .dwattr $C$DW$471, DW_AT_TI_symbol_name("_CTRL_setSpd_max_pu")
    6782                      .dwattr $C$DW$471, DW_AT_TI_begin_file("C:/Users/wmj/Desktop/BM1000_v1.1/sw/modules/ctrl/src/32b/ctrl
    6783                      .dwattr $C$DW$471, DW_AT_TI_begin_line(0x6ee)
    6784                      .dwattr $C$DW$471, DW_AT_TI_begin_column(0x0d)
    6785                      .dwattr $C$DW$471, DW_AT_TI_max_frame_size(-2)
    6786                      .dwpsn  file "C:/Users/wmj/Desktop/BM1000_v1.1/sw/modules/ctrl/src/32b/ctrl.h",line 1775,column 1,is_
    6787              
    6788                      .dwfde $C$DW$CIE, _CTRL_setSpd_max_pu
    6789              $C$DW$472       .dwtag  DW_TAG_formal_parameter
    6790                      .dwattr $C$DW$472, DW_AT_name("handle")
    6791                      .dwattr $C$DW$472, DW_AT_TI_symbol_name("_handle")
    6792                      .dwattr $C$DW$472, DW_AT_type(*$C$DW$T$170)
    6793                      .dwattr $C$DW$472, DW_AT_location[DW_OP_reg12]
    6794              
    6795              $C$DW$473       .dwtag  DW_TAG_formal_parameter
    6796                      .dwattr $C$DW$473, DW_AT_name("maxSpd_pu")
    6797                      .dwattr $C$DW$473, DW_AT_TI_symbol_name("_maxSpd_pu")
    6798                      .dwattr $C$DW$473, DW_AT_type(*$C$DW$T$238)
    6799                      .dwattr $C$DW$473, DW_AT_location[DW_OP_reg0]
TMS320C2000 Assembler PC v15.12.3 Wed Nov 22 00:56:17 2017

Tools Copyright (c) 1996-2015 Texas Instruments Incorporated
C:\Users\wmj\AppData\Local\Temp\0070810                              PAGE  131

    6800              
    6801              
    6802              ;***************************************************************
    6803              ;* FNAME: _CTRL_setSpd_max_pu           FR SIZE:   0           *
    6804              ;*                                                             *
    6805              ;* FUNCTION ENVIRONMENT                                        *
    6806              ;*                                                             *
    6807              ;* FUNCTION PROPERTIES                                         *
    6808              ;*                            0 Parameter,  0 Auto,  0 SOE     *
    6809              ;***************************************************************
    6810              
    6811              _CTRL_setSpd_max_pu:
    6812              ;* AR4   assigned to _handle
    6813              $C$DW$474       .dwtag  DW_TAG_variable
    6814                      .dwattr $C$DW$474, DW_AT_name("handle")
    6815                      .dwattr $C$DW$474, DW_AT_TI_symbol_name("_handle")
    6816                      .dwattr $C$DW$474, DW_AT_type(*$C$DW$T$189)
    6817                      .dwattr $C$DW$474, DW_AT_location[DW_OP_reg12]
    6818              
    6819              ;* AL    assigned to _maxSpd_pu
    6820              $C$DW$475       .dwtag  DW_TAG_variable
    6821                      .dwattr $C$DW$475, DW_AT_name("maxSpd_pu")
    6822                      .dwattr $C$DW$475, DW_AT_TI_symbol_name("_maxSpd_pu")
    6823                      .dwattr $C$DW$475, DW_AT_type(*$C$DW$T$238)
    6824                      .dwattr $C$DW$475, DW_AT_location[DW_OP_reg0]
    6825              
    6826                      .dwcfi  cfa_offset, -2
    6827                      .dwcfi  save_reg_to_mem, 26, 0
    6828                      .dwpsn  file "C:/Users/wmj/Desktop/BM1000_v1.1/sw/modules/ctrl/src/32b/ctrl.h",line 1778,column 3,is_
    6829 0000042f D0EA          MOVB      XAR0,#234             ; [CPU_] |1778| 
    6830 00000430 1E94          MOVL      *+XAR4[AR0],ACC       ; [CPU_] |1778| 
    6831              $C$DW$476       .dwtag  DW_TAG_TI_branch
    6832                      .dwattr $C$DW$476, DW_AT_low_pc(0x00)
    6833                      .dwattr $C$DW$476, DW_AT_TI_return
    6834              
    6835 00000431 0006          LRETR     ; [CPU_] 
    6836                      ; return occurs ; [] 
    6837                      .dwattr $C$DW$471, DW_AT_TI_end_file("C:/Users/wmj/Desktop/BM1000_v1.1/sw/modules/ctrl/src/32b/ctrl.h
    6838                      .dwattr $C$DW$471, DW_AT_TI_end_line(0x6f5)
    6839                      .dwattr $C$DW$471, DW_AT_TI_end_column(0x01)
    6840                      .dwendentry
    6841                      .dwendtag $C$DW$471
    6842              
    6843 00000432               .sect   ".text"
    6844                      .clink
    6845              
    6846              $C$DW$477       .dwtag  DW_TAG_subprogram
    6847                      .dwattr $C$DW$477, DW_AT_name("CTRL_getSpd_max_pu")
    6848                      .dwattr $C$DW$477, DW_AT_low_pc(_CTRL_getSpd_max_pu)
    6849                      .dwattr $C$DW$477, DW_AT_high_pc(0x00)
    6850                      .dwattr $C$DW$477, DW_AT_TI_symbol_name("_CTRL_getSpd_max_pu")
    6851                      .dwattr $C$DW$477, DW_AT_type(*$C$DW$T$31)
    6852                      .dwattr $C$DW$477, DW_AT_TI_begin_file("C:/Users/wmj/Desktop/BM1000_v1.1/sw/modules/ctrl/src/32b/ctrl
    6853                      .dwattr $C$DW$477, DW_AT_TI_begin_line(0x2e2)
    6854                      .dwattr $C$DW$477, DW_AT_TI_begin_column(0x0c)
TMS320C2000 Assembler PC v15.12.3 Wed Nov 22 00:56:17 2017

Tools Copyright (c) 1996-2015 Texas Instruments Incorporated
C:\Users\wmj\AppData\Local\Temp\0070810                              PAGE  132

    6855                      .dwattr $C$DW$477, DW_AT_TI_max_frame_size(-2)
    6856                      .dwpsn  file "C:/Users/wmj/Desktop/BM1000_v1.1/sw/modules/ctrl/src/32b/ctrl.h",line 739,column 1,is_s
    6857              
    6858                      .dwfde $C$DW$CIE, _CTRL_getSpd_max_pu
    6859              $C$DW$478       .dwtag  DW_TAG_formal_parameter
    6860                      .dwattr $C$DW$478, DW_AT_name("handle")
    6861                      .dwattr $C$DW$478, DW_AT_TI_symbol_name("_handle")
    6862                      .dwattr $C$DW$478, DW_AT_type(*$C$DW$T$170)
    6863                      .dwattr $C$DW$478, DW_AT_location[DW_OP_reg12]
    6864              
    6865              
    6866              ;***************************************************************
    6867              ;* FNAME: _CTRL_getSpd_max_pu           FR SIZE:   0           *
    6868              ;*                                                             *
    6869              ;* FUNCTION ENVIRONMENT                                        *
    6870              ;*                                                             *
    6871              ;* FUNCTION PROPERTIES                                         *
    6872              ;*                            0 Parameter,  0 Auto,  0 SOE     *
    6873              ;***************************************************************
    6874              
    6875              _CTRL_getSpd_max_pu:
    6876              ;* AR4   assigned to _handle
    6877              $C$DW$479       .dwtag  DW_TAG_variable
    6878                      .dwattr $C$DW$479, DW_AT_name("handle")
    6879                      .dwattr $C$DW$479, DW_AT_TI_symbol_name("_handle")
    6880                      .dwattr $C$DW$479, DW_AT_type(*$C$DW$T$189)
    6881                      .dwattr $C$DW$479, DW_AT_location[DW_OP_reg12]
    6882              
    6883                      .dwcfi  cfa_offset, -2
    6884                      .dwcfi  save_reg_to_mem, 26, 0
    6885                      .dwpsn  file "C:/Users/wmj/Desktop/BM1000_v1.1/sw/modules/ctrl/src/32b/ctrl.h",line 742,column 3,is_s
    6886 00000432 D0EA          MOVB      XAR0,#234             ; [CPU_] |742| 
    6887 00000433 0694          MOVL      ACC,*+XAR4[AR0]       ; [CPU_] |742| 
    6888              $C$DW$480       .dwtag  DW_TAG_TI_branch
    6889                      .dwattr $C$DW$480, DW_AT_low_pc(0x00)
    6890                      .dwattr $C$DW$480, DW_AT_TI_return
    6891              
    6892 00000434 0006          LRETR     ; [CPU_] 
    6893                      ; return occurs ; [] 
    6894                      .dwattr $C$DW$477, DW_AT_TI_end_file("C:/Users/wmj/Desktop/BM1000_v1.1/sw/modules/ctrl/src/32b/ctrl.h
    6895                      .dwattr $C$DW$477, DW_AT_TI_end_line(0x2e7)
    6896                      .dwattr $C$DW$477, DW_AT_TI_end_column(0x01)
    6897                      .dwendentry
    6898                      .dwendtag $C$DW$477
    6899              
    6900 00000435               .sect   ".text"
    6901                      .clink
    6902              
    6903              $C$DW$481       .dwtag  DW_TAG_subprogram
    6904                      .dwattr $C$DW$481, DW_AT_name("CTRL_getIdRated_pu")
    6905                      .dwattr $C$DW$481, DW_AT_low_pc(_CTRL_getIdRated_pu)
    6906                      .dwattr $C$DW$481, DW_AT_high_pc(0x00)
    6907                      .dwattr $C$DW$481, DW_AT_TI_symbol_name("_CTRL_getIdRated_pu")
    6908                      .dwattr $C$DW$481, DW_AT_type(*$C$DW$T$31)
    6909                      .dwattr $C$DW$481, DW_AT_TI_begin_file("C:/Users/wmj/Desktop/BM1000_v1.1/sw/modules/ctrl/src/32b/ctrl
TMS320C2000 Assembler PC v15.12.3 Wed Nov 22 00:56:17 2017

Tools Copyright (c) 1996-2015 Texas Instruments Incorporated
C:\Users\wmj\AppData\Local\Temp\0070810                              PAGE  133

    6910                      .dwattr $C$DW$481, DW_AT_TI_begin_line(0x1a2)
    6911                      .dwattr $C$DW$481, DW_AT_TI_begin_column(0x0c)
    6912                      .dwattr $C$DW$481, DW_AT_TI_max_frame_size(-2)
    6913                      .dwpsn  file "C:/Users/wmj/Desktop/BM1000_v1.1/sw/modules/ctrl/src/32b/ctrl.h",line 419,column 1,is_s
    6914              
    6915                      .dwfde $C$DW$CIE, _CTRL_getIdRated_pu
    6916              $C$DW$482       .dwtag  DW_TAG_formal_parameter
    6917                      .dwattr $C$DW$482, DW_AT_name("handle")
    6918                      .dwattr $C$DW$482, DW_AT_TI_symbol_name("_handle")
    6919                      .dwattr $C$DW$482, DW_AT_type(*$C$DW$T$170)
    6920                      .dwattr $C$DW$482, DW_AT_location[DW_OP_reg12]
    6921              
    6922              
    6923              ;***************************************************************
    6924              ;* FNAME: _CTRL_getIdRated_pu           FR SIZE:   0           *
    6925              ;*                                                             *
    6926              ;* FUNCTION ENVIRONMENT                                        *
    6927              ;*                                                             *
    6928              ;* FUNCTION PROPERTIES                                         *
    6929              ;*                            0 Parameter,  0 Auto,  0 SOE     *
    6930              ;***************************************************************
    6931              
    6932              _CTRL_getIdRated_pu:
    6933              ;* AR4   assigned to _handle
    6934              $C$DW$483       .dwtag  DW_TAG_variable
    6935                      .dwattr $C$DW$483, DW_AT_name("handle")
    6936                      .dwattr $C$DW$483, DW_AT_TI_symbol_name("_handle")
    6937                      .dwattr $C$DW$483, DW_AT_type(*$C$DW$T$189)
    6938                      .dwattr $C$DW$483, DW_AT_location[DW_OP_reg12]
    6939              
    6940                      .dwcfi  cfa_offset, -2
    6941                      .dwcfi  save_reg_to_mem, 26, 0
    6942                      .dwpsn  file "C:/Users/wmj/Desktop/BM1000_v1.1/sw/modules/ctrl/src/32b/ctrl.h",line 422,column 3,is_s
    6943 00000435 D0E6          MOVB      XAR0,#230             ; [CPU_] |422| 
    6944 00000436 0694          MOVL      ACC,*+XAR4[AR0]       ; [CPU_] |422| 
    6945              $C$DW$484       .dwtag  DW_TAG_TI_branch
    6946                      .dwattr $C$DW$484, DW_AT_low_pc(0x00)
    6947                      .dwattr $C$DW$484, DW_AT_TI_return
    6948              
    6949 00000437 0006          LRETR     ; [CPU_] 
    6950                      ; return occurs ; [] 
    6951                      .dwattr $C$DW$481, DW_AT_TI_end_file("C:/Users/wmj/Desktop/BM1000_v1.1/sw/modules/ctrl/src/32b/ctrl.h
    6952                      .dwattr $C$DW$481, DW_AT_TI_end_line(0x1a7)
    6953                      .dwattr $C$DW$481, DW_AT_TI_end_column(0x01)
    6954                      .dwendentry
    6955                      .dwendtag $C$DW$481
    6956              
    6957              ;***************************************************************
    6958              ;* FLOATING-POINT CONSTANTS                                    *
    6959              ;***************************************************************
    6960 00000000               .sect   ".econst"
    6961                      .align  2
    6962 00000000 0000  $C$FL1: .xldouble       $strtod("0x1p+24")
         00000001 0000 
         00000002 0000 
TMS320C2000 Assembler PC v15.12.3 Wed Nov 22 00:56:17 2017

Tools Copyright (c) 1996-2015 Texas Instruments Incorporated
C:\Users\wmj\AppData\Local\Temp\0070810                              PAGE  134

         00000003 4170 
    6963              ;**************************************************************
    6964              ;* UNDEFINED EXTERNAL REFERENCES                              *
    6965              ;**************************************************************
    6966                      .global _CTRL_runTraj
    6967                      .global _CTRL_setEstParams
    6968                      .global _CTRL_setupTraj
    6969                      .global _CTRL_setUserMotorParams
    6970                      .global _CTRL_setupEstIdleState
    6971                      .global _CTRL_setupCtrl
    6972                      .global _CTRL_setupEstOnLineState
    6973                      .global _EST_setIdle
    6974                      .global _EST_run
    6975                      .global _EST_updateId_ref_pu
    6976                      .global _EST_setRs_pu
    6977                      .global _EST_setId_ref_pu
    6978                      .global _EST_setIdle_all
    6979                      .global _EST_setIq_ref_pu
    6980                      .global _EST_updateState
    6981                      .global _EST_useZeroIq_ref
    6982                      .global _EST_isMotorIdentified
    6983                      .global _EST_isOnLine
    6984                      .global _EST_doSpeedCtrl
    6985                      .global _EST_getState
    6986                      .global _EST_isIdle
    6987                      .global _EST_isLockRotor
    6988                      .global _EST_doCurrentCtrl
    6989                      .global _EST_isError
    6990                      .global _Brake_init
    6991                      .global __IQ24cosPU
    6992                      .global __IQ24sqrt
    6993                      .global __IQ24sinPU
    6994                      .global _EST_getFm_pu
    6995                      .global _EST_getOneOverDcBus_pu
    6996                      .global _EST_getAngle_pu
    6997                      .global _EST_get_krpm_to_pu_sf
    6998                      .global FD$$MPY
    6999                      .global FS$$TOFD
    7000                      .global UL$$TOFS
    7001                      .global FS$$DIV
    7002                      .global FS$$MPY
    7003                      .global FS$$ADD
    7004                      .global FD$$TOL
    7005              
    7006              ;***************************************************************
    7007              ;* TYPE INFORMATION                                            *
    7008              ;***************************************************************
    7009              
    7010              $C$DW$T$41      .dwtag  DW_TAG_enumeration_type
    7011                      .dwattr $C$DW$T$41, DW_AT_byte_size(0x01)
    7012              $C$DW$485       .dwtag  DW_TAG_enumerator
    7013                      .dwattr $C$DW$485, DW_AT_name("CTRL_State_Error")
    7014                      .dwattr $C$DW$485, DW_AT_const_value(0x00)
    7015              
    7016              $C$DW$486       .dwtag  DW_TAG_enumerator
TMS320C2000 Assembler PC v15.12.3 Wed Nov 22 00:56:17 2017

Tools Copyright (c) 1996-2015 Texas Instruments Incorporated
C:\Users\wmj\AppData\Local\Temp\0070810                              PAGE  135

    7017                      .dwattr $C$DW$486, DW_AT_name("CTRL_State_Idle")
    7018                      .dwattr $C$DW$486, DW_AT_const_value(0x01)
    7019              
    7020              $C$DW$487       .dwtag  DW_TAG_enumerator
    7021                      .dwattr $C$DW$487, DW_AT_name("CTRL_State_OffLine")
    7022                      .dwattr $C$DW$487, DW_AT_const_value(0x02)
    7023              
    7024              $C$DW$488       .dwtag  DW_TAG_enumerator
    7025                      .dwattr $C$DW$488, DW_AT_name("CTRL_State_OnLine")
    7026                      .dwattr $C$DW$488, DW_AT_const_value(0x03)
    7027              
    7028              $C$DW$489       .dwtag  DW_TAG_enumerator
    7029                      .dwattr $C$DW$489, DW_AT_name("CTRL_numStates")
    7030                      .dwattr $C$DW$489, DW_AT_const_value(0x04)
    7031              
    7032                      .dwendtag $C$DW$T$41
    7033              
    7034              $C$DW$T$42      .dwtag  DW_TAG_typedef
    7035                      .dwattr $C$DW$T$42, DW_AT_name("CTRL_State_e")
    7036                      .dwattr $C$DW$T$42, DW_AT_type(*$C$DW$T$41)
    7037                      .dwattr $C$DW$T$42, DW_AT_language(DW_LANG_C)
    7038              
    7039              
    7040              $C$DW$T$43      .dwtag  DW_TAG_enumeration_type
    7041                      .dwattr $C$DW$T$43, DW_AT_byte_size(0x01)
    7042              $C$DW$490       .dwtag  DW_TAG_enumerator
    7043                      .dwattr $C$DW$490, DW_AT_name("CTRL_ErrorCode_NoError")
    7044                      .dwattr $C$DW$490, DW_AT_const_value(0x00)
    7045              
    7046              $C$DW$491       .dwtag  DW_TAG_enumerator
    7047                      .dwattr $C$DW$491, DW_AT_name("CTRL_ErrorCode_IdClip")
    7048                      .dwattr $C$DW$491, DW_AT_const_value(0x01)
    7049              
    7050              $C$DW$492       .dwtag  DW_TAG_enumerator
    7051                      .dwattr $C$DW$492, DW_AT_name("CTRL_ErrorCode_EstError")
    7052                      .dwattr $C$DW$492, DW_AT_const_value(0x02)
    7053              
    7054              $C$DW$493       .dwtag  DW_TAG_enumerator
    7055                      .dwattr $C$DW$493, DW_AT_name("CTRL_numErrorCodes")
    7056                      .dwattr $C$DW$493, DW_AT_const_value(0x03)
    7057              
    7058                      .dwendtag $C$DW$T$43
    7059              
    7060              $C$DW$T$44      .dwtag  DW_TAG_typedef
    7061                      .dwattr $C$DW$T$44, DW_AT_name("CTRL_ErrorCode_e")
    7062                      .dwattr $C$DW$T$44, DW_AT_type(*$C$DW$T$43)
    7063                      .dwattr $C$DW$T$44, DW_AT_language(DW_LANG_C)
    7064              
    7065              
    7066              $C$DW$T$75      .dwtag  DW_TAG_enumeration_type
    7067                      .dwattr $C$DW$T$75, DW_AT_byte_size(0x01)
    7068              $C$DW$494       .dwtag  DW_TAG_enumerator
    7069                      .dwattr $C$DW$494, DW_AT_name("CTRL_TargetProc_2806x")
    7070                      .dwattr $C$DW$494, DW_AT_const_value(0x00)
    7071              
TMS320C2000 Assembler PC v15.12.3 Wed Nov 22 00:56:17 2017

Tools Copyright (c) 1996-2015 Texas Instruments Incorporated
C:\Users\wmj\AppData\Local\Temp\0070810                              PAGE  136

    7072              $C$DW$495       .dwtag  DW_TAG_enumerator
    7073                      .dwattr $C$DW$495, DW_AT_name("CTRL_TargetProc_2805x")
    7074                      .dwattr $C$DW$495, DW_AT_const_value(0x01)
    7075              
    7076              $C$DW$496       .dwtag  DW_TAG_enumerator
    7077                      .dwattr $C$DW$496, DW_AT_name("CTRL_TargetProc_2803x")
    7078                      .dwattr $C$DW$496, DW_AT_const_value(0x02)
    7079              
    7080              $C$DW$497       .dwtag  DW_TAG_enumerator
    7081                      .dwattr $C$DW$497, DW_AT_name("CTRL_TargetProc_2802x")
    7082                      .dwattr $C$DW$497, DW_AT_const_value(0x03)
    7083              
    7084              $C$DW$498       .dwtag  DW_TAG_enumerator
    7085                      .dwattr $C$DW$498, DW_AT_name("CTRL_TargetProc_Unknown")
    7086                      .dwattr $C$DW$498, DW_AT_const_value(0x04)
    7087              
    7088                      .dwendtag $C$DW$T$75
    7089              
    7090              $C$DW$T$76      .dwtag  DW_TAG_typedef
    7091                      .dwattr $C$DW$T$76, DW_AT_name("CTRL_TargetProc_e")
    7092                      .dwattr $C$DW$T$76, DW_AT_type(*$C$DW$T$75)
    7093                      .dwattr $C$DW$T$76, DW_AT_language(DW_LANG_C)
    7094              
    7095              
    7096              $C$DW$T$122     .dwtag  DW_TAG_enumeration_type
    7097                      .dwattr $C$DW$T$122, DW_AT_byte_size(0x01)
    7098              $C$DW$499       .dwtag  DW_TAG_enumerator
    7099                      .dwattr $C$DW$499, DW_AT_name("HAL_BoardAddr_Motor1")
    7100                      .dwattr $C$DW$499, DW_AT_const_value(0x00)
    7101              
    7102              $C$DW$500       .dwtag  DW_TAG_enumerator
    7103                      .dwattr $C$DW$500, DW_AT_name("HAL_BoardAddr_Motor2")
    7104                      .dwattr $C$DW$500, DW_AT_const_value(0x01)
    7105              
    7106              $C$DW$501       .dwtag  DW_TAG_enumerator
    7107                      .dwattr $C$DW$501, DW_AT_name("HAL_BoardAddr_Motor3")
    7108                      .dwattr $C$DW$501, DW_AT_const_value(0x02)
    7109              
    7110              $C$DW$502       .dwtag  DW_TAG_enumerator
    7111                      .dwattr $C$DW$502, DW_AT_name("HAL_BoardAddr_Motor4")
    7112                      .dwattr $C$DW$502, DW_AT_const_value(0x03)
    7113              
    7114              $C$DW$503       .dwtag  DW_TAG_enumerator
    7115                      .dwattr $C$DW$503, DW_AT_name("HAL_BoardAddr_Motor5")
    7116                      .dwattr $C$DW$503, DW_AT_const_value(0x04)
    7117              
    7118              $C$DW$504       .dwtag  DW_TAG_enumerator
    7119                      .dwattr $C$DW$504, DW_AT_name("HAL_BoardAddr_Motor6")
    7120                      .dwattr $C$DW$504, DW_AT_const_value(0x05)
    7121              
    7122              $C$DW$505       .dwtag  DW_TAG_enumerator
    7123                      .dwattr $C$DW$505, DW_AT_name("HAL_BoardAddr_Motor7")
    7124                      .dwattr $C$DW$505, DW_AT_const_value(0x06)
    7125              
    7126              $C$DW$506       .dwtag  DW_TAG_enumerator
TMS320C2000 Assembler PC v15.12.3 Wed Nov 22 00:56:17 2017

Tools Copyright (c) 1996-2015 Texas Instruments Incorporated
C:\Users\wmj\AppData\Local\Temp\0070810                              PAGE  137

    7127                      .dwattr $C$DW$506, DW_AT_name("HAL_BoardAddr_Heater")
    7128                      .dwattr $C$DW$506, DW_AT_const_value(0x07)
    7129              
    7130              $C$DW$507       .dwtag  DW_TAG_enumerator
    7131                      .dwattr $C$DW$507, DW_AT_name("HAL_BoardAddr_OpenLoop")
    7132                      .dwattr $C$DW$507, DW_AT_const_value(0x08)
    7133              
    7134              $C$DW$508       .dwtag  DW_TAG_enumerator
    7135                      .dwattr $C$DW$508, DW_AT_name("HAL_BoardAddr_Short")
    7136                      .dwattr $C$DW$508, DW_AT_const_value(0x09)
    7137              
    7138                      .dwendtag $C$DW$T$122
    7139              
    7140              $C$DW$T$123     .dwtag  DW_TAG_typedef
    7141                      .dwattr $C$DW$T$123, DW_AT_name("HAL_BdAddr_e")
    7142                      .dwattr $C$DW$T$123, DW_AT_type(*$C$DW$T$122)
    7143                      .dwattr $C$DW$T$123, DW_AT_language(DW_LANG_C)
    7144              
    7145              
    7146              $C$DW$T$131     .dwtag  DW_TAG_enumeration_type
    7147                      .dwattr $C$DW$T$131, DW_AT_byte_size(0x01)
    7148              $C$DW$509       .dwtag  DW_TAG_enumerator
    7149                      .dwattr $C$DW$509, DW_AT_name("MOTOR_Type_Induction")
    7150                      .dwattr $C$DW$509, DW_AT_const_value(0x00)
    7151              
    7152              $C$DW$510       .dwtag  DW_TAG_enumerator
    7153                      .dwattr $C$DW$510, DW_AT_name("MOTOR_Type_Pm")
    7154                      .dwattr $C$DW$510, DW_AT_const_value(0x01)
    7155              
    7156                      .dwendtag $C$DW$T$131
    7157              
    7158              $C$DW$T$132     .dwtag  DW_TAG_typedef
    7159                      .dwattr $C$DW$T$132, DW_AT_name("MOTOR_Type_e")
    7160                      .dwattr $C$DW$T$132, DW_AT_type(*$C$DW$T$131)
    7161                      .dwattr $C$DW$T$132, DW_AT_language(DW_LANG_C)
    7162              
    7163              
    7164              $C$DW$T$164     .dwtag  DW_TAG_enumeration_type
    7165                      .dwattr $C$DW$T$164, DW_AT_byte_size(0x01)
    7166              $C$DW$511       .dwtag  DW_TAG_enumerator
    7167                      .dwattr $C$DW$511, DW_AT_name("USER_ErrorCode_NoError")
    7168                      .dwattr $C$DW$511, DW_AT_const_value(0x00)
    7169              
    7170              $C$DW$512       .dwtag  DW_TAG_enumerator
    7171                      .dwattr $C$DW$512, DW_AT_name("USER_ErrorCode_iqFullScaleCurrent_A_High")
    7172                      .dwattr $C$DW$512, DW_AT_const_value(0x01)
    7173              
    7174              $C$DW$513       .dwtag  DW_TAG_enumerator
    7175                      .dwattr $C$DW$513, DW_AT_name("USER_ErrorCode_iqFullScaleCurrent_A_Low")
    7176                      .dwattr $C$DW$513, DW_AT_const_value(0x02)
    7177              
    7178              $C$DW$514       .dwtag  DW_TAG_enumerator
    7179                      .dwattr $C$DW$514, DW_AT_name("USER_ErrorCode_iqFullScaleVoltage_V_High")
    7180                      .dwattr $C$DW$514, DW_AT_const_value(0x03)
    7181              
TMS320C2000 Assembler PC v15.12.3 Wed Nov 22 00:56:17 2017

Tools Copyright (c) 1996-2015 Texas Instruments Incorporated
C:\Users\wmj\AppData\Local\Temp\0070810                              PAGE  138

    7182              $C$DW$515       .dwtag  DW_TAG_enumerator
    7183                      .dwattr $C$DW$515, DW_AT_name("USER_ErrorCode_iqFullScaleVoltage_V_Low")
    7184                      .dwattr $C$DW$515, DW_AT_const_value(0x04)
    7185              
    7186              $C$DW$516       .dwtag  DW_TAG_enumerator
    7187                      .dwattr $C$DW$516, DW_AT_name("USER_ErrorCode_iqFullScaleFreq_Hz_High")
    7188                      .dwattr $C$DW$516, DW_AT_const_value(0x05)
    7189              
    7190              $C$DW$517       .dwtag  DW_TAG_enumerator
    7191                      .dwattr $C$DW$517, DW_AT_name("USER_ErrorCode_iqFullScaleFreq_Hz_Low")
    7192                      .dwattr $C$DW$517, DW_AT_const_value(0x06)
    7193              
    7194              $C$DW$518       .dwtag  DW_TAG_enumerator
    7195                      .dwattr $C$DW$518, DW_AT_name("USER_ErrorCode_numPwmTicksPerIsrTick_High")
    7196                      .dwattr $C$DW$518, DW_AT_const_value(0x07)
    7197              
    7198              $C$DW$519       .dwtag  DW_TAG_enumerator
    7199                      .dwattr $C$DW$519, DW_AT_name("USER_ErrorCode_numPwmTicksPerIsrTick_Low")
    7200                      .dwattr $C$DW$519, DW_AT_const_value(0x08)
    7201              
    7202              $C$DW$520       .dwtag  DW_TAG_enumerator
    7203                      .dwattr $C$DW$520, DW_AT_name("USER_ErrorCode_numIsrTicksPerCtrlTick_High")
    7204                      .dwattr $C$DW$520, DW_AT_const_value(0x09)
    7205              
    7206              $C$DW$521       .dwtag  DW_TAG_enumerator
    7207                      .dwattr $C$DW$521, DW_AT_name("USER_ErrorCode_numIsrTicksPerCtrlTick_Low")
    7208                      .dwattr $C$DW$521, DW_AT_const_value(0x0a)
    7209              
    7210              $C$DW$522       .dwtag  DW_TAG_enumerator
    7211                      .dwattr $C$DW$522, DW_AT_name("USER_ErrorCode_numCtrlTicksPerCurrentTick_High")
    7212                      .dwattr $C$DW$522, DW_AT_const_value(0x0b)
    7213              
    7214              $C$DW$523       .dwtag  DW_TAG_enumerator
    7215                      .dwattr $C$DW$523, DW_AT_name("USER_ErrorCode_numCtrlTicksPerCurrentTick_Low")
    7216                      .dwattr $C$DW$523, DW_AT_const_value(0x0c)
    7217              
    7218              $C$DW$524       .dwtag  DW_TAG_enumerator
    7219                      .dwattr $C$DW$524, DW_AT_name("USER_ErrorCode_numCtrlTicksPerEstTick_High")
    7220                      .dwattr $C$DW$524, DW_AT_const_value(0x0d)
    7221              
    7222              $C$DW$525       .dwtag  DW_TAG_enumerator
    7223                      .dwattr $C$DW$525, DW_AT_name("USER_ErrorCode_numCtrlTicksPerEstTick_Low")
    7224                      .dwattr $C$DW$525, DW_AT_const_value(0x0e)
    7225              
    7226              $C$DW$526       .dwtag  DW_TAG_enumerator
    7227                      .dwattr $C$DW$526, DW_AT_name("USER_ErrorCode_numCtrlTicksPerSpeedTick_High")
    7228                      .dwattr $C$DW$526, DW_AT_const_value(0x0f)
    7229              
    7230              $C$DW$527       .dwtag  DW_TAG_enumerator
    7231                      .dwattr $C$DW$527, DW_AT_name("USER_ErrorCode_numCtrlTicksPerSpeedTick_Low")
    7232                      .dwattr $C$DW$527, DW_AT_const_value(0x10)
    7233              
    7234              $C$DW$528       .dwtag  DW_TAG_enumerator
    7235                      .dwattr $C$DW$528, DW_AT_name("USER_ErrorCode_numCtrlTicksPerTrajTick_High")
    7236                      .dwattr $C$DW$528, DW_AT_const_value(0x11)
TMS320C2000 Assembler PC v15.12.3 Wed Nov 22 00:56:17 2017

Tools Copyright (c) 1996-2015 Texas Instruments Incorporated
C:\Users\wmj\AppData\Local\Temp\0070810                              PAGE  139

    7237              
    7238              $C$DW$529       .dwtag  DW_TAG_enumerator
    7239                      .dwattr $C$DW$529, DW_AT_name("USER_ErrorCode_numCtrlTicksPerTrajTick_Low")
    7240                      .dwattr $C$DW$529, DW_AT_const_value(0x12)
    7241              
    7242              $C$DW$530       .dwtag  DW_TAG_enumerator
    7243                      .dwattr $C$DW$530, DW_AT_name("USER_ErrorCode_numCurrentSensors_High")
    7244                      .dwattr $C$DW$530, DW_AT_const_value(0x13)
    7245              
    7246              $C$DW$531       .dwtag  DW_TAG_enumerator
    7247                      .dwattr $C$DW$531, DW_AT_name("USER_ErrorCode_numCurrentSensors_Low")
    7248                      .dwattr $C$DW$531, DW_AT_const_value(0x14)
    7249              
    7250              $C$DW$532       .dwtag  DW_TAG_enumerator
    7251                      .dwattr $C$DW$532, DW_AT_name("USER_ErrorCode_numVoltageSensors_High")
    7252                      .dwattr $C$DW$532, DW_AT_const_value(0x15)
    7253              
    7254              $C$DW$533       .dwtag  DW_TAG_enumerator
    7255                      .dwattr $C$DW$533, DW_AT_name("USER_ErrorCode_numVoltageSensors_Low")
    7256                      .dwattr $C$DW$533, DW_AT_const_value(0x16)
    7257              
    7258              $C$DW$534       .dwtag  DW_TAG_enumerator
    7259                      .dwattr $C$DW$534, DW_AT_name("USER_ErrorCode_offsetPole_rps_High")
    7260                      .dwattr $C$DW$534, DW_AT_const_value(0x17)
    7261              
    7262              $C$DW$535       .dwtag  DW_TAG_enumerator
    7263                      .dwattr $C$DW$535, DW_AT_name("USER_ErrorCode_offsetPole_rps_Low")
    7264                      .dwattr $C$DW$535, DW_AT_const_value(0x18)
    7265              
    7266              $C$DW$536       .dwtag  DW_TAG_enumerator
    7267                      .dwattr $C$DW$536, DW_AT_name("USER_ErrorCode_fluxPole_rps_High")
    7268                      .dwattr $C$DW$536, DW_AT_const_value(0x19)
    7269              
    7270              $C$DW$537       .dwtag  DW_TAG_enumerator
    7271                      .dwattr $C$DW$537, DW_AT_name("USER_ErrorCode_fluxPole_rps_Low")
    7272                      .dwattr $C$DW$537, DW_AT_const_value(0x1a)
    7273              
    7274              $C$DW$538       .dwtag  DW_TAG_enumerator
    7275                      .dwattr $C$DW$538, DW_AT_name("USER_ErrorCode_zeroSpeedLimit_High")
    7276                      .dwattr $C$DW$538, DW_AT_const_value(0x1b)
    7277              
    7278              $C$DW$539       .dwtag  DW_TAG_enumerator
    7279                      .dwattr $C$DW$539, DW_AT_name("USER_ErrorCode_zeroSpeedLimit_Low")
    7280                      .dwattr $C$DW$539, DW_AT_const_value(0x1c)
    7281              
    7282              $C$DW$540       .dwtag  DW_TAG_enumerator
    7283                      .dwattr $C$DW$540, DW_AT_name("USER_ErrorCode_forceAngleFreq_Hz_High")
    7284                      .dwattr $C$DW$540, DW_AT_const_value(0x1d)
    7285              
    7286              $C$DW$541       .dwtag  DW_TAG_enumerator
    7287                      .dwattr $C$DW$541, DW_AT_name("USER_ErrorCode_forceAngleFreq_Hz_Low")
    7288                      .dwattr $C$DW$541, DW_AT_const_value(0x1e)
    7289              
    7290              $C$DW$542       .dwtag  DW_TAG_enumerator
    7291                      .dwattr $C$DW$542, DW_AT_name("USER_ErrorCode_maxAccel_Hzps_High")
TMS320C2000 Assembler PC v15.12.3 Wed Nov 22 00:56:17 2017

Tools Copyright (c) 1996-2015 Texas Instruments Incorporated
C:\Users\wmj\AppData\Local\Temp\0070810                              PAGE  140

    7292                      .dwattr $C$DW$542, DW_AT_const_value(0x1f)
    7293              
    7294              $C$DW$543       .dwtag  DW_TAG_enumerator
    7295                      .dwattr $C$DW$543, DW_AT_name("USER_ErrorCode_maxAccel_Hzps_Low")
    7296                      .dwattr $C$DW$543, DW_AT_const_value(0x20)
    7297              
    7298              $C$DW$544       .dwtag  DW_TAG_enumerator
    7299                      .dwattr $C$DW$544, DW_AT_name("USER_ErrorCode_maxAccel_est_Hzps_High")
    7300                      .dwattr $C$DW$544, DW_AT_const_value(0x21)
    7301              
    7302              $C$DW$545       .dwtag  DW_TAG_enumerator
    7303                      .dwattr $C$DW$545, DW_AT_name("USER_ErrorCode_maxAccel_est_Hzps_Low")
    7304                      .dwattr $C$DW$545, DW_AT_const_value(0x22)
    7305              
    7306              $C$DW$546       .dwtag  DW_TAG_enumerator
    7307                      .dwattr $C$DW$546, DW_AT_name("USER_ErrorCode_directionPole_rps_High")
    7308                      .dwattr $C$DW$546, DW_AT_const_value(0x23)
    7309              
    7310              $C$DW$547       .dwtag  DW_TAG_enumerator
    7311                      .dwattr $C$DW$547, DW_AT_name("USER_ErrorCode_directionPole_rps_Low")
    7312                      .dwattr $C$DW$547, DW_AT_const_value(0x24)
    7313              
    7314              $C$DW$548       .dwtag  DW_TAG_enumerator
    7315                      .dwattr $C$DW$548, DW_AT_name("USER_ErrorCode_speedPole_rps_High")
    7316                      .dwattr $C$DW$548, DW_AT_const_value(0x25)
    7317              
    7318              $C$DW$549       .dwtag  DW_TAG_enumerator
    7319                      .dwattr $C$DW$549, DW_AT_name("USER_ErrorCode_speedPole_rps_Low")
    7320                      .dwattr $C$DW$549, DW_AT_const_value(0x26)
    7321              
    7322              $C$DW$550       .dwtag  DW_TAG_enumerator
    7323                      .dwattr $C$DW$550, DW_AT_name("USER_ErrorCode_dcBusPole_rps_High")
    7324                      .dwattr $C$DW$550, DW_AT_const_value(0x27)
    7325              
    7326              $C$DW$551       .dwtag  DW_TAG_enumerator
    7327                      .dwattr $C$DW$551, DW_AT_name("USER_ErrorCode_dcBusPole_rps_Low")
    7328                      .dwattr $C$DW$551, DW_AT_const_value(0x28)
    7329              
    7330              $C$DW$552       .dwtag  DW_TAG_enumerator
    7331                      .dwattr $C$DW$552, DW_AT_name("USER_ErrorCode_fluxFraction_High")
    7332                      .dwattr $C$DW$552, DW_AT_const_value(0x29)
    7333              
    7334              $C$DW$553       .dwtag  DW_TAG_enumerator
    7335                      .dwattr $C$DW$553, DW_AT_name("USER_ErrorCode_fluxFraction_Low")
    7336                      .dwattr $C$DW$553, DW_AT_const_value(0x2a)
    7337              
    7338              $C$DW$554       .dwtag  DW_TAG_enumerator
    7339                      .dwattr $C$DW$554, DW_AT_name("USER_ErrorCode_indEst_speedMaxFraction_High")
    7340                      .dwattr $C$DW$554, DW_AT_const_value(0x2b)
    7341              
    7342              $C$DW$555       .dwtag  DW_TAG_enumerator
    7343                      .dwattr $C$DW$555, DW_AT_name("USER_ErrorCode_indEst_speedMaxFraction_Low")
    7344                      .dwattr $C$DW$555, DW_AT_const_value(0x2c)
    7345              
    7346              $C$DW$556       .dwtag  DW_TAG_enumerator
TMS320C2000 Assembler PC v15.12.3 Wed Nov 22 00:56:17 2017

Tools Copyright (c) 1996-2015 Texas Instruments Incorporated
C:\Users\wmj\AppData\Local\Temp\0070810                              PAGE  141

    7347                      .dwattr $C$DW$556, DW_AT_name("USER_ErrorCode_powerWarpGain_High")
    7348                      .dwattr $C$DW$556, DW_AT_const_value(0x2d)
    7349              
    7350              $C$DW$557       .dwtag  DW_TAG_enumerator
    7351                      .dwattr $C$DW$557, DW_AT_name("USER_ErrorCode_powerWarpGain_Low")
    7352                      .dwattr $C$DW$557, DW_AT_const_value(0x2e)
    7353              
    7354              $C$DW$558       .dwtag  DW_TAG_enumerator
    7355                      .dwattr $C$DW$558, DW_AT_name("USER_ErrorCode_systemFreq_MHz_High")
    7356                      .dwattr $C$DW$558, DW_AT_const_value(0x2f)
    7357              
    7358              $C$DW$559       .dwtag  DW_TAG_enumerator
    7359                      .dwattr $C$DW$559, DW_AT_name("USER_ErrorCode_systemFreq_MHz_Low")
    7360                      .dwattr $C$DW$559, DW_AT_const_value(0x30)
    7361              
    7362              $C$DW$560       .dwtag  DW_TAG_enumerator
    7363                      .dwattr $C$DW$560, DW_AT_name("USER_ErrorCode_pwmFreq_kHz_High")
    7364                      .dwattr $C$DW$560, DW_AT_const_value(0x31)
    7365              
    7366              $C$DW$561       .dwtag  DW_TAG_enumerator
    7367                      .dwattr $C$DW$561, DW_AT_name("USER_ErrorCode_pwmFreq_kHz_Low")
    7368                      .dwattr $C$DW$561, DW_AT_const_value(0x32)
    7369              
    7370              $C$DW$562       .dwtag  DW_TAG_enumerator
    7371                      .dwattr $C$DW$562, DW_AT_name("USER_ErrorCode_voltage_sf_High")
    7372                      .dwattr $C$DW$562, DW_AT_const_value(0x33)
    7373              
    7374              $C$DW$563       .dwtag  DW_TAG_enumerator
    7375                      .dwattr $C$DW$563, DW_AT_name("USER_ErrorCode_voltage_sf_Low")
    7376                      .dwattr $C$DW$563, DW_AT_const_value(0x34)
    7377              
    7378              $C$DW$564       .dwtag  DW_TAG_enumerator
    7379                      .dwattr $C$DW$564, DW_AT_name("USER_ErrorCode_current_sf_High")
    7380                      .dwattr $C$DW$564, DW_AT_const_value(0x35)
    7381              
    7382              $C$DW$565       .dwtag  DW_TAG_enumerator
    7383                      .dwattr $C$DW$565, DW_AT_name("USER_ErrorCode_current_sf_Low")
    7384                      .dwattr $C$DW$565, DW_AT_const_value(0x36)
    7385              
    7386              $C$DW$566       .dwtag  DW_TAG_enumerator
    7387                      .dwattr $C$DW$566, DW_AT_name("USER_ErrorCode_voltageFilterPole_Hz_High")
    7388                      .dwattr $C$DW$566, DW_AT_const_value(0x37)
    7389              
    7390              $C$DW$567       .dwtag  DW_TAG_enumerator
    7391                      .dwattr $C$DW$567, DW_AT_name("USER_ErrorCode_voltageFilterPole_Hz_Low")
    7392                      .dwattr $C$DW$567, DW_AT_const_value(0x38)
    7393              
    7394              $C$DW$568       .dwtag  DW_TAG_enumerator
    7395                      .dwattr $C$DW$568, DW_AT_name("USER_ErrorCode_maxVsMag_pu_High")
    7396                      .dwattr $C$DW$568, DW_AT_const_value(0x39)
    7397              
    7398              $C$DW$569       .dwtag  DW_TAG_enumerator
    7399                      .dwattr $C$DW$569, DW_AT_name("USER_ErrorCode_maxVsMag_pu_Low")
    7400                      .dwattr $C$DW$569, DW_AT_const_value(0x3a)
    7401              
TMS320C2000 Assembler PC v15.12.3 Wed Nov 22 00:56:17 2017

Tools Copyright (c) 1996-2015 Texas Instruments Incorporated
C:\Users\wmj\AppData\Local\Temp\0070810                              PAGE  142

    7402              $C$DW$570       .dwtag  DW_TAG_enumerator
    7403                      .dwattr $C$DW$570, DW_AT_name("USER_ErrorCode_estKappa_High")
    7404                      .dwattr $C$DW$570, DW_AT_const_value(0x3b)
    7405              
    7406              $C$DW$571       .dwtag  DW_TAG_enumerator
    7407                      .dwattr $C$DW$571, DW_AT_name("USER_ErrorCode_estKappa_Low")
    7408                      .dwattr $C$DW$571, DW_AT_const_value(0x3c)
    7409              
    7410              $C$DW$572       .dwtag  DW_TAG_enumerator
    7411                      .dwattr $C$DW$572, DW_AT_name("USER_ErrorCode_motor_type_Unknown")
    7412                      .dwattr $C$DW$572, DW_AT_const_value(0x3d)
    7413              
    7414              $C$DW$573       .dwtag  DW_TAG_enumerator
    7415                      .dwattr $C$DW$573, DW_AT_name("USER_ErrorCode_motor_numPolePairs_High")
    7416                      .dwattr $C$DW$573, DW_AT_const_value(0x3e)
    7417              
    7418              $C$DW$574       .dwtag  DW_TAG_enumerator
    7419                      .dwattr $C$DW$574, DW_AT_name("USER_ErrorCode_motor_numPolePairs_Low")
    7420                      .dwattr $C$DW$574, DW_AT_const_value(0x3f)
    7421              
    7422              $C$DW$575       .dwtag  DW_TAG_enumerator
    7423                      .dwattr $C$DW$575, DW_AT_name("USER_ErrorCode_motor_ratedFlux_High")
    7424                      .dwattr $C$DW$575, DW_AT_const_value(0x40)
    7425              
    7426              $C$DW$576       .dwtag  DW_TAG_enumerator
    7427                      .dwattr $C$DW$576, DW_AT_name("USER_ErrorCode_motor_ratedFlux_Low")
    7428                      .dwattr $C$DW$576, DW_AT_const_value(0x41)
    7429              
    7430              $C$DW$577       .dwtag  DW_TAG_enumerator
    7431                      .dwattr $C$DW$577, DW_AT_name("USER_ErrorCode_motor_Rr_High")
    7432                      .dwattr $C$DW$577, DW_AT_const_value(0x42)
    7433              
    7434              $C$DW$578       .dwtag  DW_TAG_enumerator
    7435                      .dwattr $C$DW$578, DW_AT_name("USER_ErrorCode_motor_Rr_Low")
    7436                      .dwattr $C$DW$578, DW_AT_const_value(0x43)
    7437              
    7438              $C$DW$579       .dwtag  DW_TAG_enumerator
    7439                      .dwattr $C$DW$579, DW_AT_name("USER_ErrorCode_motor_Rs_High")
    7440                      .dwattr $C$DW$579, DW_AT_const_value(0x44)
    7441              
    7442              $C$DW$580       .dwtag  DW_TAG_enumerator
    7443                      .dwattr $C$DW$580, DW_AT_name("USER_ErrorCode_motor_Rs_Low")
    7444                      .dwattr $C$DW$580, DW_AT_const_value(0x45)
    7445              
    7446              $C$DW$581       .dwtag  DW_TAG_enumerator
    7447                      .dwattr $C$DW$581, DW_AT_name("USER_ErrorCode_motor_Ls_d_High")
    7448                      .dwattr $C$DW$581, DW_AT_const_value(0x46)
    7449              
    7450              $C$DW$582       .dwtag  DW_TAG_enumerator
    7451                      .dwattr $C$DW$582, DW_AT_name("USER_ErrorCode_motor_Ls_d_Low")
    7452                      .dwattr $C$DW$582, DW_AT_const_value(0x47)
    7453              
    7454              $C$DW$583       .dwtag  DW_TAG_enumerator
    7455                      .dwattr $C$DW$583, DW_AT_name("USER_ErrorCode_motor_Ls_q_High")
    7456                      .dwattr $C$DW$583, DW_AT_const_value(0x48)
TMS320C2000 Assembler PC v15.12.3 Wed Nov 22 00:56:17 2017

Tools Copyright (c) 1996-2015 Texas Instruments Incorporated
C:\Users\wmj\AppData\Local\Temp\0070810                              PAGE  143

    7457              
    7458              $C$DW$584       .dwtag  DW_TAG_enumerator
    7459                      .dwattr $C$DW$584, DW_AT_name("USER_ErrorCode_motor_Ls_q_Low")
    7460                      .dwattr $C$DW$584, DW_AT_const_value(0x49)
    7461              
    7462              $C$DW$585       .dwtag  DW_TAG_enumerator
    7463                      .dwattr $C$DW$585, DW_AT_name("USER_ErrorCode_maxCurrent_High")
    7464                      .dwattr $C$DW$585, DW_AT_const_value(0x4a)
    7465              
    7466              $C$DW$586       .dwtag  DW_TAG_enumerator
    7467                      .dwattr $C$DW$586, DW_AT_name("USER_ErrorCode_maxCurrent_Low")
    7468                      .dwattr $C$DW$586, DW_AT_const_value(0x4b)
    7469              
    7470              $C$DW$587       .dwtag  DW_TAG_enumerator
    7471                      .dwattr $C$DW$587, DW_AT_name("USER_ErrorCode_maxCurrent_resEst_High")
    7472                      .dwattr $C$DW$587, DW_AT_const_value(0x4c)
    7473              
    7474              $C$DW$588       .dwtag  DW_TAG_enumerator
    7475                      .dwattr $C$DW$588, DW_AT_name("USER_ErrorCode_maxCurrent_resEst_Low")
    7476                      .dwattr $C$DW$588, DW_AT_const_value(0x4d)
    7477              
    7478              $C$DW$589       .dwtag  DW_TAG_enumerator
    7479                      .dwattr $C$DW$589, DW_AT_name("USER_ErrorCode_maxCurrent_indEst_High")
    7480                      .dwattr $C$DW$589, DW_AT_const_value(0x4e)
    7481              
    7482              $C$DW$590       .dwtag  DW_TAG_enumerator
    7483                      .dwattr $C$DW$590, DW_AT_name("USER_ErrorCode_maxCurrent_indEst_Low")
    7484                      .dwattr $C$DW$590, DW_AT_const_value(0x4f)
    7485              
    7486              $C$DW$591       .dwtag  DW_TAG_enumerator
    7487                      .dwattr $C$DW$591, DW_AT_name("USER_ErrorCode_maxCurrentSlope_High")
    7488                      .dwattr $C$DW$591, DW_AT_const_value(0x50)
    7489              
    7490              $C$DW$592       .dwtag  DW_TAG_enumerator
    7491                      .dwattr $C$DW$592, DW_AT_name("USER_ErrorCode_maxCurrentSlope_Low")
    7492                      .dwattr $C$DW$592, DW_AT_const_value(0x51)
    7493              
    7494              $C$DW$593       .dwtag  DW_TAG_enumerator
    7495                      .dwattr $C$DW$593, DW_AT_name("USER_ErrorCode_maxCurrentSlope_powerWarp_High")
    7496                      .dwattr $C$DW$593, DW_AT_const_value(0x52)
    7497              
    7498              $C$DW$594       .dwtag  DW_TAG_enumerator
    7499                      .dwattr $C$DW$594, DW_AT_name("USER_ErrorCode_maxCurrentSlope_powerWarp_Low")
    7500                      .dwattr $C$DW$594, DW_AT_const_value(0x53)
    7501              
    7502              $C$DW$595       .dwtag  DW_TAG_enumerator
    7503                      .dwattr $C$DW$595, DW_AT_name("USER_ErrorCode_IdRated_High")
    7504                      .dwattr $C$DW$595, DW_AT_const_value(0x54)
    7505              
    7506              $C$DW$596       .dwtag  DW_TAG_enumerator
    7507                      .dwattr $C$DW$596, DW_AT_name("USER_ErrorCode_IdRated_Low")
    7508                      .dwattr $C$DW$596, DW_AT_const_value(0x55)
    7509              
    7510              $C$DW$597       .dwtag  DW_TAG_enumerator
    7511                      .dwattr $C$DW$597, DW_AT_name("USER_ErrorCode_IdRatedFraction_indEst_High")
TMS320C2000 Assembler PC v15.12.3 Wed Nov 22 00:56:17 2017

Tools Copyright (c) 1996-2015 Texas Instruments Incorporated
C:\Users\wmj\AppData\Local\Temp\0070810                              PAGE  144

    7512                      .dwattr $C$DW$597, DW_AT_const_value(0x56)
    7513              
    7514              $C$DW$598       .dwtag  DW_TAG_enumerator
    7515                      .dwattr $C$DW$598, DW_AT_name("USER_ErrorCode_IdRatedFraction_indEst_Low")
    7516                      .dwattr $C$DW$598, DW_AT_const_value(0x57)
    7517              
    7518              $C$DW$599       .dwtag  DW_TAG_enumerator
    7519                      .dwattr $C$DW$599, DW_AT_name("USER_ErrorCode_IdRatedFraction_ratedFlux_High")
    7520                      .dwattr $C$DW$599, DW_AT_const_value(0x58)
    7521              
    7522              $C$DW$600       .dwtag  DW_TAG_enumerator
    7523                      .dwattr $C$DW$600, DW_AT_name("USER_ErrorCode_IdRatedFraction_ratedFlux_Low")
    7524                      .dwattr $C$DW$600, DW_AT_const_value(0x59)
    7525              
    7526              $C$DW$601       .dwtag  DW_TAG_enumerator
    7527                      .dwattr $C$DW$601, DW_AT_name("USER_ErrorCode_IdRated_delta_High")
    7528                      .dwattr $C$DW$601, DW_AT_const_value(0x5a)
    7529              
    7530              $C$DW$602       .dwtag  DW_TAG_enumerator
    7531                      .dwattr $C$DW$602, DW_AT_name("USER_ErrorCode_IdRated_delta_Low")
    7532                      .dwattr $C$DW$602, DW_AT_const_value(0x5b)
    7533              
    7534              $C$DW$603       .dwtag  DW_TAG_enumerator
    7535                      .dwattr $C$DW$603, DW_AT_name("USER_ErrorCode_fluxEstFreq_Hz_High")
    7536                      .dwattr $C$DW$603, DW_AT_const_value(0x5c)
    7537              
    7538              $C$DW$604       .dwtag  DW_TAG_enumerator
    7539                      .dwattr $C$DW$604, DW_AT_name("USER_ErrorCode_fluxEstFreq_Hz_Low")
    7540                      .dwattr $C$DW$604, DW_AT_const_value(0x5d)
    7541              
    7542              $C$DW$605       .dwtag  DW_TAG_enumerator
    7543                      .dwattr $C$DW$605, DW_AT_name("USER_ErrorCode_ctrlFreq_Hz_High")
    7544                      .dwattr $C$DW$605, DW_AT_const_value(0x5e)
    7545              
    7546              $C$DW$606       .dwtag  DW_TAG_enumerator
    7547                      .dwattr $C$DW$606, DW_AT_name("USER_ErrorCode_ctrlFreq_Hz_Low")
    7548                      .dwattr $C$DW$606, DW_AT_const_value(0x5f)
    7549              
    7550              $C$DW$607       .dwtag  DW_TAG_enumerator
    7551                      .dwattr $C$DW$607, DW_AT_name("USER_ErrorCode_estFreq_Hz_High")
    7552                      .dwattr $C$DW$607, DW_AT_const_value(0x60)
    7553              
    7554              $C$DW$608       .dwtag  DW_TAG_enumerator
    7555                      .dwattr $C$DW$608, DW_AT_name("USER_ErrorCode_estFreq_Hz_Low")
    7556                      .dwattr $C$DW$608, DW_AT_const_value(0x61)
    7557              
    7558              $C$DW$609       .dwtag  DW_TAG_enumerator
    7559                      .dwattr $C$DW$609, DW_AT_name("USER_ErrorCode_RoverL_estFreq_Hz_High")
    7560                      .dwattr $C$DW$609, DW_AT_const_value(0x62)
    7561              
    7562              $C$DW$610       .dwtag  DW_TAG_enumerator
    7563                      .dwattr $C$DW$610, DW_AT_name("USER_ErrorCode_RoverL_estFreq_Hz_Low")
    7564                      .dwattr $C$DW$610, DW_AT_const_value(0x63)
    7565              
    7566              $C$DW$611       .dwtag  DW_TAG_enumerator
TMS320C2000 Assembler PC v15.12.3 Wed Nov 22 00:56:17 2017

Tools Copyright (c) 1996-2015 Texas Instruments Incorporated
C:\Users\wmj\AppData\Local\Temp\0070810                              PAGE  145

    7567                      .dwattr $C$DW$611, DW_AT_name("USER_ErrorCode_trajFreq_Hz_High")
    7568                      .dwattr $C$DW$611, DW_AT_const_value(0x64)
    7569              
    7570              $C$DW$612       .dwtag  DW_TAG_enumerator
    7571                      .dwattr $C$DW$612, DW_AT_name("USER_ErrorCode_trajFreq_Hz_Low")
    7572                      .dwattr $C$DW$612, DW_AT_const_value(0x65)
    7573              
    7574              $C$DW$613       .dwtag  DW_TAG_enumerator
    7575                      .dwattr $C$DW$613, DW_AT_name("USER_ErrorCode_ctrlPeriod_sec_High")
    7576                      .dwattr $C$DW$613, DW_AT_const_value(0x66)
    7577              
    7578              $C$DW$614       .dwtag  DW_TAG_enumerator
    7579                      .dwattr $C$DW$614, DW_AT_name("USER_ErrorCode_ctrlPeriod_sec_Low")
    7580                      .dwattr $C$DW$614, DW_AT_const_value(0x67)
    7581              
    7582              $C$DW$615       .dwtag  DW_TAG_enumerator
    7583                      .dwattr $C$DW$615, DW_AT_name("USER_ErrorCode_maxNegativeIdCurrent_a_High")
    7584                      .dwattr $C$DW$615, DW_AT_const_value(0x68)
    7585              
    7586              $C$DW$616       .dwtag  DW_TAG_enumerator
    7587                      .dwattr $C$DW$616, DW_AT_name("USER_ErrorCode_maxNegativeIdCurrent_a_Low")
    7588                      .dwattr $C$DW$616, DW_AT_const_value(0x69)
    7589              
    7590              $C$DW$617       .dwtag  DW_TAG_enumerator
    7591                      .dwattr $C$DW$617, DW_AT_name("USER_numErrorCodes")
    7592                      .dwattr $C$DW$617, DW_AT_const_value(0x6a)
    7593              
    7594                      .dwendtag $C$DW$T$164
    7595              
    7596              $C$DW$T$165     .dwtag  DW_TAG_typedef
    7597                      .dwattr $C$DW$T$165, DW_AT_name("USER_ErrorCode_e")
    7598                      .dwattr $C$DW$T$165, DW_AT_type(*$C$DW$T$164)
    7599                      .dwattr $C$DW$T$165, DW_AT_language(DW_LANG_C)
    7600              
    7601              
    7602              $C$DW$T$174     .dwtag  DW_TAG_enumeration_type
    7603                      .dwattr $C$DW$T$174, DW_AT_byte_size(0x01)
    7604              $C$DW$618       .dwtag  DW_TAG_enumerator
    7605                      .dwattr $C$DW$618, DW_AT_name("EST_State_Error")
    7606                      .dwattr $C$DW$618, DW_AT_const_value(0x00)
    7607              
    7608              $C$DW$619       .dwtag  DW_TAG_enumerator
    7609                      .dwattr $C$DW$619, DW_AT_name("EST_State_Idle")
    7610                      .dwattr $C$DW$619, DW_AT_const_value(0x01)
    7611              
    7612              $C$DW$620       .dwtag  DW_TAG_enumerator
    7613                      .dwattr $C$DW$620, DW_AT_name("EST_State_RoverL")
    7614                      .dwattr $C$DW$620, DW_AT_const_value(0x02)
    7615              
    7616              $C$DW$621       .dwtag  DW_TAG_enumerator
    7617                      .dwattr $C$DW$621, DW_AT_name("EST_State_Rs")
    7618                      .dwattr $C$DW$621, DW_AT_const_value(0x03)
    7619              
    7620              $C$DW$622       .dwtag  DW_TAG_enumerator
    7621                      .dwattr $C$DW$622, DW_AT_name("EST_State_RampUp")
TMS320C2000 Assembler PC v15.12.3 Wed Nov 22 00:56:17 2017

Tools Copyright (c) 1996-2015 Texas Instruments Incorporated
C:\Users\wmj\AppData\Local\Temp\0070810                              PAGE  146

    7622                      .dwattr $C$DW$622, DW_AT_const_value(0x04)
    7623              
    7624              $C$DW$623       .dwtag  DW_TAG_enumerator
    7625                      .dwattr $C$DW$623, DW_AT_name("EST_State_IdRated")
    7626                      .dwattr $C$DW$623, DW_AT_const_value(0x05)
    7627              
    7628              $C$DW$624       .dwtag  DW_TAG_enumerator
    7629                      .dwattr $C$DW$624, DW_AT_name("EST_State_RatedFlux_OL")
    7630                      .dwattr $C$DW$624, DW_AT_const_value(0x06)
    7631              
    7632              $C$DW$625       .dwtag  DW_TAG_enumerator
    7633                      .dwattr $C$DW$625, DW_AT_name("EST_State_RatedFlux")
    7634                      .dwattr $C$DW$625, DW_AT_const_value(0x07)
    7635              
    7636              $C$DW$626       .dwtag  DW_TAG_enumerator
    7637                      .dwattr $C$DW$626, DW_AT_name("EST_State_RampDown")
    7638                      .dwattr $C$DW$626, DW_AT_const_value(0x08)
    7639              
    7640              $C$DW$627       .dwtag  DW_TAG_enumerator
    7641                      .dwattr $C$DW$627, DW_AT_name("EST_State_LockRotor")
    7642                      .dwattr $C$DW$627, DW_AT_const_value(0x09)
    7643              
    7644              $C$DW$628       .dwtag  DW_TAG_enumerator
    7645                      .dwattr $C$DW$628, DW_AT_name("EST_State_Ls")
    7646                      .dwattr $C$DW$628, DW_AT_const_value(0x0a)
    7647              
    7648              $C$DW$629       .dwtag  DW_TAG_enumerator
    7649                      .dwattr $C$DW$629, DW_AT_name("EST_State_Rr")
    7650                      .dwattr $C$DW$629, DW_AT_const_value(0x0b)
    7651              
    7652              $C$DW$630       .dwtag  DW_TAG_enumerator
    7653                      .dwattr $C$DW$630, DW_AT_name("EST_State_MotorIdentified")
    7654                      .dwattr $C$DW$630, DW_AT_const_value(0x0c)
    7655              
    7656              $C$DW$631       .dwtag  DW_TAG_enumerator
    7657                      .dwattr $C$DW$631, DW_AT_name("EST_State_OnLine")
    7658                      .dwattr $C$DW$631, DW_AT_const_value(0x0d)
    7659              
    7660              $C$DW$632       .dwtag  DW_TAG_enumerator
    7661                      .dwattr $C$DW$632, DW_AT_name("EST_numStates")
    7662                      .dwattr $C$DW$632, DW_AT_const_value(0x0e)
    7663              
    7664                      .dwendtag $C$DW$T$174
    7665              
    7666              $C$DW$T$175     .dwtag  DW_TAG_typedef
    7667                      .dwattr $C$DW$T$175, DW_AT_name("EST_State_e")
    7668                      .dwattr $C$DW$T$175, DW_AT_type(*$C$DW$T$174)
    7669                      .dwattr $C$DW$T$175, DW_AT_language(DW_LANG_C)
    7670              
    7671              
    7672              $C$DW$T$179     .dwtag  DW_TAG_enumeration_type
    7673                      .dwattr $C$DW$T$179, DW_AT_byte_size(0x01)
    7674              $C$DW$633       .dwtag  DW_TAG_enumerator
    7675                      .dwattr $C$DW$633, DW_AT_name("CTRL_Type_PID_spd")
    7676                      .dwattr $C$DW$633, DW_AT_const_value(0x00)
TMS320C2000 Assembler PC v15.12.3 Wed Nov 22 00:56:17 2017

Tools Copyright (c) 1996-2015 Texas Instruments Incorporated
C:\Users\wmj\AppData\Local\Temp\0070810                              PAGE  147

    7677              
    7678              $C$DW$634       .dwtag  DW_TAG_enumerator
    7679                      .dwattr $C$DW$634, DW_AT_name("CTRL_Type_PID_Id")
    7680                      .dwattr $C$DW$634, DW_AT_const_value(0x01)
    7681              
    7682              $C$DW$635       .dwtag  DW_TAG_enumerator
    7683                      .dwattr $C$DW$635, DW_AT_name("CTRL_Type_PID_Iq")
    7684                      .dwattr $C$DW$635, DW_AT_const_value(0x02)
    7685              
    7686                      .dwendtag $C$DW$T$179
    7687              
    7688              $C$DW$T$180     .dwtag  DW_TAG_typedef
    7689                      .dwattr $C$DW$T$180, DW_AT_name("CTRL_Type_e")
    7690                      .dwattr $C$DW$T$180, DW_AT_type(*$C$DW$T$179)
    7691                      .dwattr $C$DW$T$180, DW_AT_language(DW_LANG_C)
    7692              
    7693              $C$DW$636       .dwtag  DW_TAG_TI_far_type
    7694                      .dwattr $C$DW$636, DW_AT_type(*$C$DW$T$180)
    7695              
    7696              $C$DW$T$181     .dwtag  DW_TAG_const_type
    7697                      .dwattr $C$DW$T$181, DW_AT_type(*$C$DW$636)
    7698              
    7699              
    7700              $C$DW$T$30      .dwtag  DW_TAG_structure_type
    7701                      .dwattr $C$DW$T$30, DW_AT_name("_ADC_Obj_")
    7702                      .dwattr $C$DW$T$30, DW_AT_byte_size(0x6650)
    7703              $C$DW$637       .dwtag  DW_TAG_member
    7704                      .dwattr $C$DW$637, DW_AT_type(*$C$DW$T$24)
    7705                      .dwattr $C$DW$637, DW_AT_name("ADCRESULT")
    7706                      .dwattr $C$DW$637, DW_AT_TI_symbol_name("_ADCRESULT")
    7707                      .dwattr $C$DW$637, DW_AT_data_member_location[DW_OP_plus_uconst 0x0]
    7708                      .dwattr $C$DW$637, DW_AT_accessibility(DW_ACCESS_public)
    7709              
    7710              $C$DW$638       .dwtag  DW_TAG_member
    7711                      .dwattr $C$DW$638, DW_AT_type(*$C$DW$T$25)
    7712                      .dwattr $C$DW$638, DW_AT_name("resvd_1")
    7713                      .dwattr $C$DW$638, DW_AT_TI_symbol_name("_resvd_1")
    7714                      .dwattr $C$DW$638, DW_AT_data_member_location[DW_OP_plus_uconst 0x10]
    7715                      .dwattr $C$DW$638, DW_AT_accessibility(DW_ACCESS_public)
    7716              
    7717              $C$DW$639       .dwtag  DW_TAG_member
    7718                      .dwattr $C$DW$639, DW_AT_type(*$C$DW$T$23)
    7719                      .dwattr $C$DW$639, DW_AT_name("ADCCTL1")
    7720                      .dwattr $C$DW$639, DW_AT_TI_symbol_name("_ADCCTL1")
    7721                      .dwattr $C$DW$639, DW_AT_data_member_location[DW_OP_plus_uconst 0x6600]
    7722                      .dwattr $C$DW$639, DW_AT_accessibility(DW_ACCESS_public)
    7723              
    7724              $C$DW$640       .dwtag  DW_TAG_member
    7725                      .dwattr $C$DW$640, DW_AT_type(*$C$DW$T$23)
    7726                      .dwattr $C$DW$640, DW_AT_name("ADCCTL2")
    7727                      .dwattr $C$DW$640, DW_AT_TI_symbol_name("_ADCCTL2")
    7728                      .dwattr $C$DW$640, DW_AT_data_member_location[DW_OP_plus_uconst 0x6601]
    7729                      .dwattr $C$DW$640, DW_AT_accessibility(DW_ACCESS_public)
    7730              
    7731              $C$DW$641       .dwtag  DW_TAG_member
TMS320C2000 Assembler PC v15.12.3 Wed Nov 22 00:56:17 2017

Tools Copyright (c) 1996-2015 Texas Instruments Incorporated
C:\Users\wmj\AppData\Local\Temp\0070810                              PAGE  148

    7732                      .dwattr $C$DW$641, DW_AT_type(*$C$DW$T$26)
    7733                      .dwattr $C$DW$641, DW_AT_name("rsvd_2")
    7734                      .dwattr $C$DW$641, DW_AT_TI_symbol_name("_rsvd_2")
    7735                      .dwattr $C$DW$641, DW_AT_data_member_location[DW_OP_plus_uconst 0x6602]
    7736                      .dwattr $C$DW$641, DW_AT_accessibility(DW_ACCESS_public)
    7737              
    7738              $C$DW$642       .dwtag  DW_TAG_member
    7739                      .dwattr $C$DW$642, DW_AT_type(*$C$DW$T$23)
    7740                      .dwattr $C$DW$642, DW_AT_name("ADCINTFLG")
    7741                      .dwattr $C$DW$642, DW_AT_TI_symbol_name("_ADCINTFLG")
    7742                      .dwattr $C$DW$642, DW_AT_data_member_location[DW_OP_plus_uconst 0x6604]
    7743                      .dwattr $C$DW$642, DW_AT_accessibility(DW_ACCESS_public)
    7744              
    7745              $C$DW$643       .dwtag  DW_TAG_member
    7746                      .dwattr $C$DW$643, DW_AT_type(*$C$DW$T$23)
    7747                      .dwattr $C$DW$643, DW_AT_name("ADCINTFLGCLR")
    7748                      .dwattr $C$DW$643, DW_AT_TI_symbol_name("_ADCINTFLGCLR")
    7749                      .dwattr $C$DW$643, DW_AT_data_member_location[DW_OP_plus_uconst 0x6605]
    7750                      .dwattr $C$DW$643, DW_AT_accessibility(DW_ACCESS_public)
    7751              
    7752              $C$DW$644       .dwtag  DW_TAG_member
    7753                      .dwattr $C$DW$644, DW_AT_type(*$C$DW$T$23)
    7754                      .dwattr $C$DW$644, DW_AT_name("ADCINTOVF")
    7755                      .dwattr $C$DW$644, DW_AT_TI_symbol_name("_ADCINTOVF")
    7756                      .dwattr $C$DW$644, DW_AT_data_member_location[DW_OP_plus_uconst 0x6606]
    7757                      .dwattr $C$DW$644, DW_AT_accessibility(DW_ACCESS_public)
    7758              
    7759              $C$DW$645       .dwtag  DW_TAG_member
    7760                      .dwattr $C$DW$645, DW_AT_type(*$C$DW$T$23)
    7761                      .dwattr $C$DW$645, DW_AT_name("ADCINTOVFCLR")
    7762                      .dwattr $C$DW$645, DW_AT_TI_symbol_name("_ADCINTOVFCLR")
    7763                      .dwattr $C$DW$645, DW_AT_data_member_location[DW_OP_plus_uconst 0x6607]
    7764                      .dwattr $C$DW$645, DW_AT_accessibility(DW_ACCESS_public)
    7765              
    7766              $C$DW$646       .dwtag  DW_TAG_member
    7767                      .dwattr $C$DW$646, DW_AT_type(*$C$DW$T$27)
    7768                      .dwattr $C$DW$646, DW_AT_name("INTSELxNy")
    7769                      .dwattr $C$DW$646, DW_AT_TI_symbol_name("_INTSELxNy")
    7770                      .dwattr $C$DW$646, DW_AT_data_member_location[DW_OP_plus_uconst 0x6608]
    7771                      .dwattr $C$DW$646, DW_AT_accessibility(DW_ACCESS_public)
    7772              
    7773              $C$DW$647       .dwtag  DW_TAG_member
    7774                      .dwattr $C$DW$647, DW_AT_type(*$C$DW$T$28)
    7775                      .dwattr $C$DW$647, DW_AT_name("rsvd_3")
    7776                      .dwattr $C$DW$647, DW_AT_TI_symbol_name("_rsvd_3")
    7777                      .dwattr $C$DW$647, DW_AT_data_member_location[DW_OP_plus_uconst 0x660d]
    7778                      .dwattr $C$DW$647, DW_AT_accessibility(DW_ACCESS_public)
    7779              
    7780              $C$DW$648       .dwtag  DW_TAG_member
    7781                      .dwattr $C$DW$648, DW_AT_type(*$C$DW$T$23)
    7782                      .dwattr $C$DW$648, DW_AT_name("SOCPRICTRL")
    7783                      .dwattr $C$DW$648, DW_AT_TI_symbol_name("_SOCPRICTRL")
    7784                      .dwattr $C$DW$648, DW_AT_data_member_location[DW_OP_plus_uconst 0x6610]
    7785                      .dwattr $C$DW$648, DW_AT_accessibility(DW_ACCESS_public)
    7786              
TMS320C2000 Assembler PC v15.12.3 Wed Nov 22 00:56:17 2017

Tools Copyright (c) 1996-2015 Texas Instruments Incorporated
C:\Users\wmj\AppData\Local\Temp\0070810                              PAGE  149

    7787              $C$DW$649       .dwtag  DW_TAG_member
    7788                      .dwattr $C$DW$649, DW_AT_type(*$C$DW$T$23)
    7789                      .dwattr $C$DW$649, DW_AT_name("rsvd_4")
    7790                      .dwattr $C$DW$649, DW_AT_TI_symbol_name("_rsvd_4")
    7791                      .dwattr $C$DW$649, DW_AT_data_member_location[DW_OP_plus_uconst 0x6611]
    7792                      .dwattr $C$DW$649, DW_AT_accessibility(DW_ACCESS_public)
    7793              
    7794              $C$DW$650       .dwtag  DW_TAG_member
    7795                      .dwattr $C$DW$650, DW_AT_type(*$C$DW$T$23)
    7796                      .dwattr $C$DW$650, DW_AT_name("ADCSAMPLEMODE")
    7797                      .dwattr $C$DW$650, DW_AT_TI_symbol_name("_ADCSAMPLEMODE")
    7798                      .dwattr $C$DW$650, DW_AT_data_member_location[DW_OP_plus_uconst 0x6612]
    7799                      .dwattr $C$DW$650, DW_AT_accessibility(DW_ACCESS_public)
    7800              
    7801              $C$DW$651       .dwtag  DW_TAG_member
    7802                      .dwattr $C$DW$651, DW_AT_type(*$C$DW$T$23)
    7803                      .dwattr $C$DW$651, DW_AT_name("rsvd_5")
    7804                      .dwattr $C$DW$651, DW_AT_TI_symbol_name("_rsvd_5")
    7805                      .dwattr $C$DW$651, DW_AT_data_member_location[DW_OP_plus_uconst 0x6613]
    7806                      .dwattr $C$DW$651, DW_AT_accessibility(DW_ACCESS_public)
    7807              
    7808              $C$DW$652       .dwtag  DW_TAG_member
    7809                      .dwattr $C$DW$652, DW_AT_type(*$C$DW$T$23)
    7810                      .dwattr $C$DW$652, DW_AT_name("ADCINTSOCSEL1")
    7811                      .dwattr $C$DW$652, DW_AT_TI_symbol_name("_ADCINTSOCSEL1")
    7812                      .dwattr $C$DW$652, DW_AT_data_member_location[DW_OP_plus_uconst 0x6614]
    7813                      .dwattr $C$DW$652, DW_AT_accessibility(DW_ACCESS_public)
    7814              
    7815              $C$DW$653       .dwtag  DW_TAG_member
    7816                      .dwattr $C$DW$653, DW_AT_type(*$C$DW$T$23)
    7817                      .dwattr $C$DW$653, DW_AT_name("ADCINTSOCSEL2")
    7818                      .dwattr $C$DW$653, DW_AT_TI_symbol_name("_ADCINTSOCSEL2")
    7819                      .dwattr $C$DW$653, DW_AT_data_member_location[DW_OP_plus_uconst 0x6615]
    7820                      .dwattr $C$DW$653, DW_AT_accessibility(DW_ACCESS_public)
    7821              
    7822              $C$DW$654       .dwtag  DW_TAG_member
    7823                      .dwattr $C$DW$654, DW_AT_type(*$C$DW$T$26)
    7824                      .dwattr $C$DW$654, DW_AT_name("rsvd_6")
    7825                      .dwattr $C$DW$654, DW_AT_TI_symbol_name("_rsvd_6")
    7826                      .dwattr $C$DW$654, DW_AT_data_member_location[DW_OP_plus_uconst 0x6616]
    7827                      .dwattr $C$DW$654, DW_AT_accessibility(DW_ACCESS_public)
    7828              
    7829              $C$DW$655       .dwtag  DW_TAG_member
    7830                      .dwattr $C$DW$655, DW_AT_type(*$C$DW$T$23)
    7831                      .dwattr $C$DW$655, DW_AT_name("ADCSOCFLG1")
    7832                      .dwattr $C$DW$655, DW_AT_TI_symbol_name("_ADCSOCFLG1")
    7833                      .dwattr $C$DW$655, DW_AT_data_member_location[DW_OP_plus_uconst 0x6618]
    7834                      .dwattr $C$DW$655, DW_AT_accessibility(DW_ACCESS_public)
    7835              
    7836              $C$DW$656       .dwtag  DW_TAG_member
    7837                      .dwattr $C$DW$656, DW_AT_type(*$C$DW$T$23)
    7838                      .dwattr $C$DW$656, DW_AT_name("rsvd_7")
    7839                      .dwattr $C$DW$656, DW_AT_TI_symbol_name("_rsvd_7")
    7840                      .dwattr $C$DW$656, DW_AT_data_member_location[DW_OP_plus_uconst 0x6619]
    7841                      .dwattr $C$DW$656, DW_AT_accessibility(DW_ACCESS_public)
TMS320C2000 Assembler PC v15.12.3 Wed Nov 22 00:56:17 2017

Tools Copyright (c) 1996-2015 Texas Instruments Incorporated
C:\Users\wmj\AppData\Local\Temp\0070810                              PAGE  150

    7842              
    7843              $C$DW$657       .dwtag  DW_TAG_member
    7844                      .dwattr $C$DW$657, DW_AT_type(*$C$DW$T$23)
    7845                      .dwattr $C$DW$657, DW_AT_name("ADCSOCFRC1")
    7846                      .dwattr $C$DW$657, DW_AT_TI_symbol_name("_ADCSOCFRC1")
    7847                      .dwattr $C$DW$657, DW_AT_data_member_location[DW_OP_plus_uconst 0x661a]
    7848                      .dwattr $C$DW$657, DW_AT_accessibility(DW_ACCESS_public)
    7849              
    7850              $C$DW$658       .dwtag  DW_TAG_member
    7851                      .dwattr $C$DW$658, DW_AT_type(*$C$DW$T$23)
    7852                      .dwattr $C$DW$658, DW_AT_name("rsvd_8")
    7853                      .dwattr $C$DW$658, DW_AT_TI_symbol_name("_rsvd_8")
    7854                      .dwattr $C$DW$658, DW_AT_data_member_location[DW_OP_plus_uconst 0x661b]
    7855                      .dwattr $C$DW$658, DW_AT_accessibility(DW_ACCESS_public)
    7856              
    7857              $C$DW$659       .dwtag  DW_TAG_member
    7858                      .dwattr $C$DW$659, DW_AT_type(*$C$DW$T$23)
    7859                      .dwattr $C$DW$659, DW_AT_name("ADCSOCOVF1")
    7860                      .dwattr $C$DW$659, DW_AT_TI_symbol_name("_ADCSOCOVF1")
    7861                      .dwattr $C$DW$659, DW_AT_data_member_location[DW_OP_plus_uconst 0x661c]
    7862                      .dwattr $C$DW$659, DW_AT_accessibility(DW_ACCESS_public)
    7863              
    7864              $C$DW$660       .dwtag  DW_TAG_member
    7865                      .dwattr $C$DW$660, DW_AT_type(*$C$DW$T$23)
    7866                      .dwattr $C$DW$660, DW_AT_name("rsvd_9")
    7867                      .dwattr $C$DW$660, DW_AT_TI_symbol_name("_rsvd_9")
    7868                      .dwattr $C$DW$660, DW_AT_data_member_location[DW_OP_plus_uconst 0x661d]
    7869                      .dwattr $C$DW$660, DW_AT_accessibility(DW_ACCESS_public)
    7870              
    7871              $C$DW$661       .dwtag  DW_TAG_member
    7872                      .dwattr $C$DW$661, DW_AT_type(*$C$DW$T$23)
    7873                      .dwattr $C$DW$661, DW_AT_name("ADCSOCOVFCLR1")
    7874                      .dwattr $C$DW$661, DW_AT_TI_symbol_name("_ADCSOCOVFCLR1")
    7875                      .dwattr $C$DW$661, DW_AT_data_member_location[DW_OP_plus_uconst 0x661e]
    7876                      .dwattr $C$DW$661, DW_AT_accessibility(DW_ACCESS_public)
    7877              
    7878              $C$DW$662       .dwtag  DW_TAG_member
    7879                      .dwattr $C$DW$662, DW_AT_type(*$C$DW$T$23)
    7880                      .dwattr $C$DW$662, DW_AT_name("rsvd_10")
    7881                      .dwattr $C$DW$662, DW_AT_TI_symbol_name("_rsvd_10")
    7882                      .dwattr $C$DW$662, DW_AT_data_member_location[DW_OP_plus_uconst 0x661f]
    7883                      .dwattr $C$DW$662, DW_AT_accessibility(DW_ACCESS_public)
    7884              
    7885              $C$DW$663       .dwtag  DW_TAG_member
    7886                      .dwattr $C$DW$663, DW_AT_type(*$C$DW$T$24)
    7887                      .dwattr $C$DW$663, DW_AT_name("ADCSOCxCTL")
    7888                      .dwattr $C$DW$663, DW_AT_TI_symbol_name("_ADCSOCxCTL")
    7889                      .dwattr $C$DW$663, DW_AT_data_member_location[DW_OP_plus_uconst 0x6620]
    7890                      .dwattr $C$DW$663, DW_AT_accessibility(DW_ACCESS_public)
    7891              
    7892              $C$DW$664       .dwtag  DW_TAG_member
    7893                      .dwattr $C$DW$664, DW_AT_type(*$C$DW$T$24)
    7894                      .dwattr $C$DW$664, DW_AT_name("rsvd_11")
    7895                      .dwattr $C$DW$664, DW_AT_TI_symbol_name("_rsvd_11")
    7896                      .dwattr $C$DW$664, DW_AT_data_member_location[DW_OP_plus_uconst 0x6630]
TMS320C2000 Assembler PC v15.12.3 Wed Nov 22 00:56:17 2017

Tools Copyright (c) 1996-2015 Texas Instruments Incorporated
C:\Users\wmj\AppData\Local\Temp\0070810                              PAGE  151

    7897                      .dwattr $C$DW$664, DW_AT_accessibility(DW_ACCESS_public)
    7898              
    7899              $C$DW$665       .dwtag  DW_TAG_member
    7900                      .dwattr $C$DW$665, DW_AT_type(*$C$DW$T$23)
    7901                      .dwattr $C$DW$665, DW_AT_name("ADCREFTRIM")
    7902                      .dwattr $C$DW$665, DW_AT_TI_symbol_name("_ADCREFTRIM")
    7903                      .dwattr $C$DW$665, DW_AT_data_member_location[DW_OP_plus_uconst 0x6640]
    7904                      .dwattr $C$DW$665, DW_AT_accessibility(DW_ACCESS_public)
    7905              
    7906              $C$DW$666       .dwtag  DW_TAG_member
    7907                      .dwattr $C$DW$666, DW_AT_type(*$C$DW$T$23)
    7908                      .dwattr $C$DW$666, DW_AT_name("ADCOFFTRIM")
    7909                      .dwattr $C$DW$666, DW_AT_TI_symbol_name("_ADCOFFTRIM")
    7910                      .dwattr $C$DW$666, DW_AT_data_member_location[DW_OP_plus_uconst 0x6641]
    7911                      .dwattr $C$DW$666, DW_AT_accessibility(DW_ACCESS_public)
    7912              
    7913              $C$DW$667       .dwtag  DW_TAG_member
    7914                      .dwattr $C$DW$667, DW_AT_type(*$C$DW$T$29)
    7915                      .dwattr $C$DW$667, DW_AT_name("resvd_12")
    7916                      .dwattr $C$DW$667, DW_AT_TI_symbol_name("_resvd_12")
    7917                      .dwattr $C$DW$667, DW_AT_data_member_location[DW_OP_plus_uconst 0x6642]
    7918                      .dwattr $C$DW$667, DW_AT_accessibility(DW_ACCESS_public)
    7919              
    7920              $C$DW$668       .dwtag  DW_TAG_member
    7921                      .dwattr $C$DW$668, DW_AT_type(*$C$DW$T$23)
    7922                      .dwattr $C$DW$668, DW_AT_name("ADCREV")
    7923                      .dwattr $C$DW$668, DW_AT_TI_symbol_name("_ADCREV")
    7924                      .dwattr $C$DW$668, DW_AT_data_member_location[DW_OP_plus_uconst 0x664f]
    7925                      .dwattr $C$DW$668, DW_AT_accessibility(DW_ACCESS_public)
    7926              
    7927                      .dwendtag $C$DW$T$30
    7928              
    7929              $C$DW$T$86      .dwtag  DW_TAG_pointer_type
    7930                      .dwattr $C$DW$T$86, DW_AT_type(*$C$DW$T$30)
    7931                      .dwattr $C$DW$T$86, DW_AT_address_class(0x20)
    7932              
    7933              $C$DW$T$87      .dwtag  DW_TAG_typedef
    7934                      .dwattr $C$DW$T$87, DW_AT_name("ADC_Handle")
    7935                      .dwattr $C$DW$T$87, DW_AT_type(*$C$DW$T$86)
    7936                      .dwattr $C$DW$T$87, DW_AT_language(DW_LANG_C)
    7937              
    7938              
    7939              $C$DW$T$34      .dwtag  DW_TAG_structure_type
    7940                      .dwattr $C$DW$T$34, DW_AT_name("_BRAKE_Obj_")
    7941                      .dwattr $C$DW$T$34, DW_AT_byte_size(0x08)
    7942              $C$DW$669       .dwtag  DW_TAG_member
    7943                      .dwattr $C$DW$669, DW_AT_type(*$C$DW$T$31)
    7944                      .dwattr $C$DW$669, DW_AT_name("angle_pu")
    7945                      .dwattr $C$DW$669, DW_AT_TI_symbol_name("_angle_pu")
    7946                      .dwattr $C$DW$669, DW_AT_data_member_location[DW_OP_plus_uconst 0x0]
    7947                      .dwattr $C$DW$669, DW_AT_accessibility(DW_ACCESS_public)
    7948              
    7949              $C$DW$670       .dwtag  DW_TAG_member
    7950                      .dwattr $C$DW$670, DW_AT_type(*$C$DW$T$32)
    7951                      .dwattr $C$DW$670, DW_AT_name("Idq_brake")
TMS320C2000 Assembler PC v15.12.3 Wed Nov 22 00:56:17 2017

Tools Copyright (c) 1996-2015 Texas Instruments Incorporated
C:\Users\wmj\AppData\Local\Temp\0070810                              PAGE  152

    7952                      .dwattr $C$DW$670, DW_AT_TI_symbol_name("_Idq_brake")
    7953                      .dwattr $C$DW$670, DW_AT_data_member_location[DW_OP_plus_uconst 0x2]
    7954                      .dwattr $C$DW$670, DW_AT_accessibility(DW_ACCESS_public)
    7955              
    7956              $C$DW$671       .dwtag  DW_TAG_member
    7957                      .dwattr $C$DW$671, DW_AT_type(*$C$DW$T$33)
    7958                      .dwattr $C$DW$671, DW_AT_name("brake_enable")
    7959                      .dwattr $C$DW$671, DW_AT_TI_symbol_name("_brake_enable")
    7960                      .dwattr $C$DW$671, DW_AT_data_member_location[DW_OP_plus_uconst 0x6]
    7961                      .dwattr $C$DW$671, DW_AT_accessibility(DW_ACCESS_public)
    7962              
    7963                      .dwendtag $C$DW$T$34
    7964              
    7965              $C$DW$T$73      .dwtag  DW_TAG_typedef
    7966                      .dwattr $C$DW$T$73, DW_AT_name("BRAKE_Obj")
    7967                      .dwattr $C$DW$T$73, DW_AT_type(*$C$DW$T$34)
    7968                      .dwattr $C$DW$T$73, DW_AT_language(DW_LANG_C)
    7969              
    7970              $C$DW$T$71      .dwtag  DW_TAG_pointer_type
    7971                      .dwattr $C$DW$T$71, DW_AT_type(*$C$DW$T$34)
    7972                      .dwattr $C$DW$T$71, DW_AT_address_class(0x20)
    7973              
    7974              $C$DW$T$72      .dwtag  DW_TAG_typedef
    7975                      .dwattr $C$DW$T$72, DW_AT_name("BRAKE_Handle")
    7976                      .dwattr $C$DW$T$72, DW_AT_type(*$C$DW$T$71)
    7977                      .dwattr $C$DW$T$72, DW_AT_language(DW_LANG_C)
    7978              
    7979              
    7980              $C$DW$T$36      .dwtag  DW_TAG_structure_type
    7981                      .dwattr $C$DW$T$36, DW_AT_name("_CLARKE_Obj_")
    7982                      .dwattr $C$DW$T$36, DW_AT_byte_size(0x06)
    7983              $C$DW$672       .dwtag  DW_TAG_member
    7984                      .dwattr $C$DW$672, DW_AT_type(*$C$DW$T$31)
    7985                      .dwattr $C$DW$672, DW_AT_name("alpha_sf")
    7986                      .dwattr $C$DW$672, DW_AT_TI_symbol_name("_alpha_sf")
    7987                      .dwattr $C$DW$672, DW_AT_data_member_location[DW_OP_plus_uconst 0x0]
    7988                      .dwattr $C$DW$672, DW_AT_accessibility(DW_ACCESS_public)
    7989              
    7990              $C$DW$673       .dwtag  DW_TAG_member
    7991                      .dwattr $C$DW$673, DW_AT_type(*$C$DW$T$31)
    7992                      .dwattr $C$DW$673, DW_AT_name("beta_sf")
    7993                      .dwattr $C$DW$673, DW_AT_TI_symbol_name("_beta_sf")
    7994                      .dwattr $C$DW$673, DW_AT_data_member_location[DW_OP_plus_uconst 0x2]
    7995                      .dwattr $C$DW$673, DW_AT_accessibility(DW_ACCESS_public)
    7996              
    7997              $C$DW$674       .dwtag  DW_TAG_member
    7998                      .dwattr $C$DW$674, DW_AT_type(*$C$DW$T$35)
    7999                      .dwattr $C$DW$674, DW_AT_name("numSensors")
    8000                      .dwattr $C$DW$674, DW_AT_TI_symbol_name("_numSensors")
    8001                      .dwattr $C$DW$674, DW_AT_data_member_location[DW_OP_plus_uconst 0x4]
    8002                      .dwattr $C$DW$674, DW_AT_accessibility(DW_ACCESS_public)
    8003              
    8004                      .dwendtag $C$DW$T$36
    8005              
    8006              $C$DW$T$47      .dwtag  DW_TAG_typedef
TMS320C2000 Assembler PC v15.12.3 Wed Nov 22 00:56:17 2017

Tools Copyright (c) 1996-2015 Texas Instruments Incorporated
C:\Users\wmj\AppData\Local\Temp\0070810                              PAGE  153

    8007                      .dwattr $C$DW$T$47, DW_AT_name("CLARKE_Obj")
    8008                      .dwattr $C$DW$T$47, DW_AT_type(*$C$DW$T$36)
    8009                      .dwattr $C$DW$T$47, DW_AT_language(DW_LANG_C)
    8010              
    8011              $C$DW$T$187     .dwtag  DW_TAG_pointer_type
    8012                      .dwattr $C$DW$T$187, DW_AT_type(*$C$DW$T$47)
    8013                      .dwattr $C$DW$T$187, DW_AT_address_class(0x20)
    8014              
    8015              $C$DW$T$45      .dwtag  DW_TAG_pointer_type
    8016                      .dwattr $C$DW$T$45, DW_AT_type(*$C$DW$T$36)
    8017                      .dwattr $C$DW$T$45, DW_AT_address_class(0x20)
    8018              
    8019              $C$DW$T$46      .dwtag  DW_TAG_typedef
    8020                      .dwattr $C$DW$T$46, DW_AT_name("CLARKE_Handle")
    8021                      .dwattr $C$DW$T$46, DW_AT_type(*$C$DW$T$45)
    8022                      .dwattr $C$DW$T$46, DW_AT_language(DW_LANG_C)
    8023              
    8024              
    8025              $C$DW$T$38      .dwtag  DW_TAG_structure_type
    8026                      .dwattr $C$DW$T$38, DW_AT_name("_CLK_Obj_")
    8027                      .dwattr $C$DW$T$38, DW_AT_byte_size(0x11)
    8028              $C$DW$675       .dwtag  DW_TAG_member
    8029                      .dwattr $C$DW$675, DW_AT_type(*$C$DW$T$23)
    8030                      .dwattr $C$DW$675, DW_AT_name("XCLK")
    8031                      .dwattr $C$DW$675, DW_AT_TI_symbol_name("_XCLK")
    8032                      .dwattr $C$DW$675, DW_AT_data_member_location[DW_OP_plus_uconst 0x0]
    8033                      .dwattr $C$DW$675, DW_AT_accessibility(DW_ACCESS_public)
    8034              
    8035              $C$DW$676       .dwtag  DW_TAG_member
    8036                      .dwattr $C$DW$676, DW_AT_type(*$C$DW$T$23)
    8037                      .dwattr $C$DW$676, DW_AT_name("rsvd_1")
    8038                      .dwattr $C$DW$676, DW_AT_TI_symbol_name("_rsvd_1")
    8039                      .dwattr $C$DW$676, DW_AT_data_member_location[DW_OP_plus_uconst 0x1]
    8040                      .dwattr $C$DW$676, DW_AT_accessibility(DW_ACCESS_public)
    8041              
    8042              $C$DW$677       .dwtag  DW_TAG_member
    8043                      .dwattr $C$DW$677, DW_AT_type(*$C$DW$T$23)
    8044                      .dwattr $C$DW$677, DW_AT_name("CLKCTL")
    8045                      .dwattr $C$DW$677, DW_AT_TI_symbol_name("_CLKCTL")
    8046                      .dwattr $C$DW$677, DW_AT_data_member_location[DW_OP_plus_uconst 0x2]
    8047                      .dwattr $C$DW$677, DW_AT_accessibility(DW_ACCESS_public)
    8048              
    8049              $C$DW$678       .dwtag  DW_TAG_member
    8050                      .dwattr $C$DW$678, DW_AT_type(*$C$DW$T$37)
    8051                      .dwattr $C$DW$678, DW_AT_name("rsvd_2")
    8052                      .dwattr $C$DW$678, DW_AT_TI_symbol_name("_rsvd_2")
    8053                      .dwattr $C$DW$678, DW_AT_data_member_location[DW_OP_plus_uconst 0x3]
    8054                      .dwattr $C$DW$678, DW_AT_accessibility(DW_ACCESS_public)
    8055              
    8056              $C$DW$679       .dwtag  DW_TAG_member
    8057                      .dwattr $C$DW$679, DW_AT_type(*$C$DW$T$23)
    8058                      .dwattr $C$DW$679, DW_AT_name("LOSPCP")
    8059                      .dwattr $C$DW$679, DW_AT_TI_symbol_name("_LOSPCP")
    8060                      .dwattr $C$DW$679, DW_AT_data_member_location[DW_OP_plus_uconst 0xb]
    8061                      .dwattr $C$DW$679, DW_AT_accessibility(DW_ACCESS_public)
TMS320C2000 Assembler PC v15.12.3 Wed Nov 22 00:56:17 2017

Tools Copyright (c) 1996-2015 Texas Instruments Incorporated
C:\Users\wmj\AppData\Local\Temp\0070810                              PAGE  154

    8062              
    8063              $C$DW$680       .dwtag  DW_TAG_member
    8064                      .dwattr $C$DW$680, DW_AT_type(*$C$DW$T$23)
    8065                      .dwattr $C$DW$680, DW_AT_name("PCLKCR0")
    8066                      .dwattr $C$DW$680, DW_AT_TI_symbol_name("_PCLKCR0")
    8067                      .dwattr $C$DW$680, DW_AT_data_member_location[DW_OP_plus_uconst 0xc]
    8068                      .dwattr $C$DW$680, DW_AT_accessibility(DW_ACCESS_public)
    8069              
    8070              $C$DW$681       .dwtag  DW_TAG_member
    8071                      .dwattr $C$DW$681, DW_AT_type(*$C$DW$T$23)
    8072                      .dwattr $C$DW$681, DW_AT_name("PCLKCR1")
    8073                      .dwattr $C$DW$681, DW_AT_TI_symbol_name("_PCLKCR1")
    8074                      .dwattr $C$DW$681, DW_AT_data_member_location[DW_OP_plus_uconst 0xd]
    8075                      .dwattr $C$DW$681, DW_AT_accessibility(DW_ACCESS_public)
    8076              
    8077              $C$DW$682       .dwtag  DW_TAG_member
    8078                      .dwattr $C$DW$682, DW_AT_type(*$C$DW$T$26)
    8079                      .dwattr $C$DW$682, DW_AT_name("rsvd_3")
    8080                      .dwattr $C$DW$682, DW_AT_TI_symbol_name("_rsvd_3")
    8081                      .dwattr $C$DW$682, DW_AT_data_member_location[DW_OP_plus_uconst 0xe]
    8082                      .dwattr $C$DW$682, DW_AT_accessibility(DW_ACCESS_public)
    8083              
    8084              $C$DW$683       .dwtag  DW_TAG_member
    8085                      .dwattr $C$DW$683, DW_AT_type(*$C$DW$T$23)
    8086                      .dwattr $C$DW$683, DW_AT_name("PCLKCR3")
    8087                      .dwattr $C$DW$683, DW_AT_TI_symbol_name("_PCLKCR3")
    8088                      .dwattr $C$DW$683, DW_AT_data_member_location[DW_OP_plus_uconst 0x10]
    8089                      .dwattr $C$DW$683, DW_AT_accessibility(DW_ACCESS_public)
    8090              
    8091                      .dwendtag $C$DW$T$38
    8092              
    8093              $C$DW$T$88      .dwtag  DW_TAG_pointer_type
    8094                      .dwattr $C$DW$T$88, DW_AT_type(*$C$DW$T$38)
    8095                      .dwattr $C$DW$T$88, DW_AT_address_class(0x20)
    8096              
    8097              $C$DW$T$89      .dwtag  DW_TAG_typedef
    8098                      .dwattr $C$DW$T$89, DW_AT_name("CLK_Handle")
    8099                      .dwattr $C$DW$T$89, DW_AT_type(*$C$DW$T$88)
    8100                      .dwattr $C$DW$T$89, DW_AT_language(DW_LANG_C)
    8101              
    8102              
    8103              $C$DW$T$39      .dwtag  DW_TAG_structure_type
    8104                      .dwattr $C$DW$T$39, DW_AT_name("_CPU_Obj_")
    8105                      .dwattr $C$DW$T$39, DW_AT_byte_size(0x01)
    8106              $C$DW$684       .dwtag  DW_TAG_member
    8107                      .dwattr $C$DW$684, DW_AT_type(*$C$DW$T$35)
    8108                      .dwattr $C$DW$684, DW_AT_name("tmp")
    8109                      .dwattr $C$DW$684, DW_AT_TI_symbol_name("_tmp")
    8110                      .dwattr $C$DW$684, DW_AT_data_member_location[DW_OP_plus_uconst 0x0]
    8111                      .dwattr $C$DW$684, DW_AT_accessibility(DW_ACCESS_public)
    8112              
    8113                      .dwendtag $C$DW$T$39
    8114              
    8115              $C$DW$T$90      .dwtag  DW_TAG_pointer_type
    8116                      .dwattr $C$DW$T$90, DW_AT_type(*$C$DW$T$39)
TMS320C2000 Assembler PC v15.12.3 Wed Nov 22 00:56:17 2017

Tools Copyright (c) 1996-2015 Texas Instruments Incorporated
C:\Users\wmj\AppData\Local\Temp\0070810                              PAGE  155

    8117                      .dwattr $C$DW$T$90, DW_AT_address_class(0x20)
    8118              
    8119              $C$DW$T$91      .dwtag  DW_TAG_typedef
    8120                      .dwattr $C$DW$T$91, DW_AT_name("CPU_Handle")
    8121                      .dwattr $C$DW$T$91, DW_AT_type(*$C$DW$T$90)
    8122                      .dwattr $C$DW$T$91, DW_AT_language(DW_LANG_C)
    8123              
    8124              
    8125              $C$DW$T$74      .dwtag  DW_TAG_structure_type
    8126                      .dwattr $C$DW$T$74, DW_AT_name("_CTRL_Obj_")
    8127                      .dwattr $C$DW$T$74, DW_AT_byte_size(0x108)
    8128              $C$DW$685       .dwtag  DW_TAG_member
    8129                      .dwattr $C$DW$685, DW_AT_type(*$C$DW$T$40)
    8130                      .dwattr $C$DW$685, DW_AT_name("version")
    8131                      .dwattr $C$DW$685, DW_AT_TI_symbol_name("_version")
    8132                      .dwattr $C$DW$685, DW_AT_data_member_location[DW_OP_plus_uconst 0x0]
    8133                      .dwattr $C$DW$685, DW_AT_accessibility(DW_ACCESS_public)
    8134              
    8135              $C$DW$686       .dwtag  DW_TAG_member
    8136                      .dwattr $C$DW$686, DW_AT_type(*$C$DW$T$42)
    8137                      .dwattr $C$DW$686, DW_AT_name("state")
    8138                      .dwattr $C$DW$686, DW_AT_TI_symbol_name("_state")
    8139                      .dwattr $C$DW$686, DW_AT_data_member_location[DW_OP_plus_uconst 0x4]
    8140                      .dwattr $C$DW$686, DW_AT_accessibility(DW_ACCESS_public)
    8141              
    8142              $C$DW$687       .dwtag  DW_TAG_member
    8143                      .dwattr $C$DW$687, DW_AT_type(*$C$DW$T$42)
    8144                      .dwattr $C$DW$687, DW_AT_name("prevState")
    8145                      .dwattr $C$DW$687, DW_AT_TI_symbol_name("_prevState")
    8146                      .dwattr $C$DW$687, DW_AT_data_member_location[DW_OP_plus_uconst 0x5]
    8147                      .dwattr $C$DW$687, DW_AT_accessibility(DW_ACCESS_public)
    8148              
    8149              $C$DW$688       .dwtag  DW_TAG_member
    8150                      .dwattr $C$DW$688, DW_AT_type(*$C$DW$T$44)
    8151                      .dwattr $C$DW$688, DW_AT_name("errorCode")
    8152                      .dwattr $C$DW$688, DW_AT_TI_symbol_name("_errorCode")
    8153                      .dwattr $C$DW$688, DW_AT_data_member_location[DW_OP_plus_uconst 0x6]
    8154                      .dwattr $C$DW$688, DW_AT_accessibility(DW_ACCESS_public)
    8155              
    8156              $C$DW$689       .dwtag  DW_TAG_member
    8157                      .dwattr $C$DW$689, DW_AT_type(*$C$DW$T$46)
    8158                      .dwattr $C$DW$689, DW_AT_name("clarkeHandle_I")
    8159                      .dwattr $C$DW$689, DW_AT_TI_symbol_name("_clarkeHandle_I")
    8160                      .dwattr $C$DW$689, DW_AT_data_member_location[DW_OP_plus_uconst 0x8]
    8161                      .dwattr $C$DW$689, DW_AT_accessibility(DW_ACCESS_public)
    8162              
    8163              $C$DW$690       .dwtag  DW_TAG_member
    8164                      .dwattr $C$DW$690, DW_AT_type(*$C$DW$T$47)
    8165                      .dwattr $C$DW$690, DW_AT_name("clarke_I")
    8166                      .dwattr $C$DW$690, DW_AT_TI_symbol_name("_clarke_I")
    8167                      .dwattr $C$DW$690, DW_AT_data_member_location[DW_OP_plus_uconst 0xa]
    8168                      .dwattr $C$DW$690, DW_AT_accessibility(DW_ACCESS_public)
    8169              
    8170              $C$DW$691       .dwtag  DW_TAG_member
    8171                      .dwattr $C$DW$691, DW_AT_type(*$C$DW$T$46)
TMS320C2000 Assembler PC v15.12.3 Wed Nov 22 00:56:17 2017

Tools Copyright (c) 1996-2015 Texas Instruments Incorporated
C:\Users\wmj\AppData\Local\Temp\0070810                              PAGE  156

    8172                      .dwattr $C$DW$691, DW_AT_name("clarkeHandle_V")
    8173                      .dwattr $C$DW$691, DW_AT_TI_symbol_name("_clarkeHandle_V")
    8174                      .dwattr $C$DW$691, DW_AT_data_member_location[DW_OP_plus_uconst 0x10]
    8175                      .dwattr $C$DW$691, DW_AT_accessibility(DW_ACCESS_public)
    8176              
    8177              $C$DW$692       .dwtag  DW_TAG_member
    8178                      .dwattr $C$DW$692, DW_AT_type(*$C$DW$T$47)
    8179                      .dwattr $C$DW$692, DW_AT_name("clarke_V")
    8180                      .dwattr $C$DW$692, DW_AT_TI_symbol_name("_clarke_V")
    8181                      .dwattr $C$DW$692, DW_AT_data_member_location[DW_OP_plus_uconst 0x12]
    8182                      .dwattr $C$DW$692, DW_AT_accessibility(DW_ACCESS_public)
    8183              
    8184              $C$DW$693       .dwtag  DW_TAG_member
    8185                      .dwattr $C$DW$693, DW_AT_type(*$C$DW$T$49)
    8186                      .dwattr $C$DW$693, DW_AT_name("estHandle")
    8187                      .dwattr $C$DW$693, DW_AT_TI_symbol_name("_estHandle")
    8188                      .dwattr $C$DW$693, DW_AT_data_member_location[DW_OP_plus_uconst 0x18]
    8189                      .dwattr $C$DW$693, DW_AT_accessibility(DW_ACCESS_public)
    8190              
    8191              $C$DW$694       .dwtag  DW_TAG_member
    8192                      .dwattr $C$DW$694, DW_AT_type(*$C$DW$T$51)
    8193                      .dwattr $C$DW$694, DW_AT_name("parkHandle")
    8194                      .dwattr $C$DW$694, DW_AT_TI_symbol_name("_parkHandle")
    8195                      .dwattr $C$DW$694, DW_AT_data_member_location[DW_OP_plus_uconst 0x1a]
    8196                      .dwattr $C$DW$694, DW_AT_accessibility(DW_ACCESS_public)
    8197              
    8198              $C$DW$695       .dwtag  DW_TAG_member
    8199                      .dwattr $C$DW$695, DW_AT_type(*$C$DW$T$52)
    8200                      .dwattr $C$DW$695, DW_AT_name("park")
    8201                      .dwattr $C$DW$695, DW_AT_TI_symbol_name("_park")
    8202                      .dwattr $C$DW$695, DW_AT_data_member_location[DW_OP_plus_uconst 0x1c]
    8203                      .dwattr $C$DW$695, DW_AT_accessibility(DW_ACCESS_public)
    8204              
    8205              $C$DW$696       .dwtag  DW_TAG_member
    8206                      .dwattr $C$DW$696, DW_AT_type(*$C$DW$T$54)
    8207                      .dwattr $C$DW$696, DW_AT_name("pidHandle_Id")
    8208                      .dwattr $C$DW$696, DW_AT_TI_symbol_name("_pidHandle_Id")
    8209                      .dwattr $C$DW$696, DW_AT_data_member_location[DW_OP_plus_uconst 0x20]
    8210                      .dwattr $C$DW$696, DW_AT_accessibility(DW_ACCESS_public)
    8211              
    8212              $C$DW$697       .dwtag  DW_TAG_member
    8213                      .dwattr $C$DW$697, DW_AT_type(*$C$DW$T$55)
    8214                      .dwattr $C$DW$697, DW_AT_name("pid_Id")
    8215                      .dwattr $C$DW$697, DW_AT_TI_symbol_name("_pid_Id")
    8216                      .dwattr $C$DW$697, DW_AT_data_member_location[DW_OP_plus_uconst 0x22]
    8217                      .dwattr $C$DW$697, DW_AT_accessibility(DW_ACCESS_public)
    8218              
    8219              $C$DW$698       .dwtag  DW_TAG_member
    8220                      .dwattr $C$DW$698, DW_AT_type(*$C$DW$T$54)
    8221                      .dwattr $C$DW$698, DW_AT_name("pidHandle_Iq")
    8222                      .dwattr $C$DW$698, DW_AT_TI_symbol_name("_pidHandle_Iq")
    8223                      .dwattr $C$DW$698, DW_AT_data_member_location[DW_OP_plus_uconst 0x32]
    8224                      .dwattr $C$DW$698, DW_AT_accessibility(DW_ACCESS_public)
    8225              
    8226              $C$DW$699       .dwtag  DW_TAG_member
TMS320C2000 Assembler PC v15.12.3 Wed Nov 22 00:56:17 2017

Tools Copyright (c) 1996-2015 Texas Instruments Incorporated
C:\Users\wmj\AppData\Local\Temp\0070810                              PAGE  157

    8227                      .dwattr $C$DW$699, DW_AT_type(*$C$DW$T$55)
    8228                      .dwattr $C$DW$699, DW_AT_name("pid_Iq")
    8229                      .dwattr $C$DW$699, DW_AT_TI_symbol_name("_pid_Iq")
    8230                      .dwattr $C$DW$699, DW_AT_data_member_location[DW_OP_plus_uconst 0x34]
    8231                      .dwattr $C$DW$699, DW_AT_accessibility(DW_ACCESS_public)
    8232              
    8233              $C$DW$700       .dwtag  DW_TAG_member
    8234                      .dwattr $C$DW$700, DW_AT_type(*$C$DW$T$54)
    8235                      .dwattr $C$DW$700, DW_AT_name("pidHandle_spd")
    8236                      .dwattr $C$DW$700, DW_AT_TI_symbol_name("_pidHandle_spd")
    8237                      .dwattr $C$DW$700, DW_AT_data_member_location[DW_OP_plus_uconst 0x44]
    8238                      .dwattr $C$DW$700, DW_AT_accessibility(DW_ACCESS_public)
    8239              
    8240              $C$DW$701       .dwtag  DW_TAG_member
    8241                      .dwattr $C$DW$701, DW_AT_type(*$C$DW$T$55)
    8242                      .dwattr $C$DW$701, DW_AT_name("pid_spd")
    8243                      .dwattr $C$DW$701, DW_AT_TI_symbol_name("_pid_spd")
    8244                      .dwattr $C$DW$701, DW_AT_data_member_location[DW_OP_plus_uconst 0x46]
    8245                      .dwattr $C$DW$701, DW_AT_accessibility(DW_ACCESS_public)
    8246              
    8247              $C$DW$702       .dwtag  DW_TAG_member
    8248                      .dwattr $C$DW$702, DW_AT_type(*$C$DW$T$57)
    8249                      .dwattr $C$DW$702, DW_AT_name("iparkHandle")
    8250                      .dwattr $C$DW$702, DW_AT_TI_symbol_name("_iparkHandle")
    8251                      .dwattr $C$DW$702, DW_AT_data_member_location[DW_OP_plus_uconst 0x56]
    8252                      .dwattr $C$DW$702, DW_AT_accessibility(DW_ACCESS_public)
    8253              
    8254              $C$DW$703       .dwtag  DW_TAG_member
    8255                      .dwattr $C$DW$703, DW_AT_type(*$C$DW$T$58)
    8256                      .dwattr $C$DW$703, DW_AT_name("ipark")
    8257                      .dwattr $C$DW$703, DW_AT_TI_symbol_name("_ipark")
    8258                      .dwattr $C$DW$703, DW_AT_data_member_location[DW_OP_plus_uconst 0x58]
    8259                      .dwattr $C$DW$703, DW_AT_accessibility(DW_ACCESS_public)
    8260              
    8261              $C$DW$704       .dwtag  DW_TAG_member
    8262                      .dwattr $C$DW$704, DW_AT_type(*$C$DW$T$60)
    8263                      .dwattr $C$DW$704, DW_AT_name("svgenHandle")
    8264                      .dwattr $C$DW$704, DW_AT_TI_symbol_name("_svgenHandle")
    8265                      .dwattr $C$DW$704, DW_AT_data_member_location[DW_OP_plus_uconst 0x5c]
    8266                      .dwattr $C$DW$704, DW_AT_accessibility(DW_ACCESS_public)
    8267              
    8268              $C$DW$705       .dwtag  DW_TAG_member
    8269                      .dwattr $C$DW$705, DW_AT_type(*$C$DW$T$61)
    8270                      .dwattr $C$DW$705, DW_AT_name("svgen")
    8271                      .dwattr $C$DW$705, DW_AT_TI_symbol_name("_svgen")
    8272                      .dwattr $C$DW$705, DW_AT_data_member_location[DW_OP_plus_uconst 0x5e]
    8273                      .dwattr $C$DW$705, DW_AT_accessibility(DW_ACCESS_public)
    8274              
    8275              $C$DW$706       .dwtag  DW_TAG_member
    8276                      .dwattr $C$DW$706, DW_AT_type(*$C$DW$T$63)
    8277                      .dwattr $C$DW$706, DW_AT_name("trajHandle_Id")
    8278                      .dwattr $C$DW$706, DW_AT_TI_symbol_name("_trajHandle_Id")
    8279                      .dwattr $C$DW$706, DW_AT_data_member_location[DW_OP_plus_uconst 0x60]
    8280                      .dwattr $C$DW$706, DW_AT_accessibility(DW_ACCESS_public)
    8281              
TMS320C2000 Assembler PC v15.12.3 Wed Nov 22 00:56:17 2017

Tools Copyright (c) 1996-2015 Texas Instruments Incorporated
C:\Users\wmj\AppData\Local\Temp\0070810                              PAGE  158

    8282              $C$DW$707       .dwtag  DW_TAG_member
    8283                      .dwattr $C$DW$707, DW_AT_type(*$C$DW$T$64)
    8284                      .dwattr $C$DW$707, DW_AT_name("traj_Id")
    8285                      .dwattr $C$DW$707, DW_AT_TI_symbol_name("_traj_Id")
    8286                      .dwattr $C$DW$707, DW_AT_data_member_location[DW_OP_plus_uconst 0x62]
    8287                      .dwattr $C$DW$707, DW_AT_accessibility(DW_ACCESS_public)
    8288              
    8289              $C$DW$708       .dwtag  DW_TAG_member
    8290                      .dwattr $C$DW$708, DW_AT_type(*$C$DW$T$63)
    8291                      .dwattr $C$DW$708, DW_AT_name("trajHandle_spd")
    8292                      .dwattr $C$DW$708, DW_AT_TI_symbol_name("_trajHandle_spd")
    8293                      .dwattr $C$DW$708, DW_AT_data_member_location[DW_OP_plus_uconst 0x6c]
    8294                      .dwattr $C$DW$708, DW_AT_accessibility(DW_ACCESS_public)
    8295              
    8296              $C$DW$709       .dwtag  DW_TAG_member
    8297                      .dwattr $C$DW$709, DW_AT_type(*$C$DW$T$64)
    8298                      .dwattr $C$DW$709, DW_AT_name("traj_spd")
    8299                      .dwattr $C$DW$709, DW_AT_TI_symbol_name("_traj_spd")
    8300                      .dwattr $C$DW$709, DW_AT_data_member_location[DW_OP_plus_uconst 0x6e]
    8301                      .dwattr $C$DW$709, DW_AT_accessibility(DW_ACCESS_public)
    8302              
    8303              $C$DW$710       .dwtag  DW_TAG_member
    8304                      .dwattr $C$DW$710, DW_AT_type(*$C$DW$T$63)
    8305                      .dwattr $C$DW$710, DW_AT_name("trajHandle_spdMax")
    8306                      .dwattr $C$DW$710, DW_AT_TI_symbol_name("_trajHandle_spdMax")
    8307                      .dwattr $C$DW$710, DW_AT_data_member_location[DW_OP_plus_uconst 0x78]
    8308                      .dwattr $C$DW$710, DW_AT_accessibility(DW_ACCESS_public)
    8309              
    8310              $C$DW$711       .dwtag  DW_TAG_member
    8311                      .dwattr $C$DW$711, DW_AT_type(*$C$DW$T$64)
    8312                      .dwattr $C$DW$711, DW_AT_name("traj_spdMax")
    8313                      .dwattr $C$DW$711, DW_AT_TI_symbol_name("_traj_spdMax")
    8314                      .dwattr $C$DW$711, DW_AT_data_member_location[DW_OP_plus_uconst 0x7a]
    8315                      .dwattr $C$DW$711, DW_AT_accessibility(DW_ACCESS_public)
    8316              
    8317              $C$DW$712       .dwtag  DW_TAG_member
    8318                      .dwattr $C$DW$712, DW_AT_type(*$C$DW$T$65)
    8319                      .dwattr $C$DW$712, DW_AT_name("motorParams")
    8320                      .dwattr $C$DW$712, DW_AT_TI_symbol_name("_motorParams")
    8321                      .dwattr $C$DW$712, DW_AT_data_member_location[DW_OP_plus_uconst 0x84]
    8322                      .dwattr $C$DW$712, DW_AT_accessibility(DW_ACCESS_public)
    8323              
    8324              $C$DW$713       .dwtag  DW_TAG_member
    8325                      .dwattr $C$DW$713, DW_AT_type(*$C$DW$T$68)
    8326                      .dwattr $C$DW$713, DW_AT_name("waitTimes")
    8327                      .dwattr $C$DW$713, DW_AT_TI_symbol_name("_waitTimes")
    8328                      .dwattr $C$DW$713, DW_AT_data_member_location[DW_OP_plus_uconst 0x92]
    8329                      .dwattr $C$DW$713, DW_AT_accessibility(DW_ACCESS_public)
    8330              
    8331              $C$DW$714       .dwtag  DW_TAG_member
    8332                      .dwattr $C$DW$714, DW_AT_type(*$C$DW$T$67)
    8333                      .dwattr $C$DW$714, DW_AT_name("counter_state")
    8334                      .dwattr $C$DW$714, DW_AT_TI_symbol_name("_counter_state")
    8335                      .dwattr $C$DW$714, DW_AT_data_member_location[DW_OP_plus_uconst 0x9a]
    8336                      .dwattr $C$DW$714, DW_AT_accessibility(DW_ACCESS_public)
TMS320C2000 Assembler PC v15.12.3 Wed Nov 22 00:56:17 2017

Tools Copyright (c) 1996-2015 Texas Instruments Incorporated
C:\Users\wmj\AppData\Local\Temp\0070810                              PAGE  159

    8337              
    8338              $C$DW$715       .dwtag  DW_TAG_member
    8339                      .dwattr $C$DW$715, DW_AT_type(*$C$DW$T$69)
    8340                      .dwattr $C$DW$715, DW_AT_name("numIsrTicksPerCtrlTick")
    8341                      .dwattr $C$DW$715, DW_AT_TI_symbol_name("_numIsrTicksPerCtrlTick")
    8342                      .dwattr $C$DW$715, DW_AT_data_member_location[DW_OP_plus_uconst 0x9c]
    8343                      .dwattr $C$DW$715, DW_AT_accessibility(DW_ACCESS_public)
    8344              
    8345              $C$DW$716       .dwtag  DW_TAG_member
    8346                      .dwattr $C$DW$716, DW_AT_type(*$C$DW$T$69)
    8347                      .dwattr $C$DW$716, DW_AT_name("numCtrlTicksPerCurrentTick")
    8348                      .dwattr $C$DW$716, DW_AT_TI_symbol_name("_numCtrlTicksPerCurrentTick")
    8349                      .dwattr $C$DW$716, DW_AT_data_member_location[DW_OP_plus_uconst 0x9d]
    8350                      .dwattr $C$DW$716, DW_AT_accessibility(DW_ACCESS_public)
    8351              
    8352              $C$DW$717       .dwtag  DW_TAG_member
    8353                      .dwattr $C$DW$717, DW_AT_type(*$C$DW$T$69)
    8354                      .dwattr $C$DW$717, DW_AT_name("numCtrlTicksPerSpeedTick")
    8355                      .dwattr $C$DW$717, DW_AT_TI_symbol_name("_numCtrlTicksPerSpeedTick")
    8356                      .dwattr $C$DW$717, DW_AT_data_member_location[DW_OP_plus_uconst 0x9e]
    8357                      .dwattr $C$DW$717, DW_AT_accessibility(DW_ACCESS_public)
    8358              
    8359              $C$DW$718       .dwtag  DW_TAG_member
    8360                      .dwattr $C$DW$718, DW_AT_type(*$C$DW$T$69)
    8361                      .dwattr $C$DW$718, DW_AT_name("numCtrlTicksPerTrajTick")
    8362                      .dwattr $C$DW$718, DW_AT_TI_symbol_name("_numCtrlTicksPerTrajTick")
    8363                      .dwattr $C$DW$718, DW_AT_data_member_location[DW_OP_plus_uconst 0x9f]
    8364                      .dwattr $C$DW$718, DW_AT_accessibility(DW_ACCESS_public)
    8365              
    8366              $C$DW$719       .dwtag  DW_TAG_member
    8367                      .dwattr $C$DW$719, DW_AT_type(*$C$DW$T$67)
    8368                      .dwattr $C$DW$719, DW_AT_name("ctrlFreq_Hz")
    8369                      .dwattr $C$DW$719, DW_AT_TI_symbol_name("_ctrlFreq_Hz")
    8370                      .dwattr $C$DW$719, DW_AT_data_member_location[DW_OP_plus_uconst 0xa0]
    8371                      .dwattr $C$DW$719, DW_AT_accessibility(DW_ACCESS_public)
    8372              
    8373              $C$DW$720       .dwtag  DW_TAG_member
    8374                      .dwattr $C$DW$720, DW_AT_type(*$C$DW$T$67)
    8375                      .dwattr $C$DW$720, DW_AT_name("trajFreq_Hz")
    8376                      .dwattr $C$DW$720, DW_AT_TI_symbol_name("_trajFreq_Hz")
    8377                      .dwattr $C$DW$720, DW_AT_data_member_location[DW_OP_plus_uconst 0xa2]
    8378                      .dwattr $C$DW$720, DW_AT_accessibility(DW_ACCESS_public)
    8379              
    8380              $C$DW$721       .dwtag  DW_TAG_member
    8381                      .dwattr $C$DW$721, DW_AT_type(*$C$DW$T$31)
    8382                      .dwattr $C$DW$721, DW_AT_name("trajPeriod_sec")
    8383                      .dwattr $C$DW$721, DW_AT_TI_symbol_name("_trajPeriod_sec")
    8384                      .dwattr $C$DW$721, DW_AT_data_member_location[DW_OP_plus_uconst 0xa4]
    8385                      .dwattr $C$DW$721, DW_AT_accessibility(DW_ACCESS_public)
    8386              
    8387              $C$DW$722       .dwtag  DW_TAG_member
    8388                      .dwattr $C$DW$722, DW_AT_type(*$C$DW$T$70)
    8389                      .dwattr $C$DW$722, DW_AT_name("ctrlPeriod_sec")
    8390                      .dwattr $C$DW$722, DW_AT_TI_symbol_name("_ctrlPeriod_sec")
    8391                      .dwattr $C$DW$722, DW_AT_data_member_location[DW_OP_plus_uconst 0xa6]
TMS320C2000 Assembler PC v15.12.3 Wed Nov 22 00:56:17 2017

Tools Copyright (c) 1996-2015 Texas Instruments Incorporated
C:\Users\wmj\AppData\Local\Temp\0070810                              PAGE  160

    8392                      .dwattr $C$DW$722, DW_AT_accessibility(DW_ACCESS_public)
    8393              
    8394              $C$DW$723       .dwtag  DW_TAG_member
    8395                      .dwattr $C$DW$723, DW_AT_type(*$C$DW$T$31)
    8396                      .dwattr $C$DW$723, DW_AT_name("maxVsMag_pu")
    8397                      .dwattr $C$DW$723, DW_AT_TI_symbol_name("_maxVsMag_pu")
    8398                      .dwattr $C$DW$723, DW_AT_data_member_location[DW_OP_plus_uconst 0xa8]
    8399                      .dwattr $C$DW$723, DW_AT_accessibility(DW_ACCESS_public)
    8400              
    8401              $C$DW$724       .dwtag  DW_TAG_member
    8402                      .dwattr $C$DW$724, DW_AT_type(*$C$DW$T$32)
    8403                      .dwattr $C$DW$724, DW_AT_name("Iab_in")
    8404                      .dwattr $C$DW$724, DW_AT_TI_symbol_name("_Iab_in")
    8405                      .dwattr $C$DW$724, DW_AT_data_member_location[DW_OP_plus_uconst 0xaa]
    8406                      .dwattr $C$DW$724, DW_AT_accessibility(DW_ACCESS_public)
    8407              
    8408              $C$DW$725       .dwtag  DW_TAG_member
    8409                      .dwattr $C$DW$725, DW_AT_type(*$C$DW$T$32)
    8410                      .dwattr $C$DW$725, DW_AT_name("Iab_filt")
    8411                      .dwattr $C$DW$725, DW_AT_TI_symbol_name("_Iab_filt")
    8412                      .dwattr $C$DW$725, DW_AT_data_member_location[DW_OP_plus_uconst 0xae]
    8413                      .dwattr $C$DW$725, DW_AT_accessibility(DW_ACCESS_public)
    8414              
    8415              $C$DW$726       .dwtag  DW_TAG_member
    8416                      .dwattr $C$DW$726, DW_AT_type(*$C$DW$T$32)
    8417                      .dwattr $C$DW$726, DW_AT_name("Idq_in")
    8418                      .dwattr $C$DW$726, DW_AT_TI_symbol_name("_Idq_in")
    8419                      .dwattr $C$DW$726, DW_AT_data_member_location[DW_OP_plus_uconst 0xb2]
    8420                      .dwattr $C$DW$726, DW_AT_accessibility(DW_ACCESS_public)
    8421              
    8422              $C$DW$727       .dwtag  DW_TAG_member
    8423                      .dwattr $C$DW$727, DW_AT_type(*$C$DW$T$32)
    8424                      .dwattr $C$DW$727, DW_AT_name("Vab_in")
    8425                      .dwattr $C$DW$727, DW_AT_TI_symbol_name("_Vab_in")
    8426                      .dwattr $C$DW$727, DW_AT_data_member_location[DW_OP_plus_uconst 0xb6]
    8427                      .dwattr $C$DW$727, DW_AT_accessibility(DW_ACCESS_public)
    8428              
    8429              $C$DW$728       .dwtag  DW_TAG_member
    8430                      .dwattr $C$DW$728, DW_AT_type(*$C$DW$T$31)
    8431                      .dwattr $C$DW$728, DW_AT_name("spd_out")
    8432                      .dwattr $C$DW$728, DW_AT_TI_symbol_name("_spd_out")
    8433                      .dwattr $C$DW$728, DW_AT_data_member_location[DW_OP_plus_uconst 0xba]
    8434                      .dwattr $C$DW$728, DW_AT_accessibility(DW_ACCESS_public)
    8435              
    8436              $C$DW$729       .dwtag  DW_TAG_member
    8437                      .dwattr $C$DW$729, DW_AT_type(*$C$DW$T$32)
    8438                      .dwattr $C$DW$729, DW_AT_name("Vab_out")
    8439                      .dwattr $C$DW$729, DW_AT_TI_symbol_name("_Vab_out")
    8440                      .dwattr $C$DW$729, DW_AT_data_member_location[DW_OP_plus_uconst 0xbc]
    8441                      .dwattr $C$DW$729, DW_AT_accessibility(DW_ACCESS_public)
    8442              
    8443              $C$DW$730       .dwtag  DW_TAG_member
    8444                      .dwattr $C$DW$730, DW_AT_type(*$C$DW$T$32)
    8445                      .dwattr $C$DW$730, DW_AT_name("Vdq_out")
    8446                      .dwattr $C$DW$730, DW_AT_TI_symbol_name("_Vdq_out")
TMS320C2000 Assembler PC v15.12.3 Wed Nov 22 00:56:17 2017

Tools Copyright (c) 1996-2015 Texas Instruments Incorporated
C:\Users\wmj\AppData\Local\Temp\0070810                              PAGE  161

    8447                      .dwattr $C$DW$730, DW_AT_data_member_location[DW_OP_plus_uconst 0xc0]
    8448                      .dwattr $C$DW$730, DW_AT_accessibility(DW_ACCESS_public)
    8449              
    8450              $C$DW$731       .dwtag  DW_TAG_member
    8451                      .dwattr $C$DW$731, DW_AT_type(*$C$DW$T$70)
    8452                      .dwattr $C$DW$731, DW_AT_name("Rhf")
    8453                      .dwattr $C$DW$731, DW_AT_TI_symbol_name("_Rhf")
    8454                      .dwattr $C$DW$731, DW_AT_data_member_location[DW_OP_plus_uconst 0xc4]
    8455                      .dwattr $C$DW$731, DW_AT_accessibility(DW_ACCESS_public)
    8456              
    8457              $C$DW$732       .dwtag  DW_TAG_member
    8458                      .dwattr $C$DW$732, DW_AT_type(*$C$DW$T$70)
    8459                      .dwattr $C$DW$732, DW_AT_name("Lhf")
    8460                      .dwattr $C$DW$732, DW_AT_TI_symbol_name("_Lhf")
    8461                      .dwattr $C$DW$732, DW_AT_data_member_location[DW_OP_plus_uconst 0xc6]
    8462                      .dwattr $C$DW$732, DW_AT_accessibility(DW_ACCESS_public)
    8463              
    8464              $C$DW$733       .dwtag  DW_TAG_member
    8465                      .dwattr $C$DW$733, DW_AT_type(*$C$DW$T$70)
    8466                      .dwattr $C$DW$733, DW_AT_name("RoverL")
    8467                      .dwattr $C$DW$733, DW_AT_TI_symbol_name("_RoverL")
    8468                      .dwattr $C$DW$733, DW_AT_data_member_location[DW_OP_plus_uconst 0xc8]
    8469                      .dwattr $C$DW$733, DW_AT_accessibility(DW_ACCESS_public)
    8470              
    8471              $C$DW$734       .dwtag  DW_TAG_member
    8472                      .dwattr $C$DW$734, DW_AT_type(*$C$DW$T$31)
    8473                      .dwattr $C$DW$734, DW_AT_name("Kp_Id")
    8474                      .dwattr $C$DW$734, DW_AT_TI_symbol_name("_Kp_Id")
    8475                      .dwattr $C$DW$734, DW_AT_data_member_location[DW_OP_plus_uconst 0xca]
    8476                      .dwattr $C$DW$734, DW_AT_accessibility(DW_ACCESS_public)
    8477              
    8478              $C$DW$735       .dwtag  DW_TAG_member
    8479                      .dwattr $C$DW$735, DW_AT_type(*$C$DW$T$31)
    8480                      .dwattr $C$DW$735, DW_AT_name("Kp_Iq")
    8481                      .dwattr $C$DW$735, DW_AT_TI_symbol_name("_Kp_Iq")
    8482                      .dwattr $C$DW$735, DW_AT_data_member_location[DW_OP_plus_uconst 0xcc]
    8483                      .dwattr $C$DW$735, DW_AT_accessibility(DW_ACCESS_public)
    8484              
    8485              $C$DW$736       .dwtag  DW_TAG_member
    8486                      .dwattr $C$DW$736, DW_AT_type(*$C$DW$T$31)
    8487                      .dwattr $C$DW$736, DW_AT_name("Kp_spd")
    8488                      .dwattr $C$DW$736, DW_AT_TI_symbol_name("_Kp_spd")
    8489                      .dwattr $C$DW$736, DW_AT_data_member_location[DW_OP_plus_uconst 0xce]
    8490                      .dwattr $C$DW$736, DW_AT_accessibility(DW_ACCESS_public)
    8491              
    8492              $C$DW$737       .dwtag  DW_TAG_member
    8493                      .dwattr $C$DW$737, DW_AT_type(*$C$DW$T$31)
    8494                      .dwattr $C$DW$737, DW_AT_name("Ki_Id")
    8495                      .dwattr $C$DW$737, DW_AT_TI_symbol_name("_Ki_Id")
    8496                      .dwattr $C$DW$737, DW_AT_data_member_location[DW_OP_plus_uconst 0xd0]
    8497                      .dwattr $C$DW$737, DW_AT_accessibility(DW_ACCESS_public)
    8498              
    8499              $C$DW$738       .dwtag  DW_TAG_member
    8500                      .dwattr $C$DW$738, DW_AT_type(*$C$DW$T$31)
    8501                      .dwattr $C$DW$738, DW_AT_name("Ki_Iq")
TMS320C2000 Assembler PC v15.12.3 Wed Nov 22 00:56:17 2017

Tools Copyright (c) 1996-2015 Texas Instruments Incorporated
C:\Users\wmj\AppData\Local\Temp\0070810                              PAGE  162

    8502                      .dwattr $C$DW$738, DW_AT_TI_symbol_name("_Ki_Iq")
    8503                      .dwattr $C$DW$738, DW_AT_data_member_location[DW_OP_plus_uconst 0xd2]
    8504                      .dwattr $C$DW$738, DW_AT_accessibility(DW_ACCESS_public)
    8505              
    8506              $C$DW$739       .dwtag  DW_TAG_member
    8507                      .dwattr $C$DW$739, DW_AT_type(*$C$DW$T$31)
    8508                      .dwattr $C$DW$739, DW_AT_name("Ki_spd")
    8509                      .dwattr $C$DW$739, DW_AT_TI_symbol_name("_Ki_spd")
    8510                      .dwattr $C$DW$739, DW_AT_data_member_location[DW_OP_plus_uconst 0xd4]
    8511                      .dwattr $C$DW$739, DW_AT_accessibility(DW_ACCESS_public)
    8512              
    8513              $C$DW$740       .dwtag  DW_TAG_member
    8514                      .dwattr $C$DW$740, DW_AT_type(*$C$DW$T$31)
    8515                      .dwattr $C$DW$740, DW_AT_name("Kd_Id")
    8516                      .dwattr $C$DW$740, DW_AT_TI_symbol_name("_Kd_Id")
    8517                      .dwattr $C$DW$740, DW_AT_data_member_location[DW_OP_plus_uconst 0xd6]
    8518                      .dwattr $C$DW$740, DW_AT_accessibility(DW_ACCESS_public)
    8519              
    8520              $C$DW$741       .dwtag  DW_TAG_member
    8521                      .dwattr $C$DW$741, DW_AT_type(*$C$DW$T$31)
    8522                      .dwattr $C$DW$741, DW_AT_name("Kd_Iq")
    8523                      .dwattr $C$DW$741, DW_AT_TI_symbol_name("_Kd_Iq")
    8524                      .dwattr $C$DW$741, DW_AT_data_member_location[DW_OP_plus_uconst 0xd8]
    8525                      .dwattr $C$DW$741, DW_AT_accessibility(DW_ACCESS_public)
    8526              
    8527              $C$DW$742       .dwtag  DW_TAG_member
    8528                      .dwattr $C$DW$742, DW_AT_type(*$C$DW$T$31)
    8529                      .dwattr $C$DW$742, DW_AT_name("Kd_spd")
    8530                      .dwattr $C$DW$742, DW_AT_TI_symbol_name("_Kd_spd")
    8531                      .dwattr $C$DW$742, DW_AT_data_member_location[DW_OP_plus_uconst 0xda]
    8532                      .dwattr $C$DW$742, DW_AT_accessibility(DW_ACCESS_public)
    8533              
    8534              $C$DW$743       .dwtag  DW_TAG_member
    8535                      .dwattr $C$DW$743, DW_AT_type(*$C$DW$T$31)
    8536                      .dwattr $C$DW$743, DW_AT_name("Ui_Id")
    8537                      .dwattr $C$DW$743, DW_AT_TI_symbol_name("_Ui_Id")
    8538                      .dwattr $C$DW$743, DW_AT_data_member_location[DW_OP_plus_uconst 0xdc]
    8539                      .dwattr $C$DW$743, DW_AT_accessibility(DW_ACCESS_public)
    8540              
    8541              $C$DW$744       .dwtag  DW_TAG_member
    8542                      .dwattr $C$DW$744, DW_AT_type(*$C$DW$T$31)
    8543                      .dwattr $C$DW$744, DW_AT_name("Ui_Iq")
    8544                      .dwattr $C$DW$744, DW_AT_TI_symbol_name("_Ui_Iq")
    8545                      .dwattr $C$DW$744, DW_AT_data_member_location[DW_OP_plus_uconst 0xde]
    8546                      .dwattr $C$DW$744, DW_AT_accessibility(DW_ACCESS_public)
    8547              
    8548              $C$DW$745       .dwtag  DW_TAG_member
    8549                      .dwattr $C$DW$745, DW_AT_type(*$C$DW$T$31)
    8550                      .dwattr $C$DW$745, DW_AT_name("Ui_spd")
    8551                      .dwattr $C$DW$745, DW_AT_TI_symbol_name("_Ui_spd")
    8552                      .dwattr $C$DW$745, DW_AT_data_member_location[DW_OP_plus_uconst 0xe0]
    8553                      .dwattr $C$DW$745, DW_AT_accessibility(DW_ACCESS_public)
    8554              
    8555              $C$DW$746       .dwtag  DW_TAG_member
    8556                      .dwattr $C$DW$746, DW_AT_type(*$C$DW$T$32)
TMS320C2000 Assembler PC v15.12.3 Wed Nov 22 00:56:17 2017

Tools Copyright (c) 1996-2015 Texas Instruments Incorporated
C:\Users\wmj\AppData\Local\Temp\0070810                              PAGE  163

    8557                      .dwattr $C$DW$746, DW_AT_name("Idq_ref")
    8558                      .dwattr $C$DW$746, DW_AT_TI_symbol_name("_Idq_ref")
    8559                      .dwattr $C$DW$746, DW_AT_data_member_location[DW_OP_plus_uconst 0xe2]
    8560                      .dwattr $C$DW$746, DW_AT_accessibility(DW_ACCESS_public)
    8561              
    8562              $C$DW$747       .dwtag  DW_TAG_member
    8563                      .dwattr $C$DW$747, DW_AT_type(*$C$DW$T$31)
    8564                      .dwattr $C$DW$747, DW_AT_name("IdRated")
    8565                      .dwattr $C$DW$747, DW_AT_TI_symbol_name("_IdRated")
    8566                      .dwattr $C$DW$747, DW_AT_data_member_location[DW_OP_plus_uconst 0xe6]
    8567                      .dwattr $C$DW$747, DW_AT_accessibility(DW_ACCESS_public)
    8568              
    8569              $C$DW$748       .dwtag  DW_TAG_member
    8570                      .dwattr $C$DW$748, DW_AT_type(*$C$DW$T$31)
    8571                      .dwattr $C$DW$748, DW_AT_name("spd_ref")
    8572                      .dwattr $C$DW$748, DW_AT_TI_symbol_name("_spd_ref")
    8573                      .dwattr $C$DW$748, DW_AT_data_member_location[DW_OP_plus_uconst 0xe8]
    8574                      .dwattr $C$DW$748, DW_AT_accessibility(DW_ACCESS_public)
    8575              
    8576              $C$DW$749       .dwtag  DW_TAG_member
    8577                      .dwattr $C$DW$749, DW_AT_type(*$C$DW$T$31)
    8578                      .dwattr $C$DW$749, DW_AT_name("spd_max")
    8579                      .dwattr $C$DW$749, DW_AT_TI_symbol_name("_spd_max")
    8580                      .dwattr $C$DW$749, DW_AT_data_member_location[DW_OP_plus_uconst 0xea]
    8581                      .dwattr $C$DW$749, DW_AT_accessibility(DW_ACCESS_public)
    8582              
    8583              $C$DW$750       .dwtag  DW_TAG_member
    8584                      .dwattr $C$DW$750, DW_AT_type(*$C$DW$T$69)
    8585                      .dwattr $C$DW$750, DW_AT_name("counter_current")
    8586                      .dwattr $C$DW$750, DW_AT_TI_symbol_name("_counter_current")
    8587                      .dwattr $C$DW$750, DW_AT_data_member_location[DW_OP_plus_uconst 0xec]
    8588                      .dwattr $C$DW$750, DW_AT_accessibility(DW_ACCESS_public)
    8589              
    8590              $C$DW$751       .dwtag  DW_TAG_member
    8591                      .dwattr $C$DW$751, DW_AT_type(*$C$DW$T$69)
    8592                      .dwattr $C$DW$751, DW_AT_name("counter_isr")
    8593                      .dwattr $C$DW$751, DW_AT_TI_symbol_name("_counter_isr")
    8594                      .dwattr $C$DW$751, DW_AT_data_member_location[DW_OP_plus_uconst 0xed]
    8595                      .dwattr $C$DW$751, DW_AT_accessibility(DW_ACCESS_public)
    8596              
    8597              $C$DW$752       .dwtag  DW_TAG_member
    8598                      .dwattr $C$DW$752, DW_AT_type(*$C$DW$T$69)
    8599                      .dwattr $C$DW$752, DW_AT_name("counter_speed")
    8600                      .dwattr $C$DW$752, DW_AT_TI_symbol_name("_counter_speed")
    8601                      .dwattr $C$DW$752, DW_AT_data_member_location[DW_OP_plus_uconst 0xee]
    8602                      .dwattr $C$DW$752, DW_AT_accessibility(DW_ACCESS_public)
    8603              
    8604              $C$DW$753       .dwtag  DW_TAG_member
    8605                      .dwattr $C$DW$753, DW_AT_type(*$C$DW$T$69)
    8606                      .dwattr $C$DW$753, DW_AT_name("counter_traj")
    8607                      .dwattr $C$DW$753, DW_AT_TI_symbol_name("_counter_traj")
    8608                      .dwattr $C$DW$753, DW_AT_data_member_location[DW_OP_plus_uconst 0xef]
    8609                      .dwattr $C$DW$753, DW_AT_accessibility(DW_ACCESS_public)
    8610              
    8611              $C$DW$754       .dwtag  DW_TAG_member
TMS320C2000 Assembler PC v15.12.3 Wed Nov 22 00:56:17 2017

Tools Copyright (c) 1996-2015 Texas Instruments Incorporated
C:\Users\wmj\AppData\Local\Temp\0070810                              PAGE  164

    8612                      .dwattr $C$DW$754, DW_AT_type(*$C$DW$T$33)
    8613                      .dwattr $C$DW$754, DW_AT_name("flag_enableCtrl")
    8614                      .dwattr $C$DW$754, DW_AT_TI_symbol_name("_flag_enableCtrl")
    8615                      .dwattr $C$DW$754, DW_AT_data_member_location[DW_OP_plus_uconst 0xf0]
    8616                      .dwattr $C$DW$754, DW_AT_accessibility(DW_ACCESS_public)
    8617              
    8618              $C$DW$755       .dwtag  DW_TAG_member
    8619                      .dwattr $C$DW$755, DW_AT_type(*$C$DW$T$33)
    8620                      .dwattr $C$DW$755, DW_AT_name("flag_enableDcBusComp")
    8621                      .dwattr $C$DW$755, DW_AT_TI_symbol_name("_flag_enableDcBusComp")
    8622                      .dwattr $C$DW$755, DW_AT_data_member_location[DW_OP_plus_uconst 0xf1]
    8623                      .dwattr $C$DW$755, DW_AT_accessibility(DW_ACCESS_public)
    8624              
    8625              $C$DW$756       .dwtag  DW_TAG_member
    8626                      .dwattr $C$DW$756, DW_AT_type(*$C$DW$T$33)
    8627                      .dwattr $C$DW$756, DW_AT_name("flag_enablePowerWarp")
    8628                      .dwattr $C$DW$756, DW_AT_TI_symbol_name("_flag_enablePowerWarp")
    8629                      .dwattr $C$DW$756, DW_AT_data_member_location[DW_OP_plus_uconst 0xf2]
    8630                      .dwattr $C$DW$756, DW_AT_accessibility(DW_ACCESS_public)
    8631              
    8632              $C$DW$757       .dwtag  DW_TAG_member
    8633                      .dwattr $C$DW$757, DW_AT_type(*$C$DW$T$33)
    8634                      .dwattr $C$DW$757, DW_AT_name("flag_enableOffset")
    8635                      .dwattr $C$DW$757, DW_AT_TI_symbol_name("_flag_enableOffset")
    8636                      .dwattr $C$DW$757, DW_AT_data_member_location[DW_OP_plus_uconst 0xf3]
    8637                      .dwattr $C$DW$757, DW_AT_accessibility(DW_ACCESS_public)
    8638              
    8639              $C$DW$758       .dwtag  DW_TAG_member
    8640                      .dwattr $C$DW$758, DW_AT_type(*$C$DW$T$33)
    8641                      .dwattr $C$DW$758, DW_AT_name("flag_enableSpeedCtrl")
    8642                      .dwattr $C$DW$758, DW_AT_TI_symbol_name("_flag_enableSpeedCtrl")
    8643                      .dwattr $C$DW$758, DW_AT_data_member_location[DW_OP_plus_uconst 0xf4]
    8644                      .dwattr $C$DW$758, DW_AT_accessibility(DW_ACCESS_public)
    8645              
    8646              $C$DW$759       .dwtag  DW_TAG_member
    8647                      .dwattr $C$DW$759, DW_AT_type(*$C$DW$T$33)
    8648                      .dwattr $C$DW$759, DW_AT_name("flag_enableUserMotorParams")
    8649                      .dwattr $C$DW$759, DW_AT_TI_symbol_name("_flag_enableUserMotorParams")
    8650                      .dwattr $C$DW$759, DW_AT_data_member_location[DW_OP_plus_uconst 0xf5]
    8651                      .dwattr $C$DW$759, DW_AT_accessibility(DW_ACCESS_public)
    8652              
    8653              $C$DW$760       .dwtag  DW_TAG_member
    8654                      .dwattr $C$DW$760, DW_AT_type(*$C$DW$T$33)
    8655                      .dwattr $C$DW$760, DW_AT_name("flag_enableCurrentCtrl")
    8656                      .dwattr $C$DW$760, DW_AT_TI_symbol_name("_flag_enableCurrentCtrl")
    8657                      .dwattr $C$DW$760, DW_AT_data_member_location[DW_OP_plus_uconst 0xf6]
    8658                      .dwattr $C$DW$760, DW_AT_accessibility(DW_ACCESS_public)
    8659              
    8660              $C$DW$761       .dwtag  DW_TAG_member
    8661                      .dwattr $C$DW$761, DW_AT_type(*$C$DW$T$31)
    8662                      .dwattr $C$DW$761, DW_AT_name("spd_outMaxRatio_pu")
    8663                      .dwattr $C$DW$761, DW_AT_TI_symbol_name("_spd_outMaxRatio_pu")
    8664                      .dwattr $C$DW$761, DW_AT_data_member_location[DW_OP_plus_uconst 0xf8]
    8665                      .dwattr $C$DW$761, DW_AT_accessibility(DW_ACCESS_public)
    8666              
TMS320C2000 Assembler PC v15.12.3 Wed Nov 22 00:56:17 2017

Tools Copyright (c) 1996-2015 Texas Instruments Incorporated
C:\Users\wmj\AppData\Local\Temp\0070810                              PAGE  165

    8667              $C$DW$762       .dwtag  DW_TAG_member
    8668                      .dwattr $C$DW$762, DW_AT_type(*$C$DW$T$31)
    8669                      .dwattr $C$DW$762, DW_AT_name("enc_Angle")
    8670                      .dwattr $C$DW$762, DW_AT_TI_symbol_name("_enc_Angle")
    8671                      .dwattr $C$DW$762, DW_AT_data_member_location[DW_OP_plus_uconst 0xfa]
    8672                      .dwattr $C$DW$762, DW_AT_accessibility(DW_ACCESS_public)
    8673              
    8674              $C$DW$763       .dwtag  DW_TAG_member
    8675                      .dwattr $C$DW$763, DW_AT_type(*$C$DW$T$33)
    8676                      .dwattr $C$DW$763, DW_AT_name("flag_enableEncAngle")
    8677                      .dwattr $C$DW$763, DW_AT_TI_symbol_name("_flag_enableEncAngle")
    8678                      .dwattr $C$DW$763, DW_AT_data_member_location[DW_OP_plus_uconst 0xfc]
    8679                      .dwattr $C$DW$763, DW_AT_accessibility(DW_ACCESS_public)
    8680              
    8681              $C$DW$764       .dwtag  DW_TAG_member
    8682                      .dwattr $C$DW$764, DW_AT_type(*$C$DW$T$72)
    8683                      .dwattr $C$DW$764, DW_AT_name("brakeHandle")
    8684                      .dwattr $C$DW$764, DW_AT_TI_symbol_name("_brakeHandle")
    8685                      .dwattr $C$DW$764, DW_AT_data_member_location[DW_OP_plus_uconst 0xfe]
    8686                      .dwattr $C$DW$764, DW_AT_accessibility(DW_ACCESS_public)
    8687              
    8688              $C$DW$765       .dwtag  DW_TAG_member
    8689                      .dwattr $C$DW$765, DW_AT_type(*$C$DW$T$73)
    8690                      .dwattr $C$DW$765, DW_AT_name("brake")
    8691                      .dwattr $C$DW$765, DW_AT_TI_symbol_name("_brake")
    8692                      .dwattr $C$DW$765, DW_AT_data_member_location[DW_OP_plus_uconst 0x100]
    8693                      .dwattr $C$DW$765, DW_AT_accessibility(DW_ACCESS_public)
    8694              
    8695                      .dwendtag $C$DW$T$74
    8696              
    8697              $C$DW$T$188     .dwtag  DW_TAG_typedef
    8698                      .dwattr $C$DW$T$188, DW_AT_name("CTRL_Obj")
    8699                      .dwattr $C$DW$T$188, DW_AT_type(*$C$DW$T$74)
    8700                      .dwattr $C$DW$T$188, DW_AT_language(DW_LANG_C)
    8701              
    8702              $C$DW$T$169     .dwtag  DW_TAG_pointer_type
    8703                      .dwattr $C$DW$T$169, DW_AT_type(*$C$DW$T$74)
    8704                      .dwattr $C$DW$T$169, DW_AT_address_class(0x20)
    8705              
    8706              $C$DW$T$170     .dwtag  DW_TAG_typedef
    8707                      .dwattr $C$DW$T$170, DW_AT_name("CTRL_Handle")
    8708                      .dwattr $C$DW$T$170, DW_AT_type(*$C$DW$T$169)
    8709                      .dwattr $C$DW$T$170, DW_AT_language(DW_LANG_C)
    8710              
    8711              $C$DW$766       .dwtag  DW_TAG_TI_far_type
    8712                      .dwattr $C$DW$766, DW_AT_type(*$C$DW$T$170)
    8713              
    8714              $C$DW$T$189     .dwtag  DW_TAG_const_type
    8715                      .dwattr $C$DW$T$189, DW_AT_type(*$C$DW$766)
    8716              
    8717              
    8718              $C$DW$T$77      .dwtag  DW_TAG_structure_type
    8719                      .dwattr $C$DW$T$77, DW_AT_name("_CTRL_Version_")
    8720                      .dwattr $C$DW$T$77, DW_AT_byte_size(0x04)
    8721              $C$DW$767       .dwtag  DW_TAG_member
TMS320C2000 Assembler PC v15.12.3 Wed Nov 22 00:56:17 2017

Tools Copyright (c) 1996-2015 Texas Instruments Incorporated
C:\Users\wmj\AppData\Local\Temp\0070810                              PAGE  166

    8722                      .dwattr $C$DW$767, DW_AT_type(*$C$DW$T$22)
    8723                      .dwattr $C$DW$767, DW_AT_name("rsvd")
    8724                      .dwattr $C$DW$767, DW_AT_TI_symbol_name("_rsvd")
    8725                      .dwattr $C$DW$767, DW_AT_data_member_location[DW_OP_plus_uconst 0x0]
    8726                      .dwattr $C$DW$767, DW_AT_accessibility(DW_ACCESS_public)
    8727              
    8728              $C$DW$768       .dwtag  DW_TAG_member
    8729                      .dwattr $C$DW$768, DW_AT_type(*$C$DW$T$76)
    8730                      .dwattr $C$DW$768, DW_AT_name("targetProc")
    8731                      .dwattr $C$DW$768, DW_AT_TI_symbol_name("_targetProc")
    8732                      .dwattr $C$DW$768, DW_AT_data_member_location[DW_OP_plus_uconst 0x1]
    8733                      .dwattr $C$DW$768, DW_AT_accessibility(DW_ACCESS_public)
    8734              
    8735              $C$DW$769       .dwtag  DW_TAG_member
    8736                      .dwattr $C$DW$769, DW_AT_type(*$C$DW$T$22)
    8737                      .dwattr $C$DW$769, DW_AT_name("major")
    8738                      .dwattr $C$DW$769, DW_AT_TI_symbol_name("_major")
    8739                      .dwattr $C$DW$769, DW_AT_data_member_location[DW_OP_plus_uconst 0x2]
    8740                      .dwattr $C$DW$769, DW_AT_accessibility(DW_ACCESS_public)
    8741              
    8742              $C$DW$770       .dwtag  DW_TAG_member
    8743                      .dwattr $C$DW$770, DW_AT_type(*$C$DW$T$22)
    8744                      .dwattr $C$DW$770, DW_AT_name("minor")
    8745                      .dwattr $C$DW$770, DW_AT_TI_symbol_name("_minor")
    8746                      .dwattr $C$DW$770, DW_AT_data_member_location[DW_OP_plus_uconst 0x3]
    8747                      .dwattr $C$DW$770, DW_AT_accessibility(DW_ACCESS_public)
    8748              
    8749                      .dwendtag $C$DW$T$77
    8750              
    8751              $C$DW$T$40      .dwtag  DW_TAG_typedef
    8752                      .dwattr $C$DW$T$40, DW_AT_name("CTRL_Version")
    8753                      .dwattr $C$DW$T$40, DW_AT_type(*$C$DW$T$77)
    8754                      .dwattr $C$DW$T$40, DW_AT_language(DW_LANG_C)
    8755              
    8756              
    8757              $C$DW$T$19      .dwtag  DW_TAG_structure_type
    8758                      .dwattr $C$DW$T$19, DW_AT_name("_EST_Obj_")
    8759                      .dwattr $C$DW$T$19, DW_AT_declaration
    8760                      .dwendtag $C$DW$T$19
    8761              
    8762              $C$DW$T$48      .dwtag  DW_TAG_pointer_type
    8763                      .dwattr $C$DW$T$48, DW_AT_type(*$C$DW$T$19)
    8764                      .dwattr $C$DW$T$48, DW_AT_address_class(0x20)
    8765              
    8766              $C$DW$T$49      .dwtag  DW_TAG_typedef
    8767                      .dwattr $C$DW$T$49, DW_AT_name("EST_Handle")
    8768                      .dwattr $C$DW$T$49, DW_AT_type(*$C$DW$T$48)
    8769                      .dwattr $C$DW$T$49, DW_AT_language(DW_LANG_C)
    8770              
    8771              
    8772              $C$DW$T$78      .dwtag  DW_TAG_structure_type
    8773                      .dwattr $C$DW$T$78, DW_AT_name("_FILTER_FO_")
    8774                      .dwattr $C$DW$T$78, DW_AT_byte_size(0x0a)
    8775              $C$DW$771       .dwtag  DW_TAG_member
    8776                      .dwattr $C$DW$771, DW_AT_type(*$C$DW$T$31)
TMS320C2000 Assembler PC v15.12.3 Wed Nov 22 00:56:17 2017

Tools Copyright (c) 1996-2015 Texas Instruments Incorporated
C:\Users\wmj\AppData\Local\Temp\0070810                              PAGE  167

    8777                      .dwattr $C$DW$771, DW_AT_name("a1")
    8778                      .dwattr $C$DW$771, DW_AT_TI_symbol_name("_a1")
    8779                      .dwattr $C$DW$771, DW_AT_data_member_location[DW_OP_plus_uconst 0x0]
    8780                      .dwattr $C$DW$771, DW_AT_accessibility(DW_ACCESS_public)
    8781              
    8782              $C$DW$772       .dwtag  DW_TAG_member
    8783                      .dwattr $C$DW$772, DW_AT_type(*$C$DW$T$31)
    8784                      .dwattr $C$DW$772, DW_AT_name("b0")
    8785                      .dwattr $C$DW$772, DW_AT_TI_symbol_name("_b0")
    8786                      .dwattr $C$DW$772, DW_AT_data_member_location[DW_OP_plus_uconst 0x2]
    8787                      .dwattr $C$DW$772, DW_AT_accessibility(DW_ACCESS_public)
    8788              
    8789              $C$DW$773       .dwtag  DW_TAG_member
    8790                      .dwattr $C$DW$773, DW_AT_type(*$C$DW$T$31)
    8791                      .dwattr $C$DW$773, DW_AT_name("b1")
    8792                      .dwattr $C$DW$773, DW_AT_TI_symbol_name("_b1")
    8793                      .dwattr $C$DW$773, DW_AT_data_member_location[DW_OP_plus_uconst 0x4]
    8794                      .dwattr $C$DW$773, DW_AT_accessibility(DW_ACCESS_public)
    8795              
    8796              $C$DW$774       .dwtag  DW_TAG_member
    8797                      .dwattr $C$DW$774, DW_AT_type(*$C$DW$T$31)
    8798                      .dwattr $C$DW$774, DW_AT_name("x1")
    8799                      .dwattr $C$DW$774, DW_AT_TI_symbol_name("_x1")
    8800                      .dwattr $C$DW$774, DW_AT_data_member_location[DW_OP_plus_uconst 0x6]
    8801                      .dwattr $C$DW$774, DW_AT_accessibility(DW_ACCESS_public)
    8802              
    8803              $C$DW$775       .dwtag  DW_TAG_member
    8804                      .dwattr $C$DW$775, DW_AT_type(*$C$DW$T$31)
    8805                      .dwattr $C$DW$775, DW_AT_name("y1")
    8806                      .dwattr $C$DW$775, DW_AT_TI_symbol_name("_y1")
    8807                      .dwattr $C$DW$775, DW_AT_data_member_location[DW_OP_plus_uconst 0x8]
    8808                      .dwattr $C$DW$775, DW_AT_accessibility(DW_ACCESS_public)
    8809              
    8810                      .dwendtag $C$DW$T$78
    8811              
    8812              $C$DW$T$134     .dwtag  DW_TAG_typedef
    8813                      .dwattr $C$DW$T$134, DW_AT_name("FILTER_FO_Obj")
    8814                      .dwattr $C$DW$T$134, DW_AT_type(*$C$DW$T$78)
    8815                      .dwattr $C$DW$T$134, DW_AT_language(DW_LANG_C)
    8816              
    8817              $C$DW$T$191     .dwtag  DW_TAG_pointer_type
    8818                      .dwattr $C$DW$T$191, DW_AT_type(*$C$DW$T$134)
    8819                      .dwattr $C$DW$T$191, DW_AT_address_class(0x20)
    8820              
    8821              
    8822              $C$DW$T$20      .dwtag  DW_TAG_structure_type
    8823                      .dwattr $C$DW$T$20, DW_AT_name("_FILTER_FO_Obj_")
    8824                      .dwattr $C$DW$T$20, DW_AT_declaration
    8825                      .dwendtag $C$DW$T$20
    8826              
    8827              $C$DW$T$135     .dwtag  DW_TAG_pointer_type
    8828                      .dwattr $C$DW$T$135, DW_AT_type(*$C$DW$T$20)
    8829                      .dwattr $C$DW$T$135, DW_AT_address_class(0x20)
    8830              
    8831              $C$DW$T$136     .dwtag  DW_TAG_typedef
TMS320C2000 Assembler PC v15.12.3 Wed Nov 22 00:56:17 2017

Tools Copyright (c) 1996-2015 Texas Instruments Incorporated
C:\Users\wmj\AppData\Local\Temp\0070810                              PAGE  168

    8832                      .dwattr $C$DW$T$136, DW_AT_name("FILTER_FO_Handle")
    8833                      .dwattr $C$DW$T$136, DW_AT_type(*$C$DW$T$135)
    8834                      .dwattr $C$DW$T$136, DW_AT_language(DW_LANG_C)
    8835              
    8836              
    8837              $C$DW$T$79      .dwtag  DW_TAG_structure_type
    8838                      .dwattr $C$DW$T$79, DW_AT_name("_FLASH_Obj_")
    8839                      .dwattr $C$DW$T$79, DW_AT_byte_size(0x08)
    8840              $C$DW$776       .dwtag  DW_TAG_member
    8841                      .dwattr $C$DW$776, DW_AT_type(*$C$DW$T$23)
    8842                      .dwattr $C$DW$776, DW_AT_name("FOPT")
    8843                      .dwattr $C$DW$776, DW_AT_TI_symbol_name("_FOPT")
    8844                      .dwattr $C$DW$776, DW_AT_data_member_location[DW_OP_plus_uconst 0x0]
    8845                      .dwattr $C$DW$776, DW_AT_accessibility(DW_ACCESS_public)
    8846              
    8847              $C$DW$777       .dwtag  DW_TAG_member
    8848                      .dwattr $C$DW$777, DW_AT_type(*$C$DW$T$23)
    8849                      .dwattr $C$DW$777, DW_AT_name("rsvd_1")
    8850                      .dwattr $C$DW$777, DW_AT_TI_symbol_name("_rsvd_1")
    8851                      .dwattr $C$DW$777, DW_AT_data_member_location[DW_OP_plus_uconst 0x1]
    8852                      .dwattr $C$DW$777, DW_AT_accessibility(DW_ACCESS_public)
    8853              
    8854              $C$DW$778       .dwtag  DW_TAG_member
    8855                      .dwattr $C$DW$778, DW_AT_type(*$C$DW$T$23)
    8856                      .dwattr $C$DW$778, DW_AT_name("FPWR")
    8857                      .dwattr $C$DW$778, DW_AT_TI_symbol_name("_FPWR")
    8858                      .dwattr $C$DW$778, DW_AT_data_member_location[DW_OP_plus_uconst 0x2]
    8859                      .dwattr $C$DW$778, DW_AT_accessibility(DW_ACCESS_public)
    8860              
    8861              $C$DW$779       .dwtag  DW_TAG_member
    8862                      .dwattr $C$DW$779, DW_AT_type(*$C$DW$T$23)
    8863                      .dwattr $C$DW$779, DW_AT_name("FSTATUS")
    8864                      .dwattr $C$DW$779, DW_AT_TI_symbol_name("_FSTATUS")
    8865                      .dwattr $C$DW$779, DW_AT_data_member_location[DW_OP_plus_uconst 0x3]
    8866                      .dwattr $C$DW$779, DW_AT_accessibility(DW_ACCESS_public)
    8867              
    8868              $C$DW$780       .dwtag  DW_TAG_member
    8869                      .dwattr $C$DW$780, DW_AT_type(*$C$DW$T$23)
    8870                      .dwattr $C$DW$780, DW_AT_name("FSTDBYWAIT")
    8871                      .dwattr $C$DW$780, DW_AT_TI_symbol_name("_FSTDBYWAIT")
    8872                      .dwattr $C$DW$780, DW_AT_data_member_location[DW_OP_plus_uconst 0x4]
    8873                      .dwattr $C$DW$780, DW_AT_accessibility(DW_ACCESS_public)
    8874              
    8875              $C$DW$781       .dwtag  DW_TAG_member
    8876                      .dwattr $C$DW$781, DW_AT_type(*$C$DW$T$23)
    8877                      .dwattr $C$DW$781, DW_AT_name("FACTIVEWAIT")
    8878                      .dwattr $C$DW$781, DW_AT_TI_symbol_name("_FACTIVEWAIT")
    8879                      .dwattr $C$DW$781, DW_AT_data_member_location[DW_OP_plus_uconst 0x5]
    8880                      .dwattr $C$DW$781, DW_AT_accessibility(DW_ACCESS_public)
    8881              
    8882              $C$DW$782       .dwtag  DW_TAG_member
    8883                      .dwattr $C$DW$782, DW_AT_type(*$C$DW$T$23)
    8884                      .dwattr $C$DW$782, DW_AT_name("FBANKWAIT")
    8885                      .dwattr $C$DW$782, DW_AT_TI_symbol_name("_FBANKWAIT")
    8886                      .dwattr $C$DW$782, DW_AT_data_member_location[DW_OP_plus_uconst 0x6]
TMS320C2000 Assembler PC v15.12.3 Wed Nov 22 00:56:17 2017

Tools Copyright (c) 1996-2015 Texas Instruments Incorporated
C:\Users\wmj\AppData\Local\Temp\0070810                              PAGE  169

    8887                      .dwattr $C$DW$782, DW_AT_accessibility(DW_ACCESS_public)
    8888              
    8889              $C$DW$783       .dwtag  DW_TAG_member
    8890                      .dwattr $C$DW$783, DW_AT_type(*$C$DW$T$23)
    8891                      .dwattr $C$DW$783, DW_AT_name("FOTPWAIT")
    8892                      .dwattr $C$DW$783, DW_AT_TI_symbol_name("_FOTPWAIT")
    8893                      .dwattr $C$DW$783, DW_AT_data_member_location[DW_OP_plus_uconst 0x7]
    8894                      .dwattr $C$DW$783, DW_AT_accessibility(DW_ACCESS_public)
    8895              
    8896                      .dwendtag $C$DW$T$79
    8897              
    8898              $C$DW$T$92      .dwtag  DW_TAG_pointer_type
    8899                      .dwattr $C$DW$T$92, DW_AT_type(*$C$DW$T$79)
    8900                      .dwattr $C$DW$T$92, DW_AT_address_class(0x20)
    8901              
    8902              $C$DW$T$93      .dwtag  DW_TAG_typedef
    8903                      .dwattr $C$DW$T$93, DW_AT_name("FLASH_Handle")
    8904                      .dwattr $C$DW$T$93, DW_AT_type(*$C$DW$T$92)
    8905                      .dwattr $C$DW$T$93, DW_AT_language(DW_LANG_C)
    8906              
    8907              
    8908              $C$DW$T$83      .dwtag  DW_TAG_structure_type
    8909                      .dwattr $C$DW$T$83, DW_AT_name("_GPIO_Obj_")
    8910                      .dwattr $C$DW$T$83, DW_AT_byte_size(0x6a)
    8911              $C$DW$784       .dwtag  DW_TAG_member
    8912                      .dwattr $C$DW$784, DW_AT_type(*$C$DW$T$80)
    8913                      .dwattr $C$DW$784, DW_AT_name("GPACTRL")
    8914                      .dwattr $C$DW$784, DW_AT_TI_symbol_name("_GPACTRL")
    8915                      .dwattr $C$DW$784, DW_AT_data_member_location[DW_OP_plus_uconst 0x0]
    8916                      .dwattr $C$DW$784, DW_AT_accessibility(DW_ACCESS_public)
    8917              
    8918              $C$DW$785       .dwtag  DW_TAG_member
    8919                      .dwattr $C$DW$785, DW_AT_type(*$C$DW$T$80)
    8920                      .dwattr $C$DW$785, DW_AT_name("GPAQSEL1")
    8921                      .dwattr $C$DW$785, DW_AT_TI_symbol_name("_GPAQSEL1")
    8922                      .dwattr $C$DW$785, DW_AT_data_member_location[DW_OP_plus_uconst 0x2]
    8923                      .dwattr $C$DW$785, DW_AT_accessibility(DW_ACCESS_public)
    8924              
    8925              $C$DW$786       .dwtag  DW_TAG_member
    8926                      .dwattr $C$DW$786, DW_AT_type(*$C$DW$T$80)
    8927                      .dwattr $C$DW$786, DW_AT_name("GPAQSEL2")
    8928                      .dwattr $C$DW$786, DW_AT_TI_symbol_name("_GPAQSEL2")
    8929                      .dwattr $C$DW$786, DW_AT_data_member_location[DW_OP_plus_uconst 0x4]
    8930                      .dwattr $C$DW$786, DW_AT_accessibility(DW_ACCESS_public)
    8931              
    8932              $C$DW$787       .dwtag  DW_TAG_member
    8933                      .dwattr $C$DW$787, DW_AT_type(*$C$DW$T$80)
    8934                      .dwattr $C$DW$787, DW_AT_name("GPAMUX1")
    8935                      .dwattr $C$DW$787, DW_AT_TI_symbol_name("_GPAMUX1")
    8936                      .dwattr $C$DW$787, DW_AT_data_member_location[DW_OP_plus_uconst 0x6]
    8937                      .dwattr $C$DW$787, DW_AT_accessibility(DW_ACCESS_public)
    8938              
    8939              $C$DW$788       .dwtag  DW_TAG_member
    8940                      .dwattr $C$DW$788, DW_AT_type(*$C$DW$T$80)
    8941                      .dwattr $C$DW$788, DW_AT_name("GPAMUX2")
TMS320C2000 Assembler PC v15.12.3 Wed Nov 22 00:56:17 2017

Tools Copyright (c) 1996-2015 Texas Instruments Incorporated
C:\Users\wmj\AppData\Local\Temp\0070810                              PAGE  170

    8942                      .dwattr $C$DW$788, DW_AT_TI_symbol_name("_GPAMUX2")
    8943                      .dwattr $C$DW$788, DW_AT_data_member_location[DW_OP_plus_uconst 0x8]
    8944                      .dwattr $C$DW$788, DW_AT_accessibility(DW_ACCESS_public)
    8945              
    8946              $C$DW$789       .dwtag  DW_TAG_member
    8947                      .dwattr $C$DW$789, DW_AT_type(*$C$DW$T$80)
    8948                      .dwattr $C$DW$789, DW_AT_name("GPADIR")
    8949                      .dwattr $C$DW$789, DW_AT_TI_symbol_name("_GPADIR")
    8950                      .dwattr $C$DW$789, DW_AT_data_member_location[DW_OP_plus_uconst 0xa]
    8951                      .dwattr $C$DW$789, DW_AT_accessibility(DW_ACCESS_public)
    8952              
    8953              $C$DW$790       .dwtag  DW_TAG_member
    8954                      .dwattr $C$DW$790, DW_AT_type(*$C$DW$T$80)
    8955                      .dwattr $C$DW$790, DW_AT_name("GPAPUD")
    8956                      .dwattr $C$DW$790, DW_AT_TI_symbol_name("_GPAPUD")
    8957                      .dwattr $C$DW$790, DW_AT_data_member_location[DW_OP_plus_uconst 0xc]
    8958                      .dwattr $C$DW$790, DW_AT_accessibility(DW_ACCESS_public)
    8959              
    8960              $C$DW$791       .dwtag  DW_TAG_member
    8961                      .dwattr $C$DW$791, DW_AT_type(*$C$DW$T$26)
    8962                      .dwattr $C$DW$791, DW_AT_name("rsvd_1")
    8963                      .dwattr $C$DW$791, DW_AT_TI_symbol_name("_rsvd_1")
    8964                      .dwattr $C$DW$791, DW_AT_data_member_location[DW_OP_plus_uconst 0xe]
    8965                      .dwattr $C$DW$791, DW_AT_accessibility(DW_ACCESS_public)
    8966              
    8967              $C$DW$792       .dwtag  DW_TAG_member
    8968                      .dwattr $C$DW$792, DW_AT_type(*$C$DW$T$80)
    8969                      .dwattr $C$DW$792, DW_AT_name("GPBCTRL")
    8970                      .dwattr $C$DW$792, DW_AT_TI_symbol_name("_GPBCTRL")
    8971                      .dwattr $C$DW$792, DW_AT_data_member_location[DW_OP_plus_uconst 0x10]
    8972                      .dwattr $C$DW$792, DW_AT_accessibility(DW_ACCESS_public)
    8973              
    8974              $C$DW$793       .dwtag  DW_TAG_member
    8975                      .dwattr $C$DW$793, DW_AT_type(*$C$DW$T$80)
    8976                      .dwattr $C$DW$793, DW_AT_name("GPBQSEL1")
    8977                      .dwattr $C$DW$793, DW_AT_TI_symbol_name("_GPBQSEL1")
    8978                      .dwattr $C$DW$793, DW_AT_data_member_location[DW_OP_plus_uconst 0x12]
    8979                      .dwattr $C$DW$793, DW_AT_accessibility(DW_ACCESS_public)
    8980              
    8981              $C$DW$794       .dwtag  DW_TAG_member
    8982                      .dwattr $C$DW$794, DW_AT_type(*$C$DW$T$26)
    8983                      .dwattr $C$DW$794, DW_AT_name("rsvd_2")
    8984                      .dwattr $C$DW$794, DW_AT_TI_symbol_name("_rsvd_2")
    8985                      .dwattr $C$DW$794, DW_AT_data_member_location[DW_OP_plus_uconst 0x14]
    8986                      .dwattr $C$DW$794, DW_AT_accessibility(DW_ACCESS_public)
    8987              
    8988              $C$DW$795       .dwtag  DW_TAG_member
    8989                      .dwattr $C$DW$795, DW_AT_type(*$C$DW$T$80)
    8990                      .dwattr $C$DW$795, DW_AT_name("GPBMUX1")
    8991                      .dwattr $C$DW$795, DW_AT_TI_symbol_name("_GPBMUX1")
    8992                      .dwattr $C$DW$795, DW_AT_data_member_location[DW_OP_plus_uconst 0x16]
    8993                      .dwattr $C$DW$795, DW_AT_accessibility(DW_ACCESS_public)
    8994              
    8995              $C$DW$796       .dwtag  DW_TAG_member
    8996                      .dwattr $C$DW$796, DW_AT_type(*$C$DW$T$26)
TMS320C2000 Assembler PC v15.12.3 Wed Nov 22 00:56:17 2017

Tools Copyright (c) 1996-2015 Texas Instruments Incorporated
C:\Users\wmj\AppData\Local\Temp\0070810                              PAGE  171

    8997                      .dwattr $C$DW$796, DW_AT_name("rsvd_3")
    8998                      .dwattr $C$DW$796, DW_AT_TI_symbol_name("_rsvd_3")
    8999                      .dwattr $C$DW$796, DW_AT_data_member_location[DW_OP_plus_uconst 0x18]
    9000                      .dwattr $C$DW$796, DW_AT_accessibility(DW_ACCESS_public)
    9001              
    9002              $C$DW$797       .dwtag  DW_TAG_member
    9003                      .dwattr $C$DW$797, DW_AT_type(*$C$DW$T$80)
    9004                      .dwattr $C$DW$797, DW_AT_name("GPBDIR")
    9005                      .dwattr $C$DW$797, DW_AT_TI_symbol_name("_GPBDIR")
    9006                      .dwattr $C$DW$797, DW_AT_data_member_location[DW_OP_plus_uconst 0x1a]
    9007                      .dwattr $C$DW$797, DW_AT_accessibility(DW_ACCESS_public)
    9008              
    9009              $C$DW$798       .dwtag  DW_TAG_member
    9010                      .dwattr $C$DW$798, DW_AT_type(*$C$DW$T$80)
    9011                      .dwattr $C$DW$798, DW_AT_name("GPBPUD")
    9012                      .dwattr $C$DW$798, DW_AT_TI_symbol_name("_GPBPUD")
    9013                      .dwattr $C$DW$798, DW_AT_data_member_location[DW_OP_plus_uconst 0x1c]
    9014                      .dwattr $C$DW$798, DW_AT_accessibility(DW_ACCESS_public)
    9015              
    9016              $C$DW$799       .dwtag  DW_TAG_member
    9017                      .dwattr $C$DW$799, DW_AT_type(*$C$DW$T$81)
    9018                      .dwattr $C$DW$799, DW_AT_name("rsvd_4")
    9019                      .dwattr $C$DW$799, DW_AT_TI_symbol_name("_rsvd_4")
    9020                      .dwattr $C$DW$799, DW_AT_data_member_location[DW_OP_plus_uconst 0x1e]
    9021                      .dwattr $C$DW$799, DW_AT_accessibility(DW_ACCESS_public)
    9022              
    9023              $C$DW$800       .dwtag  DW_TAG_member
    9024                      .dwattr $C$DW$800, DW_AT_type(*$C$DW$T$80)
    9025                      .dwattr $C$DW$800, DW_AT_name("AIOMUX1")
    9026                      .dwattr $C$DW$800, DW_AT_TI_symbol_name("_AIOMUX1")
    9027                      .dwattr $C$DW$800, DW_AT_data_member_location[DW_OP_plus_uconst 0x36]
    9028                      .dwattr $C$DW$800, DW_AT_accessibility(DW_ACCESS_public)
    9029              
    9030              $C$DW$801       .dwtag  DW_TAG_member
    9031                      .dwattr $C$DW$801, DW_AT_type(*$C$DW$T$26)
    9032                      .dwattr $C$DW$801, DW_AT_name("rsvd_5")
    9033                      .dwattr $C$DW$801, DW_AT_TI_symbol_name("_rsvd_5")
    9034                      .dwattr $C$DW$801, DW_AT_data_member_location[DW_OP_plus_uconst 0x38]
    9035                      .dwattr $C$DW$801, DW_AT_accessibility(DW_ACCESS_public)
    9036              
    9037              $C$DW$802       .dwtag  DW_TAG_member
    9038                      .dwattr $C$DW$802, DW_AT_type(*$C$DW$T$80)
    9039                      .dwattr $C$DW$802, DW_AT_name("AIODIR")
    9040                      .dwattr $C$DW$802, DW_AT_TI_symbol_name("_AIODIR")
    9041                      .dwattr $C$DW$802, DW_AT_data_member_location[DW_OP_plus_uconst 0x3a]
    9042                      .dwattr $C$DW$802, DW_AT_accessibility(DW_ACCESS_public)
    9043              
    9044              $C$DW$803       .dwtag  DW_TAG_member
    9045                      .dwattr $C$DW$803, DW_AT_type(*$C$DW$T$82)
    9046                      .dwattr $C$DW$803, DW_AT_name("rsvd_6")
    9047                      .dwattr $C$DW$803, DW_AT_TI_symbol_name("_rsvd_6")
    9048                      .dwattr $C$DW$803, DW_AT_data_member_location[DW_OP_plus_uconst 0x3c]
    9049                      .dwattr $C$DW$803, DW_AT_accessibility(DW_ACCESS_public)
    9050              
    9051              $C$DW$804       .dwtag  DW_TAG_member
TMS320C2000 Assembler PC v15.12.3 Wed Nov 22 00:56:17 2017

Tools Copyright (c) 1996-2015 Texas Instruments Incorporated
C:\Users\wmj\AppData\Local\Temp\0070810                              PAGE  172

    9052                      .dwattr $C$DW$804, DW_AT_type(*$C$DW$T$80)
    9053                      .dwattr $C$DW$804, DW_AT_name("GPADAT")
    9054                      .dwattr $C$DW$804, DW_AT_TI_symbol_name("_GPADAT")
    9055                      .dwattr $C$DW$804, DW_AT_data_member_location[DW_OP_plus_uconst 0x40]
    9056                      .dwattr $C$DW$804, DW_AT_accessibility(DW_ACCESS_public)
    9057              
    9058              $C$DW$805       .dwtag  DW_TAG_member
    9059                      .dwattr $C$DW$805, DW_AT_type(*$C$DW$T$80)
    9060                      .dwattr $C$DW$805, DW_AT_name("GPASET")
    9061                      .dwattr $C$DW$805, DW_AT_TI_symbol_name("_GPASET")
    9062                      .dwattr $C$DW$805, DW_AT_data_member_location[DW_OP_plus_uconst 0x42]
    9063                      .dwattr $C$DW$805, DW_AT_accessibility(DW_ACCESS_public)
    9064              
    9065              $C$DW$806       .dwtag  DW_TAG_member
    9066                      .dwattr $C$DW$806, DW_AT_type(*$C$DW$T$80)
    9067                      .dwattr $C$DW$806, DW_AT_name("GPACLEAR")
    9068                      .dwattr $C$DW$806, DW_AT_TI_symbol_name("_GPACLEAR")
    9069                      .dwattr $C$DW$806, DW_AT_data_member_location[DW_OP_plus_uconst 0x44]
    9070                      .dwattr $C$DW$806, DW_AT_accessibility(DW_ACCESS_public)
    9071              
    9072              $C$DW$807       .dwtag  DW_TAG_member
    9073                      .dwattr $C$DW$807, DW_AT_type(*$C$DW$T$80)
    9074                      .dwattr $C$DW$807, DW_AT_name("GPATOGGLE")
    9075                      .dwattr $C$DW$807, DW_AT_TI_symbol_name("_GPATOGGLE")
    9076                      .dwattr $C$DW$807, DW_AT_data_member_location[DW_OP_plus_uconst 0x46]
    9077                      .dwattr $C$DW$807, DW_AT_accessibility(DW_ACCESS_public)
    9078              
    9079              $C$DW$808       .dwtag  DW_TAG_member
    9080                      .dwattr $C$DW$808, DW_AT_type(*$C$DW$T$80)
    9081                      .dwattr $C$DW$808, DW_AT_name("GPBDAT")
    9082                      .dwattr $C$DW$808, DW_AT_TI_symbol_name("_GPBDAT")
    9083                      .dwattr $C$DW$808, DW_AT_data_member_location[DW_OP_plus_uconst 0x48]
    9084                      .dwattr $C$DW$808, DW_AT_accessibility(DW_ACCESS_public)
    9085              
    9086              $C$DW$809       .dwtag  DW_TAG_member
    9087                      .dwattr $C$DW$809, DW_AT_type(*$C$DW$T$80)
    9088                      .dwattr $C$DW$809, DW_AT_name("GPBSET")
    9089                      .dwattr $C$DW$809, DW_AT_TI_symbol_name("_GPBSET")
    9090                      .dwattr $C$DW$809, DW_AT_data_member_location[DW_OP_plus_uconst 0x4a]
    9091                      .dwattr $C$DW$809, DW_AT_accessibility(DW_ACCESS_public)
    9092              
    9093              $C$DW$810       .dwtag  DW_TAG_member
    9094                      .dwattr $C$DW$810, DW_AT_type(*$C$DW$T$80)
    9095                      .dwattr $C$DW$810, DW_AT_name("GPBCLEAR")
    9096                      .dwattr $C$DW$810, DW_AT_TI_symbol_name("_GPBCLEAR")
    9097                      .dwattr $C$DW$810, DW_AT_data_member_location[DW_OP_plus_uconst 0x4c]
    9098                      .dwattr $C$DW$810, DW_AT_accessibility(DW_ACCESS_public)
    9099              
    9100              $C$DW$811       .dwtag  DW_TAG_member
    9101                      .dwattr $C$DW$811, DW_AT_type(*$C$DW$T$80)
    9102                      .dwattr $C$DW$811, DW_AT_name("GPBTOGGLE")
    9103                      .dwattr $C$DW$811, DW_AT_TI_symbol_name("_GPBTOGGLE")
    9104                      .dwattr $C$DW$811, DW_AT_data_member_location[DW_OP_plus_uconst 0x4e]
    9105                      .dwattr $C$DW$811, DW_AT_accessibility(DW_ACCESS_public)
    9106              
TMS320C2000 Assembler PC v15.12.3 Wed Nov 22 00:56:17 2017

Tools Copyright (c) 1996-2015 Texas Instruments Incorporated
C:\Users\wmj\AppData\Local\Temp\0070810                              PAGE  173

    9107              $C$DW$812       .dwtag  DW_TAG_member
    9108                      .dwattr $C$DW$812, DW_AT_type(*$C$DW$T$37)
    9109                      .dwattr $C$DW$812, DW_AT_name("rsvd_7")
    9110                      .dwattr $C$DW$812, DW_AT_TI_symbol_name("_rsvd_7")
    9111                      .dwattr $C$DW$812, DW_AT_data_member_location[DW_OP_plus_uconst 0x50]
    9112                      .dwattr $C$DW$812, DW_AT_accessibility(DW_ACCESS_public)
    9113              
    9114              $C$DW$813       .dwtag  DW_TAG_member
    9115                      .dwattr $C$DW$813, DW_AT_type(*$C$DW$T$80)
    9116                      .dwattr $C$DW$813, DW_AT_name("AIODAT")
    9117                      .dwattr $C$DW$813, DW_AT_TI_symbol_name("_AIODAT")
    9118                      .dwattr $C$DW$813, DW_AT_data_member_location[DW_OP_plus_uconst 0x58]
    9119                      .dwattr $C$DW$813, DW_AT_accessibility(DW_ACCESS_public)
    9120              
    9121              $C$DW$814       .dwtag  DW_TAG_member
    9122                      .dwattr $C$DW$814, DW_AT_type(*$C$DW$T$80)
    9123                      .dwattr $C$DW$814, DW_AT_name("AIOSET")
    9124                      .dwattr $C$DW$814, DW_AT_TI_symbol_name("_AIOSET")
    9125                      .dwattr $C$DW$814, DW_AT_data_member_location[DW_OP_plus_uconst 0x5a]
    9126                      .dwattr $C$DW$814, DW_AT_accessibility(DW_ACCESS_public)
    9127              
    9128              $C$DW$815       .dwtag  DW_TAG_member
    9129                      .dwattr $C$DW$815, DW_AT_type(*$C$DW$T$80)
    9130                      .dwattr $C$DW$815, DW_AT_name("AIOCLEAR")
    9131                      .dwattr $C$DW$815, DW_AT_TI_symbol_name("_AIOCLEAR")
    9132                      .dwattr $C$DW$815, DW_AT_data_member_location[DW_OP_plus_uconst 0x5c]
    9133                      .dwattr $C$DW$815, DW_AT_accessibility(DW_ACCESS_public)
    9134              
    9135              $C$DW$816       .dwtag  DW_TAG_member
    9136                      .dwattr $C$DW$816, DW_AT_type(*$C$DW$T$80)
    9137                      .dwattr $C$DW$816, DW_AT_name("AIOTOGGLE")
    9138                      .dwattr $C$DW$816, DW_AT_TI_symbol_name("_AIOTOGGLE")
    9139                      .dwattr $C$DW$816, DW_AT_data_member_location[DW_OP_plus_uconst 0x5e]
    9140                      .dwattr $C$DW$816, DW_AT_accessibility(DW_ACCESS_public)
    9141              
    9142              $C$DW$817       .dwtag  DW_TAG_member
    9143                      .dwattr $C$DW$817, DW_AT_type(*$C$DW$T$28)
    9144                      .dwattr $C$DW$817, DW_AT_name("GPIOXINTnSEL")
    9145                      .dwattr $C$DW$817, DW_AT_TI_symbol_name("_GPIOXINTnSEL")
    9146                      .dwattr $C$DW$817, DW_AT_data_member_location[DW_OP_plus_uconst 0x60]
    9147                      .dwattr $C$DW$817, DW_AT_accessibility(DW_ACCESS_public)
    9148              
    9149              $C$DW$818       .dwtag  DW_TAG_member
    9150                      .dwattr $C$DW$818, DW_AT_type(*$C$DW$T$27)
    9151                      .dwattr $C$DW$818, DW_AT_name("rsvd_8")
    9152                      .dwattr $C$DW$818, DW_AT_TI_symbol_name("_rsvd_8")
    9153                      .dwattr $C$DW$818, DW_AT_data_member_location[DW_OP_plus_uconst 0x63]
    9154                      .dwattr $C$DW$818, DW_AT_accessibility(DW_ACCESS_public)
    9155              
    9156              $C$DW$819       .dwtag  DW_TAG_member
    9157                      .dwattr $C$DW$819, DW_AT_type(*$C$DW$T$80)
    9158                      .dwattr $C$DW$819, DW_AT_name("GPIOLPMSEL")
    9159                      .dwattr $C$DW$819, DW_AT_TI_symbol_name("_GPIOLPMSEL")
    9160                      .dwattr $C$DW$819, DW_AT_data_member_location[DW_OP_plus_uconst 0x68]
    9161                      .dwattr $C$DW$819, DW_AT_accessibility(DW_ACCESS_public)
TMS320C2000 Assembler PC v15.12.3 Wed Nov 22 00:56:17 2017

Tools Copyright (c) 1996-2015 Texas Instruments Incorporated
C:\Users\wmj\AppData\Local\Temp\0070810                              PAGE  174

    9162              
    9163                      .dwendtag $C$DW$T$83
    9164              
    9165              $C$DW$T$94      .dwtag  DW_TAG_pointer_type
    9166                      .dwattr $C$DW$T$94, DW_AT_type(*$C$DW$T$83)
    9167                      .dwattr $C$DW$T$94, DW_AT_address_class(0x20)
    9168              
    9169              $C$DW$T$95      .dwtag  DW_TAG_typedef
    9170                      .dwattr $C$DW$T$95, DW_AT_name("GPIO_Handle")
    9171                      .dwattr $C$DW$T$95, DW_AT_type(*$C$DW$T$94)
    9172                      .dwattr $C$DW$T$95, DW_AT_language(DW_LANG_C)
    9173              
    9174              
    9175              $C$DW$T$85      .dwtag  DW_TAG_structure_type
    9176                      .dwattr $C$DW$T$85, DW_AT_name("_HAL_AdcData_t_")
    9177                      .dwattr $C$DW$T$85, DW_AT_byte_size(0x16)
    9178              $C$DW$820       .dwtag  DW_TAG_member
    9179                      .dwattr $C$DW$820, DW_AT_type(*$C$DW$T$84)
    9180                      .dwattr $C$DW$820, DW_AT_name("I")
    9181                      .dwattr $C$DW$820, DW_AT_TI_symbol_name("_I")
    9182                      .dwattr $C$DW$820, DW_AT_data_member_location[DW_OP_plus_uconst 0x0]
    9183                      .dwattr $C$DW$820, DW_AT_accessibility(DW_ACCESS_public)
    9184              
    9185              $C$DW$821       .dwtag  DW_TAG_member
    9186                      .dwattr $C$DW$821, DW_AT_type(*$C$DW$T$84)
    9187                      .dwattr $C$DW$821, DW_AT_name("V")
    9188                      .dwattr $C$DW$821, DW_AT_TI_symbol_name("_V")
    9189                      .dwattr $C$DW$821, DW_AT_data_member_location[DW_OP_plus_uconst 0x6]
    9190                      .dwattr $C$DW$821, DW_AT_accessibility(DW_ACCESS_public)
    9191              
    9192              $C$DW$822       .dwtag  DW_TAG_member
    9193                      .dwattr $C$DW$822, DW_AT_type(*$C$DW$T$31)
    9194                      .dwattr $C$DW$822, DW_AT_name("dcBus")
    9195                      .dwattr $C$DW$822, DW_AT_TI_symbol_name("_dcBus")
    9196                      .dwattr $C$DW$822, DW_AT_data_member_location[DW_OP_plus_uconst 0xc]
    9197                      .dwattr $C$DW$822, DW_AT_accessibility(DW_ACCESS_public)
    9198              
    9199              $C$DW$823       .dwtag  DW_TAG_member
    9200                      .dwattr $C$DW$823, DW_AT_type(*$C$DW$T$31)
    9201                      .dwattr $C$DW$823, DW_AT_name("analogSensor1")
    9202                      .dwattr $C$DW$823, DW_AT_TI_symbol_name("_analogSensor1")
    9203                      .dwattr $C$DW$823, DW_AT_data_member_location[DW_OP_plus_uconst 0xe]
    9204                      .dwattr $C$DW$823, DW_AT_accessibility(DW_ACCESS_public)
    9205              
    9206              $C$DW$824       .dwtag  DW_TAG_member
    9207                      .dwattr $C$DW$824, DW_AT_type(*$C$DW$T$31)
    9208                      .dwattr $C$DW$824, DW_AT_name("analogSensor2")
    9209                      .dwattr $C$DW$824, DW_AT_TI_symbol_name("_analogSensor2")
    9210                      .dwattr $C$DW$824, DW_AT_data_member_location[DW_OP_plus_uconst 0x10]
    9211                      .dwattr $C$DW$824, DW_AT_accessibility(DW_ACCESS_public)
    9212              
    9213              $C$DW$825       .dwtag  DW_TAG_member
    9214                      .dwattr $C$DW$825, DW_AT_type(*$C$DW$T$31)
    9215                      .dwattr $C$DW$825, DW_AT_name("igbtNTC")
    9216                      .dwattr $C$DW$825, DW_AT_TI_symbol_name("_igbtNTC")
TMS320C2000 Assembler PC v15.12.3 Wed Nov 22 00:56:17 2017

Tools Copyright (c) 1996-2015 Texas Instruments Incorporated
C:\Users\wmj\AppData\Local\Temp\0070810                              PAGE  175

    9217                      .dwattr $C$DW$825, DW_AT_data_member_location[DW_OP_plus_uconst 0x12]
    9218                      .dwattr $C$DW$825, DW_AT_accessibility(DW_ACCESS_public)
    9219              
    9220              $C$DW$826       .dwtag  DW_TAG_member
    9221                      .dwattr $C$DW$826, DW_AT_type(*$C$DW$T$31)
    9222                      .dwattr $C$DW$826, DW_AT_name("boardAddr")
    9223                      .dwattr $C$DW$826, DW_AT_TI_symbol_name("_boardAddr")
    9224                      .dwattr $C$DW$826, DW_AT_data_member_location[DW_OP_plus_uconst 0x14]
    9225                      .dwattr $C$DW$826, DW_AT_accessibility(DW_ACCESS_public)
    9226              
    9227                      .dwendtag $C$DW$T$85
    9228              
    9229              $C$DW$T$121     .dwtag  DW_TAG_typedef
    9230                      .dwattr $C$DW$T$121, DW_AT_name("HAL_AdcData_t")
    9231                      .dwattr $C$DW$T$121, DW_AT_type(*$C$DW$T$85)
    9232                      .dwattr $C$DW$T$121, DW_AT_language(DW_LANG_C)
    9233              
    9234              $C$DW$827       .dwtag  DW_TAG_TI_far_type
    9235                      .dwattr $C$DW$827, DW_AT_type(*$C$DW$T$121)
    9236              
    9237              $C$DW$T$193     .dwtag  DW_TAG_const_type
    9238                      .dwattr $C$DW$T$193, DW_AT_type(*$C$DW$827)
    9239              
    9240              $C$DW$T$194     .dwtag  DW_TAG_pointer_type
    9241                      .dwattr $C$DW$T$194, DW_AT_type(*$C$DW$T$193)
    9242                      .dwattr $C$DW$T$194, DW_AT_address_class(0x20)
    9243              
    9244              $C$DW$828       .dwtag  DW_TAG_TI_far_type
    9245                      .dwattr $C$DW$828, DW_AT_type(*$C$DW$T$194)
    9246              
    9247              $C$DW$T$195     .dwtag  DW_TAG_const_type
    9248                      .dwattr $C$DW$T$195, DW_AT_type(*$C$DW$828)
    9249              
    9250              
    9251              $C$DW$T$124     .dwtag  DW_TAG_structure_type
    9252                      .dwattr $C$DW$T$124, DW_AT_name("_HAL_Obj_")
    9253                      .dwattr $C$DW$T$124, DW_AT_byte_size(0xb4)
    9254              $C$DW$829       .dwtag  DW_TAG_member
    9255                      .dwattr $C$DW$829, DW_AT_type(*$C$DW$T$87)
    9256                      .dwattr $C$DW$829, DW_AT_name("adcHandle")
    9257                      .dwattr $C$DW$829, DW_AT_TI_symbol_name("_adcHandle")
    9258                      .dwattr $C$DW$829, DW_AT_data_member_location[DW_OP_plus_uconst 0x0]
    9259                      .dwattr $C$DW$829, DW_AT_accessibility(DW_ACCESS_public)
    9260              
    9261              $C$DW$830       .dwtag  DW_TAG_member
    9262                      .dwattr $C$DW$830, DW_AT_type(*$C$DW$T$89)
    9263                      .dwattr $C$DW$830, DW_AT_name("clkHandle")
    9264                      .dwattr $C$DW$830, DW_AT_TI_symbol_name("_clkHandle")
    9265                      .dwattr $C$DW$830, DW_AT_data_member_location[DW_OP_plus_uconst 0x2]
    9266                      .dwattr $C$DW$830, DW_AT_accessibility(DW_ACCESS_public)
    9267              
    9268              $C$DW$831       .dwtag  DW_TAG_member
    9269                      .dwattr $C$DW$831, DW_AT_type(*$C$DW$T$91)
    9270                      .dwattr $C$DW$831, DW_AT_name("cpuHandle")
    9271                      .dwattr $C$DW$831, DW_AT_TI_symbol_name("_cpuHandle")
TMS320C2000 Assembler PC v15.12.3 Wed Nov 22 00:56:17 2017

Tools Copyright (c) 1996-2015 Texas Instruments Incorporated
C:\Users\wmj\AppData\Local\Temp\0070810                              PAGE  176

    9272                      .dwattr $C$DW$831, DW_AT_data_member_location[DW_OP_plus_uconst 0x4]
    9273                      .dwattr $C$DW$831, DW_AT_accessibility(DW_ACCESS_public)
    9274              
    9275              $C$DW$832       .dwtag  DW_TAG_member
    9276                      .dwattr $C$DW$832, DW_AT_type(*$C$DW$T$93)
    9277                      .dwattr $C$DW$832, DW_AT_name("flashHandle")
    9278                      .dwattr $C$DW$832, DW_AT_TI_symbol_name("_flashHandle")
    9279                      .dwattr $C$DW$832, DW_AT_data_member_location[DW_OP_plus_uconst 0x6]
    9280                      .dwattr $C$DW$832, DW_AT_accessibility(DW_ACCESS_public)
    9281              
    9282              $C$DW$833       .dwtag  DW_TAG_member
    9283                      .dwattr $C$DW$833, DW_AT_type(*$C$DW$T$95)
    9284                      .dwattr $C$DW$833, DW_AT_name("gpioHandle")
    9285                      .dwattr $C$DW$833, DW_AT_TI_symbol_name("_gpioHandle")
    9286                      .dwattr $C$DW$833, DW_AT_data_member_location[DW_OP_plus_uconst 0x8]
    9287                      .dwattr $C$DW$833, DW_AT_accessibility(DW_ACCESS_public)
    9288              
    9289              $C$DW$834       .dwtag  DW_TAG_member
    9290                      .dwattr $C$DW$834, DW_AT_type(*$C$DW$T$98)
    9291                      .dwattr $C$DW$834, DW_AT_name("offsetHandle_I")
    9292                      .dwattr $C$DW$834, DW_AT_TI_symbol_name("_offsetHandle_I")
    9293                      .dwattr $C$DW$834, DW_AT_data_member_location[DW_OP_plus_uconst 0xa]
    9294                      .dwattr $C$DW$834, DW_AT_accessibility(DW_ACCESS_public)
    9295              
    9296              $C$DW$835       .dwtag  DW_TAG_member
    9297                      .dwattr $C$DW$835, DW_AT_type(*$C$DW$T$100)
    9298                      .dwattr $C$DW$835, DW_AT_name("offset_I")
    9299                      .dwattr $C$DW$835, DW_AT_TI_symbol_name("_offset_I")
    9300                      .dwattr $C$DW$835, DW_AT_data_member_location[DW_OP_plus_uconst 0x10]
    9301                      .dwattr $C$DW$835, DW_AT_accessibility(DW_ACCESS_public)
    9302              
    9303              $C$DW$836       .dwtag  DW_TAG_member
    9304                      .dwattr $C$DW$836, DW_AT_type(*$C$DW$T$98)
    9305                      .dwattr $C$DW$836, DW_AT_name("offsetHandle_V")
    9306                      .dwattr $C$DW$836, DW_AT_TI_symbol_name("_offsetHandle_V")
    9307                      .dwattr $C$DW$836, DW_AT_data_member_location[DW_OP_plus_uconst 0x40]
    9308                      .dwattr $C$DW$836, DW_AT_accessibility(DW_ACCESS_public)
    9309              
    9310              $C$DW$837       .dwtag  DW_TAG_member
    9311                      .dwattr $C$DW$837, DW_AT_type(*$C$DW$T$100)
    9312                      .dwattr $C$DW$837, DW_AT_name("offset_V")
    9313                      .dwattr $C$DW$837, DW_AT_TI_symbol_name("_offset_V")
    9314                      .dwattr $C$DW$837, DW_AT_data_member_location[DW_OP_plus_uconst 0x46]
    9315                      .dwattr $C$DW$837, DW_AT_accessibility(DW_ACCESS_public)
    9316              
    9317              $C$DW$838       .dwtag  DW_TAG_member
    9318                      .dwattr $C$DW$838, DW_AT_type(*$C$DW$T$102)
    9319                      .dwattr $C$DW$838, DW_AT_name("oscHandle")
    9320                      .dwattr $C$DW$838, DW_AT_TI_symbol_name("_oscHandle")
    9321                      .dwattr $C$DW$838, DW_AT_data_member_location[DW_OP_plus_uconst 0x76]
    9322                      .dwattr $C$DW$838, DW_AT_accessibility(DW_ACCESS_public)
    9323              
    9324              $C$DW$839       .dwtag  DW_TAG_member
    9325                      .dwattr $C$DW$839, DW_AT_type(*$C$DW$T$104)
    9326                      .dwattr $C$DW$839, DW_AT_name("pieHandle")
TMS320C2000 Assembler PC v15.12.3 Wed Nov 22 00:56:17 2017

Tools Copyright (c) 1996-2015 Texas Instruments Incorporated
C:\Users\wmj\AppData\Local\Temp\0070810                              PAGE  177

    9327                      .dwattr $C$DW$839, DW_AT_TI_symbol_name("_pieHandle")
    9328                      .dwattr $C$DW$839, DW_AT_data_member_location[DW_OP_plus_uconst 0x78]
    9329                      .dwattr $C$DW$839, DW_AT_accessibility(DW_ACCESS_public)
    9330              
    9331              $C$DW$840       .dwtag  DW_TAG_member
    9332                      .dwattr $C$DW$840, DW_AT_type(*$C$DW$T$106)
    9333                      .dwattr $C$DW$840, DW_AT_name("pllHandle")
    9334                      .dwattr $C$DW$840, DW_AT_TI_symbol_name("_pllHandle")
    9335                      .dwattr $C$DW$840, DW_AT_data_member_location[DW_OP_plus_uconst 0x7a]
    9336                      .dwattr $C$DW$840, DW_AT_accessibility(DW_ACCESS_public)
    9337              
    9338              $C$DW$841       .dwtag  DW_TAG_member
    9339                      .dwattr $C$DW$841, DW_AT_type(*$C$DW$T$109)
    9340                      .dwattr $C$DW$841, DW_AT_name("pwmHandle")
    9341                      .dwattr $C$DW$841, DW_AT_TI_symbol_name("_pwmHandle")
    9342                      .dwattr $C$DW$841, DW_AT_data_member_location[DW_OP_plus_uconst 0x7c]
    9343                      .dwattr $C$DW$841, DW_AT_accessibility(DW_ACCESS_public)
    9344              
    9345              $C$DW$842       .dwtag  DW_TAG_member
    9346                      .dwattr $C$DW$842, DW_AT_type(*$C$DW$T$109)
    9347                      .dwattr $C$DW$842, DW_AT_name("pwmDacHandle")
    9348                      .dwattr $C$DW$842, DW_AT_TI_symbol_name("_pwmDacHandle")
    9349                      .dwattr $C$DW$842, DW_AT_data_member_location[DW_OP_plus_uconst 0x82]
    9350                      .dwattr $C$DW$842, DW_AT_accessibility(DW_ACCESS_public)
    9351              
    9352              $C$DW$843       .dwtag  DW_TAG_member
    9353                      .dwattr $C$DW$843, DW_AT_type(*$C$DW$T$111)
    9354                      .dwattr $C$DW$843, DW_AT_name("pwrHandle")
    9355                      .dwattr $C$DW$843, DW_AT_TI_symbol_name("_pwrHandle")
    9356                      .dwattr $C$DW$843, DW_AT_data_member_location[DW_OP_plus_uconst 0x88]
    9357                      .dwattr $C$DW$843, DW_AT_accessibility(DW_ACCESS_public)
    9358              
    9359              $C$DW$844       .dwtag  DW_TAG_member
    9360                      .dwattr $C$DW$844, DW_AT_type(*$C$DW$T$114)
    9361                      .dwattr $C$DW$844, DW_AT_name("timerHandle")
    9362                      .dwattr $C$DW$844, DW_AT_TI_symbol_name("_timerHandle")
    9363                      .dwattr $C$DW$844, DW_AT_data_member_location[DW_OP_plus_uconst 0x8a]
    9364                      .dwattr $C$DW$844, DW_AT_accessibility(DW_ACCESS_public)
    9365              
    9366              $C$DW$845       .dwtag  DW_TAG_member
    9367                      .dwattr $C$DW$845, DW_AT_type(*$C$DW$T$116)
    9368                      .dwattr $C$DW$845, DW_AT_name("spiAHandle")
    9369                      .dwattr $C$DW$845, DW_AT_TI_symbol_name("_spiAHandle")
    9370                      .dwattr $C$DW$845, DW_AT_data_member_location[DW_OP_plus_uconst 0x90]
    9371                      .dwattr $C$DW$845, DW_AT_accessibility(DW_ACCESS_public)
    9372              
    9373              $C$DW$846       .dwtag  DW_TAG_member
    9374                      .dwattr $C$DW$846, DW_AT_type(*$C$DW$T$118)
    9375                      .dwattr $C$DW$846, DW_AT_name("wdogHandle")
    9376                      .dwattr $C$DW$846, DW_AT_TI_symbol_name("_wdogHandle")
    9377                      .dwattr $C$DW$846, DW_AT_data_member_location[DW_OP_plus_uconst 0x92]
    9378                      .dwattr $C$DW$846, DW_AT_accessibility(DW_ACCESS_public)
    9379              
    9380              $C$DW$847       .dwtag  DW_TAG_member
    9381                      .dwattr $C$DW$847, DW_AT_type(*$C$DW$T$120)
TMS320C2000 Assembler PC v15.12.3 Wed Nov 22 00:56:17 2017

Tools Copyright (c) 1996-2015 Texas Instruments Incorporated
C:\Users\wmj\AppData\Local\Temp\0070810                              PAGE  178

    9382                      .dwattr $C$DW$847, DW_AT_name("sciHandle")
    9383                      .dwattr $C$DW$847, DW_AT_TI_symbol_name("_sciHandle")
    9384                      .dwattr $C$DW$847, DW_AT_data_member_location[DW_OP_plus_uconst 0x94]
    9385                      .dwattr $C$DW$847, DW_AT_accessibility(DW_ACCESS_public)
    9386              
    9387              $C$DW$848       .dwtag  DW_TAG_member
    9388                      .dwattr $C$DW$848, DW_AT_type(*$C$DW$T$121)
    9389                      .dwattr $C$DW$848, DW_AT_name("adcBias")
    9390                      .dwattr $C$DW$848, DW_AT_TI_symbol_name("_adcBias")
    9391                      .dwattr $C$DW$848, DW_AT_data_member_location[DW_OP_plus_uconst 0x96]
    9392                      .dwattr $C$DW$848, DW_AT_accessibility(DW_ACCESS_public)
    9393              
    9394              $C$DW$849       .dwtag  DW_TAG_member
    9395                      .dwattr $C$DW$849, DW_AT_type(*$C$DW$T$31)
    9396                      .dwattr $C$DW$849, DW_AT_name("current_sf")
    9397                      .dwattr $C$DW$849, DW_AT_TI_symbol_name("_current_sf")
    9398                      .dwattr $C$DW$849, DW_AT_data_member_location[DW_OP_plus_uconst 0xac]
    9399                      .dwattr $C$DW$849, DW_AT_accessibility(DW_ACCESS_public)
    9400              
    9401              $C$DW$850       .dwtag  DW_TAG_member
    9402                      .dwattr $C$DW$850, DW_AT_type(*$C$DW$T$31)
    9403                      .dwattr $C$DW$850, DW_AT_name("voltage_sf")
    9404                      .dwattr $C$DW$850, DW_AT_TI_symbol_name("_voltage_sf")
    9405                      .dwattr $C$DW$850, DW_AT_data_member_location[DW_OP_plus_uconst 0xae]
    9406                      .dwattr $C$DW$850, DW_AT_accessibility(DW_ACCESS_public)
    9407              
    9408              $C$DW$851       .dwtag  DW_TAG_member
    9409                      .dwattr $C$DW$851, DW_AT_type(*$C$DW$T$35)
    9410                      .dwattr $C$DW$851, DW_AT_name("numCurrentSensors")
    9411                      .dwattr $C$DW$851, DW_AT_TI_symbol_name("_numCurrentSensors")
    9412                      .dwattr $C$DW$851, DW_AT_data_member_location[DW_OP_plus_uconst 0xb0]
    9413                      .dwattr $C$DW$851, DW_AT_accessibility(DW_ACCESS_public)
    9414              
    9415              $C$DW$852       .dwtag  DW_TAG_member
    9416                      .dwattr $C$DW$852, DW_AT_type(*$C$DW$T$35)
    9417                      .dwattr $C$DW$852, DW_AT_name("numVoltageSensors")
    9418                      .dwattr $C$DW$852, DW_AT_TI_symbol_name("_numVoltageSensors")
    9419                      .dwattr $C$DW$852, DW_AT_data_member_location[DW_OP_plus_uconst 0xb1]
    9420                      .dwattr $C$DW$852, DW_AT_accessibility(DW_ACCESS_public)
    9421              
    9422              $C$DW$853       .dwtag  DW_TAG_member
    9423                      .dwattr $C$DW$853, DW_AT_type(*$C$DW$T$123)
    9424                      .dwattr $C$DW$853, DW_AT_name("boardAddress")
    9425                      .dwattr $C$DW$853, DW_AT_TI_symbol_name("_boardAddress")
    9426                      .dwattr $C$DW$853, DW_AT_data_member_location[DW_OP_plus_uconst 0xb2]
    9427                      .dwattr $C$DW$853, DW_AT_accessibility(DW_ACCESS_public)
    9428              
    9429                      .dwendtag $C$DW$T$124
    9430              
    9431              $C$DW$T$199     .dwtag  DW_TAG_typedef
    9432                      .dwattr $C$DW$T$199, DW_AT_name("HAL_Obj")
    9433                      .dwattr $C$DW$T$199, DW_AT_type(*$C$DW$T$124)
    9434                      .dwattr $C$DW$T$199, DW_AT_language(DW_LANG_C)
    9435              
    9436              $C$DW$T$200     .dwtag  DW_TAG_pointer_type
TMS320C2000 Assembler PC v15.12.3 Wed Nov 22 00:56:17 2017

Tools Copyright (c) 1996-2015 Texas Instruments Incorporated
C:\Users\wmj\AppData\Local\Temp\0070810                              PAGE  179

    9437                      .dwattr $C$DW$T$200, DW_AT_type(*$C$DW$T$124)
    9438                      .dwattr $C$DW$T$200, DW_AT_address_class(0x20)
    9439              
    9440              $C$DW$T$201     .dwtag  DW_TAG_typedef
    9441                      .dwattr $C$DW$T$201, DW_AT_name("HAL_Handle")
    9442                      .dwattr $C$DW$T$201, DW_AT_type(*$C$DW$T$200)
    9443                      .dwattr $C$DW$T$201, DW_AT_language(DW_LANG_C)
    9444              
    9445              $C$DW$854       .dwtag  DW_TAG_TI_far_type
    9446                      .dwattr $C$DW$854, DW_AT_type(*$C$DW$T$201)
    9447              
    9448              $C$DW$T$202     .dwtag  DW_TAG_const_type
    9449                      .dwattr $C$DW$T$202, DW_AT_type(*$C$DW$854)
    9450              
    9451              
    9452              $C$DW$T$125     .dwtag  DW_TAG_structure_type
    9453                      .dwattr $C$DW$T$125, DW_AT_name("_HAL_PwmData_t_")
    9454                      .dwattr $C$DW$T$125, DW_AT_byte_size(0x06)
    9455              $C$DW$855       .dwtag  DW_TAG_member
    9456                      .dwattr $C$DW$855, DW_AT_type(*$C$DW$T$84)
    9457                      .dwattr $C$DW$855, DW_AT_name("Tabc")
    9458                      .dwattr $C$DW$855, DW_AT_TI_symbol_name("_Tabc")
    9459                      .dwattr $C$DW$855, DW_AT_data_member_location[DW_OP_plus_uconst 0x0]
    9460                      .dwattr $C$DW$855, DW_AT_accessibility(DW_ACCESS_public)
    9461              
    9462                      .dwendtag $C$DW$T$125
    9463              
    9464              $C$DW$T$204     .dwtag  DW_TAG_typedef
    9465                      .dwattr $C$DW$T$204, DW_AT_name("HAL_PwmData_t")
    9466                      .dwattr $C$DW$T$204, DW_AT_type(*$C$DW$T$125)
    9467                      .dwattr $C$DW$T$204, DW_AT_language(DW_LANG_C)
    9468              
    9469              $C$DW$T$205     .dwtag  DW_TAG_pointer_type
    9470                      .dwattr $C$DW$T$205, DW_AT_type(*$C$DW$T$204)
    9471                      .dwattr $C$DW$T$205, DW_AT_address_class(0x20)
    9472              
    9473              $C$DW$856       .dwtag  DW_TAG_TI_far_type
    9474                      .dwattr $C$DW$856, DW_AT_type(*$C$DW$T$205)
    9475              
    9476              $C$DW$T$206     .dwtag  DW_TAG_const_type
    9477                      .dwattr $C$DW$T$206, DW_AT_type(*$C$DW$856)
    9478              
    9479              
    9480              $C$DW$T$126     .dwtag  DW_TAG_structure_type
    9481                      .dwattr $C$DW$T$126, DW_AT_name("_IPARK_Obj_")
    9482                      .dwattr $C$DW$T$126, DW_AT_byte_size(0x04)
    9483              $C$DW$857       .dwtag  DW_TAG_member
    9484                      .dwattr $C$DW$857, DW_AT_type(*$C$DW$T$31)
    9485                      .dwattr $C$DW$857, DW_AT_name("sinTh")
    9486                      .dwattr $C$DW$857, DW_AT_TI_symbol_name("_sinTh")
    9487                      .dwattr $C$DW$857, DW_AT_data_member_location[DW_OP_plus_uconst 0x0]
    9488                      .dwattr $C$DW$857, DW_AT_accessibility(DW_ACCESS_public)
    9489              
    9490              $C$DW$858       .dwtag  DW_TAG_member
    9491                      .dwattr $C$DW$858, DW_AT_type(*$C$DW$T$31)
TMS320C2000 Assembler PC v15.12.3 Wed Nov 22 00:56:17 2017

Tools Copyright (c) 1996-2015 Texas Instruments Incorporated
C:\Users\wmj\AppData\Local\Temp\0070810                              PAGE  180

    9492                      .dwattr $C$DW$858, DW_AT_name("cosTh")
    9493                      .dwattr $C$DW$858, DW_AT_TI_symbol_name("_cosTh")
    9494                      .dwattr $C$DW$858, DW_AT_data_member_location[DW_OP_plus_uconst 0x2]
    9495                      .dwattr $C$DW$858, DW_AT_accessibility(DW_ACCESS_public)
    9496              
    9497                      .dwendtag $C$DW$T$126
    9498              
    9499              $C$DW$T$58      .dwtag  DW_TAG_typedef
    9500                      .dwattr $C$DW$T$58, DW_AT_name("IPARK_Obj")
    9501                      .dwattr $C$DW$T$58, DW_AT_type(*$C$DW$T$126)
    9502                      .dwattr $C$DW$T$58, DW_AT_language(DW_LANG_C)
    9503              
    9504              $C$DW$T$209     .dwtag  DW_TAG_pointer_type
    9505                      .dwattr $C$DW$T$209, DW_AT_type(*$C$DW$T$58)
    9506                      .dwattr $C$DW$T$209, DW_AT_address_class(0x20)
    9507              
    9508              $C$DW$T$56      .dwtag  DW_TAG_pointer_type
    9509                      .dwattr $C$DW$T$56, DW_AT_type(*$C$DW$T$126)
    9510                      .dwattr $C$DW$T$56, DW_AT_address_class(0x20)
    9511              
    9512              $C$DW$T$57      .dwtag  DW_TAG_typedef
    9513                      .dwattr $C$DW$T$57, DW_AT_name("IPARK_Handle")
    9514                      .dwattr $C$DW$T$57, DW_AT_type(*$C$DW$T$56)
    9515                      .dwattr $C$DW$T$57, DW_AT_language(DW_LANG_C)
    9516              
    9517              
    9518              $C$DW$T$128     .dwtag  DW_TAG_structure_type
    9519                      .dwattr $C$DW$T$128, DW_AT_name("_MATH_vec2_")
    9520                      .dwattr $C$DW$T$128, DW_AT_byte_size(0x04)
    9521              $C$DW$859       .dwtag  DW_TAG_member
    9522                      .dwattr $C$DW$859, DW_AT_type(*$C$DW$T$127)
    9523                      .dwattr $C$DW$859, DW_AT_name("value")
    9524                      .dwattr $C$DW$859, DW_AT_TI_symbol_name("_value")
    9525                      .dwattr $C$DW$859, DW_AT_data_member_location[DW_OP_plus_uconst 0x0]
    9526                      .dwattr $C$DW$859, DW_AT_accessibility(DW_ACCESS_public)
    9527              
    9528                      .dwendtag $C$DW$T$128
    9529              
    9530              $C$DW$T$32      .dwtag  DW_TAG_typedef
    9531                      .dwattr $C$DW$T$32, DW_AT_name("MATH_vec2")
    9532                      .dwattr $C$DW$T$32, DW_AT_type(*$C$DW$T$128)
    9533                      .dwattr $C$DW$T$32, DW_AT_language(DW_LANG_C)
    9534              
    9535              $C$DW$860       .dwtag  DW_TAG_TI_far_type
    9536                      .dwattr $C$DW$860, DW_AT_type(*$C$DW$T$32)
    9537              
    9538              $C$DW$T$210     .dwtag  DW_TAG_const_type
    9539                      .dwattr $C$DW$T$210, DW_AT_type(*$C$DW$860)
    9540              
    9541              $C$DW$T$211     .dwtag  DW_TAG_pointer_type
    9542                      .dwattr $C$DW$T$211, DW_AT_type(*$C$DW$T$210)
    9543                      .dwattr $C$DW$T$211, DW_AT_address_class(0x20)
    9544              
    9545              $C$DW$T$212     .dwtag  DW_TAG_pointer_type
    9546                      .dwattr $C$DW$T$212, DW_AT_type(*$C$DW$T$32)
TMS320C2000 Assembler PC v15.12.3 Wed Nov 22 00:56:17 2017

Tools Copyright (c) 1996-2015 Texas Instruments Incorporated
C:\Users\wmj\AppData\Local\Temp\0070810                              PAGE  181

    9547                      .dwattr $C$DW$T$212, DW_AT_address_class(0x20)
    9548              
    9549              $C$DW$861       .dwtag  DW_TAG_TI_far_type
    9550                      .dwattr $C$DW$861, DW_AT_type(*$C$DW$T$212)
    9551              
    9552              $C$DW$T$214     .dwtag  DW_TAG_const_type
    9553                      .dwattr $C$DW$T$214, DW_AT_type(*$C$DW$861)
    9554              
    9555              
    9556              $C$DW$T$130     .dwtag  DW_TAG_structure_type
    9557                      .dwattr $C$DW$T$130, DW_AT_name("_MATH_vec3_")
    9558                      .dwattr $C$DW$T$130, DW_AT_byte_size(0x06)
    9559              $C$DW$862       .dwtag  DW_TAG_member
    9560                      .dwattr $C$DW$862, DW_AT_type(*$C$DW$T$129)
    9561                      .dwattr $C$DW$862, DW_AT_name("value")
    9562                      .dwattr $C$DW$862, DW_AT_TI_symbol_name("_value")
    9563                      .dwattr $C$DW$862, DW_AT_data_member_location[DW_OP_plus_uconst 0x0]
    9564                      .dwattr $C$DW$862, DW_AT_accessibility(DW_ACCESS_public)
    9565              
    9566                      .dwendtag $C$DW$T$130
    9567              
    9568              $C$DW$T$84      .dwtag  DW_TAG_typedef
    9569                      .dwattr $C$DW$T$84, DW_AT_name("MATH_vec3")
    9570                      .dwattr $C$DW$T$84, DW_AT_type(*$C$DW$T$130)
    9571                      .dwattr $C$DW$T$84, DW_AT_language(DW_LANG_C)
    9572              
    9573              $C$DW$863       .dwtag  DW_TAG_TI_far_type
    9574                      .dwattr $C$DW$863, DW_AT_type(*$C$DW$T$84)
    9575              
    9576              $C$DW$T$218     .dwtag  DW_TAG_const_type
    9577                      .dwattr $C$DW$T$218, DW_AT_type(*$C$DW$863)
    9578              
    9579              $C$DW$T$219     .dwtag  DW_TAG_pointer_type
    9580                      .dwattr $C$DW$T$219, DW_AT_type(*$C$DW$T$218)
    9581                      .dwattr $C$DW$T$219, DW_AT_address_class(0x20)
    9582              
    9583              $C$DW$T$220     .dwtag  DW_TAG_pointer_type
    9584                      .dwattr $C$DW$T$220, DW_AT_type(*$C$DW$T$84)
    9585                      .dwattr $C$DW$T$220, DW_AT_address_class(0x20)
    9586              
    9587              
    9588              $C$DW$T$133     .dwtag  DW_TAG_structure_type
    9589                      .dwattr $C$DW$T$133, DW_AT_name("_MOTOR_Params_")
    9590                      .dwattr $C$DW$T$133, DW_AT_byte_size(0x0e)
    9591              $C$DW$864       .dwtag  DW_TAG_member
    9592                      .dwattr $C$DW$864, DW_AT_type(*$C$DW$T$132)
    9593                      .dwattr $C$DW$864, DW_AT_name("type")
    9594                      .dwattr $C$DW$864, DW_AT_TI_symbol_name("_type")
    9595                      .dwattr $C$DW$864, DW_AT_data_member_location[DW_OP_plus_uconst 0x0]
    9596                      .dwattr $C$DW$864, DW_AT_accessibility(DW_ACCESS_public)
    9597              
    9598              $C$DW$865       .dwtag  DW_TAG_member
    9599                      .dwattr $C$DW$865, DW_AT_type(*$C$DW$T$69)
    9600                      .dwattr $C$DW$865, DW_AT_name("numPolePairs")
    9601                      .dwattr $C$DW$865, DW_AT_TI_symbol_name("_numPolePairs")
TMS320C2000 Assembler PC v15.12.3 Wed Nov 22 00:56:17 2017

Tools Copyright (c) 1996-2015 Texas Instruments Incorporated
C:\Users\wmj\AppData\Local\Temp\0070810                              PAGE  182

    9602                      .dwattr $C$DW$865, DW_AT_data_member_location[DW_OP_plus_uconst 0x1]
    9603                      .dwattr $C$DW$865, DW_AT_accessibility(DW_ACCESS_public)
    9604              
    9605              $C$DW$866       .dwtag  DW_TAG_member
    9606                      .dwattr $C$DW$866, DW_AT_type(*$C$DW$T$70)
    9607                      .dwattr $C$DW$866, DW_AT_name("Lr_H")
    9608                      .dwattr $C$DW$866, DW_AT_TI_symbol_name("_Lr_H")
    9609                      .dwattr $C$DW$866, DW_AT_data_member_location[DW_OP_plus_uconst 0x2]
    9610                      .dwattr $C$DW$866, DW_AT_accessibility(DW_ACCESS_public)
    9611              
    9612              $C$DW$867       .dwtag  DW_TAG_member
    9613                      .dwattr $C$DW$867, DW_AT_type(*$C$DW$T$70)
    9614                      .dwattr $C$DW$867, DW_AT_name("Ls_d_H")
    9615                      .dwattr $C$DW$867, DW_AT_TI_symbol_name("_Ls_d_H")
    9616                      .dwattr $C$DW$867, DW_AT_data_member_location[DW_OP_plus_uconst 0x4]
    9617                      .dwattr $C$DW$867, DW_AT_accessibility(DW_ACCESS_public)
    9618              
    9619              $C$DW$868       .dwtag  DW_TAG_member
    9620                      .dwattr $C$DW$868, DW_AT_type(*$C$DW$T$70)
    9621                      .dwattr $C$DW$868, DW_AT_name("Ls_q_H")
    9622                      .dwattr $C$DW$868, DW_AT_TI_symbol_name("_Ls_q_H")
    9623                      .dwattr $C$DW$868, DW_AT_data_member_location[DW_OP_plus_uconst 0x6]
    9624                      .dwattr $C$DW$868, DW_AT_accessibility(DW_ACCESS_public)
    9625              
    9626              $C$DW$869       .dwtag  DW_TAG_member
    9627                      .dwattr $C$DW$869, DW_AT_type(*$C$DW$T$70)
    9628                      .dwattr $C$DW$869, DW_AT_name("Rr_Ohm")
    9629                      .dwattr $C$DW$869, DW_AT_TI_symbol_name("_Rr_Ohm")
    9630                      .dwattr $C$DW$869, DW_AT_data_member_location[DW_OP_plus_uconst 0x8]
    9631                      .dwattr $C$DW$869, DW_AT_accessibility(DW_ACCESS_public)
    9632              
    9633              $C$DW$870       .dwtag  DW_TAG_member
    9634                      .dwattr $C$DW$870, DW_AT_type(*$C$DW$T$70)
    9635                      .dwattr $C$DW$870, DW_AT_name("Rs_Ohm")
    9636                      .dwattr $C$DW$870, DW_AT_TI_symbol_name("_Rs_Ohm")
    9637                      .dwattr $C$DW$870, DW_AT_data_member_location[DW_OP_plus_uconst 0xa]
    9638                      .dwattr $C$DW$870, DW_AT_accessibility(DW_ACCESS_public)
    9639              
    9640              $C$DW$871       .dwtag  DW_TAG_member
    9641                      .dwattr $C$DW$871, DW_AT_type(*$C$DW$T$70)
    9642                      .dwattr $C$DW$871, DW_AT_name("ratedFlux_VpHz")
    9643                      .dwattr $C$DW$871, DW_AT_TI_symbol_name("_ratedFlux_VpHz")
    9644                      .dwattr $C$DW$871, DW_AT_data_member_location[DW_OP_plus_uconst 0xc]
    9645                      .dwattr $C$DW$871, DW_AT_accessibility(DW_ACCESS_public)
    9646              
    9647                      .dwendtag $C$DW$T$133
    9648              
    9649              $C$DW$T$65      .dwtag  DW_TAG_typedef
    9650                      .dwattr $C$DW$T$65, DW_AT_name("MOTOR_Params")
    9651                      .dwattr $C$DW$T$65, DW_AT_type(*$C$DW$T$133)
    9652                      .dwattr $C$DW$T$65, DW_AT_language(DW_LANG_C)
    9653              
    9654              
    9655              $C$DW$T$137     .dwtag  DW_TAG_structure_type
    9656                      .dwattr $C$DW$T$137, DW_AT_name("_OFFSET_")
TMS320C2000 Assembler PC v15.12.3 Wed Nov 22 00:56:17 2017

Tools Copyright (c) 1996-2015 Texas Instruments Incorporated
C:\Users\wmj\AppData\Local\Temp\0070810                              PAGE  183

    9657                      .dwattr $C$DW$T$137, DW_AT_byte_size(0x10)
    9658              $C$DW$872       .dwtag  DW_TAG_member
    9659                      .dwattr $C$DW$872, DW_AT_type(*$C$DW$T$31)
    9660                      .dwattr $C$DW$872, DW_AT_name("value")
    9661                      .dwattr $C$DW$872, DW_AT_TI_symbol_name("_value")
    9662                      .dwattr $C$DW$872, DW_AT_data_member_location[DW_OP_plus_uconst 0x0]
    9663                      .dwattr $C$DW$872, DW_AT_accessibility(DW_ACCESS_public)
    9664              
    9665              $C$DW$873       .dwtag  DW_TAG_member
    9666                      .dwattr $C$DW$873, DW_AT_type(*$C$DW$T$31)
    9667                      .dwattr $C$DW$873, DW_AT_name("bias")
    9668                      .dwattr $C$DW$873, DW_AT_TI_symbol_name("_bias")
    9669                      .dwattr $C$DW$873, DW_AT_data_member_location[DW_OP_plus_uconst 0x2]
    9670                      .dwattr $C$DW$873, DW_AT_accessibility(DW_ACCESS_public)
    9671              
    9672              $C$DW$874       .dwtag  DW_TAG_member
    9673                      .dwattr $C$DW$874, DW_AT_type(*$C$DW$T$134)
    9674                      .dwattr $C$DW$874, DW_AT_name("filter")
    9675                      .dwattr $C$DW$874, DW_AT_TI_symbol_name("_filter")
    9676                      .dwattr $C$DW$874, DW_AT_data_member_location[DW_OP_plus_uconst 0x4]
    9677                      .dwattr $C$DW$874, DW_AT_accessibility(DW_ACCESS_public)
    9678              
    9679              $C$DW$875       .dwtag  DW_TAG_member
    9680                      .dwattr $C$DW$875, DW_AT_type(*$C$DW$T$136)
    9681                      .dwattr $C$DW$875, DW_AT_name("filterHandle")
    9682                      .dwattr $C$DW$875, DW_AT_TI_symbol_name("_filterHandle")
    9683                      .dwattr $C$DW$875, DW_AT_data_member_location[DW_OP_plus_uconst 0xe]
    9684                      .dwattr $C$DW$875, DW_AT_accessibility(DW_ACCESS_public)
    9685              
    9686                      .dwendtag $C$DW$T$137
    9687              
    9688              $C$DW$T$99      .dwtag  DW_TAG_typedef
    9689                      .dwattr $C$DW$T$99, DW_AT_name("OFFSET_Obj")
    9690                      .dwattr $C$DW$T$99, DW_AT_type(*$C$DW$T$137)
    9691                      .dwattr $C$DW$T$99, DW_AT_language(DW_LANG_C)
    9692              
    9693              
    9694              $C$DW$T$100     .dwtag  DW_TAG_array_type
    9695                      .dwattr $C$DW$T$100, DW_AT_type(*$C$DW$T$99)
    9696                      .dwattr $C$DW$T$100, DW_AT_language(DW_LANG_C)
    9697                      .dwattr $C$DW$T$100, DW_AT_byte_size(0x30)
    9698              $C$DW$876       .dwtag  DW_TAG_subrange_type
    9699                      .dwattr $C$DW$876, DW_AT_upper_bound(0x02)
    9700              
    9701                      .dwendtag $C$DW$T$100
    9702              
    9703              $C$DW$T$224     .dwtag  DW_TAG_pointer_type
    9704                      .dwattr $C$DW$T$224, DW_AT_type(*$C$DW$T$99)
    9705                      .dwattr $C$DW$T$224, DW_AT_address_class(0x20)
    9706              
    9707              
    9708              $C$DW$T$21      .dwtag  DW_TAG_structure_type
    9709                      .dwattr $C$DW$T$21, DW_AT_name("_OFFSET_Obj_")
    9710                      .dwattr $C$DW$T$21, DW_AT_declaration
    9711                      .dwendtag $C$DW$T$21
TMS320C2000 Assembler PC v15.12.3 Wed Nov 22 00:56:17 2017

Tools Copyright (c) 1996-2015 Texas Instruments Incorporated
C:\Users\wmj\AppData\Local\Temp\0070810                              PAGE  184

    9712              
    9713              $C$DW$T$96      .dwtag  DW_TAG_pointer_type
    9714                      .dwattr $C$DW$T$96, DW_AT_type(*$C$DW$T$21)
    9715                      .dwattr $C$DW$T$96, DW_AT_address_class(0x20)
    9716              
    9717              $C$DW$T$97      .dwtag  DW_TAG_typedef
    9718                      .dwattr $C$DW$T$97, DW_AT_name("OFFSET_Handle")
    9719                      .dwattr $C$DW$T$97, DW_AT_type(*$C$DW$T$96)
    9720                      .dwattr $C$DW$T$97, DW_AT_language(DW_LANG_C)
    9721              
    9722              
    9723              $C$DW$T$98      .dwtag  DW_TAG_array_type
    9724                      .dwattr $C$DW$T$98, DW_AT_type(*$C$DW$T$97)
    9725                      .dwattr $C$DW$T$98, DW_AT_language(DW_LANG_C)
    9726                      .dwattr $C$DW$T$98, DW_AT_byte_size(0x06)
    9727              $C$DW$877       .dwtag  DW_TAG_subrange_type
    9728                      .dwattr $C$DW$877, DW_AT_upper_bound(0x02)
    9729              
    9730                      .dwendtag $C$DW$T$98
    9731              
    9732              
    9733              $C$DW$T$138     .dwtag  DW_TAG_structure_type
    9734                      .dwattr $C$DW$T$138, DW_AT_name("_OSC_Obj_")
    9735                      .dwattr $C$DW$T$138, DW_AT_byte_size(0x03)
    9736              $C$DW$878       .dwtag  DW_TAG_member
    9737                      .dwattr $C$DW$878, DW_AT_type(*$C$DW$T$23)
    9738                      .dwattr $C$DW$878, DW_AT_name("INTOSC1TRIM")
    9739                      .dwattr $C$DW$878, DW_AT_TI_symbol_name("_INTOSC1TRIM")
    9740                      .dwattr $C$DW$878, DW_AT_data_member_location[DW_OP_plus_uconst 0x0]
    9741                      .dwattr $C$DW$878, DW_AT_accessibility(DW_ACCESS_public)
    9742              
    9743              $C$DW$879       .dwtag  DW_TAG_member
    9744                      .dwattr $C$DW$879, DW_AT_type(*$C$DW$T$23)
    9745                      .dwattr $C$DW$879, DW_AT_name("rsvd_1")
    9746                      .dwattr $C$DW$879, DW_AT_TI_symbol_name("_rsvd_1")
    9747                      .dwattr $C$DW$879, DW_AT_data_member_location[DW_OP_plus_uconst 0x1]
    9748                      .dwattr $C$DW$879, DW_AT_accessibility(DW_ACCESS_public)
    9749              
    9750              $C$DW$880       .dwtag  DW_TAG_member
    9751                      .dwattr $C$DW$880, DW_AT_type(*$C$DW$T$23)
    9752                      .dwattr $C$DW$880, DW_AT_name("INTOSC2TRIM")
    9753                      .dwattr $C$DW$880, DW_AT_TI_symbol_name("_INTOSC2TRIM")
    9754                      .dwattr $C$DW$880, DW_AT_data_member_location[DW_OP_plus_uconst 0x2]
    9755                      .dwattr $C$DW$880, DW_AT_accessibility(DW_ACCESS_public)
    9756              
    9757                      .dwendtag $C$DW$T$138
    9758              
    9759              $C$DW$T$101     .dwtag  DW_TAG_pointer_type
    9760                      .dwattr $C$DW$T$101, DW_AT_type(*$C$DW$T$138)
    9761                      .dwattr $C$DW$T$101, DW_AT_address_class(0x20)
    9762              
    9763              $C$DW$T$102     .dwtag  DW_TAG_typedef
    9764                      .dwattr $C$DW$T$102, DW_AT_name("OSC_Handle")
    9765                      .dwattr $C$DW$T$102, DW_AT_type(*$C$DW$T$101)
    9766                      .dwattr $C$DW$T$102, DW_AT_language(DW_LANG_C)
TMS320C2000 Assembler PC v15.12.3 Wed Nov 22 00:56:17 2017

Tools Copyright (c) 1996-2015 Texas Instruments Incorporated
C:\Users\wmj\AppData\Local\Temp\0070810                              PAGE  185

    9767              
    9768              
    9769              $C$DW$T$139     .dwtag  DW_TAG_structure_type
    9770                      .dwattr $C$DW$T$139, DW_AT_name("_PARK_Obj_")
    9771                      .dwattr $C$DW$T$139, DW_AT_byte_size(0x04)
    9772              $C$DW$881       .dwtag  DW_TAG_member
    9773                      .dwattr $C$DW$881, DW_AT_type(*$C$DW$T$31)
    9774                      .dwattr $C$DW$881, DW_AT_name("sinTh")
    9775                      .dwattr $C$DW$881, DW_AT_TI_symbol_name("_sinTh")
    9776                      .dwattr $C$DW$881, DW_AT_data_member_location[DW_OP_plus_uconst 0x0]
    9777                      .dwattr $C$DW$881, DW_AT_accessibility(DW_ACCESS_public)
    9778              
    9779              $C$DW$882       .dwtag  DW_TAG_member
    9780                      .dwattr $C$DW$882, DW_AT_type(*$C$DW$T$31)
    9781                      .dwattr $C$DW$882, DW_AT_name("cosTh")
    9782                      .dwattr $C$DW$882, DW_AT_TI_symbol_name("_cosTh")
    9783                      .dwattr $C$DW$882, DW_AT_data_member_location[DW_OP_plus_uconst 0x2]
    9784                      .dwattr $C$DW$882, DW_AT_accessibility(DW_ACCESS_public)
    9785              
    9786                      .dwendtag $C$DW$T$139
    9787              
    9788              $C$DW$T$52      .dwtag  DW_TAG_typedef
    9789                      .dwattr $C$DW$T$52, DW_AT_name("PARK_Obj")
    9790                      .dwattr $C$DW$T$52, DW_AT_type(*$C$DW$T$139)
    9791                      .dwattr $C$DW$T$52, DW_AT_language(DW_LANG_C)
    9792              
    9793              $C$DW$T$228     .dwtag  DW_TAG_pointer_type
    9794                      .dwattr $C$DW$T$228, DW_AT_type(*$C$DW$T$52)
    9795                      .dwattr $C$DW$T$228, DW_AT_address_class(0x20)
    9796              
    9797              $C$DW$T$50      .dwtag  DW_TAG_pointer_type
    9798                      .dwattr $C$DW$T$50, DW_AT_type(*$C$DW$T$139)
    9799                      .dwattr $C$DW$T$50, DW_AT_address_class(0x20)
    9800              
    9801              $C$DW$T$51      .dwtag  DW_TAG_typedef
    9802                      .dwattr $C$DW$T$51, DW_AT_name("PARK_Handle")
    9803                      .dwattr $C$DW$T$51, DW_AT_type(*$C$DW$T$50)
    9804                      .dwattr $C$DW$T$51, DW_AT_language(DW_LANG_C)
    9805              
    9806              
    9807              $C$DW$T$140     .dwtag  DW_TAG_structure_type
    9808                      .dwattr $C$DW$T$140, DW_AT_name("_PID_Obj_")
    9809                      .dwattr $C$DW$T$140, DW_AT_byte_size(0x10)
    9810              $C$DW$883       .dwtag  DW_TAG_member
    9811                      .dwattr $C$DW$883, DW_AT_type(*$C$DW$T$31)
    9812                      .dwattr $C$DW$883, DW_AT_name("Kp")
    9813                      .dwattr $C$DW$883, DW_AT_TI_symbol_name("_Kp")
    9814                      .dwattr $C$DW$883, DW_AT_data_member_location[DW_OP_plus_uconst 0x0]
    9815                      .dwattr $C$DW$883, DW_AT_accessibility(DW_ACCESS_public)
    9816              
    9817              $C$DW$884       .dwtag  DW_TAG_member
    9818                      .dwattr $C$DW$884, DW_AT_type(*$C$DW$T$31)
    9819                      .dwattr $C$DW$884, DW_AT_name("Ki")
    9820                      .dwattr $C$DW$884, DW_AT_TI_symbol_name("_Ki")
    9821                      .dwattr $C$DW$884, DW_AT_data_member_location[DW_OP_plus_uconst 0x2]
TMS320C2000 Assembler PC v15.12.3 Wed Nov 22 00:56:17 2017

Tools Copyright (c) 1996-2015 Texas Instruments Incorporated
C:\Users\wmj\AppData\Local\Temp\0070810                              PAGE  186

    9822                      .dwattr $C$DW$884, DW_AT_accessibility(DW_ACCESS_public)
    9823              
    9824              $C$DW$885       .dwtag  DW_TAG_member
    9825                      .dwattr $C$DW$885, DW_AT_type(*$C$DW$T$31)
    9826                      .dwattr $C$DW$885, DW_AT_name("Kd")
    9827                      .dwattr $C$DW$885, DW_AT_TI_symbol_name("_Kd")
    9828                      .dwattr $C$DW$885, DW_AT_data_member_location[DW_OP_plus_uconst 0x4]
    9829                      .dwattr $C$DW$885, DW_AT_accessibility(DW_ACCESS_public)
    9830              
    9831              $C$DW$886       .dwtag  DW_TAG_member
    9832                      .dwattr $C$DW$886, DW_AT_type(*$C$DW$T$31)
    9833                      .dwattr $C$DW$886, DW_AT_name("Ui")
    9834                      .dwattr $C$DW$886, DW_AT_TI_symbol_name("_Ui")
    9835                      .dwattr $C$DW$886, DW_AT_data_member_location[DW_OP_plus_uconst 0x6]
    9836                      .dwattr $C$DW$886, DW_AT_accessibility(DW_ACCESS_public)
    9837              
    9838              $C$DW$887       .dwtag  DW_TAG_member
    9839                      .dwattr $C$DW$887, DW_AT_type(*$C$DW$T$31)
    9840                      .dwattr $C$DW$887, DW_AT_name("refValue")
    9841                      .dwattr $C$DW$887, DW_AT_TI_symbol_name("_refValue")
    9842                      .dwattr $C$DW$887, DW_AT_data_member_location[DW_OP_plus_uconst 0x8]
    9843                      .dwattr $C$DW$887, DW_AT_accessibility(DW_ACCESS_public)
    9844              
    9845              $C$DW$888       .dwtag  DW_TAG_member
    9846                      .dwattr $C$DW$888, DW_AT_type(*$C$DW$T$31)
    9847                      .dwattr $C$DW$888, DW_AT_name("fbackValue")
    9848                      .dwattr $C$DW$888, DW_AT_TI_symbol_name("_fbackValue")
    9849                      .dwattr $C$DW$888, DW_AT_data_member_location[DW_OP_plus_uconst 0xa]
    9850                      .dwattr $C$DW$888, DW_AT_accessibility(DW_ACCESS_public)
    9851              
    9852              $C$DW$889       .dwtag  DW_TAG_member
    9853                      .dwattr $C$DW$889, DW_AT_type(*$C$DW$T$31)
    9854                      .dwattr $C$DW$889, DW_AT_name("outMin")
    9855                      .dwattr $C$DW$889, DW_AT_TI_symbol_name("_outMin")
    9856                      .dwattr $C$DW$889, DW_AT_data_member_location[DW_OP_plus_uconst 0xc]
    9857                      .dwattr $C$DW$889, DW_AT_accessibility(DW_ACCESS_public)
    9858              
    9859              $C$DW$890       .dwtag  DW_TAG_member
    9860                      .dwattr $C$DW$890, DW_AT_type(*$C$DW$T$31)
    9861                      .dwattr $C$DW$890, DW_AT_name("outMax")
    9862                      .dwattr $C$DW$890, DW_AT_TI_symbol_name("_outMax")
    9863                      .dwattr $C$DW$890, DW_AT_data_member_location[DW_OP_plus_uconst 0xe]
    9864                      .dwattr $C$DW$890, DW_AT_accessibility(DW_ACCESS_public)
    9865              
    9866                      .dwendtag $C$DW$T$140
    9867              
    9868              $C$DW$T$55      .dwtag  DW_TAG_typedef
    9869                      .dwattr $C$DW$T$55, DW_AT_name("PID_Obj")
    9870                      .dwattr $C$DW$T$55, DW_AT_type(*$C$DW$T$140)
    9871                      .dwattr $C$DW$T$55, DW_AT_language(DW_LANG_C)
    9872              
    9873              $C$DW$T$229     .dwtag  DW_TAG_pointer_type
    9874                      .dwattr $C$DW$T$229, DW_AT_type(*$C$DW$T$55)
    9875                      .dwattr $C$DW$T$229, DW_AT_address_class(0x20)
    9876              
TMS320C2000 Assembler PC v15.12.3 Wed Nov 22 00:56:17 2017

Tools Copyright (c) 1996-2015 Texas Instruments Incorporated
C:\Users\wmj\AppData\Local\Temp\0070810                              PAGE  187

    9877              $C$DW$T$53      .dwtag  DW_TAG_pointer_type
    9878                      .dwattr $C$DW$T$53, DW_AT_type(*$C$DW$T$140)
    9879                      .dwattr $C$DW$T$53, DW_AT_address_class(0x20)
    9880              
    9881              $C$DW$T$54      .dwtag  DW_TAG_typedef
    9882                      .dwattr $C$DW$T$54, DW_AT_name("PID_Handle")
    9883                      .dwattr $C$DW$T$54, DW_AT_type(*$C$DW$T$53)
    9884                      .dwattr $C$DW$T$54, DW_AT_language(DW_LANG_C)
    9885              
    9886              
    9887              $C$DW$T$141     .dwtag  DW_TAG_structure_type
    9888                      .dwattr $C$DW$T$141, DW_AT_name("_PIE_IERIFR_t")
    9889                      .dwattr $C$DW$T$141, DW_AT_byte_size(0x02)
    9890              $C$DW$891       .dwtag  DW_TAG_member
    9891                      .dwattr $C$DW$891, DW_AT_type(*$C$DW$T$23)
    9892                      .dwattr $C$DW$891, DW_AT_name("IER")
    9893                      .dwattr $C$DW$891, DW_AT_TI_symbol_name("_IER")
    9894                      .dwattr $C$DW$891, DW_AT_data_member_location[DW_OP_plus_uconst 0x0]
    9895                      .dwattr $C$DW$891, DW_AT_accessibility(DW_ACCESS_public)
    9896              
    9897              $C$DW$892       .dwtag  DW_TAG_member
    9898                      .dwattr $C$DW$892, DW_AT_type(*$C$DW$T$23)
    9899                      .dwattr $C$DW$892, DW_AT_name("IFR")
    9900                      .dwattr $C$DW$892, DW_AT_TI_symbol_name("_IFR")
    9901                      .dwattr $C$DW$892, DW_AT_data_member_location[DW_OP_plus_uconst 0x1]
    9902                      .dwattr $C$DW$892, DW_AT_accessibility(DW_ACCESS_public)
    9903              
    9904                      .dwendtag $C$DW$T$141
    9905              
    9906              $C$DW$T$142     .dwtag  DW_TAG_typedef
    9907                      .dwattr $C$DW$T$142, DW_AT_name("PIE_IERIFR_t")
    9908                      .dwattr $C$DW$T$142, DW_AT_type(*$C$DW$T$141)
    9909                      .dwattr $C$DW$T$142, DW_AT_language(DW_LANG_C)
    9910              
    9911              $C$DW$893       .dwtag  DW_TAG_TI_far_type
    9912                      .dwattr $C$DW$893, DW_AT_type(*$C$DW$T$142)
    9913              
    9914              $C$DW$T$143     .dwtag  DW_TAG_volatile_type
    9915                      .dwattr $C$DW$T$143, DW_AT_type(*$C$DW$893)
    9916              
    9917              
    9918              $C$DW$T$144     .dwtag  DW_TAG_array_type
    9919                      .dwattr $C$DW$T$144, DW_AT_type(*$C$DW$T$143)
    9920                      .dwattr $C$DW$T$144, DW_AT_language(DW_LANG_C)
    9921                      .dwattr $C$DW$T$144, DW_AT_byte_size(0x18)
    9922              $C$DW$894       .dwtag  DW_TAG_subrange_type
    9923                      .dwattr $C$DW$894, DW_AT_upper_bound(0x0b)
    9924              
    9925                      .dwendtag $C$DW$T$144
    9926              
    9927              
    9928              $C$DW$T$151     .dwtag  DW_TAG_structure_type
    9929                      .dwattr $C$DW$T$151, DW_AT_name("_PIE_Obj_")
    9930                      .dwattr $C$DW$T$151, DW_AT_byte_size(0x639c)
    9931              $C$DW$895       .dwtag  DW_TAG_member
TMS320C2000 Assembler PC v15.12.3 Wed Nov 22 00:56:17 2017

Tools Copyright (c) 1996-2015 Texas Instruments Incorporated
C:\Users\wmj\AppData\Local\Temp\0070810                              PAGE  188

    9932                      .dwattr $C$DW$895, DW_AT_type(*$C$DW$T$23)
    9933                      .dwattr $C$DW$895, DW_AT_name("PIECTRL")
    9934                      .dwattr $C$DW$895, DW_AT_TI_symbol_name("_PIECTRL")
    9935                      .dwattr $C$DW$895, DW_AT_data_member_location[DW_OP_plus_uconst 0x0]
    9936                      .dwattr $C$DW$895, DW_AT_accessibility(DW_ACCESS_public)
    9937              
    9938              $C$DW$896       .dwtag  DW_TAG_member
    9939                      .dwattr $C$DW$896, DW_AT_type(*$C$DW$T$23)
    9940                      .dwattr $C$DW$896, DW_AT_name("PIEACK")
    9941                      .dwattr $C$DW$896, DW_AT_TI_symbol_name("_PIEACK")
    9942                      .dwattr $C$DW$896, DW_AT_data_member_location[DW_OP_plus_uconst 0x1]
    9943                      .dwattr $C$DW$896, DW_AT_accessibility(DW_ACCESS_public)
    9944              
    9945              $C$DW$897       .dwtag  DW_TAG_member
    9946                      .dwattr $C$DW$897, DW_AT_type(*$C$DW$T$144)
    9947                      .dwattr $C$DW$897, DW_AT_name("PIEIER_PIEIFR")
    9948                      .dwattr $C$DW$897, DW_AT_TI_symbol_name("_PIEIER_PIEIFR")
    9949                      .dwattr $C$DW$897, DW_AT_data_member_location[DW_OP_plus_uconst 0x2]
    9950                      .dwattr $C$DW$897, DW_AT_accessibility(DW_ACCESS_public)
    9951              
    9952              $C$DW$898       .dwtag  DW_TAG_member
    9953                      .dwattr $C$DW$898, DW_AT_type(*$C$DW$T$145)
    9954                      .dwattr $C$DW$898, DW_AT_name("rsvd_1")
    9955                      .dwattr $C$DW$898, DW_AT_TI_symbol_name("_rsvd_1")
    9956                      .dwattr $C$DW$898, DW_AT_data_member_location[DW_OP_plus_uconst 0x1a]
    9957                      .dwattr $C$DW$898, DW_AT_accessibility(DW_ACCESS_public)
    9958              
    9959              $C$DW$899       .dwtag  DW_TAG_member
    9960                      .dwattr $C$DW$899, DW_AT_type(*$C$DW$T$149)
    9961                      .dwattr $C$DW$899, DW_AT_name("Reset")
    9962                      .dwattr $C$DW$899, DW_AT_TI_symbol_name("_Reset")
    9963                      .dwattr $C$DW$899, DW_AT_data_member_location[DW_OP_plus_uconst 0x20]
    9964                      .dwattr $C$DW$899, DW_AT_accessibility(DW_ACCESS_public)
    9965              
    9966              $C$DW$900       .dwtag  DW_TAG_member
    9967                      .dwattr $C$DW$900, DW_AT_type(*$C$DW$T$149)
    9968                      .dwattr $C$DW$900, DW_AT_name("INT1")
    9969                      .dwattr $C$DW$900, DW_AT_TI_symbol_name("_INT1")
    9970                      .dwattr $C$DW$900, DW_AT_data_member_location[DW_OP_plus_uconst 0x22]
    9971                      .dwattr $C$DW$900, DW_AT_accessibility(DW_ACCESS_public)
    9972              
    9973              $C$DW$901       .dwtag  DW_TAG_member
    9974                      .dwattr $C$DW$901, DW_AT_type(*$C$DW$T$149)
    9975                      .dwattr $C$DW$901, DW_AT_name("INT2")
    9976                      .dwattr $C$DW$901, DW_AT_TI_symbol_name("_INT2")
    9977                      .dwattr $C$DW$901, DW_AT_data_member_location[DW_OP_plus_uconst 0x24]
    9978                      .dwattr $C$DW$901, DW_AT_accessibility(DW_ACCESS_public)
    9979              
    9980              $C$DW$902       .dwtag  DW_TAG_member
    9981                      .dwattr $C$DW$902, DW_AT_type(*$C$DW$T$149)
    9982                      .dwattr $C$DW$902, DW_AT_name("INT3")
    9983                      .dwattr $C$DW$902, DW_AT_TI_symbol_name("_INT3")
    9984                      .dwattr $C$DW$902, DW_AT_data_member_location[DW_OP_plus_uconst 0x26]
    9985                      .dwattr $C$DW$902, DW_AT_accessibility(DW_ACCESS_public)
    9986              
TMS320C2000 Assembler PC v15.12.3 Wed Nov 22 00:56:17 2017

Tools Copyright (c) 1996-2015 Texas Instruments Incorporated
C:\Users\wmj\AppData\Local\Temp\0070810                              PAGE  189

    9987              $C$DW$903       .dwtag  DW_TAG_member
    9988                      .dwattr $C$DW$903, DW_AT_type(*$C$DW$T$149)
    9989                      .dwattr $C$DW$903, DW_AT_name("INT4")
    9990                      .dwattr $C$DW$903, DW_AT_TI_symbol_name("_INT4")
    9991                      .dwattr $C$DW$903, DW_AT_data_member_location[DW_OP_plus_uconst 0x28]
    9992                      .dwattr $C$DW$903, DW_AT_accessibility(DW_ACCESS_public)
    9993              
    9994              $C$DW$904       .dwtag  DW_TAG_member
    9995                      .dwattr $C$DW$904, DW_AT_type(*$C$DW$T$149)
    9996                      .dwattr $C$DW$904, DW_AT_name("INT5")
    9997                      .dwattr $C$DW$904, DW_AT_TI_symbol_name("_INT5")
    9998                      .dwattr $C$DW$904, DW_AT_data_member_location[DW_OP_plus_uconst 0x2a]
    9999                      .dwattr $C$DW$904, DW_AT_accessibility(DW_ACCESS_public)
   10000              
   10001              $C$DW$905       .dwtag  DW_TAG_member
   10002                      .dwattr $C$DW$905, DW_AT_type(*$C$DW$T$149)
   10003                      .dwattr $C$DW$905, DW_AT_name("INT6")
   10004                      .dwattr $C$DW$905, DW_AT_TI_symbol_name("_INT6")
   10005                      .dwattr $C$DW$905, DW_AT_data_member_location[DW_OP_plus_uconst 0x2c]
   10006                      .dwattr $C$DW$905, DW_AT_accessibility(DW_ACCESS_public)
   10007              
   10008              $C$DW$906       .dwtag  DW_TAG_member
   10009                      .dwattr $C$DW$906, DW_AT_type(*$C$DW$T$149)
   10010                      .dwattr $C$DW$906, DW_AT_name("INT7")
   10011                      .dwattr $C$DW$906, DW_AT_TI_symbol_name("_INT7")
   10012                      .dwattr $C$DW$906, DW_AT_data_member_location[DW_OP_plus_uconst 0x2e]
   10013                      .dwattr $C$DW$906, DW_AT_accessibility(DW_ACCESS_public)
   10014              
   10015              $C$DW$907       .dwtag  DW_TAG_member
   10016                      .dwattr $C$DW$907, DW_AT_type(*$C$DW$T$149)
   10017                      .dwattr $C$DW$907, DW_AT_name("INT8")
   10018                      .dwattr $C$DW$907, DW_AT_TI_symbol_name("_INT8")
   10019                      .dwattr $C$DW$907, DW_AT_data_member_location[DW_OP_plus_uconst 0x30]
   10020                      .dwattr $C$DW$907, DW_AT_accessibility(DW_ACCESS_public)
   10021              
   10022              $C$DW$908       .dwtag  DW_TAG_member
   10023                      .dwattr $C$DW$908, DW_AT_type(*$C$DW$T$149)
   10024                      .dwattr $C$DW$908, DW_AT_name("INT9")
   10025                      .dwattr $C$DW$908, DW_AT_TI_symbol_name("_INT9")
   10026                      .dwattr $C$DW$908, DW_AT_data_member_location[DW_OP_plus_uconst 0x32]
   10027                      .dwattr $C$DW$908, DW_AT_accessibility(DW_ACCESS_public)
   10028              
   10029              $C$DW$909       .dwtag  DW_TAG_member
   10030                      .dwattr $C$DW$909, DW_AT_type(*$C$DW$T$149)
   10031                      .dwattr $C$DW$909, DW_AT_name("INT10")
   10032                      .dwattr $C$DW$909, DW_AT_TI_symbol_name("_INT10")
   10033                      .dwattr $C$DW$909, DW_AT_data_member_location[DW_OP_plus_uconst 0x34]
   10034                      .dwattr $C$DW$909, DW_AT_accessibility(DW_ACCESS_public)
   10035              
   10036              $C$DW$910       .dwtag  DW_TAG_member
   10037                      .dwattr $C$DW$910, DW_AT_type(*$C$DW$T$149)
   10038                      .dwattr $C$DW$910, DW_AT_name("INT11")
   10039                      .dwattr $C$DW$910, DW_AT_TI_symbol_name("_INT11")
   10040                      .dwattr $C$DW$910, DW_AT_data_member_location[DW_OP_plus_uconst 0x36]
   10041                      .dwattr $C$DW$910, DW_AT_accessibility(DW_ACCESS_public)
TMS320C2000 Assembler PC v15.12.3 Wed Nov 22 00:56:17 2017

Tools Copyright (c) 1996-2015 Texas Instruments Incorporated
C:\Users\wmj\AppData\Local\Temp\0070810                              PAGE  190

   10042              
   10043              $C$DW$911       .dwtag  DW_TAG_member
   10044                      .dwattr $C$DW$911, DW_AT_type(*$C$DW$T$149)
   10045                      .dwattr $C$DW$911, DW_AT_name("INT12")
   10046                      .dwattr $C$DW$911, DW_AT_TI_symbol_name("_INT12")
   10047                      .dwattr $C$DW$911, DW_AT_data_member_location[DW_OP_plus_uconst 0x38]
   10048                      .dwattr $C$DW$911, DW_AT_accessibility(DW_ACCESS_public)
   10049              
   10050              $C$DW$912       .dwtag  DW_TAG_member
   10051                      .dwattr $C$DW$912, DW_AT_type(*$C$DW$T$149)
   10052                      .dwattr $C$DW$912, DW_AT_name("TINT1")
   10053                      .dwattr $C$DW$912, DW_AT_TI_symbol_name("_TINT1")
   10054                      .dwattr $C$DW$912, DW_AT_data_member_location[DW_OP_plus_uconst 0x3a]
   10055                      .dwattr $C$DW$912, DW_AT_accessibility(DW_ACCESS_public)
   10056              
   10057              $C$DW$913       .dwtag  DW_TAG_member
   10058                      .dwattr $C$DW$913, DW_AT_type(*$C$DW$T$149)
   10059                      .dwattr $C$DW$913, DW_AT_name("TINT2")
   10060                      .dwattr $C$DW$913, DW_AT_TI_symbol_name("_TINT2")
   10061                      .dwattr $C$DW$913, DW_AT_data_member_location[DW_OP_plus_uconst 0x3c]
   10062                      .dwattr $C$DW$913, DW_AT_accessibility(DW_ACCESS_public)
   10063              
   10064              $C$DW$914       .dwtag  DW_TAG_member
   10065                      .dwattr $C$DW$914, DW_AT_type(*$C$DW$T$149)
   10066                      .dwattr $C$DW$914, DW_AT_name("DATALOG")
   10067                      .dwattr $C$DW$914, DW_AT_TI_symbol_name("_DATALOG")
   10068                      .dwattr $C$DW$914, DW_AT_data_member_location[DW_OP_plus_uconst 0x3e]
   10069                      .dwattr $C$DW$914, DW_AT_accessibility(DW_ACCESS_public)
   10070              
   10071              $C$DW$915       .dwtag  DW_TAG_member
   10072                      .dwattr $C$DW$915, DW_AT_type(*$C$DW$T$149)
   10073                      .dwattr $C$DW$915, DW_AT_name("RTOSINT")
   10074                      .dwattr $C$DW$915, DW_AT_TI_symbol_name("_RTOSINT")
   10075                      .dwattr $C$DW$915, DW_AT_data_member_location[DW_OP_plus_uconst 0x40]
   10076                      .dwattr $C$DW$915, DW_AT_accessibility(DW_ACCESS_public)
   10077              
   10078              $C$DW$916       .dwtag  DW_TAG_member
   10079                      .dwattr $C$DW$916, DW_AT_type(*$C$DW$T$149)
   10080                      .dwattr $C$DW$916, DW_AT_name("EMUINT")
   10081                      .dwattr $C$DW$916, DW_AT_TI_symbol_name("_EMUINT")
   10082                      .dwattr $C$DW$916, DW_AT_data_member_location[DW_OP_plus_uconst 0x42]
   10083                      .dwattr $C$DW$916, DW_AT_accessibility(DW_ACCESS_public)
   10084              
   10085              $C$DW$917       .dwtag  DW_TAG_member
   10086                      .dwattr $C$DW$917, DW_AT_type(*$C$DW$T$149)
   10087                      .dwattr $C$DW$917, DW_AT_name("NMI")
   10088                      .dwattr $C$DW$917, DW_AT_TI_symbol_name("_NMI")
   10089                      .dwattr $C$DW$917, DW_AT_data_member_location[DW_OP_plus_uconst 0x44]
   10090                      .dwattr $C$DW$917, DW_AT_accessibility(DW_ACCESS_public)
   10091              
   10092              $C$DW$918       .dwtag  DW_TAG_member
   10093                      .dwattr $C$DW$918, DW_AT_type(*$C$DW$T$149)
   10094                      .dwattr $C$DW$918, DW_AT_name("ILLEGAL")
   10095                      .dwattr $C$DW$918, DW_AT_TI_symbol_name("_ILLEGAL")
   10096                      .dwattr $C$DW$918, DW_AT_data_member_location[DW_OP_plus_uconst 0x46]
TMS320C2000 Assembler PC v15.12.3 Wed Nov 22 00:56:17 2017

Tools Copyright (c) 1996-2015 Texas Instruments Incorporated
C:\Users\wmj\AppData\Local\Temp\0070810                              PAGE  191

   10097                      .dwattr $C$DW$918, DW_AT_accessibility(DW_ACCESS_public)
   10098              
   10099              $C$DW$919       .dwtag  DW_TAG_member
   10100                      .dwattr $C$DW$919, DW_AT_type(*$C$DW$T$149)
   10101                      .dwattr $C$DW$919, DW_AT_name("USER1")
   10102                      .dwattr $C$DW$919, DW_AT_TI_symbol_name("_USER1")
   10103                      .dwattr $C$DW$919, DW_AT_data_member_location[DW_OP_plus_uconst 0x48]
   10104                      .dwattr $C$DW$919, DW_AT_accessibility(DW_ACCESS_public)
   10105              
   10106              $C$DW$920       .dwtag  DW_TAG_member
   10107                      .dwattr $C$DW$920, DW_AT_type(*$C$DW$T$149)
   10108                      .dwattr $C$DW$920, DW_AT_name("USER2")
   10109                      .dwattr $C$DW$920, DW_AT_TI_symbol_name("_USER2")
   10110                      .dwattr $C$DW$920, DW_AT_data_member_location[DW_OP_plus_uconst 0x4a]
   10111                      .dwattr $C$DW$920, DW_AT_accessibility(DW_ACCESS_public)
   10112              
   10113              $C$DW$921       .dwtag  DW_TAG_member
   10114                      .dwattr $C$DW$921, DW_AT_type(*$C$DW$T$149)
   10115                      .dwattr $C$DW$921, DW_AT_name("USER3")
   10116                      .dwattr $C$DW$921, DW_AT_TI_symbol_name("_USER3")
   10117                      .dwattr $C$DW$921, DW_AT_data_member_location[DW_OP_plus_uconst 0x4c]
   10118                      .dwattr $C$DW$921, DW_AT_accessibility(DW_ACCESS_public)
   10119              
   10120              $C$DW$922       .dwtag  DW_TAG_member
   10121                      .dwattr $C$DW$922, DW_AT_type(*$C$DW$T$149)
   10122                      .dwattr $C$DW$922, DW_AT_name("USER4")
   10123                      .dwattr $C$DW$922, DW_AT_TI_symbol_name("_USER4")
   10124                      .dwattr $C$DW$922, DW_AT_data_member_location[DW_OP_plus_uconst 0x4e]
   10125                      .dwattr $C$DW$922, DW_AT_accessibility(DW_ACCESS_public)
   10126              
   10127              $C$DW$923       .dwtag  DW_TAG_member
   10128                      .dwattr $C$DW$923, DW_AT_type(*$C$DW$T$149)
   10129                      .dwattr $C$DW$923, DW_AT_name("USER5")
   10130                      .dwattr $C$DW$923, DW_AT_TI_symbol_name("_USER5")
   10131                      .dwattr $C$DW$923, DW_AT_data_member_location[DW_OP_plus_uconst 0x50]
   10132                      .dwattr $C$DW$923, DW_AT_accessibility(DW_ACCESS_public)
   10133              
   10134              $C$DW$924       .dwtag  DW_TAG_member
   10135                      .dwattr $C$DW$924, DW_AT_type(*$C$DW$T$149)
   10136                      .dwattr $C$DW$924, DW_AT_name("USER6")
   10137                      .dwattr $C$DW$924, DW_AT_TI_symbol_name("_USER6")
   10138                      .dwattr $C$DW$924, DW_AT_data_member_location[DW_OP_plus_uconst 0x52]
   10139                      .dwattr $C$DW$924, DW_AT_accessibility(DW_ACCESS_public)
   10140              
   10141              $C$DW$925       .dwtag  DW_TAG_member
   10142                      .dwattr $C$DW$925, DW_AT_type(*$C$DW$T$149)
   10143                      .dwattr $C$DW$925, DW_AT_name("USER7")
   10144                      .dwattr $C$DW$925, DW_AT_TI_symbol_name("_USER7")
   10145                      .dwattr $C$DW$925, DW_AT_data_member_location[DW_OP_plus_uconst 0x54]
   10146                      .dwattr $C$DW$925, DW_AT_accessibility(DW_ACCESS_public)
   10147              
   10148              $C$DW$926       .dwtag  DW_TAG_member
   10149                      .dwattr $C$DW$926, DW_AT_type(*$C$DW$T$149)
   10150                      .dwattr $C$DW$926, DW_AT_name("USER8")
   10151                      .dwattr $C$DW$926, DW_AT_TI_symbol_name("_USER8")
TMS320C2000 Assembler PC v15.12.3 Wed Nov 22 00:56:17 2017

Tools Copyright (c) 1996-2015 Texas Instruments Incorporated
C:\Users\wmj\AppData\Local\Temp\0070810                              PAGE  192

   10152                      .dwattr $C$DW$926, DW_AT_data_member_location[DW_OP_plus_uconst 0x56]
   10153                      .dwattr $C$DW$926, DW_AT_accessibility(DW_ACCESS_public)
   10154              
   10155              $C$DW$927       .dwtag  DW_TAG_member
   10156                      .dwattr $C$DW$927, DW_AT_type(*$C$DW$T$149)
   10157                      .dwattr $C$DW$927, DW_AT_name("USER9")
   10158                      .dwattr $C$DW$927, DW_AT_TI_symbol_name("_USER9")
   10159                      .dwattr $C$DW$927, DW_AT_data_member_location[DW_OP_plus_uconst 0x58]
   10160                      .dwattr $C$DW$927, DW_AT_accessibility(DW_ACCESS_public)
   10161              
   10162              $C$DW$928       .dwtag  DW_TAG_member
   10163                      .dwattr $C$DW$928, DW_AT_type(*$C$DW$T$149)
   10164                      .dwattr $C$DW$928, DW_AT_name("USER10")
   10165                      .dwattr $C$DW$928, DW_AT_TI_symbol_name("_USER10")
   10166                      .dwattr $C$DW$928, DW_AT_data_member_location[DW_OP_plus_uconst 0x5a]
   10167                      .dwattr $C$DW$928, DW_AT_accessibility(DW_ACCESS_public)
   10168              
   10169              $C$DW$929       .dwtag  DW_TAG_member
   10170                      .dwattr $C$DW$929, DW_AT_type(*$C$DW$T$149)
   10171                      .dwattr $C$DW$929, DW_AT_name("USER11")
   10172                      .dwattr $C$DW$929, DW_AT_TI_symbol_name("_USER11")
   10173                      .dwattr $C$DW$929, DW_AT_data_member_location[DW_OP_plus_uconst 0x5c]
   10174                      .dwattr $C$DW$929, DW_AT_accessibility(DW_ACCESS_public)
   10175              
   10176              $C$DW$930       .dwtag  DW_TAG_member
   10177                      .dwattr $C$DW$930, DW_AT_type(*$C$DW$T$149)
   10178                      .dwattr $C$DW$930, DW_AT_name("USER12")
   10179                      .dwattr $C$DW$930, DW_AT_TI_symbol_name("_USER12")
   10180                      .dwattr $C$DW$930, DW_AT_data_member_location[DW_OP_plus_uconst 0x5e]
   10181                      .dwattr $C$DW$930, DW_AT_accessibility(DW_ACCESS_public)
   10182              
   10183              $C$DW$931       .dwtag  DW_TAG_member
   10184                      .dwattr $C$DW$931, DW_AT_type(*$C$DW$T$149)
   10185                      .dwattr $C$DW$931, DW_AT_name("ADCINT1_HP")
   10186                      .dwattr $C$DW$931, DW_AT_TI_symbol_name("_ADCINT1_HP")
   10187                      .dwattr $C$DW$931, DW_AT_data_member_location[DW_OP_plus_uconst 0x60]
   10188                      .dwattr $C$DW$931, DW_AT_accessibility(DW_ACCESS_public)
   10189              
   10190              $C$DW$932       .dwtag  DW_TAG_member
   10191                      .dwattr $C$DW$932, DW_AT_type(*$C$DW$T$149)
   10192                      .dwattr $C$DW$932, DW_AT_name("ADCINT2_HP")
   10193                      .dwattr $C$DW$932, DW_AT_TI_symbol_name("_ADCINT2_HP")
   10194                      .dwattr $C$DW$932, DW_AT_data_member_location[DW_OP_plus_uconst 0x62]
   10195                      .dwattr $C$DW$932, DW_AT_accessibility(DW_ACCESS_public)
   10196              
   10197              $C$DW$933       .dwtag  DW_TAG_member
   10198                      .dwattr $C$DW$933, DW_AT_type(*$C$DW$T$149)
   10199                      .dwattr $C$DW$933, DW_AT_name("rsvd1_3")
   10200                      .dwattr $C$DW$933, DW_AT_TI_symbol_name("_rsvd1_3")
   10201                      .dwattr $C$DW$933, DW_AT_data_member_location[DW_OP_plus_uconst 0x64]
   10202                      .dwattr $C$DW$933, DW_AT_accessibility(DW_ACCESS_public)
   10203              
   10204              $C$DW$934       .dwtag  DW_TAG_member
   10205                      .dwattr $C$DW$934, DW_AT_type(*$C$DW$T$149)
   10206                      .dwattr $C$DW$934, DW_AT_name("XINT1")
TMS320C2000 Assembler PC v15.12.3 Wed Nov 22 00:56:17 2017

Tools Copyright (c) 1996-2015 Texas Instruments Incorporated
C:\Users\wmj\AppData\Local\Temp\0070810                              PAGE  193

   10207                      .dwattr $C$DW$934, DW_AT_TI_symbol_name("_XINT1")
   10208                      .dwattr $C$DW$934, DW_AT_data_member_location[DW_OP_plus_uconst 0x66]
   10209                      .dwattr $C$DW$934, DW_AT_accessibility(DW_ACCESS_public)
   10210              
   10211              $C$DW$935       .dwtag  DW_TAG_member
   10212                      .dwattr $C$DW$935, DW_AT_type(*$C$DW$T$149)
   10213                      .dwattr $C$DW$935, DW_AT_name("XINT2")
   10214                      .dwattr $C$DW$935, DW_AT_TI_symbol_name("_XINT2")
   10215                      .dwattr $C$DW$935, DW_AT_data_member_location[DW_OP_plus_uconst 0x68]
   10216                      .dwattr $C$DW$935, DW_AT_accessibility(DW_ACCESS_public)
   10217              
   10218              $C$DW$936       .dwtag  DW_TAG_member
   10219                      .dwattr $C$DW$936, DW_AT_type(*$C$DW$T$149)
   10220                      .dwattr $C$DW$936, DW_AT_name("ADCINT9")
   10221                      .dwattr $C$DW$936, DW_AT_TI_symbol_name("_ADCINT9")
   10222                      .dwattr $C$DW$936, DW_AT_data_member_location[DW_OP_plus_uconst 0x6a]
   10223                      .dwattr $C$DW$936, DW_AT_accessibility(DW_ACCESS_public)
   10224              
   10225              $C$DW$937       .dwtag  DW_TAG_member
   10226                      .dwattr $C$DW$937, DW_AT_type(*$C$DW$T$149)
   10227                      .dwattr $C$DW$937, DW_AT_name("TINT0")
   10228                      .dwattr $C$DW$937, DW_AT_TI_symbol_name("_TINT0")
   10229                      .dwattr $C$DW$937, DW_AT_data_member_location[DW_OP_plus_uconst 0x6c]
   10230                      .dwattr $C$DW$937, DW_AT_accessibility(DW_ACCESS_public)
   10231              
   10232              $C$DW$938       .dwtag  DW_TAG_member
   10233                      .dwattr $C$DW$938, DW_AT_type(*$C$DW$T$149)
   10234                      .dwattr $C$DW$938, DW_AT_name("WAKEINT")
   10235                      .dwattr $C$DW$938, DW_AT_TI_symbol_name("_WAKEINT")
   10236                      .dwattr $C$DW$938, DW_AT_data_member_location[DW_OP_plus_uconst 0x6e]
   10237                      .dwattr $C$DW$938, DW_AT_accessibility(DW_ACCESS_public)
   10238              
   10239              $C$DW$939       .dwtag  DW_TAG_member
   10240                      .dwattr $C$DW$939, DW_AT_type(*$C$DW$T$149)
   10241                      .dwattr $C$DW$939, DW_AT_name("EPWM1_TZINT")
   10242                      .dwattr $C$DW$939, DW_AT_TI_symbol_name("_EPWM1_TZINT")
   10243                      .dwattr $C$DW$939, DW_AT_data_member_location[DW_OP_plus_uconst 0x70]
   10244                      .dwattr $C$DW$939, DW_AT_accessibility(DW_ACCESS_public)
   10245              
   10246              $C$DW$940       .dwtag  DW_TAG_member
   10247                      .dwattr $C$DW$940, DW_AT_type(*$C$DW$T$149)
   10248                      .dwattr $C$DW$940, DW_AT_name("EPWM2_TZINT")
   10249                      .dwattr $C$DW$940, DW_AT_TI_symbol_name("_EPWM2_TZINT")
   10250                      .dwattr $C$DW$940, DW_AT_data_member_location[DW_OP_plus_uconst 0x72]
   10251                      .dwattr $C$DW$940, DW_AT_accessibility(DW_ACCESS_public)
   10252              
   10253              $C$DW$941       .dwtag  DW_TAG_member
   10254                      .dwattr $C$DW$941, DW_AT_type(*$C$DW$T$149)
   10255                      .dwattr $C$DW$941, DW_AT_name("EPWM3_TZINT")
   10256                      .dwattr $C$DW$941, DW_AT_TI_symbol_name("_EPWM3_TZINT")
   10257                      .dwattr $C$DW$941, DW_AT_data_member_location[DW_OP_plus_uconst 0x74]
   10258                      .dwattr $C$DW$941, DW_AT_accessibility(DW_ACCESS_public)
   10259              
   10260              $C$DW$942       .dwtag  DW_TAG_member
   10261                      .dwattr $C$DW$942, DW_AT_type(*$C$DW$T$149)
TMS320C2000 Assembler PC v15.12.3 Wed Nov 22 00:56:17 2017

Tools Copyright (c) 1996-2015 Texas Instruments Incorporated
C:\Users\wmj\AppData\Local\Temp\0070810                              PAGE  194

   10262                      .dwattr $C$DW$942, DW_AT_name("EPWM4_TZINT")
   10263                      .dwattr $C$DW$942, DW_AT_TI_symbol_name("_EPWM4_TZINT")
   10264                      .dwattr $C$DW$942, DW_AT_data_member_location[DW_OP_plus_uconst 0x76]
   10265                      .dwattr $C$DW$942, DW_AT_accessibility(DW_ACCESS_public)
   10266              
   10267              $C$DW$943       .dwtag  DW_TAG_member
   10268                      .dwattr $C$DW$943, DW_AT_type(*$C$DW$T$149)
   10269                      .dwattr $C$DW$943, DW_AT_name("rsvd2_5")
   10270                      .dwattr $C$DW$943, DW_AT_TI_symbol_name("_rsvd2_5")
   10271                      .dwattr $C$DW$943, DW_AT_data_member_location[DW_OP_plus_uconst 0x78]
   10272                      .dwattr $C$DW$943, DW_AT_accessibility(DW_ACCESS_public)
   10273              
   10274              $C$DW$944       .dwtag  DW_TAG_member
   10275                      .dwattr $C$DW$944, DW_AT_type(*$C$DW$T$149)
   10276                      .dwattr $C$DW$944, DW_AT_name("rsvd2_6")
   10277                      .dwattr $C$DW$944, DW_AT_TI_symbol_name("_rsvd2_6")
   10278                      .dwattr $C$DW$944, DW_AT_data_member_location[DW_OP_plus_uconst 0x7a]
   10279                      .dwattr $C$DW$944, DW_AT_accessibility(DW_ACCESS_public)
   10280              
   10281              $C$DW$945       .dwtag  DW_TAG_member
   10282                      .dwattr $C$DW$945, DW_AT_type(*$C$DW$T$149)
   10283                      .dwattr $C$DW$945, DW_AT_name("rsvd2_7")
   10284                      .dwattr $C$DW$945, DW_AT_TI_symbol_name("_rsvd2_7")
   10285                      .dwattr $C$DW$945, DW_AT_data_member_location[DW_OP_plus_uconst 0x7c]
   10286                      .dwattr $C$DW$945, DW_AT_accessibility(DW_ACCESS_public)
   10287              
   10288              $C$DW$946       .dwtag  DW_TAG_member
   10289                      .dwattr $C$DW$946, DW_AT_type(*$C$DW$T$149)
   10290                      .dwattr $C$DW$946, DW_AT_name("rsvd2_8")
   10291                      .dwattr $C$DW$946, DW_AT_TI_symbol_name("_rsvd2_8")
   10292                      .dwattr $C$DW$946, DW_AT_data_member_location[DW_OP_plus_uconst 0x7e]
   10293                      .dwattr $C$DW$946, DW_AT_accessibility(DW_ACCESS_public)
   10294              
   10295              $C$DW$947       .dwtag  DW_TAG_member
   10296                      .dwattr $C$DW$947, DW_AT_type(*$C$DW$T$149)
   10297                      .dwattr $C$DW$947, DW_AT_name("EPWM1_INT")
   10298                      .dwattr $C$DW$947, DW_AT_TI_symbol_name("_EPWM1_INT")
   10299                      .dwattr $C$DW$947, DW_AT_data_member_location[DW_OP_plus_uconst 0x80]
   10300                      .dwattr $C$DW$947, DW_AT_accessibility(DW_ACCESS_public)
   10301              
   10302              $C$DW$948       .dwtag  DW_TAG_member
   10303                      .dwattr $C$DW$948, DW_AT_type(*$C$DW$T$149)
   10304                      .dwattr $C$DW$948, DW_AT_name("EPWM2_INT")
   10305                      .dwattr $C$DW$948, DW_AT_TI_symbol_name("_EPWM2_INT")
   10306                      .dwattr $C$DW$948, DW_AT_data_member_location[DW_OP_plus_uconst 0x82]
   10307                      .dwattr $C$DW$948, DW_AT_accessibility(DW_ACCESS_public)
   10308              
   10309              $C$DW$949       .dwtag  DW_TAG_member
   10310                      .dwattr $C$DW$949, DW_AT_type(*$C$DW$T$149)
   10311                      .dwattr $C$DW$949, DW_AT_name("EPWM3_INT")
   10312                      .dwattr $C$DW$949, DW_AT_TI_symbol_name("_EPWM3_INT")
   10313                      .dwattr $C$DW$949, DW_AT_data_member_location[DW_OP_plus_uconst 0x84]
   10314                      .dwattr $C$DW$949, DW_AT_accessibility(DW_ACCESS_public)
   10315              
   10316              $C$DW$950       .dwtag  DW_TAG_member
TMS320C2000 Assembler PC v15.12.3 Wed Nov 22 00:56:17 2017

Tools Copyright (c) 1996-2015 Texas Instruments Incorporated
C:\Users\wmj\AppData\Local\Temp\0070810                              PAGE  195

   10317                      .dwattr $C$DW$950, DW_AT_type(*$C$DW$T$149)
   10318                      .dwattr $C$DW$950, DW_AT_name("EPWM4_INT")
   10319                      .dwattr $C$DW$950, DW_AT_TI_symbol_name("_EPWM4_INT")
   10320                      .dwattr $C$DW$950, DW_AT_data_member_location[DW_OP_plus_uconst 0x86]
   10321                      .dwattr $C$DW$950, DW_AT_accessibility(DW_ACCESS_public)
   10322              
   10323              $C$DW$951       .dwtag  DW_TAG_member
   10324                      .dwattr $C$DW$951, DW_AT_type(*$C$DW$T$149)
   10325                      .dwattr $C$DW$951, DW_AT_name("rsvd3_5")
   10326                      .dwattr $C$DW$951, DW_AT_TI_symbol_name("_rsvd3_5")
   10327                      .dwattr $C$DW$951, DW_AT_data_member_location[DW_OP_plus_uconst 0x88]
   10328                      .dwattr $C$DW$951, DW_AT_accessibility(DW_ACCESS_public)
   10329              
   10330              $C$DW$952       .dwtag  DW_TAG_member
   10331                      .dwattr $C$DW$952, DW_AT_type(*$C$DW$T$149)
   10332                      .dwattr $C$DW$952, DW_AT_name("rsvd3_6")
   10333                      .dwattr $C$DW$952, DW_AT_TI_symbol_name("_rsvd3_6")
   10334                      .dwattr $C$DW$952, DW_AT_data_member_location[DW_OP_plus_uconst 0x8a]
   10335                      .dwattr $C$DW$952, DW_AT_accessibility(DW_ACCESS_public)
   10336              
   10337              $C$DW$953       .dwtag  DW_TAG_member
   10338                      .dwattr $C$DW$953, DW_AT_type(*$C$DW$T$149)
   10339                      .dwattr $C$DW$953, DW_AT_name("rsvd3_7")
   10340                      .dwattr $C$DW$953, DW_AT_TI_symbol_name("_rsvd3_7")
   10341                      .dwattr $C$DW$953, DW_AT_data_member_location[DW_OP_plus_uconst 0x8c]
   10342                      .dwattr $C$DW$953, DW_AT_accessibility(DW_ACCESS_public)
   10343              
   10344              $C$DW$954       .dwtag  DW_TAG_member
   10345                      .dwattr $C$DW$954, DW_AT_type(*$C$DW$T$149)
   10346                      .dwattr $C$DW$954, DW_AT_name("rsvd3_8")
   10347                      .dwattr $C$DW$954, DW_AT_TI_symbol_name("_rsvd3_8")
   10348                      .dwattr $C$DW$954, DW_AT_data_member_location[DW_OP_plus_uconst 0x8e]
   10349                      .dwattr $C$DW$954, DW_AT_accessibility(DW_ACCESS_public)
   10350              
   10351              $C$DW$955       .dwtag  DW_TAG_member
   10352                      .dwattr $C$DW$955, DW_AT_type(*$C$DW$T$149)
   10353                      .dwattr $C$DW$955, DW_AT_name("ECAP1_INT")
   10354                      .dwattr $C$DW$955, DW_AT_TI_symbol_name("_ECAP1_INT")
   10355                      .dwattr $C$DW$955, DW_AT_data_member_location[DW_OP_plus_uconst 0x90]
   10356                      .dwattr $C$DW$955, DW_AT_accessibility(DW_ACCESS_public)
   10357              
   10358              $C$DW$956       .dwtag  DW_TAG_member
   10359                      .dwattr $C$DW$956, DW_AT_type(*$C$DW$T$149)
   10360                      .dwattr $C$DW$956, DW_AT_name("rsvd4_2")
   10361                      .dwattr $C$DW$956, DW_AT_TI_symbol_name("_rsvd4_2")
   10362                      .dwattr $C$DW$956, DW_AT_data_member_location[DW_OP_plus_uconst 0x92]
   10363                      .dwattr $C$DW$956, DW_AT_accessibility(DW_ACCESS_public)
   10364              
   10365              $C$DW$957       .dwtag  DW_TAG_member
   10366                      .dwattr $C$DW$957, DW_AT_type(*$C$DW$T$149)
   10367                      .dwattr $C$DW$957, DW_AT_name("rsvd4_3")
   10368                      .dwattr $C$DW$957, DW_AT_TI_symbol_name("_rsvd4_3")
   10369                      .dwattr $C$DW$957, DW_AT_data_member_location[DW_OP_plus_uconst 0x94]
   10370                      .dwattr $C$DW$957, DW_AT_accessibility(DW_ACCESS_public)
   10371              
TMS320C2000 Assembler PC v15.12.3 Wed Nov 22 00:56:17 2017

Tools Copyright (c) 1996-2015 Texas Instruments Incorporated
C:\Users\wmj\AppData\Local\Temp\0070810                              PAGE  196

   10372              $C$DW$958       .dwtag  DW_TAG_member
   10373                      .dwattr $C$DW$958, DW_AT_type(*$C$DW$T$149)
   10374                      .dwattr $C$DW$958, DW_AT_name("rsvd4_4")
   10375                      .dwattr $C$DW$958, DW_AT_TI_symbol_name("_rsvd4_4")
   10376                      .dwattr $C$DW$958, DW_AT_data_member_location[DW_OP_plus_uconst 0x96]
   10377                      .dwattr $C$DW$958, DW_AT_accessibility(DW_ACCESS_public)
   10378              
   10379              $C$DW$959       .dwtag  DW_TAG_member
   10380                      .dwattr $C$DW$959, DW_AT_type(*$C$DW$T$149)
   10381                      .dwattr $C$DW$959, DW_AT_name("rsvd4_5")
   10382                      .dwattr $C$DW$959, DW_AT_TI_symbol_name("_rsvd4_5")
   10383                      .dwattr $C$DW$959, DW_AT_data_member_location[DW_OP_plus_uconst 0x98]
   10384                      .dwattr $C$DW$959, DW_AT_accessibility(DW_ACCESS_public)
   10385              
   10386              $C$DW$960       .dwtag  DW_TAG_member
   10387                      .dwattr $C$DW$960, DW_AT_type(*$C$DW$T$149)
   10388                      .dwattr $C$DW$960, DW_AT_name("rsvd4_6")
   10389                      .dwattr $C$DW$960, DW_AT_TI_symbol_name("_rsvd4_6")
   10390                      .dwattr $C$DW$960, DW_AT_data_member_location[DW_OP_plus_uconst 0x9a]
   10391                      .dwattr $C$DW$960, DW_AT_accessibility(DW_ACCESS_public)
   10392              
   10393              $C$DW$961       .dwtag  DW_TAG_member
   10394                      .dwattr $C$DW$961, DW_AT_type(*$C$DW$T$149)
   10395                      .dwattr $C$DW$961, DW_AT_name("rsvd4_7")
   10396                      .dwattr $C$DW$961, DW_AT_TI_symbol_name("_rsvd4_7")
   10397                      .dwattr $C$DW$961, DW_AT_data_member_location[DW_OP_plus_uconst 0x9c]
   10398                      .dwattr $C$DW$961, DW_AT_accessibility(DW_ACCESS_public)
   10399              
   10400              $C$DW$962       .dwtag  DW_TAG_member
   10401                      .dwattr $C$DW$962, DW_AT_type(*$C$DW$T$149)
   10402                      .dwattr $C$DW$962, DW_AT_name("rsvd4_8")
   10403                      .dwattr $C$DW$962, DW_AT_TI_symbol_name("_rsvd4_8")
   10404                      .dwattr $C$DW$962, DW_AT_data_member_location[DW_OP_plus_uconst 0x9e]
   10405                      .dwattr $C$DW$962, DW_AT_accessibility(DW_ACCESS_public)
   10406              
   10407              $C$DW$963       .dwtag  DW_TAG_member
   10408                      .dwattr $C$DW$963, DW_AT_type(*$C$DW$T$149)
   10409                      .dwattr $C$DW$963, DW_AT_name("rsvd5_1")
   10410                      .dwattr $C$DW$963, DW_AT_TI_symbol_name("_rsvd5_1")
   10411                      .dwattr $C$DW$963, DW_AT_data_member_location[DW_OP_plus_uconst 0xa0]
   10412                      .dwattr $C$DW$963, DW_AT_accessibility(DW_ACCESS_public)
   10413              
   10414              $C$DW$964       .dwtag  DW_TAG_member
   10415                      .dwattr $C$DW$964, DW_AT_type(*$C$DW$T$149)
   10416                      .dwattr $C$DW$964, DW_AT_name("rsvd5_2")
   10417                      .dwattr $C$DW$964, DW_AT_TI_symbol_name("_rsvd5_2")
   10418                      .dwattr $C$DW$964, DW_AT_data_member_location[DW_OP_plus_uconst 0xa2]
   10419                      .dwattr $C$DW$964, DW_AT_accessibility(DW_ACCESS_public)
   10420              
   10421              $C$DW$965       .dwtag  DW_TAG_member
   10422                      .dwattr $C$DW$965, DW_AT_type(*$C$DW$T$149)
   10423                      .dwattr $C$DW$965, DW_AT_name("rsvd5_3")
   10424                      .dwattr $C$DW$965, DW_AT_TI_symbol_name("_rsvd5_3")
   10425                      .dwattr $C$DW$965, DW_AT_data_member_location[DW_OP_plus_uconst 0xa4]
   10426                      .dwattr $C$DW$965, DW_AT_accessibility(DW_ACCESS_public)
TMS320C2000 Assembler PC v15.12.3 Wed Nov 22 00:56:17 2017

Tools Copyright (c) 1996-2015 Texas Instruments Incorporated
C:\Users\wmj\AppData\Local\Temp\0070810                              PAGE  197

   10427              
   10428              $C$DW$966       .dwtag  DW_TAG_member
   10429                      .dwattr $C$DW$966, DW_AT_type(*$C$DW$T$149)
   10430                      .dwattr $C$DW$966, DW_AT_name("rsvd5_4")
   10431                      .dwattr $C$DW$966, DW_AT_TI_symbol_name("_rsvd5_4")
   10432                      .dwattr $C$DW$966, DW_AT_data_member_location[DW_OP_plus_uconst 0xa6]
   10433                      .dwattr $C$DW$966, DW_AT_accessibility(DW_ACCESS_public)
   10434              
   10435              $C$DW$967       .dwtag  DW_TAG_member
   10436                      .dwattr $C$DW$967, DW_AT_type(*$C$DW$T$149)
   10437                      .dwattr $C$DW$967, DW_AT_name("rsvd5_5")
   10438                      .dwattr $C$DW$967, DW_AT_TI_symbol_name("_rsvd5_5")
   10439                      .dwattr $C$DW$967, DW_AT_data_member_location[DW_OP_plus_uconst 0xa8]
   10440                      .dwattr $C$DW$967, DW_AT_accessibility(DW_ACCESS_public)
   10441              
   10442              $C$DW$968       .dwtag  DW_TAG_member
   10443                      .dwattr $C$DW$968, DW_AT_type(*$C$DW$T$149)
   10444                      .dwattr $C$DW$968, DW_AT_name("rsvd5_6")
   10445                      .dwattr $C$DW$968, DW_AT_TI_symbol_name("_rsvd5_6")
   10446                      .dwattr $C$DW$968, DW_AT_data_member_location[DW_OP_plus_uconst 0xaa]
   10447                      .dwattr $C$DW$968, DW_AT_accessibility(DW_ACCESS_public)
   10448              
   10449              $C$DW$969       .dwtag  DW_TAG_member
   10450                      .dwattr $C$DW$969, DW_AT_type(*$C$DW$T$149)
   10451                      .dwattr $C$DW$969, DW_AT_name("rsvd5_7")
   10452                      .dwattr $C$DW$969, DW_AT_TI_symbol_name("_rsvd5_7")
   10453                      .dwattr $C$DW$969, DW_AT_data_member_location[DW_OP_plus_uconst 0xac]
   10454                      .dwattr $C$DW$969, DW_AT_accessibility(DW_ACCESS_public)
   10455              
   10456              $C$DW$970       .dwtag  DW_TAG_member
   10457                      .dwattr $C$DW$970, DW_AT_type(*$C$DW$T$149)
   10458                      .dwattr $C$DW$970, DW_AT_name("rsvd5_8")
   10459                      .dwattr $C$DW$970, DW_AT_TI_symbol_name("_rsvd5_8")
   10460                      .dwattr $C$DW$970, DW_AT_data_member_location[DW_OP_plus_uconst 0xae]
   10461                      .dwattr $C$DW$970, DW_AT_accessibility(DW_ACCESS_public)
   10462              
   10463              $C$DW$971       .dwtag  DW_TAG_member
   10464                      .dwattr $C$DW$971, DW_AT_type(*$C$DW$T$149)
   10465                      .dwattr $C$DW$971, DW_AT_name("SPIRXINTA")
   10466                      .dwattr $C$DW$971, DW_AT_TI_symbol_name("_SPIRXINTA")
   10467                      .dwattr $C$DW$971, DW_AT_data_member_location[DW_OP_plus_uconst 0xb0]
   10468                      .dwattr $C$DW$971, DW_AT_accessibility(DW_ACCESS_public)
   10469              
   10470              $C$DW$972       .dwtag  DW_TAG_member
   10471                      .dwattr $C$DW$972, DW_AT_type(*$C$DW$T$149)
   10472                      .dwattr $C$DW$972, DW_AT_name("SPITXINTA")
   10473                      .dwattr $C$DW$972, DW_AT_TI_symbol_name("_SPITXINTA")
   10474                      .dwattr $C$DW$972, DW_AT_data_member_location[DW_OP_plus_uconst 0xb2]
   10475                      .dwattr $C$DW$972, DW_AT_accessibility(DW_ACCESS_public)
   10476              
   10477              $C$DW$973       .dwtag  DW_TAG_member
   10478                      .dwattr $C$DW$973, DW_AT_type(*$C$DW$T$149)
   10479                      .dwattr $C$DW$973, DW_AT_name("rsvd6_3")
   10480                      .dwattr $C$DW$973, DW_AT_TI_symbol_name("_rsvd6_3")
   10481                      .dwattr $C$DW$973, DW_AT_data_member_location[DW_OP_plus_uconst 0xb4]
TMS320C2000 Assembler PC v15.12.3 Wed Nov 22 00:56:17 2017

Tools Copyright (c) 1996-2015 Texas Instruments Incorporated
C:\Users\wmj\AppData\Local\Temp\0070810                              PAGE  198

   10482                      .dwattr $C$DW$973, DW_AT_accessibility(DW_ACCESS_public)
   10483              
   10484              $C$DW$974       .dwtag  DW_TAG_member
   10485                      .dwattr $C$DW$974, DW_AT_type(*$C$DW$T$149)
   10486                      .dwattr $C$DW$974, DW_AT_name("rsvd6_4")
   10487                      .dwattr $C$DW$974, DW_AT_TI_symbol_name("_rsvd6_4")
   10488                      .dwattr $C$DW$974, DW_AT_data_member_location[DW_OP_plus_uconst 0xb6]
   10489                      .dwattr $C$DW$974, DW_AT_accessibility(DW_ACCESS_public)
   10490              
   10491              $C$DW$975       .dwtag  DW_TAG_member
   10492                      .dwattr $C$DW$975, DW_AT_type(*$C$DW$T$149)
   10493                      .dwattr $C$DW$975, DW_AT_name("rsvd6_5")
   10494                      .dwattr $C$DW$975, DW_AT_TI_symbol_name("_rsvd6_5")
   10495                      .dwattr $C$DW$975, DW_AT_data_member_location[DW_OP_plus_uconst 0xb8]
   10496                      .dwattr $C$DW$975, DW_AT_accessibility(DW_ACCESS_public)
   10497              
   10498              $C$DW$976       .dwtag  DW_TAG_member
   10499                      .dwattr $C$DW$976, DW_AT_type(*$C$DW$T$149)
   10500                      .dwattr $C$DW$976, DW_AT_name("rsvd6_6")
   10501                      .dwattr $C$DW$976, DW_AT_TI_symbol_name("_rsvd6_6")
   10502                      .dwattr $C$DW$976, DW_AT_data_member_location[DW_OP_plus_uconst 0xba]
   10503                      .dwattr $C$DW$976, DW_AT_accessibility(DW_ACCESS_public)
   10504              
   10505              $C$DW$977       .dwtag  DW_TAG_member
   10506                      .dwattr $C$DW$977, DW_AT_type(*$C$DW$T$149)
   10507                      .dwattr $C$DW$977, DW_AT_name("rsvd6_7")
   10508                      .dwattr $C$DW$977, DW_AT_TI_symbol_name("_rsvd6_7")
   10509                      .dwattr $C$DW$977, DW_AT_data_member_location[DW_OP_plus_uconst 0xbc]
   10510                      .dwattr $C$DW$977, DW_AT_accessibility(DW_ACCESS_public)
   10511              
   10512              $C$DW$978       .dwtag  DW_TAG_member
   10513                      .dwattr $C$DW$978, DW_AT_type(*$C$DW$T$149)
   10514                      .dwattr $C$DW$978, DW_AT_name("rsvd6_8")
   10515                      .dwattr $C$DW$978, DW_AT_TI_symbol_name("_rsvd6_8")
   10516                      .dwattr $C$DW$978, DW_AT_data_member_location[DW_OP_plus_uconst 0xbe]
   10517                      .dwattr $C$DW$978, DW_AT_accessibility(DW_ACCESS_public)
   10518              
   10519              $C$DW$979       .dwtag  DW_TAG_member
   10520                      .dwattr $C$DW$979, DW_AT_type(*$C$DW$T$149)
   10521                      .dwattr $C$DW$979, DW_AT_name("rsvd7_1")
   10522                      .dwattr $C$DW$979, DW_AT_TI_symbol_name("_rsvd7_1")
   10523                      .dwattr $C$DW$979, DW_AT_data_member_location[DW_OP_plus_uconst 0xc0]
   10524                      .dwattr $C$DW$979, DW_AT_accessibility(DW_ACCESS_public)
   10525              
   10526              $C$DW$980       .dwtag  DW_TAG_member
   10527                      .dwattr $C$DW$980, DW_AT_type(*$C$DW$T$149)
   10528                      .dwattr $C$DW$980, DW_AT_name("rsvd7_2")
   10529                      .dwattr $C$DW$980, DW_AT_TI_symbol_name("_rsvd7_2")
   10530                      .dwattr $C$DW$980, DW_AT_data_member_location[DW_OP_plus_uconst 0xc2]
   10531                      .dwattr $C$DW$980, DW_AT_accessibility(DW_ACCESS_public)
   10532              
   10533              $C$DW$981       .dwtag  DW_TAG_member
   10534                      .dwattr $C$DW$981, DW_AT_type(*$C$DW$T$149)
   10535                      .dwattr $C$DW$981, DW_AT_name("rsvd7_3")
   10536                      .dwattr $C$DW$981, DW_AT_TI_symbol_name("_rsvd7_3")
TMS320C2000 Assembler PC v15.12.3 Wed Nov 22 00:56:17 2017

Tools Copyright (c) 1996-2015 Texas Instruments Incorporated
C:\Users\wmj\AppData\Local\Temp\0070810                              PAGE  199

   10537                      .dwattr $C$DW$981, DW_AT_data_member_location[DW_OP_plus_uconst 0xc4]
   10538                      .dwattr $C$DW$981, DW_AT_accessibility(DW_ACCESS_public)
   10539              
   10540              $C$DW$982       .dwtag  DW_TAG_member
   10541                      .dwattr $C$DW$982, DW_AT_type(*$C$DW$T$149)
   10542                      .dwattr $C$DW$982, DW_AT_name("rsvd7_4")
   10543                      .dwattr $C$DW$982, DW_AT_TI_symbol_name("_rsvd7_4")
   10544                      .dwattr $C$DW$982, DW_AT_data_member_location[DW_OP_plus_uconst 0xc6]
   10545                      .dwattr $C$DW$982, DW_AT_accessibility(DW_ACCESS_public)
   10546              
   10547              $C$DW$983       .dwtag  DW_TAG_member
   10548                      .dwattr $C$DW$983, DW_AT_type(*$C$DW$T$149)
   10549                      .dwattr $C$DW$983, DW_AT_name("rsvd7_5")
   10550                      .dwattr $C$DW$983, DW_AT_TI_symbol_name("_rsvd7_5")
   10551                      .dwattr $C$DW$983, DW_AT_data_member_location[DW_OP_plus_uconst 0xc8]
   10552                      .dwattr $C$DW$983, DW_AT_accessibility(DW_ACCESS_public)
   10553              
   10554              $C$DW$984       .dwtag  DW_TAG_member
   10555                      .dwattr $C$DW$984, DW_AT_type(*$C$DW$T$149)
   10556                      .dwattr $C$DW$984, DW_AT_name("rsvd7_6")
   10557                      .dwattr $C$DW$984, DW_AT_TI_symbol_name("_rsvd7_6")
   10558                      .dwattr $C$DW$984, DW_AT_data_member_location[DW_OP_plus_uconst 0xca]
   10559                      .dwattr $C$DW$984, DW_AT_accessibility(DW_ACCESS_public)
   10560              
   10561              $C$DW$985       .dwtag  DW_TAG_member
   10562                      .dwattr $C$DW$985, DW_AT_type(*$C$DW$T$149)
   10563                      .dwattr $C$DW$985, DW_AT_name("rsvd7_7")
   10564                      .dwattr $C$DW$985, DW_AT_TI_symbol_name("_rsvd7_7")
   10565                      .dwattr $C$DW$985, DW_AT_data_member_location[DW_OP_plus_uconst 0xcc]
   10566                      .dwattr $C$DW$985, DW_AT_accessibility(DW_ACCESS_public)
   10567              
   10568              $C$DW$986       .dwtag  DW_TAG_member
   10569                      .dwattr $C$DW$986, DW_AT_type(*$C$DW$T$149)
   10570                      .dwattr $C$DW$986, DW_AT_name("rsvd7_8")
   10571                      .dwattr $C$DW$986, DW_AT_TI_symbol_name("_rsvd7_8")
   10572                      .dwattr $C$DW$986, DW_AT_data_member_location[DW_OP_plus_uconst 0xce]
   10573                      .dwattr $C$DW$986, DW_AT_accessibility(DW_ACCESS_public)
   10574              
   10575              $C$DW$987       .dwtag  DW_TAG_member
   10576                      .dwattr $C$DW$987, DW_AT_type(*$C$DW$T$149)
   10577                      .dwattr $C$DW$987, DW_AT_name("I2CINT1A")
   10578                      .dwattr $C$DW$987, DW_AT_TI_symbol_name("_I2CINT1A")
   10579                      .dwattr $C$DW$987, DW_AT_data_member_location[DW_OP_plus_uconst 0xd0]
   10580                      .dwattr $C$DW$987, DW_AT_accessibility(DW_ACCESS_public)
   10581              
   10582              $C$DW$988       .dwtag  DW_TAG_member
   10583                      .dwattr $C$DW$988, DW_AT_type(*$C$DW$T$149)
   10584                      .dwattr $C$DW$988, DW_AT_name("I2CINT2A")
   10585                      .dwattr $C$DW$988, DW_AT_TI_symbol_name("_I2CINT2A")
   10586                      .dwattr $C$DW$988, DW_AT_data_member_location[DW_OP_plus_uconst 0xd2]
   10587                      .dwattr $C$DW$988, DW_AT_accessibility(DW_ACCESS_public)
   10588              
   10589              $C$DW$989       .dwtag  DW_TAG_member
   10590                      .dwattr $C$DW$989, DW_AT_type(*$C$DW$T$149)
   10591                      .dwattr $C$DW$989, DW_AT_name("rsvd8_3")
TMS320C2000 Assembler PC v15.12.3 Wed Nov 22 00:56:17 2017

Tools Copyright (c) 1996-2015 Texas Instruments Incorporated
C:\Users\wmj\AppData\Local\Temp\0070810                              PAGE  200

   10592                      .dwattr $C$DW$989, DW_AT_TI_symbol_name("_rsvd8_3")
   10593                      .dwattr $C$DW$989, DW_AT_data_member_location[DW_OP_plus_uconst 0xd4]
   10594                      .dwattr $C$DW$989, DW_AT_accessibility(DW_ACCESS_public)
   10595              
   10596              $C$DW$990       .dwtag  DW_TAG_member
   10597                      .dwattr $C$DW$990, DW_AT_type(*$C$DW$T$149)
   10598                      .dwattr $C$DW$990, DW_AT_name("rsvd8_4")
   10599                      .dwattr $C$DW$990, DW_AT_TI_symbol_name("_rsvd8_4")
   10600                      .dwattr $C$DW$990, DW_AT_data_member_location[DW_OP_plus_uconst 0xd6]
   10601                      .dwattr $C$DW$990, DW_AT_accessibility(DW_ACCESS_public)
   10602              
   10603              $C$DW$991       .dwtag  DW_TAG_member
   10604                      .dwattr $C$DW$991, DW_AT_type(*$C$DW$T$149)
   10605                      .dwattr $C$DW$991, DW_AT_name("rsvd8_5")
   10606                      .dwattr $C$DW$991, DW_AT_TI_symbol_name("_rsvd8_5")
   10607                      .dwattr $C$DW$991, DW_AT_data_member_location[DW_OP_plus_uconst 0xd8]
   10608                      .dwattr $C$DW$991, DW_AT_accessibility(DW_ACCESS_public)
   10609              
   10610              $C$DW$992       .dwtag  DW_TAG_member
   10611                      .dwattr $C$DW$992, DW_AT_type(*$C$DW$T$149)
   10612                      .dwattr $C$DW$992, DW_AT_name("rsvd8_6")
   10613                      .dwattr $C$DW$992, DW_AT_TI_symbol_name("_rsvd8_6")
   10614                      .dwattr $C$DW$992, DW_AT_data_member_location[DW_OP_plus_uconst 0xda]
   10615                      .dwattr $C$DW$992, DW_AT_accessibility(DW_ACCESS_public)
   10616              
   10617              $C$DW$993       .dwtag  DW_TAG_member
   10618                      .dwattr $C$DW$993, DW_AT_type(*$C$DW$T$149)
   10619                      .dwattr $C$DW$993, DW_AT_name("rsvd8_7")
   10620                      .dwattr $C$DW$993, DW_AT_TI_symbol_name("_rsvd8_7")
   10621                      .dwattr $C$DW$993, DW_AT_data_member_location[DW_OP_plus_uconst 0xdc]
   10622                      .dwattr $C$DW$993, DW_AT_accessibility(DW_ACCESS_public)
   10623              
   10624              $C$DW$994       .dwtag  DW_TAG_member
   10625                      .dwattr $C$DW$994, DW_AT_type(*$C$DW$T$149)
   10626                      .dwattr $C$DW$994, DW_AT_name("rsvd8_8")
   10627                      .dwattr $C$DW$994, DW_AT_TI_symbol_name("_rsvd8_8")
   10628                      .dwattr $C$DW$994, DW_AT_data_member_location[DW_OP_plus_uconst 0xde]
   10629                      .dwattr $C$DW$994, DW_AT_accessibility(DW_ACCESS_public)
   10630              
   10631              $C$DW$995       .dwtag  DW_TAG_member
   10632                      .dwattr $C$DW$995, DW_AT_type(*$C$DW$T$149)
   10633                      .dwattr $C$DW$995, DW_AT_name("SCIRXINTA")
   10634                      .dwattr $C$DW$995, DW_AT_TI_symbol_name("_SCIRXINTA")
   10635                      .dwattr $C$DW$995, DW_AT_data_member_location[DW_OP_plus_uconst 0xe0]
   10636                      .dwattr $C$DW$995, DW_AT_accessibility(DW_ACCESS_public)
   10637              
   10638              $C$DW$996       .dwtag  DW_TAG_member
   10639                      .dwattr $C$DW$996, DW_AT_type(*$C$DW$T$149)
   10640                      .dwattr $C$DW$996, DW_AT_name("SCITXINTA")
   10641                      .dwattr $C$DW$996, DW_AT_TI_symbol_name("_SCITXINTA")
   10642                      .dwattr $C$DW$996, DW_AT_data_member_location[DW_OP_plus_uconst 0xe2]
   10643                      .dwattr $C$DW$996, DW_AT_accessibility(DW_ACCESS_public)
   10644              
   10645              $C$DW$997       .dwtag  DW_TAG_member
   10646                      .dwattr $C$DW$997, DW_AT_type(*$C$DW$T$149)
TMS320C2000 Assembler PC v15.12.3 Wed Nov 22 00:56:17 2017

Tools Copyright (c) 1996-2015 Texas Instruments Incorporated
C:\Users\wmj\AppData\Local\Temp\0070810                              PAGE  201

   10647                      .dwattr $C$DW$997, DW_AT_name("rsvd9_3")
   10648                      .dwattr $C$DW$997, DW_AT_TI_symbol_name("_rsvd9_3")
   10649                      .dwattr $C$DW$997, DW_AT_data_member_location[DW_OP_plus_uconst 0xe4]
   10650                      .dwattr $C$DW$997, DW_AT_accessibility(DW_ACCESS_public)
   10651              
   10652              $C$DW$998       .dwtag  DW_TAG_member
   10653                      .dwattr $C$DW$998, DW_AT_type(*$C$DW$T$149)
   10654                      .dwattr $C$DW$998, DW_AT_name("rsvd9_4")
   10655                      .dwattr $C$DW$998, DW_AT_TI_symbol_name("_rsvd9_4")
   10656                      .dwattr $C$DW$998, DW_AT_data_member_location[DW_OP_plus_uconst 0xe6]
   10657                      .dwattr $C$DW$998, DW_AT_accessibility(DW_ACCESS_public)
   10658              
   10659              $C$DW$999       .dwtag  DW_TAG_member
   10660                      .dwattr $C$DW$999, DW_AT_type(*$C$DW$T$149)
   10661                      .dwattr $C$DW$999, DW_AT_name("rsvd9_5")
   10662                      .dwattr $C$DW$999, DW_AT_TI_symbol_name("_rsvd9_5")
   10663                      .dwattr $C$DW$999, DW_AT_data_member_location[DW_OP_plus_uconst 0xe8]
   10664                      .dwattr $C$DW$999, DW_AT_accessibility(DW_ACCESS_public)
   10665              
   10666              $C$DW$1000      .dwtag  DW_TAG_member
   10667                      .dwattr $C$DW$1000, DW_AT_type(*$C$DW$T$149)
   10668                      .dwattr $C$DW$1000, DW_AT_name("rsvd9_6")
   10669                      .dwattr $C$DW$1000, DW_AT_TI_symbol_name("_rsvd9_6")
   10670                      .dwattr $C$DW$1000, DW_AT_data_member_location[DW_OP_plus_uconst 0xea]
   10671                      .dwattr $C$DW$1000, DW_AT_accessibility(DW_ACCESS_public)
   10672              
   10673              $C$DW$1001      .dwtag  DW_TAG_member
   10674                      .dwattr $C$DW$1001, DW_AT_type(*$C$DW$T$149)
   10675                      .dwattr $C$DW$1001, DW_AT_name("rsvd9_7")
   10676                      .dwattr $C$DW$1001, DW_AT_TI_symbol_name("_rsvd9_7")
   10677                      .dwattr $C$DW$1001, DW_AT_data_member_location[DW_OP_plus_uconst 0xec]
   10678                      .dwattr $C$DW$1001, DW_AT_accessibility(DW_ACCESS_public)
   10679              
   10680              $C$DW$1002      .dwtag  DW_TAG_member
   10681                      .dwattr $C$DW$1002, DW_AT_type(*$C$DW$T$149)
   10682                      .dwattr $C$DW$1002, DW_AT_name("rsvd9_8")
   10683                      .dwattr $C$DW$1002, DW_AT_TI_symbol_name("_rsvd9_8")
   10684                      .dwattr $C$DW$1002, DW_AT_data_member_location[DW_OP_plus_uconst 0xee]
   10685                      .dwattr $C$DW$1002, DW_AT_accessibility(DW_ACCESS_public)
   10686              
   10687              $C$DW$1003      .dwtag  DW_TAG_member
   10688                      .dwattr $C$DW$1003, DW_AT_type(*$C$DW$T$149)
   10689                      .dwattr $C$DW$1003, DW_AT_name("ADCINT1")
   10690                      .dwattr $C$DW$1003, DW_AT_TI_symbol_name("_ADCINT1")
   10691                      .dwattr $C$DW$1003, DW_AT_data_member_location[DW_OP_plus_uconst 0xf0]
   10692                      .dwattr $C$DW$1003, DW_AT_accessibility(DW_ACCESS_public)
   10693              
   10694              $C$DW$1004      .dwtag  DW_TAG_member
   10695                      .dwattr $C$DW$1004, DW_AT_type(*$C$DW$T$149)
   10696                      .dwattr $C$DW$1004, DW_AT_name("ADCINT2")
   10697                      .dwattr $C$DW$1004, DW_AT_TI_symbol_name("_ADCINT2")
   10698                      .dwattr $C$DW$1004, DW_AT_data_member_location[DW_OP_plus_uconst 0xf2]
   10699                      .dwattr $C$DW$1004, DW_AT_accessibility(DW_ACCESS_public)
   10700              
   10701              $C$DW$1005      .dwtag  DW_TAG_member
TMS320C2000 Assembler PC v15.12.3 Wed Nov 22 00:56:17 2017

Tools Copyright (c) 1996-2015 Texas Instruments Incorporated
C:\Users\wmj\AppData\Local\Temp\0070810                              PAGE  202

   10702                      .dwattr $C$DW$1005, DW_AT_type(*$C$DW$T$149)
   10703                      .dwattr $C$DW$1005, DW_AT_name("ADCINT3")
   10704                      .dwattr $C$DW$1005, DW_AT_TI_symbol_name("_ADCINT3")
   10705                      .dwattr $C$DW$1005, DW_AT_data_member_location[DW_OP_plus_uconst 0xf4]
   10706                      .dwattr $C$DW$1005, DW_AT_accessibility(DW_ACCESS_public)
   10707              
   10708              $C$DW$1006      .dwtag  DW_TAG_member
   10709                      .dwattr $C$DW$1006, DW_AT_type(*$C$DW$T$149)
   10710                      .dwattr $C$DW$1006, DW_AT_name("ADCINT4")
   10711                      .dwattr $C$DW$1006, DW_AT_TI_symbol_name("_ADCINT4")
   10712                      .dwattr $C$DW$1006, DW_AT_data_member_location[DW_OP_plus_uconst 0xf6]
   10713                      .dwattr $C$DW$1006, DW_AT_accessibility(DW_ACCESS_public)
   10714              
   10715              $C$DW$1007      .dwtag  DW_TAG_member
   10716                      .dwattr $C$DW$1007, DW_AT_type(*$C$DW$T$149)
   10717                      .dwattr $C$DW$1007, DW_AT_name("ADCINT5")
   10718                      .dwattr $C$DW$1007, DW_AT_TI_symbol_name("_ADCINT5")
   10719                      .dwattr $C$DW$1007, DW_AT_data_member_location[DW_OP_plus_uconst 0xf8]
   10720                      .dwattr $C$DW$1007, DW_AT_accessibility(DW_ACCESS_public)
   10721              
   10722              $C$DW$1008      .dwtag  DW_TAG_member
   10723                      .dwattr $C$DW$1008, DW_AT_type(*$C$DW$T$149)
   10724                      .dwattr $C$DW$1008, DW_AT_name("ADCINT6")
   10725                      .dwattr $C$DW$1008, DW_AT_TI_symbol_name("_ADCINT6")
   10726                      .dwattr $C$DW$1008, DW_AT_data_member_location[DW_OP_plus_uconst 0xfa]
   10727                      .dwattr $C$DW$1008, DW_AT_accessibility(DW_ACCESS_public)
   10728              
   10729              $C$DW$1009      .dwtag  DW_TAG_member
   10730                      .dwattr $C$DW$1009, DW_AT_type(*$C$DW$T$149)
   10731                      .dwattr $C$DW$1009, DW_AT_name("ADCINT7")
   10732                      .dwattr $C$DW$1009, DW_AT_TI_symbol_name("_ADCINT7")
   10733                      .dwattr $C$DW$1009, DW_AT_data_member_location[DW_OP_plus_uconst 0xfc]
   10734                      .dwattr $C$DW$1009, DW_AT_accessibility(DW_ACCESS_public)
   10735              
   10736              $C$DW$1010      .dwtag  DW_TAG_member
   10737                      .dwattr $C$DW$1010, DW_AT_type(*$C$DW$T$149)
   10738                      .dwattr $C$DW$1010, DW_AT_name("ADCINT8")
   10739                      .dwattr $C$DW$1010, DW_AT_TI_symbol_name("_ADCINT8")
   10740                      .dwattr $C$DW$1010, DW_AT_data_member_location[DW_OP_plus_uconst 0xfe]
   10741                      .dwattr $C$DW$1010, DW_AT_accessibility(DW_ACCESS_public)
   10742              
   10743              $C$DW$1011      .dwtag  DW_TAG_member
   10744                      .dwattr $C$DW$1011, DW_AT_type(*$C$DW$T$149)
   10745                      .dwattr $C$DW$1011, DW_AT_name("rsvd11_1")
   10746                      .dwattr $C$DW$1011, DW_AT_TI_symbol_name("_rsvd11_1")
   10747                      .dwattr $C$DW$1011, DW_AT_data_member_location[DW_OP_plus_uconst 0x100]
   10748                      .dwattr $C$DW$1011, DW_AT_accessibility(DW_ACCESS_public)
   10749              
   10750              $C$DW$1012      .dwtag  DW_TAG_member
   10751                      .dwattr $C$DW$1012, DW_AT_type(*$C$DW$T$149)
   10752                      .dwattr $C$DW$1012, DW_AT_name("rsvd11_2")
   10753                      .dwattr $C$DW$1012, DW_AT_TI_symbol_name("_rsvd11_2")
   10754                      .dwattr $C$DW$1012, DW_AT_data_member_location[DW_OP_plus_uconst 0x102]
   10755                      .dwattr $C$DW$1012, DW_AT_accessibility(DW_ACCESS_public)
   10756              
TMS320C2000 Assembler PC v15.12.3 Wed Nov 22 00:56:17 2017

Tools Copyright (c) 1996-2015 Texas Instruments Incorporated
C:\Users\wmj\AppData\Local\Temp\0070810                              PAGE  203

   10757              $C$DW$1013      .dwtag  DW_TAG_member
   10758                      .dwattr $C$DW$1013, DW_AT_type(*$C$DW$T$149)
   10759                      .dwattr $C$DW$1013, DW_AT_name("rsvd11_3")
   10760                      .dwattr $C$DW$1013, DW_AT_TI_symbol_name("_rsvd11_3")
   10761                      .dwattr $C$DW$1013, DW_AT_data_member_location[DW_OP_plus_uconst 0x104]
   10762                      .dwattr $C$DW$1013, DW_AT_accessibility(DW_ACCESS_public)
   10763              
   10764              $C$DW$1014      .dwtag  DW_TAG_member
   10765                      .dwattr $C$DW$1014, DW_AT_type(*$C$DW$T$149)
   10766                      .dwattr $C$DW$1014, DW_AT_name("rsvd11_4")
   10767                      .dwattr $C$DW$1014, DW_AT_TI_symbol_name("_rsvd11_4")
   10768                      .dwattr $C$DW$1014, DW_AT_data_member_location[DW_OP_plus_uconst 0x106]
   10769                      .dwattr $C$DW$1014, DW_AT_accessibility(DW_ACCESS_public)
   10770              
   10771              $C$DW$1015      .dwtag  DW_TAG_member
   10772                      .dwattr $C$DW$1015, DW_AT_type(*$C$DW$T$149)
   10773                      .dwattr $C$DW$1015, DW_AT_name("rsvd11_5")
   10774                      .dwattr $C$DW$1015, DW_AT_TI_symbol_name("_rsvd11_5")
   10775                      .dwattr $C$DW$1015, DW_AT_data_member_location[DW_OP_plus_uconst 0x108]
   10776                      .dwattr $C$DW$1015, DW_AT_accessibility(DW_ACCESS_public)
   10777              
   10778              $C$DW$1016      .dwtag  DW_TAG_member
   10779                      .dwattr $C$DW$1016, DW_AT_type(*$C$DW$T$149)
   10780                      .dwattr $C$DW$1016, DW_AT_name("rsvd11_6")
   10781                      .dwattr $C$DW$1016, DW_AT_TI_symbol_name("_rsvd11_6")
   10782                      .dwattr $C$DW$1016, DW_AT_data_member_location[DW_OP_plus_uconst 0x10a]
   10783                      .dwattr $C$DW$1016, DW_AT_accessibility(DW_ACCESS_public)
   10784              
   10785              $C$DW$1017      .dwtag  DW_TAG_member
   10786                      .dwattr $C$DW$1017, DW_AT_type(*$C$DW$T$149)
   10787                      .dwattr $C$DW$1017, DW_AT_name("rsvd11_7")
   10788                      .dwattr $C$DW$1017, DW_AT_TI_symbol_name("_rsvd11_7")
   10789                      .dwattr $C$DW$1017, DW_AT_data_member_location[DW_OP_plus_uconst 0x10c]
   10790                      .dwattr $C$DW$1017, DW_AT_accessibility(DW_ACCESS_public)
   10791              
   10792              $C$DW$1018      .dwtag  DW_TAG_member
   10793                      .dwattr $C$DW$1018, DW_AT_type(*$C$DW$T$149)
   10794                      .dwattr $C$DW$1018, DW_AT_name("rsvd11_8")
   10795                      .dwattr $C$DW$1018, DW_AT_TI_symbol_name("_rsvd11_8")
   10796                      .dwattr $C$DW$1018, DW_AT_data_member_location[DW_OP_plus_uconst 0x10e]
   10797                      .dwattr $C$DW$1018, DW_AT_accessibility(DW_ACCESS_public)
   10798              
   10799              $C$DW$1019      .dwtag  DW_TAG_member
   10800                      .dwattr $C$DW$1019, DW_AT_type(*$C$DW$T$149)
   10801                      .dwattr $C$DW$1019, DW_AT_name("XINT3")
   10802                      .dwattr $C$DW$1019, DW_AT_TI_symbol_name("_XINT3")
   10803                      .dwattr $C$DW$1019, DW_AT_data_member_location[DW_OP_plus_uconst 0x110]
   10804                      .dwattr $C$DW$1019, DW_AT_accessibility(DW_ACCESS_public)
   10805              
   10806              $C$DW$1020      .dwtag  DW_TAG_member
   10807                      .dwattr $C$DW$1020, DW_AT_type(*$C$DW$T$149)
   10808                      .dwattr $C$DW$1020, DW_AT_name("rsvd12_2")
   10809                      .dwattr $C$DW$1020, DW_AT_TI_symbol_name("_rsvd12_2")
   10810                      .dwattr $C$DW$1020, DW_AT_data_member_location[DW_OP_plus_uconst 0x112]
   10811                      .dwattr $C$DW$1020, DW_AT_accessibility(DW_ACCESS_public)
TMS320C2000 Assembler PC v15.12.3 Wed Nov 22 00:56:17 2017

Tools Copyright (c) 1996-2015 Texas Instruments Incorporated
C:\Users\wmj\AppData\Local\Temp\0070810                              PAGE  204

   10812              
   10813              $C$DW$1021      .dwtag  DW_TAG_member
   10814                      .dwattr $C$DW$1021, DW_AT_type(*$C$DW$T$149)
   10815                      .dwattr $C$DW$1021, DW_AT_name("rsvd12_3")
   10816                      .dwattr $C$DW$1021, DW_AT_TI_symbol_name("_rsvd12_3")
   10817                      .dwattr $C$DW$1021, DW_AT_data_member_location[DW_OP_plus_uconst 0x114]
   10818                      .dwattr $C$DW$1021, DW_AT_accessibility(DW_ACCESS_public)
   10819              
   10820              $C$DW$1022      .dwtag  DW_TAG_member
   10821                      .dwattr $C$DW$1022, DW_AT_type(*$C$DW$T$149)
   10822                      .dwattr $C$DW$1022, DW_AT_name("rsvd12_4")
   10823                      .dwattr $C$DW$1022, DW_AT_TI_symbol_name("_rsvd12_4")
   10824                      .dwattr $C$DW$1022, DW_AT_data_member_location[DW_OP_plus_uconst 0x116]
   10825                      .dwattr $C$DW$1022, DW_AT_accessibility(DW_ACCESS_public)
   10826              
   10827              $C$DW$1023      .dwtag  DW_TAG_member
   10828                      .dwattr $C$DW$1023, DW_AT_type(*$C$DW$T$149)
   10829                      .dwattr $C$DW$1023, DW_AT_name("rsvd12_5")
   10830                      .dwattr $C$DW$1023, DW_AT_TI_symbol_name("_rsvd12_5")
   10831                      .dwattr $C$DW$1023, DW_AT_data_member_location[DW_OP_plus_uconst 0x118]
   10832                      .dwattr $C$DW$1023, DW_AT_accessibility(DW_ACCESS_public)
   10833              
   10834              $C$DW$1024      .dwtag  DW_TAG_member
   10835                      .dwattr $C$DW$1024, DW_AT_type(*$C$DW$T$149)
   10836                      .dwattr $C$DW$1024, DW_AT_name("rsvd12_6")
   10837                      .dwattr $C$DW$1024, DW_AT_TI_symbol_name("_rsvd12_6")
   10838                      .dwattr $C$DW$1024, DW_AT_data_member_location[DW_OP_plus_uconst 0x11a]
   10839                      .dwattr $C$DW$1024, DW_AT_accessibility(DW_ACCESS_public)
   10840              
   10841              $C$DW$1025      .dwtag  DW_TAG_member
   10842                      .dwattr $C$DW$1025, DW_AT_type(*$C$DW$T$149)
   10843                      .dwattr $C$DW$1025, DW_AT_name("rsvd12_7")
   10844                      .dwattr $C$DW$1025, DW_AT_TI_symbol_name("_rsvd12_7")
   10845                      .dwattr $C$DW$1025, DW_AT_data_member_location[DW_OP_plus_uconst 0x11c]
   10846                      .dwattr $C$DW$1025, DW_AT_accessibility(DW_ACCESS_public)
   10847              
   10848              $C$DW$1026      .dwtag  DW_TAG_member
   10849                      .dwattr $C$DW$1026, DW_AT_type(*$C$DW$T$149)
   10850                      .dwattr $C$DW$1026, DW_AT_name("rsvd12_8")
   10851                      .dwattr $C$DW$1026, DW_AT_TI_symbol_name("_rsvd12_8")
   10852                      .dwattr $C$DW$1026, DW_AT_data_member_location[DW_OP_plus_uconst 0x11e]
   10853                      .dwattr $C$DW$1026, DW_AT_accessibility(DW_ACCESS_public)
   10854              
   10855              $C$DW$1027      .dwtag  DW_TAG_member
   10856                      .dwattr $C$DW$1027, DW_AT_type(*$C$DW$T$150)
   10857                      .dwattr $C$DW$1027, DW_AT_name("rsvd13")
   10858                      .dwattr $C$DW$1027, DW_AT_TI_symbol_name("_rsvd13")
   10859                      .dwattr $C$DW$1027, DW_AT_data_member_location[DW_OP_plus_uconst 0x120]
   10860                      .dwattr $C$DW$1027, DW_AT_accessibility(DW_ACCESS_public)
   10861              
   10862              $C$DW$1028      .dwtag  DW_TAG_member
   10863                      .dwattr $C$DW$1028, DW_AT_type(*$C$DW$T$28)
   10864                      .dwattr $C$DW$1028, DW_AT_name("XINTnCR")
   10865                      .dwattr $C$DW$1028, DW_AT_TI_symbol_name("_XINTnCR")
   10866                      .dwattr $C$DW$1028, DW_AT_data_member_location[DW_OP_plus_uconst 0x6390]
TMS320C2000 Assembler PC v15.12.3 Wed Nov 22 00:56:17 2017

Tools Copyright (c) 1996-2015 Texas Instruments Incorporated
C:\Users\wmj\AppData\Local\Temp\0070810                              PAGE  205

   10867                      .dwattr $C$DW$1028, DW_AT_accessibility(DW_ACCESS_public)
   10868              
   10869              $C$DW$1029      .dwtag  DW_TAG_member
   10870                      .dwattr $C$DW$1029, DW_AT_type(*$C$DW$T$27)
   10871                      .dwattr $C$DW$1029, DW_AT_name("rsvd14")
   10872                      .dwattr $C$DW$1029, DW_AT_TI_symbol_name("_rsvd14")
   10873                      .dwattr $C$DW$1029, DW_AT_data_member_location[DW_OP_plus_uconst 0x6393]
   10874                      .dwattr $C$DW$1029, DW_AT_accessibility(DW_ACCESS_public)
   10875              
   10876              $C$DW$1030      .dwtag  DW_TAG_member
   10877                      .dwattr $C$DW$1030, DW_AT_type(*$C$DW$T$28)
   10878                      .dwattr $C$DW$1030, DW_AT_name("XINTnCTR")
   10879                      .dwattr $C$DW$1030, DW_AT_TI_symbol_name("_XINTnCTR")
   10880                      .dwattr $C$DW$1030, DW_AT_data_member_location[DW_OP_plus_uconst 0x6398]
   10881                      .dwattr $C$DW$1030, DW_AT_accessibility(DW_ACCESS_public)
   10882              
   10883                      .dwendtag $C$DW$T$151
   10884              
   10885              $C$DW$T$103     .dwtag  DW_TAG_pointer_type
   10886                      .dwattr $C$DW$T$103, DW_AT_type(*$C$DW$T$151)
   10887                      .dwattr $C$DW$T$103, DW_AT_address_class(0x20)
   10888              
   10889              $C$DW$T$104     .dwtag  DW_TAG_typedef
   10890                      .dwattr $C$DW$T$104, DW_AT_name("PIE_Handle")
   10891                      .dwattr $C$DW$T$104, DW_AT_type(*$C$DW$T$103)
   10892                      .dwattr $C$DW$T$104, DW_AT_language(DW_LANG_C)
   10893              
   10894              
   10895              $C$DW$T$152     .dwtag  DW_TAG_structure_type
   10896                      .dwattr $C$DW$T$152, DW_AT_name("_PLL_Obj_")
   10897                      .dwattr $C$DW$T$152, DW_AT_byte_size(0x11)
   10898              $C$DW$1031      .dwtag  DW_TAG_member
   10899                      .dwattr $C$DW$1031, DW_AT_type(*$C$DW$T$23)
   10900                      .dwattr $C$DW$1031, DW_AT_name("PLLSTS")
   10901                      .dwattr $C$DW$1031, DW_AT_TI_symbol_name("_PLLSTS")
   10902                      .dwattr $C$DW$1031, DW_AT_data_member_location[DW_OP_plus_uconst 0x0]
   10903                      .dwattr $C$DW$1031, DW_AT_accessibility(DW_ACCESS_public)
   10904              
   10905              $C$DW$1032      .dwtag  DW_TAG_member
   10906                      .dwattr $C$DW$1032, DW_AT_type(*$C$DW$T$23)
   10907                      .dwattr $C$DW$1032, DW_AT_name("rsvd_1")
   10908                      .dwattr $C$DW$1032, DW_AT_TI_symbol_name("_rsvd_1")
   10909                      .dwattr $C$DW$1032, DW_AT_data_member_location[DW_OP_plus_uconst 0x1]
   10910                      .dwattr $C$DW$1032, DW_AT_accessibility(DW_ACCESS_public)
   10911              
   10912              $C$DW$1033      .dwtag  DW_TAG_member
   10913                      .dwattr $C$DW$1033, DW_AT_type(*$C$DW$T$23)
   10914                      .dwattr $C$DW$1033, DW_AT_name("PLLLOCKPRD")
   10915                      .dwattr $C$DW$1033, DW_AT_TI_symbol_name("_PLLLOCKPRD")
   10916                      .dwattr $C$DW$1033, DW_AT_data_member_location[DW_OP_plus_uconst 0x2]
   10917                      .dwattr $C$DW$1033, DW_AT_accessibility(DW_ACCESS_public)
   10918              
   10919              $C$DW$1034      .dwtag  DW_TAG_member
   10920                      .dwattr $C$DW$1034, DW_AT_type(*$C$DW$T$29)
   10921                      .dwattr $C$DW$1034, DW_AT_name("rsvd_2")
TMS320C2000 Assembler PC v15.12.3 Wed Nov 22 00:56:17 2017

Tools Copyright (c) 1996-2015 Texas Instruments Incorporated
C:\Users\wmj\AppData\Local\Temp\0070810                              PAGE  206

   10922                      .dwattr $C$DW$1034, DW_AT_TI_symbol_name("_rsvd_2")
   10923                      .dwattr $C$DW$1034, DW_AT_data_member_location[DW_OP_plus_uconst 0x3]
   10924                      .dwattr $C$DW$1034, DW_AT_accessibility(DW_ACCESS_public)
   10925              
   10926              $C$DW$1035      .dwtag  DW_TAG_member
   10927                      .dwattr $C$DW$1035, DW_AT_type(*$C$DW$T$23)
   10928                      .dwattr $C$DW$1035, DW_AT_name("PLLCR")
   10929                      .dwattr $C$DW$1035, DW_AT_TI_symbol_name("_PLLCR")
   10930                      .dwattr $C$DW$1035, DW_AT_data_member_location[DW_OP_plus_uconst 0x10]
   10931                      .dwattr $C$DW$1035, DW_AT_accessibility(DW_ACCESS_public)
   10932              
   10933                      .dwendtag $C$DW$T$152
   10934              
   10935              $C$DW$T$105     .dwtag  DW_TAG_pointer_type
   10936                      .dwattr $C$DW$T$105, DW_AT_type(*$C$DW$T$152)
   10937                      .dwattr $C$DW$T$105, DW_AT_address_class(0x20)
   10938              
   10939              $C$DW$T$106     .dwtag  DW_TAG_typedef
   10940                      .dwattr $C$DW$T$106, DW_AT_name("PLL_Handle")
   10941                      .dwattr $C$DW$T$106, DW_AT_type(*$C$DW$T$105)
   10942                      .dwattr $C$DW$T$106, DW_AT_language(DW_LANG_C)
   10943              
   10944              
   10945              $C$DW$T$153     .dwtag  DW_TAG_structure_type
   10946                      .dwattr $C$DW$T$153, DW_AT_name("_PWM_Obj_")
   10947                      .dwattr $C$DW$T$153, DW_AT_byte_size(0x3a)
   10948              $C$DW$1036      .dwtag  DW_TAG_member
   10949                      .dwattr $C$DW$1036, DW_AT_type(*$C$DW$T$23)
   10950                      .dwattr $C$DW$1036, DW_AT_name("TBCTL")
   10951                      .dwattr $C$DW$1036, DW_AT_TI_symbol_name("_TBCTL")
   10952                      .dwattr $C$DW$1036, DW_AT_data_member_location[DW_OP_plus_uconst 0x0]
   10953                      .dwattr $C$DW$1036, DW_AT_accessibility(DW_ACCESS_public)
   10954              
   10955              $C$DW$1037      .dwtag  DW_TAG_member
   10956                      .dwattr $C$DW$1037, DW_AT_type(*$C$DW$T$23)
   10957                      .dwattr $C$DW$1037, DW_AT_name("TBSTS")
   10958                      .dwattr $C$DW$1037, DW_AT_TI_symbol_name("_TBSTS")
   10959                      .dwattr $C$DW$1037, DW_AT_data_member_location[DW_OP_plus_uconst 0x1]
   10960                      .dwattr $C$DW$1037, DW_AT_accessibility(DW_ACCESS_public)
   10961              
   10962              $C$DW$1038      .dwtag  DW_TAG_member
   10963                      .dwattr $C$DW$1038, DW_AT_type(*$C$DW$T$23)
   10964                      .dwattr $C$DW$1038, DW_AT_name("TBPHSHR")
   10965                      .dwattr $C$DW$1038, DW_AT_TI_symbol_name("_TBPHSHR")
   10966                      .dwattr $C$DW$1038, DW_AT_data_member_location[DW_OP_plus_uconst 0x2]
   10967                      .dwattr $C$DW$1038, DW_AT_accessibility(DW_ACCESS_public)
   10968              
   10969              $C$DW$1039      .dwtag  DW_TAG_member
   10970                      .dwattr $C$DW$1039, DW_AT_type(*$C$DW$T$23)
   10971                      .dwattr $C$DW$1039, DW_AT_name("TBPHS")
   10972                      .dwattr $C$DW$1039, DW_AT_TI_symbol_name("_TBPHS")
   10973                      .dwattr $C$DW$1039, DW_AT_data_member_location[DW_OP_plus_uconst 0x3]
   10974                      .dwattr $C$DW$1039, DW_AT_accessibility(DW_ACCESS_public)
   10975              
   10976              $C$DW$1040      .dwtag  DW_TAG_member
TMS320C2000 Assembler PC v15.12.3 Wed Nov 22 00:56:17 2017

Tools Copyright (c) 1996-2015 Texas Instruments Incorporated
C:\Users\wmj\AppData\Local\Temp\0070810                              PAGE  207

   10977                      .dwattr $C$DW$1040, DW_AT_type(*$C$DW$T$23)
   10978                      .dwattr $C$DW$1040, DW_AT_name("TBCTR")
   10979                      .dwattr $C$DW$1040, DW_AT_TI_symbol_name("_TBCTR")
   10980                      .dwattr $C$DW$1040, DW_AT_data_member_location[DW_OP_plus_uconst 0x4]
   10981                      .dwattr $C$DW$1040, DW_AT_accessibility(DW_ACCESS_public)
   10982              
   10983              $C$DW$1041      .dwtag  DW_TAG_member
   10984                      .dwattr $C$DW$1041, DW_AT_type(*$C$DW$T$23)
   10985                      .dwattr $C$DW$1041, DW_AT_name("TBPRD")
   10986                      .dwattr $C$DW$1041, DW_AT_TI_symbol_name("_TBPRD")
   10987                      .dwattr $C$DW$1041, DW_AT_data_member_location[DW_OP_plus_uconst 0x5]
   10988                      .dwattr $C$DW$1041, DW_AT_accessibility(DW_ACCESS_public)
   10989              
   10990              $C$DW$1042      .dwtag  DW_TAG_member
   10991                      .dwattr $C$DW$1042, DW_AT_type(*$C$DW$T$23)
   10992                      .dwattr $C$DW$1042, DW_AT_name("TBPRDHR")
   10993                      .dwattr $C$DW$1042, DW_AT_TI_symbol_name("_TBPRDHR")
   10994                      .dwattr $C$DW$1042, DW_AT_data_member_location[DW_OP_plus_uconst 0x6]
   10995                      .dwattr $C$DW$1042, DW_AT_accessibility(DW_ACCESS_public)
   10996              
   10997              $C$DW$1043      .dwtag  DW_TAG_member
   10998                      .dwattr $C$DW$1043, DW_AT_type(*$C$DW$T$23)
   10999                      .dwattr $C$DW$1043, DW_AT_name("CMPCTL")
   11000                      .dwattr $C$DW$1043, DW_AT_TI_symbol_name("_CMPCTL")
   11001                      .dwattr $C$DW$1043, DW_AT_data_member_location[DW_OP_plus_uconst 0x7]
   11002                      .dwattr $C$DW$1043, DW_AT_accessibility(DW_ACCESS_public)
   11003              
   11004              $C$DW$1044      .dwtag  DW_TAG_member
   11005                      .dwattr $C$DW$1044, DW_AT_type(*$C$DW$T$23)
   11006                      .dwattr $C$DW$1044, DW_AT_name("CMPAHR")
   11007                      .dwattr $C$DW$1044, DW_AT_TI_symbol_name("_CMPAHR")
   11008                      .dwattr $C$DW$1044, DW_AT_data_member_location[DW_OP_plus_uconst 0x8]
   11009                      .dwattr $C$DW$1044, DW_AT_accessibility(DW_ACCESS_public)
   11010              
   11011              $C$DW$1045      .dwtag  DW_TAG_member
   11012                      .dwattr $C$DW$1045, DW_AT_type(*$C$DW$T$23)
   11013                      .dwattr $C$DW$1045, DW_AT_name("CMPA")
   11014                      .dwattr $C$DW$1045, DW_AT_TI_symbol_name("_CMPA")
   11015                      .dwattr $C$DW$1045, DW_AT_data_member_location[DW_OP_plus_uconst 0x9]
   11016                      .dwattr $C$DW$1045, DW_AT_accessibility(DW_ACCESS_public)
   11017              
   11018              $C$DW$1046      .dwtag  DW_TAG_member
   11019                      .dwattr $C$DW$1046, DW_AT_type(*$C$DW$T$23)
   11020                      .dwattr $C$DW$1046, DW_AT_name("CMPB")
   11021                      .dwattr $C$DW$1046, DW_AT_TI_symbol_name("_CMPB")
   11022                      .dwattr $C$DW$1046, DW_AT_data_member_location[DW_OP_plus_uconst 0xa]
   11023                      .dwattr $C$DW$1046, DW_AT_accessibility(DW_ACCESS_public)
   11024              
   11025              $C$DW$1047      .dwtag  DW_TAG_member
   11026                      .dwattr $C$DW$1047, DW_AT_type(*$C$DW$T$23)
   11027                      .dwattr $C$DW$1047, DW_AT_name("AQCTLA")
   11028                      .dwattr $C$DW$1047, DW_AT_TI_symbol_name("_AQCTLA")
   11029                      .dwattr $C$DW$1047, DW_AT_data_member_location[DW_OP_plus_uconst 0xb]
   11030                      .dwattr $C$DW$1047, DW_AT_accessibility(DW_ACCESS_public)
   11031              
TMS320C2000 Assembler PC v15.12.3 Wed Nov 22 00:56:17 2017

Tools Copyright (c) 1996-2015 Texas Instruments Incorporated
C:\Users\wmj\AppData\Local\Temp\0070810                              PAGE  208

   11032              $C$DW$1048      .dwtag  DW_TAG_member
   11033                      .dwattr $C$DW$1048, DW_AT_type(*$C$DW$T$23)
   11034                      .dwattr $C$DW$1048, DW_AT_name("AQCTLB")
   11035                      .dwattr $C$DW$1048, DW_AT_TI_symbol_name("_AQCTLB")
   11036                      .dwattr $C$DW$1048, DW_AT_data_member_location[DW_OP_plus_uconst 0xc]
   11037                      .dwattr $C$DW$1048, DW_AT_accessibility(DW_ACCESS_public)
   11038              
   11039              $C$DW$1049      .dwtag  DW_TAG_member
   11040                      .dwattr $C$DW$1049, DW_AT_type(*$C$DW$T$23)
   11041                      .dwattr $C$DW$1049, DW_AT_name("AQSFRC")
   11042                      .dwattr $C$DW$1049, DW_AT_TI_symbol_name("_AQSFRC")
   11043                      .dwattr $C$DW$1049, DW_AT_data_member_location[DW_OP_plus_uconst 0xd]
   11044                      .dwattr $C$DW$1049, DW_AT_accessibility(DW_ACCESS_public)
   11045              
   11046              $C$DW$1050      .dwtag  DW_TAG_member
   11047                      .dwattr $C$DW$1050, DW_AT_type(*$C$DW$T$23)
   11048                      .dwattr $C$DW$1050, DW_AT_name("AQCSFRC")
   11049                      .dwattr $C$DW$1050, DW_AT_TI_symbol_name("_AQCSFRC")
   11050                      .dwattr $C$DW$1050, DW_AT_data_member_location[DW_OP_plus_uconst 0xe]
   11051                      .dwattr $C$DW$1050, DW_AT_accessibility(DW_ACCESS_public)
   11052              
   11053              $C$DW$1051      .dwtag  DW_TAG_member
   11054                      .dwattr $C$DW$1051, DW_AT_type(*$C$DW$T$23)
   11055                      .dwattr $C$DW$1051, DW_AT_name("DBCTL")
   11056                      .dwattr $C$DW$1051, DW_AT_TI_symbol_name("_DBCTL")
   11057                      .dwattr $C$DW$1051, DW_AT_data_member_location[DW_OP_plus_uconst 0xf]
   11058                      .dwattr $C$DW$1051, DW_AT_accessibility(DW_ACCESS_public)
   11059              
   11060              $C$DW$1052      .dwtag  DW_TAG_member
   11061                      .dwattr $C$DW$1052, DW_AT_type(*$C$DW$T$23)
   11062                      .dwattr $C$DW$1052, DW_AT_name("DBRED")
   11063                      .dwattr $C$DW$1052, DW_AT_TI_symbol_name("_DBRED")
   11064                      .dwattr $C$DW$1052, DW_AT_data_member_location[DW_OP_plus_uconst 0x10]
   11065                      .dwattr $C$DW$1052, DW_AT_accessibility(DW_ACCESS_public)
   11066              
   11067              $C$DW$1053      .dwtag  DW_TAG_member
   11068                      .dwattr $C$DW$1053, DW_AT_type(*$C$DW$T$23)
   11069                      .dwattr $C$DW$1053, DW_AT_name("DBFED")
   11070                      .dwattr $C$DW$1053, DW_AT_TI_symbol_name("_DBFED")
   11071                      .dwattr $C$DW$1053, DW_AT_data_member_location[DW_OP_plus_uconst 0x11]
   11072                      .dwattr $C$DW$1053, DW_AT_accessibility(DW_ACCESS_public)
   11073              
   11074              $C$DW$1054      .dwtag  DW_TAG_member
   11075                      .dwattr $C$DW$1054, DW_AT_type(*$C$DW$T$23)
   11076                      .dwattr $C$DW$1054, DW_AT_name("TZSEL")
   11077                      .dwattr $C$DW$1054, DW_AT_TI_symbol_name("_TZSEL")
   11078                      .dwattr $C$DW$1054, DW_AT_data_member_location[DW_OP_plus_uconst 0x12]
   11079                      .dwattr $C$DW$1054, DW_AT_accessibility(DW_ACCESS_public)
   11080              
   11081              $C$DW$1055      .dwtag  DW_TAG_member
   11082                      .dwattr $C$DW$1055, DW_AT_type(*$C$DW$T$23)
   11083                      .dwattr $C$DW$1055, DW_AT_name("TZDCSEL")
   11084                      .dwattr $C$DW$1055, DW_AT_TI_symbol_name("_TZDCSEL")
   11085                      .dwattr $C$DW$1055, DW_AT_data_member_location[DW_OP_plus_uconst 0x13]
   11086                      .dwattr $C$DW$1055, DW_AT_accessibility(DW_ACCESS_public)
TMS320C2000 Assembler PC v15.12.3 Wed Nov 22 00:56:17 2017

Tools Copyright (c) 1996-2015 Texas Instruments Incorporated
C:\Users\wmj\AppData\Local\Temp\0070810                              PAGE  209

   11087              
   11088              $C$DW$1056      .dwtag  DW_TAG_member
   11089                      .dwattr $C$DW$1056, DW_AT_type(*$C$DW$T$23)
   11090                      .dwattr $C$DW$1056, DW_AT_name("TZCTL")
   11091                      .dwattr $C$DW$1056, DW_AT_TI_symbol_name("_TZCTL")
   11092                      .dwattr $C$DW$1056, DW_AT_data_member_location[DW_OP_plus_uconst 0x14]
   11093                      .dwattr $C$DW$1056, DW_AT_accessibility(DW_ACCESS_public)
   11094              
   11095              $C$DW$1057      .dwtag  DW_TAG_member
   11096                      .dwattr $C$DW$1057, DW_AT_type(*$C$DW$T$23)
   11097                      .dwattr $C$DW$1057, DW_AT_name("TZEINT")
   11098                      .dwattr $C$DW$1057, DW_AT_TI_symbol_name("_TZEINT")
   11099                      .dwattr $C$DW$1057, DW_AT_data_member_location[DW_OP_plus_uconst 0x15]
   11100                      .dwattr $C$DW$1057, DW_AT_accessibility(DW_ACCESS_public)
   11101              
   11102              $C$DW$1058      .dwtag  DW_TAG_member
   11103                      .dwattr $C$DW$1058, DW_AT_type(*$C$DW$T$23)
   11104                      .dwattr $C$DW$1058, DW_AT_name("TZFLG")
   11105                      .dwattr $C$DW$1058, DW_AT_TI_symbol_name("_TZFLG")
   11106                      .dwattr $C$DW$1058, DW_AT_data_member_location[DW_OP_plus_uconst 0x16]
   11107                      .dwattr $C$DW$1058, DW_AT_accessibility(DW_ACCESS_public)
   11108              
   11109              $C$DW$1059      .dwtag  DW_TAG_member
   11110                      .dwattr $C$DW$1059, DW_AT_type(*$C$DW$T$23)
   11111                      .dwattr $C$DW$1059, DW_AT_name("TZCLR")
   11112                      .dwattr $C$DW$1059, DW_AT_TI_symbol_name("_TZCLR")
   11113                      .dwattr $C$DW$1059, DW_AT_data_member_location[DW_OP_plus_uconst 0x17]
   11114                      .dwattr $C$DW$1059, DW_AT_accessibility(DW_ACCESS_public)
   11115              
   11116              $C$DW$1060      .dwtag  DW_TAG_member
   11117                      .dwattr $C$DW$1060, DW_AT_type(*$C$DW$T$23)
   11118                      .dwattr $C$DW$1060, DW_AT_name("TZFRC")
   11119                      .dwattr $C$DW$1060, DW_AT_TI_symbol_name("_TZFRC")
   11120                      .dwattr $C$DW$1060, DW_AT_data_member_location[DW_OP_plus_uconst 0x18]
   11121                      .dwattr $C$DW$1060, DW_AT_accessibility(DW_ACCESS_public)
   11122              
   11123              $C$DW$1061      .dwtag  DW_TAG_member
   11124                      .dwattr $C$DW$1061, DW_AT_type(*$C$DW$T$23)
   11125                      .dwattr $C$DW$1061, DW_AT_name("ETSEL")
   11126                      .dwattr $C$DW$1061, DW_AT_TI_symbol_name("_ETSEL")
   11127                      .dwattr $C$DW$1061, DW_AT_data_member_location[DW_OP_plus_uconst 0x19]
   11128                      .dwattr $C$DW$1061, DW_AT_accessibility(DW_ACCESS_public)
   11129              
   11130              $C$DW$1062      .dwtag  DW_TAG_member
   11131                      .dwattr $C$DW$1062, DW_AT_type(*$C$DW$T$23)
   11132                      .dwattr $C$DW$1062, DW_AT_name("ETPS")
   11133                      .dwattr $C$DW$1062, DW_AT_TI_symbol_name("_ETPS")
   11134                      .dwattr $C$DW$1062, DW_AT_data_member_location[DW_OP_plus_uconst 0x1a]
   11135                      .dwattr $C$DW$1062, DW_AT_accessibility(DW_ACCESS_public)
   11136              
   11137              $C$DW$1063      .dwtag  DW_TAG_member
   11138                      .dwattr $C$DW$1063, DW_AT_type(*$C$DW$T$23)
   11139                      .dwattr $C$DW$1063, DW_AT_name("ETFLG")
   11140                      .dwattr $C$DW$1063, DW_AT_TI_symbol_name("_ETFLG")
   11141                      .dwattr $C$DW$1063, DW_AT_data_member_location[DW_OP_plus_uconst 0x1b]
TMS320C2000 Assembler PC v15.12.3 Wed Nov 22 00:56:17 2017

Tools Copyright (c) 1996-2015 Texas Instruments Incorporated
C:\Users\wmj\AppData\Local\Temp\0070810                              PAGE  210

   11142                      .dwattr $C$DW$1063, DW_AT_accessibility(DW_ACCESS_public)
   11143              
   11144              $C$DW$1064      .dwtag  DW_TAG_member
   11145                      .dwattr $C$DW$1064, DW_AT_type(*$C$DW$T$23)
   11146                      .dwattr $C$DW$1064, DW_AT_name("ETCLR")
   11147                      .dwattr $C$DW$1064, DW_AT_TI_symbol_name("_ETCLR")
   11148                      .dwattr $C$DW$1064, DW_AT_data_member_location[DW_OP_plus_uconst 0x1c]
   11149                      .dwattr $C$DW$1064, DW_AT_accessibility(DW_ACCESS_public)
   11150              
   11151              $C$DW$1065      .dwtag  DW_TAG_member
   11152                      .dwattr $C$DW$1065, DW_AT_type(*$C$DW$T$23)
   11153                      .dwattr $C$DW$1065, DW_AT_name("ETFRC")
   11154                      .dwattr $C$DW$1065, DW_AT_TI_symbol_name("_ETFRC")
   11155                      .dwattr $C$DW$1065, DW_AT_data_member_location[DW_OP_plus_uconst 0x1d]
   11156                      .dwattr $C$DW$1065, DW_AT_accessibility(DW_ACCESS_public)
   11157              
   11158              $C$DW$1066      .dwtag  DW_TAG_member
   11159                      .dwattr $C$DW$1066, DW_AT_type(*$C$DW$T$23)
   11160                      .dwattr $C$DW$1066, DW_AT_name("PCCTL")
   11161                      .dwattr $C$DW$1066, DW_AT_TI_symbol_name("_PCCTL")
   11162                      .dwattr $C$DW$1066, DW_AT_data_member_location[DW_OP_plus_uconst 0x1e]
   11163                      .dwattr $C$DW$1066, DW_AT_accessibility(DW_ACCESS_public)
   11164              
   11165              $C$DW$1067      .dwtag  DW_TAG_member
   11166                      .dwattr $C$DW$1067, DW_AT_type(*$C$DW$T$23)
   11167                      .dwattr $C$DW$1067, DW_AT_name("rsvd_1")
   11168                      .dwattr $C$DW$1067, DW_AT_TI_symbol_name("_rsvd_1")
   11169                      .dwattr $C$DW$1067, DW_AT_data_member_location[DW_OP_plus_uconst 0x1f]
   11170                      .dwattr $C$DW$1067, DW_AT_accessibility(DW_ACCESS_public)
   11171              
   11172              $C$DW$1068      .dwtag  DW_TAG_member
   11173                      .dwattr $C$DW$1068, DW_AT_type(*$C$DW$T$23)
   11174                      .dwattr $C$DW$1068, DW_AT_name("HRCNFG")
   11175                      .dwattr $C$DW$1068, DW_AT_TI_symbol_name("_HRCNFG")
   11176                      .dwattr $C$DW$1068, DW_AT_data_member_location[DW_OP_plus_uconst 0x20]
   11177                      .dwattr $C$DW$1068, DW_AT_accessibility(DW_ACCESS_public)
   11178              
   11179              $C$DW$1069      .dwtag  DW_TAG_member
   11180                      .dwattr $C$DW$1069, DW_AT_type(*$C$DW$T$23)
   11181                      .dwattr $C$DW$1069, DW_AT_name("HRPWR")
   11182                      .dwattr $C$DW$1069, DW_AT_TI_symbol_name("_HRPWR")
   11183                      .dwattr $C$DW$1069, DW_AT_data_member_location[DW_OP_plus_uconst 0x21]
   11184                      .dwattr $C$DW$1069, DW_AT_accessibility(DW_ACCESS_public)
   11185              
   11186              $C$DW$1070      .dwtag  DW_TAG_member
   11187                      .dwattr $C$DW$1070, DW_AT_type(*$C$DW$T$82)
   11188                      .dwattr $C$DW$1070, DW_AT_name("rsvd_2")
   11189                      .dwattr $C$DW$1070, DW_AT_TI_symbol_name("_rsvd_2")
   11190                      .dwattr $C$DW$1070, DW_AT_data_member_location[DW_OP_plus_uconst 0x22]
   11191                      .dwattr $C$DW$1070, DW_AT_accessibility(DW_ACCESS_public)
   11192              
   11193              $C$DW$1071      .dwtag  DW_TAG_member
   11194                      .dwattr $C$DW$1071, DW_AT_type(*$C$DW$T$23)
   11195                      .dwattr $C$DW$1071, DW_AT_name("HRMSTEP")
   11196                      .dwattr $C$DW$1071, DW_AT_TI_symbol_name("_HRMSTEP")
TMS320C2000 Assembler PC v15.12.3 Wed Nov 22 00:56:17 2017

Tools Copyright (c) 1996-2015 Texas Instruments Incorporated
C:\Users\wmj\AppData\Local\Temp\0070810                              PAGE  211

   11197                      .dwattr $C$DW$1071, DW_AT_data_member_location[DW_OP_plus_uconst 0x26]
   11198                      .dwattr $C$DW$1071, DW_AT_accessibility(DW_ACCESS_public)
   11199              
   11200              $C$DW$1072      .dwtag  DW_TAG_member
   11201                      .dwattr $C$DW$1072, DW_AT_type(*$C$DW$T$23)
   11202                      .dwattr $C$DW$1072, DW_AT_name("rsvd_3")
   11203                      .dwattr $C$DW$1072, DW_AT_TI_symbol_name("_rsvd_3")
   11204                      .dwattr $C$DW$1072, DW_AT_data_member_location[DW_OP_plus_uconst 0x27]
   11205                      .dwattr $C$DW$1072, DW_AT_accessibility(DW_ACCESS_public)
   11206              
   11207              $C$DW$1073      .dwtag  DW_TAG_member
   11208                      .dwattr $C$DW$1073, DW_AT_type(*$C$DW$T$23)
   11209                      .dwattr $C$DW$1073, DW_AT_name("HRPCTL")
   11210                      .dwattr $C$DW$1073, DW_AT_TI_symbol_name("_HRPCTL")
   11211                      .dwattr $C$DW$1073, DW_AT_data_member_location[DW_OP_plus_uconst 0x28]
   11212                      .dwattr $C$DW$1073, DW_AT_accessibility(DW_ACCESS_public)
   11213              
   11214              $C$DW$1074      .dwtag  DW_TAG_member
   11215                      .dwattr $C$DW$1074, DW_AT_type(*$C$DW$T$23)
   11216                      .dwattr $C$DW$1074, DW_AT_name("rsvd_4")
   11217                      .dwattr $C$DW$1074, DW_AT_TI_symbol_name("_rsvd_4")
   11218                      .dwattr $C$DW$1074, DW_AT_data_member_location[DW_OP_plus_uconst 0x29]
   11219                      .dwattr $C$DW$1074, DW_AT_accessibility(DW_ACCESS_public)
   11220              
   11221              $C$DW$1075      .dwtag  DW_TAG_member
   11222                      .dwattr $C$DW$1075, DW_AT_type(*$C$DW$T$23)
   11223                      .dwattr $C$DW$1075, DW_AT_name("TBPRDHRM")
   11224                      .dwattr $C$DW$1075, DW_AT_TI_symbol_name("_TBPRDHRM")
   11225                      .dwattr $C$DW$1075, DW_AT_data_member_location[DW_OP_plus_uconst 0x2a]
   11226                      .dwattr $C$DW$1075, DW_AT_accessibility(DW_ACCESS_public)
   11227              
   11228              $C$DW$1076      .dwtag  DW_TAG_member
   11229                      .dwattr $C$DW$1076, DW_AT_type(*$C$DW$T$23)
   11230                      .dwattr $C$DW$1076, DW_AT_name("TBPRDM")
   11231                      .dwattr $C$DW$1076, DW_AT_TI_symbol_name("_TBPRDM")
   11232                      .dwattr $C$DW$1076, DW_AT_data_member_location[DW_OP_plus_uconst 0x2b]
   11233                      .dwattr $C$DW$1076, DW_AT_accessibility(DW_ACCESS_public)
   11234              
   11235              $C$DW$1077      .dwtag  DW_TAG_member
   11236                      .dwattr $C$DW$1077, DW_AT_type(*$C$DW$T$23)
   11237                      .dwattr $C$DW$1077, DW_AT_name("CMPAHRM")
   11238                      .dwattr $C$DW$1077, DW_AT_TI_symbol_name("_CMPAHRM")
   11239                      .dwattr $C$DW$1077, DW_AT_data_member_location[DW_OP_plus_uconst 0x2c]
   11240                      .dwattr $C$DW$1077, DW_AT_accessibility(DW_ACCESS_public)
   11241              
   11242              $C$DW$1078      .dwtag  DW_TAG_member
   11243                      .dwattr $C$DW$1078, DW_AT_type(*$C$DW$T$23)
   11244                      .dwattr $C$DW$1078, DW_AT_name("CMPAM")
   11245                      .dwattr $C$DW$1078, DW_AT_TI_symbol_name("_CMPAM")
   11246                      .dwattr $C$DW$1078, DW_AT_data_member_location[DW_OP_plus_uconst 0x2d]
   11247                      .dwattr $C$DW$1078, DW_AT_accessibility(DW_ACCESS_public)
   11248              
   11249              $C$DW$1079      .dwtag  DW_TAG_member
   11250                      .dwattr $C$DW$1079, DW_AT_type(*$C$DW$T$26)
   11251                      .dwattr $C$DW$1079, DW_AT_name("rsvd_5")
TMS320C2000 Assembler PC v15.12.3 Wed Nov 22 00:56:17 2017

Tools Copyright (c) 1996-2015 Texas Instruments Incorporated
C:\Users\wmj\AppData\Local\Temp\0070810                              PAGE  212

   11252                      .dwattr $C$DW$1079, DW_AT_TI_symbol_name("_rsvd_5")
   11253                      .dwattr $C$DW$1079, DW_AT_data_member_location[DW_OP_plus_uconst 0x2e]
   11254                      .dwattr $C$DW$1079, DW_AT_accessibility(DW_ACCESS_public)
   11255              
   11256              $C$DW$1080      .dwtag  DW_TAG_member
   11257                      .dwattr $C$DW$1080, DW_AT_type(*$C$DW$T$23)
   11258                      .dwattr $C$DW$1080, DW_AT_name("DCTRIPSEL")
   11259                      .dwattr $C$DW$1080, DW_AT_TI_symbol_name("_DCTRIPSEL")
   11260                      .dwattr $C$DW$1080, DW_AT_data_member_location[DW_OP_plus_uconst 0x30]
   11261                      .dwattr $C$DW$1080, DW_AT_accessibility(DW_ACCESS_public)
   11262              
   11263              $C$DW$1081      .dwtag  DW_TAG_member
   11264                      .dwattr $C$DW$1081, DW_AT_type(*$C$DW$T$23)
   11265                      .dwattr $C$DW$1081, DW_AT_name("DCACTL")
   11266                      .dwattr $C$DW$1081, DW_AT_TI_symbol_name("_DCACTL")
   11267                      .dwattr $C$DW$1081, DW_AT_data_member_location[DW_OP_plus_uconst 0x31]
   11268                      .dwattr $C$DW$1081, DW_AT_accessibility(DW_ACCESS_public)
   11269              
   11270              $C$DW$1082      .dwtag  DW_TAG_member
   11271                      .dwattr $C$DW$1082, DW_AT_type(*$C$DW$T$23)
   11272                      .dwattr $C$DW$1082, DW_AT_name("DCBCTL")
   11273                      .dwattr $C$DW$1082, DW_AT_TI_symbol_name("_DCBCTL")
   11274                      .dwattr $C$DW$1082, DW_AT_data_member_location[DW_OP_plus_uconst 0x32]
   11275                      .dwattr $C$DW$1082, DW_AT_accessibility(DW_ACCESS_public)
   11276              
   11277              $C$DW$1083      .dwtag  DW_TAG_member
   11278                      .dwattr $C$DW$1083, DW_AT_type(*$C$DW$T$23)
   11279                      .dwattr $C$DW$1083, DW_AT_name("DCFCTL")
   11280                      .dwattr $C$DW$1083, DW_AT_TI_symbol_name("_DCFCTL")
   11281                      .dwattr $C$DW$1083, DW_AT_data_member_location[DW_OP_plus_uconst 0x33]
   11282                      .dwattr $C$DW$1083, DW_AT_accessibility(DW_ACCESS_public)
   11283              
   11284              $C$DW$1084      .dwtag  DW_TAG_member
   11285                      .dwattr $C$DW$1084, DW_AT_type(*$C$DW$T$23)
   11286                      .dwattr $C$DW$1084, DW_AT_name("DCCAPCTL")
   11287                      .dwattr $C$DW$1084, DW_AT_TI_symbol_name("_DCCAPCTL")
   11288                      .dwattr $C$DW$1084, DW_AT_data_member_location[DW_OP_plus_uconst 0x34]
   11289                      .dwattr $C$DW$1084, DW_AT_accessibility(DW_ACCESS_public)
   11290              
   11291              $C$DW$1085      .dwtag  DW_TAG_member
   11292                      .dwattr $C$DW$1085, DW_AT_type(*$C$DW$T$23)
   11293                      .dwattr $C$DW$1085, DW_AT_name("DCFOFFSET")
   11294                      .dwattr $C$DW$1085, DW_AT_TI_symbol_name("_DCFOFFSET")
   11295                      .dwattr $C$DW$1085, DW_AT_data_member_location[DW_OP_plus_uconst 0x35]
   11296                      .dwattr $C$DW$1085, DW_AT_accessibility(DW_ACCESS_public)
   11297              
   11298              $C$DW$1086      .dwtag  DW_TAG_member
   11299                      .dwattr $C$DW$1086, DW_AT_type(*$C$DW$T$23)
   11300                      .dwattr $C$DW$1086, DW_AT_name("DCFOFFSETCNT")
   11301                      .dwattr $C$DW$1086, DW_AT_TI_symbol_name("_DCFOFFSETCNT")
   11302                      .dwattr $C$DW$1086, DW_AT_data_member_location[DW_OP_plus_uconst 0x36]
   11303                      .dwattr $C$DW$1086, DW_AT_accessibility(DW_ACCESS_public)
   11304              
   11305              $C$DW$1087      .dwtag  DW_TAG_member
   11306                      .dwattr $C$DW$1087, DW_AT_type(*$C$DW$T$23)
TMS320C2000 Assembler PC v15.12.3 Wed Nov 22 00:56:17 2017

Tools Copyright (c) 1996-2015 Texas Instruments Incorporated
C:\Users\wmj\AppData\Local\Temp\0070810                              PAGE  213

   11307                      .dwattr $C$DW$1087, DW_AT_name("DCFWINDOW")
   11308                      .dwattr $C$DW$1087, DW_AT_TI_symbol_name("_DCFWINDOW")
   11309                      .dwattr $C$DW$1087, DW_AT_data_member_location[DW_OP_plus_uconst 0x37]
   11310                      .dwattr $C$DW$1087, DW_AT_accessibility(DW_ACCESS_public)
   11311              
   11312              $C$DW$1088      .dwtag  DW_TAG_member
   11313                      .dwattr $C$DW$1088, DW_AT_type(*$C$DW$T$23)
   11314                      .dwattr $C$DW$1088, DW_AT_name("DCFWINDOWCNT")
   11315                      .dwattr $C$DW$1088, DW_AT_TI_symbol_name("_DCFWINDOWCNT")
   11316                      .dwattr $C$DW$1088, DW_AT_data_member_location[DW_OP_plus_uconst 0x38]
   11317                      .dwattr $C$DW$1088, DW_AT_accessibility(DW_ACCESS_public)
   11318              
   11319              $C$DW$1089      .dwtag  DW_TAG_member
   11320                      .dwattr $C$DW$1089, DW_AT_type(*$C$DW$T$23)
   11321                      .dwattr $C$DW$1089, DW_AT_name("DCCAP")
   11322                      .dwattr $C$DW$1089, DW_AT_TI_symbol_name("_DCCAP")
   11323                      .dwattr $C$DW$1089, DW_AT_data_member_location[DW_OP_plus_uconst 0x39]
   11324                      .dwattr $C$DW$1089, DW_AT_accessibility(DW_ACCESS_public)
   11325              
   11326                      .dwendtag $C$DW$T$153
   11327              
   11328              $C$DW$T$107     .dwtag  DW_TAG_pointer_type
   11329                      .dwattr $C$DW$T$107, DW_AT_type(*$C$DW$T$153)
   11330                      .dwattr $C$DW$T$107, DW_AT_address_class(0x20)
   11331              
   11332              $C$DW$T$108     .dwtag  DW_TAG_typedef
   11333                      .dwattr $C$DW$T$108, DW_AT_name("PWM_Handle")
   11334                      .dwattr $C$DW$T$108, DW_AT_type(*$C$DW$T$107)
   11335                      .dwattr $C$DW$T$108, DW_AT_language(DW_LANG_C)
   11336              
   11337              
   11338              $C$DW$T$109     .dwtag  DW_TAG_array_type
   11339                      .dwattr $C$DW$T$109, DW_AT_type(*$C$DW$T$108)
   11340                      .dwattr $C$DW$T$109, DW_AT_language(DW_LANG_C)
   11341                      .dwattr $C$DW$T$109, DW_AT_byte_size(0x06)
   11342              $C$DW$1090      .dwtag  DW_TAG_subrange_type
   11343                      .dwattr $C$DW$1090, DW_AT_upper_bound(0x02)
   11344              
   11345                      .dwendtag $C$DW$T$109
   11346              
   11347              
   11348              $C$DW$T$155     .dwtag  DW_TAG_structure_type
   11349                      .dwattr $C$DW$T$155, DW_AT_name("_PWR_Obj_")
   11350                      .dwattr $C$DW$T$155, DW_AT_byte_size(0x669a)
   11351              $C$DW$1091      .dwtag  DW_TAG_member
   11352                      .dwattr $C$DW$1091, DW_AT_type(*$C$DW$T$23)
   11353                      .dwattr $C$DW$1091, DW_AT_name("BORCFG")
   11354                      .dwattr $C$DW$1091, DW_AT_TI_symbol_name("_BORCFG")
   11355                      .dwattr $C$DW$1091, DW_AT_data_member_location[DW_OP_plus_uconst 0x0]
   11356                      .dwattr $C$DW$1091, DW_AT_accessibility(DW_ACCESS_public)
   11357              
   11358              $C$DW$1092      .dwtag  DW_TAG_member
   11359                      .dwattr $C$DW$1092, DW_AT_type(*$C$DW$T$154)
   11360                      .dwattr $C$DW$1092, DW_AT_name("rsvd_1")
   11361                      .dwattr $C$DW$1092, DW_AT_TI_symbol_name("_rsvd_1")
TMS320C2000 Assembler PC v15.12.3 Wed Nov 22 00:56:17 2017

Tools Copyright (c) 1996-2015 Texas Instruments Incorporated
C:\Users\wmj\AppData\Local\Temp\0070810                              PAGE  214

   11362                      .dwattr $C$DW$1092, DW_AT_data_member_location[DW_OP_plus_uconst 0x1]
   11363                      .dwattr $C$DW$1092, DW_AT_accessibility(DW_ACCESS_public)
   11364              
   11365              $C$DW$1093      .dwtag  DW_TAG_member
   11366                      .dwattr $C$DW$1093, DW_AT_type(*$C$DW$T$23)
   11367                      .dwattr $C$DW$1093, DW_AT_name("LPMCR0")
   11368                      .dwattr $C$DW$1093, DW_AT_TI_symbol_name("_LPMCR0")
   11369                      .dwattr $C$DW$1093, DW_AT_data_member_location[DW_OP_plus_uconst 0x6699]
   11370                      .dwattr $C$DW$1093, DW_AT_accessibility(DW_ACCESS_public)
   11371              
   11372                      .dwendtag $C$DW$T$155
   11373              
   11374              $C$DW$T$110     .dwtag  DW_TAG_pointer_type
   11375                      .dwattr $C$DW$T$110, DW_AT_type(*$C$DW$T$155)
   11376                      .dwattr $C$DW$T$110, DW_AT_address_class(0x20)
   11377              
   11378              $C$DW$T$111     .dwtag  DW_TAG_typedef
   11379                      .dwattr $C$DW$T$111, DW_AT_name("PWR_Handle")
   11380                      .dwattr $C$DW$T$111, DW_AT_type(*$C$DW$T$110)
   11381                      .dwattr $C$DW$T$111, DW_AT_language(DW_LANG_C)
   11382              
   11383              
   11384              $C$DW$T$156     .dwtag  DW_TAG_structure_type
   11385                      .dwattr $C$DW$T$156, DW_AT_name("_SCI_Obj_")
   11386                      .dwattr $C$DW$T$156, DW_AT_byte_size(0x10)
   11387              $C$DW$1094      .dwtag  DW_TAG_member
   11388                      .dwattr $C$DW$1094, DW_AT_type(*$C$DW$T$23)
   11389                      .dwattr $C$DW$1094, DW_AT_name("SCICCR")
   11390                      .dwattr $C$DW$1094, DW_AT_TI_symbol_name("_SCICCR")
   11391                      .dwattr $C$DW$1094, DW_AT_data_member_location[DW_OP_plus_uconst 0x0]
   11392                      .dwattr $C$DW$1094, DW_AT_accessibility(DW_ACCESS_public)
   11393              
   11394              $C$DW$1095      .dwtag  DW_TAG_member
   11395                      .dwattr $C$DW$1095, DW_AT_type(*$C$DW$T$23)
   11396                      .dwattr $C$DW$1095, DW_AT_name("SCICTL1")
   11397                      .dwattr $C$DW$1095, DW_AT_TI_symbol_name("_SCICTL1")
   11398                      .dwattr $C$DW$1095, DW_AT_data_member_location[DW_OP_plus_uconst 0x1]
   11399                      .dwattr $C$DW$1095, DW_AT_accessibility(DW_ACCESS_public)
   11400              
   11401              $C$DW$1096      .dwtag  DW_TAG_member
   11402                      .dwattr $C$DW$1096, DW_AT_type(*$C$DW$T$23)
   11403                      .dwattr $C$DW$1096, DW_AT_name("SCIHBAUD")
   11404                      .dwattr $C$DW$1096, DW_AT_TI_symbol_name("_SCIHBAUD")
   11405                      .dwattr $C$DW$1096, DW_AT_data_member_location[DW_OP_plus_uconst 0x2]
   11406                      .dwattr $C$DW$1096, DW_AT_accessibility(DW_ACCESS_public)
   11407              
   11408              $C$DW$1097      .dwtag  DW_TAG_member
   11409                      .dwattr $C$DW$1097, DW_AT_type(*$C$DW$T$23)
   11410                      .dwattr $C$DW$1097, DW_AT_name("SCILBAUD")
   11411                      .dwattr $C$DW$1097, DW_AT_TI_symbol_name("_SCILBAUD")
   11412                      .dwattr $C$DW$1097, DW_AT_data_member_location[DW_OP_plus_uconst 0x3]
   11413                      .dwattr $C$DW$1097, DW_AT_accessibility(DW_ACCESS_public)
   11414              
   11415              $C$DW$1098      .dwtag  DW_TAG_member
   11416                      .dwattr $C$DW$1098, DW_AT_type(*$C$DW$T$23)
TMS320C2000 Assembler PC v15.12.3 Wed Nov 22 00:56:17 2017

Tools Copyright (c) 1996-2015 Texas Instruments Incorporated
C:\Users\wmj\AppData\Local\Temp\0070810                              PAGE  215

   11417                      .dwattr $C$DW$1098, DW_AT_name("SCICTL2")
   11418                      .dwattr $C$DW$1098, DW_AT_TI_symbol_name("_SCICTL2")
   11419                      .dwattr $C$DW$1098, DW_AT_data_member_location[DW_OP_plus_uconst 0x4]
   11420                      .dwattr $C$DW$1098, DW_AT_accessibility(DW_ACCESS_public)
   11421              
   11422              $C$DW$1099      .dwtag  DW_TAG_member
   11423                      .dwattr $C$DW$1099, DW_AT_type(*$C$DW$T$23)
   11424                      .dwattr $C$DW$1099, DW_AT_name("SCIRXST")
   11425                      .dwattr $C$DW$1099, DW_AT_TI_symbol_name("_SCIRXST")
   11426                      .dwattr $C$DW$1099, DW_AT_data_member_location[DW_OP_plus_uconst 0x5]
   11427                      .dwattr $C$DW$1099, DW_AT_accessibility(DW_ACCESS_public)
   11428              
   11429              $C$DW$1100      .dwtag  DW_TAG_member
   11430                      .dwattr $C$DW$1100, DW_AT_type(*$C$DW$T$23)
   11431                      .dwattr $C$DW$1100, DW_AT_name("SCIRXEMU")
   11432                      .dwattr $C$DW$1100, DW_AT_TI_symbol_name("_SCIRXEMU")
   11433                      .dwattr $C$DW$1100, DW_AT_data_member_location[DW_OP_plus_uconst 0x6]
   11434                      .dwattr $C$DW$1100, DW_AT_accessibility(DW_ACCESS_public)
   11435              
   11436              $C$DW$1101      .dwtag  DW_TAG_member
   11437                      .dwattr $C$DW$1101, DW_AT_type(*$C$DW$T$23)
   11438                      .dwattr $C$DW$1101, DW_AT_name("SCIRXBUF")
   11439                      .dwattr $C$DW$1101, DW_AT_TI_symbol_name("_SCIRXBUF")
   11440                      .dwattr $C$DW$1101, DW_AT_data_member_location[DW_OP_plus_uconst 0x7]
   11441                      .dwattr $C$DW$1101, DW_AT_accessibility(DW_ACCESS_public)
   11442              
   11443              $C$DW$1102      .dwtag  DW_TAG_member
   11444                      .dwattr $C$DW$1102, DW_AT_type(*$C$DW$T$23)
   11445                      .dwattr $C$DW$1102, DW_AT_name("rsvd_1")
   11446                      .dwattr $C$DW$1102, DW_AT_TI_symbol_name("_rsvd_1")
   11447                      .dwattr $C$DW$1102, DW_AT_data_member_location[DW_OP_plus_uconst 0x8]
   11448                      .dwattr $C$DW$1102, DW_AT_accessibility(DW_ACCESS_public)
   11449              
   11450              $C$DW$1103      .dwtag  DW_TAG_member
   11451                      .dwattr $C$DW$1103, DW_AT_type(*$C$DW$T$23)
   11452                      .dwattr $C$DW$1103, DW_AT_name("SCITXBUF")
   11453                      .dwattr $C$DW$1103, DW_AT_TI_symbol_name("_SCITXBUF")
   11454                      .dwattr $C$DW$1103, DW_AT_data_member_location[DW_OP_plus_uconst 0x9]
   11455                      .dwattr $C$DW$1103, DW_AT_accessibility(DW_ACCESS_public)
   11456              
   11457              $C$DW$1104      .dwtag  DW_TAG_member
   11458                      .dwattr $C$DW$1104, DW_AT_type(*$C$DW$T$23)
   11459                      .dwattr $C$DW$1104, DW_AT_name("SCIFFTX")
   11460                      .dwattr $C$DW$1104, DW_AT_TI_symbol_name("_SCIFFTX")
   11461                      .dwattr $C$DW$1104, DW_AT_data_member_location[DW_OP_plus_uconst 0xa]
   11462                      .dwattr $C$DW$1104, DW_AT_accessibility(DW_ACCESS_public)
   11463              
   11464              $C$DW$1105      .dwtag  DW_TAG_member
   11465                      .dwattr $C$DW$1105, DW_AT_type(*$C$DW$T$23)
   11466                      .dwattr $C$DW$1105, DW_AT_name("SCIFFRX")
   11467                      .dwattr $C$DW$1105, DW_AT_TI_symbol_name("_SCIFFRX")
   11468                      .dwattr $C$DW$1105, DW_AT_data_member_location[DW_OP_plus_uconst 0xb]
   11469                      .dwattr $C$DW$1105, DW_AT_accessibility(DW_ACCESS_public)
   11470              
   11471              $C$DW$1106      .dwtag  DW_TAG_member
TMS320C2000 Assembler PC v15.12.3 Wed Nov 22 00:56:17 2017

Tools Copyright (c) 1996-2015 Texas Instruments Incorporated
C:\Users\wmj\AppData\Local\Temp\0070810                              PAGE  216

   11472                      .dwattr $C$DW$1106, DW_AT_type(*$C$DW$T$23)
   11473                      .dwattr $C$DW$1106, DW_AT_name("SCIFFCT")
   11474                      .dwattr $C$DW$1106, DW_AT_TI_symbol_name("_SCIFFCT")
   11475                      .dwattr $C$DW$1106, DW_AT_data_member_location[DW_OP_plus_uconst 0xc]
   11476                      .dwattr $C$DW$1106, DW_AT_accessibility(DW_ACCESS_public)
   11477              
   11478              $C$DW$1107      .dwtag  DW_TAG_member
   11479                      .dwattr $C$DW$1107, DW_AT_type(*$C$DW$T$26)
   11480                      .dwattr $C$DW$1107, DW_AT_name("rsvd_2")
   11481                      .dwattr $C$DW$1107, DW_AT_TI_symbol_name("_rsvd_2")
   11482                      .dwattr $C$DW$1107, DW_AT_data_member_location[DW_OP_plus_uconst 0xd]
   11483                      .dwattr $C$DW$1107, DW_AT_accessibility(DW_ACCESS_public)
   11484              
   11485              $C$DW$1108      .dwtag  DW_TAG_member
   11486                      .dwattr $C$DW$1108, DW_AT_type(*$C$DW$T$23)
   11487                      .dwattr $C$DW$1108, DW_AT_name("SCIPRI")
   11488                      .dwattr $C$DW$1108, DW_AT_TI_symbol_name("_SCIPRI")
   11489                      .dwattr $C$DW$1108, DW_AT_data_member_location[DW_OP_plus_uconst 0xf]
   11490                      .dwattr $C$DW$1108, DW_AT_accessibility(DW_ACCESS_public)
   11491              
   11492                      .dwendtag $C$DW$T$156
   11493              
   11494              $C$DW$T$119     .dwtag  DW_TAG_pointer_type
   11495                      .dwattr $C$DW$T$119, DW_AT_type(*$C$DW$T$156)
   11496                      .dwattr $C$DW$T$119, DW_AT_address_class(0x20)
   11497              
   11498              $C$DW$T$120     .dwtag  DW_TAG_typedef
   11499                      .dwattr $C$DW$T$120, DW_AT_name("SCI_Handle")
   11500                      .dwattr $C$DW$T$120, DW_AT_type(*$C$DW$T$119)
   11501                      .dwattr $C$DW$T$120, DW_AT_language(DW_LANG_C)
   11502              
   11503              
   11504              $C$DW$T$157     .dwtag  DW_TAG_structure_type
   11505                      .dwattr $C$DW$T$157, DW_AT_name("_SPI_Obj_")
   11506                      .dwattr $C$DW$T$157, DW_AT_byte_size(0x10)
   11507              $C$DW$1109      .dwtag  DW_TAG_member
   11508                      .dwattr $C$DW$1109, DW_AT_type(*$C$DW$T$23)
   11509                      .dwattr $C$DW$1109, DW_AT_name("SPICCR")
   11510                      .dwattr $C$DW$1109, DW_AT_TI_symbol_name("_SPICCR")
   11511                      .dwattr $C$DW$1109, DW_AT_data_member_location[DW_OP_plus_uconst 0x0]
   11512                      .dwattr $C$DW$1109, DW_AT_accessibility(DW_ACCESS_public)
   11513              
   11514              $C$DW$1110      .dwtag  DW_TAG_member
   11515                      .dwattr $C$DW$1110, DW_AT_type(*$C$DW$T$23)
   11516                      .dwattr $C$DW$1110, DW_AT_name("SPICTL")
   11517                      .dwattr $C$DW$1110, DW_AT_TI_symbol_name("_SPICTL")
   11518                      .dwattr $C$DW$1110, DW_AT_data_member_location[DW_OP_plus_uconst 0x1]
   11519                      .dwattr $C$DW$1110, DW_AT_accessibility(DW_ACCESS_public)
   11520              
   11521              $C$DW$1111      .dwtag  DW_TAG_member
   11522                      .dwattr $C$DW$1111, DW_AT_type(*$C$DW$T$23)
   11523                      .dwattr $C$DW$1111, DW_AT_name("SPIST")
   11524                      .dwattr $C$DW$1111, DW_AT_TI_symbol_name("_SPIST")
   11525                      .dwattr $C$DW$1111, DW_AT_data_member_location[DW_OP_plus_uconst 0x2]
   11526                      .dwattr $C$DW$1111, DW_AT_accessibility(DW_ACCESS_public)
TMS320C2000 Assembler PC v15.12.3 Wed Nov 22 00:56:17 2017

Tools Copyright (c) 1996-2015 Texas Instruments Incorporated
C:\Users\wmj\AppData\Local\Temp\0070810                              PAGE  217

   11527              
   11528              $C$DW$1112      .dwtag  DW_TAG_member
   11529                      .dwattr $C$DW$1112, DW_AT_type(*$C$DW$T$23)
   11530                      .dwattr $C$DW$1112, DW_AT_name("rsvd_1")
   11531                      .dwattr $C$DW$1112, DW_AT_TI_symbol_name("_rsvd_1")
   11532                      .dwattr $C$DW$1112, DW_AT_data_member_location[DW_OP_plus_uconst 0x3]
   11533                      .dwattr $C$DW$1112, DW_AT_accessibility(DW_ACCESS_public)
   11534              
   11535              $C$DW$1113      .dwtag  DW_TAG_member
   11536                      .dwattr $C$DW$1113, DW_AT_type(*$C$DW$T$23)
   11537                      .dwattr $C$DW$1113, DW_AT_name("SPIBRR")
   11538                      .dwattr $C$DW$1113, DW_AT_TI_symbol_name("_SPIBRR")
   11539                      .dwattr $C$DW$1113, DW_AT_data_member_location[DW_OP_plus_uconst 0x4]
   11540                      .dwattr $C$DW$1113, DW_AT_accessibility(DW_ACCESS_public)
   11541              
   11542              $C$DW$1114      .dwtag  DW_TAG_member
   11543                      .dwattr $C$DW$1114, DW_AT_type(*$C$DW$T$23)
   11544                      .dwattr $C$DW$1114, DW_AT_name("rsvd_2")
   11545                      .dwattr $C$DW$1114, DW_AT_TI_symbol_name("_rsvd_2")
   11546                      .dwattr $C$DW$1114, DW_AT_data_member_location[DW_OP_plus_uconst 0x5]
   11547                      .dwattr $C$DW$1114, DW_AT_accessibility(DW_ACCESS_public)
   11548              
   11549              $C$DW$1115      .dwtag  DW_TAG_member
   11550                      .dwattr $C$DW$1115, DW_AT_type(*$C$DW$T$23)
   11551                      .dwattr $C$DW$1115, DW_AT_name("SPIEMU")
   11552                      .dwattr $C$DW$1115, DW_AT_TI_symbol_name("_SPIEMU")
   11553                      .dwattr $C$DW$1115, DW_AT_data_member_location[DW_OP_plus_uconst 0x6]
   11554                      .dwattr $C$DW$1115, DW_AT_accessibility(DW_ACCESS_public)
   11555              
   11556              $C$DW$1116      .dwtag  DW_TAG_member
   11557                      .dwattr $C$DW$1116, DW_AT_type(*$C$DW$T$23)
   11558                      .dwattr $C$DW$1116, DW_AT_name("SPIRXBUF")
   11559                      .dwattr $C$DW$1116, DW_AT_TI_symbol_name("_SPIRXBUF")
   11560                      .dwattr $C$DW$1116, DW_AT_data_member_location[DW_OP_plus_uconst 0x7]
   11561                      .dwattr $C$DW$1116, DW_AT_accessibility(DW_ACCESS_public)
   11562              
   11563              $C$DW$1117      .dwtag  DW_TAG_member
   11564                      .dwattr $C$DW$1117, DW_AT_type(*$C$DW$T$23)
   11565                      .dwattr $C$DW$1117, DW_AT_name("SPITXBUF")
   11566                      .dwattr $C$DW$1117, DW_AT_TI_symbol_name("_SPITXBUF")
   11567                      .dwattr $C$DW$1117, DW_AT_data_member_location[DW_OP_plus_uconst 0x8]
   11568                      .dwattr $C$DW$1117, DW_AT_accessibility(DW_ACCESS_public)
   11569              
   11570              $C$DW$1118      .dwtag  DW_TAG_member
   11571                      .dwattr $C$DW$1118, DW_AT_type(*$C$DW$T$23)
   11572                      .dwattr $C$DW$1118, DW_AT_name("SPIDAT")
   11573                      .dwattr $C$DW$1118, DW_AT_TI_symbol_name("_SPIDAT")
   11574                      .dwattr $C$DW$1118, DW_AT_data_member_location[DW_OP_plus_uconst 0x9]
   11575                      .dwattr $C$DW$1118, DW_AT_accessibility(DW_ACCESS_public)
   11576              
   11577              $C$DW$1119      .dwtag  DW_TAG_member
   11578                      .dwattr $C$DW$1119, DW_AT_type(*$C$DW$T$23)
   11579                      .dwattr $C$DW$1119, DW_AT_name("SPIFFTX")
   11580                      .dwattr $C$DW$1119, DW_AT_TI_symbol_name("_SPIFFTX")
   11581                      .dwattr $C$DW$1119, DW_AT_data_member_location[DW_OP_plus_uconst 0xa]
TMS320C2000 Assembler PC v15.12.3 Wed Nov 22 00:56:17 2017

Tools Copyright (c) 1996-2015 Texas Instruments Incorporated
C:\Users\wmj\AppData\Local\Temp\0070810                              PAGE  218

   11582                      .dwattr $C$DW$1119, DW_AT_accessibility(DW_ACCESS_public)
   11583              
   11584              $C$DW$1120      .dwtag  DW_TAG_member
   11585                      .dwattr $C$DW$1120, DW_AT_type(*$C$DW$T$23)
   11586                      .dwattr $C$DW$1120, DW_AT_name("SPIFFRX")
   11587                      .dwattr $C$DW$1120, DW_AT_TI_symbol_name("_SPIFFRX")
   11588                      .dwattr $C$DW$1120, DW_AT_data_member_location[DW_OP_plus_uconst 0xb]
   11589                      .dwattr $C$DW$1120, DW_AT_accessibility(DW_ACCESS_public)
   11590              
   11591              $C$DW$1121      .dwtag  DW_TAG_member
   11592                      .dwattr $C$DW$1121, DW_AT_type(*$C$DW$T$23)
   11593                      .dwattr $C$DW$1121, DW_AT_name("SPIFFCT")
   11594                      .dwattr $C$DW$1121, DW_AT_TI_symbol_name("_SPIFFCT")
   11595                      .dwattr $C$DW$1121, DW_AT_data_member_location[DW_OP_plus_uconst 0xc]
   11596                      .dwattr $C$DW$1121, DW_AT_accessibility(DW_ACCESS_public)
   11597              
   11598              $C$DW$1122      .dwtag  DW_TAG_member
   11599                      .dwattr $C$DW$1122, DW_AT_type(*$C$DW$T$26)
   11600                      .dwattr $C$DW$1122, DW_AT_name("rsvd_3")
   11601                      .dwattr $C$DW$1122, DW_AT_TI_symbol_name("_rsvd_3")
   11602                      .dwattr $C$DW$1122, DW_AT_data_member_location[DW_OP_plus_uconst 0xd]
   11603                      .dwattr $C$DW$1122, DW_AT_accessibility(DW_ACCESS_public)
   11604              
   11605              $C$DW$1123      .dwtag  DW_TAG_member
   11606                      .dwattr $C$DW$1123, DW_AT_type(*$C$DW$T$23)
   11607                      .dwattr $C$DW$1123, DW_AT_name("SPIPRI")
   11608                      .dwattr $C$DW$1123, DW_AT_TI_symbol_name("_SPIPRI")
   11609                      .dwattr $C$DW$1123, DW_AT_data_member_location[DW_OP_plus_uconst 0xf]
   11610                      .dwattr $C$DW$1123, DW_AT_accessibility(DW_ACCESS_public)
   11611              
   11612                      .dwendtag $C$DW$T$157
   11613              
   11614              $C$DW$T$115     .dwtag  DW_TAG_pointer_type
   11615                      .dwattr $C$DW$T$115, DW_AT_type(*$C$DW$T$157)
   11616                      .dwattr $C$DW$T$115, DW_AT_address_class(0x20)
   11617              
   11618              $C$DW$T$116     .dwtag  DW_TAG_typedef
   11619                      .dwattr $C$DW$T$116, DW_AT_name("SPI_Handle")
   11620                      .dwattr $C$DW$T$116, DW_AT_type(*$C$DW$T$115)
   11621                      .dwattr $C$DW$T$116, DW_AT_language(DW_LANG_C)
   11622              
   11623              
   11624              $C$DW$T$158     .dwtag  DW_TAG_structure_type
   11625                      .dwattr $C$DW$T$158, DW_AT_name("_SVGEN_Obj_")
   11626                      .dwattr $C$DW$T$158, DW_AT_byte_size(0x02)
   11627              $C$DW$1124      .dwtag  DW_TAG_member
   11628                      .dwattr $C$DW$1124, DW_AT_type(*$C$DW$T$31)
   11629                      .dwattr $C$DW$1124, DW_AT_name("maxModulation")
   11630                      .dwattr $C$DW$1124, DW_AT_TI_symbol_name("_maxModulation")
   11631                      .dwattr $C$DW$1124, DW_AT_data_member_location[DW_OP_plus_uconst 0x0]
   11632                      .dwattr $C$DW$1124, DW_AT_accessibility(DW_ACCESS_public)
   11633              
   11634                      .dwendtag $C$DW$T$158
   11635              
   11636              $C$DW$T$61      .dwtag  DW_TAG_typedef
TMS320C2000 Assembler PC v15.12.3 Wed Nov 22 00:56:17 2017

Tools Copyright (c) 1996-2015 Texas Instruments Incorporated
C:\Users\wmj\AppData\Local\Temp\0070810                              PAGE  219

   11637                      .dwattr $C$DW$T$61, DW_AT_name("SVGEN_Obj")
   11638                      .dwattr $C$DW$T$61, DW_AT_type(*$C$DW$T$158)
   11639                      .dwattr $C$DW$T$61, DW_AT_language(DW_LANG_C)
   11640              
   11641              $C$DW$T$59      .dwtag  DW_TAG_pointer_type
   11642                      .dwattr $C$DW$T$59, DW_AT_type(*$C$DW$T$158)
   11643                      .dwattr $C$DW$T$59, DW_AT_address_class(0x20)
   11644              
   11645              $C$DW$T$60      .dwtag  DW_TAG_typedef
   11646                      .dwattr $C$DW$T$60, DW_AT_name("SVGEN_Handle")
   11647                      .dwattr $C$DW$T$60, DW_AT_type(*$C$DW$T$59)
   11648                      .dwattr $C$DW$T$60, DW_AT_language(DW_LANG_C)
   11649              
   11650              
   11651              $C$DW$T$159     .dwtag  DW_TAG_structure_type
   11652                      .dwattr $C$DW$T$159, DW_AT_name("_TIMER_Obj_")
   11653                      .dwattr $C$DW$T$159, DW_AT_byte_size(0x08)
   11654              $C$DW$1125      .dwtag  DW_TAG_member
   11655                      .dwattr $C$DW$1125, DW_AT_type(*$C$DW$T$80)
   11656                      .dwattr $C$DW$1125, DW_AT_name("TIM")
   11657                      .dwattr $C$DW$1125, DW_AT_TI_symbol_name("_TIM")
   11658                      .dwattr $C$DW$1125, DW_AT_data_member_location[DW_OP_plus_uconst 0x0]
   11659                      .dwattr $C$DW$1125, DW_AT_accessibility(DW_ACCESS_public)
   11660              
   11661              $C$DW$1126      .dwtag  DW_TAG_member
   11662                      .dwattr $C$DW$1126, DW_AT_type(*$C$DW$T$80)
   11663                      .dwattr $C$DW$1126, DW_AT_name("PRD")
   11664                      .dwattr $C$DW$1126, DW_AT_TI_symbol_name("_PRD")
   11665                      .dwattr $C$DW$1126, DW_AT_data_member_location[DW_OP_plus_uconst 0x2]
   11666                      .dwattr $C$DW$1126, DW_AT_accessibility(DW_ACCESS_public)
   11667              
   11668              $C$DW$1127      .dwtag  DW_TAG_member
   11669                      .dwattr $C$DW$1127, DW_AT_type(*$C$DW$T$23)
   11670                      .dwattr $C$DW$1127, DW_AT_name("TCR")
   11671                      .dwattr $C$DW$1127, DW_AT_TI_symbol_name("_TCR")
   11672                      .dwattr $C$DW$1127, DW_AT_data_member_location[DW_OP_plus_uconst 0x4]
   11673                      .dwattr $C$DW$1127, DW_AT_accessibility(DW_ACCESS_public)
   11674              
   11675              $C$DW$1128      .dwtag  DW_TAG_member
   11676                      .dwattr $C$DW$1128, DW_AT_type(*$C$DW$T$23)
   11677                      .dwattr $C$DW$1128, DW_AT_name("resvd_1")
   11678                      .dwattr $C$DW$1128, DW_AT_TI_symbol_name("_resvd_1")
   11679                      .dwattr $C$DW$1128, DW_AT_data_member_location[DW_OP_plus_uconst 0x5]
   11680                      .dwattr $C$DW$1128, DW_AT_accessibility(DW_ACCESS_public)
   11681              
   11682              $C$DW$1129      .dwtag  DW_TAG_member
   11683                      .dwattr $C$DW$1129, DW_AT_type(*$C$DW$T$80)
   11684                      .dwattr $C$DW$1129, DW_AT_name("TPR")
   11685                      .dwattr $C$DW$1129, DW_AT_TI_symbol_name("_TPR")
   11686                      .dwattr $C$DW$1129, DW_AT_data_member_location[DW_OP_plus_uconst 0x6]
   11687                      .dwattr $C$DW$1129, DW_AT_accessibility(DW_ACCESS_public)
   11688              
   11689                      .dwendtag $C$DW$T$159
   11690              
   11691              $C$DW$T$112     .dwtag  DW_TAG_pointer_type
TMS320C2000 Assembler PC v15.12.3 Wed Nov 22 00:56:17 2017

Tools Copyright (c) 1996-2015 Texas Instruments Incorporated
C:\Users\wmj\AppData\Local\Temp\0070810                              PAGE  220

   11692                      .dwattr $C$DW$T$112, DW_AT_type(*$C$DW$T$159)
   11693                      .dwattr $C$DW$T$112, DW_AT_address_class(0x20)
   11694              
   11695              $C$DW$T$113     .dwtag  DW_TAG_typedef
   11696                      .dwattr $C$DW$T$113, DW_AT_name("TIMER_Handle")
   11697                      .dwattr $C$DW$T$113, DW_AT_type(*$C$DW$T$112)
   11698                      .dwattr $C$DW$T$113, DW_AT_language(DW_LANG_C)
   11699              
   11700              
   11701              $C$DW$T$114     .dwtag  DW_TAG_array_type
   11702                      .dwattr $C$DW$T$114, DW_AT_type(*$C$DW$T$113)
   11703                      .dwattr $C$DW$T$114, DW_AT_language(DW_LANG_C)
   11704                      .dwattr $C$DW$T$114, DW_AT_byte_size(0x06)
   11705              $C$DW$1130      .dwtag  DW_TAG_subrange_type
   11706                      .dwattr $C$DW$1130, DW_AT_upper_bound(0x02)
   11707              
   11708                      .dwendtag $C$DW$T$114
   11709              
   11710              
   11711              $C$DW$T$160     .dwtag  DW_TAG_structure_type
   11712                      .dwattr $C$DW$T$160, DW_AT_name("_TRAJ_Obj_")
   11713                      .dwattr $C$DW$T$160, DW_AT_byte_size(0x0a)
   11714              $C$DW$1131      .dwtag  DW_TAG_member
   11715                      .dwattr $C$DW$1131, DW_AT_type(*$C$DW$T$31)
   11716                      .dwattr $C$DW$1131, DW_AT_name("targetValue")
   11717                      .dwattr $C$DW$1131, DW_AT_TI_symbol_name("_targetValue")
   11718                      .dwattr $C$DW$1131, DW_AT_data_member_location[DW_OP_plus_uconst 0x0]
   11719                      .dwattr $C$DW$1131, DW_AT_accessibility(DW_ACCESS_public)
   11720              
   11721              $C$DW$1132      .dwtag  DW_TAG_member
   11722                      .dwattr $C$DW$1132, DW_AT_type(*$C$DW$T$31)
   11723                      .dwattr $C$DW$1132, DW_AT_name("intValue")
   11724                      .dwattr $C$DW$1132, DW_AT_TI_symbol_name("_intValue")
   11725                      .dwattr $C$DW$1132, DW_AT_data_member_location[DW_OP_plus_uconst 0x2]
   11726                      .dwattr $C$DW$1132, DW_AT_accessibility(DW_ACCESS_public)
   11727              
   11728              $C$DW$1133      .dwtag  DW_TAG_member
   11729                      .dwattr $C$DW$1133, DW_AT_type(*$C$DW$T$31)
   11730                      .dwattr $C$DW$1133, DW_AT_name("minValue")
   11731                      .dwattr $C$DW$1133, DW_AT_TI_symbol_name("_minValue")
   11732                      .dwattr $C$DW$1133, DW_AT_data_member_location[DW_OP_plus_uconst 0x4]
   11733                      .dwattr $C$DW$1133, DW_AT_accessibility(DW_ACCESS_public)
   11734              
   11735              $C$DW$1134      .dwtag  DW_TAG_member
   11736                      .dwattr $C$DW$1134, DW_AT_type(*$C$DW$T$31)
   11737                      .dwattr $C$DW$1134, DW_AT_name("maxValue")
   11738                      .dwattr $C$DW$1134, DW_AT_TI_symbol_name("_maxValue")
   11739                      .dwattr $C$DW$1134, DW_AT_data_member_location[DW_OP_plus_uconst 0x6]
   11740                      .dwattr $C$DW$1134, DW_AT_accessibility(DW_ACCESS_public)
   11741              
   11742              $C$DW$1135      .dwtag  DW_TAG_member
   11743                      .dwattr $C$DW$1135, DW_AT_type(*$C$DW$T$31)
   11744                      .dwattr $C$DW$1135, DW_AT_name("maxDelta")
   11745                      .dwattr $C$DW$1135, DW_AT_TI_symbol_name("_maxDelta")
   11746                      .dwattr $C$DW$1135, DW_AT_data_member_location[DW_OP_plus_uconst 0x8]
TMS320C2000 Assembler PC v15.12.3 Wed Nov 22 00:56:17 2017

Tools Copyright (c) 1996-2015 Texas Instruments Incorporated
C:\Users\wmj\AppData\Local\Temp\0070810                              PAGE  221

   11747                      .dwattr $C$DW$1135, DW_AT_accessibility(DW_ACCESS_public)
   11748              
   11749                      .dwendtag $C$DW$T$160
   11750              
   11751              $C$DW$T$64      .dwtag  DW_TAG_typedef
   11752                      .dwattr $C$DW$T$64, DW_AT_name("TRAJ_Obj")
   11753                      .dwattr $C$DW$T$64, DW_AT_type(*$C$DW$T$160)
   11754                      .dwattr $C$DW$T$64, DW_AT_language(DW_LANG_C)
   11755              
   11756              $C$DW$T$62      .dwtag  DW_TAG_pointer_type
   11757                      .dwattr $C$DW$T$62, DW_AT_type(*$C$DW$T$160)
   11758                      .dwattr $C$DW$T$62, DW_AT_address_class(0x20)
   11759              
   11760              $C$DW$T$63      .dwtag  DW_TAG_typedef
   11761                      .dwattr $C$DW$T$63, DW_AT_name("TRAJ_Handle")
   11762                      .dwattr $C$DW$T$63, DW_AT_type(*$C$DW$T$62)
   11763                      .dwattr $C$DW$T$63, DW_AT_language(DW_LANG_C)
   11764              
   11765              
   11766              $C$DW$T$166     .dwtag  DW_TAG_structure_type
   11767                      .dwattr $C$DW$T$166, DW_AT_name("_USER_Params_")
   11768                      .dwattr $C$DW$T$166, DW_AT_byte_size(0xac)
   11769              $C$DW$1136      .dwtag  DW_TAG_member
   11770                      .dwattr $C$DW$1136, DW_AT_type(*$C$DW$T$70)
   11771                      .dwattr $C$DW$1136, DW_AT_name("iqFullScaleCurrent_A")
   11772                      .dwattr $C$DW$1136, DW_AT_TI_symbol_name("_iqFullScaleCurrent_A")
   11773                      .dwattr $C$DW$1136, DW_AT_data_member_location[DW_OP_plus_uconst 0x0]
   11774                      .dwattr $C$DW$1136, DW_AT_accessibility(DW_ACCESS_public)
   11775              
   11776              $C$DW$1137      .dwtag  DW_TAG_member
   11777                      .dwattr $C$DW$1137, DW_AT_type(*$C$DW$T$70)
   11778                      .dwattr $C$DW$1137, DW_AT_name("iqFullScaleVoltage_V")
   11779                      .dwattr $C$DW$1137, DW_AT_TI_symbol_name("_iqFullScaleVoltage_V")
   11780                      .dwattr $C$DW$1137, DW_AT_data_member_location[DW_OP_plus_uconst 0x2]
   11781                      .dwattr $C$DW$1137, DW_AT_accessibility(DW_ACCESS_public)
   11782              
   11783              $C$DW$1138      .dwtag  DW_TAG_member
   11784                      .dwattr $C$DW$1138, DW_AT_type(*$C$DW$T$70)
   11785                      .dwattr $C$DW$1138, DW_AT_name("iqFullScaleFreq_Hz")
   11786                      .dwattr $C$DW$1138, DW_AT_TI_symbol_name("_iqFullScaleFreq_Hz")
   11787                      .dwattr $C$DW$1138, DW_AT_data_member_location[DW_OP_plus_uconst 0x4]
   11788                      .dwattr $C$DW$1138, DW_AT_accessibility(DW_ACCESS_public)
   11789              
   11790              $C$DW$1139      .dwtag  DW_TAG_member
   11791                      .dwattr $C$DW$1139, DW_AT_type(*$C$DW$T$69)
   11792                      .dwattr $C$DW$1139, DW_AT_name("numIsrTicksPerCtrlTick")
   11793                      .dwattr $C$DW$1139, DW_AT_TI_symbol_name("_numIsrTicksPerCtrlTick")
   11794                      .dwattr $C$DW$1139, DW_AT_data_member_location[DW_OP_plus_uconst 0x6]
   11795                      .dwattr $C$DW$1139, DW_AT_accessibility(DW_ACCESS_public)
   11796              
   11797              $C$DW$1140      .dwtag  DW_TAG_member
   11798                      .dwattr $C$DW$1140, DW_AT_type(*$C$DW$T$69)
   11799                      .dwattr $C$DW$1140, DW_AT_name("numCtrlTicksPerCurrentTick")
   11800                      .dwattr $C$DW$1140, DW_AT_TI_symbol_name("_numCtrlTicksPerCurrentTick")
   11801                      .dwattr $C$DW$1140, DW_AT_data_member_location[DW_OP_plus_uconst 0x7]
TMS320C2000 Assembler PC v15.12.3 Wed Nov 22 00:56:17 2017

Tools Copyright (c) 1996-2015 Texas Instruments Incorporated
C:\Users\wmj\AppData\Local\Temp\0070810                              PAGE  222

   11802                      .dwattr $C$DW$1140, DW_AT_accessibility(DW_ACCESS_public)
   11803              
   11804              $C$DW$1141      .dwtag  DW_TAG_member
   11805                      .dwattr $C$DW$1141, DW_AT_type(*$C$DW$T$69)
   11806                      .dwattr $C$DW$1141, DW_AT_name("numCtrlTicksPerEstTick")
   11807                      .dwattr $C$DW$1141, DW_AT_TI_symbol_name("_numCtrlTicksPerEstTick")
   11808                      .dwattr $C$DW$1141, DW_AT_data_member_location[DW_OP_plus_uconst 0x8]
   11809                      .dwattr $C$DW$1141, DW_AT_accessibility(DW_ACCESS_public)
   11810              
   11811              $C$DW$1142      .dwtag  DW_TAG_member
   11812                      .dwattr $C$DW$1142, DW_AT_type(*$C$DW$T$69)
   11813                      .dwattr $C$DW$1142, DW_AT_name("numCtrlTicksPerSpeedTick")
   11814                      .dwattr $C$DW$1142, DW_AT_TI_symbol_name("_numCtrlTicksPerSpeedTick")
   11815                      .dwattr $C$DW$1142, DW_AT_data_member_location[DW_OP_plus_uconst 0x9]
   11816                      .dwattr $C$DW$1142, DW_AT_accessibility(DW_ACCESS_public)
   11817              
   11818              $C$DW$1143      .dwtag  DW_TAG_member
   11819                      .dwattr $C$DW$1143, DW_AT_type(*$C$DW$T$69)
   11820                      .dwattr $C$DW$1143, DW_AT_name("numCtrlTicksPerTrajTick")
   11821                      .dwattr $C$DW$1143, DW_AT_TI_symbol_name("_numCtrlTicksPerTrajTick")
   11822                      .dwattr $C$DW$1143, DW_AT_data_member_location[DW_OP_plus_uconst 0xa]
   11823                      .dwattr $C$DW$1143, DW_AT_accessibility(DW_ACCESS_public)
   11824              
   11825              $C$DW$1144      .dwtag  DW_TAG_member
   11826                      .dwattr $C$DW$1144, DW_AT_type(*$C$DW$T$35)
   11827                      .dwattr $C$DW$1144, DW_AT_name("numCurrentSensors")
   11828                      .dwattr $C$DW$1144, DW_AT_TI_symbol_name("_numCurrentSensors")
   11829                      .dwattr $C$DW$1144, DW_AT_data_member_location[DW_OP_plus_uconst 0xb]
   11830                      .dwattr $C$DW$1144, DW_AT_accessibility(DW_ACCESS_public)
   11831              
   11832              $C$DW$1145      .dwtag  DW_TAG_member
   11833                      .dwattr $C$DW$1145, DW_AT_type(*$C$DW$T$35)
   11834                      .dwattr $C$DW$1145, DW_AT_name("numVoltageSensors")
   11835                      .dwattr $C$DW$1145, DW_AT_TI_symbol_name("_numVoltageSensors")
   11836                      .dwattr $C$DW$1145, DW_AT_data_member_location[DW_OP_plus_uconst 0xc]
   11837                      .dwattr $C$DW$1145, DW_AT_accessibility(DW_ACCESS_public)
   11838              
   11839              $C$DW$1146      .dwtag  DW_TAG_member
   11840                      .dwattr $C$DW$1146, DW_AT_type(*$C$DW$T$70)
   11841                      .dwattr $C$DW$1146, DW_AT_name("offsetPole_rps")
   11842                      .dwattr $C$DW$1146, DW_AT_TI_symbol_name("_offsetPole_rps")
   11843                      .dwattr $C$DW$1146, DW_AT_data_member_location[DW_OP_plus_uconst 0xe]
   11844                      .dwattr $C$DW$1146, DW_AT_accessibility(DW_ACCESS_public)
   11845              
   11846              $C$DW$1147      .dwtag  DW_TAG_member
   11847                      .dwattr $C$DW$1147, DW_AT_type(*$C$DW$T$70)
   11848                      .dwattr $C$DW$1147, DW_AT_name("fluxPole_rps")
   11849                      .dwattr $C$DW$1147, DW_AT_TI_symbol_name("_fluxPole_rps")
   11850                      .dwattr $C$DW$1147, DW_AT_data_member_location[DW_OP_plus_uconst 0x10]
   11851                      .dwattr $C$DW$1147, DW_AT_accessibility(DW_ACCESS_public)
   11852              
   11853              $C$DW$1148      .dwtag  DW_TAG_member
   11854                      .dwattr $C$DW$1148, DW_AT_type(*$C$DW$T$70)
   11855                      .dwattr $C$DW$1148, DW_AT_name("zeroSpeedLimit")
   11856                      .dwattr $C$DW$1148, DW_AT_TI_symbol_name("_zeroSpeedLimit")
TMS320C2000 Assembler PC v15.12.3 Wed Nov 22 00:56:17 2017

Tools Copyright (c) 1996-2015 Texas Instruments Incorporated
C:\Users\wmj\AppData\Local\Temp\0070810                              PAGE  223

   11857                      .dwattr $C$DW$1148, DW_AT_data_member_location[DW_OP_plus_uconst 0x12]
   11858                      .dwattr $C$DW$1148, DW_AT_accessibility(DW_ACCESS_public)
   11859              
   11860              $C$DW$1149      .dwtag  DW_TAG_member
   11861                      .dwattr $C$DW$1149, DW_AT_type(*$C$DW$T$70)
   11862                      .dwattr $C$DW$1149, DW_AT_name("forceAngleFreq_Hz")
   11863                      .dwattr $C$DW$1149, DW_AT_TI_symbol_name("_forceAngleFreq_Hz")
   11864                      .dwattr $C$DW$1149, DW_AT_data_member_location[DW_OP_plus_uconst 0x14]
   11865                      .dwattr $C$DW$1149, DW_AT_accessibility(DW_ACCESS_public)
   11866              
   11867              $C$DW$1150      .dwtag  DW_TAG_member
   11868                      .dwattr $C$DW$1150, DW_AT_type(*$C$DW$T$70)
   11869                      .dwattr $C$DW$1150, DW_AT_name("maxAccel_Hzps")
   11870                      .dwattr $C$DW$1150, DW_AT_TI_symbol_name("_maxAccel_Hzps")
   11871                      .dwattr $C$DW$1150, DW_AT_data_member_location[DW_OP_plus_uconst 0x16]
   11872                      .dwattr $C$DW$1150, DW_AT_accessibility(DW_ACCESS_public)
   11873              
   11874              $C$DW$1151      .dwtag  DW_TAG_member
   11875                      .dwattr $C$DW$1151, DW_AT_type(*$C$DW$T$70)
   11876                      .dwattr $C$DW$1151, DW_AT_name("maxAccel_est_Hzps")
   11877                      .dwattr $C$DW$1151, DW_AT_TI_symbol_name("_maxAccel_est_Hzps")
   11878                      .dwattr $C$DW$1151, DW_AT_data_member_location[DW_OP_plus_uconst 0x18]
   11879                      .dwattr $C$DW$1151, DW_AT_accessibility(DW_ACCESS_public)
   11880              
   11881              $C$DW$1152      .dwtag  DW_TAG_member
   11882                      .dwattr $C$DW$1152, DW_AT_type(*$C$DW$T$70)
   11883                      .dwattr $C$DW$1152, DW_AT_name("directionPole_rps")
   11884                      .dwattr $C$DW$1152, DW_AT_TI_symbol_name("_directionPole_rps")
   11885                      .dwattr $C$DW$1152, DW_AT_data_member_location[DW_OP_plus_uconst 0x1a]
   11886                      .dwattr $C$DW$1152, DW_AT_accessibility(DW_ACCESS_public)
   11887              
   11888              $C$DW$1153      .dwtag  DW_TAG_member
   11889                      .dwattr $C$DW$1153, DW_AT_type(*$C$DW$T$70)
   11890                      .dwattr $C$DW$1153, DW_AT_name("speedPole_rps")
   11891                      .dwattr $C$DW$1153, DW_AT_TI_symbol_name("_speedPole_rps")
   11892                      .dwattr $C$DW$1153, DW_AT_data_member_location[DW_OP_plus_uconst 0x1c]
   11893                      .dwattr $C$DW$1153, DW_AT_accessibility(DW_ACCESS_public)
   11894              
   11895              $C$DW$1154      .dwtag  DW_TAG_member
   11896                      .dwattr $C$DW$1154, DW_AT_type(*$C$DW$T$70)
   11897                      .dwattr $C$DW$1154, DW_AT_name("dcBusPole_rps")
   11898                      .dwattr $C$DW$1154, DW_AT_TI_symbol_name("_dcBusPole_rps")
   11899                      .dwattr $C$DW$1154, DW_AT_data_member_location[DW_OP_plus_uconst 0x1e]
   11900                      .dwattr $C$DW$1154, DW_AT_accessibility(DW_ACCESS_public)
   11901              
   11902              $C$DW$1155      .dwtag  DW_TAG_member
   11903                      .dwattr $C$DW$1155, DW_AT_type(*$C$DW$T$70)
   11904                      .dwattr $C$DW$1155, DW_AT_name("fluxFraction")
   11905                      .dwattr $C$DW$1155, DW_AT_TI_symbol_name("_fluxFraction")
   11906                      .dwattr $C$DW$1155, DW_AT_data_member_location[DW_OP_plus_uconst 0x20]
   11907                      .dwattr $C$DW$1155, DW_AT_accessibility(DW_ACCESS_public)
   11908              
   11909              $C$DW$1156      .dwtag  DW_TAG_member
   11910                      .dwattr $C$DW$1156, DW_AT_type(*$C$DW$T$70)
   11911                      .dwattr $C$DW$1156, DW_AT_name("indEst_speedMaxFraction")
TMS320C2000 Assembler PC v15.12.3 Wed Nov 22 00:56:17 2017

Tools Copyright (c) 1996-2015 Texas Instruments Incorporated
C:\Users\wmj\AppData\Local\Temp\0070810                              PAGE  224

   11912                      .dwattr $C$DW$1156, DW_AT_TI_symbol_name("_indEst_speedMaxFraction")
   11913                      .dwattr $C$DW$1156, DW_AT_data_member_location[DW_OP_plus_uconst 0x22]
   11914                      .dwattr $C$DW$1156, DW_AT_accessibility(DW_ACCESS_public)
   11915              
   11916              $C$DW$1157      .dwtag  DW_TAG_member
   11917                      .dwattr $C$DW$1157, DW_AT_type(*$C$DW$T$70)
   11918                      .dwattr $C$DW$1157, DW_AT_name("powerWarpGain")
   11919                      .dwattr $C$DW$1157, DW_AT_TI_symbol_name("_powerWarpGain")
   11920                      .dwattr $C$DW$1157, DW_AT_data_member_location[DW_OP_plus_uconst 0x24]
   11921                      .dwattr $C$DW$1157, DW_AT_accessibility(DW_ACCESS_public)
   11922              
   11923              $C$DW$1158      .dwtag  DW_TAG_member
   11924                      .dwattr $C$DW$1158, DW_AT_type(*$C$DW$T$69)
   11925                      .dwattr $C$DW$1158, DW_AT_name("systemFreq_MHz")
   11926                      .dwattr $C$DW$1158, DW_AT_TI_symbol_name("_systemFreq_MHz")
   11927                      .dwattr $C$DW$1158, DW_AT_data_member_location[DW_OP_plus_uconst 0x26]
   11928                      .dwattr $C$DW$1158, DW_AT_accessibility(DW_ACCESS_public)
   11929              
   11930              $C$DW$1159      .dwtag  DW_TAG_member
   11931                      .dwattr $C$DW$1159, DW_AT_type(*$C$DW$T$70)
   11932                      .dwattr $C$DW$1159, DW_AT_name("pwmPeriod_usec")
   11933                      .dwattr $C$DW$1159, DW_AT_TI_symbol_name("_pwmPeriod_usec")
   11934                      .dwattr $C$DW$1159, DW_AT_data_member_location[DW_OP_plus_uconst 0x28]
   11935                      .dwattr $C$DW$1159, DW_AT_accessibility(DW_ACCESS_public)
   11936              
   11937              $C$DW$1160      .dwtag  DW_TAG_member
   11938                      .dwattr $C$DW$1160, DW_AT_type(*$C$DW$T$70)
   11939                      .dwattr $C$DW$1160, DW_AT_name("voltage_sf")
   11940                      .dwattr $C$DW$1160, DW_AT_TI_symbol_name("_voltage_sf")
   11941                      .dwattr $C$DW$1160, DW_AT_data_member_location[DW_OP_plus_uconst 0x2a]
   11942                      .dwattr $C$DW$1160, DW_AT_accessibility(DW_ACCESS_public)
   11943              
   11944              $C$DW$1161      .dwtag  DW_TAG_member
   11945                      .dwattr $C$DW$1161, DW_AT_type(*$C$DW$T$70)
   11946                      .dwattr $C$DW$1161, DW_AT_name("current_sf")
   11947                      .dwattr $C$DW$1161, DW_AT_TI_symbol_name("_current_sf")
   11948                      .dwattr $C$DW$1161, DW_AT_data_member_location[DW_OP_plus_uconst 0x2c]
   11949                      .dwattr $C$DW$1161, DW_AT_accessibility(DW_ACCESS_public)
   11950              
   11951              $C$DW$1162      .dwtag  DW_TAG_member
   11952                      .dwattr $C$DW$1162, DW_AT_type(*$C$DW$T$70)
   11953                      .dwattr $C$DW$1162, DW_AT_name("voltageFilterPole_rps")
   11954                      .dwattr $C$DW$1162, DW_AT_TI_symbol_name("_voltageFilterPole_rps")
   11955                      .dwattr $C$DW$1162, DW_AT_data_member_location[DW_OP_plus_uconst 0x2e]
   11956                      .dwattr $C$DW$1162, DW_AT_accessibility(DW_ACCESS_public)
   11957              
   11958              $C$DW$1163      .dwtag  DW_TAG_member
   11959                      .dwattr $C$DW$1163, DW_AT_type(*$C$DW$T$70)
   11960                      .dwattr $C$DW$1163, DW_AT_name("maxVsMag_pu")
   11961                      .dwattr $C$DW$1163, DW_AT_TI_symbol_name("_maxVsMag_pu")
   11962                      .dwattr $C$DW$1163, DW_AT_data_member_location[DW_OP_plus_uconst 0x30]
   11963                      .dwattr $C$DW$1163, DW_AT_accessibility(DW_ACCESS_public)
   11964              
   11965              $C$DW$1164      .dwtag  DW_TAG_member
   11966                      .dwattr $C$DW$1164, DW_AT_type(*$C$DW$T$70)
TMS320C2000 Assembler PC v15.12.3 Wed Nov 22 00:56:17 2017

Tools Copyright (c) 1996-2015 Texas Instruments Incorporated
C:\Users\wmj\AppData\Local\Temp\0070810                              PAGE  225

   11967                      .dwattr $C$DW$1164, DW_AT_name("estKappa")
   11968                      .dwattr $C$DW$1164, DW_AT_TI_symbol_name("_estKappa")
   11969                      .dwattr $C$DW$1164, DW_AT_data_member_location[DW_OP_plus_uconst 0x32]
   11970                      .dwattr $C$DW$1164, DW_AT_accessibility(DW_ACCESS_public)
   11971              
   11972              $C$DW$1165      .dwtag  DW_TAG_member
   11973                      .dwattr $C$DW$1165, DW_AT_type(*$C$DW$T$132)
   11974                      .dwattr $C$DW$1165, DW_AT_name("motor_type")
   11975                      .dwattr $C$DW$1165, DW_AT_TI_symbol_name("_motor_type")
   11976                      .dwattr $C$DW$1165, DW_AT_data_member_location[DW_OP_plus_uconst 0x34]
   11977                      .dwattr $C$DW$1165, DW_AT_accessibility(DW_ACCESS_public)
   11978              
   11979              $C$DW$1166      .dwtag  DW_TAG_member
   11980                      .dwattr $C$DW$1166, DW_AT_type(*$C$DW$T$69)
   11981                      .dwattr $C$DW$1166, DW_AT_name("motor_numPolePairs")
   11982                      .dwattr $C$DW$1166, DW_AT_TI_symbol_name("_motor_numPolePairs")
   11983                      .dwattr $C$DW$1166, DW_AT_data_member_location[DW_OP_plus_uconst 0x35]
   11984                      .dwattr $C$DW$1166, DW_AT_accessibility(DW_ACCESS_public)
   11985              
   11986              $C$DW$1167      .dwtag  DW_TAG_member
   11987                      .dwattr $C$DW$1167, DW_AT_type(*$C$DW$T$70)
   11988                      .dwattr $C$DW$1167, DW_AT_name("motor_ratedFlux")
   11989                      .dwattr $C$DW$1167, DW_AT_TI_symbol_name("_motor_ratedFlux")
   11990                      .dwattr $C$DW$1167, DW_AT_data_member_location[DW_OP_plus_uconst 0x36]
   11991                      .dwattr $C$DW$1167, DW_AT_accessibility(DW_ACCESS_public)
   11992              
   11993              $C$DW$1168      .dwtag  DW_TAG_member
   11994                      .dwattr $C$DW$1168, DW_AT_type(*$C$DW$T$70)
   11995                      .dwattr $C$DW$1168, DW_AT_name("motor_Rr")
   11996                      .dwattr $C$DW$1168, DW_AT_TI_symbol_name("_motor_Rr")
   11997                      .dwattr $C$DW$1168, DW_AT_data_member_location[DW_OP_plus_uconst 0x38]
   11998                      .dwattr $C$DW$1168, DW_AT_accessibility(DW_ACCESS_public)
   11999              
   12000              $C$DW$1169      .dwtag  DW_TAG_member
   12001                      .dwattr $C$DW$1169, DW_AT_type(*$C$DW$T$70)
   12002                      .dwattr $C$DW$1169, DW_AT_name("motor_Rs")
   12003                      .dwattr $C$DW$1169, DW_AT_TI_symbol_name("_motor_Rs")
   12004                      .dwattr $C$DW$1169, DW_AT_data_member_location[DW_OP_plus_uconst 0x3a]
   12005                      .dwattr $C$DW$1169, DW_AT_accessibility(DW_ACCESS_public)
   12006              
   12007              $C$DW$1170      .dwtag  DW_TAG_member
   12008                      .dwattr $C$DW$1170, DW_AT_type(*$C$DW$T$70)
   12009                      .dwattr $C$DW$1170, DW_AT_name("motor_Ls_d")
   12010                      .dwattr $C$DW$1170, DW_AT_TI_symbol_name("_motor_Ls_d")
   12011                      .dwattr $C$DW$1170, DW_AT_data_member_location[DW_OP_plus_uconst 0x3c]
   12012                      .dwattr $C$DW$1170, DW_AT_accessibility(DW_ACCESS_public)
   12013              
   12014              $C$DW$1171      .dwtag  DW_TAG_member
   12015                      .dwattr $C$DW$1171, DW_AT_type(*$C$DW$T$70)
   12016                      .dwattr $C$DW$1171, DW_AT_name("motor_Ls_q")
   12017                      .dwattr $C$DW$1171, DW_AT_TI_symbol_name("_motor_Ls_q")
   12018                      .dwattr $C$DW$1171, DW_AT_data_member_location[DW_OP_plus_uconst 0x3e]
   12019                      .dwattr $C$DW$1171, DW_AT_accessibility(DW_ACCESS_public)
   12020              
   12021              $C$DW$1172      .dwtag  DW_TAG_member
TMS320C2000 Assembler PC v15.12.3 Wed Nov 22 00:56:17 2017

Tools Copyright (c) 1996-2015 Texas Instruments Incorporated
C:\Users\wmj\AppData\Local\Temp\0070810                              PAGE  226

   12022                      .dwattr $C$DW$1172, DW_AT_type(*$C$DW$T$70)
   12023                      .dwattr $C$DW$1172, DW_AT_name("maxCurrent")
   12024                      .dwattr $C$DW$1172, DW_AT_TI_symbol_name("_maxCurrent")
   12025                      .dwattr $C$DW$1172, DW_AT_data_member_location[DW_OP_plus_uconst 0x40]
   12026                      .dwattr $C$DW$1172, DW_AT_accessibility(DW_ACCESS_public)
   12027              
   12028              $C$DW$1173      .dwtag  DW_TAG_member
   12029                      .dwattr $C$DW$1173, DW_AT_type(*$C$DW$T$70)
   12030                      .dwattr $C$DW$1173, DW_AT_name("maxCurrent_resEst")
   12031                      .dwattr $C$DW$1173, DW_AT_TI_symbol_name("_maxCurrent_resEst")
   12032                      .dwattr $C$DW$1173, DW_AT_data_member_location[DW_OP_plus_uconst 0x42]
   12033                      .dwattr $C$DW$1173, DW_AT_accessibility(DW_ACCESS_public)
   12034              
   12035              $C$DW$1174      .dwtag  DW_TAG_member
   12036                      .dwattr $C$DW$1174, DW_AT_type(*$C$DW$T$70)
   12037                      .dwattr $C$DW$1174, DW_AT_name("maxCurrent_indEst")
   12038                      .dwattr $C$DW$1174, DW_AT_TI_symbol_name("_maxCurrent_indEst")
   12039                      .dwattr $C$DW$1174, DW_AT_data_member_location[DW_OP_plus_uconst 0x44]
   12040                      .dwattr $C$DW$1174, DW_AT_accessibility(DW_ACCESS_public)
   12041              
   12042              $C$DW$1175      .dwtag  DW_TAG_member
   12043                      .dwattr $C$DW$1175, DW_AT_type(*$C$DW$T$70)
   12044                      .dwattr $C$DW$1175, DW_AT_name("maxCurrentSlope")
   12045                      .dwattr $C$DW$1175, DW_AT_TI_symbol_name("_maxCurrentSlope")
   12046                      .dwattr $C$DW$1175, DW_AT_data_member_location[DW_OP_plus_uconst 0x46]
   12047                      .dwattr $C$DW$1175, DW_AT_accessibility(DW_ACCESS_public)
   12048              
   12049              $C$DW$1176      .dwtag  DW_TAG_member
   12050                      .dwattr $C$DW$1176, DW_AT_type(*$C$DW$T$70)
   12051                      .dwattr $C$DW$1176, DW_AT_name("maxCurrentSlope_powerWarp")
   12052                      .dwattr $C$DW$1176, DW_AT_TI_symbol_name("_maxCurrentSlope_powerWarp")
   12053                      .dwattr $C$DW$1176, DW_AT_data_member_location[DW_OP_plus_uconst 0x48]
   12054                      .dwattr $C$DW$1176, DW_AT_accessibility(DW_ACCESS_public)
   12055              
   12056              $C$DW$1177      .dwtag  DW_TAG_member
   12057                      .dwattr $C$DW$1177, DW_AT_type(*$C$DW$T$70)
   12058                      .dwattr $C$DW$1177, DW_AT_name("IdRated")
   12059                      .dwattr $C$DW$1177, DW_AT_TI_symbol_name("_IdRated")
   12060                      .dwattr $C$DW$1177, DW_AT_data_member_location[DW_OP_plus_uconst 0x4a]
   12061                      .dwattr $C$DW$1177, DW_AT_accessibility(DW_ACCESS_public)
   12062              
   12063              $C$DW$1178      .dwtag  DW_TAG_member
   12064                      .dwattr $C$DW$1178, DW_AT_type(*$C$DW$T$70)
   12065                      .dwattr $C$DW$1178, DW_AT_name("IdRatedFraction_indEst")
   12066                      .dwattr $C$DW$1178, DW_AT_TI_symbol_name("_IdRatedFraction_indEst")
   12067                      .dwattr $C$DW$1178, DW_AT_data_member_location[DW_OP_plus_uconst 0x4c]
   12068                      .dwattr $C$DW$1178, DW_AT_accessibility(DW_ACCESS_public)
   12069              
   12070              $C$DW$1179      .dwtag  DW_TAG_member
   12071                      .dwattr $C$DW$1179, DW_AT_type(*$C$DW$T$70)
   12072                      .dwattr $C$DW$1179, DW_AT_name("IdRatedFraction_ratedFlux")
   12073                      .dwattr $C$DW$1179, DW_AT_TI_symbol_name("_IdRatedFraction_ratedFlux")
   12074                      .dwattr $C$DW$1179, DW_AT_data_member_location[DW_OP_plus_uconst 0x4e]
   12075                      .dwattr $C$DW$1179, DW_AT_accessibility(DW_ACCESS_public)
   12076              
TMS320C2000 Assembler PC v15.12.3 Wed Nov 22 00:56:17 2017

Tools Copyright (c) 1996-2015 Texas Instruments Incorporated
C:\Users\wmj\AppData\Local\Temp\0070810                              PAGE  227

   12077              $C$DW$1180      .dwtag  DW_TAG_member
   12078                      .dwattr $C$DW$1180, DW_AT_type(*$C$DW$T$70)
   12079                      .dwattr $C$DW$1180, DW_AT_name("IdRated_delta")
   12080                      .dwattr $C$DW$1180, DW_AT_TI_symbol_name("_IdRated_delta")
   12081                      .dwattr $C$DW$1180, DW_AT_data_member_location[DW_OP_plus_uconst 0x50]
   12082                      .dwattr $C$DW$1180, DW_AT_accessibility(DW_ACCESS_public)
   12083              
   12084              $C$DW$1181      .dwtag  DW_TAG_member
   12085                      .dwattr $C$DW$1181, DW_AT_type(*$C$DW$T$70)
   12086                      .dwattr $C$DW$1181, DW_AT_name("fluxEstFreq_Hz")
   12087                      .dwattr $C$DW$1181, DW_AT_TI_symbol_name("_fluxEstFreq_Hz")
   12088                      .dwattr $C$DW$1181, DW_AT_data_member_location[DW_OP_plus_uconst 0x52]
   12089                      .dwattr $C$DW$1181, DW_AT_accessibility(DW_ACCESS_public)
   12090              
   12091              $C$DW$1182      .dwtag  DW_TAG_member
   12092                      .dwattr $C$DW$1182, DW_AT_type(*$C$DW$T$68)
   12093                      .dwattr $C$DW$1182, DW_AT_name("ctrlWaitTime")
   12094                      .dwattr $C$DW$1182, DW_AT_TI_symbol_name("_ctrlWaitTime")
   12095                      .dwattr $C$DW$1182, DW_AT_data_member_location[DW_OP_plus_uconst 0x54]
   12096                      .dwattr $C$DW$1182, DW_AT_accessibility(DW_ACCESS_public)
   12097              
   12098              $C$DW$1183      .dwtag  DW_TAG_member
   12099                      .dwattr $C$DW$1183, DW_AT_type(*$C$DW$T$161)
   12100                      .dwattr $C$DW$1183, DW_AT_name("estWaitTime")
   12101                      .dwattr $C$DW$1183, DW_AT_TI_symbol_name("_estWaitTime")
   12102                      .dwattr $C$DW$1183, DW_AT_data_member_location[DW_OP_plus_uconst 0x5c]
   12103                      .dwattr $C$DW$1183, DW_AT_accessibility(DW_ACCESS_public)
   12104              
   12105              $C$DW$1184      .dwtag  DW_TAG_member
   12106                      .dwattr $C$DW$1184, DW_AT_type(*$C$DW$T$162)
   12107                      .dwattr $C$DW$1184, DW_AT_name("FluxWaitTime")
   12108                      .dwattr $C$DW$1184, DW_AT_TI_symbol_name("_FluxWaitTime")
   12109                      .dwattr $C$DW$1184, DW_AT_data_member_location[DW_OP_plus_uconst 0x78]
   12110                      .dwattr $C$DW$1184, DW_AT_accessibility(DW_ACCESS_public)
   12111              
   12112              $C$DW$1185      .dwtag  DW_TAG_member
   12113                      .dwattr $C$DW$1185, DW_AT_type(*$C$DW$T$163)
   12114                      .dwattr $C$DW$1185, DW_AT_name("LsWaitTime")
   12115                      .dwattr $C$DW$1185, DW_AT_TI_symbol_name("_LsWaitTime")
   12116                      .dwattr $C$DW$1185, DW_AT_data_member_location[DW_OP_plus_uconst 0x84]
   12117                      .dwattr $C$DW$1185, DW_AT_accessibility(DW_ACCESS_public)
   12118              
   12119              $C$DW$1186      .dwtag  DW_TAG_member
   12120                      .dwattr $C$DW$1186, DW_AT_type(*$C$DW$T$162)
   12121                      .dwattr $C$DW$1186, DW_AT_name("RsWaitTime")
   12122                      .dwattr $C$DW$1186, DW_AT_TI_symbol_name("_RsWaitTime")
   12123                      .dwattr $C$DW$1186, DW_AT_data_member_location[DW_OP_plus_uconst 0x92]
   12124                      .dwattr $C$DW$1186, DW_AT_accessibility(DW_ACCESS_public)
   12125              
   12126              $C$DW$1187      .dwtag  DW_TAG_member
   12127                      .dwattr $C$DW$1187, DW_AT_type(*$C$DW$T$67)
   12128                      .dwattr $C$DW$1187, DW_AT_name("ctrlFreq_Hz")
   12129                      .dwattr $C$DW$1187, DW_AT_TI_symbol_name("_ctrlFreq_Hz")
   12130                      .dwattr $C$DW$1187, DW_AT_data_member_location[DW_OP_plus_uconst 0x9e]
   12131                      .dwattr $C$DW$1187, DW_AT_accessibility(DW_ACCESS_public)
TMS320C2000 Assembler PC v15.12.3 Wed Nov 22 00:56:17 2017

Tools Copyright (c) 1996-2015 Texas Instruments Incorporated
C:\Users\wmj\AppData\Local\Temp\0070810                              PAGE  228

   12132              
   12133              $C$DW$1188      .dwtag  DW_TAG_member
   12134                      .dwattr $C$DW$1188, DW_AT_type(*$C$DW$T$67)
   12135                      .dwattr $C$DW$1188, DW_AT_name("estFreq_Hz")
   12136                      .dwattr $C$DW$1188, DW_AT_TI_symbol_name("_estFreq_Hz")
   12137                      .dwattr $C$DW$1188, DW_AT_data_member_location[DW_OP_plus_uconst 0xa0]
   12138                      .dwattr $C$DW$1188, DW_AT_accessibility(DW_ACCESS_public)
   12139              
   12140              $C$DW$1189      .dwtag  DW_TAG_member
   12141                      .dwattr $C$DW$1189, DW_AT_type(*$C$DW$T$67)
   12142                      .dwattr $C$DW$1189, DW_AT_name("RoverL_estFreq_Hz")
   12143                      .dwattr $C$DW$1189, DW_AT_TI_symbol_name("_RoverL_estFreq_Hz")
   12144                      .dwattr $C$DW$1189, DW_AT_data_member_location[DW_OP_plus_uconst 0xa2]
   12145                      .dwattr $C$DW$1189, DW_AT_accessibility(DW_ACCESS_public)
   12146              
   12147              $C$DW$1190      .dwtag  DW_TAG_member
   12148                      .dwattr $C$DW$1190, DW_AT_type(*$C$DW$T$67)
   12149                      .dwattr $C$DW$1190, DW_AT_name("trajFreq_Hz")
   12150                      .dwattr $C$DW$1190, DW_AT_TI_symbol_name("_trajFreq_Hz")
   12151                      .dwattr $C$DW$1190, DW_AT_data_member_location[DW_OP_plus_uconst 0xa4]
   12152                      .dwattr $C$DW$1190, DW_AT_accessibility(DW_ACCESS_public)
   12153              
   12154              $C$DW$1191      .dwtag  DW_TAG_member
   12155                      .dwattr $C$DW$1191, DW_AT_type(*$C$DW$T$70)
   12156                      .dwattr $C$DW$1191, DW_AT_name("ctrlPeriod_sec")
   12157                      .dwattr $C$DW$1191, DW_AT_TI_symbol_name("_ctrlPeriod_sec")
   12158                      .dwattr $C$DW$1191, DW_AT_data_member_location[DW_OP_plus_uconst 0xa6]
   12159                      .dwattr $C$DW$1191, DW_AT_accessibility(DW_ACCESS_public)
   12160              
   12161              $C$DW$1192      .dwtag  DW_TAG_member
   12162                      .dwattr $C$DW$1192, DW_AT_type(*$C$DW$T$70)
   12163                      .dwattr $C$DW$1192, DW_AT_name("maxNegativeIdCurrent_a")
   12164                      .dwattr $C$DW$1192, DW_AT_TI_symbol_name("_maxNegativeIdCurrent_a")
   12165                      .dwattr $C$DW$1192, DW_AT_data_member_location[DW_OP_plus_uconst 0xa8]
   12166                      .dwattr $C$DW$1192, DW_AT_accessibility(DW_ACCESS_public)
   12167              
   12168              $C$DW$1193      .dwtag  DW_TAG_member
   12169                      .dwattr $C$DW$1193, DW_AT_type(*$C$DW$T$165)
   12170                      .dwattr $C$DW$1193, DW_AT_name("errorCode")
   12171                      .dwattr $C$DW$1193, DW_AT_TI_symbol_name("_errorCode")
   12172                      .dwattr $C$DW$1193, DW_AT_data_member_location[DW_OP_plus_uconst 0xaa]
   12173                      .dwattr $C$DW$1193, DW_AT_accessibility(DW_ACCESS_public)
   12174              
   12175              $C$DW$1194      .dwtag  DW_TAG_member
   12176                      .dwattr $C$DW$1194, DW_AT_type(*$C$DW$T$35)
   12177                      .dwattr $C$DW$1194, DW_AT_name("motor_ID")
   12178                      .dwattr $C$DW$1194, DW_AT_TI_symbol_name("_motor_ID")
   12179                      .dwattr $C$DW$1194, DW_AT_data_member_location[DW_OP_plus_uconst 0xab]
   12180                      .dwattr $C$DW$1194, DW_AT_accessibility(DW_ACCESS_public)
   12181              
   12182                      .dwendtag $C$DW$T$166
   12183              
   12184              $C$DW$T$230     .dwtag  DW_TAG_typedef
   12185                      .dwattr $C$DW$T$230, DW_AT_name("USER_Params")
   12186                      .dwattr $C$DW$T$230, DW_AT_type(*$C$DW$T$166)
TMS320C2000 Assembler PC v15.12.3 Wed Nov 22 00:56:17 2017

Tools Copyright (c) 1996-2015 Texas Instruments Incorporated
C:\Users\wmj\AppData\Local\Temp\0070810                              PAGE  229

   12187                      .dwattr $C$DW$T$230, DW_AT_language(DW_LANG_C)
   12188              
   12189              $C$DW$T$231     .dwtag  DW_TAG_pointer_type
   12190                      .dwattr $C$DW$T$231, DW_AT_type(*$C$DW$T$230)
   12191                      .dwattr $C$DW$T$231, DW_AT_address_class(0x20)
   12192              
   12193              $C$DW$1195      .dwtag  DW_TAG_TI_far_type
   12194                      .dwattr $C$DW$1195, DW_AT_type(*$C$DW$T$231)
   12195              
   12196              $C$DW$T$232     .dwtag  DW_TAG_const_type
   12197                      .dwattr $C$DW$T$232, DW_AT_type(*$C$DW$1195)
   12198              
   12199              
   12200              $C$DW$T$167     .dwtag  DW_TAG_structure_type
   12201                      .dwattr $C$DW$T$167, DW_AT_name("_WDOG_Obj_")
   12202                      .dwattr $C$DW$T$167, DW_AT_byte_size(0x08)
   12203              $C$DW$1196      .dwtag  DW_TAG_member
   12204                      .dwattr $C$DW$1196, DW_AT_type(*$C$DW$T$23)
   12205                      .dwattr $C$DW$1196, DW_AT_name("SCSR")
   12206                      .dwattr $C$DW$1196, DW_AT_TI_symbol_name("_SCSR")
   12207                      .dwattr $C$DW$1196, DW_AT_data_member_location[DW_OP_plus_uconst 0x0]
   12208                      .dwattr $C$DW$1196, DW_AT_accessibility(DW_ACCESS_public)
   12209              
   12210              $C$DW$1197      .dwtag  DW_TAG_member
   12211                      .dwattr $C$DW$1197, DW_AT_type(*$C$DW$T$23)
   12212                      .dwattr $C$DW$1197, DW_AT_name("WDCNTR")
   12213                      .dwattr $C$DW$1197, DW_AT_TI_symbol_name("_WDCNTR")
   12214                      .dwattr $C$DW$1197, DW_AT_data_member_location[DW_OP_plus_uconst 0x1]
   12215                      .dwattr $C$DW$1197, DW_AT_accessibility(DW_ACCESS_public)
   12216              
   12217              $C$DW$1198      .dwtag  DW_TAG_member
   12218                      .dwattr $C$DW$1198, DW_AT_type(*$C$DW$T$23)
   12219                      .dwattr $C$DW$1198, DW_AT_name("rsvd_1")
   12220                      .dwattr $C$DW$1198, DW_AT_TI_symbol_name("_rsvd_1")
   12221                      .dwattr $C$DW$1198, DW_AT_data_member_location[DW_OP_plus_uconst 0x2]
   12222                      .dwattr $C$DW$1198, DW_AT_accessibility(DW_ACCESS_public)
   12223              
   12224              $C$DW$1199      .dwtag  DW_TAG_member
   12225                      .dwattr $C$DW$1199, DW_AT_type(*$C$DW$T$23)
   12226                      .dwattr $C$DW$1199, DW_AT_name("WDKEY")
   12227                      .dwattr $C$DW$1199, DW_AT_TI_symbol_name("_WDKEY")
   12228                      .dwattr $C$DW$1199, DW_AT_data_member_location[DW_OP_plus_uconst 0x3]
   12229                      .dwattr $C$DW$1199, DW_AT_accessibility(DW_ACCESS_public)
   12230              
   12231              $C$DW$1200      .dwtag  DW_TAG_member
   12232                      .dwattr $C$DW$1200, DW_AT_type(*$C$DW$T$28)
   12233                      .dwattr $C$DW$1200, DW_AT_name("rsvd_2")
   12234                      .dwattr $C$DW$1200, DW_AT_TI_symbol_name("_rsvd_2")
   12235                      .dwattr $C$DW$1200, DW_AT_data_member_location[DW_OP_plus_uconst 0x4]
   12236                      .dwattr $C$DW$1200, DW_AT_accessibility(DW_ACCESS_public)
   12237              
   12238              $C$DW$1201      .dwtag  DW_TAG_member
   12239                      .dwattr $C$DW$1201, DW_AT_type(*$C$DW$T$23)
   12240                      .dwattr $C$DW$1201, DW_AT_name("WDCR")
   12241                      .dwattr $C$DW$1201, DW_AT_TI_symbol_name("_WDCR")
TMS320C2000 Assembler PC v15.12.3 Wed Nov 22 00:56:17 2017

Tools Copyright (c) 1996-2015 Texas Instruments Incorporated
C:\Users\wmj\AppData\Local\Temp\0070810                              PAGE  230

   12242                      .dwattr $C$DW$1201, DW_AT_data_member_location[DW_OP_plus_uconst 0x7]
   12243                      .dwattr $C$DW$1201, DW_AT_accessibility(DW_ACCESS_public)
   12244              
   12245                      .dwendtag $C$DW$T$167
   12246              
   12247              $C$DW$T$117     .dwtag  DW_TAG_pointer_type
   12248                      .dwattr $C$DW$T$117, DW_AT_type(*$C$DW$T$167)
   12249                      .dwattr $C$DW$T$117, DW_AT_address_class(0x20)
   12250              
   12251              $C$DW$T$118     .dwtag  DW_TAG_typedef
   12252                      .dwattr $C$DW$T$118, DW_AT_name("WDOG_Handle")
   12253                      .dwattr $C$DW$T$118, DW_AT_type(*$C$DW$T$117)
   12254                      .dwattr $C$DW$T$118, DW_AT_language(DW_LANG_C)
   12255              
   12256              $C$DW$T$2       .dwtag  DW_TAG_unspecified_type
   12257                      .dwattr $C$DW$T$2, DW_AT_name("void")
   12258              
   12259              $C$DW$T$3       .dwtag  DW_TAG_pointer_type
   12260                      .dwattr $C$DW$T$3, DW_AT_type(*$C$DW$T$2)
   12261                      .dwattr $C$DW$T$3, DW_AT_address_class(0x20)
   12262              
   12263              
   12264              $C$DW$T$146     .dwtag  DW_TAG_subroutine_type
   12265                      .dwattr $C$DW$T$146, DW_AT_language(DW_LANG_C)
   12266                      .dwendtag $C$DW$T$146
   12267              
   12268              $C$DW$T$147     .dwtag  DW_TAG_pointer_type
   12269                      .dwattr $C$DW$T$147, DW_AT_type(*$C$DW$T$146)
   12270                      .dwattr $C$DW$T$147, DW_AT_address_class(0x20)
   12271              
   12272              $C$DW$T$148     .dwtag  DW_TAG_typedef
   12273                      .dwattr $C$DW$T$148, DW_AT_name("PIE_IntVec_t")
   12274                      .dwattr $C$DW$T$148, DW_AT_type(*$C$DW$T$147)
   12275                      .dwattr $C$DW$T$148, DW_AT_language(DW_LANG_C)
   12276              
   12277              $C$DW$1202      .dwtag  DW_TAG_TI_far_type
   12278                      .dwattr $C$DW$1202, DW_AT_type(*$C$DW$T$148)
   12279              
   12280              $C$DW$T$149     .dwtag  DW_TAG_volatile_type
   12281                      .dwattr $C$DW$T$149, DW_AT_type(*$C$DW$1202)
   12282              
   12283              $C$DW$T$4       .dwtag  DW_TAG_base_type
   12284                      .dwattr $C$DW$T$4, DW_AT_encoding(DW_ATE_boolean)
   12285                      .dwattr $C$DW$T$4, DW_AT_name("bool")
   12286                      .dwattr $C$DW$T$4, DW_AT_byte_size(0x01)
   12287              
   12288              $C$DW$T$5       .dwtag  DW_TAG_base_type
   12289                      .dwattr $C$DW$T$5, DW_AT_encoding(DW_ATE_signed_char)
   12290                      .dwattr $C$DW$T$5, DW_AT_name("signed char")
   12291                      .dwattr $C$DW$T$5, DW_AT_byte_size(0x01)
   12292              
   12293              $C$DW$T$6       .dwtag  DW_TAG_base_type
   12294                      .dwattr $C$DW$T$6, DW_AT_encoding(DW_ATE_unsigned_char)
   12295                      .dwattr $C$DW$T$6, DW_AT_name("unsigned char")
   12296                      .dwattr $C$DW$T$6, DW_AT_byte_size(0x01)
TMS320C2000 Assembler PC v15.12.3 Wed Nov 22 00:56:17 2017

Tools Copyright (c) 1996-2015 Texas Instruments Incorporated
C:\Users\wmj\AppData\Local\Temp\0070810                              PAGE  231

   12297              
   12298              $C$DW$T$7       .dwtag  DW_TAG_base_type
   12299                      .dwattr $C$DW$T$7, DW_AT_encoding(DW_ATE_signed_char)
   12300                      .dwattr $C$DW$T$7, DW_AT_name("wchar_t")
   12301                      .dwattr $C$DW$T$7, DW_AT_byte_size(0x01)
   12302              
   12303              $C$DW$T$8       .dwtag  DW_TAG_base_type
   12304                      .dwattr $C$DW$T$8, DW_AT_encoding(DW_ATE_signed)
   12305                      .dwattr $C$DW$T$8, DW_AT_name("short")
   12306                      .dwattr $C$DW$T$8, DW_AT_byte_size(0x01)
   12307              
   12308              $C$DW$T$9       .dwtag  DW_TAG_base_type
   12309                      .dwattr $C$DW$T$9, DW_AT_encoding(DW_ATE_unsigned)
   12310                      .dwattr $C$DW$T$9, DW_AT_name("unsigned short")
   12311                      .dwattr $C$DW$T$9, DW_AT_byte_size(0x01)
   12312              
   12313              $C$DW$T$10      .dwtag  DW_TAG_base_type
   12314                      .dwattr $C$DW$T$10, DW_AT_encoding(DW_ATE_signed)
   12315                      .dwattr $C$DW$T$10, DW_AT_name("int")
   12316                      .dwattr $C$DW$T$10, DW_AT_byte_size(0x01)
   12317              
   12318              $C$DW$T$11      .dwtag  DW_TAG_base_type
   12319                      .dwattr $C$DW$T$11, DW_AT_encoding(DW_ATE_unsigned)
   12320                      .dwattr $C$DW$T$11, DW_AT_name("unsigned int")
   12321                      .dwattr $C$DW$T$11, DW_AT_byte_size(0x01)
   12322              
   12323              $C$DW$T$22      .dwtag  DW_TAG_typedef
   12324                      .dwattr $C$DW$T$22, DW_AT_name("uint16_t")
   12325                      .dwattr $C$DW$T$22, DW_AT_type(*$C$DW$T$11)
   12326                      .dwattr $C$DW$T$22, DW_AT_language(DW_LANG_C)
   12327              
   12328              $C$DW$1203      .dwtag  DW_TAG_TI_far_type
   12329                      .dwattr $C$DW$1203, DW_AT_type(*$C$DW$T$22)
   12330              
   12331              $C$DW$T$23      .dwtag  DW_TAG_volatile_type
   12332                      .dwattr $C$DW$T$23, DW_AT_type(*$C$DW$1203)
   12333              
   12334              
   12335              $C$DW$T$24      .dwtag  DW_TAG_array_type
   12336                      .dwattr $C$DW$T$24, DW_AT_type(*$C$DW$T$23)
   12337                      .dwattr $C$DW$T$24, DW_AT_language(DW_LANG_C)
   12338                      .dwattr $C$DW$T$24, DW_AT_byte_size(0x10)
   12339              $C$DW$1204      .dwtag  DW_TAG_subrange_type
   12340                      .dwattr $C$DW$1204, DW_AT_upper_bound(0x0f)
   12341              
   12342                      .dwendtag $C$DW$T$24
   12343              
   12344              
   12345              $C$DW$T$25      .dwtag  DW_TAG_array_type
   12346                      .dwattr $C$DW$T$25, DW_AT_type(*$C$DW$T$23)
   12347                      .dwattr $C$DW$T$25, DW_AT_language(DW_LANG_C)
   12348                      .dwattr $C$DW$T$25, DW_AT_byte_size(0x65f0)
   12349              $C$DW$1205      .dwtag  DW_TAG_subrange_type
   12350                      .dwattr $C$DW$1205, DW_AT_upper_bound(0x65ef)
   12351              
TMS320C2000 Assembler PC v15.12.3 Wed Nov 22 00:56:17 2017

Tools Copyright (c) 1996-2015 Texas Instruments Incorporated
C:\Users\wmj\AppData\Local\Temp\0070810                              PAGE  232

   12352                      .dwendtag $C$DW$T$25
   12353              
   12354              
   12355              $C$DW$T$26      .dwtag  DW_TAG_array_type
   12356                      .dwattr $C$DW$T$26, DW_AT_type(*$C$DW$T$23)
   12357                      .dwattr $C$DW$T$26, DW_AT_language(DW_LANG_C)
   12358                      .dwattr $C$DW$T$26, DW_AT_byte_size(0x02)
   12359              $C$DW$1206      .dwtag  DW_TAG_subrange_type
   12360                      .dwattr $C$DW$1206, DW_AT_upper_bound(0x01)
   12361              
   12362                      .dwendtag $C$DW$T$26
   12363              
   12364              
   12365              $C$DW$T$27      .dwtag  DW_TAG_array_type
   12366                      .dwattr $C$DW$T$27, DW_AT_type(*$C$DW$T$23)
   12367                      .dwattr $C$DW$T$27, DW_AT_language(DW_LANG_C)
   12368                      .dwattr $C$DW$T$27, DW_AT_byte_size(0x05)
   12369              $C$DW$1207      .dwtag  DW_TAG_subrange_type
   12370                      .dwattr $C$DW$1207, DW_AT_upper_bound(0x04)
   12371              
   12372                      .dwendtag $C$DW$T$27
   12373              
   12374              
   12375              $C$DW$T$28      .dwtag  DW_TAG_array_type
   12376                      .dwattr $C$DW$T$28, DW_AT_type(*$C$DW$T$23)
   12377                      .dwattr $C$DW$T$28, DW_AT_language(DW_LANG_C)
   12378                      .dwattr $C$DW$T$28, DW_AT_byte_size(0x03)
   12379              $C$DW$1208      .dwtag  DW_TAG_subrange_type
   12380                      .dwattr $C$DW$1208, DW_AT_upper_bound(0x02)
   12381              
   12382                      .dwendtag $C$DW$T$28
   12383              
   12384              
   12385              $C$DW$T$29      .dwtag  DW_TAG_array_type
   12386                      .dwattr $C$DW$T$29, DW_AT_type(*$C$DW$T$23)
   12387                      .dwattr $C$DW$T$29, DW_AT_language(DW_LANG_C)
   12388                      .dwattr $C$DW$T$29, DW_AT_byte_size(0x0d)
   12389              $C$DW$1209      .dwtag  DW_TAG_subrange_type
   12390                      .dwattr $C$DW$1209, DW_AT_upper_bound(0x0c)
   12391              
   12392                      .dwendtag $C$DW$T$29
   12393              
   12394              
   12395              $C$DW$T$37      .dwtag  DW_TAG_array_type
   12396                      .dwattr $C$DW$T$37, DW_AT_type(*$C$DW$T$23)
   12397                      .dwattr $C$DW$T$37, DW_AT_language(DW_LANG_C)
   12398                      .dwattr $C$DW$T$37, DW_AT_byte_size(0x08)
   12399              $C$DW$1210      .dwtag  DW_TAG_subrange_type
   12400                      .dwattr $C$DW$1210, DW_AT_upper_bound(0x07)
   12401              
   12402                      .dwendtag $C$DW$T$37
   12403              
   12404              
   12405              $C$DW$T$81      .dwtag  DW_TAG_array_type
   12406                      .dwattr $C$DW$T$81, DW_AT_type(*$C$DW$T$23)
TMS320C2000 Assembler PC v15.12.3 Wed Nov 22 00:56:17 2017

Tools Copyright (c) 1996-2015 Texas Instruments Incorporated
C:\Users\wmj\AppData\Local\Temp\0070810                              PAGE  233

   12407                      .dwattr $C$DW$T$81, DW_AT_language(DW_LANG_C)
   12408                      .dwattr $C$DW$T$81, DW_AT_byte_size(0x18)
   12409              $C$DW$1211      .dwtag  DW_TAG_subrange_type
   12410                      .dwattr $C$DW$1211, DW_AT_upper_bound(0x17)
   12411              
   12412                      .dwendtag $C$DW$T$81
   12413              
   12414              
   12415              $C$DW$T$82      .dwtag  DW_TAG_array_type
   12416                      .dwattr $C$DW$T$82, DW_AT_type(*$C$DW$T$23)
   12417                      .dwattr $C$DW$T$82, DW_AT_language(DW_LANG_C)
   12418                      .dwattr $C$DW$T$82, DW_AT_byte_size(0x04)
   12419              $C$DW$1212      .dwtag  DW_TAG_subrange_type
   12420                      .dwattr $C$DW$1212, DW_AT_upper_bound(0x03)
   12421              
   12422                      .dwendtag $C$DW$T$82
   12423              
   12424              
   12425              $C$DW$T$145     .dwtag  DW_TAG_array_type
   12426                      .dwattr $C$DW$T$145, DW_AT_type(*$C$DW$T$23)
   12427                      .dwattr $C$DW$T$145, DW_AT_language(DW_LANG_C)
   12428                      .dwattr $C$DW$T$145, DW_AT_byte_size(0x06)
   12429              $C$DW$1213      .dwtag  DW_TAG_subrange_type
   12430                      .dwattr $C$DW$1213, DW_AT_upper_bound(0x05)
   12431              
   12432                      .dwendtag $C$DW$T$145
   12433              
   12434              
   12435              $C$DW$T$150     .dwtag  DW_TAG_array_type
   12436                      .dwattr $C$DW$T$150, DW_AT_type(*$C$DW$T$23)
   12437                      .dwattr $C$DW$T$150, DW_AT_language(DW_LANG_C)
   12438                      .dwattr $C$DW$T$150, DW_AT_byte_size(0x6270)
   12439              $C$DW$1214      .dwtag  DW_TAG_subrange_type
   12440                      .dwattr $C$DW$1214, DW_AT_upper_bound(0x626f)
   12441              
   12442                      .dwendtag $C$DW$T$150
   12443              
   12444              
   12445              $C$DW$T$154     .dwtag  DW_TAG_array_type
   12446                      .dwattr $C$DW$T$154, DW_AT_type(*$C$DW$T$23)
   12447                      .dwattr $C$DW$T$154, DW_AT_language(DW_LANG_C)
   12448                      .dwattr $C$DW$T$154, DW_AT_byte_size(0x6698)
   12449              $C$DW$1215      .dwtag  DW_TAG_subrange_type
   12450                      .dwattr $C$DW$1215, DW_AT_upper_bound(0x6697)
   12451              
   12452                      .dwendtag $C$DW$T$154
   12453              
   12454              $C$DW$T$69      .dwtag  DW_TAG_typedef
   12455                      .dwattr $C$DW$T$69, DW_AT_name("uint_least16_t")
   12456                      .dwattr $C$DW$T$69, DW_AT_type(*$C$DW$T$22)
   12457                      .dwattr $C$DW$T$69, DW_AT_language(DW_LANG_C)
   12458              
   12459              $C$DW$T$35      .dwtag  DW_TAG_typedef
   12460                      .dwattr $C$DW$T$35, DW_AT_name("uint_least8_t")
   12461                      .dwattr $C$DW$T$35, DW_AT_type(*$C$DW$T$22)
TMS320C2000 Assembler PC v15.12.3 Wed Nov 22 00:56:17 2017

Tools Copyright (c) 1996-2015 Texas Instruments Incorporated
C:\Users\wmj\AppData\Local\Temp\0070810                              PAGE  234

   12462                      .dwattr $C$DW$T$35, DW_AT_language(DW_LANG_C)
   12463              
   12464              $C$DW$1216      .dwtag  DW_TAG_TI_far_type
   12465                      .dwattr $C$DW$1216, DW_AT_type(*$C$DW$T$35)
   12466              
   12467              $C$DW$T$236     .dwtag  DW_TAG_const_type
   12468                      .dwattr $C$DW$T$236, DW_AT_type(*$C$DW$1216)
   12469              
   12470              $C$DW$T$12      .dwtag  DW_TAG_base_type
   12471                      .dwattr $C$DW$T$12, DW_AT_encoding(DW_ATE_signed)
   12472                      .dwattr $C$DW$T$12, DW_AT_name("long")
   12473                      .dwattr $C$DW$T$12, DW_AT_byte_size(0x02)
   12474              
   12475              $C$DW$T$31      .dwtag  DW_TAG_typedef
   12476                      .dwattr $C$DW$T$31, DW_AT_name("_iq")
   12477                      .dwattr $C$DW$T$31, DW_AT_type(*$C$DW$T$12)
   12478                      .dwattr $C$DW$T$31, DW_AT_language(DW_LANG_C)
   12479              
   12480              
   12481              $C$DW$T$127     .dwtag  DW_TAG_array_type
   12482                      .dwattr $C$DW$T$127, DW_AT_type(*$C$DW$T$31)
   12483                      .dwattr $C$DW$T$127, DW_AT_language(DW_LANG_C)
   12484                      .dwattr $C$DW$T$127, DW_AT_byte_size(0x04)
   12485              $C$DW$1217      .dwtag  DW_TAG_subrange_type
   12486                      .dwattr $C$DW$1217, DW_AT_upper_bound(0x01)
   12487              
   12488                      .dwendtag $C$DW$T$127
   12489              
   12490              
   12491              $C$DW$T$129     .dwtag  DW_TAG_array_type
   12492                      .dwattr $C$DW$T$129, DW_AT_type(*$C$DW$T$31)
   12493                      .dwattr $C$DW$T$129, DW_AT_language(DW_LANG_C)
   12494                      .dwattr $C$DW$T$129, DW_AT_byte_size(0x06)
   12495              $C$DW$1218      .dwtag  DW_TAG_subrange_type
   12496                      .dwattr $C$DW$1218, DW_AT_upper_bound(0x02)
   12497              
   12498                      .dwendtag $C$DW$T$129
   12499              
   12500              $C$DW$T$245     .dwtag  DW_TAG_pointer_type
   12501                      .dwattr $C$DW$T$245, DW_AT_type(*$C$DW$T$31)
   12502                      .dwattr $C$DW$T$245, DW_AT_address_class(0x20)
   12503              
   12504              $C$DW$1219      .dwtag  DW_TAG_TI_far_type
   12505                      .dwattr $C$DW$1219, DW_AT_type(*$C$DW$T$245)
   12506              
   12507              $C$DW$T$319     .dwtag  DW_TAG_const_type
   12508                      .dwattr $C$DW$T$319, DW_AT_type(*$C$DW$1219)
   12509              
   12510              $C$DW$1220      .dwtag  DW_TAG_TI_far_type
   12511                      .dwattr $C$DW$1220, DW_AT_type(*$C$DW$T$31)
   12512              
   12513              $C$DW$T$238     .dwtag  DW_TAG_const_type
   12514                      .dwattr $C$DW$T$238, DW_AT_type(*$C$DW$1220)
   12515              
   12516              $C$DW$T$13      .dwtag  DW_TAG_base_type
TMS320C2000 Assembler PC v15.12.3 Wed Nov 22 00:56:17 2017

Tools Copyright (c) 1996-2015 Texas Instruments Incorporated
C:\Users\wmj\AppData\Local\Temp\0070810                              PAGE  235

   12517                      .dwattr $C$DW$T$13, DW_AT_encoding(DW_ATE_unsigned)
   12518                      .dwattr $C$DW$T$13, DW_AT_name("unsigned long")
   12519                      .dwattr $C$DW$T$13, DW_AT_byte_size(0x02)
   12520              
   12521              $C$DW$T$182     .dwtag  DW_TAG_typedef
   12522                      .dwattr $C$DW$T$182, DW_AT_name("size_t")
   12523                      .dwattr $C$DW$T$182, DW_AT_type(*$C$DW$T$13)
   12524                      .dwattr $C$DW$T$182, DW_AT_language(DW_LANG_C)
   12525              
   12526              $C$DW$1221      .dwtag  DW_TAG_TI_far_type
   12527                      .dwattr $C$DW$1221, DW_AT_type(*$C$DW$T$182)
   12528              
   12529              $C$DW$T$183     .dwtag  DW_TAG_const_type
   12530                      .dwattr $C$DW$T$183, DW_AT_type(*$C$DW$1221)
   12531              
   12532              $C$DW$T$66      .dwtag  DW_TAG_typedef
   12533                      .dwattr $C$DW$T$66, DW_AT_name("uint32_t")
   12534                      .dwattr $C$DW$T$66, DW_AT_type(*$C$DW$T$13)
   12535                      .dwattr $C$DW$T$66, DW_AT_language(DW_LANG_C)
   12536              
   12537              $C$DW$1222      .dwtag  DW_TAG_TI_far_type
   12538                      .dwattr $C$DW$1222, DW_AT_type(*$C$DW$T$66)
   12539              
   12540              $C$DW$T$80      .dwtag  DW_TAG_volatile_type
   12541                      .dwattr $C$DW$T$80, DW_AT_type(*$C$DW$1222)
   12542              
   12543              $C$DW$T$67      .dwtag  DW_TAG_typedef
   12544                      .dwattr $C$DW$T$67, DW_AT_name("uint_least32_t")
   12545                      .dwattr $C$DW$T$67, DW_AT_type(*$C$DW$T$66)
   12546                      .dwattr $C$DW$T$67, DW_AT_language(DW_LANG_C)
   12547              
   12548              
   12549              $C$DW$T$68      .dwtag  DW_TAG_array_type
   12550                      .dwattr $C$DW$T$68, DW_AT_type(*$C$DW$T$67)
   12551                      .dwattr $C$DW$T$68, DW_AT_language(DW_LANG_C)
   12552                      .dwattr $C$DW$T$68, DW_AT_byte_size(0x08)
   12553              $C$DW$1223      .dwtag  DW_TAG_subrange_type
   12554                      .dwattr $C$DW$1223, DW_AT_upper_bound(0x03)
   12555              
   12556                      .dwendtag $C$DW$T$68
   12557              
   12558              
   12559              $C$DW$T$161     .dwtag  DW_TAG_array_type
   12560                      .dwattr $C$DW$T$161, DW_AT_type(*$C$DW$T$67)
   12561                      .dwattr $C$DW$T$161, DW_AT_language(DW_LANG_C)
   12562                      .dwattr $C$DW$T$161, DW_AT_byte_size(0x1c)
   12563              $C$DW$1224      .dwtag  DW_TAG_subrange_type
   12564                      .dwattr $C$DW$1224, DW_AT_upper_bound(0x0d)
   12565              
   12566                      .dwendtag $C$DW$T$161
   12567              
   12568              
   12569              $C$DW$T$162     .dwtag  DW_TAG_array_type
   12570                      .dwattr $C$DW$T$162, DW_AT_type(*$C$DW$T$67)
   12571                      .dwattr $C$DW$T$162, DW_AT_language(DW_LANG_C)
TMS320C2000 Assembler PC v15.12.3 Wed Nov 22 00:56:17 2017

Tools Copyright (c) 1996-2015 Texas Instruments Incorporated
C:\Users\wmj\AppData\Local\Temp\0070810                              PAGE  236

   12572                      .dwattr $C$DW$T$162, DW_AT_byte_size(0x0c)
   12573              $C$DW$1225      .dwtag  DW_TAG_subrange_type
   12574                      .dwattr $C$DW$1225, DW_AT_upper_bound(0x05)
   12575              
   12576                      .dwendtag $C$DW$T$162
   12577              
   12578              
   12579              $C$DW$T$163     .dwtag  DW_TAG_array_type
   12580                      .dwattr $C$DW$T$163, DW_AT_type(*$C$DW$T$67)
   12581                      .dwattr $C$DW$T$163, DW_AT_language(DW_LANG_C)
   12582                      .dwattr $C$DW$T$163, DW_AT_byte_size(0x0e)
   12583              $C$DW$1226      .dwtag  DW_TAG_subrange_type
   12584                      .dwattr $C$DW$1226, DW_AT_upper_bound(0x06)
   12585              
   12586                      .dwendtag $C$DW$T$163
   12587              
   12588              $C$DW$T$288     .dwtag  DW_TAG_pointer_type
   12589                      .dwattr $C$DW$T$288, DW_AT_type(*$C$DW$T$67)
   12590                      .dwattr $C$DW$T$288, DW_AT_address_class(0x20)
   12591              
   12592              $C$DW$1227      .dwtag  DW_TAG_TI_far_type
   12593                      .dwattr $C$DW$1227, DW_AT_type(*$C$DW$T$67)
   12594              
   12595              $C$DW$T$268     .dwtag  DW_TAG_const_type
   12596                      .dwattr $C$DW$T$268, DW_AT_type(*$C$DW$1227)
   12597              
   12598              $C$DW$T$295     .dwtag  DW_TAG_pointer_type
   12599                      .dwattr $C$DW$T$295, DW_AT_type(*$C$DW$T$268)
   12600                      .dwattr $C$DW$T$295, DW_AT_address_class(0x20)
   12601              
   12602              $C$DW$T$14      .dwtag  DW_TAG_base_type
   12603                      .dwattr $C$DW$T$14, DW_AT_encoding(DW_ATE_signed)
   12604                      .dwattr $C$DW$T$14, DW_AT_name("long long")
   12605                      .dwattr $C$DW$T$14, DW_AT_byte_size(0x04)
   12606              
   12607              $C$DW$T$15      .dwtag  DW_TAG_base_type
   12608                      .dwattr $C$DW$T$15, DW_AT_encoding(DW_ATE_unsigned)
   12609                      .dwattr $C$DW$T$15, DW_AT_name("unsigned long long")
   12610                      .dwattr $C$DW$T$15, DW_AT_byte_size(0x04)
   12611              
   12612              $C$DW$T$16      .dwtag  DW_TAG_base_type
   12613                      .dwattr $C$DW$T$16, DW_AT_encoding(DW_ATE_float)
   12614                      .dwattr $C$DW$T$16, DW_AT_name("float")
   12615                      .dwattr $C$DW$T$16, DW_AT_byte_size(0x02)
   12616              
   12617              $C$DW$T$70      .dwtag  DW_TAG_typedef
   12618                      .dwattr $C$DW$T$70, DW_AT_name("float_t")
   12619                      .dwattr $C$DW$T$70, DW_AT_type(*$C$DW$T$16)
   12620                      .dwattr $C$DW$T$70, DW_AT_language(DW_LANG_C)
   12621              
   12622              $C$DW$T$17      .dwtag  DW_TAG_base_type
   12623                      .dwattr $C$DW$T$17, DW_AT_encoding(DW_ATE_float)
   12624                      .dwattr $C$DW$T$17, DW_AT_name("double")
   12625                      .dwattr $C$DW$T$17, DW_AT_byte_size(0x02)
   12626              
TMS320C2000 Assembler PC v15.12.3 Wed Nov 22 00:56:17 2017

Tools Copyright (c) 1996-2015 Texas Instruments Incorporated
C:\Users\wmj\AppData\Local\Temp\0070810                              PAGE  237

   12627              $C$DW$T$18      .dwtag  DW_TAG_base_type
   12628                      .dwattr $C$DW$T$18, DW_AT_encoding(DW_ATE_float)
   12629                      .dwattr $C$DW$T$18, DW_AT_name("long double")
   12630                      .dwattr $C$DW$T$18, DW_AT_byte_size(0x04)
   12631              
   12632              $C$DW$T$33      .dwtag  DW_TAG_base_type
   12633                      .dwattr $C$DW$T$33, DW_AT_encoding(DW_ATE_unsigned_char)
   12634                      .dwattr $C$DW$T$33, DW_AT_name("unsigned char")
   12635                      .dwattr $C$DW$T$33, DW_AT_byte_size(0x01)
   12636              
   12637                      .dwattr $C$DW$CU, DW_AT_language(DW_LANG_C)
   12638              
   12639              ;***************************************************************
   12640              ;* DWARF CIE ENTRIES                                           *
   12641              ;***************************************************************
   12642              
   12643              $C$DW$CIE       .dwcie 26
   12644                      .dwcfi  cfa_register, 20
   12645                      .dwcfi  cfa_offset, 0
   12646                      .dwcfi  undefined, 0
   12647                      .dwcfi  undefined, 1
   12648                      .dwcfi  undefined, 2
   12649                      .dwcfi  undefined, 3
   12650                      .dwcfi  undefined, 20
   12651                      .dwcfi  undefined, 21
   12652                      .dwcfi  undefined, 22
   12653                      .dwcfi  undefined, 23
   12654                      .dwcfi  undefined, 24
   12655                      .dwcfi  undefined, 25
   12656                      .dwcfi  undefined, 26
   12657                      .dwcfi  same_value, 28
   12658                      .dwcfi  undefined, 29
   12659                      .dwcfi  undefined, 30
   12660                      .dwcfi  undefined, 31
   12661                      .dwcfi  undefined, 32
   12662                      .dwcfi  undefined, 33
   12663                      .dwcfi  undefined, 34
   12664                      .dwcfi  undefined, 35
   12665                      .dwcfi  undefined, 36
   12666                      .dwcfi  undefined, 37
   12667                      .dwcfi  undefined, 38
   12668                      .dwcfi  undefined, 75
   12669                      .dwcfi  undefined, 76
   12670                      .dwcfi  undefined, 77
   12671                      .dwcfi  undefined, 4
   12672                      .dwcfi  undefined, 5
   12673                      .dwcfi  same_value, 6
   12674                      .dwcfi  same_value, 7
   12675                      .dwcfi  same_value, 8
   12676                      .dwcfi  same_value, 9
   12677                      .dwcfi  same_value, 10
   12678                      .dwcfi  same_value, 11
   12679                      .dwcfi  undefined, 12
   12680                      .dwcfi  undefined, 13
   12681                      .dwcfi  undefined, 14
TMS320C2000 Assembler PC v15.12.3 Wed Nov 22 00:56:17 2017

Tools Copyright (c) 1996-2015 Texas Instruments Incorporated
C:\Users\wmj\AppData\Local\Temp\0070810                              PAGE  238

   12682                      .dwcfi  undefined, 15
   12683                      .dwcfi  undefined, 16
   12684                      .dwcfi  undefined, 17
   12685                      .dwcfi  undefined, 18
   12686                      .dwcfi  undefined, 19
   12687                      .dwendentry
   12688              
   12689              ;***************************************************************
   12690              ;* DWARF REGISTER MAP                                          *
   12691              ;***************************************************************
   12692              
   12693              $C$DW$1228      .dwtag  DW_TAG_TI_assign_register
   12694                      .dwattr $C$DW$1228, DW_AT_name("AL")
   12695                      .dwattr $C$DW$1228, DW_AT_location[DW_OP_reg0]
   12696              
   12697              $C$DW$1229      .dwtag  DW_TAG_TI_assign_register
   12698                      .dwattr $C$DW$1229, DW_AT_name("AH")
   12699                      .dwattr $C$DW$1229, DW_AT_location[DW_OP_reg1]
   12700              
   12701              $C$DW$1230      .dwtag  DW_TAG_TI_assign_register
   12702                      .dwattr $C$DW$1230, DW_AT_name("PL")
   12703                      .dwattr $C$DW$1230, DW_AT_location[DW_OP_reg2]
   12704              
   12705              $C$DW$1231      .dwtag  DW_TAG_TI_assign_register
   12706                      .dwattr $C$DW$1231, DW_AT_name("PH")
   12707                      .dwattr $C$DW$1231, DW_AT_location[DW_OP_reg3]
   12708              
   12709              $C$DW$1232      .dwtag  DW_TAG_TI_assign_register
   12710                      .dwattr $C$DW$1232, DW_AT_name("SP")
   12711                      .dwattr $C$DW$1232, DW_AT_location[DW_OP_reg20]
   12712              
   12713              $C$DW$1233      .dwtag  DW_TAG_TI_assign_register
   12714                      .dwattr $C$DW$1233, DW_AT_name("XT")
   12715                      .dwattr $C$DW$1233, DW_AT_location[DW_OP_reg21]
   12716              
   12717              $C$DW$1234      .dwtag  DW_TAG_TI_assign_register
   12718                      .dwattr $C$DW$1234, DW_AT_name("T")
   12719                      .dwattr $C$DW$1234, DW_AT_location[DW_OP_reg22]
   12720              
   12721              $C$DW$1235      .dwtag  DW_TAG_TI_assign_register
   12722                      .dwattr $C$DW$1235, DW_AT_name("ST0")
   12723                      .dwattr $C$DW$1235, DW_AT_location[DW_OP_reg23]
   12724              
   12725              $C$DW$1236      .dwtag  DW_TAG_TI_assign_register
   12726                      .dwattr $C$DW$1236, DW_AT_name("ST1")
   12727                      .dwattr $C$DW$1236, DW_AT_location[DW_OP_reg24]
   12728              
   12729              $C$DW$1237      .dwtag  DW_TAG_TI_assign_register
   12730                      .dwattr $C$DW$1237, DW_AT_name("PC")
   12731                      .dwattr $C$DW$1237, DW_AT_location[DW_OP_reg25]
   12732              
   12733              $C$DW$1238      .dwtag  DW_TAG_TI_assign_register
   12734                      .dwattr $C$DW$1238, DW_AT_name("RPC")
   12735                      .dwattr $C$DW$1238, DW_AT_location[DW_OP_reg26]
   12736              
TMS320C2000 Assembler PC v15.12.3 Wed Nov 22 00:56:17 2017

Tools Copyright (c) 1996-2015 Texas Instruments Incorporated
C:\Users\wmj\AppData\Local\Temp\0070810                              PAGE  239

   12737              $C$DW$1239      .dwtag  DW_TAG_TI_assign_register
   12738                      .dwattr $C$DW$1239, DW_AT_name("FP")
   12739                      .dwattr $C$DW$1239, DW_AT_location[DW_OP_reg28]
   12740              
   12741              $C$DW$1240      .dwtag  DW_TAG_TI_assign_register
   12742                      .dwattr $C$DW$1240, DW_AT_name("DP")
   12743                      .dwattr $C$DW$1240, DW_AT_location[DW_OP_reg29]
   12744              
   12745              $C$DW$1241      .dwtag  DW_TAG_TI_assign_register
   12746                      .dwattr $C$DW$1241, DW_AT_name("SXM")
   12747                      .dwattr $C$DW$1241, DW_AT_location[DW_OP_reg30]
   12748              
   12749              $C$DW$1242      .dwtag  DW_TAG_TI_assign_register
   12750                      .dwattr $C$DW$1242, DW_AT_name("PM")
   12751                      .dwattr $C$DW$1242, DW_AT_location[DW_OP_reg31]
   12752              
   12753              $C$DW$1243      .dwtag  DW_TAG_TI_assign_register
   12754                      .dwattr $C$DW$1243, DW_AT_name("OVM")
   12755                      .dwattr $C$DW$1243, DW_AT_location[DW_OP_regx 0x20]
   12756              
   12757              $C$DW$1244      .dwtag  DW_TAG_TI_assign_register
   12758                      .dwattr $C$DW$1244, DW_AT_name("PAGE0")
   12759                      .dwattr $C$DW$1244, DW_AT_location[DW_OP_regx 0x21]
   12760              
   12761              $C$DW$1245      .dwtag  DW_TAG_TI_assign_register
   12762                      .dwattr $C$DW$1245, DW_AT_name("AMODE")
   12763                      .dwattr $C$DW$1245, DW_AT_location[DW_OP_regx 0x22]
   12764              
   12765              $C$DW$1246      .dwtag  DW_TAG_TI_assign_register
   12766                      .dwattr $C$DW$1246, DW_AT_name("INTM")
   12767                      .dwattr $C$DW$1246, DW_AT_location[DW_OP_regx 0x23]
   12768              
   12769              $C$DW$1247      .dwtag  DW_TAG_TI_assign_register
   12770                      .dwattr $C$DW$1247, DW_AT_name("IFR")
   12771                      .dwattr $C$DW$1247, DW_AT_location[DW_OP_regx 0x24]
   12772              
   12773              $C$DW$1248      .dwtag  DW_TAG_TI_assign_register
   12774                      .dwattr $C$DW$1248, DW_AT_name("IER")
   12775                      .dwattr $C$DW$1248, DW_AT_location[DW_OP_regx 0x25]
   12776              
   12777              $C$DW$1249      .dwtag  DW_TAG_TI_assign_register
   12778                      .dwattr $C$DW$1249, DW_AT_name("V")
   12779                      .dwattr $C$DW$1249, DW_AT_location[DW_OP_regx 0x26]
   12780              
   12781              $C$DW$1250      .dwtag  DW_TAG_TI_assign_register
   12782                      .dwattr $C$DW$1250, DW_AT_name("PSEUDOH")
   12783                      .dwattr $C$DW$1250, DW_AT_location[DW_OP_regx 0x4c]
   12784              
   12785              $C$DW$1251      .dwtag  DW_TAG_TI_assign_register
   12786                      .dwattr $C$DW$1251, DW_AT_name("VOL")
   12787                      .dwattr $C$DW$1251, DW_AT_location[DW_OP_regx 0x4d]
   12788              
   12789              $C$DW$1252      .dwtag  DW_TAG_TI_assign_register
   12790                      .dwattr $C$DW$1252, DW_AT_name("AR0")
   12791                      .dwattr $C$DW$1252, DW_AT_location[DW_OP_reg4]
TMS320C2000 Assembler PC v15.12.3 Wed Nov 22 00:56:17 2017

Tools Copyright (c) 1996-2015 Texas Instruments Incorporated
C:\Users\wmj\AppData\Local\Temp\0070810                              PAGE  240

   12792              
   12793              $C$DW$1253      .dwtag  DW_TAG_TI_assign_register
   12794                      .dwattr $C$DW$1253, DW_AT_name("XAR0")
   12795                      .dwattr $C$DW$1253, DW_AT_location[DW_OP_reg5]
   12796              
   12797              $C$DW$1254      .dwtag  DW_TAG_TI_assign_register
   12798                      .dwattr $C$DW$1254, DW_AT_name("AR1")
   12799                      .dwattr $C$DW$1254, DW_AT_location[DW_OP_reg6]
   12800              
   12801              $C$DW$1255      .dwtag  DW_TAG_TI_assign_register
   12802                      .dwattr $C$DW$1255, DW_AT_name("XAR1")
   12803                      .dwattr $C$DW$1255, DW_AT_location[DW_OP_reg7]
   12804              
   12805              $C$DW$1256      .dwtag  DW_TAG_TI_assign_register
   12806                      .dwattr $C$DW$1256, DW_AT_name("AR2")
   12807                      .dwattr $C$DW$1256, DW_AT_location[DW_OP_reg8]
   12808              
   12809              $C$DW$1257      .dwtag  DW_TAG_TI_assign_register
   12810                      .dwattr $C$DW$1257, DW_AT_name("XAR2")
   12811                      .dwattr $C$DW$1257, DW_AT_location[DW_OP_reg9]
   12812              
   12813              $C$DW$1258      .dwtag  DW_TAG_TI_assign_register
   12814                      .dwattr $C$DW$1258, DW_AT_name("AR3")
   12815                      .dwattr $C$DW$1258, DW_AT_location[DW_OP_reg10]
   12816              
   12817              $C$DW$1259      .dwtag  DW_TAG_TI_assign_register
   12818                      .dwattr $C$DW$1259, DW_AT_name("XAR3")
   12819                      .dwattr $C$DW$1259, DW_AT_location[DW_OP_reg11]
   12820              
   12821              $C$DW$1260      .dwtag  DW_TAG_TI_assign_register
   12822                      .dwattr $C$DW$1260, DW_AT_name("AR4")
   12823                      .dwattr $C$DW$1260, DW_AT_location[DW_OP_reg12]
   12824              
   12825              $C$DW$1261      .dwtag  DW_TAG_TI_assign_register
   12826                      .dwattr $C$DW$1261, DW_AT_name("XAR4")
   12827                      .dwattr $C$DW$1261, DW_AT_location[DW_OP_reg13]
   12828              
   12829              $C$DW$1262      .dwtag  DW_TAG_TI_assign_register
   12830                      .dwattr $C$DW$1262, DW_AT_name("AR5")
   12831                      .dwattr $C$DW$1262, DW_AT_location[DW_OP_reg14]
   12832              
   12833              $C$DW$1263      .dwtag  DW_TAG_TI_assign_register
   12834                      .dwattr $C$DW$1263, DW_AT_name("XAR5")
   12835                      .dwattr $C$DW$1263, DW_AT_location[DW_OP_reg15]
   12836              
   12837              $C$DW$1264      .dwtag  DW_TAG_TI_assign_register
   12838                      .dwattr $C$DW$1264, DW_AT_name("AR6")
   12839                      .dwattr $C$DW$1264, DW_AT_location[DW_OP_reg16]
   12840              
   12841              $C$DW$1265      .dwtag  DW_TAG_TI_assign_register
   12842                      .dwattr $C$DW$1265, DW_AT_name("XAR6")
   12843                      .dwattr $C$DW$1265, DW_AT_location[DW_OP_reg17]
   12844              
   12845              $C$DW$1266      .dwtag  DW_TAG_TI_assign_register
   12846                      .dwattr $C$DW$1266, DW_AT_name("AR7")
TMS320C2000 Assembler PC v15.12.3 Wed Nov 22 00:56:17 2017

Tools Copyright (c) 1996-2015 Texas Instruments Incorporated
C:\Users\wmj\AppData\Local\Temp\0070810                              PAGE  241

   12847                      .dwattr $C$DW$1266, DW_AT_location[DW_OP_reg18]
   12848              
   12849              $C$DW$1267      .dwtag  DW_TAG_TI_assign_register
   12850                      .dwattr $C$DW$1267, DW_AT_name("XAR7")
   12851                      .dwattr $C$DW$1267, DW_AT_location[DW_OP_reg19]
   12852              
   12853                      .dwendtag $C$DW$CU
   12854              

No Assembly Errors, No Assembly Warnings
