TMS320C2000 Assembler PC v6.2.5 Wed Nov 22 14:48:16 2017

Tools Copyright (c) 1996-2014 Texas Instruments Incorporated
C:\Users\wmj\AppData\Local\Temp\1257612                              PAGE    1

       1              ;***************************************************************
       2              ;* TMS320C2000 C/C++ Codegen                         PC v6.2.5 *
       3              ;* Date/Time created: Wed Nov 22 14:48:15 2017                 *
       4              ;***************************************************************
       5                      .compiler_opts --float_support=softlib --hll_source=on --mem_model:code=flat --mem_model:data=large -
       6        0002  FP      .set    XAR2
       7              
       8              $C$DW$CU        .dwtag  DW_TAG_compile_unit
       9                      .dwattr $C$DW$CU, DW_AT_name("D:/BM1000_v1.1/sw/drivers/drvic/fsm.c")
      10                      .dwattr $C$DW$CU, DW_AT_producer("TMS320C2000 C/C++ Codegen PC v6.2.5 Copyright (c) 1996-2014 Texas I
      11                      .dwattr $C$DW$CU, DW_AT_TI_version(0x01)
      12                      .dwattr $C$DW$CU, DW_AT_comp_dir("D:\BM1000_v1.1\sw\solutions\instaspin_foc\boards\hvkit_rev1p1\f28x\
      13              
      14              $C$DW$1 .dwtag  DW_TAG_subprogram, DW_AT_name("usDelay")
      15                      .dwattr $C$DW$1, DW_AT_TI_symbol_name("_usDelay")
      16                      .dwattr $C$DW$1, DW_AT_declaration
      17                      .dwattr $C$DW$1, DW_AT_external
      18              $C$DW$2 .dwtag  DW_TAG_formal_parameter
      19                      .dwattr $C$DW$2, DW_AT_type(*$C$DW$T$212)
      20                      .dwendtag $C$DW$1
      21              
      22              
      23              $C$DW$3 .dwtag  DW_TAG_subprogram, DW_AT_name("GPIO_setLow")
      24                      .dwattr $C$DW$3, DW_AT_TI_symbol_name("_GPIO_setLow")
      25                      .dwattr $C$DW$3, DW_AT_declaration
      26                      .dwattr $C$DW$3, DW_AT_external
      27              $C$DW$4 .dwtag  DW_TAG_formal_parameter
      28                      .dwattr $C$DW$4, DW_AT_type(*$C$DW$T$89)
      29              $C$DW$5 .dwtag  DW_TAG_formal_parameter
      30                      .dwattr $C$DW$5, DW_AT_type(*$C$DW$T$166)
      31                      .dwendtag $C$DW$3
      32              
      33              
      34              $C$DW$6 .dwtag  DW_TAG_subprogram, DW_AT_name("GPIO_setHigh")
      35                      .dwattr $C$DW$6, DW_AT_TI_symbol_name("_GPIO_setHigh")
      36                      .dwattr $C$DW$6, DW_AT_declaration
      37                      .dwattr $C$DW$6, DW_AT_external
      38              $C$DW$7 .dwtag  DW_TAG_formal_parameter
      39                      .dwattr $C$DW$7, DW_AT_type(*$C$DW$T$89)
      40              $C$DW$8 .dwtag  DW_TAG_formal_parameter
      41                      .dwattr $C$DW$8, DW_AT_type(*$C$DW$T$166)
      42                      .dwendtag $C$DW$6
      43              
      44              
      45              $C$DW$9 .dwtag  DW_TAG_subprogram, DW_AT_name("GPIO_read")
      46                      .dwattr $C$DW$9, DW_AT_TI_symbol_name("_GPIO_read")
      47                      .dwattr $C$DW$9, DW_AT_type(*$C$DW$T$59)
      48                      .dwattr $C$DW$9, DW_AT_declaration
      49                      .dwattr $C$DW$9, DW_AT_external
      50              $C$DW$10        .dwtag  DW_TAG_formal_parameter
      51                      .dwattr $C$DW$10, DW_AT_type(*$C$DW$T$89)
      52              $C$DW$11        .dwtag  DW_TAG_formal_parameter
      53                      .dwattr $C$DW$11, DW_AT_type(*$C$DW$T$166)
      54                      .dwendtag $C$DW$9
      55              
TMS320C2000 Assembler PC v6.2.5 Wed Nov 22 14:48:16 2017

Tools Copyright (c) 1996-2014 Texas Instruments Incorporated
C:\Users\wmj\AppData\Local\Temp\1257612                              PAGE    2

      56              
      57              $C$DW$12        .dwtag  DW_TAG_subprogram, DW_AT_name("labs")
      58                      .dwattr $C$DW$12, DW_AT_TI_symbol_name("_labs")
      59                      .dwattr $C$DW$12, DW_AT_type(*$C$DW$T$12)
      60                      .dwattr $C$DW$12, DW_AT_declaration
      61                      .dwattr $C$DW$12, DW_AT_external
      62              $C$DW$13        .dwtag  DW_TAG_formal_parameter
      63                      .dwattr $C$DW$13, DW_AT_type(*$C$DW$T$12)
      64                      .dwendtag $C$DW$12
      65              
      66              
      67              $C$DW$14        .dwtag  DW_TAG_subprogram, DW_AT_name("__IQmpy")
      68                      .dwattr $C$DW$14, DW_AT_TI_symbol_name("___IQmpy")
      69                      .dwattr $C$DW$14, DW_AT_type(*$C$DW$T$12)
      70                      .dwattr $C$DW$14, DW_AT_declaration
      71                      .dwattr $C$DW$14, DW_AT_external
      72              $C$DW$15        .dwtag  DW_TAG_formal_parameter
      73                      .dwattr $C$DW$15, DW_AT_type(*$C$DW$T$12)
      74              $C$DW$16        .dwtag  DW_TAG_formal_parameter
      75                      .dwattr $C$DW$16, DW_AT_type(*$C$DW$T$12)
      76              $C$DW$17        .dwtag  DW_TAG_formal_parameter
      77                      .dwattr $C$DW$17, DW_AT_type(*$C$DW$T$10)
      78                      .dwendtag $C$DW$14
      79              
      80                      .global _FSM_StallMode
      81 00000000               .sect   ".econst:.string:_FSM_StallMode"
      82                      .clink
      83                      .align  1
      84 00000000       _FSM_StallMode:
      85 00000000 0001          .bits   1,16                    ; _FSM_StallMode[0] @ 0
      86 00000001 0001          .bits   1,16                    ; _FSM_StallMode[1] @ 16
      87 00000002 0000          .bits   0,16                    ; _FSM_StallMode[2] @ 32
      88 00000003 0000          .bits   0,16                    ; _FSM_StallMode[3] @ 48
      89 00000004 0001          .bits   1,16                    ; _FSM_StallMode[4] @ 64
      90 00000005 0000          .bits   0,16                    ; _FSM_StallMode[5] @ 80
      91 00000006 0000          .bits   0,16                    ; _FSM_StallMode[6] @ 96
      92 00000007 0000          .bits   0,16                    ; _FSM_StallMode[7] @ 112
      93              
      94              $C$DW$18        .dwtag  DW_TAG_variable, DW_AT_name("FSM_StallMode")
      95                      .dwattr $C$DW$18, DW_AT_TI_symbol_name("_FSM_StallMode")
      96                      .dwattr $C$DW$18, DW_AT_location[DW_OP_addr _FSM_StallMode]
      97                      .dwattr $C$DW$18, DW_AT_type(*$C$DW$T$238)
      98                      .dwattr $C$DW$18, DW_AT_external
      99                      .global _FSM_EventTab
     100 00000000               .sect   ".econst:_FSM_EventTab"
     101                      .clink
     102                      .align  1
     103 00000000       _FSM_EventTab:
     104 00000000 0001          .bits   1,16                    ; _FSM_EventTab[0] @ 0
     105 00000001 0002          .bits   2,16                    ; _FSM_EventTab[1] @ 16
     106 00000002 0003          .bits   3,16                    ; _FSM_EventTab[2] @ 32
     107 00000003 0004          .bits   4,16                    ; _FSM_EventTab[3] @ 48
     108 00000004 0005          .bits   5,16                    ; _FSM_EventTab[4] @ 64
     109 00000005 0006          .bits   6,16                    ; _FSM_EventTab[5] @ 80
     110 00000006 0006          .bits   6,16                    ; _FSM_EventTab[6] @ 96
TMS320C2000 Assembler PC v6.2.5 Wed Nov 22 14:48:16 2017

Tools Copyright (c) 1996-2014 Texas Instruments Incorporated
C:\Users\wmj\AppData\Local\Temp\1257612                              PAGE    3

     111 00000007 0007          .bits   7,16                    ; _FSM_EventTab[7] @ 112
     112 00000008 0007          .bits   7,16                    ; _FSM_EventTab[8] @ 128
     113 00000009 0008          .bits   8,16                    ; _FSM_EventTab[9] @ 144
     114 0000000a 0009          .bits   9,16                    ; _FSM_EventTab[10] @ 160
     115              
     116              $C$DW$19        .dwtag  DW_TAG_variable, DW_AT_name("FSM_EventTab")
     117                      .dwattr $C$DW$19, DW_AT_TI_symbol_name("_FSM_EventTab")
     118                      .dwattr $C$DW$19, DW_AT_location[DW_OP_addr _FSM_EventTab]
     119                      .dwattr $C$DW$19, DW_AT_type(*$C$DW$T$161)
     120                      .dwattr $C$DW$19, DW_AT_external
     121                      .global _FSM_MaxTorque
     122 00000000               .sect   ".econst:_FSM_MaxTorque"
     123                      .clink
     124                      .align  2
     125 00000000       _FSM_MaxTorque:
     126 00000000 0000          .xfloat $strtod("0x1.8p+0")             ; _FSM_MaxTorque[0] @ 0
         00000001 3FC0 
     127 00000002 0000          .xfloat $strtod("0x1.8p+0")             ; _FSM_MaxTorque[1] @ 32
         00000003 3FC0 
     128 00000004 0000          .xfloat $strtod("0x1.8p+0")             ; _FSM_MaxTorque[2] @ 64
         00000005 3FC0 
     129 00000006 0000          .xfloat $strtod("0x1.8p+0")             ; _FSM_MaxTorque[3] @ 96
         00000007 3FC0 
     130 00000008 0000          .xfloat $strtod("0x1.4p+1")             ; _FSM_MaxTorque[4] @ 128
         00000009 4020 
     131 0000000a 0000          .xfloat $strtod("0x1.8p+0")             ; _FSM_MaxTorque[5] @ 160
         0000000b 3FC0 
     132 0000000c 0000          .xfloat $strtod("0x1.8p+0")             ; _FSM_MaxTorque[6] @ 192
         0000000d 3FC0 
     133 0000000e 0000          .xfloat $strtod("0x1.4p+1")             ; _FSM_MaxTorque[7] @ 224
         0000000f 4020 
     134              
     135              $C$DW$20        .dwtag  DW_TAG_variable, DW_AT_name("FSM_MaxTorque")
     136                      .dwattr $C$DW$20, DW_AT_TI_symbol_name("_FSM_MaxTorque")
     137                      .dwattr $C$DW$20, DW_AT_location[DW_OP_addr _FSM_MaxTorque]
     138                      .dwattr $C$DW$20, DW_AT_type(*$C$DW$T$256)
     139                      .dwattr $C$DW$20, DW_AT_external
     140                      .global _FSM_CondFunc
     141 00000000               .sect   ".econst:_FSM_CondFunc"
     142                      .clink
     143                      .align  2
     144 00000000       _FSM_CondFunc:
     145 00000000 035F'         .bits   _FSM_CheckTimes,32              ; _FSM_CondFunc[0] @ 0
         00000001 0000 
     146 00000002 0413'         .bits   _FSM_CheckSpeed,32              ; _FSM_CondFunc[1] @ 32
         00000003 0000 
     147 00000004 040A'         .bits   _FSM_Check485Start,32           ; _FSM_CondFunc[2] @ 64
         00000005 0000 
     148 00000006 03F8'         .bits   _FSM_CheckKeySensor1,32         ; _FSM_CondFunc[3] @ 96
         00000007 0000 
     149 00000008 03E6'         .bits   _FSM_CheckKeySensor2,32         ; _FSM_CondFunc[4] @ 128
         00000009 0000 
     150 0000000a 03C5'         .bits   _FSM_CheckAnalogSensor1,32              ; _FSM_CondFunc[5] @ 160
         0000000b 0000 
     151 0000000c 03A4'         .bits   _FSM_CheckAnalogSensor2,32              ; _FSM_CondFunc[6] @ 192
TMS320C2000 Assembler PC v6.2.5 Wed Nov 22 14:48:16 2017

Tools Copyright (c) 1996-2014 Texas Instruments Incorporated
C:\Users\wmj\AppData\Local\Temp\1257612                              PAGE    4

         0000000d 0000 
     152 0000000e 0392'         .bits   _FSM_CheckContactSensor1,32             ; _FSM_CondFunc[7] @ 224
         0000000f 0000 
     153 00000010 0380'         .bits   _FSM_CheckContactSensor2,32             ; _FSM_CondFunc[8] @ 256
         00000011 0000 
     154 00000012 0376'         .bits   _FSM_CheckZeroSpeed,32          ; _FSM_CondFunc[9] @ 288
         00000013 0000 
     155 00000014 036C'         .bits   _FSM_CheckMoveStatus,32         ; _FSM_CondFunc[10] @ 320
         00000015 0000 
     156              
     157              $C$DW$21        .dwtag  DW_TAG_variable, DW_AT_name("FSM_CondFunc")
     158                      .dwattr $C$DW$21, DW_AT_TI_symbol_name("_FSM_CondFunc")
     159                      .dwattr $C$DW$21, DW_AT_location[DW_OP_addr _FSM_CondFunc]
     160                      .dwattr $C$DW$21, DW_AT_type(*$C$DW$T$228)
     161                      .dwattr $C$DW$21, DW_AT_external
     162                      .global _FSM_ActionFunc
     163 00000000               .sect   ".econst:_FSM_ActionFunc"
     164                      .clink
     165                      .align  2
     166 00000000       _FSM_ActionFunc:
     167 00000000 02A8'         .bits   _FSM_Run_IDLE,32                ; _FSM_ActionFunc[0] @ 0
         00000001 0000 
     168 00000002 0287'         .bits   _FSM_SetVelocity,32             ; _FSM_ActionFunc[1] @ 32
         00000003 0000 
     169 00000004 0287'         .bits   _FSM_SetVelocity,32             ; _FSM_ActionFunc[2] @ 64
         00000005 0000 
     170 00000006 0287'         .bits   _FSM_SetVelocity,32             ; _FSM_ActionFunc[3] @ 96
         00000007 0000 
     171 00000008 0287'         .bits   _FSM_SetVelocity,32             ; _FSM_ActionFunc[4] @ 128
         00000009 0000 
     172 0000000a 0287'         .bits   _FSM_SetVelocity,32             ; _FSM_ActionFunc[5] @ 160
         0000000b 0000 
     173 0000000c 0287'         .bits   _FSM_SetVelocity,32             ; _FSM_ActionFunc[6] @ 192
         0000000d 0000 
     174 0000000e 0287'         .bits   _FSM_SetVelocity,32             ; _FSM_ActionFunc[7] @ 224
         0000000f 0000 
     175 00000010 0287'         .bits   _FSM_SetVelocity,32             ; _FSM_ActionFunc[8] @ 256
         00000011 0000 
     176 00000012 02A2'         .bits   _FSM_Run_ReleaseDcBrake,32              ; _FSM_ActionFunc[9] @ 288
         00000013 0000 
     177 00000014 029A'         .bits   _FSM_Run_STOP,32                ; _FSM_ActionFunc[10] @ 320
         00000015 0000 
     178              
     179              $C$DW$22        .dwtag  DW_TAG_variable, DW_AT_name("FSM_ActionFunc")
     180                      .dwattr $C$DW$22, DW_AT_TI_symbol_name("_FSM_ActionFunc")
     181                      .dwattr $C$DW$22, DW_AT_location[DW_OP_addr _FSM_ActionFunc]
     182                      .dwattr $C$DW$22, DW_AT_type(*$C$DW$T$228)
     183                      .dwattr $C$DW$22, DW_AT_external
     184                      .global _JM_FSM_MotorFunc
     185 00000000               .sect   ".econst:_JM_FSM_MotorFunc"
     186                      .clink
     187                      .align  2
     188 00000000       _JM_FSM_MotorFunc:
     189 00000000 0000          .xfloat $strtod("0x0p+0")               ; _JM_FSM_MotorFunc[0]._FSM_RefSpeed @ 0
         00000001 0000 
TMS320C2000 Assembler PC v6.2.5 Wed Nov 22 14:48:16 2017

Tools Copyright (c) 1996-2014 Texas Instruments Incorporated
C:\Users\wmj\AppData\Local\Temp\1257612                              PAGE    5

     190 00000002 0BB8          .bits   3000,16                 ; _JM_FSM_MotorFunc[0]._FSM_CondValue @ 32
     191 00000003 0000          .bits   0,16                    ; _JM_FSM_MotorFunc[0]._FSM_Condition @ 48
     192 00000004 0007          .bits   7,16                    ; _JM_FSM_MotorFunc[0]._FSM_RunAction @ 64
     193 00000005 000E          .bits   14,16                   ; _JM_FSM_MotorFunc[0]._FSM_NextState @ 80
     194 00000006 0000          .xfloat $strtod("0x1.8p+0")             ; _JM_FSM_MotorFunc[1]._FSM_RefSpeed @ 96
         00000007 3FC0 
     195 00000008 0032          .bits   50,16                   ; _JM_FSM_MotorFunc[1]._FSM_CondValue @ 128
     196 00000009 0000          .bits   0,16                    ; _JM_FSM_MotorFunc[1]._FSM_Condition @ 144
     197 0000000a 0007          .bits   7,16                    ; _JM_FSM_MotorFunc[1]._FSM_RunAction @ 160
     198 0000000b 0002          .bits   2,16                    ; _JM_FSM_MotorFunc[1]._FSM_NextState @ 176
     199 0000000c CCCD          .xfloat $strtod("-0x1.99999ap-3")               ; _JM_FSM_MotorFunc[2]._FSM_RefSpeed @ 192
         0000000d BE4C 
     200 0000000e 0064          .bits   100,16                  ; _JM_FSM_MotorFunc[2]._FSM_CondValue @ 224
     201 0000000f 0000          .bits   0,16                    ; _JM_FSM_MotorFunc[2]._FSM_Condition @ 240
     202 00000010 0007          .bits   7,16                    ; _JM_FSM_MotorFunc[2]._FSM_RunAction @ 256
     203 00000011 000E          .bits   14,16                   ; _JM_FSM_MotorFunc[2]._FSM_NextState @ 272
     204 00000012 999A          .xfloat $strtod("-0x1.b33334p+0")               ; _JM_FSM_MotorFunc[3]._FSM_RefSpeed @ 288
         00000013 BFD9 
     205 00000014 00C8          .bits   200,16                  ; _JM_FSM_MotorFunc[3]._FSM_CondValue @ 320
     206 00000015 0000          .bits   0,16                    ; _JM_FSM_MotorFunc[3]._FSM_Condition @ 336
     207 00000016 0007          .bits   7,16                    ; _JM_FSM_MotorFunc[3]._FSM_RunAction @ 352
     208 00000017 000E          .bits   14,16                   ; _JM_FSM_MotorFunc[3]._FSM_NextState @ 368
     209 00000018 0000          .xfloat $strtod("0x1p-1")               ; _JM_FSM_MotorFunc[4]._FSM_RefSpeed @ 384
         00000019 3F00 
     210 0000001a 000A          .bits   10,16                   ; _JM_FSM_MotorFunc[4]._FSM_CondValue @ 416
     211 0000001b 0000          .bits   0,16                    ; _JM_FSM_MotorFunc[4]._FSM_Condition @ 432
     212 0000001c 0007          .bits   7,16                    ; _JM_FSM_MotorFunc[4]._FSM_RunAction @ 448
     213 0000001d 0007          .bits   7,16                    ; _JM_FSM_MotorFunc[4]._FSM_NextState @ 464
     214 0000001e 0000          .xfloat $strtod("-0x1.8p+0")            ; _JM_FSM_MotorFunc[5]._FSM_RefSpeed @ 480
         0000001f BFC0 
     215 00000020 012C          .bits   300,16                  ; _JM_FSM_MotorFunc[5]._FSM_CondValue @ 512
     216 00000021 0000          .bits   0,16                    ; _JM_FSM_MotorFunc[5]._FSM_Condition @ 528
     217 00000022 0007          .bits   7,16                    ; _JM_FSM_MotorFunc[5]._FSM_RunAction @ 544
     218 00000023 000E          .bits   14,16                   ; _JM_FSM_MotorFunc[5]._FSM_NextState @ 560
     219 00000024 CCCD          .xfloat $strtod("-0x1.99999ap-3")               ; _JM_FSM_MotorFunc[6]._FSM_RefSpeed @ 576
         00000025 BE4C 
     220 00000026 001E          .bits   30,16                   ; _JM_FSM_MotorFunc[6]._FSM_CondValue @ 608
     221 00000027 0000          .bits   0,16                    ; _JM_FSM_MotorFunc[6]._FSM_Condition @ 624
     222 00000028 0007          .bits   7,16                    ; _JM_FSM_MotorFunc[6]._FSM_RunAction @ 640
     223 00000029 0002          .bits   2,16                    ; _JM_FSM_MotorFunc[6]._FSM_NextState @ 656
     224 0000002a 0000          .xfloat $strtod("0x1p+0")               ; _JM_FSM_MotorFunc[7]._FSM_RefSpeed @ 672
         0000002b 3F80 
     225 0000002c 000A          .bits   10,16                   ; _JM_FSM_MotorFunc[7]._FSM_CondValue @ 704
     226 0000002d 0000          .bits   0,16                    ; _JM_FSM_MotorFunc[7]._FSM_Condition @ 720
     227 0000002e 0003          .bits   3,16                    ; _JM_FSM_MotorFunc[7]._FSM_RunAction @ 736
     228 0000002f 000E          .bits   14,16                   ; _JM_FSM_MotorFunc[7]._FSM_NextState @ 752
     229              
     230              $C$DW$23        .dwtag  DW_TAG_variable, DW_AT_name("JM_FSM_MotorFunc")
     231                      .dwattr $C$DW$23, DW_AT_TI_symbol_name("_JM_FSM_MotorFunc")
     232                      .dwattr $C$DW$23, DW_AT_location[DW_OP_addr _JM_FSM_MotorFunc]
     233                      .dwattr $C$DW$23, DW_AT_type(*$C$DW$T$182)
     234                      .dwattr $C$DW$23, DW_AT_external
     235                      .global _FSM_State_Box
     236 00000000       _FSM_State_Box: .usect  "vib_buf_data",75,1,0
     237              $C$DW$24        .dwtag  DW_TAG_variable, DW_AT_name("FSM_State_Box")
TMS320C2000 Assembler PC v6.2.5 Wed Nov 22 14:48:16 2017

Tools Copyright (c) 1996-2014 Texas Instruments Incorporated
C:\Users\wmj\AppData\Local\Temp\1257612                              PAGE    6

     238                      .dwattr $C$DW$24, DW_AT_TI_symbol_name("_FSM_State_Box")
     239                      .dwattr $C$DW$24, DW_AT_location[DW_OP_addr _FSM_State_Box]
     240                      .dwattr $C$DW$24, DW_AT_type(*$C$DW$T$176)
     241                      .dwattr $C$DW$24, DW_AT_external
     242                      .global _JM_FSM_Vars
     243 00000000               .sect   ".econst:_JM_FSM_Vars"
     244                      .clink
     245                      .align  2
     246 00000000       _JM_FSM_Vars:
     247 00000000 0000          .xfloat $strtod("0x0p+0")               ; _JM_FSM_Vars[0]._FSM_RefSpeed @ 0
         00000001 0000 
     248 00000002 0000          .bits   0,16                    ; _JM_FSM_Vars[0]._FSM_CondValue @ 32
     249 00000003 0002          .bits   2,16                    ; _JM_FSM_Vars[0]._FSM_Condition @ 48
     250 00000004 0000          .bits   0,16                    ; _JM_FSM_Vars[0]._FSM_RunAction @ 64
     251 00000005 0001          .bits   1,16                    ; _JM_FSM_Vars[0]._FSM_NextState @ 80
     252 00000006 0000          .xfloat $strtod("0x0p+0")               ; _JM_FSM_Vars[1]._FSM_RefSpeed @ 96
         00000007 0000 
     253 00000008 0BB8          .bits   3000,16                 ; _JM_FSM_Vars[1]._FSM_CondValue @ 128
     254 00000009 0000          .bits   0,16                    ; _JM_FSM_Vars[1]._FSM_Condition @ 144
     255 0000000a 0007          .bits   7,16                    ; _JM_FSM_Vars[1]._FSM_RunAction @ 160
     256 0000000b 000E          .bits   14,16                   ; _JM_FSM_Vars[1]._FSM_NextState @ 176
     257 0000000c 0000          .xfloat $strtod("0x1.8p+0")             ; _JM_FSM_Vars[2]._FSM_RefSpeed @ 192
         0000000d 3FC0 
     258 0000000e 0190          .bits   400,16                  ; _JM_FSM_Vars[2]._FSM_CondValue @ 224
     259 0000000f 0000          .bits   0,16                    ; _JM_FSM_Vars[2]._FSM_Condition @ 240
     260 00000010 0007          .bits   7,16                    ; _JM_FSM_Vars[2]._FSM_RunAction @ 256
     261 00000011 0003          .bits   3,16                    ; _JM_FSM_Vars[2]._FSM_NextState @ 272
     262 00000012 0000          .xfloat $strtod("0x0p+0")               ; _JM_FSM_Vars[3]._FSM_RefSpeed @ 288
         00000013 0000 
     263 00000014 0032          .bits   50,16                   ; _JM_FSM_Vars[3]._FSM_CondValue @ 320
     264 00000015 0000          .bits   0,16                    ; _JM_FSM_Vars[3]._FSM_Condition @ 336
     265 00000016 0007          .bits   7,16                    ; _JM_FSM_Vars[3]._FSM_RunAction @ 352
     266 00000017 0004          .bits   4,16                    ; _JM_FSM_Vars[3]._FSM_NextState @ 368
     267 00000018 0000          .xfloat $strtod("-0x1p+0")              ; _JM_FSM_Vars[4]._FSM_RefSpeed @ 384
         00000019 BF80 
     268 0000001a 0064          .bits   100,16                  ; _JM_FSM_Vars[4]._FSM_CondValue @ 416
     269 0000001b 0001          .bits   1,16                    ; _JM_FSM_Vars[4]._FSM_Condition @ 432
     270 0000001c 0007          .bits   7,16                    ; _JM_FSM_Vars[4]._FSM_RunAction @ 448
     271 0000001d 0006          .bits   6,16                    ; _JM_FSM_Vars[4]._FSM_NextState @ 464
     272 0000001e 0000          .xfloat $strtod("0x0p+0")               ; _JM_FSM_Vars[5]._FSM_RefSpeed @ 480
         0000001f 0000 
     273 00000020 00C8          .bits   200,16                  ; _JM_FSM_Vars[5]._FSM_CondValue @ 512
     274 00000021 0000          .bits   0,16                    ; _JM_FSM_Vars[5]._FSM_Condition @ 528
     275 00000022 0007          .bits   7,16                    ; _JM_FSM_Vars[5]._FSM_RunAction @ 544
     276 00000023 000E          .bits   14,16                   ; _JM_FSM_Vars[5]._FSM_NextState @ 560
     277 00000024 0000          .xfloat $strtod("0x0p+0")               ; _JM_FSM_Vars[6]._FSM_RefSpeed @ 576
         00000025 0000 
     278 00000026 00FA          .bits   250,16                  ; _JM_FSM_Vars[6]._FSM_CondValue @ 608
     279 00000027 0000          .bits   0,16                    ; _JM_FSM_Vars[6]._FSM_Condition @ 624
     280 00000028 0009          .bits   9,16                    ; _JM_FSM_Vars[6]._FSM_RunAction @ 640
     281 00000029 000E          .bits   14,16                   ; _JM_FSM_Vars[6]._FSM_NextState @ 656
     282 0000002a 0000          .xfloat $strtod("0x1.8p+0")             ; _JM_FSM_Vars[7]._FSM_RefSpeed @ 672
         0000002b 3FC0 
     283 0000002c 0384          .bits   900,16                  ; _JM_FSM_Vars[7]._FSM_CondValue @ 704
     284 0000002d 0000          .bits   0,16                    ; _JM_FSM_Vars[7]._FSM_Condition @ 720
TMS320C2000 Assembler PC v6.2.5 Wed Nov 22 14:48:16 2017

Tools Copyright (c) 1996-2014 Texas Instruments Incorporated
C:\Users\wmj\AppData\Local\Temp\1257612                              PAGE    7

     285 0000002e 0007          .bits   7,16                    ; _JM_FSM_Vars[7]._FSM_RunAction @ 736
     286 0000002f 000E          .bits   14,16                   ; _JM_FSM_Vars[7]._FSM_NextState @ 752
     287 00000030 0000          .xfloat $strtod("-0x1p+1")              ; _JM_FSM_Vars[8]._FSM_RefSpeed @ 768
         00000031 C000 
     288 00000032 0032          .bits   50,16                   ; _JM_FSM_Vars[8]._FSM_CondValue @ 800
     289 00000033 0000          .bits   0,16                    ; _JM_FSM_Vars[8]._FSM_Condition @ 816
     290 00000034 0007          .bits   7,16                    ; _JM_FSM_Vars[8]._FSM_RunAction @ 832
     291 00000035 000E          .bits   14,16                   ; _JM_FSM_Vars[8]._FSM_NextState @ 848
     292 00000036 0000          .xfloat $strtod("-0x1p+1")              ; _JM_FSM_Vars[9]._FSM_RefSpeed @ 864
         00000037 C000 
     293 00000038 0384          .bits   900,16                  ; _JM_FSM_Vars[9]._FSM_CondValue @ 896
     294 00000039 0000          .bits   0,16                    ; _JM_FSM_Vars[9]._FSM_Condition @ 912
     295 0000003a 0007          .bits   7,16                    ; _JM_FSM_Vars[9]._FSM_RunAction @ 928
     296 0000003b 000E          .bits   14,16                   ; _JM_FSM_Vars[9]._FSM_NextState @ 944
     297 0000003c 8F5C          .xfloat $strtod("-0x1.a51eb8p+0")               ; _JM_FSM_Vars[10]._FSM_RefSpeed @ 960
         0000003d BFD2 
     298 0000003e 0000          .bits   0,16                    ; _JM_FSM_Vars[10]._FSM_CondValue @ 992
     299 0000003f 0001          .bits   1,16                    ; _JM_FSM_Vars[10]._FSM_Condition @ 1008
     300 00000040 0007          .bits   7,16                    ; _JM_FSM_Vars[10]._FSM_RunAction @ 1024
     301 00000041 000E          .bits   14,16                   ; _JM_FSM_Vars[10]._FSM_NextState @ 1040
     302 00000042 8F5C          .xfloat $strtod("0x1.a51eb8p+0")                ; _JM_FSM_Vars[11]._FSM_RefSpeed @ 1056
         00000043 3FD2 
     303 00000044 001E          .bits   30,16                   ; _JM_FSM_Vars[11]._FSM_CondValue @ 1088
     304 00000045 0000          .bits   0,16                    ; _JM_FSM_Vars[11]._FSM_Condition @ 1104
     305 00000046 0007          .bits   7,16                    ; _JM_FSM_Vars[11]._FSM_RunAction @ 1120
     306 00000047 000E          .bits   14,16                   ; _JM_FSM_Vars[11]._FSM_NextState @ 1136
     307 00000048 0000          .xfloat $strtod("0x1p-1")               ; _JM_FSM_Vars[12]._FSM_RefSpeed @ 1152
         00000049 3F00 
     308 0000004a 07D0          .bits   2000,16                 ; _JM_FSM_Vars[12]._FSM_CondValue @ 1184
     309 0000004b 0005          .bits   5,16                    ; _JM_FSM_Vars[12]._FSM_Condition @ 1200
     310 0000004c 0007          .bits   7,16                    ; _JM_FSM_Vars[12]._FSM_RunAction @ 1216
     311 0000004d 000E          .bits   14,16                   ; _JM_FSM_Vars[12]._FSM_NextState @ 1232
     312 0000004e 0000          .xfloat $strtod("0x0p+0")               ; _JM_FSM_Vars[13]._FSM_RefSpeed @ 1248
         0000004f 0000 
     313 00000050 012C          .bits   300,16                  ; _JM_FSM_Vars[13]._FSM_CondValue @ 1280
     314 00000051 0009          .bits   9,16                    ; _JM_FSM_Vars[13]._FSM_Condition @ 1296
     315 00000052 0006          .bits   6,16                    ; _JM_FSM_Vars[13]._FSM_RunAction @ 1312
     316 00000053 000E          .bits   14,16                   ; _JM_FSM_Vars[13]._FSM_NextState @ 1328
     317 00000054 0000          .xfloat $strtod("0x0p+0")               ; _JM_FSM_Vars[14]._FSM_RefSpeed @ 1344
         00000055 0000 
     318 00000056 0001          .bits   1,16                    ; _JM_FSM_Vars[14]._FSM_CondValue @ 1376
     319 00000057 0000          .bits   0,16                    ; _JM_FSM_Vars[14]._FSM_Condition @ 1392
     320 00000058 000A          .bits   10,16                   ; _JM_FSM_Vars[14]._FSM_RunAction @ 1408
     321 00000059 0000          .bits   0,16                    ; _JM_FSM_Vars[14]._FSM_NextState @ 1424
     322              
     323              $C$DW$25        .dwtag  DW_TAG_variable, DW_AT_name("JM_FSM_Vars")
     324                      .dwattr $C$DW$25, DW_AT_TI_symbol_name("_JM_FSM_Vars")
     325                      .dwattr $C$DW$25, DW_AT_location[DW_OP_addr _JM_FSM_Vars]
     326                      .dwattr $C$DW$25, DW_AT_type(*$C$DW$T$181)
     327                      .dwattr $C$DW$25, DW_AT_external
     328              ;       C:\ti\ccsv6\tools\compiler\c2000_6.2.5\bin\opt2000.exe C:\\Users\\wmj\\AppData\\Local\\Temp\\125764 C
     329              ;       C:\ti\ccsv6\tools\compiler\c2000_6.2.5\bin\ac2000.exe -@C:\\Users\\wmj\\AppData\\Local\\Temp\\1257618
     330 00000000               .sect   ".text"
     331                      .clink
     332                      .global _FSM_setMotorHandle
TMS320C2000 Assembler PC v6.2.5 Wed Nov 22 14:48:16 2017

Tools Copyright (c) 1996-2014 Texas Instruments Incorporated
C:\Users\wmj\AppData\Local\Temp\1257612                              PAGE    8

     333              
     334              $C$DW$26        .dwtag  DW_TAG_subprogram, DW_AT_name("FSM_setMotorHandle")
     335                      .dwattr $C$DW$26, DW_AT_low_pc(_FSM_setMotorHandle)
     336                      .dwattr $C$DW$26, DW_AT_high_pc(0x00)
     337                      .dwattr $C$DW$26, DW_AT_TI_symbol_name("_FSM_setMotorHandle")
     338                      .dwattr $C$DW$26, DW_AT_external
     339                      .dwattr $C$DW$26, DW_AT_TI_begin_file("D:/BM1000_v1.1/sw/drivers/drvic/fsm.c")
     340                      .dwattr $C$DW$26, DW_AT_TI_begin_line(0xfa)
     341                      .dwattr $C$DW$26, DW_AT_TI_begin_column(0x06)
     342                      .dwattr $C$DW$26, DW_AT_TI_max_frame_size(-2)
     343                      .dwpsn  file "D:/BM1000_v1.1/sw/drivers/drvic/fsm.c",line 251,column 1,is_stmt,address _FSM_setMotorH
     344              
     345                      .dwfde $C$DW$CIE, _FSM_setMotorHandle
     346              $C$DW$27        .dwtag  DW_TAG_formal_parameter, DW_AT_name("handle")
     347                      .dwattr $C$DW$27, DW_AT_TI_symbol_name("_handle")
     348                      .dwattr $C$DW$27, DW_AT_type(*$C$DW$T$169)
     349                      .dwattr $C$DW$27, DW_AT_location[DW_OP_reg12]
     350              $C$DW$28        .dwtag  DW_TAG_formal_parameter, DW_AT_name("motorHandle")
     351                      .dwattr $C$DW$28, DW_AT_TI_symbol_name("_motorHandle")
     352                      .dwattr $C$DW$28, DW_AT_type(*$C$DW$T$41)
     353                      .dwattr $C$DW$28, DW_AT_location[DW_OP_reg14]
     354              
     355              ;***************************************************************
     356              ;* FNAME: _FSM_setMotorHandle           FR SIZE:   0           *
     357              ;*                                                             *
     358              ;* FUNCTION ENVIRONMENT                                        *
     359              ;*                                                             *
     360              ;* FUNCTION PROPERTIES                                         *
     361              ;*                            0 Parameter,  0 Auto,  0 SOE     *
     362              ;***************************************************************
     363              
     364              _FSM_setMotorHandle:
     365              ;* AR4   assigned to _handle
     366              $C$DW$29        .dwtag  DW_TAG_variable, DW_AT_name("handle")
     367                      .dwattr $C$DW$29, DW_AT_TI_symbol_name("_handle")
     368                      .dwattr $C$DW$29, DW_AT_type(*$C$DW$T$170)
     369                      .dwattr $C$DW$29, DW_AT_location[DW_OP_reg12]
     370              ;* AR5   assigned to _motorHandle
     371              $C$DW$30        .dwtag  DW_TAG_variable, DW_AT_name("motorHandle")
     372                      .dwattr $C$DW$30, DW_AT_TI_symbol_name("_motorHandle")
     373                      .dwattr $C$DW$30, DW_AT_type(*$C$DW$T$207)
     374                      .dwattr $C$DW$30, DW_AT_location[DW_OP_reg14]
     375                      .dwcfi  cfa_offset, -2
     376                      .dwcfi  save_reg_to_mem, 26, 0
     377                      .dwcfi  save_reg_to_reg, 78, 26
     378                      .dwpsn  file "D:/BM1000_v1.1/sw/drivers/drvic/fsm.c",line 254,column 3,is_stmt
     379 00000000 A0C4          MOVL      *+XAR4[0],XAR5        ; [CPU_] |254| 
     380              $C$DW$31        .dwtag  DW_TAG_TI_branch
     381                      .dwattr $C$DW$31, DW_AT_low_pc(0x00)
     382                      .dwattr $C$DW$31, DW_AT_TI_return
     383 00000001 0006          LRETR     ; [CPU_] 
     384                      ; return occurs ; [] 
     385                      .dwattr $C$DW$26, DW_AT_TI_end_file("D:/BM1000_v1.1/sw/drivers/drvic/fsm.c")
     386                      .dwattr $C$DW$26, DW_AT_TI_end_line(0x101)
     387                      .dwattr $C$DW$26, DW_AT_TI_end_column(0x01)
TMS320C2000 Assembler PC v6.2.5 Wed Nov 22 14:48:16 2017

Tools Copyright (c) 1996-2014 Texas Instruments Incorporated
C:\Users\wmj\AppData\Local\Temp\1257612                              PAGE    9

     388                      .dwendentry
     389                      .dwendtag $C$DW$26
     390              
     391 00000002               .sect   ".text"
     392                      .clink
     393                      .global _FSM_setHalHandle
     394              
     395              $C$DW$32        .dwtag  DW_TAG_subprogram, DW_AT_name("FSM_setHalHandle")
     396                      .dwattr $C$DW$32, DW_AT_low_pc(_FSM_setHalHandle)
     397                      .dwattr $C$DW$32, DW_AT_high_pc(0x00)
     398                      .dwattr $C$DW$32, DW_AT_TI_symbol_name("_FSM_setHalHandle")
     399                      .dwattr $C$DW$32, DW_AT_external
     400                      .dwattr $C$DW$32, DW_AT_TI_begin_file("D:/BM1000_v1.1/sw/drivers/drvic/fsm.c")
     401                      .dwattr $C$DW$32, DW_AT_TI_begin_line(0x103)
     402                      .dwattr $C$DW$32, DW_AT_TI_begin_column(0x06)
     403                      .dwattr $C$DW$32, DW_AT_TI_max_frame_size(-2)
     404                      .dwpsn  file "D:/BM1000_v1.1/sw/drivers/drvic/fsm.c",line 260,column 1,is_stmt,address _FSM_setHalHan
     405              
     406                      .dwfde $C$DW$CIE, _FSM_setHalHandle
     407              $C$DW$33        .dwtag  DW_TAG_formal_parameter, DW_AT_name("handle")
     408                      .dwattr $C$DW$33, DW_AT_TI_symbol_name("_handle")
     409                      .dwattr $C$DW$33, DW_AT_type(*$C$DW$T$169)
     410                      .dwattr $C$DW$33, DW_AT_location[DW_OP_reg12]
     411              $C$DW$34        .dwtag  DW_TAG_formal_parameter, DW_AT_name("halHandle")
     412                      .dwattr $C$DW$34, DW_AT_TI_symbol_name("_halHandle")
     413                      .dwattr $C$DW$34, DW_AT_type(*$C$DW$T$43)
     414                      .dwattr $C$DW$34, DW_AT_location[DW_OP_reg14]
     415              
     416              ;***************************************************************
     417              ;* FNAME: _FSM_setHalHandle             FR SIZE:   0           *
     418              ;*                                                             *
     419              ;* FUNCTION ENVIRONMENT                                        *
     420              ;*                                                             *
     421              ;* FUNCTION PROPERTIES                                         *
     422              ;*                            0 Parameter,  0 Auto,  0 SOE     *
     423              ;***************************************************************
     424              
     425              _FSM_setHalHandle:
     426              ;* AR4   assigned to _handle
     427              $C$DW$35        .dwtag  DW_TAG_variable, DW_AT_name("handle")
     428                      .dwattr $C$DW$35, DW_AT_TI_symbol_name("_handle")
     429                      .dwattr $C$DW$35, DW_AT_type(*$C$DW$T$170)
     430                      .dwattr $C$DW$35, DW_AT_location[DW_OP_reg12]
     431              ;* AR5   assigned to _halHandle
     432              $C$DW$36        .dwtag  DW_TAG_variable, DW_AT_name("halHandle")
     433                      .dwattr $C$DW$36, DW_AT_TI_symbol_name("_halHandle")
     434                      .dwattr $C$DW$36, DW_AT_type(*$C$DW$T$204)
     435                      .dwattr $C$DW$36, DW_AT_location[DW_OP_reg14]
     436                      .dwcfi  cfa_offset, -2
     437                      .dwcfi  save_reg_to_mem, 26, 0
     438                      .dwcfi  save_reg_to_reg, 78, 26
     439                      .dwpsn  file "D:/BM1000_v1.1/sw/drivers/drvic/fsm.c",line 263,column 3,is_stmt
     440 00000002 A0D4          MOVL      *+XAR4[2],XAR5        ; [CPU_] |263| 
     441              $C$DW$37        .dwtag  DW_TAG_TI_branch
     442                      .dwattr $C$DW$37, DW_AT_low_pc(0x00)
TMS320C2000 Assembler PC v6.2.5 Wed Nov 22 14:48:16 2017

Tools Copyright (c) 1996-2014 Texas Instruments Incorporated
C:\Users\wmj\AppData\Local\Temp\1257612                              PAGE   10

     443                      .dwattr $C$DW$37, DW_AT_TI_return
     444 00000003 0006          LRETR     ; [CPU_] 
     445                      ; return occurs ; [] 
     446                      .dwattr $C$DW$32, DW_AT_TI_end_file("D:/BM1000_v1.1/sw/drivers/drvic/fsm.c")
     447                      .dwattr $C$DW$32, DW_AT_TI_end_line(0x10a)
     448                      .dwattr $C$DW$32, DW_AT_TI_end_column(0x01)
     449                      .dwendentry
     450                      .dwendtag $C$DW$32
     451              
     452 00000004               .sect   ".text"
     453                      .clink
     454                      .global _FSM_init
     455              
     456              $C$DW$38        .dwtag  DW_TAG_subprogram, DW_AT_name("FSM_init")
     457                      .dwattr $C$DW$38, DW_AT_low_pc(_FSM_init)
     458                      .dwattr $C$DW$38, DW_AT_high_pc(0x00)
     459                      .dwattr $C$DW$38, DW_AT_TI_symbol_name("_FSM_init")
     460                      .dwattr $C$DW$38, DW_AT_external
     461                      .dwattr $C$DW$38, DW_AT_type(*$C$DW$T$169)
     462                      .dwattr $C$DW$38, DW_AT_TI_begin_file("D:/BM1000_v1.1/sw/drivers/drvic/fsm.c")
     463                      .dwattr $C$DW$38, DW_AT_TI_begin_line(0xe8)
     464                      .dwattr $C$DW$38, DW_AT_TI_begin_column(0x0c)
     465                      .dwattr $C$DW$38, DW_AT_TI_max_frame_size(-2)
     466                      .dwpsn  file "D:/BM1000_v1.1/sw/drivers/drvic/fsm.c",line 233,column 1,is_stmt,address _FSM_init
     467              
     468                      .dwfde $C$DW$CIE, _FSM_init
     469              $C$DW$39        .dwtag  DW_TAG_formal_parameter, DW_AT_name("pMemory")
     470                      .dwattr $C$DW$39, DW_AT_TI_symbol_name("_pMemory")
     471                      .dwattr $C$DW$39, DW_AT_type(*$C$DW$T$3)
     472                      .dwattr $C$DW$39, DW_AT_location[DW_OP_reg12]
     473              $C$DW$40        .dwtag  DW_TAG_formal_parameter, DW_AT_name("numBytes")
     474                      .dwattr $C$DW$40, DW_AT_TI_symbol_name("_numBytes")
     475                      .dwattr $C$DW$40, DW_AT_type(*$C$DW$T$172)
     476                      .dwattr $C$DW$40, DW_AT_location[DW_OP_reg0]
     477              
     478              ;***************************************************************
     479              ;* FNAME: _FSM_init                     FR SIZE:   0           *
     480              ;*                                                             *
     481              ;* FUNCTION ENVIRONMENT                                        *
     482              ;*                                                             *
     483              ;* FUNCTION PROPERTIES                                         *
     484              ;*                            0 Parameter,  0 Auto,  0 SOE     *
     485              ;***************************************************************
     486              
     487              _FSM_init:
     488              ;* AR6   assigned to _numBytes
     489              $C$DW$41        .dwtag  DW_TAG_variable, DW_AT_name("numBytes")
     490                      .dwattr $C$DW$41, DW_AT_TI_symbol_name("_numBytes")
     491                      .dwattr $C$DW$41, DW_AT_type(*$C$DW$T$172)
     492                      .dwattr $C$DW$41, DW_AT_location[DW_OP_reg16]
     493              ;* AR4   assigned to _pMemory
     494              $C$DW$42        .dwtag  DW_TAG_variable, DW_AT_name("pMemory")
     495                      .dwattr $C$DW$42, DW_AT_TI_symbol_name("_pMemory")
     496                      .dwattr $C$DW$42, DW_AT_type(*$C$DW$T$209)
     497                      .dwattr $C$DW$42, DW_AT_location[DW_OP_reg12]
TMS320C2000 Assembler PC v6.2.5 Wed Nov 22 14:48:16 2017

Tools Copyright (c) 1996-2014 Texas Instruments Incorporated
C:\Users\wmj\AppData\Local\Temp\1257612                              PAGE   11

     498                      .dwcfi  cfa_offset, -2
     499                      .dwcfi  save_reg_to_mem, 26, 0
     500                      .dwcfi  save_reg_to_reg, 78, 26
     501 00000004 1EA6          MOVL      XAR6,ACC              ; [CPU_] |233| 
     502                      .dwpsn  file "D:/BM1000_v1.1/sw/drivers/drvic/fsm.c",line 237,column 4,is_stmt
     503 00000005 0226          MOVB      ACC,#38               ; [CPU_] |237| 
     504 00000006 0FA6          CMPL      ACC,XAR6              ; [CPU_] |237| 
     505 00000007 6903          B         $C$L1,LOS             ; [CPU_] |237| 
     506                      ; branchcc occurs ; [] |237| 
     507                      .dwpsn  file "D:/BM1000_v1.1/sw/drivers/drvic/fsm.c",line 238,column 6,is_stmt
     508 00000008 D400          MOVB      XAR4,#0               ; [CPU_] |238| 
     509              $C$DW$43        .dwtag  DW_TAG_TI_branch
     510                      .dwattr $C$DW$43, DW_AT_low_pc(0x00)
     511                      .dwattr $C$DW$43, DW_AT_TI_return
     512 00000009 0006          LRETR     ; [CPU_] 
     513                      ; return occurs ; [] 
     514 0000000a       $C$L1:    
     515                      .dwpsn  file "D:/BM1000_v1.1/sw/drivers/drvic/fsm.c",line 244,column 4,is_stmt
     516 0000000a 8F40-         MOVL      XAR5,#_FSM_State_Box  ; [CPU_U] |244| 
         0000000b 0000 
     517 0000000c A0E4          MOVL      *+XAR4[4],XAR5        ; [CPU_] |244| 
     518              $C$DW$44        .dwtag  DW_TAG_TI_branch
     519                      .dwattr $C$DW$44, DW_AT_low_pc(0x00)
     520                      .dwattr $C$DW$44, DW_AT_TI_return
     521 0000000d 0006          LRETR     ; [CPU_] 
     522                      ; return occurs ; [] 
     523                      .dwattr $C$DW$38, DW_AT_TI_end_file("D:/BM1000_v1.1/sw/drivers/drvic/fsm.c")
     524                      .dwattr $C$DW$38, DW_AT_TI_end_line(0xf8)
     525                      .dwattr $C$DW$38, DW_AT_TI_end_column(0x01)
     526                      .dwendentry
     527                      .dwendtag $C$DW$38
     528              
     529 0000000e               .sect   ".text"
     530                      .clink
     531                      .global _FSM_getPortStatus
     532              
     533              $C$DW$45        .dwtag  DW_TAG_subprogram, DW_AT_name("FSM_getPortStatus")
     534                      .dwattr $C$DW$45, DW_AT_low_pc(_FSM_getPortStatus)
     535                      .dwattr $C$DW$45, DW_AT_high_pc(0x00)
     536                      .dwattr $C$DW$45, DW_AT_TI_symbol_name("_FSM_getPortStatus")
     537                      .dwattr $C$DW$45, DW_AT_external
     538                      .dwattr $C$DW$45, DW_AT_TI_begin_file("D:/BM1000_v1.1/sw/drivers/drvic/fsm.c")
     539                      .dwattr $C$DW$45, DW_AT_TI_begin_line(0x498)
     540                      .dwattr $C$DW$45, DW_AT_TI_begin_column(0x06)
     541                      .dwattr $C$DW$45, DW_AT_TI_max_frame_size(-2)
     542                      .dwpsn  file "D:/BM1000_v1.1/sw/drivers/drvic/fsm.c",line 1177,column 1,is_stmt,address _FSM_getPortS
     543              
     544                      .dwfde $C$DW$CIE, _FSM_getPortStatus
     545              $C$DW$46        .dwtag  DW_TAG_formal_parameter, DW_AT_name("handle")
     546                      .dwattr $C$DW$46, DW_AT_TI_symbol_name("_handle")
     547                      .dwattr $C$DW$46, DW_AT_type(*$C$DW$T$169)
     548                      .dwattr $C$DW$46, DW_AT_location[DW_OP_reg12]
     549              
     550              ;***************************************************************
     551              ;* FNAME: _FSM_getPortStatus            FR SIZE:   0           *
TMS320C2000 Assembler PC v6.2.5 Wed Nov 22 14:48:16 2017

Tools Copyright (c) 1996-2014 Texas Instruments Incorporated
C:\Users\wmj\AppData\Local\Temp\1257612                              PAGE   12

     552              ;*                                                             *
     553              ;* FUNCTION ENVIRONMENT                                        *
     554              ;*                                                             *
     555              ;* FUNCTION PROPERTIES                                         *
     556              ;*                            0 Parameter,  0 Auto,  0 SOE     *
     557              ;***************************************************************
     558              
     559              _FSM_getPortStatus:
     560              ;* AR4   assigned to _handle
     561              $C$DW$47        .dwtag  DW_TAG_variable, DW_AT_name("handle")
     562                      .dwattr $C$DW$47, DW_AT_TI_symbol_name("_handle")
     563                      .dwattr $C$DW$47, DW_AT_type(*$C$DW$T$170)
     564                      .dwattr $C$DW$47, DW_AT_location[DW_OP_reg12]
     565                      .dwcfi  cfa_offset, -2
     566                      .dwcfi  save_reg_to_mem, 26, 0
     567                      .dwcfi  save_reg_to_reg, 78, 26
     568                      .dwpsn  file "D:/BM1000_v1.1/sw/modules/hal/boards/hvkit_rev1p1/f28x/f2802x/src/hal.h",line 821,colum
     569 0000000e 8AD4          MOVL      XAR4,*+XAR4[2]        ; [CPU_] |821| 
     570 0000000f D008          MOVB      XAR0,#8               ; [CPU_] |821| 
     571 00000010 9A10          MOVB      AL,#16                ; [CPU_] |821| 
     572 00000011 8A94          MOVL      XAR4,*+XAR4[AR0]      ; [CPU_] |821| 
     573              $C$DW$48        .dwtag  DW_TAG_TI_branch
     574                      .dwattr $C$DW$48, DW_AT_low_pc(0x00)
     575                      .dwattr $C$DW$48, DW_AT_name("_GPIO_read")
     576                      .dwattr $C$DW$48, DW_AT_TI_call
     577 00000012 7640!         LCR       #_GPIO_read           ; [CPU_] |821| 
         00000013 0000 
     578                      ; call occurs [#_GPIO_read] ; [] |821| 
     579              $C$DW$49        .dwtag  DW_TAG_TI_branch
     580                      .dwattr $C$DW$49, DW_AT_low_pc(0x00)
     581                      .dwattr $C$DW$49, DW_AT_TI_return
     582 00000014 0006          LRETR     ; [CPU_] 
     583                      ; return occurs ; [] 
     584                      .dwattr $C$DW$45, DW_AT_TI_end_file("D:/BM1000_v1.1/sw/drivers/drvic/fsm.c")
     585                      .dwattr $C$DW$45, DW_AT_TI_end_line(0x49f)
     586                      .dwattr $C$DW$45, DW_AT_TI_end_column(0x01)
     587                      .dwendentry
     588                      .dwendtag $C$DW$45
     589              
     590 00000015               .sect   ".text"
     591                      .clink
     592                      .global _FSM_clrOverCurrentReg
     593              
     594              $C$DW$50        .dwtag  DW_TAG_subprogram, DW_AT_name("FSM_clrOverCurrentReg")
     595                      .dwattr $C$DW$50, DW_AT_low_pc(_FSM_clrOverCurrentReg)
     596                      .dwattr $C$DW$50, DW_AT_high_pc(0x00)
     597                      .dwattr $C$DW$50, DW_AT_TI_symbol_name("_FSM_clrOverCurrentReg")
     598                      .dwattr $C$DW$50, DW_AT_external
     599                      .dwattr $C$DW$50, DW_AT_TI_begin_file("D:/BM1000_v1.1/sw/drivers/drvic/fsm.c")
     600                      .dwattr $C$DW$50, DW_AT_TI_begin_line(0x488)
     601                      .dwattr $C$DW$50, DW_AT_TI_begin_column(0x06)
     602                      .dwattr $C$DW$50, DW_AT_TI_max_frame_size(-4)
     603                      .dwpsn  file "D:/BM1000_v1.1/sw/drivers/drvic/fsm.c",line 1161,column 1,is_stmt,address _FSM_clrOverC
     604              
     605                      .dwfde $C$DW$CIE, _FSM_clrOverCurrentReg
TMS320C2000 Assembler PC v6.2.5 Wed Nov 22 14:48:16 2017

Tools Copyright (c) 1996-2014 Texas Instruments Incorporated
C:\Users\wmj\AppData\Local\Temp\1257612                              PAGE   13

     606              $C$DW$51        .dwtag  DW_TAG_formal_parameter, DW_AT_name("handle")
     607                      .dwattr $C$DW$51, DW_AT_TI_symbol_name("_handle")
     608                      .dwattr $C$DW$51, DW_AT_type(*$C$DW$T$169)
     609                      .dwattr $C$DW$51, DW_AT_location[DW_OP_reg12]
     610              
     611              ;***************************************************************
     612              ;* FNAME: _FSM_clrOverCurrentReg        FR SIZE:   2           *
     613              ;*                                                             *
     614              ;* FUNCTION ENVIRONMENT                                        *
     615              ;*                                                             *
     616              ;* FUNCTION PROPERTIES                                         *
     617              ;*                            0 Parameter,  0 Auto,  2 SOE     *
     618              ;***************************************************************
     619              
     620              _FSM_clrOverCurrentReg:
     621              ;* AR1   assigned to _handle
     622              $C$DW$52        .dwtag  DW_TAG_variable, DW_AT_name("handle")
     623                      .dwattr $C$DW$52, DW_AT_TI_symbol_name("_handle")
     624                      .dwattr $C$DW$52, DW_AT_type(*$C$DW$T$170)
     625                      .dwattr $C$DW$52, DW_AT_location[DW_OP_reg6]
     626                      .dwcfi  cfa_offset, -2
     627                      .dwcfi  save_reg_to_mem, 26, 0
     628                      .dwcfi  save_reg_to_reg, 78, 26
     629 00000015 B2BD          MOVL      *SP++,XAR1            ; [CPU_] 
     630                      .dwcfi  save_reg_to_mem, 7, 2
     631                      .dwcfi  cfa_offset, -4
     632 00000016 8BA4          MOVL      XAR1,XAR4             ; [CPU_] |1161| 
     633                      .dwpsn  file "D:/BM1000_v1.1/sw/modules/hal/boards/hvkit_rev1p1/f28x/f2802x/src/hal.h",line 821,colum
     634 00000017 8AD1          MOVL      XAR4,*+XAR1[2]        ; [CPU_] |821| 
     635 00000018 D008          MOVB      XAR0,#8               ; [CPU_] |821| 
     636 00000019 9A11          MOVB      AL,#17                ; [CPU_] |821| 
     637 0000001a 8A94          MOVL      XAR4,*+XAR4[AR0]      ; [CPU_] |821| 
     638              $C$DW$53        .dwtag  DW_TAG_TI_branch
     639                      .dwattr $C$DW$53, DW_AT_low_pc(0x00)
     640                      .dwattr $C$DW$53, DW_AT_name("_GPIO_read")
     641                      .dwattr $C$DW$53, DW_AT_TI_call
     642 0000001b 7640!         LCR       #_GPIO_read           ; [CPU_] |821| 
         0000001c 0000 
     643                      ; call occurs [#_GPIO_read] ; [] |821| 
     644 0000001d 5200          CMPB      AL,#0                 ; [CPU_] |821| 
     645 0000001e ED17          BF        $C$L2,NEQ             ; [CPU_] |821| 
     646                      ; branchcc occurs ; [] |821| 
     647                      .dwpsn  file "D:/BM1000_v1.1/sw/modules/hal/boards/hvkit_rev1p1/f28x/f2802x/src/hal.h",line 853,colum
     648 0000001f 8AD1          MOVL      XAR4,*+XAR1[2]        ; [CPU_] |853| 
     649 00000020 D008          MOVB      XAR0,#8               ; [CPU_] |853| 
     650 00000021 9A20          MOVB      AL,#32                ; [CPU_] |853| 
     651 00000022 8A94          MOVL      XAR4,*+XAR4[AR0]      ; [CPU_] |853| 
     652              $C$DW$54        .dwtag  DW_TAG_TI_branch
     653                      .dwattr $C$DW$54, DW_AT_low_pc(0x00)
     654                      .dwattr $C$DW$54, DW_AT_name("_GPIO_setLow")
     655                      .dwattr $C$DW$54, DW_AT_TI_call
     656 00000023 7640!         LCR       #_GPIO_setLow         ; [CPU_] |853| 
         00000024 0000 
     657                      ; call occurs [#_GPIO_setLow] ; [] |853| 
     658 00000025 8AD1          MOVL      XAR4,*+XAR1[2]        ; [CPU_] |853| 
TMS320C2000 Assembler PC v6.2.5 Wed Nov 22 14:48:16 2017

Tools Copyright (c) 1996-2014 Texas Instruments Incorporated
C:\Users\wmj\AppData\Local\Temp\1257612                              PAGE   14

     659 00000026 D008          MOVB      XAR0,#8               ; [CPU_] |853| 
     660 00000027 9A12          MOVB      AL,#18                ; [CPU_] |853| 
     661 00000028 8A94          MOVL      XAR4,*+XAR4[AR0]      ; [CPU_] |853| 
     662              $C$DW$55        .dwtag  DW_TAG_TI_branch
     663                      .dwattr $C$DW$55, DW_AT_low_pc(0x00)
     664                      .dwattr $C$DW$55, DW_AT_name("_GPIO_setLow")
     665                      .dwattr $C$DW$55, DW_AT_TI_call
     666 00000029 7640!         LCR       #_GPIO_setLow         ; [CPU_] |853| 
         0000002a 0000 
     667                      ; call occurs [#_GPIO_setLow] ; [] |853| 
     668                      .dwpsn  file "D:/BM1000_v1.1/sw/drivers/drvic/fsm.c",line 1169,column 5,is_stmt
     669 0000002b FF20          MOV       ACC,#1198             ; [CPU_] |1169| 
         0000002c 04AE 
     670              $C$DW$56        .dwtag  DW_TAG_TI_branch
     671                      .dwattr $C$DW$56, DW_AT_low_pc(0x00)
     672                      .dwattr $C$DW$56, DW_AT_name("_usDelay")
     673                      .dwattr $C$DW$56, DW_AT_TI_call
     674 0000002d 7640!         LCR       #_usDelay             ; [CPU_] |1169| 
         0000002e 0000 
     675                      ; call occurs [#_usDelay] ; [] |1169| 
     676                      .dwpsn  file "D:/BM1000_v1.1/sw/modules/hal/boards/hvkit_rev1p1/f28x/f2802x/src/hal.h",line 807,colum
     677 0000002f 8AD1          MOVL      XAR4,*+XAR1[2]        ; [CPU_] |807| 
     678 00000030 D008          MOVB      XAR0,#8               ; [CPU_] |807| 
     679 00000031 9A12          MOVB      AL,#18                ; [CPU_] |807| 
     680 00000032 8A94          MOVL      XAR4,*+XAR4[AR0]      ; [CPU_] |807| 
     681              $C$DW$57        .dwtag  DW_TAG_TI_branch
     682                      .dwattr $C$DW$57, DW_AT_low_pc(0x00)
     683                      .dwattr $C$DW$57, DW_AT_name("_GPIO_setHigh")
     684                      .dwattr $C$DW$57, DW_AT_TI_call
     685 00000033 7640!         LCR       #_GPIO_setHigh        ; [CPU_] |807| 
         00000034 0000 
     686                      ; call occurs [#_GPIO_setHigh] ; [] |807| 
     687 00000035       $C$L2:    
     688 00000035 8BBE          MOVL      XAR1,*--SP            ; [CPU_] 
     689                      .dwcfi  cfa_offset, -2
     690                      .dwcfi  restore_reg, 7
     691              $C$DW$58        .dwtag  DW_TAG_TI_branch
     692                      .dwattr $C$DW$58, DW_AT_low_pc(0x00)
     693                      .dwattr $C$DW$58, DW_AT_TI_return
     694 00000036 0006          LRETR     ; [CPU_] 
     695                      ; return occurs ; [] 
     696                      .dwattr $C$DW$50, DW_AT_TI_end_file("D:/BM1000_v1.1/sw/drivers/drvic/fsm.c")
     697                      .dwattr $C$DW$50, DW_AT_TI_end_line(0x496)
     698                      .dwattr $C$DW$50, DW_AT_TI_end_column(0x01)
     699                      .dwendentry
     700                      .dwendtag $C$DW$50
     701              
     702 00000037               .sect   ".text"
     703                      .clink
     704                      .global _FSM_SelectMode
     705              
     706              $C$DW$59        .dwtag  DW_TAG_subprogram, DW_AT_name("FSM_SelectMode")
     707                      .dwattr $C$DW$59, DW_AT_low_pc(_FSM_SelectMode)
     708                      .dwattr $C$DW$59, DW_AT_high_pc(0x00)
     709                      .dwattr $C$DW$59, DW_AT_TI_symbol_name("_FSM_SelectMode")
TMS320C2000 Assembler PC v6.2.5 Wed Nov 22 14:48:16 2017

Tools Copyright (c) 1996-2014 Texas Instruments Incorporated
C:\Users\wmj\AppData\Local\Temp\1257612                              PAGE   15

     710                      .dwattr $C$DW$59, DW_AT_external
     711                      .dwattr $C$DW$59, DW_AT_TI_begin_file("D:/BM1000_v1.1/sw/drivers/drvic/fsm.c")
     712                      .dwattr $C$DW$59, DW_AT_TI_begin_line(0x158)
     713                      .dwattr $C$DW$59, DW_AT_TI_begin_column(0x06)
     714                      .dwattr $C$DW$59, DW_AT_TI_max_frame_size(-68)
     715                      .dwpsn  file "D:/BM1000_v1.1/sw/drivers/drvic/fsm.c",line 345,column 1,is_stmt,address _FSM_SelectMod
     716              
     717                      .dwfde $C$DW$CIE, _FSM_SelectMode
     718              $C$DW$60        .dwtag  DW_TAG_formal_parameter, DW_AT_name("handle")
     719                      .dwattr $C$DW$60, DW_AT_TI_symbol_name("_handle")
     720                      .dwattr $C$DW$60, DW_AT_type(*$C$DW$T$169)
     721                      .dwattr $C$DW$60, DW_AT_location[DW_OP_reg12]
     722              
     723              ;***************************************************************
     724              ;* FNAME: _FSM_SelectMode               FR SIZE:  66           *
     725              ;*                                                             *
     726              ;* FUNCTION ENVIRONMENT                                        *
     727              ;*                                                             *
     728              ;* FUNCTION PROPERTIES                                         *
     729              ;*                            2 Parameter, 62 Auto,  2 SOE     *
     730              ;***************************************************************
     731              
     732              _FSM_SelectMode:
     733              ;* AR1   assigned to _handle
     734              $C$DW$61        .dwtag  DW_TAG_variable, DW_AT_name("handle")
     735                      .dwattr $C$DW$61, DW_AT_TI_symbol_name("_handle")
     736                      .dwattr $C$DW$61, DW_AT_type(*$C$DW$T$170)
     737                      .dwattr $C$DW$61, DW_AT_location[DW_OP_reg6]
     738              $C$DW$62        .dwtag  DW_TAG_variable, DW_AT_name("State")
     739                      .dwattr $C$DW$62, DW_AT_TI_symbol_name("_State")
     740                      .dwattr $C$DW$62, DW_AT_type(*$C$DW$T$177)
     741                      .dwattr $C$DW$62, DW_AT_location[DW_OP_breg20 -8]
     742              $C$DW$63        .dwtag  DW_TAG_variable, DW_AT_name("State")
     743                      .dwattr $C$DW$63, DW_AT_TI_symbol_name("_State")
     744                      .dwattr $C$DW$63, DW_AT_type(*$C$DW$T$177)
     745                      .dwattr $C$DW$63, DW_AT_location[DW_OP_breg20 -14]
     746              $C$DW$64        .dwtag  DW_TAG_variable, DW_AT_name("State")
     747                      .dwattr $C$DW$64, DW_AT_TI_symbol_name("_State")
     748                      .dwattr $C$DW$64, DW_AT_type(*$C$DW$T$177)
     749                      .dwattr $C$DW$64, DW_AT_location[DW_OP_breg20 -20]
     750              $C$DW$65        .dwtag  DW_TAG_variable, DW_AT_name("State")
     751                      .dwattr $C$DW$65, DW_AT_TI_symbol_name("_State")
     752                      .dwattr $C$DW$65, DW_AT_type(*$C$DW$T$177)
     753                      .dwattr $C$DW$65, DW_AT_location[DW_OP_breg20 -26]
     754              $C$DW$66        .dwtag  DW_TAG_variable, DW_AT_name("State")
     755                      .dwattr $C$DW$66, DW_AT_TI_symbol_name("_State")
     756                      .dwattr $C$DW$66, DW_AT_type(*$C$DW$T$177)
     757                      .dwattr $C$DW$66, DW_AT_location[DW_OP_breg20 -32]
     758              $C$DW$67        .dwtag  DW_TAG_variable, DW_AT_name("State")
     759                      .dwattr $C$DW$67, DW_AT_TI_symbol_name("_State")
     760                      .dwattr $C$DW$67, DW_AT_type(*$C$DW$T$177)
     761                      .dwattr $C$DW$67, DW_AT_location[DW_OP_breg20 -38]
     762              $C$DW$68        .dwtag  DW_TAG_variable, DW_AT_name("State")
     763                      .dwattr $C$DW$68, DW_AT_TI_symbol_name("_State")
     764                      .dwattr $C$DW$68, DW_AT_type(*$C$DW$T$177)
TMS320C2000 Assembler PC v6.2.5 Wed Nov 22 14:48:16 2017

Tools Copyright (c) 1996-2014 Texas Instruments Incorporated
C:\Users\wmj\AppData\Local\Temp\1257612                              PAGE   16

     765                      .dwattr $C$DW$68, DW_AT_location[DW_OP_breg20 -44]
     766              $C$DW$69        .dwtag  DW_TAG_variable, DW_AT_name("State")
     767                      .dwattr $C$DW$69, DW_AT_TI_symbol_name("_State")
     768                      .dwattr $C$DW$69, DW_AT_type(*$C$DW$T$177)
     769                      .dwattr $C$DW$69, DW_AT_location[DW_OP_breg20 -50]
     770              $C$DW$70        .dwtag  DW_TAG_variable, DW_AT_name("State")
     771                      .dwattr $C$DW$70, DW_AT_TI_symbol_name("_State")
     772                      .dwattr $C$DW$70, DW_AT_type(*$C$DW$T$177)
     773                      .dwattr $C$DW$70, DW_AT_location[DW_OP_breg20 -56]
     774                      .dwcfi  cfa_offset, -2
     775                      .dwcfi  save_reg_to_mem, 26, 0
     776                      .dwcfi  save_reg_to_reg, 78, 26
     777 00000037 B2BD          MOVL      *SP++,XAR1            ; [CPU_] 
     778                      .dwcfi  save_reg_to_mem, 7, 2
     779                      .dwcfi  cfa_offset, -4
     780 00000038 FE40          ADDB      SP,#64                ; [CPU_U] 
     781                      .dwcfi  cfa_offset, -68
     782                      .dwpsn  file "D:/BM1000_v1.1/sw/drivers/drvic/fsm.c",line 348,column 4,is_stmt
     783 00000039 D00A          MOVB      XAR0,#10              ; [CPU_] |348| 
     784                      .dwpsn  file "D:/BM1000_v1.1/sw/drivers/drvic/fsm.c",line 345,column 1,is_stmt
     785 0000003a 8BA4          MOVL      XAR1,XAR4             ; [CPU_] |345| 
     786                      .dwpsn  file "D:/BM1000_v1.1/sw/drivers/drvic/fsm.c",line 348,column 4,is_stmt
     787 0000003b 9291          MOV       AL,*+XAR1[AR0]        ; [CPU_] |348| 
     788 0000003c 5204          CMPB      AL,#4                 ; [CPU_] |348| 
     789 0000003d 6211          B         $C$L3,GT              ; [CPU_] |348| 
     790                      ; branchcc occurs ; [] |348| 
     791 0000003e 5204          CMPB      AL,#4                 ; [CPU_] |348| 
     792 0000003f 56C1          BF        $C$L8,EQ              ; [CPU_] |348| 
         00000040 00CA 
     793                      ; branchcc occurs ; [] |348| 
     794 00000041 5200          CMPB      AL,#0                 ; [CPU_] |348| 
     795 00000042 56C1          BF        $C$L12,EQ             ; [CPU_] |348| 
         00000043 0179 
     796                      ; branchcc occurs ; [] |348| 
     797 00000044 5201          CMPB      AL,#1                 ; [CPU_] |348| 
     798 00000045 56C1          BF        $C$L11,EQ             ; [CPU_] |348| 
         00000046 014A 
     799                      ; branchcc occurs ; [] |348| 
     800 00000047 5202          CMPB      AL,#2                 ; [CPU_] |348| 
     801 00000048 56C1          BF        $C$L10,EQ             ; [CPU_] |348| 
         00000049 011B 
     802                      ; branchcc occurs ; [] |348| 
     803 0000004a 5203          CMPB      AL,#3                 ; [CPU_] |348| 
     804 0000004b 56C1          BF        $C$L9,EQ              ; [CPU_] |348| 
         0000004c 00EB 
     805                      ; branchcc occurs ; [] |348| 
     806 0000004d 6F08          B         $C$L4,UNC             ; [CPU_] |348| 
     807                      ; branch occurs ; [] |348| 
     808 0000004e       $C$L3:    
     809 0000004e 5205          CMPB      AL,#5                 ; [CPU_] |348| 
     810 0000004f 56C1          BF        $C$L7,EQ              ; [CPU_] |348| 
         00000050 008D 
     811                      ; branchcc occurs ; [] |348| 
     812 00000051 5206          CMPB      AL,#6                 ; [CPU_] |348| 
     813 00000052 EC5D          BF        $C$L6,EQ              ; [CPU_] |348| 
TMS320C2000 Assembler PC v6.2.5 Wed Nov 22 14:48:16 2017

Tools Copyright (c) 1996-2014 Texas Instruments Incorporated
C:\Users\wmj\AppData\Local\Temp\1257612                              PAGE   17

     814                      ; branchcc occurs ; [] |348| 
     815 00000053 5207          CMPB      AL,#7                 ; [CPU_] |348| 
     816 00000054 EC2E          BF        $C$L5,EQ              ; [CPU_] |348| 
     817                      ; branchcc occurs ; [] |348| 
     818 00000055       $C$L4:    
     819                      .dwpsn  file "D:/BM1000_v1.1/sw/drivers/drvic/fsm.h",line 427,column 1,is_stmt
     820 00000055 5CAD          MOVZ      AR4,SP                ; [CPU_U] |427| 
     821 00000056 76C0+         MOVL      XAR7,#_JM_FSM_MotorFunc ; [CPU_U] |427| 
         00000057 0000 
     822 00000058 DC88          SUBB      XAR4,#8               ; [CPU_U] |427| 
     823 00000059 F605          RPT       #5
     824 0000005a 2484  ||     PREAD     *XAR4++,*XAR7         ; [CPU_] |427| 
     825                      .dwpsn  file "D:/BM1000_v1.1/sw/drivers/drvic/fsm.h",line 430,column 3,is_stmt
     826 0000005b 8AE1          MOVL      XAR4,*+XAR1[4]        ; [CPU_] |430| 
     827 0000005c D01F          MOVB      XAR0,#31              ; [CPU_] |430| 
     828 0000005d 9245          MOV       AL,*-SP[5]            ; [CPU_] |430| 
     829 0000005e 9694          MOV       *+XAR4[AR0],AL        ; [CPU_] |430| 
     830                      .dwpsn  file "D:/BM1000_v1.1/sw/drivers/drvic/fsm.h",line 431,column 3,is_stmt
     831 0000005f 8AE1          MOVL      XAR4,*+XAR1[4]        ; [CPU_] |431| 
     832 00000060 D010          MOVB      XAR0,#16              ; [CPU_] |431| 
     833 00000061 9246          MOV       AL,*-SP[6]            ; [CPU_] |431| 
     834 00000062 9694          MOV       *+XAR4[AR0],AL        ; [CPU_] |431| 
     835                      .dwpsn  file "D:/BM1000_v1.1/sw/drivers/drvic/fsm.h",line 432,column 3,is_stmt
     836 00000063 0648          MOVL      ACC,*-SP[8]           ; [CPU_] |432| 
     837 00000064 88AD          MOVZ      AR6,SP                ; [CPU_U] |432| 
     838 00000065 DEC0          SUBB      XAR6,#64              ; [CPU_U] |432| 
     839              $C$DW$71        .dwtag  DW_TAG_TI_branch
     840                      .dwattr $C$DW$71, DW_AT_low_pc(0x00)
     841                      .dwattr $C$DW$71, DW_AT_name("FS$$TOFD")
     842                      .dwattr $C$DW$71, DW_AT_TI_call
     843 00000066 7640!         LCR       #FS$$TOFD             ; [CPU_] |432| 
         00000067 0000 
     844                      ; call occurs [#FS$$TOFD] ; [] |432| 
     845 00000068 5CAD          MOVZ      AR4,SP                ; [CPU_U] |432| 
     846 00000069 88AD          MOVZ      AR6,SP                ; [CPU_U] |432| 
     847 0000006a 8F40+         MOVL      XAR5,#$C$FL1          ; [CPU_U] |432| 
         0000006b 0000 
     848 0000006c DCC0          SUBB      XAR4,#64              ; [CPU_U] |432| 
     849 0000006d DEBC          SUBB      XAR6,#60              ; [CPU_U] |432| 
     850              $C$DW$72        .dwtag  DW_TAG_TI_branch
     851                      .dwattr $C$DW$72, DW_AT_low_pc(0x00)
     852                      .dwattr $C$DW$72, DW_AT_name("FD$$MPY")
     853                      .dwattr $C$DW$72, DW_AT_TI_call
     854 0000006e 7640!         LCR       #FD$$MPY              ; [CPU_] |432| 
         0000006f 0000 
     855                      ; call occurs [#FD$$MPY] ; [] |432| 
     856 00000070 5CAD          MOVZ      AR4,SP                ; [CPU_U] |432| 
     857 00000071 DCBC          SUBB      XAR4,#60              ; [CPU_U] |432| 
     858              $C$DW$73        .dwtag  DW_TAG_TI_branch
     859                      .dwattr $C$DW$73, DW_AT_low_pc(0x00)
     860                      .dwattr $C$DW$73, DW_AT_name("FD$$TOL")
     861                      .dwattr $C$DW$73, DW_AT_TI_call
     862 00000072 7640!         LCR       #FD$$TOL              ; [CPU_] |432| 
         00000073 0000 
     863                      ; call occurs [#FD$$TOL] ; [] |432| 
TMS320C2000 Assembler PC v6.2.5 Wed Nov 22 14:48:16 2017

Tools Copyright (c) 1996-2014 Texas Instruments Incorporated
C:\Users\wmj\AppData\Local\Temp\1257612                              PAGE   18

     864 00000074 8F00          MOVL      XAR4,#16777           ; [CPU_U] |432| 
         00000075 4189 
     865 00000076 A842          MOVL      *-SP[2],XAR4          ; [CPU_] |432| 
     866              $C$DW$74        .dwtag  DW_TAG_TI_branch
     867                      .dwattr $C$DW$74, DW_AT_low_pc(0x00)
     868                      .dwattr $C$DW$74, DW_AT_name("L$$DIV")
     869                      .dwattr $C$DW$74, DW_AT_TI_call
     870 00000077 00C0!         FFC       XAR7,#L$$DIV          ; [CPU_] |432| 
         00000078 0000 
     871                      ; call occurs [#L$$DIV] ; [] |432| 
     872 00000079 8AE1          MOVL      XAR4,*+XAR1[4]        ; [CPU_] |432| 
     873 0000007a 96CC          MOV       *+XAR4[1],AL          ; [CPU_] |432| 
     874                      .dwpsn  file "D:/BM1000_v1.1/sw/drivers/drvic/fsm.h",line 433,column 3,is_stmt
     875 0000007b 8AE1          MOVL      XAR4,*+XAR1[4]        ; [CPU_] |433| 
     876 0000007c D02E          MOVB      XAR0,#46              ; [CPU_] |433| 
     877 0000007d 9244          MOV       AL,*-SP[4]            ; [CPU_] |433| 
     878 0000007e 9694          MOV       *+XAR4[AR0],AL        ; [CPU_] |433| 
     879                      .dwpsn  file "D:/BM1000_v1.1/sw/drivers/drvic/fsm.h",line 434,column 3,is_stmt
     880 0000007f 9243          MOV       AL,*-SP[3]            ; [CPU_] |434| 
     881                      .dwpsn  file "D:/BM1000_v1.1/sw/drivers/drvic/fsm.h",line 436,column 3,is_stmt
     882 00000080 FFEF          B         $C$L13,UNC            ; [CPU_] |436| 
         00000081 0166 
     883                      ; branch occurs ; [] |436| 
     884 00000082       $C$L5:    
     885                      .dwpsn  file "D:/BM1000_v1.1/sw/drivers/drvic/fsm.h",line 427,column 1,is_stmt
     886 00000082 5CAD          MOVZ      AR4,SP                ; [CPU_U] |427| 
     887 00000083 76C0+         MOVL      XAR7,#_JM_FSM_MotorFunc+42 ; [CPU_U] |427| 
         00000084 002A 
     888 00000085 DC8E          SUBB      XAR4,#14              ; [CPU_U] |427| 
     889 00000086 F605          RPT       #5
     890 00000087 2484  ||     PREAD     *XAR4++,*XAR7         ; [CPU_] |427| 
     891                      .dwpsn  file "D:/BM1000_v1.1/sw/drivers/drvic/fsm.h",line 430,column 3,is_stmt
     892 00000088 8AE1          MOVL      XAR4,*+XAR1[4]        ; [CPU_] |430| 
     893 00000089 D01F          MOVB      XAR0,#31              ; [CPU_] |430| 
     894 0000008a 924B          MOV       AL,*-SP[11]           ; [CPU_] |430| 
     895 0000008b 9694          MOV       *+XAR4[AR0],AL        ; [CPU_] |430| 
     896                      .dwpsn  file "D:/BM1000_v1.1/sw/drivers/drvic/fsm.h",line 431,column 3,is_stmt
     897 0000008c 8AE1          MOVL      XAR4,*+XAR1[4]        ; [CPU_] |431| 
     898 0000008d D010          MOVB      XAR0,#16              ; [CPU_] |431| 
     899 0000008e 924C          MOV       AL,*-SP[12]           ; [CPU_] |431| 
     900 0000008f 9694          MOV       *+XAR4[AR0],AL        ; [CPU_] |431| 
     901                      .dwpsn  file "D:/BM1000_v1.1/sw/drivers/drvic/fsm.h",line 432,column 3,is_stmt
     902 00000090 064E          MOVL      ACC,*-SP[14]          ; [CPU_] |432| 
     903 00000091 88AD          MOVZ      AR6,SP                ; [CPU_U] |432| 
     904 00000092 DEC0          SUBB      XAR6,#64              ; [CPU_U] |432| 
     905              $C$DW$75        .dwtag  DW_TAG_TI_branch
     906                      .dwattr $C$DW$75, DW_AT_low_pc(0x00)
     907                      .dwattr $C$DW$75, DW_AT_name("FS$$TOFD")
     908                      .dwattr $C$DW$75, DW_AT_TI_call
     909 00000093 7640!         LCR       #FS$$TOFD             ; [CPU_] |432| 
         00000094 0000 
     910                      ; call occurs [#FS$$TOFD] ; [] |432| 
     911 00000095 5CAD          MOVZ      AR4,SP                ; [CPU_U] |432| 
     912 00000096 88AD          MOVZ      AR6,SP                ; [CPU_U] |432| 
     913 00000097 8F40+         MOVL      XAR5,#$C$FL1          ; [CPU_U] |432| 
TMS320C2000 Assembler PC v6.2.5 Wed Nov 22 14:48:16 2017

Tools Copyright (c) 1996-2014 Texas Instruments Incorporated
C:\Users\wmj\AppData\Local\Temp\1257612                              PAGE   19

         00000098 0000 
     914 00000099 DCC0          SUBB      XAR4,#64              ; [CPU_U] |432| 
     915 0000009a DEBC          SUBB      XAR6,#60              ; [CPU_U] |432| 
     916              $C$DW$76        .dwtag  DW_TAG_TI_branch
     917                      .dwattr $C$DW$76, DW_AT_low_pc(0x00)
     918                      .dwattr $C$DW$76, DW_AT_name("FD$$MPY")
     919                      .dwattr $C$DW$76, DW_AT_TI_call
     920 0000009b 7640!         LCR       #FD$$MPY              ; [CPU_] |432| 
         0000009c 0000 
     921                      ; call occurs [#FD$$MPY] ; [] |432| 
     922 0000009d 5CAD          MOVZ      AR4,SP                ; [CPU_U] |432| 
     923 0000009e DCBC          SUBB      XAR4,#60              ; [CPU_U] |432| 
     924              $C$DW$77        .dwtag  DW_TAG_TI_branch
     925                      .dwattr $C$DW$77, DW_AT_low_pc(0x00)
     926                      .dwattr $C$DW$77, DW_AT_name("FD$$TOL")
     927                      .dwattr $C$DW$77, DW_AT_TI_call
     928 0000009f 7640!         LCR       #FD$$TOL              ; [CPU_] |432| 
         000000a0 0000 
     929                      ; call occurs [#FD$$TOL] ; [] |432| 
     930 000000a1 8F00          MOVL      XAR4,#16777           ; [CPU_U] |432| 
         000000a2 4189 
     931 000000a3 A842          MOVL      *-SP[2],XAR4          ; [CPU_] |432| 
     932              $C$DW$78        .dwtag  DW_TAG_TI_branch
     933                      .dwattr $C$DW$78, DW_AT_low_pc(0x00)
     934                      .dwattr $C$DW$78, DW_AT_name("L$$DIV")
     935                      .dwattr $C$DW$78, DW_AT_TI_call
     936 000000a4 00C0!         FFC       XAR7,#L$$DIV          ; [CPU_] |432| 
         000000a5 0000 
     937                      ; call occurs [#L$$DIV] ; [] |432| 
     938 000000a6 8AE1          MOVL      XAR4,*+XAR1[4]        ; [CPU_] |432| 
     939 000000a7 96CC          MOV       *+XAR4[1],AL          ; [CPU_] |432| 
     940                      .dwpsn  file "D:/BM1000_v1.1/sw/drivers/drvic/fsm.h",line 433,column 3,is_stmt
     941 000000a8 8AE1          MOVL      XAR4,*+XAR1[4]        ; [CPU_] |433| 
     942 000000a9 D02E          MOVB      XAR0,#46              ; [CPU_] |433| 
     943 000000aa 924A          MOV       AL,*-SP[10]           ; [CPU_] |433| 
     944 000000ab 9694          MOV       *+XAR4[AR0],AL        ; [CPU_] |433| 
     945                      .dwpsn  file "D:/BM1000_v1.1/sw/drivers/drvic/fsm.h",line 434,column 3,is_stmt
     946 000000ac 9249          MOV       AL,*-SP[9]            ; [CPU_] |434| 
     947                      .dwpsn  file "D:/BM1000_v1.1/sw/drivers/drvic/fsm.h",line 436,column 3,is_stmt
     948 000000ad FFEF          B         $C$L13,UNC            ; [CPU_] |436| 
         000000ae 0139 
     949                      ; branch occurs ; [] |436| 
     950 000000af       $C$L6:    
     951                      .dwpsn  file "D:/BM1000_v1.1/sw/drivers/drvic/fsm.h",line 427,column 1,is_stmt
     952 000000af 5CAD          MOVZ      AR4,SP                ; [CPU_U] |427| 
     953 000000b0 76C0+         MOVL      XAR7,#_JM_FSM_MotorFunc+36 ; [CPU_U] |427| 
         000000b1 0024 
     954 000000b2 DC94          SUBB      XAR4,#20              ; [CPU_U] |427| 
     955 000000b3 F605          RPT       #5
     956 000000b4 2484  ||     PREAD     *XAR4++,*XAR7         ; [CPU_] |427| 
     957                      .dwpsn  file "D:/BM1000_v1.1/sw/drivers/drvic/fsm.h",line 430,column 3,is_stmt
     958 000000b5 8AE1          MOVL      XAR4,*+XAR1[4]        ; [CPU_] |430| 
     959 000000b6 D01F          MOVB      XAR0,#31              ; [CPU_] |430| 
     960 000000b7 9251          MOV       AL,*-SP[17]           ; [CPU_] |430| 
     961 000000b8 9694          MOV       *+XAR4[AR0],AL        ; [CPU_] |430| 
TMS320C2000 Assembler PC v6.2.5 Wed Nov 22 14:48:16 2017

Tools Copyright (c) 1996-2014 Texas Instruments Incorporated
C:\Users\wmj\AppData\Local\Temp\1257612                              PAGE   20

     962                      .dwpsn  file "D:/BM1000_v1.1/sw/drivers/drvic/fsm.h",line 431,column 3,is_stmt
     963 000000b9 8AE1          MOVL      XAR4,*+XAR1[4]        ; [CPU_] |431| 
     964 000000ba D010          MOVB      XAR0,#16              ; [CPU_] |431| 
     965 000000bb 9252          MOV       AL,*-SP[18]           ; [CPU_] |431| 
     966 000000bc 9694          MOV       *+XAR4[AR0],AL        ; [CPU_] |431| 
     967                      .dwpsn  file "D:/BM1000_v1.1/sw/drivers/drvic/fsm.h",line 432,column 3,is_stmt
     968 000000bd 0654          MOVL      ACC,*-SP[20]          ; [CPU_] |432| 
     969 000000be 88AD          MOVZ      AR6,SP                ; [CPU_U] |432| 
     970 000000bf DEC0          SUBB      XAR6,#64              ; [CPU_U] |432| 
     971              $C$DW$79        .dwtag  DW_TAG_TI_branch
     972                      .dwattr $C$DW$79, DW_AT_low_pc(0x00)
     973                      .dwattr $C$DW$79, DW_AT_name("FS$$TOFD")
     974                      .dwattr $C$DW$79, DW_AT_TI_call
     975 000000c0 7640!         LCR       #FS$$TOFD             ; [CPU_] |432| 
         000000c1 0000 
     976                      ; call occurs [#FS$$TOFD] ; [] |432| 
     977 000000c2 5CAD          MOVZ      AR4,SP                ; [CPU_U] |432| 
     978 000000c3 88AD          MOVZ      AR6,SP                ; [CPU_U] |432| 
     979 000000c4 8F40+         MOVL      XAR5,#$C$FL1          ; [CPU_U] |432| 
         000000c5 0000 
     980 000000c6 DCC0          SUBB      XAR4,#64              ; [CPU_U] |432| 
     981 000000c7 DEBC          SUBB      XAR6,#60              ; [CPU_U] |432| 
     982              $C$DW$80        .dwtag  DW_TAG_TI_branch
     983                      .dwattr $C$DW$80, DW_AT_low_pc(0x00)
     984                      .dwattr $C$DW$80, DW_AT_name("FD$$MPY")
     985                      .dwattr $C$DW$80, DW_AT_TI_call
     986 000000c8 7640!         LCR       #FD$$MPY              ; [CPU_] |432| 
         000000c9 0000 
     987                      ; call occurs [#FD$$MPY] ; [] |432| 
     988 000000ca 5CAD          MOVZ      AR4,SP                ; [CPU_U] |432| 
     989 000000cb DCBC          SUBB      XAR4,#60              ; [CPU_U] |432| 
     990              $C$DW$81        .dwtag  DW_TAG_TI_branch
     991                      .dwattr $C$DW$81, DW_AT_low_pc(0x00)
     992                      .dwattr $C$DW$81, DW_AT_name("FD$$TOL")
     993                      .dwattr $C$DW$81, DW_AT_TI_call
     994 000000cc 7640!         LCR       #FD$$TOL              ; [CPU_] |432| 
         000000cd 0000 
     995                      ; call occurs [#FD$$TOL] ; [] |432| 
     996 000000ce 8F00          MOVL      XAR4,#16777           ; [CPU_U] |432| 
         000000cf 4189 
     997 000000d0 A842          MOVL      *-SP[2],XAR4          ; [CPU_] |432| 
     998              $C$DW$82        .dwtag  DW_TAG_TI_branch
     999                      .dwattr $C$DW$82, DW_AT_low_pc(0x00)
    1000                      .dwattr $C$DW$82, DW_AT_name("L$$DIV")
    1001                      .dwattr $C$DW$82, DW_AT_TI_call
    1002 000000d1 00C0!         FFC       XAR7,#L$$DIV          ; [CPU_] |432| 
         000000d2 0000 
    1003                      ; call occurs [#L$$DIV] ; [] |432| 
    1004 000000d3 8AE1          MOVL      XAR4,*+XAR1[4]        ; [CPU_] |432| 
    1005 000000d4 96CC          MOV       *+XAR4[1],AL          ; [CPU_] |432| 
    1006                      .dwpsn  file "D:/BM1000_v1.1/sw/drivers/drvic/fsm.h",line 433,column 3,is_stmt
    1007 000000d5 8AE1          MOVL      XAR4,*+XAR1[4]        ; [CPU_] |433| 
    1008 000000d6 D02E          MOVB      XAR0,#46              ; [CPU_] |433| 
    1009 000000d7 9250          MOV       AL,*-SP[16]           ; [CPU_] |433| 
    1010 000000d8 9694          MOV       *+XAR4[AR0],AL        ; [CPU_] |433| 
TMS320C2000 Assembler PC v6.2.5 Wed Nov 22 14:48:16 2017

Tools Copyright (c) 1996-2014 Texas Instruments Incorporated
C:\Users\wmj\AppData\Local\Temp\1257612                              PAGE   21

    1011                      .dwpsn  file "D:/BM1000_v1.1/sw/drivers/drvic/fsm.h",line 434,column 3,is_stmt
    1012 000000d9 924F          MOV       AL,*-SP[15]           ; [CPU_] |434| 
    1013                      .dwpsn  file "D:/BM1000_v1.1/sw/drivers/drvic/fsm.h",line 436,column 3,is_stmt
    1014 000000da FFEF          B         $C$L13,UNC            ; [CPU_] |436| 
         000000db 010C 
    1015                      ; branch occurs ; [] |436| 
    1016 000000dc       $C$L7:    
    1017                      .dwpsn  file "D:/BM1000_v1.1/sw/drivers/drvic/fsm.h",line 427,column 1,is_stmt
    1018 000000dc 5CAD          MOVZ      AR4,SP                ; [CPU_U] |427| 
    1019 000000dd 76C0+         MOVL      XAR7,#_JM_FSM_MotorFunc+30 ; [CPU_U] |427| 
         000000de 001E 
    1020 000000df DC9A          SUBB      XAR4,#26              ; [CPU_U] |427| 
    1021 000000e0 F605          RPT       #5
    1022 000000e1 2484  ||     PREAD     *XAR4++,*XAR7         ; [CPU_] |427| 
    1023                      .dwpsn  file "D:/BM1000_v1.1/sw/drivers/drvic/fsm.h",line 430,column 3,is_stmt
    1024 000000e2 8AE1          MOVL      XAR4,*+XAR1[4]        ; [CPU_] |430| 
    1025 000000e3 D01F          MOVB      XAR0,#31              ; [CPU_] |430| 
    1026 000000e4 9257          MOV       AL,*-SP[23]           ; [CPU_] |430| 
    1027 000000e5 9694          MOV       *+XAR4[AR0],AL        ; [CPU_] |430| 
    1028                      .dwpsn  file "D:/BM1000_v1.1/sw/drivers/drvic/fsm.h",line 431,column 3,is_stmt
    1029 000000e6 8AE1          MOVL      XAR4,*+XAR1[4]        ; [CPU_] |431| 
    1030 000000e7 D010          MOVB      XAR0,#16              ; [CPU_] |431| 
    1031 000000e8 9258          MOV       AL,*-SP[24]           ; [CPU_] |431| 
    1032 000000e9 9694          MOV       *+XAR4[AR0],AL        ; [CPU_] |431| 
    1033                      .dwpsn  file "D:/BM1000_v1.1/sw/drivers/drvic/fsm.h",line 432,column 3,is_stmt
    1034 000000ea 065A          MOVL      ACC,*-SP[26]          ; [CPU_] |432| 
    1035 000000eb 88AD          MOVZ      AR6,SP                ; [CPU_U] |432| 
    1036 000000ec DEC0          SUBB      XAR6,#64              ; [CPU_U] |432| 
    1037              $C$DW$83        .dwtag  DW_TAG_TI_branch
    1038                      .dwattr $C$DW$83, DW_AT_low_pc(0x00)
    1039                      .dwattr $C$DW$83, DW_AT_name("FS$$TOFD")
    1040                      .dwattr $C$DW$83, DW_AT_TI_call
    1041 000000ed 7640!         LCR       #FS$$TOFD             ; [CPU_] |432| 
         000000ee 0000 
    1042                      ; call occurs [#FS$$TOFD] ; [] |432| 
    1043 000000ef 5CAD          MOVZ      AR4,SP                ; [CPU_U] |432| 
    1044 000000f0 88AD          MOVZ      AR6,SP                ; [CPU_U] |432| 
    1045 000000f1 8F40+         MOVL      XAR5,#$C$FL1          ; [CPU_U] |432| 
         000000f2 0000 
    1046 000000f3 DCC0          SUBB      XAR4,#64              ; [CPU_U] |432| 
    1047 000000f4 DEBC          SUBB      XAR6,#60              ; [CPU_U] |432| 
    1048              $C$DW$84        .dwtag  DW_TAG_TI_branch
    1049                      .dwattr $C$DW$84, DW_AT_low_pc(0x00)
    1050                      .dwattr $C$DW$84, DW_AT_name("FD$$MPY")
    1051                      .dwattr $C$DW$84, DW_AT_TI_call
    1052 000000f5 7640!         LCR       #FD$$MPY              ; [CPU_] |432| 
         000000f6 0000 
    1053                      ; call occurs [#FD$$MPY] ; [] |432| 
    1054 000000f7 5CAD          MOVZ      AR4,SP                ; [CPU_U] |432| 
    1055 000000f8 DCBC          SUBB      XAR4,#60              ; [CPU_U] |432| 
    1056              $C$DW$85        .dwtag  DW_TAG_TI_branch
    1057                      .dwattr $C$DW$85, DW_AT_low_pc(0x00)
    1058                      .dwattr $C$DW$85, DW_AT_name("FD$$TOL")
    1059                      .dwattr $C$DW$85, DW_AT_TI_call
    1060 000000f9 7640!         LCR       #FD$$TOL              ; [CPU_] |432| 
TMS320C2000 Assembler PC v6.2.5 Wed Nov 22 14:48:16 2017

Tools Copyright (c) 1996-2014 Texas Instruments Incorporated
C:\Users\wmj\AppData\Local\Temp\1257612                              PAGE   22

         000000fa 0000 
    1061                      ; call occurs [#FD$$TOL] ; [] |432| 
    1062 000000fb 8F00          MOVL      XAR4,#16777           ; [CPU_U] |432| 
         000000fc 4189 
    1063 000000fd A842          MOVL      *-SP[2],XAR4          ; [CPU_] |432| 
    1064              $C$DW$86        .dwtag  DW_TAG_TI_branch
    1065                      .dwattr $C$DW$86, DW_AT_low_pc(0x00)
    1066                      .dwattr $C$DW$86, DW_AT_name("L$$DIV")
    1067                      .dwattr $C$DW$86, DW_AT_TI_call
    1068 000000fe 00C0!         FFC       XAR7,#L$$DIV          ; [CPU_] |432| 
         000000ff 0000 
    1069                      ; call occurs [#L$$DIV] ; [] |432| 
    1070 00000100 8AE1          MOVL      XAR4,*+XAR1[4]        ; [CPU_] |432| 
    1071 00000101 96CC          MOV       *+XAR4[1],AL          ; [CPU_] |432| 
    1072                      .dwpsn  file "D:/BM1000_v1.1/sw/drivers/drvic/fsm.h",line 433,column 3,is_stmt
    1073 00000102 8AE1          MOVL      XAR4,*+XAR1[4]        ; [CPU_] |433| 
    1074 00000103 D02E          MOVB      XAR0,#46              ; [CPU_] |433| 
    1075 00000104 9256          MOV       AL,*-SP[22]           ; [CPU_] |433| 
    1076 00000105 9694          MOV       *+XAR4[AR0],AL        ; [CPU_] |433| 
    1077                      .dwpsn  file "D:/BM1000_v1.1/sw/drivers/drvic/fsm.h",line 434,column 3,is_stmt
    1078 00000106 9255          MOV       AL,*-SP[21]           ; [CPU_] |434| 
    1079                      .dwpsn  file "D:/BM1000_v1.1/sw/drivers/drvic/fsm.h",line 436,column 3,is_stmt
    1080 00000107 FFEF          B         $C$L13,UNC            ; [CPU_] |436| 
         00000108 00DF 
    1081                      ; branch occurs ; [] |436| 
    1082 00000109       $C$L8:    
    1083                      .dwpsn  file "D:/BM1000_v1.1/sw/drivers/drvic/fsm.h",line 427,column 1,is_stmt
    1084 00000109 5CAD          MOVZ      AR4,SP                ; [CPU_U] |427| 
    1085 0000010a 76C0+         MOVL      XAR7,#_JM_FSM_MotorFunc+24 ; [CPU_U] |427| 
         0000010b 0018 
    1086 0000010c DCA0          SUBB      XAR4,#32              ; [CPU_U] |427| 
    1087 0000010d F605          RPT       #5
    1088 0000010e 2484  ||     PREAD     *XAR4++,*XAR7         ; [CPU_] |427| 
    1089                      .dwpsn  file "D:/BM1000_v1.1/sw/drivers/drvic/fsm.h",line 430,column 3,is_stmt
    1090 0000010f 8AE1          MOVL      XAR4,*+XAR1[4]        ; [CPU_] |430| 
    1091 00000110 D01F          MOVB      XAR0,#31              ; [CPU_] |430| 
    1092 00000111 925D          MOV       AL,*-SP[29]           ; [CPU_] |430| 
    1093 00000112 9694          MOV       *+XAR4[AR0],AL        ; [CPU_] |430| 
    1094                      .dwpsn  file "D:/BM1000_v1.1/sw/drivers/drvic/fsm.h",line 431,column 3,is_stmt
    1095 00000113 8AE1          MOVL      XAR4,*+XAR1[4]        ; [CPU_] |431| 
    1096 00000114 D010          MOVB      XAR0,#16              ; [CPU_] |431| 
    1097 00000115 925E          MOV       AL,*-SP[30]           ; [CPU_] |431| 
    1098 00000116 9694          MOV       *+XAR4[AR0],AL        ; [CPU_] |431| 
    1099                      .dwpsn  file "D:/BM1000_v1.1/sw/drivers/drvic/fsm.h",line 432,column 3,is_stmt
    1100 00000117 0660          MOVL      ACC,*-SP[32]          ; [CPU_] |432| 
    1101 00000118 88AD          MOVZ      AR6,SP                ; [CPU_U] |432| 
    1102 00000119 DEC0          SUBB      XAR6,#64              ; [CPU_U] |432| 
    1103              $C$DW$87        .dwtag  DW_TAG_TI_branch
    1104                      .dwattr $C$DW$87, DW_AT_low_pc(0x00)
    1105                      .dwattr $C$DW$87, DW_AT_name("FS$$TOFD")
    1106                      .dwattr $C$DW$87, DW_AT_TI_call
    1107 0000011a 7640!         LCR       #FS$$TOFD             ; [CPU_] |432| 
         0000011b 0000 
    1108                      ; call occurs [#FS$$TOFD] ; [] |432| 
    1109 0000011c 5CAD          MOVZ      AR4,SP                ; [CPU_U] |432| 
TMS320C2000 Assembler PC v6.2.5 Wed Nov 22 14:48:16 2017

Tools Copyright (c) 1996-2014 Texas Instruments Incorporated
C:\Users\wmj\AppData\Local\Temp\1257612                              PAGE   23

    1110 0000011d 88AD          MOVZ      AR6,SP                ; [CPU_U] |432| 
    1111 0000011e 8F40+         MOVL      XAR5,#$C$FL1          ; [CPU_U] |432| 
         0000011f 0000 
    1112 00000120 DCC0          SUBB      XAR4,#64              ; [CPU_U] |432| 
    1113 00000121 DEBC          SUBB      XAR6,#60              ; [CPU_U] |432| 
    1114              $C$DW$88        .dwtag  DW_TAG_TI_branch
    1115                      .dwattr $C$DW$88, DW_AT_low_pc(0x00)
    1116                      .dwattr $C$DW$88, DW_AT_name("FD$$MPY")
    1117                      .dwattr $C$DW$88, DW_AT_TI_call
    1118 00000122 7640!         LCR       #FD$$MPY              ; [CPU_] |432| 
         00000123 0000 
    1119                      ; call occurs [#FD$$MPY] ; [] |432| 
    1120 00000124 5CAD          MOVZ      AR4,SP                ; [CPU_U] |432| 
    1121 00000125 DCBC          SUBB      XAR4,#60              ; [CPU_U] |432| 
    1122              $C$DW$89        .dwtag  DW_TAG_TI_branch
    1123                      .dwattr $C$DW$89, DW_AT_low_pc(0x00)
    1124                      .dwattr $C$DW$89, DW_AT_name("FD$$TOL")
    1125                      .dwattr $C$DW$89, DW_AT_TI_call
    1126 00000126 7640!         LCR       #FD$$TOL              ; [CPU_] |432| 
         00000127 0000 
    1127                      ; call occurs [#FD$$TOL] ; [] |432| 
    1128 00000128 8F00          MOVL      XAR4,#16777           ; [CPU_U] |432| 
         00000129 4189 
    1129 0000012a A842          MOVL      *-SP[2],XAR4          ; [CPU_] |432| 
    1130              $C$DW$90        .dwtag  DW_TAG_TI_branch
    1131                      .dwattr $C$DW$90, DW_AT_low_pc(0x00)
    1132                      .dwattr $C$DW$90, DW_AT_name("L$$DIV")
    1133                      .dwattr $C$DW$90, DW_AT_TI_call
    1134 0000012b 00C0!         FFC       XAR7,#L$$DIV          ; [CPU_] |432| 
         0000012c 0000 
    1135                      ; call occurs [#L$$DIV] ; [] |432| 
    1136 0000012d 8AE1          MOVL      XAR4,*+XAR1[4]        ; [CPU_] |432| 
    1137 0000012e 96CC          MOV       *+XAR4[1],AL          ; [CPU_] |432| 
    1138                      .dwpsn  file "D:/BM1000_v1.1/sw/drivers/drvic/fsm.h",line 433,column 3,is_stmt
    1139 0000012f 8AE1          MOVL      XAR4,*+XAR1[4]        ; [CPU_] |433| 
    1140 00000130 D02E          MOVB      XAR0,#46              ; [CPU_] |433| 
    1141 00000131 925C          MOV       AL,*-SP[28]           ; [CPU_] |433| 
    1142 00000132 9694          MOV       *+XAR4[AR0],AL        ; [CPU_] |433| 
    1143                      .dwpsn  file "D:/BM1000_v1.1/sw/drivers/drvic/fsm.h",line 434,column 3,is_stmt
    1144 00000133 925B          MOV       AL,*-SP[27]           ; [CPU_] |434| 
    1145                      .dwpsn  file "D:/BM1000_v1.1/sw/drivers/drvic/fsm.h",line 436,column 3,is_stmt
    1146 00000134 FFEF          B         $C$L13,UNC            ; [CPU_] |436| 
         00000135 00B2 
    1147                      ; branch occurs ; [] |436| 
    1148 00000136       $C$L9:    
    1149                      .dwpsn  file "D:/BM1000_v1.1/sw/drivers/drvic/fsm.h",line 427,column 1,is_stmt
    1150 00000136 5CAD          MOVZ      AR4,SP                ; [CPU_U] |427| 
    1151 00000137 76C0+         MOVL      XAR7,#_JM_FSM_MotorFunc+18 ; [CPU_U] |427| 
         00000138 0012 
    1152 00000139 DCA6          SUBB      XAR4,#38              ; [CPU_U] |427| 
    1153 0000013a F605          RPT       #5
    1154 0000013b 2484  ||     PREAD     *XAR4++,*XAR7         ; [CPU_] |427| 
    1155                      .dwpsn  file "D:/BM1000_v1.1/sw/drivers/drvic/fsm.h",line 430,column 3,is_stmt
    1156 0000013c 8AE1          MOVL      XAR4,*+XAR1[4]        ; [CPU_] |430| 
    1157 0000013d D01F          MOVB      XAR0,#31              ; [CPU_] |430| 
TMS320C2000 Assembler PC v6.2.5 Wed Nov 22 14:48:16 2017

Tools Copyright (c) 1996-2014 Texas Instruments Incorporated
C:\Users\wmj\AppData\Local\Temp\1257612                              PAGE   24

    1158 0000013e 9263          MOV       AL,*-SP[35]           ; [CPU_] |430| 
    1159 0000013f 9694          MOV       *+XAR4[AR0],AL        ; [CPU_] |430| 
    1160                      .dwpsn  file "D:/BM1000_v1.1/sw/drivers/drvic/fsm.h",line 431,column 3,is_stmt
    1161 00000140 8AE1          MOVL      XAR4,*+XAR1[4]        ; [CPU_] |431| 
    1162 00000141 D010          MOVB      XAR0,#16              ; [CPU_] |431| 
    1163 00000142 9264          MOV       AL,*-SP[36]           ; [CPU_] |431| 
    1164 00000143 9694          MOV       *+XAR4[AR0],AL        ; [CPU_] |431| 
    1165                      .dwpsn  file "D:/BM1000_v1.1/sw/drivers/drvic/fsm.h",line 432,column 3,is_stmt
    1166 00000144 0666          MOVL      ACC,*-SP[38]          ; [CPU_] |432| 
    1167 00000145 88AD          MOVZ      AR6,SP                ; [CPU_U] |432| 
    1168 00000146 DEC0          SUBB      XAR6,#64              ; [CPU_U] |432| 
    1169              $C$DW$91        .dwtag  DW_TAG_TI_branch
    1170                      .dwattr $C$DW$91, DW_AT_low_pc(0x00)
    1171                      .dwattr $C$DW$91, DW_AT_name("FS$$TOFD")
    1172                      .dwattr $C$DW$91, DW_AT_TI_call
    1173 00000147 7640!         LCR       #FS$$TOFD             ; [CPU_] |432| 
         00000148 0000 
    1174                      ; call occurs [#FS$$TOFD] ; [] |432| 
    1175 00000149 5CAD          MOVZ      AR4,SP                ; [CPU_U] |432| 
    1176 0000014a 88AD          MOVZ      AR6,SP                ; [CPU_U] |432| 
    1177 0000014b 8F40+         MOVL      XAR5,#$C$FL1          ; [CPU_U] |432| 
         0000014c 0000 
    1178 0000014d DCC0          SUBB      XAR4,#64              ; [CPU_U] |432| 
    1179 0000014e DEBC          SUBB      XAR6,#60              ; [CPU_U] |432| 
    1180              $C$DW$92        .dwtag  DW_TAG_TI_branch
    1181                      .dwattr $C$DW$92, DW_AT_low_pc(0x00)
    1182                      .dwattr $C$DW$92, DW_AT_name("FD$$MPY")
    1183                      .dwattr $C$DW$92, DW_AT_TI_call
    1184 0000014f 7640!         LCR       #FD$$MPY              ; [CPU_] |432| 
         00000150 0000 
    1185                      ; call occurs [#FD$$MPY] ; [] |432| 
    1186 00000151 5CAD          MOVZ      AR4,SP                ; [CPU_U] |432| 
    1187 00000152 DCBC          SUBB      XAR4,#60              ; [CPU_U] |432| 
    1188              $C$DW$93        .dwtag  DW_TAG_TI_branch
    1189                      .dwattr $C$DW$93, DW_AT_low_pc(0x00)
    1190                      .dwattr $C$DW$93, DW_AT_name("FD$$TOL")
    1191                      .dwattr $C$DW$93, DW_AT_TI_call
    1192 00000153 7640!         LCR       #FD$$TOL              ; [CPU_] |432| 
         00000154 0000 
    1193                      ; call occurs [#FD$$TOL] ; [] |432| 
    1194 00000155 8F00          MOVL      XAR4,#16777           ; [CPU_U] |432| 
         00000156 4189 
    1195 00000157 A842          MOVL      *-SP[2],XAR4          ; [CPU_] |432| 
    1196              $C$DW$94        .dwtag  DW_TAG_TI_branch
    1197                      .dwattr $C$DW$94, DW_AT_low_pc(0x00)
    1198                      .dwattr $C$DW$94, DW_AT_name("L$$DIV")
    1199                      .dwattr $C$DW$94, DW_AT_TI_call
    1200 00000158 00C0!         FFC       XAR7,#L$$DIV          ; [CPU_] |432| 
         00000159 0000 
    1201                      ; call occurs [#L$$DIV] ; [] |432| 
    1202 0000015a 8AE1          MOVL      XAR4,*+XAR1[4]        ; [CPU_] |432| 
    1203 0000015b 96CC          MOV       *+XAR4[1],AL          ; [CPU_] |432| 
    1204                      .dwpsn  file "D:/BM1000_v1.1/sw/drivers/drvic/fsm.h",line 433,column 3,is_stmt
    1205 0000015c 8AE1          MOVL      XAR4,*+XAR1[4]        ; [CPU_] |433| 
    1206 0000015d D02E          MOVB      XAR0,#46              ; [CPU_] |433| 
TMS320C2000 Assembler PC v6.2.5 Wed Nov 22 14:48:16 2017

Tools Copyright (c) 1996-2014 Texas Instruments Incorporated
C:\Users\wmj\AppData\Local\Temp\1257612                              PAGE   25

    1207 0000015e 9262          MOV       AL,*-SP[34]           ; [CPU_] |433| 
    1208 0000015f 9694          MOV       *+XAR4[AR0],AL        ; [CPU_] |433| 
    1209                      .dwpsn  file "D:/BM1000_v1.1/sw/drivers/drvic/fsm.h",line 434,column 3,is_stmt
    1210 00000160 9261          MOV       AL,*-SP[33]           ; [CPU_] |434| 
    1211                      .dwpsn  file "D:/BM1000_v1.1/sw/drivers/drvic/fsm.h",line 436,column 3,is_stmt
    1212 00000161 FFEF          B         $C$L13,UNC            ; [CPU_] |436| 
         00000162 0085 
    1213                      ; branch occurs ; [] |436| 
    1214 00000163       $C$L10:    
    1215                      .dwpsn  file "D:/BM1000_v1.1/sw/drivers/drvic/fsm.h",line 427,column 1,is_stmt
    1216 00000163 5CAD          MOVZ      AR4,SP                ; [CPU_U] |427| 
    1217 00000164 76C0+         MOVL      XAR7,#_JM_FSM_MotorFunc+12 ; [CPU_U] |427| 
         00000165 000C 
    1218 00000166 DCAC          SUBB      XAR4,#44              ; [CPU_U] |427| 
    1219 00000167 F605          RPT       #5
    1220 00000168 2484  ||     PREAD     *XAR4++,*XAR7         ; [CPU_] |427| 
    1221                      .dwpsn  file "D:/BM1000_v1.1/sw/drivers/drvic/fsm.h",line 430,column 3,is_stmt
    1222 00000169 8AE1          MOVL      XAR4,*+XAR1[4]        ; [CPU_] |430| 
    1223 0000016a D01F          MOVB      XAR0,#31              ; [CPU_] |430| 
    1224 0000016b 9269          MOV       AL,*-SP[41]           ; [CPU_] |430| 
    1225 0000016c 9694          MOV       *+XAR4[AR0],AL        ; [CPU_] |430| 
    1226                      .dwpsn  file "D:/BM1000_v1.1/sw/drivers/drvic/fsm.h",line 431,column 3,is_stmt
    1227 0000016d 8AE1          MOVL      XAR4,*+XAR1[4]        ; [CPU_] |431| 
    1228 0000016e D010          MOVB      XAR0,#16              ; [CPU_] |431| 
    1229 0000016f 926A          MOV       AL,*-SP[42]           ; [CPU_] |431| 
    1230 00000170 9694          MOV       *+XAR4[AR0],AL        ; [CPU_] |431| 
    1231                      .dwpsn  file "D:/BM1000_v1.1/sw/drivers/drvic/fsm.h",line 432,column 3,is_stmt
    1232 00000171 066C          MOVL      ACC,*-SP[44]          ; [CPU_] |432| 
    1233 00000172 88AD          MOVZ      AR6,SP                ; [CPU_U] |432| 
    1234 00000173 DEC0          SUBB      XAR6,#64              ; [CPU_U] |432| 
    1235              $C$DW$95        .dwtag  DW_TAG_TI_branch
    1236                      .dwattr $C$DW$95, DW_AT_low_pc(0x00)
    1237                      .dwattr $C$DW$95, DW_AT_name("FS$$TOFD")
    1238                      .dwattr $C$DW$95, DW_AT_TI_call
    1239 00000174 7640!         LCR       #FS$$TOFD             ; [CPU_] |432| 
         00000175 0000 
    1240                      ; call occurs [#FS$$TOFD] ; [] |432| 
    1241 00000176 5CAD          MOVZ      AR4,SP                ; [CPU_U] |432| 
    1242 00000177 88AD          MOVZ      AR6,SP                ; [CPU_U] |432| 
    1243 00000178 8F40+         MOVL      XAR5,#$C$FL1          ; [CPU_U] |432| 
         00000179 0000 
    1244 0000017a DCC0          SUBB      XAR4,#64              ; [CPU_U] |432| 
    1245 0000017b DEBC          SUBB      XAR6,#60              ; [CPU_U] |432| 
    1246              $C$DW$96        .dwtag  DW_TAG_TI_branch
    1247                      .dwattr $C$DW$96, DW_AT_low_pc(0x00)
    1248                      .dwattr $C$DW$96, DW_AT_name("FD$$MPY")
    1249                      .dwattr $C$DW$96, DW_AT_TI_call
    1250 0000017c 7640!         LCR       #FD$$MPY              ; [CPU_] |432| 
         0000017d 0000 
    1251                      ; call occurs [#FD$$MPY] ; [] |432| 
    1252 0000017e 5CAD          MOVZ      AR4,SP                ; [CPU_U] |432| 
    1253 0000017f DCBC          SUBB      XAR4,#60              ; [CPU_U] |432| 
    1254              $C$DW$97        .dwtag  DW_TAG_TI_branch
    1255                      .dwattr $C$DW$97, DW_AT_low_pc(0x00)
    1256                      .dwattr $C$DW$97, DW_AT_name("FD$$TOL")
TMS320C2000 Assembler PC v6.2.5 Wed Nov 22 14:48:16 2017

Tools Copyright (c) 1996-2014 Texas Instruments Incorporated
C:\Users\wmj\AppData\Local\Temp\1257612                              PAGE   26

    1257                      .dwattr $C$DW$97, DW_AT_TI_call
    1258 00000180 7640!         LCR       #FD$$TOL              ; [CPU_] |432| 
         00000181 0000 
    1259                      ; call occurs [#FD$$TOL] ; [] |432| 
    1260 00000182 8F00          MOVL      XAR4,#16777           ; [CPU_U] |432| 
         00000183 4189 
    1261 00000184 A842          MOVL      *-SP[2],XAR4          ; [CPU_] |432| 
    1262              $C$DW$98        .dwtag  DW_TAG_TI_branch
    1263                      .dwattr $C$DW$98, DW_AT_low_pc(0x00)
    1264                      .dwattr $C$DW$98, DW_AT_name("L$$DIV")
    1265                      .dwattr $C$DW$98, DW_AT_TI_call
    1266 00000185 00C0!         FFC       XAR7,#L$$DIV          ; [CPU_] |432| 
         00000186 0000 
    1267                      ; call occurs [#L$$DIV] ; [] |432| 
    1268 00000187 8AE1          MOVL      XAR4,*+XAR1[4]        ; [CPU_] |432| 
    1269 00000188 96CC          MOV       *+XAR4[1],AL          ; [CPU_] |432| 
    1270                      .dwpsn  file "D:/BM1000_v1.1/sw/drivers/drvic/fsm.h",line 433,column 3,is_stmt
    1271 00000189 8AE1          MOVL      XAR4,*+XAR1[4]        ; [CPU_] |433| 
    1272 0000018a D02E          MOVB      XAR0,#46              ; [CPU_] |433| 
    1273 0000018b 9268          MOV       AL,*-SP[40]           ; [CPU_] |433| 
    1274 0000018c 9694          MOV       *+XAR4[AR0],AL        ; [CPU_] |433| 
    1275                      .dwpsn  file "D:/BM1000_v1.1/sw/drivers/drvic/fsm.h",line 434,column 3,is_stmt
    1276 0000018d 9267          MOV       AL,*-SP[39]           ; [CPU_] |434| 
    1277                      .dwpsn  file "D:/BM1000_v1.1/sw/drivers/drvic/fsm.h",line 436,column 3,is_stmt
    1278 0000018e 6F58          B         $C$L13,UNC            ; [CPU_] |436| 
    1279                      ; branch occurs ; [] |436| 
    1280 0000018f       $C$L11:    
    1281                      .dwpsn  file "D:/BM1000_v1.1/sw/drivers/drvic/fsm.h",line 427,column 1,is_stmt
    1282 0000018f 5CAD          MOVZ      AR4,SP                ; [CPU_U] |427| 
    1283 00000190 76C0+         MOVL      XAR7,#_JM_FSM_MotorFunc+6 ; [CPU_U] |427| 
         00000191 0006 
    1284 00000192 DCB2          SUBB      XAR4,#50              ; [CPU_U] |427| 
    1285 00000193 F605          RPT       #5
    1286 00000194 2484  ||     PREAD     *XAR4++,*XAR7         ; [CPU_] |427| 
    1287                      .dwpsn  file "D:/BM1000_v1.1/sw/drivers/drvic/fsm.h",line 430,column 3,is_stmt
    1288 00000195 8AE1          MOVL      XAR4,*+XAR1[4]        ; [CPU_] |430| 
    1289 00000196 D01F          MOVB      XAR0,#31              ; [CPU_] |430| 
    1290 00000197 926F          MOV       AL,*-SP[47]           ; [CPU_] |430| 
    1291 00000198 9694          MOV       *+XAR4[AR0],AL        ; [CPU_] |430| 
    1292                      .dwpsn  file "D:/BM1000_v1.1/sw/drivers/drvic/fsm.h",line 431,column 3,is_stmt
    1293 00000199 8AE1          MOVL      XAR4,*+XAR1[4]        ; [CPU_] |431| 
    1294 0000019a D010          MOVB      XAR0,#16              ; [CPU_] |431| 
    1295 0000019b 9270          MOV       AL,*-SP[48]           ; [CPU_] |431| 
    1296 0000019c 9694          MOV       *+XAR4[AR0],AL        ; [CPU_] |431| 
    1297                      .dwpsn  file "D:/BM1000_v1.1/sw/drivers/drvic/fsm.h",line 432,column 3,is_stmt
    1298 0000019d 0672          MOVL      ACC,*-SP[50]          ; [CPU_] |432| 
    1299 0000019e 88AD          MOVZ      AR6,SP                ; [CPU_U] |432| 
    1300 0000019f DEC0          SUBB      XAR6,#64              ; [CPU_U] |432| 
    1301              $C$DW$99        .dwtag  DW_TAG_TI_branch
    1302                      .dwattr $C$DW$99, DW_AT_low_pc(0x00)
    1303                      .dwattr $C$DW$99, DW_AT_name("FS$$TOFD")
    1304                      .dwattr $C$DW$99, DW_AT_TI_call
    1305 000001a0 7640!         LCR       #FS$$TOFD             ; [CPU_] |432| 
         000001a1 0000 
    1306                      ; call occurs [#FS$$TOFD] ; [] |432| 
TMS320C2000 Assembler PC v6.2.5 Wed Nov 22 14:48:16 2017

Tools Copyright (c) 1996-2014 Texas Instruments Incorporated
C:\Users\wmj\AppData\Local\Temp\1257612                              PAGE   27

    1307 000001a2 5CAD          MOVZ      AR4,SP                ; [CPU_U] |432| 
    1308 000001a3 88AD          MOVZ      AR6,SP                ; [CPU_U] |432| 
    1309 000001a4 8F40+         MOVL      XAR5,#$C$FL1          ; [CPU_U] |432| 
         000001a5 0000 
    1310 000001a6 DCC0          SUBB      XAR4,#64              ; [CPU_U] |432| 
    1311 000001a7 DEBC          SUBB      XAR6,#60              ; [CPU_U] |432| 
    1312              $C$DW$100       .dwtag  DW_TAG_TI_branch
    1313                      .dwattr $C$DW$100, DW_AT_low_pc(0x00)
    1314                      .dwattr $C$DW$100, DW_AT_name("FD$$MPY")
    1315                      .dwattr $C$DW$100, DW_AT_TI_call
    1316 000001a8 7640!         LCR       #FD$$MPY              ; [CPU_] |432| 
         000001a9 0000 
    1317                      ; call occurs [#FD$$MPY] ; [] |432| 
    1318 000001aa 5CAD          MOVZ      AR4,SP                ; [CPU_U] |432| 
    1319 000001ab DCBC          SUBB      XAR4,#60              ; [CPU_U] |432| 
    1320              $C$DW$101       .dwtag  DW_TAG_TI_branch
    1321                      .dwattr $C$DW$101, DW_AT_low_pc(0x00)
    1322                      .dwattr $C$DW$101, DW_AT_name("FD$$TOL")
    1323                      .dwattr $C$DW$101, DW_AT_TI_call
    1324 000001ac 7640!         LCR       #FD$$TOL              ; [CPU_] |432| 
         000001ad 0000 
    1325                      ; call occurs [#FD$$TOL] ; [] |432| 
    1326 000001ae 8F00          MOVL      XAR4,#16777           ; [CPU_U] |432| 
         000001af 4189 
    1327 000001b0 A842          MOVL      *-SP[2],XAR4          ; [CPU_] |432| 
    1328              $C$DW$102       .dwtag  DW_TAG_TI_branch
    1329                      .dwattr $C$DW$102, DW_AT_low_pc(0x00)
    1330                      .dwattr $C$DW$102, DW_AT_name("L$$DIV")
    1331                      .dwattr $C$DW$102, DW_AT_TI_call
    1332 000001b1 00C0!         FFC       XAR7,#L$$DIV          ; [CPU_] |432| 
         000001b2 0000 
    1333                      ; call occurs [#L$$DIV] ; [] |432| 
    1334 000001b3 8AE1          MOVL      XAR4,*+XAR1[4]        ; [CPU_] |432| 
    1335 000001b4 96CC          MOV       *+XAR4[1],AL          ; [CPU_] |432| 
    1336                      .dwpsn  file "D:/BM1000_v1.1/sw/drivers/drvic/fsm.h",line 433,column 3,is_stmt
    1337 000001b5 8AE1          MOVL      XAR4,*+XAR1[4]        ; [CPU_] |433| 
    1338 000001b6 D02E          MOVB      XAR0,#46              ; [CPU_] |433| 
    1339 000001b7 926E          MOV       AL,*-SP[46]           ; [CPU_] |433| 
    1340 000001b8 9694          MOV       *+XAR4[AR0],AL        ; [CPU_] |433| 
    1341                      .dwpsn  file "D:/BM1000_v1.1/sw/drivers/drvic/fsm.h",line 434,column 3,is_stmt
    1342 000001b9 926D          MOV       AL,*-SP[45]           ; [CPU_] |434| 
    1343                      .dwpsn  file "D:/BM1000_v1.1/sw/drivers/drvic/fsm.h",line 436,column 3,is_stmt
    1344 000001ba 6F2C          B         $C$L13,UNC            ; [CPU_] |436| 
    1345                      ; branch occurs ; [] |436| 
    1346 000001bb       $C$L12:    
    1347                      .dwpsn  file "D:/BM1000_v1.1/sw/drivers/drvic/fsm.h",line 427,column 1,is_stmt
    1348 000001bb 5CAD          MOVZ      AR4,SP                ; [CPU_U] |427| 
    1349 000001bc 76C0+         MOVL      XAR7,#_JM_FSM_MotorFunc ; [CPU_U] |427| 
         000001bd 0000 
    1350 000001be DCB8          SUBB      XAR4,#56              ; [CPU_U] |427| 
    1351 000001bf F605          RPT       #5
    1352 000001c0 2484  ||     PREAD     *XAR4++,*XAR7         ; [CPU_] |427| 
    1353                      .dwpsn  file "D:/BM1000_v1.1/sw/drivers/drvic/fsm.h",line 430,column 3,is_stmt
    1354 000001c1 8AE1          MOVL      XAR4,*+XAR1[4]        ; [CPU_] |430| 
    1355 000001c2 D01F          MOVB      XAR0,#31              ; [CPU_] |430| 
TMS320C2000 Assembler PC v6.2.5 Wed Nov 22 14:48:16 2017

Tools Copyright (c) 1996-2014 Texas Instruments Incorporated
C:\Users\wmj\AppData\Local\Temp\1257612                              PAGE   28

    1356 000001c3 9275          MOV       AL,*-SP[53]           ; [CPU_] |430| 
    1357 000001c4 9694          MOV       *+XAR4[AR0],AL        ; [CPU_] |430| 
    1358                      .dwpsn  file "D:/BM1000_v1.1/sw/drivers/drvic/fsm.h",line 431,column 3,is_stmt
    1359 000001c5 8AE1          MOVL      XAR4,*+XAR1[4]        ; [CPU_] |431| 
    1360 000001c6 D010          MOVB      XAR0,#16              ; [CPU_] |431| 
    1361 000001c7 9276          MOV       AL,*-SP[54]           ; [CPU_] |431| 
    1362 000001c8 9694          MOV       *+XAR4[AR0],AL        ; [CPU_] |431| 
    1363                      .dwpsn  file "D:/BM1000_v1.1/sw/drivers/drvic/fsm.h",line 432,column 3,is_stmt
    1364 000001c9 0678          MOVL      ACC,*-SP[56]          ; [CPU_] |432| 
    1365 000001ca 88AD          MOVZ      AR6,SP                ; [CPU_U] |432| 
    1366 000001cb DEC0          SUBB      XAR6,#64              ; [CPU_U] |432| 
    1367              $C$DW$103       .dwtag  DW_TAG_TI_branch
    1368                      .dwattr $C$DW$103, DW_AT_low_pc(0x00)
    1369                      .dwattr $C$DW$103, DW_AT_name("FS$$TOFD")
    1370                      .dwattr $C$DW$103, DW_AT_TI_call
    1371 000001cc 7640!         LCR       #FS$$TOFD             ; [CPU_] |432| 
         000001cd 0000 
    1372                      ; call occurs [#FS$$TOFD] ; [] |432| 
    1373 000001ce 5CAD          MOVZ      AR4,SP                ; [CPU_U] |432| 
    1374 000001cf 88AD          MOVZ      AR6,SP                ; [CPU_U] |432| 
    1375 000001d0 8F40+         MOVL      XAR5,#$C$FL1          ; [CPU_U] |432| 
         000001d1 0000 
    1376 000001d2 DCC0          SUBB      XAR4,#64              ; [CPU_U] |432| 
    1377 000001d3 DEBC          SUBB      XAR6,#60              ; [CPU_U] |432| 
    1378              $C$DW$104       .dwtag  DW_TAG_TI_branch
    1379                      .dwattr $C$DW$104, DW_AT_low_pc(0x00)
    1380                      .dwattr $C$DW$104, DW_AT_name("FD$$MPY")
    1381                      .dwattr $C$DW$104, DW_AT_TI_call
    1382 000001d4 7640!         LCR       #FD$$MPY              ; [CPU_] |432| 
         000001d5 0000 
    1383                      ; call occurs [#FD$$MPY] ; [] |432| 
    1384 000001d6 5CAD          MOVZ      AR4,SP                ; [CPU_U] |432| 
    1385 000001d7 DCBC          SUBB      XAR4,#60              ; [CPU_U] |432| 
    1386              $C$DW$105       .dwtag  DW_TAG_TI_branch
    1387                      .dwattr $C$DW$105, DW_AT_low_pc(0x00)
    1388                      .dwattr $C$DW$105, DW_AT_name("FD$$TOL")
    1389                      .dwattr $C$DW$105, DW_AT_TI_call
    1390 000001d8 7640!         LCR       #FD$$TOL              ; [CPU_] |432| 
         000001d9 0000 
    1391                      ; call occurs [#FD$$TOL] ; [] |432| 
    1392 000001da 8F00          MOVL      XAR4,#16777           ; [CPU_U] |432| 
         000001db 4189 
    1393 000001dc A842          MOVL      *-SP[2],XAR4          ; [CPU_] |432| 
    1394              $C$DW$106       .dwtag  DW_TAG_TI_branch
    1395                      .dwattr $C$DW$106, DW_AT_low_pc(0x00)
    1396                      .dwattr $C$DW$106, DW_AT_name("L$$DIV")
    1397                      .dwattr $C$DW$106, DW_AT_TI_call
    1398 000001dd 00C0!         FFC       XAR7,#L$$DIV          ; [CPU_] |432| 
         000001de 0000 
    1399                      ; call occurs [#L$$DIV] ; [] |432| 
    1400 000001df 8AE1          MOVL      XAR4,*+XAR1[4]        ; [CPU_] |432| 
    1401 000001e0 96CC          MOV       *+XAR4[1],AL          ; [CPU_] |432| 
    1402                      .dwpsn  file "D:/BM1000_v1.1/sw/drivers/drvic/fsm.h",line 433,column 3,is_stmt
    1403 000001e1 8AE1          MOVL      XAR4,*+XAR1[4]        ; [CPU_] |433| 
    1404 000001e2 D02E          MOVB      XAR0,#46              ; [CPU_] |433| 
TMS320C2000 Assembler PC v6.2.5 Wed Nov 22 14:48:16 2017

Tools Copyright (c) 1996-2014 Texas Instruments Incorporated
C:\Users\wmj\AppData\Local\Temp\1257612                              PAGE   29

    1405 000001e3 9274          MOV       AL,*-SP[52]           ; [CPU_] |433| 
    1406 000001e4 9694          MOV       *+XAR4[AR0],AL        ; [CPU_] |433| 
    1407                      .dwpsn  file "D:/BM1000_v1.1/sw/drivers/drvic/fsm.h",line 434,column 3,is_stmt
    1408 000001e5 9273          MOV       AL,*-SP[51]           ; [CPU_] |434| 
    1409 000001e6       $C$L13:    
    1410                      .dwpsn  file "D:/BM1000_v1.1/sw/drivers/drvic/fsm.c",line 362,column 4,is_stmt
    1411 000001e6 88AD          MOVZ      AR6,SP                ; [CPU_U] |362| 
    1412                      .dwpsn  file "D:/BM1000_v1.1/sw/drivers/drvic/fsm.h",line 434,column 3,is_stmt
    1413 000001e7 8AE1          MOVL      XAR4,*+XAR1[4]        ; [CPU_] |434| 
    1414 000001e8 D03D          MOVB      XAR0,#61              ; [CPU_] |434| 
    1415 000001e9 3B01          SETC      SXM                   ; [CPU_] 
    1416                      .dwpsn  file "D:/BM1000_v1.1/sw/drivers/drvic/fsm.c",line 362,column 4,is_stmt
    1417 000001ea DEC0          SUBB      XAR6,#64              ; [CPU_U] |362| 
    1418                      .dwpsn  file "D:/BM1000_v1.1/sw/drivers/drvic/fsm.h",line 434,column 3,is_stmt
    1419 000001eb 9694          MOV       *+XAR4[AR0],AL        ; [CPU_] |434| 
    1420                      .dwpsn  file "D:/BM1000_v1.1/sw/drivers/drvic/fsm.c",line 362,column 4,is_stmt
    1421 000001ec D00A          MOVB      XAR0,#10              ; [CPU_] |362| 
    1422 000001ed 5603          MOV       ACC,*+XAR1[AR0] << 1  ; [CPU_] |362| 
         000001ee 0191 
    1423 000001ef 8F00+         MOVL      XAR4,#_FSM_MaxTorque  ; [CPU_U] |362| 
         000001f0 0000 
    1424 000001f1 5601          ADDL      XAR4,ACC              ; [CPU_] |362| 
         000001f2 00A4 
    1425 000001f3 06C4          MOVL      ACC,*+XAR4[0]         ; [CPU_] |362| 
    1426              $C$DW$107       .dwtag  DW_TAG_TI_branch
    1427                      .dwattr $C$DW$107, DW_AT_low_pc(0x00)
    1428                      .dwattr $C$DW$107, DW_AT_name("FS$$TOFD")
    1429                      .dwattr $C$DW$107, DW_AT_TI_call
    1430 000001f4 7640!         LCR       #FS$$TOFD             ; [CPU_] |362| 
         000001f5 0000 
    1431                      ; call occurs [#FS$$TOFD] ; [] |362| 
    1432 000001f6 5CAD          MOVZ      AR4,SP                ; [CPU_U] |362| 
    1433 000001f7 88AD          MOVZ      AR6,SP                ; [CPU_U] |362| 
    1434 000001f8 8F40+         MOVL      XAR5,#$C$FL1          ; [CPU_U] |362| 
         000001f9 0000 
    1435 000001fa DCC0          SUBB      XAR4,#64              ; [CPU_U] |362| 
    1436 000001fb DEBC          SUBB      XAR6,#60              ; [CPU_U] |362| 
    1437              $C$DW$108       .dwtag  DW_TAG_TI_branch
    1438                      .dwattr $C$DW$108, DW_AT_low_pc(0x00)
    1439                      .dwattr $C$DW$108, DW_AT_name("FD$$MPY")
    1440                      .dwattr $C$DW$108, DW_AT_TI_call
    1441 000001fc 7640!         LCR       #FD$$MPY              ; [CPU_] |362| 
         000001fd 0000 
    1442                      ; call occurs [#FD$$MPY] ; [] |362| 
    1443 000001fe 5CAD          MOVZ      AR4,SP                ; [CPU_U] |362| 
    1444 000001ff DCBC          SUBB      XAR4,#60              ; [CPU_U] |362| 
    1445              $C$DW$109       .dwtag  DW_TAG_TI_branch
    1446                      .dwattr $C$DW$109, DW_AT_low_pc(0x00)
    1447                      .dwattr $C$DW$109, DW_AT_name("FD$$TOL")
    1448                      .dwattr $C$DW$109, DW_AT_TI_call
    1449 00000200 7640!         LCR       #FD$$TOL              ; [CPU_] |362| 
         00000201 0000 
    1450                      ; call occurs [#FD$$TOL] ; [] |362| 
    1451 00000202 D012          MOVB      XAR0,#18              ; [CPU_] |362| 
    1452 00000203 1E91          MOVL      *+XAR1[AR0],ACC       ; [CPU_] |362| 
TMS320C2000 Assembler PC v6.2.5 Wed Nov 22 14:48:16 2017

Tools Copyright (c) 1996-2014 Texas Instruments Incorporated
C:\Users\wmj\AppData\Local\Temp\1257612                              PAGE   30

    1453 00000204 FEC0          SUBB      SP,#64                ; [CPU_U] 
    1454                      .dwcfi  cfa_offset, -4
    1455 00000205 8BBE          MOVL      XAR1,*--SP            ; [CPU_] 
    1456                      .dwcfi  cfa_offset, -2
    1457                      .dwcfi  restore_reg, 7
    1458              $C$DW$110       .dwtag  DW_TAG_TI_branch
    1459                      .dwattr $C$DW$110, DW_AT_low_pc(0x00)
    1460                      .dwattr $C$DW$110, DW_AT_TI_return
    1461 00000206 0006          LRETR     ; [CPU_] 
    1462                      ; return occurs ; [] 
    1463                      .dwattr $C$DW$59, DW_AT_TI_end_file("D:/BM1000_v1.1/sw/drivers/drvic/fsm.c")
    1464                      .dwattr $C$DW$59, DW_AT_TI_end_line(0x16d)
    1465                      .dwattr $C$DW$59, DW_AT_TI_end_column(0x01)
    1466                      .dwendentry
    1467                      .dwendtag $C$DW$59
    1468              
    1469 00000207               .sect   ".text"
    1470                      .clink
    1471                      .global _FSM_State_Box_Init
    1472              
    1473              $C$DW$111       .dwtag  DW_TAG_subprogram, DW_AT_name("FSM_State_Box_Init")
    1474                      .dwattr $C$DW$111, DW_AT_low_pc(_FSM_State_Box_Init)
    1475                      .dwattr $C$DW$111, DW_AT_high_pc(0x00)
    1476                      .dwattr $C$DW$111, DW_AT_TI_symbol_name("_FSM_State_Box_Init")
    1477                      .dwattr $C$DW$111, DW_AT_external
    1478                      .dwattr $C$DW$111, DW_AT_TI_begin_file("D:/BM1000_v1.1/sw/drivers/drvic/fsm.c")
    1479                      .dwattr $C$DW$111, DW_AT_TI_begin_line(0x16f)
    1480                      .dwattr $C$DW$111, DW_AT_TI_begin_column(0x06)
    1481                      .dwattr $C$DW$111, DW_AT_TI_max_frame_size(-20)
    1482                      .dwpsn  file "D:/BM1000_v1.1/sw/drivers/drvic/fsm.c",line 368,column 1,is_stmt,address _FSM_State_Box
    1483              
    1484                      .dwfde $C$DW$CIE, _FSM_State_Box_Init
    1485              $C$DW$112       .dwtag  DW_TAG_formal_parameter, DW_AT_name("handle")
    1486                      .dwattr $C$DW$112, DW_AT_TI_symbol_name("_handle")
    1487                      .dwattr $C$DW$112, DW_AT_type(*$C$DW$T$169)
    1488                      .dwattr $C$DW$112, DW_AT_location[DW_OP_reg12]
    1489              $C$DW$113       .dwtag  DW_TAG_formal_parameter, DW_AT_name("RomState_Vars")
    1490                      .dwattr $C$DW$113, DW_AT_TI_symbol_name("_RomState_Vars")
    1491                      .dwattr $C$DW$113, DW_AT_type(*$C$DW$T$179)
    1492                      .dwattr $C$DW$113, DW_AT_location[DW_OP_reg14]
    1493              
    1494              ;***************************************************************
    1495              ;* FNAME: _FSM_State_Box_Init           FR SIZE:  18           *
    1496              ;*                                                             *
    1497              ;* FUNCTION ENVIRONMENT                                        *
    1498              ;*                                                             *
    1499              ;* FUNCTION PROPERTIES                                         *
    1500              ;*                            2 Parameter,  9 Auto,  6 SOE     *
    1501              ;***************************************************************
    1502              
    1503              _FSM_State_Box_Init:
    1504              ;* AR3   assigned to _handle
    1505              $C$DW$114       .dwtag  DW_TAG_variable, DW_AT_name("handle")
    1506                      .dwattr $C$DW$114, DW_AT_TI_symbol_name("_handle")
    1507                      .dwattr $C$DW$114, DW_AT_type(*$C$DW$T$170)
TMS320C2000 Assembler PC v6.2.5 Wed Nov 22 14:48:16 2017

Tools Copyright (c) 1996-2014 Texas Instruments Incorporated
C:\Users\wmj\AppData\Local\Temp\1257612                              PAGE   31

    1508                      .dwattr $C$DW$114, DW_AT_location[DW_OP_reg10]
    1509              ;* AR2   assigned to _RomState_Vars
    1510              $C$DW$115       .dwtag  DW_TAG_variable, DW_AT_name("RomState_Vars")
    1511                      .dwattr $C$DW$115, DW_AT_TI_symbol_name("_RomState_Vars")
    1512                      .dwattr $C$DW$115, DW_AT_type(*$C$DW$T$180)
    1513                      .dwattr $C$DW$115, DW_AT_location[DW_OP_reg8]
    1514              ;* AR1   assigned to _State_Num
    1515              $C$DW$116       .dwtag  DW_TAG_variable, DW_AT_name("State_Num")
    1516                      .dwattr $C$DW$116, DW_AT_TI_symbol_name("_State_Num")
    1517                      .dwattr $C$DW$116, DW_AT_type(*$C$DW$T$21)
    1518                      .dwattr $C$DW$116, DW_AT_location[DW_OP_reg6]
    1519              ;* AR2   assigned to $O$U7
    1520                      .dwcfi  cfa_offset, -2
    1521                      .dwcfi  save_reg_to_mem, 26, 0
    1522                      .dwcfi  save_reg_to_reg, 78, 26
    1523 00000207 B2BD          MOVL      *SP++,XAR1            ; [CPU_] 
    1524                      .dwcfi  save_reg_to_mem, 7, 2
    1525                      .dwcfi  cfa_offset, -4
    1526 00000208 AABD          MOVL      *SP++,XAR2            ; [CPU_] 
    1527                      .dwcfi  save_reg_to_mem, 9, 4
    1528                      .dwcfi  cfa_offset, -6
    1529 00000209 A2BD          MOVL      *SP++,XAR3            ; [CPU_] 
    1530                      .dwcfi  save_reg_to_mem, 11, 6
    1531                      .dwcfi  cfa_offset, -8
    1532 0000020a FE0C          ADDB      SP,#12                ; [CPU_U] 
    1533                      .dwcfi  cfa_offset, -20
    1534                      .dwpsn  file "D:/BM1000_v1.1/sw/drivers/drvic/fsm.c",line 373,column 7,is_stmt
    1535 0000020b D100          MOVB      XAR1,#0               ; [CPU_] |373| 
    1536                      .dwpsn  file "D:/BM1000_v1.1/sw/drivers/drvic/fsm.c",line 368,column 1,is_stmt
    1537 0000020c 86A5          MOVL      XAR2,XAR5             ; [CPU_] |368| 
    1538 0000020d 82A4          MOVL      XAR3,XAR4             ; [CPU_] |368| 
    1539 0000020e 284B          MOV       *-SP[11],#14          ; [CPU_] 
         0000020f 000E 
    1540 00000210       $C$L14:    
    1541                      .dwpsn  file "D:/BM1000_v1.1/sw/drivers/drvic/fsm.c",line 375,column 5,is_stmt
    1542 00000210 06E3          MOVL      ACC,*+XAR3[4]         ; [CPU_] |375| 
    1543 00000211 88DA          MOVZ      AR6,*+XAR2[3]         ; [CPU_] |375| 
    1544 00000212 D01E          MOVB      XAR0,#30              ; [CPU_] |375| 
    1545 00000213 0DA1          ADDU      ACC,AR1               ; [CPU_] |375| 
    1546 00000214 8AA9          MOVL      XAR4,ACC              ; [CPU_] |375| 
    1547 00000215 7E94          MOV       *+XAR4[AR0],AR6       ; [CPU_] |375| 
    1548                      .dwpsn  file "D:/BM1000_v1.1/sw/drivers/drvic/fsm.c",line 376,column 5,is_stmt
    1549 00000216 D00F          MOVB      XAR0,#15              ; [CPU_] |376| 
    1550 00000217 88D2          MOVZ      AR6,*+XAR2[2]         ; [CPU_] |376| 
    1551 00000218 06E3          MOVL      ACC,*+XAR3[4]         ; [CPU_] |376| 
    1552 00000219 0DA1          ADDU      ACC,AR1               ; [CPU_] |376| 
    1553 0000021a 8AA9          MOVL      XAR4,ACC              ; [CPU_] |376| 
    1554 0000021b 7E94          MOV       *+XAR4[AR0],AR6       ; [CPU_] |376| 
    1555                      .dwpsn  file "D:/BM1000_v1.1/sw/drivers/drvic/fsm.c",line 377,column 5,is_stmt
    1556 0000021c 88AD          MOVZ      AR6,SP                ; [CPU_U] |377| 
    1557 0000021d 06C2          MOVL      ACC,*+XAR2[0]         ; [CPU_] |377| 
    1558 0000021e DE8A          SUBB      XAR6,#10              ; [CPU_U] |377| 
    1559              $C$DW$117       .dwtag  DW_TAG_TI_branch
    1560                      .dwattr $C$DW$117, DW_AT_low_pc(0x00)
    1561                      .dwattr $C$DW$117, DW_AT_name("FS$$TOFD")
TMS320C2000 Assembler PC v6.2.5 Wed Nov 22 14:48:16 2017

Tools Copyright (c) 1996-2014 Texas Instruments Incorporated
C:\Users\wmj\AppData\Local\Temp\1257612                              PAGE   32

    1562                      .dwattr $C$DW$117, DW_AT_TI_call
    1563 0000021f 7640!         LCR       #FS$$TOFD             ; [CPU_] |377| 
         00000220 0000 
    1564                      ; call occurs [#FS$$TOFD] ; [] |377| 
    1565 00000221 5CAD          MOVZ      AR4,SP                ; [CPU_U] |377| 
    1566 00000222 88AD          MOVZ      AR6,SP                ; [CPU_U] |377| 
    1567 00000223 8F40+         MOVL      XAR5,#$C$FL1          ; [CPU_U] |377| 
         00000224 0000 
    1568 00000225 DC8A          SUBB      XAR4,#10              ; [CPU_U] |377| 
    1569 00000226 DE86          SUBB      XAR6,#6               ; [CPU_U] |377| 
    1570              $C$DW$118       .dwtag  DW_TAG_TI_branch
    1571                      .dwattr $C$DW$118, DW_AT_low_pc(0x00)
    1572                      .dwattr $C$DW$118, DW_AT_name("FD$$MPY")
    1573                      .dwattr $C$DW$118, DW_AT_TI_call
    1574 00000227 7640!         LCR       #FD$$MPY              ; [CPU_] |377| 
         00000228 0000 
    1575                      ; call occurs [#FD$$MPY] ; [] |377| 
    1576 00000229 5CAD          MOVZ      AR4,SP                ; [CPU_U] |377| 
    1577 0000022a DC86          SUBB      XAR4,#6               ; [CPU_U] |377| 
    1578              $C$DW$119       .dwtag  DW_TAG_TI_branch
    1579                      .dwattr $C$DW$119, DW_AT_low_pc(0x00)
    1580                      .dwattr $C$DW$119, DW_AT_name("FD$$TOL")
    1581                      .dwattr $C$DW$119, DW_AT_TI_call
    1582 0000022b 7640!         LCR       #FD$$TOL              ; [CPU_] |377| 
         0000022c 0000 
    1583                      ; call occurs [#FD$$TOL] ; [] |377| 
    1584 0000022d 8F00          MOVL      XAR4,#16777           ; [CPU_U] |377| 
         0000022e 4189 
    1585 0000022f A842          MOVL      *-SP[2],XAR4          ; [CPU_] |377| 
    1586              $C$DW$120       .dwtag  DW_TAG_TI_branch
    1587                      .dwattr $C$DW$120, DW_AT_low_pc(0x00)
    1588                      .dwattr $C$DW$120, DW_AT_name("L$$DIV")
    1589                      .dwattr $C$DW$120, DW_AT_TI_call
    1590 00000230 00C0!         FFC       XAR7,#L$$DIV          ; [CPU_] |377| 
         00000231 0000 
    1591                      ; call occurs [#L$$DIV] ; [] |377| 
    1592 00000232 8AE3          MOVL      XAR4,*+XAR3[4]        ; [CPU_] |377| 
    1593                      .dwpsn  file "D:/BM1000_v1.1/sw/drivers/drvic/fsm.c",line 378,column 5,is_stmt
    1594 00000233 D02D          MOVB      XAR0,#45              ; [CPU_] |378| 
    1595                      .dwpsn  file "D:/BM1000_v1.1/sw/drivers/drvic/fsm.c",line 377,column 5,is_stmt
    1596 00000234 969C          MOV       *+XAR4[AR1],AL        ; [CPU_] |377| 
    1597                      .dwpsn  file "D:/BM1000_v1.1/sw/drivers/drvic/fsm.c",line 378,column 5,is_stmt
    1598 00000235 88E2          MOVZ      AR6,*+XAR2[4]         ; [CPU_] |378| 
    1599 00000236 06E3          MOVL      ACC,*+XAR3[4]         ; [CPU_] |378| 
    1600 00000237 0DA1          ADDU      ACC,AR1               ; [CPU_] |378| 
    1601 00000238 8AA9          MOVL      XAR4,ACC              ; [CPU_] |378| 
    1602 00000239 7E94          MOV       *+XAR4[AR0],AR6       ; [CPU_] |378| 
    1603                      .dwpsn  file "D:/BM1000_v1.1/sw/drivers/drvic/fsm.c",line 379,column 5,is_stmt
    1604 0000023a D03C          MOVB      XAR0,#60              ; [CPU_] |379| 
    1605 0000023b 88EA          MOVZ      AR6,*+XAR2[5]         ; [CPU_] |379| 
    1606 0000023c 06E3          MOVL      ACC,*+XAR3[4]         ; [CPU_] |379| 
    1607 0000023d 0DA1          ADDU      ACC,AR1               ; [CPU_] |379| 
    1608 0000023e 8AA9          MOVL      XAR4,ACC              ; [CPU_] |379| 
    1609 0000023f 7E94          MOV       *+XAR4[AR0],AR6       ; [CPU_] |379| 
    1610                      .dwpsn  file "D:/BM1000_v1.1/sw/drivers/drvic/fsm.c",line 373,column 22,is_stmt
TMS320C2000 Assembler PC v6.2.5 Wed Nov 22 14:48:16 2017

Tools Copyright (c) 1996-2014 Texas Instruments Incorporated
C:\Users\wmj\AppData\Local\Temp\1257612                              PAGE   33

    1611 00000240 884B          MOVZ      AR6,*-SP[11]          ; [CPU_] |373| 
    1612 00000241 DA06          ADDB      XAR2,#6               ; [CPU_] |373| 
    1613 00000242 D901          ADDB      XAR1,#1               ; [CPU_] |373| 
    1614 00000243 DE81          SUBB      XAR6,#1               ; [CPU_U] |373| 
    1615 00000244 58A6          MOVZ      AR0,AR6               ; [CPU_] |373| 
    1616 00000245 7E4B          MOV       *-SP[11],AR6          ; [CPU_] |373| 
    1617 00000246 1BA0          CMP       AR0,#-1               ; [CPU_] |373| 
         00000247 FFFF 
    1618 00000248 EDC8          BF        $C$L14,NEQ            ; [CPU_] |373| 
    1619                      ; branchcc occurs ; [] |373| 
    1620                      .dwpsn  file "D:/BM1000_v1.1/sw/drivers/drvic/fsm.c",line 383,column 3,is_stmt
    1621 00000249 8AA3          MOVL      XAR4,XAR3             ; [CPU_] |383| 
    1622              $C$DW$121       .dwtag  DW_TAG_TI_branch
    1623                      .dwattr $C$DW$121, DW_AT_low_pc(0x00)
    1624                      .dwattr $C$DW$121, DW_AT_name("_FSM_SelectMode")
    1625                      .dwattr $C$DW$121, DW_AT_TI_call
    1626 0000024a 7640'         LCR       #_FSM_SelectMode      ; [CPU_] |383| 
         0000024b 0037 
    1627                      ; call occurs [#_FSM_SelectMode] ; [] |383| 
    1628 0000024c FE8C          SUBB      SP,#12                ; [CPU_U] 
    1629                      .dwcfi  cfa_offset, -8
    1630 0000024d 82BE          MOVL      XAR3,*--SP            ; [CPU_] 
    1631                      .dwcfi  cfa_offset, -6
    1632                      .dwcfi  restore_reg, 11
    1633 0000024e 86BE          MOVL      XAR2,*--SP            ; [CPU_] 
    1634                      .dwcfi  cfa_offset, -4
    1635                      .dwcfi  restore_reg, 9
    1636 0000024f 8BBE          MOVL      XAR1,*--SP            ; [CPU_] 
    1637                      .dwcfi  cfa_offset, -2
    1638                      .dwcfi  restore_reg, 7
    1639              $C$DW$122       .dwtag  DW_TAG_TI_branch
    1640                      .dwattr $C$DW$122, DW_AT_low_pc(0x00)
    1641                      .dwattr $C$DW$122, DW_AT_TI_return
    1642 00000250 0006          LRETR     ; [CPU_] 
    1643                      ; return occurs ; [] 
    1644                      .dwattr $C$DW$111, DW_AT_TI_end_file("D:/BM1000_v1.1/sw/drivers/drvic/fsm.c")
    1645                      .dwattr $C$DW$111, DW_AT_TI_end_line(0x18d)
    1646                      .dwattr $C$DW$111, DW_AT_TI_end_column(0x01)
    1647                      .dwendentry
    1648                      .dwendtag $C$DW$111
    1649              
    1650 00000251               .sect   ".text"
    1651                      .clink
    1652                      .global _FSM_ShutDowm
    1653              
    1654              $C$DW$123       .dwtag  DW_TAG_subprogram, DW_AT_name("FSM_ShutDowm")
    1655                      .dwattr $C$DW$123, DW_AT_low_pc(_FSM_ShutDowm)
    1656                      .dwattr $C$DW$123, DW_AT_high_pc(0x00)
    1657                      .dwattr $C$DW$123, DW_AT_TI_symbol_name("_FSM_ShutDowm")
    1658                      .dwattr $C$DW$123, DW_AT_external
    1659                      .dwattr $C$DW$123, DW_AT_TI_begin_file("D:/BM1000_v1.1/sw/drivers/drvic/fsm.c")
    1660                      .dwattr $C$DW$123, DW_AT_TI_begin_line(0x4a2)
    1661                      .dwattr $C$DW$123, DW_AT_TI_begin_column(0x06)
    1662                      .dwattr $C$DW$123, DW_AT_TI_max_frame_size(-2)
    1663                      .dwpsn  file "D:/BM1000_v1.1/sw/drivers/drvic/fsm.c",line 1187,column 1,is_stmt,address _FSM_ShutDowm
TMS320C2000 Assembler PC v6.2.5 Wed Nov 22 14:48:16 2017

Tools Copyright (c) 1996-2014 Texas Instruments Incorporated
C:\Users\wmj\AppData\Local\Temp\1257612                              PAGE   34

    1664              
    1665                      .dwfde $C$DW$CIE, _FSM_ShutDowm
    1666              $C$DW$124       .dwtag  DW_TAG_formal_parameter, DW_AT_name("handle")
    1667                      .dwattr $C$DW$124, DW_AT_TI_symbol_name("_handle")
    1668                      .dwattr $C$DW$124, DW_AT_type(*$C$DW$T$169)
    1669                      .dwattr $C$DW$124, DW_AT_location[DW_OP_reg12]
    1670              
    1671              ;***************************************************************
    1672              ;* FNAME: _FSM_ShutDowm                 FR SIZE:   0           *
    1673              ;*                                                             *
    1674              ;* FUNCTION ENVIRONMENT                                        *
    1675              ;*                                                             *
    1676              ;* FUNCTION PROPERTIES                                         *
    1677              ;*                            0 Parameter,  0 Auto,  0 SOE     *
    1678              ;***************************************************************
    1679              
    1680              _FSM_ShutDowm:
    1681              ;* AR4   assigned to _handle
    1682              $C$DW$125       .dwtag  DW_TAG_variable, DW_AT_name("handle")
    1683                      .dwattr $C$DW$125, DW_AT_TI_symbol_name("_handle")
    1684                      .dwattr $C$DW$125, DW_AT_type(*$C$DW$T$170)
    1685                      .dwattr $C$DW$125, DW_AT_location[DW_OP_reg12]
    1686                      .dwcfi  cfa_offset, -2
    1687                      .dwcfi  save_reg_to_mem, 26, 0
    1688                      .dwcfi  save_reg_to_reg, 78, 26
    1689                      .dwpsn  file "D:/BM1000_v1.1/sw/modules/hal/boards/hvkit_rev1p1/f28x/f2802x/src/hal.h",line 807,colum
    1690 00000251 8AD4          MOVL      XAR4,*+XAR4[2]        ; [CPU_] |807| 
    1691 00000252 D008          MOVB      XAR0,#8               ; [CPU_] |807| 
    1692 00000253 9A20          MOVB      AL,#32                ; [CPU_] |807| 
    1693 00000254 8A94          MOVL      XAR4,*+XAR4[AR0]      ; [CPU_] |807| 
    1694              $C$DW$126       .dwtag  DW_TAG_TI_branch
    1695                      .dwattr $C$DW$126, DW_AT_low_pc(0x00)
    1696                      .dwattr $C$DW$126, DW_AT_name("_GPIO_setHigh")
    1697                      .dwattr $C$DW$126, DW_AT_TI_call
    1698 00000255 7640!         LCR       #_GPIO_setHigh        ; [CPU_] |807| 
         00000256 0000 
    1699                      ; call occurs [#_GPIO_setHigh] ; [] |807| 
    1700              $C$DW$127       .dwtag  DW_TAG_TI_branch
    1701                      .dwattr $C$DW$127, DW_AT_low_pc(0x00)
    1702                      .dwattr $C$DW$127, DW_AT_TI_return
    1703 00000257 0006          LRETR     ; [CPU_] 
    1704                      ; return occurs ; [] 
    1705                      .dwattr $C$DW$123, DW_AT_TI_end_file("D:/BM1000_v1.1/sw/drivers/drvic/fsm.c")
    1706                      .dwattr $C$DW$123, DW_AT_TI_end_line(0x4a9)
    1707                      .dwattr $C$DW$123, DW_AT_TI_end_column(0x01)
    1708                      .dwendentry
    1709                      .dwendtag $C$DW$123
    1710              
    1711 00000258               .sect   ".text"
    1712                      .clink
    1713                      .global _FSM_SetupFsmMode
    1714              
    1715              $C$DW$128       .dwtag  DW_TAG_subprogram, DW_AT_name("FSM_SetupFsmMode")
    1716                      .dwattr $C$DW$128, DW_AT_low_pc(_FSM_SetupFsmMode)
    1717                      .dwattr $C$DW$128, DW_AT_high_pc(0x00)
TMS320C2000 Assembler PC v6.2.5 Wed Nov 22 14:48:16 2017

Tools Copyright (c) 1996-2014 Texas Instruments Incorporated
C:\Users\wmj\AppData\Local\Temp\1257612                              PAGE   35

    1718                      .dwattr $C$DW$128, DW_AT_TI_symbol_name("_FSM_SetupFsmMode")
    1719                      .dwattr $C$DW$128, DW_AT_external
    1720                      .dwattr $C$DW$128, DW_AT_TI_begin_file("D:/BM1000_v1.1/sw/drivers/drvic/fsm.c")
    1721                      .dwattr $C$DW$128, DW_AT_TI_begin_line(0x13d)
    1722                      .dwattr $C$DW$128, DW_AT_TI_begin_column(0x06)
    1723                      .dwattr $C$DW$128, DW_AT_TI_max_frame_size(-2)
    1724                      .dwpsn  file "D:/BM1000_v1.1/sw/drivers/drvic/fsm.c",line 318,column 1,is_stmt,address _FSM_SetupFsmM
    1725              
    1726                      .dwfde $C$DW$CIE, _FSM_SetupFsmMode
    1727              $C$DW$129       .dwtag  DW_TAG_formal_parameter, DW_AT_name("handle")
    1728                      .dwattr $C$DW$129, DW_AT_TI_symbol_name("_handle")
    1729                      .dwattr $C$DW$129, DW_AT_type(*$C$DW$T$169)
    1730                      .dwattr $C$DW$129, DW_AT_location[DW_OP_reg12]
    1731              
    1732              ;***************************************************************
    1733              ;* FNAME: _FSM_SetupFsmMode             FR SIZE:   0           *
    1734              ;*                                                             *
    1735              ;* FUNCTION ENVIRONMENT                                        *
    1736              ;*                                                             *
    1737              ;* FUNCTION PROPERTIES                                         *
    1738              ;*                            0 Parameter,  0 Auto,  0 SOE     *
    1739              ;***************************************************************
    1740              
    1741              _FSM_SetupFsmMode:
    1742              ;* AR4   assigned to _handle
    1743              $C$DW$130       .dwtag  DW_TAG_variable, DW_AT_name("handle")
    1744                      .dwattr $C$DW$130, DW_AT_TI_symbol_name("_handle")
    1745                      .dwattr $C$DW$130, DW_AT_type(*$C$DW$T$170)
    1746                      .dwattr $C$DW$130, DW_AT_location[DW_OP_reg12]
    1747                      .dwcfi  cfa_offset, -2
    1748                      .dwcfi  save_reg_to_mem, 26, 0
    1749                      .dwcfi  save_reg_to_reg, 78, 26
    1750                      .dwpsn  file "D:/BM1000_v1.1/sw/drivers/drvic/fsm.c",line 321,column 3,is_stmt
    1751 00000258 83D4          MOVL      XAR5,*+XAR4[2]        ; [CPU_] |321| 
    1752 00000259 D0B2          MOVB      XAR0,#178             ; [CPU_] |321| 
    1753 0000025a 9295          MOV       AL,*+XAR5[AR0]        ; [CPU_] |321| 
    1754 0000025b 5203          CMPB      AL,#3                 ; [CPU_] |321| 
    1755 0000025c 620A          B         $C$L15,GT             ; [CPU_] |321| 
    1756                      ; branchcc occurs ; [] |321| 
    1757 0000025d 5203          CMPB      AL,#3                 ; [CPU_] |321| 
    1758 0000025e EC16          BF        $C$L19,EQ             ; [CPU_] |321| 
    1759                      ; branchcc occurs ; [] |321| 
    1760 0000025f 5200          CMPB      AL,#0                 ; [CPU_] |321| 
    1761 00000260 EC23          BF        $C$L23,EQ             ; [CPU_] |321| 
    1762                      ; branchcc occurs ; [] |321| 
    1763 00000261 5201          CMPB      AL,#1                 ; [CPU_] |321| 
    1764 00000262 EC1D          BF        $C$L22,EQ             ; [CPU_] |321| 
    1765                      ; branchcc occurs ; [] |321| 
    1766 00000263 5202          CMPB      AL,#2                 ; [CPU_] |321| 
    1767 00000264 EC17          BF        $C$L21,EQ             ; [CPU_] |321| 
    1768                      ; branchcc occurs ; [] |321| 
    1769 00000265 6F05          B         $C$L16,UNC            ; [CPU_] |321| 
    1770                      ; branch occurs ; [] |321| 
    1771 00000266       $C$L15:    
    1772 00000266 5204          CMPB      AL,#4                 ; [CPU_] |321| 
TMS320C2000 Assembler PC v6.2.5 Wed Nov 22 14:48:16 2017

Tools Copyright (c) 1996-2014 Texas Instruments Incorporated
C:\Users\wmj\AppData\Local\Temp\1257612                              PAGE   36

    1773 00000267 EC09          BF        $C$L18,EQ             ; [CPU_] |321| 
    1774                      ; branchcc occurs ; [] |321| 
    1775 00000268 5206          CMPB      AL,#6                 ; [CPU_] |321| 
    1776 00000269 EC03          BF        $C$L17,EQ             ; [CPU_] |321| 
    1777                      ; branchcc occurs ; [] |321| 
    1778 0000026a       $C$L16:    
    1779                      .dwpsn  file "D:/BM1000_v1.1/sw/drivers/drvic/fsm.c",line 332,column 30,is_stmt
    1780 0000026a D00A          MOVB      XAR0,#10              ; [CPU_] |332| 
    1781                      .dwpsn  file "D:/BM1000_v1.1/sw/drivers/drvic/fsm.c",line 332,column 73,is_stmt
    1782 0000026b 6F0E          B         $C$L20,UNC            ; [CPU_] |332| 
    1783                      ; branch occurs ; [] |332| 
    1784 0000026c       $C$L17:    
    1785                      .dwpsn  file "D:/BM1000_v1.1/sw/drivers/drvic/fsm.c",line 333,column 30,is_stmt
    1786 0000026c D00A          MOVB      XAR0,#10              ; [CPU_] |333| 
    1787 0000026d 56BF          MOVB      *+XAR4[AR0],#7,UNC    ; [CPU_] |333| 
         0000026e 0794 
    1788              $C$DW$131       .dwtag  DW_TAG_TI_branch
    1789                      .dwattr $C$DW$131, DW_AT_low_pc(0x00)
    1790                      .dwattr $C$DW$131, DW_AT_TI_return
    1791 0000026f 0006          LRETR     ; [CPU_] 
    1792                      ; return occurs ; [] 
    1793 00000270       $C$L18:    
    1794                      .dwpsn  file "D:/BM1000_v1.1/sw/drivers/drvic/fsm.c",line 331,column 30,is_stmt
    1795 00000270 D00A          MOVB      XAR0,#10              ; [CPU_] |331| 
    1796 00000271 56BF          MOVB      *+XAR4[AR0],#3,UNC    ; [CPU_] |331| 
         00000272 0394 
    1797              $C$DW$132       .dwtag  DW_TAG_TI_branch
    1798                      .dwattr $C$DW$132, DW_AT_low_pc(0x00)
    1799                      .dwattr $C$DW$132, DW_AT_TI_return
    1800 00000273 0006          LRETR     ; [CPU_] 
    1801                      ; return occurs ; [] 
    1802 00000274       $C$L19:    
    1803                      .dwpsn  file "D:/BM1000_v1.1/sw/drivers/drvic/fsm.c",line 327,column 30,is_stmt
    1804 00000274 D00A          MOVB      XAR0,#10              ; [CPU_] |327| 
    1805 00000275 56BF          MOVB      *+XAR4[AR0],#5,UNC    ; [CPU_] |327| 
         00000276 0594 
    1806                      .dwpsn  file "D:/BM1000_v1.1/sw/drivers/drvic/motor.h",line 240,column 3,is_stmt
    1807 00000277 8AC4          MOVL      XAR4,*+XAR4[0]        ; [CPU_] |240| 
    1808 00000278 D008          MOVB      XAR0,#8               ; [CPU_] |240| 
    1809 00000279       $C$L20:    
    1810 00000279 2B94          MOV       *+XAR4[AR0],#0        ; [CPU_] |240| 
    1811              $C$DW$133       .dwtag  DW_TAG_TI_branch
    1812                      .dwattr $C$DW$133, DW_AT_low_pc(0x00)
    1813                      .dwattr $C$DW$133, DW_AT_TI_return
    1814 0000027a 0006          LRETR     ; [CPU_] 
    1815                      ; return occurs ; [] 
    1816 0000027b       $C$L21:    
    1817                      .dwpsn  file "D:/BM1000_v1.1/sw/drivers/drvic/fsm.c",line 325,column 30,is_stmt
    1818 0000027b D00A          MOVB      XAR0,#10              ; [CPU_] |325| 
    1819 0000027c 56BF          MOVB      *+XAR4[AR0],#4,UNC    ; [CPU_] |325| 
         0000027d 0494 
    1820              $C$DW$134       .dwtag  DW_TAG_TI_branch
    1821                      .dwattr $C$DW$134, DW_AT_low_pc(0x00)
    1822                      .dwattr $C$DW$134, DW_AT_TI_return
    1823 0000027e 0006          LRETR     ; [CPU_] 
TMS320C2000 Assembler PC v6.2.5 Wed Nov 22 14:48:16 2017

Tools Copyright (c) 1996-2014 Texas Instruments Incorporated
C:\Users\wmj\AppData\Local\Temp\1257612                              PAGE   37

    1824                      ; return occurs ; [] 
    1825 0000027f       $C$L22:    
    1826                      .dwpsn  file "D:/BM1000_v1.1/sw/drivers/drvic/fsm.c",line 324,column 30,is_stmt
    1827 0000027f D00A          MOVB      XAR0,#10              ; [CPU_] |324| 
    1828 00000280 56BF          MOVB      *+XAR4[AR0],#1,UNC    ; [CPU_] |324| 
         00000281 0194 
    1829              $C$DW$135       .dwtag  DW_TAG_TI_branch
    1830                      .dwattr $C$DW$135, DW_AT_low_pc(0x00)
    1831                      .dwattr $C$DW$135, DW_AT_TI_return
    1832 00000282 0006          LRETR     ; [CPU_] 
    1833                      ; return occurs ; [] 
    1834 00000283       $C$L23:    
    1835                      .dwpsn  file "D:/BM1000_v1.1/sw/drivers/drvic/fsm.c",line 323,column 30,is_stmt
    1836 00000283 D00A          MOVB      XAR0,#10              ; [CPU_] |323| 
    1837 00000284 56BF          MOVB      *+XAR4[AR0],#2,UNC    ; [CPU_] |323| 
         00000285 0294 
    1838              $C$DW$136       .dwtag  DW_TAG_TI_branch
    1839                      .dwattr $C$DW$136, DW_AT_low_pc(0x00)
    1840                      .dwattr $C$DW$136, DW_AT_TI_return
    1841 00000286 0006          LRETR     ; [CPU_] 
    1842                      ; return occurs ; [] 
    1843                      .dwattr $C$DW$128, DW_AT_TI_end_file("D:/BM1000_v1.1/sw/drivers/drvic/fsm.c")
    1844                      .dwattr $C$DW$128, DW_AT_TI_end_line(0x154)
    1845                      .dwattr $C$DW$128, DW_AT_TI_end_column(0x01)
    1846                      .dwendentry
    1847                      .dwendtag $C$DW$128
    1848              
    1849 00000287               .sect   ".text"
    1850                      .clink
    1851                      .global _FSM_SetVelocity
    1852              
    1853              $C$DW$137       .dwtag  DW_TAG_subprogram, DW_AT_name("FSM_SetVelocity")
    1854                      .dwattr $C$DW$137, DW_AT_low_pc(_FSM_SetVelocity)
    1855                      .dwattr $C$DW$137, DW_AT_high_pc(0x00)
    1856                      .dwattr $C$DW$137, DW_AT_TI_symbol_name("_FSM_SetVelocity")
    1857                      .dwattr $C$DW$137, DW_AT_external
    1858                      .dwattr $C$DW$137, DW_AT_TI_begin_file("D:/BM1000_v1.1/sw/drivers/drvic/fsm.c")
    1859                      .dwattr $C$DW$137, DW_AT_TI_begin_line(0x51a)
    1860                      .dwattr $C$DW$137, DW_AT_TI_begin_column(0x06)
    1861                      .dwattr $C$DW$137, DW_AT_TI_max_frame_size(-2)
    1862                      .dwpsn  file "D:/BM1000_v1.1/sw/drivers/drvic/fsm.c",line 1307,column 1,is_stmt,address _FSM_SetVeloc
    1863              
    1864                      .dwfde $C$DW$CIE, _FSM_SetVelocity
    1865              $C$DW$138       .dwtag  DW_TAG_formal_parameter, DW_AT_name("handle")
    1866                      .dwattr $C$DW$138, DW_AT_TI_symbol_name("_handle")
    1867                      .dwattr $C$DW$138, DW_AT_type(*$C$DW$T$169)
    1868                      .dwattr $C$DW$138, DW_AT_location[DW_OP_reg12]
    1869              
    1870              ;***************************************************************
    1871              ;* FNAME: _FSM_SetVelocity              FR SIZE:   0           *
    1872              ;*                                                             *
    1873              ;* FUNCTION ENVIRONMENT                                        *
    1874              ;*                                                             *
    1875              ;* FUNCTION PROPERTIES                                         *
    1876              ;*                            0 Parameter,  0 Auto,  0 SOE     *
TMS320C2000 Assembler PC v6.2.5 Wed Nov 22 14:48:16 2017

Tools Copyright (c) 1996-2014 Texas Instruments Incorporated
C:\Users\wmj\AppData\Local\Temp\1257612                              PAGE   38

    1877              ;***************************************************************
    1878              
    1879              _FSM_SetVelocity:
    1880              ;* AR4   assigned to _handle
    1881              $C$DW$139       .dwtag  DW_TAG_variable, DW_AT_name("handle")
    1882                      .dwattr $C$DW$139, DW_AT_TI_symbol_name("_handle")
    1883                      .dwattr $C$DW$139, DW_AT_type(*$C$DW$T$170)
    1884                      .dwattr $C$DW$139, DW_AT_location[DW_OP_reg12]
    1885              ;* AL    assigned to _SpeedData
    1886              $C$DW$140       .dwtag  DW_TAG_variable, DW_AT_name("SpeedData")
    1887                      .dwattr $C$DW$140, DW_AT_TI_symbol_name("_SpeedData")
    1888                      .dwattr $C$DW$140, DW_AT_type(*$C$DW$T$12)
    1889                      .dwattr $C$DW$140, DW_AT_location[DW_OP_reg0]
    1890                      .dwcfi  cfa_offset, -2
    1891                      .dwcfi  save_reg_to_mem, 26, 0
    1892                      .dwcfi  save_reg_to_reg, 78, 26
    1893 00000287 3B01          SETC      SXM                   ; [CPU_] 
    1894                      .dwpsn  file "D:/BM1000_v1.1/sw/drivers/drvic/fsm.c",line 1312,column 3,is_stmt
    1895 00000288 85F4          MOV       ACC,*+XAR4[6]         ; [CPU_] |1312| 
    1896 00000289 83E4          MOVL      XAR5,*+XAR4[4]        ; [CPU_] |1312| 
    1897 0000028a 5601          ADDL      XAR5,ACC              ; [CPU_] |1312| 
         0000028b 00A5 
    1898 0000028c 85C5          MOV       ACC,*+XAR5[0]         ; [CPU_] |1312| 
    1899                      .dwpsn  file "D:/BM1000_v1.1/sw/drivers/drvic/fsm.h",line 368,column 4,is_stmt
    1900 0000028d 8AC4          MOVL      XAR4,*+XAR4[0]        ; [CPU_] |368| 
    1901              ;       MOV       T,AL Implicitly done by - MPY ACC,OP,#IMM
    1902 0000028e 34A9          MPY      ACC,AL,#16777         ; [CPU_] |368| 
         0000028f 4189 
    1903 00000290 D01A          MOVB      XAR0,#26              ; [CPU_] |368| 
    1904 00000291 1E94          MOVL      *+XAR4[AR0],ACC       ; [CPU_] |368| 
    1905              $C$DW$141       .dwtag  DW_TAG_TI_branch
    1906                      .dwattr $C$DW$141, DW_AT_low_pc(0x00)
    1907                      .dwattr $C$DW$141, DW_AT_TI_return
    1908 00000292 0006          LRETR     ; [CPU_] 
    1909                      ; return occurs ; [] 
    1910                      .dwattr $C$DW$137, DW_AT_TI_end_file("D:/BM1000_v1.1/sw/drivers/drvic/fsm.c")
    1911                      .dwattr $C$DW$137, DW_AT_TI_end_line(0x52e)
    1912                      .dwattr $C$DW$137, DW_AT_TI_end_column(0x01)
    1913                      .dwendentry
    1914                      .dwendtag $C$DW$137
    1915              
    1916 00000293               .sect   ".text"
    1917                      .clink
    1918                      .global _FSM_ReportResults
    1919              
    1920              $C$DW$142       .dwtag  DW_TAG_subprogram, DW_AT_name("FSM_ReportResults")
    1921                      .dwattr $C$DW$142, DW_AT_low_pc(_FSM_ReportResults)
    1922                      .dwattr $C$DW$142, DW_AT_high_pc(0x00)
    1923                      .dwattr $C$DW$142, DW_AT_TI_symbol_name("_FSM_ReportResults")
    1924                      .dwattr $C$DW$142, DW_AT_external
    1925                      .dwattr $C$DW$142, DW_AT_TI_begin_file("D:/BM1000_v1.1/sw/drivers/drvic/fsm.c")
    1926                      .dwattr $C$DW$142, DW_AT_TI_begin_line(0x47e)
    1927                      .dwattr $C$DW$142, DW_AT_TI_begin_column(0x06)
    1928                      .dwattr $C$DW$142, DW_AT_TI_max_frame_size(-2)
    1929                      .dwpsn  file "D:/BM1000_v1.1/sw/drivers/drvic/fsm.c",line 1151,column 1,is_stmt,address _FSM_ReportRe
TMS320C2000 Assembler PC v6.2.5 Wed Nov 22 14:48:16 2017

Tools Copyright (c) 1996-2014 Texas Instruments Incorporated
C:\Users\wmj\AppData\Local\Temp\1257612                              PAGE   39

    1930              
    1931                      .dwfde $C$DW$CIE, _FSM_ReportResults
    1932              $C$DW$143       .dwtag  DW_TAG_formal_parameter, DW_AT_name("handle")
    1933                      .dwattr $C$DW$143, DW_AT_TI_symbol_name("_handle")
    1934                      .dwattr $C$DW$143, DW_AT_type(*$C$DW$T$169)
    1935                      .dwattr $C$DW$143, DW_AT_location[DW_OP_reg12]
    1936              
    1937              ;***************************************************************
    1938              ;* FNAME: _FSM_ReportResults            FR SIZE:   0           *
    1939              ;*                                                             *
    1940              ;* FUNCTION ENVIRONMENT                                        *
    1941              ;*                                                             *
    1942              ;* FUNCTION PROPERTIES                                         *
    1943              ;*                            0 Parameter,  0 Auto,  0 SOE     *
    1944              ;***************************************************************
    1945              
    1946              _FSM_ReportResults:
    1947              ;* AR4   assigned to _handle
    1948              $C$DW$144       .dwtag  DW_TAG_variable, DW_AT_name("handle")
    1949                      .dwattr $C$DW$144, DW_AT_TI_symbol_name("_handle")
    1950                      .dwattr $C$DW$144, DW_AT_type(*$C$DW$T$170)
    1951                      .dwattr $C$DW$144, DW_AT_location[DW_OP_reg12]
    1952                      .dwcfi  cfa_offset, -2
    1953                      .dwcfi  save_reg_to_mem, 26, 0
    1954                      .dwcfi  save_reg_to_reg, 78, 26
    1955                      .dwpsn  file "D:/BM1000_v1.1/sw/modules/hal/boards/hvkit_rev1p1/f28x/f2802x/src/hal.h",line 807,colum
    1956 00000293 8AD4          MOVL      XAR4,*+XAR4[2]        ; [CPU_] |807| 
    1957 00000294 D008          MOVB      XAR0,#8               ; [CPU_] |807| 
    1958 00000295 9A13          MOVB      AL,#19                ; [CPU_] |807| 
    1959 00000296 8A94          MOVL      XAR4,*+XAR4[AR0]      ; [CPU_] |807| 
    1960              $C$DW$145       .dwtag  DW_TAG_TI_branch
    1961                      .dwattr $C$DW$145, DW_AT_low_pc(0x00)
    1962                      .dwattr $C$DW$145, DW_AT_name("_GPIO_setHigh")
    1963                      .dwattr $C$DW$145, DW_AT_TI_call
    1964 00000297 7640!         LCR       #_GPIO_setHigh        ; [CPU_] |807| 
         00000298 0000 
    1965                      ; call occurs [#_GPIO_setHigh] ; [] |807| 
    1966              $C$DW$146       .dwtag  DW_TAG_TI_branch
    1967                      .dwattr $C$DW$146, DW_AT_low_pc(0x00)
    1968                      .dwattr $C$DW$146, DW_AT_TI_return
    1969 00000299 0006          LRETR     ; [CPU_] 
    1970                      ; return occurs ; [] 
    1971                      .dwattr $C$DW$142, DW_AT_TI_end_file("D:/BM1000_v1.1/sw/drivers/drvic/fsm.c")
    1972                      .dwattr $C$DW$142, DW_AT_TI_end_line(0x485)
    1973                      .dwattr $C$DW$142, DW_AT_TI_end_column(0x01)
    1974                      .dwendentry
    1975                      .dwendtag $C$DW$142
    1976              
    1977 0000029a               .sect   ".text"
    1978                      .clink
    1979                      .global _FSM_Run_STOP
    1980              
    1981              $C$DW$147       .dwtag  DW_TAG_subprogram, DW_AT_name("FSM_Run_STOP")
    1982                      .dwattr $C$DW$147, DW_AT_low_pc(_FSM_Run_STOP)
    1983                      .dwattr $C$DW$147, DW_AT_high_pc(0x00)
TMS320C2000 Assembler PC v6.2.5 Wed Nov 22 14:48:16 2017

Tools Copyright (c) 1996-2014 Texas Instruments Incorporated
C:\Users\wmj\AppData\Local\Temp\1257612                              PAGE   40

    1984                      .dwattr $C$DW$147, DW_AT_TI_symbol_name("_FSM_Run_STOP")
    1985                      .dwattr $C$DW$147, DW_AT_external
    1986                      .dwattr $C$DW$147, DW_AT_TI_begin_file("D:/BM1000_v1.1/sw/drivers/drvic/fsm.c")
    1987                      .dwattr $C$DW$147, DW_AT_TI_begin_line(0x1ce)
    1988                      .dwattr $C$DW$147, DW_AT_TI_begin_column(0x06)
    1989                      .dwattr $C$DW$147, DW_AT_TI_max_frame_size(-2)
    1990                      .dwpsn  file "D:/BM1000_v1.1/sw/drivers/drvic/fsm.c",line 463,column 1,is_stmt,address _FSM_Run_STOP
    1991              
    1992                      .dwfde $C$DW$CIE, _FSM_Run_STOP
    1993              $C$DW$148       .dwtag  DW_TAG_formal_parameter, DW_AT_name("handle")
    1994                      .dwattr $C$DW$148, DW_AT_TI_symbol_name("_handle")
    1995                      .dwattr $C$DW$148, DW_AT_type(*$C$DW$T$169)
    1996                      .dwattr $C$DW$148, DW_AT_location[DW_OP_reg12]
    1997              
    1998              ;***************************************************************
    1999              ;* FNAME: _FSM_Run_STOP                 FR SIZE:   0           *
    2000              ;*                                                             *
    2001              ;* FUNCTION ENVIRONMENT                                        *
    2002              ;*                                                             *
    2003              ;* FUNCTION PROPERTIES                                         *
    2004              ;*                            0 Parameter,  0 Auto,  0 SOE     *
    2005              ;***************************************************************
    2006              
    2007              _FSM_Run_STOP:
    2008              ;* AR4   assigned to _handle
    2009              $C$DW$149       .dwtag  DW_TAG_variable, DW_AT_name("handle")
    2010                      .dwattr $C$DW$149, DW_AT_TI_symbol_name("_handle")
    2011                      .dwattr $C$DW$149, DW_AT_type(*$C$DW$T$170)
    2012                      .dwattr $C$DW$149, DW_AT_location[DW_OP_reg12]
    2013                      .dwcfi  cfa_offset, -2
    2014                      .dwcfi  save_reg_to_mem, 26, 0
    2015                      .dwcfi  save_reg_to_reg, 78, 26
    2016                      .dwpsn  file "D:/BM1000_v1.1/sw/drivers/drvic/fsm.h",line 490,column 3,is_stmt
    2017 0000029a 83C4          MOVL      XAR5,*+XAR4[0]        ; [CPU_] |490| 
    2018 0000029b D00A          MOVB      XAR0,#10              ; [CPU_] |490| 
    2019 0000029c 2B95          MOV       *+XAR5[AR0],#0        ; [CPU_] |490| 
    2020                      .dwpsn  file "D:/BM1000_v1.1/sw/drivers/drvic/fsm.h",line 481,column 3,is_stmt
    2021 0000029d D01E          MOVB      XAR0,#30              ; [CPU_] |481| 
    2022 0000029e 2B94          MOV       *+XAR4[AR0],#0        ; [CPU_] |481| 
    2023                      .dwpsn  file "D:/BM1000_v1.1/sw/drivers/drvic/fsm.c",line 467,column 3,is_stmt
    2024              $C$DW$150       .dwtag  DW_TAG_TI_branch
    2025                      .dwattr $C$DW$150, DW_AT_low_pc(0x00)
    2026                      .dwattr $C$DW$150, DW_AT_name("_FSM_ReportResults")
    2027                      .dwattr $C$DW$150, DW_AT_TI_call
    2028 0000029f 7640'         LCR       #_FSM_ReportResults   ; [CPU_] |467| 
         000002a0 0293 
    2029                      ; call occurs [#_FSM_ReportResults] ; [] |467| 
    2030              $C$DW$151       .dwtag  DW_TAG_TI_branch
    2031                      .dwattr $C$DW$151, DW_AT_low_pc(0x00)
    2032                      .dwattr $C$DW$151, DW_AT_TI_return
    2033 000002a1 0006          LRETR     ; [CPU_] 
    2034                      ; return occurs ; [] 
    2035                      .dwattr $C$DW$147, DW_AT_TI_end_file("D:/BM1000_v1.1/sw/drivers/drvic/fsm.c")
    2036                      .dwattr $C$DW$147, DW_AT_TI_end_line(0x1d6)
    2037                      .dwattr $C$DW$147, DW_AT_TI_end_column(0x01)
TMS320C2000 Assembler PC v6.2.5 Wed Nov 22 14:48:16 2017

Tools Copyright (c) 1996-2014 Texas Instruments Incorporated
C:\Users\wmj\AppData\Local\Temp\1257612                              PAGE   41

    2038                      .dwendentry
    2039                      .dwendtag $C$DW$147
    2040              
    2041 000002a2               .sect   ".text"
    2042                      .clink
    2043                      .global _FSM_Run_ReleaseDcBrake
    2044              
    2045              $C$DW$152       .dwtag  DW_TAG_subprogram, DW_AT_name("FSM_Run_ReleaseDcBrake")
    2046                      .dwattr $C$DW$152, DW_AT_low_pc(_FSM_Run_ReleaseDcBrake)
    2047                      .dwattr $C$DW$152, DW_AT_high_pc(0x00)
    2048                      .dwattr $C$DW$152, DW_AT_TI_symbol_name("_FSM_Run_ReleaseDcBrake")
    2049                      .dwattr $C$DW$152, DW_AT_external
    2050                      .dwattr $C$DW$152, DW_AT_TI_begin_file("D:/BM1000_v1.1/sw/drivers/drvic/fsm.c")
    2051                      .dwattr $C$DW$152, DW_AT_TI_begin_line(0x1d8)
    2052                      .dwattr $C$DW$152, DW_AT_TI_begin_column(0x06)
    2053                      .dwattr $C$DW$152, DW_AT_TI_max_frame_size(-2)
    2054                      .dwpsn  file "D:/BM1000_v1.1/sw/drivers/drvic/fsm.c",line 473,column 1,is_stmt,address _FSM_Run_Relea
    2055              
    2056                      .dwfde $C$DW$CIE, _FSM_Run_ReleaseDcBrake
    2057              $C$DW$153       .dwtag  DW_TAG_formal_parameter, DW_AT_name("handle")
    2058                      .dwattr $C$DW$153, DW_AT_TI_symbol_name("_handle")
    2059                      .dwattr $C$DW$153, DW_AT_type(*$C$DW$T$169)
    2060                      .dwattr $C$DW$153, DW_AT_location[DW_OP_reg12]
    2061              
    2062              ;***************************************************************
    2063              ;* FNAME: _FSM_Run_ReleaseDcBrake       FR SIZE:   0           *
    2064              ;*                                                             *
    2065              ;* FUNCTION ENVIRONMENT                                        *
    2066              ;*                                                             *
    2067              ;* FUNCTION PROPERTIES                                         *
    2068              ;*                            0 Parameter,  0 Auto,  0 SOE     *
    2069              ;***************************************************************
    2070              
    2071              _FSM_Run_ReleaseDcBrake:
    2072              ;* AR4   assigned to _handle
    2073              $C$DW$154       .dwtag  DW_TAG_variable, DW_AT_name("handle")
    2074                      .dwattr $C$DW$154, DW_AT_TI_symbol_name("_handle")
    2075                      .dwattr $C$DW$154, DW_AT_type(*$C$DW$T$170)
    2076                      .dwattr $C$DW$154, DW_AT_location[DW_OP_reg12]
    2077                      .dwcfi  cfa_offset, -2
    2078                      .dwcfi  save_reg_to_mem, 26, 0
    2079                      .dwcfi  save_reg_to_reg, 78, 26
    2080                      .dwpsn  file "D:/BM1000_v1.1/sw/drivers/drvic/fsm.c",line 476,column 3,is_stmt
    2081 000002a2 D024          MOVB      XAR0,#36              ; [CPU_] |476| 
    2082 000002a3 2B94          MOV       *+XAR4[AR0],#0        ; [CPU_] |476| 
    2083                      .dwpsn  file "D:/BM1000_v1.1/sw/drivers/drvic/fsm.h",line 490,column 3,is_stmt
    2084 000002a4 8AC4          MOVL      XAR4,*+XAR4[0]        ; [CPU_] |490| 
    2085 000002a5 D00A          MOVB      XAR0,#10              ; [CPU_] |490| 
    2086 000002a6 2B94          MOV       *+XAR4[AR0],#0        ; [CPU_] |490| 
    2087              $C$DW$155       .dwtag  DW_TAG_TI_branch
    2088                      .dwattr $C$DW$155, DW_AT_low_pc(0x00)
    2089                      .dwattr $C$DW$155, DW_AT_TI_return
    2090 000002a7 0006          LRETR     ; [CPU_] 
    2091                      ; return occurs ; [] 
    2092                      .dwattr $C$DW$152, DW_AT_TI_end_file("D:/BM1000_v1.1/sw/drivers/drvic/fsm.c")
TMS320C2000 Assembler PC v6.2.5 Wed Nov 22 14:48:16 2017

Tools Copyright (c) 1996-2014 Texas Instruments Incorporated
C:\Users\wmj\AppData\Local\Temp\1257612                              PAGE   42

    2093                      .dwattr $C$DW$152, DW_AT_TI_end_line(0x1e0)
    2094                      .dwattr $C$DW$152, DW_AT_TI_end_column(0x01)
    2095                      .dwendentry
    2096                      .dwendtag $C$DW$152
    2097              
    2098 000002a8               .sect   ".text"
    2099                      .clink
    2100                      .global _FSM_Run_IDLE
    2101              
    2102              $C$DW$156       .dwtag  DW_TAG_subprogram, DW_AT_name("FSM_Run_IDLE")
    2103                      .dwattr $C$DW$156, DW_AT_low_pc(_FSM_Run_IDLE)
    2104                      .dwattr $C$DW$156, DW_AT_high_pc(0x00)
    2105                      .dwattr $C$DW$156, DW_AT_TI_symbol_name("_FSM_Run_IDLE")
    2106                      .dwattr $C$DW$156, DW_AT_external
    2107                      .dwattr $C$DW$156, DW_AT_TI_begin_file("D:/BM1000_v1.1/sw/drivers/drvic/fsm.c")
    2108                      .dwattr $C$DW$156, DW_AT_TI_begin_line(0x1c4)
    2109                      .dwattr $C$DW$156, DW_AT_TI_begin_column(0x06)
    2110                      .dwattr $C$DW$156, DW_AT_TI_max_frame_size(-2)
    2111                      .dwpsn  file "D:/BM1000_v1.1/sw/drivers/drvic/fsm.c",line 453,column 1,is_stmt,address _FSM_Run_IDLE
    2112              
    2113                      .dwfde $C$DW$CIE, _FSM_Run_IDLE
    2114              $C$DW$157       .dwtag  DW_TAG_formal_parameter, DW_AT_name("handle")
    2115                      .dwattr $C$DW$157, DW_AT_TI_symbol_name("_handle")
    2116                      .dwattr $C$DW$157, DW_AT_type(*$C$DW$T$169)
    2117                      .dwattr $C$DW$157, DW_AT_location[DW_OP_reg12]
    2118              
    2119              ;***************************************************************
    2120              ;* FNAME: _FSM_Run_IDLE                 FR SIZE:   0           *
    2121              ;*                                                             *
    2122              ;* FUNCTION ENVIRONMENT                                        *
    2123              ;*                                                             *
    2124              ;* FUNCTION PROPERTIES                                         *
    2125              ;*                            0 Parameter,  0 Auto,  0 SOE     *
    2126              ;***************************************************************
    2127              
    2128              _FSM_Run_IDLE:
    2129              ;* AR4   assigned to _handle
    2130              $C$DW$158       .dwtag  DW_TAG_variable, DW_AT_name("handle")
    2131                      .dwattr $C$DW$158, DW_AT_TI_symbol_name("_handle")
    2132                      .dwattr $C$DW$158, DW_AT_type(*$C$DW$T$170)
    2133                      .dwattr $C$DW$158, DW_AT_location[DW_OP_reg12]
    2134                      .dwcfi  cfa_offset, -2
    2135                      .dwcfi  save_reg_to_mem, 26, 0
    2136                      .dwcfi  save_reg_to_reg, 78, 26
    2137                      .dwpsn  file "D:/BM1000_v1.1/sw/drivers/drvic/fsm.h",line 499,column 3,is_stmt
    2138 000002a8 D00B          MOVB      XAR0,#11              ; [CPU_] |499| 
    2139 000002a9 2B94          MOV       *+XAR4[AR0],#0        ; [CPU_] |499| 
    2140                      .dwpsn  file "D:/BM1000_v1.1/sw/drivers/drvic/fsm.h",line 464,column 3,is_stmt
    2141 000002aa 8AC4          MOVL      XAR4,*+XAR4[0]        ; [CPU_] |464| 
    2142 000002ab D00A          MOVB      XAR0,#10              ; [CPU_] |464| 
    2143 000002ac 56BF          MOVB      *+XAR4[AR0],#1,UNC    ; [CPU_] |464| 
         000002ad 0194 
    2144              $C$DW$159       .dwtag  DW_TAG_TI_branch
    2145                      .dwattr $C$DW$159, DW_AT_low_pc(0x00)
    2146                      .dwattr $C$DW$159, DW_AT_TI_return
TMS320C2000 Assembler PC v6.2.5 Wed Nov 22 14:48:16 2017

Tools Copyright (c) 1996-2014 Texas Instruments Incorporated
C:\Users\wmj\AppData\Local\Temp\1257612                              PAGE   43

    2147 000002ae 0006          LRETR     ; [CPU_] 
    2148                      ; return occurs ; [] 
    2149                      .dwattr $C$DW$156, DW_AT_TI_end_file("D:/BM1000_v1.1/sw/drivers/drvic/fsm.c")
    2150                      .dwattr $C$DW$156, DW_AT_TI_end_line(0x1cc)
    2151                      .dwattr $C$DW$156, DW_AT_TI_end_column(0x01)
    2152                      .dwendentry
    2153                      .dwendtag $C$DW$156
    2154              
    2155 000002af               .sect   ".text"
    2156                      .clink
    2157                      .global _FSM_CheckErrors
    2158              
    2159              $C$DW$160       .dwtag  DW_TAG_subprogram, DW_AT_name("FSM_CheckErrors")
    2160                      .dwattr $C$DW$160, DW_AT_low_pc(_FSM_CheckErrors)
    2161                      .dwattr $C$DW$160, DW_AT_high_pc(0x00)
    2162                      .dwattr $C$DW$160, DW_AT_TI_symbol_name("_FSM_CheckErrors")
    2163                      .dwattr $C$DW$160, DW_AT_external
    2164                      .dwattr $C$DW$160, DW_AT_TI_begin_file("D:/BM1000_v1.1/sw/drivers/drvic/fsm.c")
    2165                      .dwattr $C$DW$160, DW_AT_TI_begin_line(0x365)
    2166                      .dwattr $C$DW$160, DW_AT_TI_begin_column(0x06)
    2167                      .dwattr $C$DW$160, DW_AT_TI_max_frame_size(-4)
    2168                      .dwpsn  file "D:/BM1000_v1.1/sw/drivers/drvic/fsm.c",line 870,column 1,is_stmt,address _FSM_CheckErro
    2169              
    2170                      .dwfde $C$DW$CIE, _FSM_CheckErrors
    2171              $C$DW$161       .dwtag  DW_TAG_formal_parameter, DW_AT_name("handle")
    2172                      .dwattr $C$DW$161, DW_AT_TI_symbol_name("_handle")
    2173                      .dwattr $C$DW$161, DW_AT_type(*$C$DW$T$169)
    2174                      .dwattr $C$DW$161, DW_AT_location[DW_OP_reg12]
    2175              
    2176              ;***************************************************************
    2177              ;* FNAME: _FSM_CheckErrors              FR SIZE:   2           *
    2178              ;*                                                             *
    2179              ;* FUNCTION ENVIRONMENT                                        *
    2180              ;*                                                             *
    2181              ;* FUNCTION PROPERTIES                                         *
    2182              ;*                            0 Parameter,  0 Auto,  2 SOE     *
    2183              ;***************************************************************
    2184              
    2185              _FSM_CheckErrors:
    2186              ;* AR7   assigned to $O$C1
    2187              ;* AR6   assigned to $O$C2
    2188              ;* AR1   assigned to _handle
    2189              $C$DW$162       .dwtag  DW_TAG_variable, DW_AT_name("handle")
    2190                      .dwattr $C$DW$162, DW_AT_TI_symbol_name("_handle")
    2191                      .dwattr $C$DW$162, DW_AT_type(*$C$DW$T$170)
    2192                      .dwattr $C$DW$162, DW_AT_location[DW_OP_reg6]
    2193              ;* AR5   assigned to $O$v2
    2194              ;* AH    assigned to $O$v3
    2195              ;* AL    assigned to $O$v1
    2196              ;* AR6   assigned to $O$v1
    2197                      .dwcfi  cfa_offset, -2
    2198                      .dwcfi  save_reg_to_mem, 26, 0
    2199                      .dwcfi  save_reg_to_reg, 78, 26
    2200 000002af B2BD          MOVL      *SP++,XAR1            ; [CPU_] 
    2201                      .dwcfi  save_reg_to_mem, 7, 2
TMS320C2000 Assembler PC v6.2.5 Wed Nov 22 14:48:16 2017

Tools Copyright (c) 1996-2014 Texas Instruments Incorporated
C:\Users\wmj\AppData\Local\Temp\1257612                              PAGE   44

    2202                      .dwcfi  cfa_offset, -4
    2203                      .dwpsn  file "D:/BM1000_v1.1/sw/drivers/drvic/fsm.c",line 849,column 3,is_stmt
    2204 000002b0 D01E          MOVB      XAR0,#30              ; [CPU_] |849| 
    2205                      .dwpsn  file "D:/BM1000_v1.1/sw/drivers/drvic/fsm.c",line 870,column 1,is_stmt
    2206 000002b1 8BA4          MOVL      XAR1,XAR4             ; [CPU_] |870| 
    2207                      .dwpsn  file "D:/BM1000_v1.1/sw/drivers/drvic/fsm.c",line 849,column 3,is_stmt
    2208 000002b2 9291          MOV       AL,*+XAR1[AR0]        ; [CPU_] |849| 
    2209 000002b3 ED04          BF        $C$L24,NEQ            ; [CPU_] |849| 
    2210                      ; branchcc occurs ; [] |849| 
    2211                      .dwpsn  file "D:/BM1000_v1.1/sw/drivers/drvic/fsm.c",line 851,column 5,is_stmt
    2212 000002b4 9A40          MOVB      AL,#64                ; [CPU_] |851| 
    2213 000002b5 9B40          MOVB      AH,#64                ; [CPU_] |851| 
    2214 000002b6 6F03          B         $C$L25,UNC            ; [CPU_] |851| 
    2215                      ; branch occurs ; [] |851| 
    2216 000002b7       $C$L24:    
    2217                      .dwpsn  file "D:/BM1000_v1.1/sw/drivers/drvic/fsm.h",line 499,column 3,is_stmt
    2218 000002b7 9A00          MOVB      AL,#0                 ; [CPU_] |499| 
    2219 000002b8 93A9          MOV       AH,AL                 ; [CPU_] |499| 
    2220 000002b9       $C$L25:    
    2221                      .dwpsn  file "D:/BM1000_v1.1/sw/drivers/drvic/fsm.c",line 816,column 3,is_stmt
    2222 000002b9 D00D          MOVB      XAR0,#13              ; [CPU_] |816| 
    2223 000002ba 1B91          CMP       *+XAR1[AR0],#10000    ; [CPU_] |816| 
         000002bb 2710 
    2224 000002bc 56B8          MOVB      XAR0,#11,LO           ; [CPU_] 
         000002bd 0BA0 
    2225 000002be 562B          MOV       *+XAR1[AR0],AH,LO     ; [CPU_] 
         000002bf 0891 
    2226 000002c0 6806          B         $C$L26,LO             ; [CPU_] 
    2227                      ; branchcc occurs ; [] 
    2228                      .dwpsn  file "D:/BM1000_v1.1/sw/drivers/drvic/fsm.c",line 818,column 2,is_stmt
    2229 000002c1 D00B          MOVB      XAR0,#11              ; [CPU_] |818| 
    2230 000002c2 5001          ORB       AL,#0x01              ; [CPU_] |818| 
    2231 000002c3 9691          MOV       *+XAR1[AR0],AL        ; [CPU_] |818| 
    2232                      .dwpsn  file "D:/BM1000_v1.1/sw/drivers/drvic/fsm.h",line 378,column 3,is_stmt
    2233 000002c4 D020          MOVB      XAR0,#32              ; [CPU_] |378| 
    2234 000002c5 2B91          MOV       *+XAR1[AR0],#0        ; [CPU_] |378| 
    2235 000002c6       $C$L26:    
    2236                      .dwpsn  file "D:/BM1000_v1.1/sw/modules/hal/boards/hvkit_rev1p1/f28x/f2802x/src/hal.h",line 821,colum
    2237 000002c6 8AD1          MOVL      XAR4,*+XAR1[2]        ; [CPU_] |821| 
    2238 000002c7 D008          MOVB      XAR0,#8               ; [CPU_] |821| 
    2239 000002c8 9A11          MOVB      AL,#17                ; [CPU_] |821| 
    2240 000002c9 8A94          MOVL      XAR4,*+XAR4[AR0]      ; [CPU_] |821| 
    2241              $C$DW$163       .dwtag  DW_TAG_TI_branch
    2242                      .dwattr $C$DW$163, DW_AT_low_pc(0x00)
    2243                      .dwattr $C$DW$163, DW_AT_name("_GPIO_read")
    2244                      .dwattr $C$DW$163, DW_AT_TI_call
    2245 000002ca 7640!         LCR       #_GPIO_read           ; [CPU_] |821| 
         000002cb 0000 
    2246                      ; call occurs [#_GPIO_read] ; [] |821| 
    2247 000002cc 5200          CMPB      AL,#0                 ; [CPU_] |821| 
    2248 000002cd EC05          BF        $C$L27,EQ             ; [CPU_] |821| 
    2249                      ; branchcc occurs ; [] |821| 
    2250                      .dwpsn  file "D:/BM1000_v1.1/sw/drivers/drvic/fsm.c",line 863,column 2,is_stmt
    2251 000002ce 8AA1          MOVL      XAR4,XAR1             ; [CPU_] |863| 
    2252 000002cf DC0B          ADDB      XAR4,#11              ; [CPU_] |863| 
TMS320C2000 Assembler PC v6.2.5 Wed Nov 22 14:48:16 2017

Tools Copyright (c) 1996-2014 Texas Instruments Incorporated
C:\Users\wmj\AppData\Local\Temp\1257612                              PAGE   45

    2253 000002d0 1AC4          OR        *+XAR4[0],#0x0002     ; [CPU_] |863| 
         000002d1 0002 
    2254 000002d2       $C$L27:    
    2255                      .dwpsn  file "D:/BM1000_v1.1/sw/modules/hal/boards/hvkit_rev1p1/f28x/f2802x/src/hal.h",line 821,colum
    2256 000002d2 8AD1          MOVL      XAR4,*+XAR1[2]        ; [CPU_] |821| 
    2257 000002d3 D008          MOVB      XAR0,#8               ; [CPU_] |821| 
    2258 000002d4 9A10          MOVB      AL,#16                ; [CPU_] |821| 
    2259 000002d5 8A94          MOVL      XAR4,*+XAR4[AR0]      ; [CPU_] |821| 
    2260              $C$DW$164       .dwtag  DW_TAG_TI_branch
    2261                      .dwattr $C$DW$164, DW_AT_low_pc(0x00)
    2262                      .dwattr $C$DW$164, DW_AT_name("_GPIO_read")
    2263                      .dwattr $C$DW$164, DW_AT_TI_call
    2264 000002d6 7640!         LCR       #_GPIO_read           ; [CPU_] |821| 
         000002d7 0000 
    2265                      ; call occurs [#_GPIO_read] ; [] |821| 
    2266 000002d8 5200          CMPB      AL,#0                 ; [CPU_] |821| 
    2267 000002d9 EC05          BF        $C$L28,EQ             ; [CPU_] |821| 
    2268                      ; branchcc occurs ; [] |821| 
    2269                      .dwpsn  file "D:/BM1000_v1.1/sw/drivers/drvic/fsm.c",line 806,column 5,is_stmt
    2270 000002da 8AA1          MOVL      XAR4,XAR1             ; [CPU_] |806| 
    2271 000002db DC0B          ADDB      XAR4,#11              ; [CPU_] |806| 
    2272 000002dc 1AC4          OR        *+XAR4[0],#0x0020     ; [CPU_] |806| 
         000002dd 0020 
    2273 000002de       $C$L28:    
    2274                      .dwpsn  file "D:/BM1000_v1.1/sw/drivers/drvic/fsm.c",line 790,column 3,is_stmt
    2275 000002de 83C1          MOVL      XAR5,*+XAR1[0]        ; [CPU_] |790| 
    2276                      .dwpsn  file "D:/BM1000_v1.1/sw/drivers/drvic/fsm.c",line 792,column 3,is_stmt
    2277 000002df D06A          MOVB      XAR0,#106             ; [CPU_] |792| 
    2278 000002e0 C495          MOVL      XAR6,*+XAR5[AR0]      ; [CPU_] |792| 
    2279 000002e1 FF2F          MOV       ACC,#2880 << 15       ; [CPU_] |792| 
         000002e2 0B40 
    2280 000002e3 0FA6          CMPL      ACC,XAR6              ; [CPU_] |792| 
    2281 000002e4 6309          B         $C$L29,GEQ            ; [CPU_] |792| 
    2282                      ; branchcc occurs ; [] |792| 
    2283 000002e5 FF2F          MOV       ACC,#3200 << 15       ; [CPU_] |792| 
         000002e6 0C80 
    2284 000002e7 0FA6          CMPL      ACC,XAR6              ; [CPU_] |792| 
    2285 000002e8 6505          B         $C$L29,LEQ            ; [CPU_] |792| 
    2286                      ; branchcc occurs ; [] |792| 
    2287                      .dwpsn  file "D:/BM1000_v1.1/sw/drivers/drvic/fsm.c",line 794,column 5,is_stmt
    2288 000002e9 8AA1          MOVL      XAR4,XAR1             ; [CPU_] |794| 
    2289 000002ea DC0B          ADDB      XAR4,#11              ; [CPU_] |794| 
    2290 000002eb 1AC4          OR        *+XAR4[0],#0x0010     ; [CPU_] |794| 
         000002ec 0010 
    2291 000002ed       $C$L29:    
    2292                      .dwpsn  file "D:/BM1000_v1.1/sw/drivers/drvic/fsm.c",line 772,column 3,is_stmt
    2293 000002ed D06C          MOVB      XAR0,#108             ; [CPU_] |772| 
    2294 000002ee C595          MOVL      XAR7,*+XAR5[AR0]      ; [CPU_] |772| 
    2295 000002ef 28A9          MOV       AL,#5244              ; [CPU_] |772| 
         000002f0 147C 
    2296 000002f1 9B6E          MOV       AH,#110               ; [CPU_] |772| 
    2297 000002f2 0FA7          CMPL      ACC,XAR7              ; [CPU_] |772| 
    2298 000002f3 650E          B         $C$L30,LEQ            ; [CPU_] |772| 
    2299                      ; branchcc occurs ; [] |772| 
    2300                      .dwpsn  file "D:/BM1000_v1.1/sw/drivers/drvic/fsm.c",line 776,column 8,is_stmt
TMS320C2000 Assembler PC v6.2.5 Wed Nov 22 14:48:16 2017

Tools Copyright (c) 1996-2014 Texas Instruments Incorporated
C:\Users\wmj\AppData\Local\Temp\1257612                              PAGE   46

    2301 000002f4 D00B          MOVB      XAR0,#11              ; [CPU_] |776| 
    2302 000002f5 28A9          MOV       AL,#44564             ; [CPU_] |776| 
         000002f6 AE14 
    2303 000002f7 8891          MOVZ      AR6,*+XAR1[AR0]       ; [CPU_] |776| 
    2304 000002f8 9B47          MOV       AH,#71                ; [CPU_] |776| 
    2305 000002f9 0FA7          CMPL      ACC,XAR7              ; [CPU_] |776| 
    2306 000002fa 650D          B         $C$L31,LEQ            ; [CPU_] |776| 
    2307                      ; branchcc occurs ; [] |776| 
    2308                      .dwpsn  file "D:/BM1000_v1.1/sw/drivers/drvic/fsm.c",line 778,column 5,is_stmt
    2309 000002fb 92A6          MOV       AL,AR6                ; [CPU_] |778| 
    2310 000002fc D00B          MOVB      XAR0,#11              ; [CPU_] |778| 
    2311 000002fd 5008          ORB       AL,#0x08              ; [CPU_] |778| 
    2312 000002fe 88A9          MOVZ      AR6,AL                ; [CPU_] |778| 
    2313 000002ff 9691          MOV       *+XAR1[AR0],AL        ; [CPU_] |778| 
    2314 00000300 6F07          B         $C$L31,UNC            ; [CPU_] |778| 
    2315                      ; branch occurs ; [] |778| 
    2316 00000301       $C$L30:    
    2317                      .dwpsn  file "D:/BM1000_v1.1/sw/drivers/drvic/fsm.c",line 774,column 5,is_stmt
    2318 00000301 8AA1          MOVL      XAR4,XAR1             ; [CPU_] |774| 
    2319                      .dwpsn  file "D:/BM1000_v1.1/sw/drivers/drvic/fsm.c",line 775,column 3,is_stmt
    2320 00000302 D00B          MOVB      XAR0,#11              ; [CPU_] |775| 
    2321                      .dwpsn  file "D:/BM1000_v1.1/sw/drivers/drvic/fsm.c",line 774,column 5,is_stmt
    2322 00000303 DC0B          ADDB      XAR4,#11              ; [CPU_] |774| 
    2323 00000304 1AC4          OR        *+XAR4[0],#0x0004     ; [CPU_] |774| 
         00000305 0004 
    2324                      .dwpsn  file "D:/BM1000_v1.1/sw/drivers/drvic/fsm.c",line 775,column 3,is_stmt
    2325 00000306 8891          MOVZ      AR6,*+XAR1[AR0]       ; [CPU_] |775| 
    2326 00000307       $C$L31:    
    2327 00000307 92A6          MOV       AL,AR6                ; [CPU_] 
    2328                      .dwpsn  file "D:/BM1000_v1.1/sw/drivers/drvic/fsm.c",line 890,column 3,is_stmt
    2329 00000308 EC03          BF        $C$L32,EQ             ; [CPU_] |890| 
    2330                      ; branchcc occurs ; [] |890| 
    2331                      .dwpsn  file "D:/BM1000_v1.1/sw/drivers/drvic/fsm.c",line 892,column 2,is_stmt
    2332 00000309 D008          MOVB      XAR0,#8               ; [CPU_] |892| 
    2333 0000030a 2B91          MOV       *+XAR1[AR0],#0        ; [CPU_] |892| 
    2334 0000030b       $C$L32:    
    2335 0000030b 8BBE          MOVL      XAR1,*--SP            ; [CPU_] 
    2336                      .dwcfi  cfa_offset, -2
    2337                      .dwcfi  restore_reg, 7
    2338              $C$DW$165       .dwtag  DW_TAG_TI_branch
    2339                      .dwattr $C$DW$165, DW_AT_low_pc(0x00)
    2340                      .dwattr $C$DW$165, DW_AT_TI_return
    2341 0000030c 0006          LRETR     ; [CPU_] 
    2342                      ; return occurs ; [] 
    2343                      .dwattr $C$DW$160, DW_AT_TI_end_file("D:/BM1000_v1.1/sw/drivers/drvic/fsm.c")
    2344                      .dwattr $C$DW$160, DW_AT_TI_end_line(0x380)
    2345                      .dwattr $C$DW$160, DW_AT_TI_end_column(0x01)
    2346                      .dwendentry
    2347                      .dwendtag $C$DW$160
    2348              
    2349 0000030d               .sect   ".text"
    2350                      .clink
    2351                      .global _FSM_RunTrans
    2352              
    2353              $C$DW$166       .dwtag  DW_TAG_subprogram, DW_AT_name("FSM_RunTrans")
TMS320C2000 Assembler PC v6.2.5 Wed Nov 22 14:48:16 2017

Tools Copyright (c) 1996-2014 Texas Instruments Incorporated
C:\Users\wmj\AppData\Local\Temp\1257612                              PAGE   47

    2354                      .dwattr $C$DW$166, DW_AT_low_pc(_FSM_RunTrans)
    2355                      .dwattr $C$DW$166, DW_AT_high_pc(0x00)
    2356                      .dwattr $C$DW$166, DW_AT_TI_symbol_name("_FSM_RunTrans")
    2357                      .dwattr $C$DW$166, DW_AT_external
    2358                      .dwattr $C$DW$166, DW_AT_TI_begin_file("D:/BM1000_v1.1/sw/drivers/drvic/fsm.c")
    2359                      .dwattr $C$DW$166, DW_AT_TI_begin_line(0x4ae)
    2360                      .dwattr $C$DW$166, DW_AT_TI_begin_column(0x06)
    2361                      .dwattr $C$DW$166, DW_AT_TI_max_frame_size(-2)
    2362                      .dwpsn  file "D:/BM1000_v1.1/sw/drivers/drvic/fsm.c",line 1199,column 1,is_stmt,address _FSM_RunTrans
    2363              
    2364                      .dwfde $C$DW$CIE, _FSM_RunTrans
    2365              $C$DW$167       .dwtag  DW_TAG_formal_parameter, DW_AT_name("handle")
    2366                      .dwattr $C$DW$167, DW_AT_TI_symbol_name("_handle")
    2367                      .dwattr $C$DW$167, DW_AT_type(*$C$DW$T$169)
    2368                      .dwattr $C$DW$167, DW_AT_location[DW_OP_reg12]
    2369              
    2370              ;***************************************************************
    2371              ;* FNAME: _FSM_RunTrans                 FR SIZE:   0           *
    2372              ;*                                                             *
    2373              ;* FUNCTION ENVIRONMENT                                        *
    2374              ;*                                                             *
    2375              ;* FUNCTION PROPERTIES                                         *
    2376              ;*                            0 Parameter,  0 Auto,  0 SOE     *
    2377              ;***************************************************************
    2378              
    2379              _FSM_RunTrans:
    2380              ;* AR6   assigned to $O$v1
    2381              ;* AR4   assigned to _handle
    2382              $C$DW$168       .dwtag  DW_TAG_variable, DW_AT_name("handle")
    2383                      .dwattr $C$DW$168, DW_AT_TI_symbol_name("_handle")
    2384                      .dwattr $C$DW$168, DW_AT_type(*$C$DW$T$170)
    2385                      .dwattr $C$DW$168, DW_AT_location[DW_OP_reg12]
    2386                      .dwcfi  cfa_offset, -2
    2387                      .dwcfi  save_reg_to_mem, 26, 0
    2388                      .dwcfi  save_reg_to_reg, 78, 26
    2389                      .dwpsn  file "D:/BM1000_v1.1/sw/drivers/drvic/fsm.c",line 1202,column 3,is_stmt
    2390 0000030d 88F4          MOVZ      AR6,*+XAR4[6]         ; [CPU_] |1202| 
    2391 0000030e 3B01          SETC      SXM                   ; [CPU_] 
    2392                      .dwpsn  file "D:/BM1000_v1.1/sw/drivers/drvic/fsm.c",line 1204,column 5,is_stmt
    2393 0000030f 83E4          MOVL      XAR5,*+XAR4[4]        ; [CPU_] |1204| 
    2394 00000310 D01E          MOVB      XAR0,#30              ; [CPU_] |1204| 
    2395                      .dwpsn  file "D:/BM1000_v1.1/sw/drivers/drvic/fsm.c",line 1202,column 3,is_stmt
    2396 00000311 92A6          MOV       AL,AR6                ; [CPU_] |1202| 
    2397                      .dwpsn  file "D:/BM1000_v1.1/sw/drivers/drvic/fsm.c",line 1204,column 5,is_stmt
    2398 00000312 85A9          MOV       ACC,AL                ; [CPU_] |1204| 
    2399 00000313 5601          ADDL      XAR5,ACC              ; [CPU_] |1204| 
         00000314 00A5 
    2400 00000315 8595          MOV       ACC,*+XAR5[AR0]       ; [CPU_] |1204| 
    2401 00000316 D009          MOVB      XAR0,#9               ; [CPU_] |1204| 
    2402 00000317 8F40+         MOVL      XAR5,#_FSM_EventTab   ; [CPU_U] |1204| 
         00000318 0000 
    2403 00000319 5601          ADDL      XAR5,ACC              ; [CPU_] |1204| 
         0000031a 00A5 
    2404 0000031b 92C5          MOV       AL,*+XAR5[0]          ; [CPU_] |1204| 
    2405 0000031c 5494          CMP       AL,*+XAR4[AR0]        ; [CPU_] |1204| 
TMS320C2000 Assembler PC v6.2.5 Wed Nov 22 14:48:16 2017

Tools Copyright (c) 1996-2014 Texas Instruments Incorporated
C:\Users\wmj\AppData\Local\Temp\1257612                              PAGE   48

    2406 0000031d ED03          BF        $C$L33,NEQ            ; [CPU_] |1204| 
    2407                      ; branchcc occurs ; [] |1204| 
    2408 0000031e 9A02          MOVB      AL,#2                 ; [CPU_] |1204| 
    2409 0000031f 6F02          B         $C$L34,UNC            ; [CPU_] |1204| 
    2410                      ; branch occurs ; [] |1204| 
    2411 00000320       $C$L33:    
    2412 00000320 9A01          MOVB      AL,#1                 ; [CPU_] |1204| 
    2413 00000321       $C$L34:    
    2414 00000321 D008          MOVB      XAR0,#8               ; [CPU_] |1204| 
    2415 00000322 9694          MOV       *+XAR4[AR0],AL        ; [CPU_] |1204| 
    2416 00000323 92A6          MOV       AL,AR6                ; [CPU_] |1204| 
    2417                      .dwpsn  file "D:/BM1000_v1.1/sw/drivers/drvic/fsm.c",line 1211,column 3,is_stmt
    2418 00000324 520E          CMPB      AL,#14                ; [CPU_] |1211| 
    2419 00000325 EC03          BF        $C$L35,EQ             ; [CPU_] |1211| 
    2420                      ; branchcc occurs ; [] |1211| 
    2421                      .dwpsn  file "D:/BM1000_v1.1/sw/drivers/drvic/fsm.c",line 1213,column 5,is_stmt
    2422              $C$DW$169       .dwtag  DW_TAG_TI_branch
    2423                      .dwattr $C$DW$169, DW_AT_low_pc(0x00)
    2424                      .dwattr $C$DW$169, DW_AT_name("_FSM_CheckErrors")
    2425                      .dwattr $C$DW$169, DW_AT_TI_call
    2426 00000326 7640'         LCR       #_FSM_CheckErrors     ; [CPU_] |1213| 
         00000327 02AF 
    2427                      ; call occurs [#_FSM_CheckErrors] ; [] |1213| 
    2428              $C$L35:    
    2429              $C$DW$170       .dwtag  DW_TAG_TI_branch
    2430                      .dwattr $C$DW$170, DW_AT_low_pc(0x00)
    2431                      .dwattr $C$DW$170, DW_AT_TI_return
    2432 00000328 0006          LRETR     ; [CPU_] 
    2433                      ; return occurs ; [] 
    2434                      .dwattr $C$DW$166, DW_AT_TI_end_file("D:/BM1000_v1.1/sw/drivers/drvic/fsm.c")
    2435                      .dwattr $C$DW$166, DW_AT_TI_end_line(0x4c1)
    2436                      .dwattr $C$DW$166, DW_AT_TI_end_column(0x01)
    2437                      .dwendentry
    2438                      .dwendtag $C$DW$166
    2439              
    2440 00000329               .sect   ".text"
    2441                      .clink
    2442                      .global _FSM_RunRetire
    2443              
    2444              $C$DW$171       .dwtag  DW_TAG_subprogram, DW_AT_name("FSM_RunRetire")
    2445                      .dwattr $C$DW$171, DW_AT_low_pc(_FSM_RunRetire)
    2446                      .dwattr $C$DW$171, DW_AT_high_pc(0x00)
    2447                      .dwattr $C$DW$171, DW_AT_TI_symbol_name("_FSM_RunRetire")
    2448                      .dwattr $C$DW$171, DW_AT_external
    2449                      .dwattr $C$DW$171, DW_AT_TI_begin_file("D:/BM1000_v1.1/sw/drivers/drvic/fsm.c")
    2450                      .dwattr $C$DW$171, DW_AT_TI_begin_line(0x4de)
    2451                      .dwattr $C$DW$171, DW_AT_TI_begin_column(0x06)
    2452                      .dwattr $C$DW$171, DW_AT_TI_max_frame_size(-2)
    2453                      .dwpsn  file "D:/BM1000_v1.1/sw/drivers/drvic/fsm.c",line 1247,column 1,is_stmt,address _FSM_RunRetir
    2454              
    2455                      .dwfde $C$DW$CIE, _FSM_RunRetire
    2456              $C$DW$172       .dwtag  DW_TAG_formal_parameter, DW_AT_name("handle")
    2457                      .dwattr $C$DW$172, DW_AT_TI_symbol_name("_handle")
    2458                      .dwattr $C$DW$172, DW_AT_type(*$C$DW$T$169)
    2459                      .dwattr $C$DW$172, DW_AT_location[DW_OP_reg12]
TMS320C2000 Assembler PC v6.2.5 Wed Nov 22 14:48:16 2017

Tools Copyright (c) 1996-2014 Texas Instruments Incorporated
C:\Users\wmj\AppData\Local\Temp\1257612                              PAGE   49

    2460              
    2461              ;***************************************************************
    2462              ;* FNAME: _FSM_RunRetire                FR SIZE:   0           *
    2463              ;*                                                             *
    2464              ;* FUNCTION ENVIRONMENT                                        *
    2465              ;*                                                             *
    2466              ;* FUNCTION PROPERTIES                                         *
    2467              ;*                            0 Parameter,  0 Auto,  0 SOE     *
    2468              ;***************************************************************
    2469              
    2470              _FSM_RunRetire:
    2471              ;* AR4   assigned to _handle
    2472              $C$DW$173       .dwtag  DW_TAG_variable, DW_AT_name("handle")
    2473                      .dwattr $C$DW$173, DW_AT_TI_symbol_name("_handle")
    2474                      .dwattr $C$DW$173, DW_AT_type(*$C$DW$T$170)
    2475                      .dwattr $C$DW$173, DW_AT_location[DW_OP_reg12]
    2476                      .dwcfi  cfa_offset, -2
    2477                      .dwcfi  save_reg_to_mem, 26, 0
    2478                      .dwcfi  save_reg_to_reg, 78, 26
    2479                      .dwpsn  file "D:/BM1000_v1.1/sw/drivers/drvic/fsm.c",line 1250,column 3,is_stmt
    2480 00000329 92F4          MOV       AL,*+XAR4[6]          ; [CPU_] |1250| 
    2481 0000032a ED0D          BF        $C$L37,NEQ            ; [CPU_] |1250| 
    2482                      ; branchcc occurs ; [] |1250| 
    2483                      .dwpsn  file "D:/BM1000_v1.1/sw/drivers/drvic/fsm.h",line 481,column 3,is_stmt
    2484 0000032b D01E          MOVB      XAR0,#30              ; [CPU_] |481| 
    2485 0000032c 2B94          MOV       *+XAR4[AR0],#0        ; [CPU_] |481| 
    2486                      .dwpsn  file "D:/BM1000_v1.1/sw/drivers/drvic/fsm.c",line 1257,column 4,is_stmt
    2487 0000032d D00B          MOVB      XAR0,#11              ; [CPU_] |1257| 
    2488 0000032e 4094          TBIT      *+XAR4[AR0],#0        ; [CPU_] |1257| 
    2489 0000032f EF06          BF        $C$L36,NTC            ; [CPU_] |1257| 
    2490                      ; branchcc occurs ; [] |1257| 
    2491                      .dwpsn  file "D:/BM1000_v1.1/sw/drivers/drvic/fsm.h",line 387,column 3,is_stmt
    2492 00000330 D00D          MOVB      XAR0,#13              ; [CPU_] |387| 
    2493 00000331 2B94          MOV       *+XAR4[AR0],#0        ; [CPU_] |387| 
    2494                      .dwpsn  file "D:/BM1000_v1.1/sw/drivers/drvic/fsm.h",line 378,column 3,is_stmt
    2495 00000332 D020          MOVB      XAR0,#32              ; [CPU_] |378| 
    2496 00000333 56BF          MOVB      *+XAR4[AR0],#1,UNC    ; [CPU_] |378| 
         00000334 0194 
    2497 00000335       $C$L36:    
    2498                      .dwpsn  file "D:/BM1000_v1.1/sw/drivers/drvic/fsm.h",line 421,column 3,is_stmt
    2499 00000335 2BF4          MOV       *+XAR4[6],#0          ; [CPU_] |421| 
    2500              $C$DW$174       .dwtag  DW_TAG_TI_branch
    2501                      .dwattr $C$DW$174, DW_AT_low_pc(0x00)
    2502                      .dwattr $C$DW$174, DW_AT_TI_return
    2503 00000336 0006          LRETR     ; [CPU_] 
    2504                      ; return occurs ; [] 
    2505 00000337       $C$L37:    
    2506 00000337 56BF          MOVB      *+XAR4[6],#14,UNC     ; [CPU_] |421| 
         00000338 0EF4 
    2507              $C$DW$175       .dwtag  DW_TAG_TI_branch
    2508                      .dwattr $C$DW$175, DW_AT_low_pc(0x00)
    2509                      .dwattr $C$DW$175, DW_AT_TI_return
    2510 00000339 0006          LRETR     ; [CPU_] 
    2511                      ; return occurs ; [] 
    2512                      .dwattr $C$DW$171, DW_AT_TI_end_file("D:/BM1000_v1.1/sw/drivers/drvic/fsm.c")
TMS320C2000 Assembler PC v6.2.5 Wed Nov 22 14:48:16 2017

Tools Copyright (c) 1996-2014 Texas Instruments Incorporated
C:\Users\wmj\AppData\Local\Temp\1257612                              PAGE   50

    2513                      .dwattr $C$DW$171, DW_AT_TI_end_line(0x4f5)
    2514                      .dwattr $C$DW$171, DW_AT_TI_end_column(0x01)
    2515                      .dwendentry
    2516                      .dwendtag $C$DW$171
    2517              
    2518 0000033a               .sect   ".text"
    2519                      .clink
    2520                      .global _FSM_RunPolling
    2521              
    2522              $C$DW$176       .dwtag  DW_TAG_subprogram, DW_AT_name("FSM_RunPolling")
    2523                      .dwattr $C$DW$176, DW_AT_low_pc(_FSM_RunPolling)
    2524                      .dwattr $C$DW$176, DW_AT_high_pc(0x00)
    2525                      .dwattr $C$DW$176, DW_AT_TI_symbol_name("_FSM_RunPolling")
    2526                      .dwattr $C$DW$176, DW_AT_external
    2527                      .dwattr $C$DW$176, DW_AT_TI_begin_file("D:/BM1000_v1.1/sw/drivers/drvic/fsm.c")
    2528                      .dwattr $C$DW$176, DW_AT_TI_begin_line(0x4f7)
    2529                      .dwattr $C$DW$176, DW_AT_TI_begin_column(0x06)
    2530                      .dwattr $C$DW$176, DW_AT_TI_max_frame_size(-2)
    2531                      .dwpsn  file "D:/BM1000_v1.1/sw/drivers/drvic/fsm.c",line 1272,column 1,is_stmt,address _FSM_RunPolli
    2532              
    2533                      .dwfde $C$DW$CIE, _FSM_RunPolling
    2534              $C$DW$177       .dwtag  DW_TAG_formal_parameter, DW_AT_name("handle")
    2535                      .dwattr $C$DW$177, DW_AT_TI_symbol_name("_handle")
    2536                      .dwattr $C$DW$177, DW_AT_type(*$C$DW$T$169)
    2537                      .dwattr $C$DW$177, DW_AT_location[DW_OP_reg12]
    2538              
    2539              ;***************************************************************
    2540              ;* FNAME: _FSM_RunPolling               FR SIZE:   0           *
    2541              ;*                                                             *
    2542              ;* FUNCTION ENVIRONMENT                                        *
    2543              ;*                                                             *
    2544              ;* FUNCTION PROPERTIES                                         *
    2545              ;*                            0 Parameter,  0 Auto,  0 SOE     *
    2546              ;***************************************************************
    2547              
    2548              _FSM_RunPolling:
    2549              ;* AR4   assigned to _handle
    2550              $C$DW$178       .dwtag  DW_TAG_variable, DW_AT_name("handle")
    2551                      .dwattr $C$DW$178, DW_AT_TI_symbol_name("_handle")
    2552                      .dwattr $C$DW$178, DW_AT_type(*$C$DW$T$170)
    2553                      .dwattr $C$DW$178, DW_AT_location[DW_OP_reg12]
    2554              ;* AL    assigned to _SpeedData
    2555              $C$DW$179       .dwtag  DW_TAG_variable, DW_AT_name("SpeedData")
    2556                      .dwattr $C$DW$179, DW_AT_TI_symbol_name("_SpeedData")
    2557                      .dwattr $C$DW$179, DW_AT_type(*$C$DW$T$12)
    2558                      .dwattr $C$DW$179, DW_AT_location[DW_OP_reg0]
    2559                      .dwcfi  cfa_offset, -2
    2560                      .dwcfi  save_reg_to_mem, 26, 0
    2561                      .dwcfi  save_reg_to_reg, 78, 26
    2562 0000033a 3B01          SETC      SXM                   ; [CPU_] 
    2563                      .dwpsn  file "D:/BM1000_v1.1/sw/drivers/drvic/fsm.c",line 1277,column 3,is_stmt
    2564 0000033b 85F4          MOV       ACC,*+XAR4[6]         ; [CPU_] |1277| 
    2565 0000033c 83E4          MOVL      XAR5,*+XAR4[4]        ; [CPU_] |1277| 
    2566 0000033d 5601          ADDL      XAR5,ACC              ; [CPU_] |1277| 
         0000033e 00A5 
TMS320C2000 Assembler PC v6.2.5 Wed Nov 22 14:48:16 2017

Tools Copyright (c) 1996-2014 Texas Instruments Incorporated
C:\Users\wmj\AppData\Local\Temp\1257612                              PAGE   51

    2567 0000033f 85C5          MOV       ACC,*+XAR5[0]         ; [CPU_] |1277| 
    2568                      .dwpsn  file "D:/BM1000_v1.1/sw/drivers/drvic/fsm.h",line 368,column 4,is_stmt
    2569 00000340 8AC4          MOVL      XAR4,*+XAR4[0]        ; [CPU_] |368| 
    2570              ;       MOV       T,AL Implicitly done by - MPY ACC,OP,#IMM
    2571 00000341 34A9          MPY      ACC,AL,#16777         ; [CPU_] |368| 
         00000342 4189 
    2572 00000343 D01A          MOVB      XAR0,#26              ; [CPU_] |368| 
    2573 00000344 1E94          MOVL      *+XAR4[AR0],ACC       ; [CPU_] |368| 
    2574              $C$DW$180       .dwtag  DW_TAG_TI_branch
    2575                      .dwattr $C$DW$180, DW_AT_low_pc(0x00)
    2576                      .dwattr $C$DW$180, DW_AT_TI_return
    2577 00000345 0006          LRETR     ; [CPU_] 
    2578                      ; return occurs ; [] 
    2579                      .dwattr $C$DW$176, DW_AT_TI_end_file("D:/BM1000_v1.1/sw/drivers/drvic/fsm.c")
    2580                      .dwattr $C$DW$176, DW_AT_TI_end_line(0x518)
    2581                      .dwattr $C$DW$176, DW_AT_TI_end_column(0x01)
    2582                      .dwendentry
    2583                      .dwendtag $C$DW$176
    2584              
    2585 00000346               .sect   ".text"
    2586                      .clink
    2587                      .global _FSM_RunConfig
    2588              
    2589              $C$DW$181       .dwtag  DW_TAG_subprogram, DW_AT_name("FSM_RunConfig")
    2590                      .dwattr $C$DW$181, DW_AT_low_pc(_FSM_RunConfig)
    2591                      .dwattr $C$DW$181, DW_AT_high_pc(0x00)
    2592                      .dwattr $C$DW$181, DW_AT_TI_symbol_name("_FSM_RunConfig")
    2593                      .dwattr $C$DW$181, DW_AT_external
    2594                      .dwattr $C$DW$181, DW_AT_TI_begin_file("D:/BM1000_v1.1/sw/drivers/drvic/fsm.c")
    2595                      .dwattr $C$DW$181, DW_AT_TI_begin_line(0x4c3)
    2596                      .dwattr $C$DW$181, DW_AT_TI_begin_column(0x06)
    2597                      .dwattr $C$DW$181, DW_AT_TI_max_frame_size(-2)
    2598                      .dwpsn  file "D:/BM1000_v1.1/sw/drivers/drvic/fsm.c",line 1220,column 1,is_stmt,address _FSM_RunConfi
    2599              
    2600                      .dwfde $C$DW$CIE, _FSM_RunConfig
    2601              $C$DW$182       .dwtag  DW_TAG_formal_parameter, DW_AT_name("handle")
    2602                      .dwattr $C$DW$182, DW_AT_TI_symbol_name("_handle")
    2603                      .dwattr $C$DW$182, DW_AT_type(*$C$DW$T$169)
    2604                      .dwattr $C$DW$182, DW_AT_location[DW_OP_reg12]
    2605              
    2606              ;***************************************************************
    2607              ;* FNAME: _FSM_RunConfig                FR SIZE:   0           *
    2608              ;*                                                             *
    2609              ;* FUNCTION ENVIRONMENT                                        *
    2610              ;*                                                             *
    2611              ;* FUNCTION PROPERTIES                                         *
    2612              ;*                            0 Parameter,  0 Auto,  0 SOE     *
    2613              ;***************************************************************
    2614              
    2615              _FSM_RunConfig:
    2616              ;* AR5   assigned to $O$C1
    2617              ;* AL    assigned to $O$v2
    2618              ;* AH    assigned to $O$v1
    2619              ;* AR4   assigned to _handle
    2620              $C$DW$183       .dwtag  DW_TAG_variable, DW_AT_name("handle")
TMS320C2000 Assembler PC v6.2.5 Wed Nov 22 14:48:16 2017

Tools Copyright (c) 1996-2014 Texas Instruments Incorporated
C:\Users\wmj\AppData\Local\Temp\1257612                              PAGE   52

    2621                      .dwattr $C$DW$183, DW_AT_TI_symbol_name("_handle")
    2622                      .dwattr $C$DW$183, DW_AT_type(*$C$DW$T$170)
    2623                      .dwattr $C$DW$183, DW_AT_location[DW_OP_reg12]
    2624                      .dwcfi  cfa_offset, -2
    2625                      .dwcfi  save_reg_to_mem, 26, 0
    2626                      .dwcfi  save_reg_to_reg, 78, 26
    2627                      .dwpsn  file "D:/BM1000_v1.1/sw/drivers/drvic/fsm.c",line 1223,column 3,is_stmt
    2628 00000346 92F4          MOV       AL,*+XAR4[6]          ; [CPU_] |1223| 
    2629 00000347 93FC          MOV       AH,*+XAR4[7]          ; [CPU_] |1223| 
    2630 00000348 54A8          CMP       AL,AH                 ; [CPU_] |1223| 
    2631 00000349 EC15          BF        $C$L39,EQ             ; [CPU_] |1223| 
    2632                      ; branchcc occurs ; [] |1223| 
    2633                      .dwpsn  file "D:/BM1000_v1.1/sw/drivers/drvic/fsm.h",line 387,column 3,is_stmt
    2634 0000034a D00D          MOVB      XAR0,#13              ; [CPU_] |387| 
    2635 0000034b 2B94          MOV       *+XAR4[AR0],#0        ; [CPU_] |387| 
    2636                      .dwpsn  file "D:/BM1000_v1.1/sw/drivers/drvic/fsm.c",line 1230,column 5,is_stmt
    2637 0000034c 5302          CMPB      AH,#2                 ; [CPU_] |1230| 
    2638                      .dwpsn  file "D:/BM1000_v1.1/sw/drivers/drvic/fsm.h",line 378,column 3,is_stmt
    2639 0000034d D020          MOVB      XAR0,#32              ; [CPU_] |378| 
    2640 0000034e 56BF          MOVB      *+XAR4[AR0],#1,UNC    ; [CPU_] |378| 
         0000034f 0194 
    2641                      .dwpsn  file "D:/BM1000_v1.1/sw/drivers/drvic/fsm.c",line 1230,column 5,is_stmt
    2642 00000350 ED08          BF        $C$L38,NEQ            ; [CPU_] |1230| 
    2643                      ; branchcc occurs ; [] |1230| 
    2644 00000351 5203          CMPB      AL,#3                 ; [CPU_] |1230| 
    2645 00000352 ED06          BF        $C$L38,NEQ            ; [CPU_] |1230| 
    2646                      ; branchcc occurs ; [] |1230| 
    2647                      .dwpsn  file "D:/BM1000_v1.1/sw/drivers/drvic/fsm.c",line 1232,column 7,is_stmt
    2648 00000353 83E4          MOVL      XAR5,*+XAR4[4]        ; [CPU_] |1232| 
    2649 00000354 92D5          MOV       AL,*+XAR5[2]          ; [CPU_] |1232| 
    2650 00000355 FF5C          NEG       AL                    ; [CPU_] |1232| 
    2651 00000356 96DD          MOV       *+XAR5[3],AL          ; [CPU_] |1232| 
    2652 00000357 92F4          MOV       AL,*+XAR4[6]          ; [CPU_] |1232| 
    2653 00000358       $C$L38:    
    2654                      .dwpsn  file "D:/BM1000_v1.1/sw/drivers/drvic/fsm.c",line 1235,column 5,is_stmt
    2655 00000358 5206          CMPB      AL,#6                 ; [CPU_] |1235| 
    2656                      .dwpsn  file "D:/BM1000_v1.1/sw/drivers/drvic/fsm.c",line 1237,column 6,is_stmt
    2657 00000359 56B1          MOVB      XAR0,#36,EQ           ; [CPU_] |1237| 
         0000035a 24A0 
    2658 0000035b 56B1          MOVB      *+XAR4[AR0],#1,EQ     ; [CPU_] |1237| 
         0000035c 0194 
    2659                      .dwpsn  file "D:/BM1000_v1.1/sw/drivers/drvic/fsm.c",line 1240,column 5,is_stmt
    2660 0000035d 96FC          MOV       *+XAR4[7],AL          ; [CPU_] |1240| 
    2661              $C$L39:    
    2662              $C$DW$184       .dwtag  DW_TAG_TI_branch
    2663                      .dwattr $C$DW$184, DW_AT_low_pc(0x00)
    2664                      .dwattr $C$DW$184, DW_AT_TI_return
    2665 0000035e 0006          LRETR     ; [CPU_] 
    2666                      ; return occurs ; [] 
    2667                      .dwattr $C$DW$181, DW_AT_TI_end_file("D:/BM1000_v1.1/sw/drivers/drvic/fsm.c")
    2668                      .dwattr $C$DW$181, DW_AT_TI_end_line(0x4dc)
    2669                      .dwattr $C$DW$181, DW_AT_TI_end_column(0x01)
    2670                      .dwendentry
    2671                      .dwendtag $C$DW$181
    2672              
TMS320C2000 Assembler PC v6.2.5 Wed Nov 22 14:48:16 2017

Tools Copyright (c) 1996-2014 Texas Instruments Incorporated
C:\Users\wmj\AppData\Local\Temp\1257612                              PAGE   53

    2673 0000035f               .sect   ".text"
    2674                      .clink
    2675                      .global _FSM_CheckTimes
    2676              
    2677              $C$DW$185       .dwtag  DW_TAG_subprogram, DW_AT_name("FSM_CheckTimes")
    2678                      .dwattr $C$DW$185, DW_AT_low_pc(_FSM_CheckTimes)
    2679                      .dwattr $C$DW$185, DW_AT_high_pc(0x00)
    2680                      .dwattr $C$DW$185, DW_AT_TI_symbol_name("_FSM_CheckTimes")
    2681                      .dwattr $C$DW$185, DW_AT_external
    2682                      .dwattr $C$DW$185, DW_AT_TI_begin_file("D:/BM1000_v1.1/sw/drivers/drvic/fsm.c")
    2683                      .dwattr $C$DW$185, DW_AT_TI_begin_line(0x2ed)
    2684                      .dwattr $C$DW$185, DW_AT_TI_begin_column(0x06)
    2685                      .dwattr $C$DW$185, DW_AT_TI_max_frame_size(-2)
    2686                      .dwpsn  file "D:/BM1000_v1.1/sw/drivers/drvic/fsm.c",line 750,column 1,is_stmt,address _FSM_CheckTime
    2687              
    2688                      .dwfde $C$DW$CIE, _FSM_CheckTimes
    2689              $C$DW$186       .dwtag  DW_TAG_formal_parameter, DW_AT_name("handle")
    2690                      .dwattr $C$DW$186, DW_AT_TI_symbol_name("_handle")
    2691                      .dwattr $C$DW$186, DW_AT_type(*$C$DW$T$169)
    2692                      .dwattr $C$DW$186, DW_AT_location[DW_OP_reg12]
    2693              
    2694              ;***************************************************************
    2695              ;* FNAME: _FSM_CheckTimes               FR SIZE:   0           *
    2696              ;*                                                             *
    2697              ;* FUNCTION ENVIRONMENT                                        *
    2698              ;*                                                             *
    2699              ;* FUNCTION PROPERTIES                                         *
    2700              ;*                            0 Parameter,  0 Auto,  0 SOE     *
    2701              ;***************************************************************
    2702              
    2703              _FSM_CheckTimes:
    2704              ;* AR4   assigned to _handle
    2705              $C$DW$187       .dwtag  DW_TAG_variable, DW_AT_name("handle")
    2706                      .dwattr $C$DW$187, DW_AT_TI_symbol_name("_handle")
    2707                      .dwattr $C$DW$187, DW_AT_type(*$C$DW$T$170)
    2708                      .dwattr $C$DW$187, DW_AT_location[DW_OP_reg12]
    2709                      .dwcfi  cfa_offset, -2
    2710                      .dwcfi  save_reg_to_mem, 26, 0
    2711                      .dwcfi  save_reg_to_reg, 78, 26
    2712                      .dwpsn  file "D:/BM1000_v1.1/sw/drivers/drvic/fsm.c",line 753,column 3,is_stmt
    2713 0000035f D015          MOVB      XAR0,#21              ; [CPU_] |753| 
    2714 00000360 9294          MOV       AL,*+XAR4[AR0]        ; [CPU_] |753| 
    2715 00000361 D00D          MOVB      XAR0,#13              ; [CPU_] |753| 
    2716 00000362 5494          CMP       AL,*+XAR4[AR0]        ; [CPU_] |753| 
    2717 00000363 6903          B         $C$L40,LOS            ; [CPU_] |753| 
    2718                      ; branchcc occurs ; [] |753| 
    2719                      .dwpsn  file "D:/BM1000_v1.1/sw/drivers/drvic/fsm.c",line 759,column 5,is_stmt
    2720 00000364 D009          MOVB      XAR0,#9               ; [CPU_] |759| 
    2721 00000365 6F05          B         $C$L41,UNC            ; [CPU_] |759| 
    2722                      ; branch occurs ; [] |759| 
    2723 00000366       $C$L40:    
    2724                      .dwpsn  file "D:/BM1000_v1.1/sw/drivers/drvic/fsm.c",line 755,column 5,is_stmt
    2725 00000366 D009          MOVB      XAR0,#9               ; [CPU_] |755| 
    2726 00000367 56BF          MOVB      *+XAR4[AR0],#1,UNC    ; [CPU_] |755| 
         00000368 0194 
TMS320C2000 Assembler PC v6.2.5 Wed Nov 22 14:48:16 2017

Tools Copyright (c) 1996-2014 Texas Instruments Incorporated
C:\Users\wmj\AppData\Local\Temp\1257612                              PAGE   54

    2727                      .dwpsn  file "D:/BM1000_v1.1/sw/drivers/drvic/fsm.h",line 378,column 3,is_stmt
    2728 00000369 D020          MOVB      XAR0,#32              ; [CPU_] |378| 
    2729 0000036a       $C$L41:    
    2730 0000036a 2B94          MOV       *+XAR4[AR0],#0        ; [CPU_] |378| 
    2731              $C$DW$188       .dwtag  DW_TAG_TI_branch
    2732                      .dwattr $C$DW$188, DW_AT_low_pc(0x00)
    2733                      .dwattr $C$DW$188, DW_AT_TI_return
    2734 0000036b 0006          LRETR     ; [CPU_] 
    2735                      ; return occurs ; [] 
    2736                      .dwattr $C$DW$185, DW_AT_TI_end_file("D:/BM1000_v1.1/sw/drivers/drvic/fsm.c")
    2737                      .dwattr $C$DW$185, DW_AT_TI_end_line(0x2fa)
    2738                      .dwattr $C$DW$185, DW_AT_TI_end_column(0x01)
    2739                      .dwendentry
    2740                      .dwendtag $C$DW$185
    2741              
    2742 0000036c               .sect   ".text"
    2743                      .clink
    2744                      .global _FSM_CheckMoveStatus
    2745              
    2746              $C$DW$189       .dwtag  DW_TAG_subprogram, DW_AT_name("FSM_CheckMoveStatus")
    2747                      .dwattr $C$DW$189, DW_AT_low_pc(_FSM_CheckMoveStatus)
    2748                      .dwattr $C$DW$189, DW_AT_high_pc(0x00)
    2749                      .dwattr $C$DW$189, DW_AT_TI_symbol_name("_FSM_CheckMoveStatus")
    2750                      .dwattr $C$DW$189, DW_AT_external
    2751                      .dwattr $C$DW$189, DW_AT_TI_begin_file("D:/BM1000_v1.1/sw/drivers/drvic/fsm.c")
    2752                      .dwattr $C$DW$189, DW_AT_TI_begin_line(0x29f)
    2753                      .dwattr $C$DW$189, DW_AT_TI_begin_column(0x06)
    2754                      .dwattr $C$DW$189, DW_AT_TI_max_frame_size(-2)
    2755                      .dwpsn  file "D:/BM1000_v1.1/sw/drivers/drvic/fsm.c",line 672,column 1,is_stmt,address _FSM_CheckMove
    2756              
    2757                      .dwfde $C$DW$CIE, _FSM_CheckMoveStatus
    2758              $C$DW$190       .dwtag  DW_TAG_formal_parameter, DW_AT_name("handle")
    2759                      .dwattr $C$DW$190, DW_AT_TI_symbol_name("_handle")
    2760                      .dwattr $C$DW$190, DW_AT_type(*$C$DW$T$169)
    2761                      .dwattr $C$DW$190, DW_AT_location[DW_OP_reg12]
    2762              
    2763              ;***************************************************************
    2764              ;* FNAME: _FSM_CheckMoveStatus          FR SIZE:   0           *
    2765              ;*                                                             *
    2766              ;* FUNCTION ENVIRONMENT                                        *
    2767              ;*                                                             *
    2768              ;* FUNCTION PROPERTIES                                         *
    2769              ;*                            0 Parameter,  0 Auto,  0 SOE     *
    2770              ;***************************************************************
    2771              
    2772              _FSM_CheckMoveStatus:
    2773              ;* AR4   assigned to _handle
    2774              $C$DW$191       .dwtag  DW_TAG_variable, DW_AT_name("handle")
    2775                      .dwattr $C$DW$191, DW_AT_TI_symbol_name("_handle")
    2776                      .dwattr $C$DW$191, DW_AT_type(*$C$DW$T$170)
    2777                      .dwattr $C$DW$191, DW_AT_location[DW_OP_reg12]
    2778                      .dwcfi  cfa_offset, -2
    2779                      .dwcfi  save_reg_to_mem, 26, 0
    2780                      .dwcfi  save_reg_to_reg, 78, 26
    2781                      .dwpsn  file "D:/BM1000_v1.1/sw/drivers/drvic/fsm.c",line 703,column 3,is_stmt
TMS320C2000 Assembler PC v6.2.5 Wed Nov 22 14:48:16 2017

Tools Copyright (c) 1996-2014 Texas Instruments Incorporated
C:\Users\wmj\AppData\Local\Temp\1257612                              PAGE   55

    2782              $C$DW$192       .dwtag  DW_TAG_TI_branch
    2783                      .dwattr $C$DW$192, DW_AT_low_pc(0x00)
    2784                      .dwattr $C$DW$192, DW_AT_name("_FSM_CheckTimes")
    2785                      .dwattr $C$DW$192, DW_AT_TI_call
    2786 0000036c 7640'         LCR       #_FSM_CheckTimes      ; [CPU_] |703| 
         0000036d 035F 
    2787                      ; call occurs [#_FSM_CheckTimes] ; [] |703| 
    2788                      .dwpsn  file "D:/BM1000_v1.1/sw/drivers/drvic/fsm.c",line 704,column 3,is_stmt
    2789 0000036e D009          MOVB      XAR0,#9               ; [CPU_] |704| 
    2790 0000036f 9294          MOV       AL,*+XAR4[AR0]        ; [CPU_] |704| 
    2791 00000370 5201          CMPB      AL,#1                 ; [CPU_] |704| 
    2792                      .dwpsn  file "D:/BM1000_v1.1/sw/drivers/drvic/fsm.c",line 706,column 6,is_stmt
    2793 00000371 56B1          MOVB      XAR0,#9,EQ            ; [CPU_] |706| 
         00000372 09A0 
    2794 00000373 56B1          MOVB      *+XAR4[AR0],#9,EQ     ; [CPU_] |706| 
         00000374 0994 
    2795              $C$DW$193       .dwtag  DW_TAG_TI_branch
    2796                      .dwattr $C$DW$193, DW_AT_low_pc(0x00)
    2797                      .dwattr $C$DW$193, DW_AT_TI_return
    2798 00000375 0006          LRETR     ; [CPU_] 
    2799                      ; return occurs ; [] 
    2800                      .dwattr $C$DW$189, DW_AT_TI_end_file("D:/BM1000_v1.1/sw/drivers/drvic/fsm.c")
    2801                      .dwattr $C$DW$189, DW_AT_TI_end_line(0x2c8)
    2802                      .dwattr $C$DW$189, DW_AT_TI_end_column(0x01)
    2803                      .dwendentry
    2804                      .dwendtag $C$DW$189
    2805              
    2806 00000376               .sect   ".text"
    2807                      .clink
    2808                      .global _FSM_CheckZeroSpeed
    2809              
    2810              $C$DW$194       .dwtag  DW_TAG_subprogram, DW_AT_name("FSM_CheckZeroSpeed")
    2811                      .dwattr $C$DW$194, DW_AT_low_pc(_FSM_CheckZeroSpeed)
    2812                      .dwattr $C$DW$194, DW_AT_high_pc(0x00)
    2813                      .dwattr $C$DW$194, DW_AT_TI_symbol_name("_FSM_CheckZeroSpeed")
    2814                      .dwattr $C$DW$194, DW_AT_external
    2815                      .dwattr $C$DW$194, DW_AT_TI_begin_file("D:/BM1000_v1.1/sw/drivers/drvic/fsm.c")
    2816                      .dwattr $C$DW$194, DW_AT_TI_begin_line(0x2cb)
    2817                      .dwattr $C$DW$194, DW_AT_TI_begin_column(0x06)
    2818                      .dwattr $C$DW$194, DW_AT_TI_max_frame_size(-2)
    2819                      .dwpsn  file "D:/BM1000_v1.1/sw/drivers/drvic/fsm.c",line 716,column 1,is_stmt,address _FSM_CheckZero
    2820              
    2821                      .dwfde $C$DW$CIE, _FSM_CheckZeroSpeed
    2822              $C$DW$195       .dwtag  DW_TAG_formal_parameter, DW_AT_name("handle")
    2823                      .dwattr $C$DW$195, DW_AT_TI_symbol_name("_handle")
    2824                      .dwattr $C$DW$195, DW_AT_type(*$C$DW$T$169)
    2825                      .dwattr $C$DW$195, DW_AT_location[DW_OP_reg12]
    2826              
    2827              ;***************************************************************
    2828              ;* FNAME: _FSM_CheckZeroSpeed           FR SIZE:   0           *
    2829              ;*                                                             *
    2830              ;* FUNCTION ENVIRONMENT                                        *
    2831              ;*                                                             *
    2832              ;* FUNCTION PROPERTIES                                         *
    2833              ;*                            0 Parameter,  0 Auto,  0 SOE     *
TMS320C2000 Assembler PC v6.2.5 Wed Nov 22 14:48:16 2017

Tools Copyright (c) 1996-2014 Texas Instruments Incorporated
C:\Users\wmj\AppData\Local\Temp\1257612                              PAGE   56

    2834              ;***************************************************************
    2835              
    2836              _FSM_CheckZeroSpeed:
    2837              ;* AR4   assigned to _handle
    2838              $C$DW$196       .dwtag  DW_TAG_variable, DW_AT_name("handle")
    2839                      .dwattr $C$DW$196, DW_AT_TI_symbol_name("_handle")
    2840                      .dwattr $C$DW$196, DW_AT_type(*$C$DW$T$170)
    2841                      .dwattr $C$DW$196, DW_AT_location[DW_OP_reg12]
    2842                      .dwcfi  cfa_offset, -2
    2843                      .dwcfi  save_reg_to_mem, 26, 0
    2844                      .dwcfi  save_reg_to_reg, 78, 26
    2845                      .dwpsn  file "D:/BM1000_v1.1/sw/drivers/drvic/fsm.c",line 725,column 5,is_stmt
    2846 00000376 83C4          MOVL      XAR5,*+XAR4[0]        ; [CPU_] |725| 
    2847 00000377 D024          MOVB      XAR0,#36              ; [CPU_] |725| 
    2848 00000378 0695          MOVL      ACC,*+XAR5[AR0]       ; [CPU_] |725| 
    2849 00000379 EC03          BF        $C$L42,EQ             ; [CPU_] |725| 
    2850                      ; branchcc occurs ; [] |725| 
    2851 0000037a 9A00          MOVB      AL,#0                 ; [CPU_] |725| 
    2852 0000037b 6F02          B         $C$L43,UNC            ; [CPU_] |725| 
    2853                      ; branch occurs ; [] |725| 
    2854 0000037c       $C$L42:    
    2855 0000037c 9A08          MOVB      AL,#8                 ; [CPU_] |725| 
    2856 0000037d       $C$L43:    
    2857 0000037d D009          MOVB      XAR0,#9               ; [CPU_] |725| 
    2858 0000037e 9694          MOV       *+XAR4[AR0],AL        ; [CPU_] |725| 
    2859              $C$DW$197       .dwtag  DW_TAG_TI_branch
    2860                      .dwattr $C$DW$197, DW_AT_low_pc(0x00)
    2861                      .dwattr $C$DW$197, DW_AT_TI_return
    2862 0000037f 0006          LRETR     ; [CPU_] 
    2863                      ; return occurs ; [] 
    2864                      .dwattr $C$DW$194, DW_AT_TI_end_file("D:/BM1000_v1.1/sw/drivers/drvic/fsm.c")
    2865                      .dwattr $C$DW$194, DW_AT_TI_end_line(0x2da)
    2866                      .dwattr $C$DW$194, DW_AT_TI_end_column(0x01)
    2867                      .dwendentry
    2868                      .dwendtag $C$DW$194
    2869              
    2870 00000380               .sect   ".text"
    2871                      .clink
    2872                      .global _FSM_CheckContactSensor2
    2873              
    2874              $C$DW$198       .dwtag  DW_TAG_subprogram, DW_AT_name("FSM_CheckContactSensor2")
    2875                      .dwattr $C$DW$198, DW_AT_low_pc(_FSM_CheckContactSensor2)
    2876                      .dwattr $C$DW$198, DW_AT_high_pc(0x00)
    2877                      .dwattr $C$DW$198, DW_AT_TI_symbol_name("_FSM_CheckContactSensor2")
    2878                      .dwattr $C$DW$198, DW_AT_external
    2879                      .dwattr $C$DW$198, DW_AT_TI_begin_file("D:/BM1000_v1.1/sw/drivers/drvic/fsm.c")
    2880                      .dwattr $C$DW$198, DW_AT_TI_begin_line(0x28c)
    2881                      .dwattr $C$DW$198, DW_AT_TI_begin_column(0x06)
    2882                      .dwattr $C$DW$198, DW_AT_TI_max_frame_size(-2)
    2883                      .dwpsn  file "D:/BM1000_v1.1/sw/drivers/drvic/fsm.c",line 653,column 1,is_stmt,address _FSM_CheckCont
    2884              
    2885                      .dwfde $C$DW$CIE, _FSM_CheckContactSensor2
    2886              $C$DW$199       .dwtag  DW_TAG_formal_parameter, DW_AT_name("handle")
    2887                      .dwattr $C$DW$199, DW_AT_TI_symbol_name("_handle")
    2888                      .dwattr $C$DW$199, DW_AT_type(*$C$DW$T$169)
TMS320C2000 Assembler PC v6.2.5 Wed Nov 22 14:48:16 2017

Tools Copyright (c) 1996-2014 Texas Instruments Incorporated
C:\Users\wmj\AppData\Local\Temp\1257612                              PAGE   57

    2889                      .dwattr $C$DW$199, DW_AT_location[DW_OP_reg12]
    2890              
    2891              ;***************************************************************
    2892              ;* FNAME: _FSM_CheckContactSensor2      FR SIZE:   0           *
    2893              ;*                                                             *
    2894              ;* FUNCTION ENVIRONMENT                                        *
    2895              ;*                                                             *
    2896              ;* FUNCTION PROPERTIES                                         *
    2897              ;*                            0 Parameter,  0 Auto,  0 SOE     *
    2898              ;***************************************************************
    2899              
    2900              _FSM_CheckContactSensor2:
    2901              ;* AR5   assigned to $O$v1
    2902              ;* AR4   assigned to _handle
    2903              $C$DW$200       .dwtag  DW_TAG_variable, DW_AT_name("handle")
    2904                      .dwattr $C$DW$200, DW_AT_TI_symbol_name("_handle")
    2905                      .dwattr $C$DW$200, DW_AT_type(*$C$DW$T$170)
    2906                      .dwattr $C$DW$200, DW_AT_location[DW_OP_reg12]
    2907                      .dwcfi  cfa_offset, -2
    2908                      .dwcfi  save_reg_to_mem, 26, 0
    2909                      .dwcfi  save_reg_to_reg, 78, 26
    2910                      .dwpsn  file "D:/BM1000_v1.1/sw/drivers/drvic/fsm.c",line 656,column 3,is_stmt
    2911 00000380 83C4          MOVL      XAR5,*+XAR4[0]        ; [CPU_] |656| 
    2912 00000381 D015          MOVB      XAR0,#21              ; [CPU_] |656| 
    2913 00000382 0E94          MOVU      ACC,*+XAR4[AR0]       ; [CPU_] |656| 
    2914 00000383 D066          MOVB      XAR0,#102             ; [CPU_] |656| 
    2915 00000384 0F95          CMPL      ACC,*+XAR5[AR0]       ; [CPU_] |656| 
    2916 00000385 6206          B         $C$L44,GT             ; [CPU_] |656| 
    2917                      ; branchcc occurs ; [] |656| 
    2918                      .dwpsn  file "D:/BM1000_v1.1/sw/drivers/drvic/fsm.c",line 663,column 4,is_stmt
    2919 00000386 D009          MOVB      XAR0,#9               ; [CPU_] |663| 
    2920 00000387 2B94          MOV       *+XAR4[AR0],#0        ; [CPU_] |663| 
    2921                      .dwpsn  file "D:/BM1000_v1.1/sw/drivers/drvic/fsm.c",line 664,column 4,is_stmt
    2922 00000388 D00D          MOVB      XAR0,#13              ; [CPU_] |664| 
    2923 00000389 2B95          MOV       *+XAR5[AR0],#0        ; [CPU_] |664| 
    2924              $C$DW$201       .dwtag  DW_TAG_TI_branch
    2925                      .dwattr $C$DW$201, DW_AT_low_pc(0x00)
    2926                      .dwattr $C$DW$201, DW_AT_TI_return
    2927 0000038a 0006          LRETR     ; [CPU_] 
    2928                      ; return occurs ; [] 
    2929 0000038b       $C$L44:    
    2930                      .dwpsn  file "D:/BM1000_v1.1/sw/drivers/drvic/fsm.c",line 658,column 4,is_stmt
    2931 0000038b D00D          MOVB      XAR0,#13              ; [CPU_] |658| 
    2932 0000038c 56BF          MOVB      *+XAR5[AR0],#1,UNC    ; [CPU_] |658| 
         0000038d 0195 
    2933                      .dwpsn  file "D:/BM1000_v1.1/sw/drivers/drvic/fsm.c",line 659,column 4,is_stmt
    2934 0000038e D009          MOVB      XAR0,#9               ; [CPU_] |659| 
    2935 0000038f 56BF          MOVB      *+XAR4[AR0],#7,UNC    ; [CPU_] |659| 
         00000390 0794 
    2936              $C$DW$202       .dwtag  DW_TAG_TI_branch
    2937                      .dwattr $C$DW$202, DW_AT_low_pc(0x00)
    2938                      .dwattr $C$DW$202, DW_AT_TI_return
    2939 00000391 0006          LRETR     ; [CPU_] 
    2940                      ; return occurs ; [] 
    2941                      .dwattr $C$DW$198, DW_AT_TI_end_file("D:/BM1000_v1.1/sw/drivers/drvic/fsm.c")
TMS320C2000 Assembler PC v6.2.5 Wed Nov 22 14:48:16 2017

Tools Copyright (c) 1996-2014 Texas Instruments Incorporated
C:\Users\wmj\AppData\Local\Temp\1257612                              PAGE   58

    2942                      .dwattr $C$DW$198, DW_AT_TI_end_line(0x29c)
    2943                      .dwattr $C$DW$198, DW_AT_TI_end_column(0x01)
    2944                      .dwendentry
    2945                      .dwendtag $C$DW$198
    2946              
    2947 00000392               .sect   ".text"
    2948                      .clink
    2949                      .global _FSM_CheckContactSensor1
    2950              
    2951              $C$DW$203       .dwtag  DW_TAG_subprogram, DW_AT_name("FSM_CheckContactSensor1")
    2952                      .dwattr $C$DW$203, DW_AT_low_pc(_FSM_CheckContactSensor1)
    2953                      .dwattr $C$DW$203, DW_AT_high_pc(0x00)
    2954                      .dwattr $C$DW$203, DW_AT_TI_symbol_name("_FSM_CheckContactSensor1")
    2955                      .dwattr $C$DW$203, DW_AT_external
    2956                      .dwattr $C$DW$203, DW_AT_TI_begin_file("D:/BM1000_v1.1/sw/drivers/drvic/fsm.c")
    2957                      .dwattr $C$DW$203, DW_AT_TI_begin_line(0x27a)
    2958                      .dwattr $C$DW$203, DW_AT_TI_begin_column(0x06)
    2959                      .dwattr $C$DW$203, DW_AT_TI_max_frame_size(-2)
    2960                      .dwpsn  file "D:/BM1000_v1.1/sw/drivers/drvic/fsm.c",line 635,column 1,is_stmt,address _FSM_CheckCont
    2961              
    2962                      .dwfde $C$DW$CIE, _FSM_CheckContactSensor1
    2963              $C$DW$204       .dwtag  DW_TAG_formal_parameter, DW_AT_name("handle")
    2964                      .dwattr $C$DW$204, DW_AT_TI_symbol_name("_handle")
    2965                      .dwattr $C$DW$204, DW_AT_type(*$C$DW$T$169)
    2966                      .dwattr $C$DW$204, DW_AT_location[DW_OP_reg12]
    2967              
    2968              ;***************************************************************
    2969              ;* FNAME: _FSM_CheckContactSensor1      FR SIZE:   0           *
    2970              ;*                                                             *
    2971              ;* FUNCTION ENVIRONMENT                                        *
    2972              ;*                                                             *
    2973              ;* FUNCTION PROPERTIES                                         *
    2974              ;*                            0 Parameter,  0 Auto,  0 SOE     *
    2975              ;***************************************************************
    2976              
    2977              _FSM_CheckContactSensor1:
    2978              ;* AR5   assigned to $O$v1
    2979              ;* AR4   assigned to _handle
    2980              $C$DW$205       .dwtag  DW_TAG_variable, DW_AT_name("handle")
    2981                      .dwattr $C$DW$205, DW_AT_TI_symbol_name("_handle")
    2982                      .dwattr $C$DW$205, DW_AT_type(*$C$DW$T$170)
    2983                      .dwattr $C$DW$205, DW_AT_location[DW_OP_reg12]
    2984                      .dwcfi  cfa_offset, -2
    2985                      .dwcfi  save_reg_to_mem, 26, 0
    2986                      .dwcfi  save_reg_to_reg, 78, 26
    2987                      .dwpsn  file "D:/BM1000_v1.1/sw/drivers/drvic/fsm.c",line 638,column 3,is_stmt
    2988 00000392 83C4          MOVL      XAR5,*+XAR4[0]        ; [CPU_] |638| 
    2989 00000393 D015          MOVB      XAR0,#21              ; [CPU_] |638| 
    2990 00000394 0E94          MOVU      ACC,*+XAR4[AR0]       ; [CPU_] |638| 
    2991 00000395 D064          MOVB      XAR0,#100             ; [CPU_] |638| 
    2992 00000396 0F95          CMPL      ACC,*+XAR5[AR0]       ; [CPU_] |638| 
    2993 00000397 6206          B         $C$L45,GT             ; [CPU_] |638| 
    2994                      ; branchcc occurs ; [] |638| 
    2995                      .dwpsn  file "D:/BM1000_v1.1/sw/drivers/drvic/fsm.c",line 645,column 4,is_stmt
    2996 00000398 D009          MOVB      XAR0,#9               ; [CPU_] |645| 
TMS320C2000 Assembler PC v6.2.5 Wed Nov 22 14:48:16 2017

Tools Copyright (c) 1996-2014 Texas Instruments Incorporated
C:\Users\wmj\AppData\Local\Temp\1257612                              PAGE   59

    2997 00000399 2B94          MOV       *+XAR4[AR0],#0        ; [CPU_] |645| 
    2998                      .dwpsn  file "D:/BM1000_v1.1/sw/drivers/drvic/fsm.c",line 646,column 4,is_stmt
    2999 0000039a D00D          MOVB      XAR0,#13              ; [CPU_] |646| 
    3000 0000039b 2B95          MOV       *+XAR5[AR0],#0        ; [CPU_] |646| 
    3001              $C$DW$206       .dwtag  DW_TAG_TI_branch
    3002                      .dwattr $C$DW$206, DW_AT_low_pc(0x00)
    3003                      .dwattr $C$DW$206, DW_AT_TI_return
    3004 0000039c 0006          LRETR     ; [CPU_] 
    3005                      ; return occurs ; [] 
    3006 0000039d       $C$L45:    
    3007                      .dwpsn  file "D:/BM1000_v1.1/sw/drivers/drvic/fsm.c",line 640,column 4,is_stmt
    3008 0000039d D00D          MOVB      XAR0,#13              ; [CPU_] |640| 
    3009 0000039e 56BF          MOVB      *+XAR5[AR0],#1,UNC    ; [CPU_] |640| 
         0000039f 0195 
    3010                      .dwpsn  file "D:/BM1000_v1.1/sw/drivers/drvic/fsm.c",line 641,column 4,is_stmt
    3011 000003a0 D009          MOVB      XAR0,#9               ; [CPU_] |641| 
    3012 000003a1 56BF          MOVB      *+XAR4[AR0],#7,UNC    ; [CPU_] |641| 
         000003a2 0794 
    3013              $C$DW$207       .dwtag  DW_TAG_TI_branch
    3014                      .dwattr $C$DW$207, DW_AT_low_pc(0x00)
    3015                      .dwattr $C$DW$207, DW_AT_TI_return
    3016 000003a3 0006          LRETR     ; [CPU_] 
    3017                      ; return occurs ; [] 
    3018                      .dwattr $C$DW$203, DW_AT_TI_end_file("D:/BM1000_v1.1/sw/drivers/drvic/fsm.c")
    3019                      .dwattr $C$DW$203, DW_AT_TI_end_line(0x28a)
    3020                      .dwattr $C$DW$203, DW_AT_TI_end_column(0x01)
    3021                      .dwendentry
    3022                      .dwendtag $C$DW$203
    3023              
    3024 000003a4               .sect   ".text"
    3025                      .clink
    3026                      .global _FSM_CheckAnalogSensor2
    3027              
    3028              $C$DW$208       .dwtag  DW_TAG_subprogram, DW_AT_name("FSM_CheckAnalogSensor2")
    3029                      .dwattr $C$DW$208, DW_AT_low_pc(_FSM_CheckAnalogSensor2)
    3030                      .dwattr $C$DW$208, DW_AT_high_pc(0x00)
    3031                      .dwattr $C$DW$208, DW_AT_TI_symbol_name("_FSM_CheckAnalogSensor2")
    3032                      .dwattr $C$DW$208, DW_AT_external
    3033                      .dwattr $C$DW$208, DW_AT_TI_begin_file("D:/BM1000_v1.1/sw/drivers/drvic/fsm.c")
    3034                      .dwattr $C$DW$208, DW_AT_TI_begin_line(0x265)
    3035                      .dwattr $C$DW$208, DW_AT_TI_begin_column(0x06)
    3036                      .dwattr $C$DW$208, DW_AT_TI_max_frame_size(-6)
    3037                      .dwpsn  file "D:/BM1000_v1.1/sw/drivers/drvic/fsm.c",line 614,column 1,is_stmt,address _FSM_CheckAnal
    3038              
    3039                      .dwfde $C$DW$CIE, _FSM_CheckAnalogSensor2
    3040              $C$DW$209       .dwtag  DW_TAG_formal_parameter, DW_AT_name("handle")
    3041                      .dwattr $C$DW$209, DW_AT_TI_symbol_name("_handle")
    3042                      .dwattr $C$DW$209, DW_AT_type(*$C$DW$T$169)
    3043                      .dwattr $C$DW$209, DW_AT_location[DW_OP_reg12]
    3044              
    3045              ;***************************************************************
    3046              ;* FNAME: _FSM_CheckAnalogSensor2       FR SIZE:   4           *
    3047              ;*                                                             *
    3048              ;* FUNCTION ENVIRONMENT                                        *
    3049              ;*                                                             *
TMS320C2000 Assembler PC v6.2.5 Wed Nov 22 14:48:16 2017

Tools Copyright (c) 1996-2014 Texas Instruments Incorporated
C:\Users\wmj\AppData\Local\Temp\1257612                              PAGE   60

    3050              ;* FUNCTION PROPERTIES                                         *
    3051              ;*                            0 Parameter,  4 Auto,  0 SOE     *
    3052              ;***************************************************************
    3053              
    3054              _FSM_CheckAnalogSensor2:
    3055              ;* AR6   assigned to $O$C1
    3056              ;* AR4   assigned to _handle
    3057              $C$DW$210       .dwtag  DW_TAG_variable, DW_AT_name("handle")
    3058                      .dwattr $C$DW$210, DW_AT_TI_symbol_name("_handle")
    3059                      .dwattr $C$DW$210, DW_AT_type(*$C$DW$T$170)
    3060                      .dwattr $C$DW$210, DW_AT_location[DW_OP_reg12]
    3061              $C$DW$211       .dwtag  DW_TAG_variable, DW_AT_name("SensorError")
    3062                      .dwattr $C$DW$211, DW_AT_TI_symbol_name("_SensorError")
    3063                      .dwattr $C$DW$211, DW_AT_type(*$C$DW$T$253)
    3064                      .dwattr $C$DW$211, DW_AT_location[DW_OP_breg20 -2]
    3065              $C$DW$212       .dwtag  DW_TAG_variable, DW_AT_name("ObjecteValue")
    3066                      .dwattr $C$DW$212, DW_AT_TI_symbol_name("_ObjecteValue")
    3067                      .dwattr $C$DW$212, DW_AT_type(*$C$DW$T$253)
    3068                      .dwattr $C$DW$212, DW_AT_location[DW_OP_breg20 -4]
    3069                      .dwcfi  cfa_offset, -2
    3070                      .dwcfi  save_reg_to_mem, 26, 0
    3071                      .dwcfi  save_reg_to_reg, 78, 26
    3072 000003a4 FE04          ADDB      SP,#4                 ; [CPU_U] 
    3073                      .dwcfi  cfa_offset, -6
    3074                      .dwpsn  file "D:/BM1000_v1.1/sw/drivers/drvic/fsm.c",line 617,column 28,is_stmt
    3075 000003a5 0200          MOVB      ACC,#0                ; [CPU_] |617| 
    3076                      .dwpsn  file "D:/BM1000_v1.1/sw/drivers/drvic/fsm.c",line 620,column 3,is_stmt
    3077 000003a6 D015          MOVB      XAR0,#21              ; [CPU_] |620| 
    3078                      .dwpsn  file "D:/BM1000_v1.1/sw/drivers/drvic/fsm.c",line 617,column 28,is_stmt
    3079 000003a7 1E42          MOVL      *-SP[2],ACC           ; [CPU_] |617| 
    3080                      .dwpsn  file "D:/BM1000_v1.1/sw/drivers/drvic/fsm.c",line 618,column 29,is_stmt
    3081 000003a8 1E44          MOVL      *-SP[4],ACC           ; [CPU_] |618| 
    3082                      .dwpsn  file "D:/BM1000_v1.1/sw/drivers/drvic/fsm.c",line 620,column 3,is_stmt
    3083 000003a9 8894          MOVZ      AR6,*+XAR4[AR0]       ; [CPU_] |620| 
    3084 000003aa 8F42          MOVL      XAR5,#167772          ; [CPU_U] |620| 
         000003ab 8F5C 
    3085 000003ac A0AC          MOVL      XT,XAR5               ; [CPU_] |620| 
    3086 000003ad 0EA6          MOVU      ACC,AR6               ; [CPU_] |620| 
    3087 000003ae 5605          IMPYL     P,XT,ACC              ; [CPU_] |620| 
         000003af 00A9 
    3088 000003b0 5663          QMPYL     ACC,XT,ACC            ; [CPU_] |620| 
         000003b1 00A9 
    3089 000003b2 56A7          LSL64     ACC:P,#8              ; [CPU_] |620| 
    3090 000003b3 1E44          MOVL      *-SP[4],ACC           ; [CPU_] |620| 
    3091                      .dwpsn  file "D:/BM1000_v1.1/sw/drivers/drvic/fsm.c",line 621,column 3,is_stmt
    3092 000003b4 83C4          MOVL      XAR5,*+XAR4[0]        ; [CPU_] |621| 
    3093 000003b5 D066          MOVB      XAR0,#102             ; [CPU_] |621| 
    3094 000003b6 88A6          MOVZ      AR6,AR6               ; [CPU_] |621| 
    3095 000003b7 0695          MOVL      ACC,*+XAR5[AR0]       ; [CPU_] |621| 
    3096 000003b8 03A6          SUBL      ACC,XAR6              ; [CPU_] |621| 
    3097 000003b9 1E42          MOVL      *-SP[2],ACC           ; [CPU_] |621| 
    3098                      .dwpsn  file "D:/BM1000_v1.1/sw/drivers/drvic/fsm.c",line 622,column 3,is_stmt
    3099 000003ba FF56          ABS       ACC                   ; [CPU_] |622| 
    3100 000003bb 0F44          CMPL      ACC,*-SP[4]           ; [CPU_] |622| 
    3101 000003bc 6404          B         $C$L46,LT             ; [CPU_] |622| 
TMS320C2000 Assembler PC v6.2.5 Wed Nov 22 14:48:16 2017

Tools Copyright (c) 1996-2014 Texas Instruments Incorporated
C:\Users\wmj\AppData\Local\Temp\1257612                              PAGE   61

    3102                      ; branchcc occurs ; [] |622| 
    3103                      .dwpsn  file "D:/BM1000_v1.1/sw/drivers/drvic/fsm.c",line 628,column 4,is_stmt
    3104 000003bd D009          MOVB      XAR0,#9               ; [CPU_] |628| 
    3105 000003be 2B94          MOV       *+XAR4[AR0],#0        ; [CPU_] |628| 
    3106 000003bf 6F04          B         $C$L47,UNC            ; [CPU_] |628| 
    3107                      ; branch occurs ; [] |628| 
    3108 000003c0       $C$L46:    
    3109                      .dwpsn  file "D:/BM1000_v1.1/sw/drivers/drvic/fsm.c",line 624,column 4,is_stmt
    3110 000003c0 D009          MOVB      XAR0,#9               ; [CPU_] |624| 
    3111 000003c1 56BF          MOVB      *+XAR4[AR0],#6,UNC    ; [CPU_] |624| 
         000003c2 0694 
    3112 000003c3       $C$L47:    
    3113 000003c3 FE84          SUBB      SP,#4                 ; [CPU_U] 
    3114                      .dwcfi  cfa_offset, -2
    3115              $C$DW$213       .dwtag  DW_TAG_TI_branch
    3116                      .dwattr $C$DW$213, DW_AT_low_pc(0x00)
    3117                      .dwattr $C$DW$213, DW_AT_TI_return
    3118 000003c4 0006          LRETR     ; [CPU_] 
    3119                      ; return occurs ; [] 
