TMS320C2000 Assembler PC v6.2.5 Wed Nov 22 14:48:16 2017

Tools Copyright (c) 1996-2014 Texas Instruments Incorporated
C:\Users\wmj\AppData\Local\Temp\1257612                              PAGE    1

       1              ;***************************************************************
       2              ;* TMS320C2000 C/C++ Codegen                         PC v6.2.5 *
       3              ;* Date/Time created: Wed Nov 22 14:48:15 2017                 *
       4              ;***************************************************************
       5                      .compiler_opts --float_support=softlib --hll_source=on --mem_model:code=flat --mem_model:data=large -
       6        0002  FP      .set    XAR2
       7              
       8              $C$DW$CU        .dwtag  DW_TAG_compile_unit
       9                      .dwattr $C$DW$CU, DW_AT_name("D:/BM1000_v1.1/sw/drivers/drvic/fsm.c")
      10                      .dwattr $C$DW$CU, DW_AT_producer("TMS320C2000 C/C++ Codegen PC v6.2.5 Copyright (c) 1996-2014 Texas I
      11                      .dwattr $C$DW$CU, DW_AT_TI_version(0x01)
      12                      .dwattr $C$DW$CU, DW_AT_comp_dir("D:\BM1000_v1.1\sw\solutions\instaspin_foc\boards\hvkit_rev1p1\f28x\
      13              
      14              $C$DW$1 .dwtag  DW_TAG_subprogram, DW_AT_name("usDelay")
      15                      .dwattr $C$DW$1, DW_AT_TI_symbol_name("_usDelay")
      16                      .dwattr $C$DW$1, DW_AT_declaration
      17                      .dwattr $C$DW$1, DW_AT_external
      18              $C$DW$2 .dwtag  DW_TAG_formal_parameter
      19                      .dwattr $C$DW$2, DW_AT_type(*$C$DW$T$212)
      20                      .dwendtag $C$DW$1
      21              
      22              
      23              $C$DW$3 .dwtag  DW_TAG_subprogram, DW_AT_name("GPIO_setLow")
      24                      .dwattr $C$DW$3, DW_AT_TI_symbol_name("_GPIO_setLow")
      25                      .dwattr $C$DW$3, DW_AT_declaration
      26                      .dwattr $C$DW$3, DW_AT_external
      27              $C$DW$4 .dwtag  DW_TAG_formal_parameter
      28                      .dwattr $C$DW$4, DW_AT_type(*$C$DW$T$89)
      29              $C$DW$5 .dwtag  DW_TAG_formal_parameter
      30                      .dwattr $C$DW$5, DW_AT_type(*$C$DW$T$166)
      31                      .dwendtag $C$DW$3
      32              
      33              
      34              $C$DW$6 .dwtag  DW_TAG_subprogram, DW_AT_name("GPIO_setHigh")
      35                      .dwattr $C$DW$6, DW_AT_TI_symbol_name("_GPIO_setHigh")
      36                      .dwattr $C$DW$6, DW_AT_declaration
      37                      .dwattr $C$DW$6, DW_AT_external
      38              $C$DW$7 .dwtag  DW_TAG_formal_parameter
      39                      .dwattr $C$DW$7, DW_AT_type(*$C$DW$T$89)
      40              $C$DW$8 .dwtag  DW_TAG_formal_parameter
      41                      .dwattr $C$DW$8, DW_AT_type(*$C$DW$T$166)
      42                      .dwendtag $C$DW$6
      43              
      44              
      45              $C$DW$9 .dwtag  DW_TAG_subprogram, DW_AT_name("GPIO_read")
      46                      .dwattr $C$DW$9, DW_AT_TI_symbol_name("_GPIO_read")
      47                      .dwattr $C$DW$9, DW_AT_type(*$C$DW$T$59)
      48                      .dwattr $C$DW$9, DW_AT_declaration
      49                      .dwattr $C$DW$9, DW_AT_external
      50              $C$DW$10        .dwtag  DW_TAG_formal_parameter
      51                      .dwattr $C$DW$10, DW_AT_type(*$C$DW$T$89)
      52              $C$DW$11        .dwtag  DW_TAG_formal_parameter
      53                      .dwattr $C$DW$11, DW_AT_type(*$C$DW$T$166)
      54                      .dwendtag $C$DW$9
      55              
TMS320C2000 Assembler PC v6.2.5 Wed Nov 22 14:48:16 2017

Tools Copyright (c) 1996-2014 Texas Instruments Incorporated
C:\Users\wmj\AppData\Local\Temp\1257612                              PAGE    2

      56              
      57              $C$DW$12        .dwtag  DW_TAG_subprogram, DW_AT_name("labs")
      58                      .dwattr $C$DW$12, DW_AT_TI_symbol_name("_labs")
      59                      .dwattr $C$DW$12, DW_AT_type(*$C$DW$T$12)
      60                      .dwattr $C$DW$12, DW_AT_declaration
      61                      .dwattr $C$DW$12, DW_AT_external
      62              $C$DW$13        .dwtag  DW_TAG_formal_parameter
      63                      .dwattr $C$DW$13, DW_AT_type(*$C$DW$T$12)
      64                      .dwendtag $C$DW$12
      65              
      66              
      67              $C$DW$14        .dwtag  DW_TAG_subprogram, DW_AT_name("__IQmpy")
      68                      .dwattr $C$DW$14, DW_AT_TI_symbol_name("___IQmpy")
      69                      .dwattr $C$DW$14, DW_AT_type(*$C$DW$T$12)
      70                      .dwattr $C$DW$14, DW_AT_declaration
      71                      .dwattr $C$DW$14, DW_AT_external
      72              $C$DW$15        .dwtag  DW_TAG_formal_parameter
      73                      .dwattr $C$DW$15, DW_AT_type(*$C$DW$T$12)
      74              $C$DW$16        .dwtag  DW_TAG_formal_parameter
      75                      .dwattr $C$DW$16, DW_AT_type(*$C$DW$T$12)
      76              $C$DW$17        .dwtag  DW_TAG_formal_parameter
      77                      .dwattr $C$DW$17, DW_AT_type(*$C$DW$T$10)
      78                      .dwendtag $C$DW$14
      79              
      80                      .global _FSM_StallMode
      81 00000000               .sect   ".econst:.string:_FSM_StallMode"
      82                      .clink
      83                      .align  1
      84 00000000       _FSM_StallMode:
      85 00000000 0001          .bits   1,16                    ; _FSM_StallMode[0] @ 0
      86 00000001 0001          .bits   1,16                    ; _FSM_StallMode[1] @ 16
      87 00000002 0000          .bits   0,16                    ; _FSM_StallMode[2] @ 32
      88 00000003 0000          .bits   0,16                    ; _FSM_StallMode[3] @ 48
      89 00000004 0001          .bits   1,16                    ; _FSM_StallMode[4] @ 64
      90 00000005 0000          .bits   0,16                    ; _FSM_StallMode[5] @ 80
      91 00000006 0000          .bits   0,16                    ; _FSM_StallMode[6] @ 96
      92 00000007 0000          .bits   0,16                    ; _FSM_StallMode[7] @ 112
      93              
      94              $C$DW$18        .dwtag  DW_TAG_variable, DW_AT_name("FSM_StallMode")
      95                      .dwattr $C$DW$18, DW_AT_TI_symbol_name("_FSM_StallMode")
      96                      .dwattr $C$DW$18, DW_AT_location[DW_OP_addr _FSM_StallMode]
      97                      .dwattr $C$DW$18, DW_AT_type(*$C$DW$T$238)
      98                      .dwattr $C$DW$18, DW_AT_external
      99                      .global _FSM_EventTab
     100 00000000               .sect   ".econst:_FSM_EventTab"
     101                      .clink
     102                      .align  1
     103 00000000       _FSM_EventTab:
     104 00000000 0001          .bits   1,16                    ; _FSM_EventTab[0] @ 0
     105 00000001 0002          .bits   2,16                    ; _FSM_EventTab[1] @ 16
     106 00000002 0003          .bits   3,16                    ; _FSM_EventTab[2] @ 32
     107 00000003 0004          .bits   4,16                    ; _FSM_EventTab[3] @ 48
     108 00000004 0005          .bits   5,16                    ; _FSM_EventTab[4] @ 64
     109 00000005 0006          .bits   6,16                    ; _FSM_EventTab[5] @ 80
     110 00000006 0006          .bits   6,16                    ; _FSM_EventTab[6] @ 96
TMS320C2000 Assembler PC v6.2.5 Wed Nov 22 14:48:16 2017

Tools Copyright (c) 1996-2014 Texas Instruments Incorporated
C:\Users\wmj\AppData\Local\Temp\1257612                              PAGE    3

     111 00000007 0007          .bits   7,16                    ; _FSM_EventTab[7] @ 112
     112 00000008 0007          .bits   7,16                    ; _FSM_EventTab[8] @ 128
     113 00000009 0008          .bits   8,16                    ; _FSM_EventTab[9] @ 144
     114 0000000a 0009          .bits   9,16                    ; _FSM_EventTab[10] @ 160
     115              
     116              $C$DW$19        .dwtag  DW_TAG_variable, DW_AT_name("FSM_EventTab")
     117                      .dwattr $C$DW$19, DW_AT_TI_symbol_name("_FSM_EventTab")
     118                      .dwattr $C$DW$19, DW_AT_location[DW_OP_addr _FSM_EventTab]
     119                      .dwattr $C$DW$19, DW_AT_type(*$C$DW$T$161)
     120                      .dwattr $C$DW$19, DW_AT_external
     121                      .global _FSM_MaxTorque
     122 00000000               .sect   ".econst:_FSM_MaxTorque"
     123                      .clink
     124                      .align  2
     125 00000000       _FSM_MaxTorque:
     126 00000000 0000          .xfloat $strtod("0x1.8p+0")             ; _FSM_MaxTorque[0] @ 0
         00000001 3FC0 
     127 00000002 0000          .xfloat $strtod("0x1.8p+0")             ; _FSM_MaxTorque[1] @ 32
         00000003 3FC0 
     128 00000004 0000          .xfloat $strtod("0x1.8p+0")             ; _FSM_MaxTorque[2] @ 64
         00000005 3FC0 
     129 00000006 0000          .xfloat $strtod("0x1.8p+0")             ; _FSM_MaxTorque[3] @ 96
         00000007 3FC0 
     130 00000008 0000          .xfloat $strtod("0x1.4p+1")             ; _FSM_MaxTorque[4] @ 128
         00000009 4020 
     131 0000000a 0000          .xfloat $strtod("0x1.8p+0")             ; _FSM_MaxTorque[5] @ 160
         0000000b 3FC0 
     132 0000000c 0000          .xfloat $strtod("0x1.8p+0")             ; _FSM_MaxTorque[6] @ 192
         0000000d 3FC0 
     133 0000000e 0000          .xfloat $strtod("0x1.4p+1")             ; _FSM_MaxTorque[7] @ 224
         0000000f 4020 
     134              
     135              $C$DW$20        .dwtag  DW_TAG_variable, DW_AT_name("FSM_MaxTorque")
     136                      .dwattr $C$DW$20, DW_AT_TI_symbol_name("_FSM_MaxTorque")
     137                      .dwattr $C$DW$20, DW_AT_location[DW_OP_addr _FSM_MaxTorque]
     138                      .dwattr $C$DW$20, DW_AT_type(*$C$DW$T$256)
     139                      .dwattr $C$DW$20, DW_AT_external
     140                      .global _FSM_CondFunc
     141 00000000               .sect   ".econst:_FSM_CondFunc"
     142                      .clink
     143                      .align  2
     144 00000000       _FSM_CondFunc:
     145 00000000 035F'         .bits   _FSM_CheckTimes,32              ; _FSM_CondFunc[0] @ 0
         00000001 0000 
     146 00000002 0413'         .bits   _FSM_CheckSpeed,32              ; _FSM_CondFunc[1] @ 32
         00000003 0000 
     147 00000004 040A'         .bits   _FSM_Check485Start,32           ; _FSM_CondFunc[2] @ 64
         00000005 0000 
     148 00000006 03F8'         .bits   _FSM_CheckKeySensor1,32         ; _FSM_CondFunc[3] @ 96
         00000007 0000 
     149 00000008 03E6'         .bits   _FSM_CheckKeySensor2,32         ; _FSM_CondFunc[4] @ 128
         00000009 0000 
     150 0000000a 03C5'         .bits   _FSM_CheckAnalogSensor1,32              ; _FSM_CondFunc[5] @ 160
         0000000b 0000 
     151 0000000c 03A4'         .bits   _FSM_CheckAnalogSensor2,32              ; _FSM_CondFunc[6] @ 192
TMS320C2000 Assembler PC v6.2.5 Wed Nov 22 14:48:16 2017

Tools Copyright (c) 1996-2014 Texas Instruments Incorporated
C:\Users\wmj\AppData\Local\Temp\1257612                              PAGE    4

         0000000d 0000 
     152 0000000e 0392'         .bits   _FSM_CheckContactSensor1,32             ; _FSM_CondFunc[7] @ 224
         0000000f 0000 
     153 00000010 0380'         .bits   _FSM_CheckContactSensor2,32             ; _FSM_CondFunc[8] @ 256
         00000011 0000 
     154 00000012 0376'         .bits   _FSM_CheckZeroSpeed,32          ; _FSM_CondFunc[9] @ 288
         00000013 0000 
     155 00000014 036C'         .bits   _FSM_CheckMoveStatus,32         ; _FSM_CondFunc[10] @ 320
         00000015 0000 
     156              
     157              $C$DW$21        .dwtag  DW_TAG_variable, DW_AT_name("FSM_CondFunc")
     158                      .dwattr $C$DW$21, DW_AT_TI_symbol_name("_FSM_CondFunc")
     159                      .dwattr $C$DW$21, DW_AT_location[DW_OP_addr _FSM_CondFunc]
     160                      .dwattr $C$DW$21, DW_AT_type(*$C$DW$T$228)
     161                      .dwattr $C$DW$21, DW_AT_external
     162                      .global _FSM_ActionFunc
     163 00000000               .sect   ".econst:_FSM_ActionFunc"
     164                      .clink
     165                      .align  2
     166 00000000       _FSM_ActionFunc:
     167 00000000 02A8'         .bits   _FSM_Run_IDLE,32                ; _FSM_ActionFunc[0] @ 0
         00000001 0000 
     168 00000002 0287'         .bits   _FSM_SetVelocity,32             ; _FSM_ActionFunc[1] @ 32
         00000003 0000 
     169 00000004 0287'         .bits   _FSM_SetVelocity,32             ; _FSM_ActionFunc[2] @ 64
         00000005 0000 
     170 00000006 0287'         .bits   _FSM_SetVelocity,32             ; _FSM_ActionFunc[3] @ 96
         00000007 0000 
     171 00000008 0287'         .bits   _FSM_SetVelocity,32             ; _FSM_ActionFunc[4] @ 128
         00000009 0000 
     172 0000000a 0287'         .bits   _FSM_SetVelocity,32             ; _FSM_ActionFunc[5] @ 160
         0000000b 0000 
     173 0000000c 0287'         .bits   _FSM_SetVelocity,32             ; _FSM_ActionFunc[6] @ 192
         0000000d 0000 
     174 0000000e 0287'         .bits   _FSM_SetVelocity,32             ; _FSM_ActionFunc[7] @ 224
         0000000f 0000 
     175 00000010 0287'         .bits   _FSM_SetVelocity,32             ; _FSM_ActionFunc[8] @ 256
         00000011 0000 
     176 00000012 02A2'         .bits   _FSM_Run_ReleaseDcBrake,32              ; _FSM_ActionFunc[9] @ 288
         00000013 0000 
     177 00000014 029A'         .bits   _FSM_Run_STOP,32                ; _FSM_ActionFunc[10] @ 320
         00000015 0000 
     178              
     179              $C$DW$22        .dwtag  DW_TAG_variable, DW_AT_name("FSM_ActionFunc")
     180                      .dwattr $C$DW$22, DW_AT_TI_symbol_name("_FSM_ActionFunc")
     181                      .dwattr $C$DW$22, DW_AT_location[DW_OP_addr _FSM_ActionFunc]
     182                      .dwattr $C$DW$22, DW_AT_type(*$C$DW$T$228)
     183                      .dwattr $C$DW$22, DW_AT_external
     184                      .global _JM_FSM_MotorFunc
     185 00000000               .sect   ".econst:_JM_FSM_MotorFunc"
     186                      .clink
     187                      .align  2
     188 00000000       _JM_FSM_MotorFunc:
     189 00000000 0000          .xfloat $strtod("0x0p+0")               ; _JM_FSM_MotorFunc[0]._FSM_RefSpeed @ 0
         00000001 0000 
TMS320C2000 Assembler PC v6.2.5 Wed Nov 22 14:48:16 2017

Tools Copyright (c) 1996-2014 Texas Instruments Incorporated
C:\Users\wmj\AppData\Local\Temp\1257612                              PAGE    5

     190 00000002 0BB8          .bits   3000,16                 ; _JM_FSM_MotorFunc[0]._FSM_CondValue @ 32
     191 00000003 0000          .bits   0,16                    ; _JM_FSM_MotorFunc[0]._FSM_Condition @ 48
     192 00000004 0007          .bits   7,16                    ; _JM_FSM_MotorFunc[0]._FSM_RunAction @ 64
     193 00000005 000E          .bits   14,16                   ; _JM_FSM_MotorFunc[0]._FSM_NextState @ 80
     194 00000006 0000          .xfloat $strtod("0x1.8p+0")             ; _JM_FSM_MotorFunc[1]._FSM_RefSpeed @ 96
         00000007 3FC0 
     195 00000008 0032          .bits   50,16                   ; _JM_FSM_MotorFunc[1]._FSM_CondValue @ 128
     196 00000009 0000          .bits   0,16                    ; _JM_FSM_MotorFunc[1]._FSM_Condition @ 144
     197 0000000a 0007          .bits   7,16                    ; _JM_FSM_MotorFunc[1]._FSM_RunAction @ 160
     198 0000000b 0002          .bits   2,16                    ; _JM_FSM_MotorFunc[1]._FSM_NextState @ 176
     199 0000000c CCCD          .xfloat $strtod("-0x1.99999ap-3")               ; _JM_FSM_MotorFunc[2]._FSM_RefSpeed @ 192
         0000000d BE4C 
     200 0000000e 0064          .bits   100,16                  ; _JM_FSM_MotorFunc[2]._FSM_CondValue @ 224
     201 0000000f 0000          .bits   0,16                    ; _JM_FSM_MotorFunc[2]._FSM_Condition @ 240
     202 00000010 0007          .bits   7,16                    ; _JM_FSM_MotorFunc[2]._FSM_RunAction @ 256
     203 00000011 000E          .bits   14,16                   ; _JM_FSM_MotorFunc[2]._FSM_NextState @ 272
     204 00000012 999A          .xfloat $strtod("-0x1.b33334p+0")               ; _JM_FSM_MotorFunc[3]._FSM_RefSpeed @ 288
         00000013 BFD9 
     205 00000014 00C8          .bits   200,16                  ; _JM_FSM_MotorFunc[3]._FSM_CondValue @ 320
     206 00000015 0000          .bits   0,16                    ; _JM_FSM_MotorFunc[3]._FSM_Condition @ 336
     207 00000016 0007          .bits   7,16                    ; _JM_FSM_MotorFunc[3]._FSM_RunAction @ 352
     208 00000017 000E          .bits   14,16                   ; _JM_FSM_MotorFunc[3]._FSM_NextState @ 368
     209 00000018 0000          .xfloat $strtod("0x1p-1")               ; _JM_FSM_MotorFunc[4]._FSM_RefSpeed @ 384
         00000019 3F00 
     210 0000001a 000A          .bits   10,16                   ; _JM_FSM_MotorFunc[4]._FSM_CondValue @ 416
     211 0000001b 0000          .bits   0,16                    ; _JM_FSM_MotorFunc[4]._FSM_Condition @ 432
     212 0000001c 0007          .bits   7,16                    ; _JM_FSM_MotorFunc[4]._FSM_RunAction @ 448
     213 0000001d 0007          .bits   7,16                    ; _JM_FSM_MotorFunc[4]._FSM_NextState @ 464
     214 0000001e 0000          .xfloat $strtod("-0x1.8p+0")            ; _JM_FSM_MotorFunc[5]._FSM_RefSpeed @ 480
         0000001f BFC0 
     215 00000020 012C          .bits   300,16                  ; _JM_FSM_MotorFunc[5]._FSM_CondValue @ 512
     216 00000021 0000          .bits   0,16                    ; _JM_FSM_MotorFunc[5]._FSM_Condition @ 528
     217 00000022 0007          .bits   7,16                    ; _JM_FSM_MotorFunc[5]._FSM_RunAction @ 544
     218 00000023 000E          .bits   14,16                   ; _JM_FSM_MotorFunc[5]._FSM_NextState @ 560
     219 00000024 CCCD          .xfloat $strtod("-0x1.99999ap-3")               ; _JM_FSM_MotorFunc[6]._FSM_RefSpeed @ 576
         00000025 BE4C 
     220 00000026 001E          .bits   30,16                   ; _JM_FSM_MotorFunc[6]._FSM_CondValue @ 608
     221 00000027 0000          .bits   0,16                    ; _JM_FSM_MotorFunc[6]._FSM_Condition @ 624
     222 00000028 0007          .bits   7,16                    ; _JM_FSM_MotorFunc[6]._FSM_RunAction @ 640
     223 00000029 0002          .bits   2,16                    ; _JM_FSM_MotorFunc[6]._FSM_NextState @ 656
     224 0000002a 0000          .xfloat $strtod("0x1p+0")               ; _JM_FSM_MotorFunc[7]._FSM_RefSpeed @ 672
         0000002b 3F80 
     225 0000002c 000A          .bits   10,16                   ; _JM_FSM_MotorFunc[7]._FSM_CondValue @ 704
     226 0000002d 0000          .bits   0,16                    ; _JM_FSM_MotorFunc[7]._FSM_Condition @ 720
     227 0000002e 0003          .bits   3,16                    ; _JM_FSM_MotorFunc[7]._FSM_RunAction @ 736
     228 0000002f 000E          .bits   14,16                   ; _JM_FSM_MotorFunc[7]._FSM_NextState @ 752
     229              
     230              $C$DW$23        .dwtag  DW_TAG_variable, DW_AT_name("JM_FSM_MotorFunc")
     231                      .dwattr $C$DW$23, DW_AT_TI_symbol_name("_JM_FSM_MotorFunc")
     232                      .dwattr $C$DW$23, DW_AT_location[DW_OP_addr _JM_FSM_MotorFunc]
     233                      .dwattr $C$DW$23, DW_AT_type(*$C$DW$T$182)
     234                      .dwattr $C$DW$23, DW_AT_external
     235                      .global _FSM_State_Box
     236 00000000       _FSM_State_Box: .usect  "vib_buf_data",75,1,0
     237              $C$DW$24        .dwtag  DW_TAG_variable, DW_AT_name("FSM_State_Box")
TMS320C2000 Assembler PC v6.2.5 Wed Nov 22 14:48:16 2017

Tools Copyright (c) 1996-2014 Texas Instruments Incorporated
C:\Users\wmj\AppData\Local\Temp\1257612                              PAGE    6

     238                      .dwattr $C$DW$24, DW_AT_TI_symbol_name("_FSM_State_Box")
     239                      .dwattr $C$DW$24, DW_AT_location[DW_OP_addr _FSM_State_Box]
     240                      .dwattr $C$DW$24, DW_AT_type(*$C$DW$T$176)
     241                      .dwattr $C$DW$24, DW_AT_external
     242                      .global _JM_FSM_Vars
     243 00000000               .sect   ".econst:_JM_FSM_Vars"
     244                      .clink
     245                      .align  2
     246 00000000       _JM_FSM_Vars:
     247 00000000 0000          .xfloat $strtod("0x0p+0")               ; _JM_FSM_Vars[0]._FSM_RefSpeed @ 0
         00000001 0000 
     248 00000002 0000          .bits   0,16                    ; _JM_FSM_Vars[0]._FSM_CondValue @ 32
     249 00000003 0002          .bits   2,16                    ; _JM_FSM_Vars[0]._FSM_Condition @ 48
     250 00000004 0000          .bits   0,16                    ; _JM_FSM_Vars[0]._FSM_RunAction @ 64
     251 00000005 0001          .bits   1,16                    ; _JM_FSM_Vars[0]._FSM_NextState @ 80
     252 00000006 0000          .xfloat $strtod("0x0p+0")               ; _JM_FSM_Vars[1]._FSM_RefSpeed @ 96
         00000007 0000 
     253 00000008 0BB8          .bits   3000,16                 ; _JM_FSM_Vars[1]._FSM_CondValue @ 128
     254 00000009 0000          .bits   0,16                    ; _JM_FSM_Vars[1]._FSM_Condition @ 144
     255 0000000a 0007          .bits   7,16                    ; _JM_FSM_Vars[1]._FSM_RunAction @ 160
     256 0000000b 000E          .bits   14,16                   ; _JM_FSM_Vars[1]._FSM_NextState @ 176
     257 0000000c 0000          .xfloat $strtod("0x1.8p+0")             ; _JM_FSM_Vars[2]._FSM_RefSpeed @ 192
         0000000d 3FC0 
     258 0000000e 0190          .bits   400,16                  ; _JM_FSM_Vars[2]._FSM_CondValue @ 224
     259 0000000f 0000          .bits   0,16                    ; _JM_FSM_Vars[2]._FSM_Condition @ 240
     260 00000010 0007          .bits   7,16                    ; _JM_FSM_Vars[2]._FSM_RunAction @ 256
     261 00000011 0003          .bits   3,16                    ; _JM_FSM_Vars[2]._FSM_NextState @ 272
     262 00000012 0000          .xfloat $strtod("0x0p+0")               ; _JM_FSM_Vars[3]._FSM_RefSpeed @ 288
         00000013 0000 
     263 00000014 0032          .bits   50,16                   ; _JM_FSM_Vars[3]._FSM_CondValue @ 320
     264 00000015 0000          .bits   0,16                    ; _JM_FSM_Vars[3]._FSM_Condition @ 336
     265 00000016 0007          .bits   7,16                    ; _JM_FSM_Vars[3]._FSM_RunAction @ 352
     266 00000017 0004          .bits   4,16                    ; _JM_FSM_Vars[3]._FSM_NextState @ 368
     267 00000018 0000          .xfloat $strtod("-0x1p+0")              ; _JM_FSM_Vars[4]._FSM_RefSpeed @ 384
         00000019 BF80 
     268 0000001a 0064          .bits   100,16                  ; _JM_FSM_Vars[4]._FSM_CondValue @ 416
     269 0000001b 0001          .bits   1,16                    ; _JM_FSM_Vars[4]._FSM_Condition @ 432
     270 0000001c 0007          .bits   7,16                    ; _JM_FSM_Vars[4]._FSM_RunAction @ 448
     271 0000001d 0006          .bits   6,16                    ; _JM_FSM_Vars[4]._FSM_NextState @ 464
     272 0000001e 0000          .xfloat $strtod("0x0p+0")               ; _JM_FSM_Vars[5]._FSM_RefSpeed @ 480
         0000001f 0000 
     273 00000020 00C8          .bits   200,16                  ; _JM_FSM_Vars[5]._FSM_CondValue @ 512
     274 00000021 0000          .bits   0,16                    ; _JM_FSM_Vars[5]._FSM_Condition @ 528
     275 00000022 0007          .bits   7,16                    ; _JM_FSM_Vars[5]._FSM_RunAction @ 544
     276 00000023 000E          .bits   14,16                   ; _JM_FSM_Vars[5]._FSM_NextState @ 560
     277 00000024 0000          .xfloat $strtod("0x0p+0")               ; _JM_FSM_Vars[6]._FSM_RefSpeed @ 576
         00000025 0000 
     278 00000026 00FA          .bits   250,16                  ; _JM_FSM_Vars[6]._FSM_CondValue @ 608
     279 00000027 0000          .bits   0,16                    ; _JM_FSM_Vars[6]._FSM_Condition @ 624
     280 00000028 0009          .bits   9,16                    ; _JM_FSM_Vars[6]._FSM_RunAction @ 640
     281 00000029 000E          .bits   14,16                   ; _JM_FSM_Vars[6]._FSM_NextState @ 656
     282 0000002a 0000          .xfloat $strtod("0x1.8p+0")             ; _JM_FSM_Vars[7]._FSM_RefSpeed @ 672
         0000002b 3FC0 
     283 0000002c 0384          .bits   900,16                  ; _JM_FSM_Vars[7]._FSM_CondValue @ 704
     284 0000002d 0000          .bits   0,16                    ; _JM_FSM_Vars[7]._FSM_Condition @ 720
TMS320C2000 Assembler PC v6.2.5 Wed Nov 22 14:48:16 2017

Tools Copyright (c) 1996-2014 Texas Instruments Incorporated
C:\Users\wmj\AppData\Local\Temp\1257612                              PAGE    7

     285 0000002e 0007          .bits   7,16                    ; _JM_FSM_Vars[7]._FSM_RunAction @ 736
     286 0000002f 000E          .bits   14,16                   ; _JM_FSM_Vars[7]._FSM_NextState @ 752
     287 00000030 0000          .xfloat $strtod("-0x1p+1")              ; _JM_FSM_Vars[8]._FSM_RefSpeed @ 768
         00000031 C000 
     288 00000032 0032          .bits   50,16                   ; _JM_FSM_Vars[8]._FSM_CondValue @ 800
     289 00000033 0000          .bits   0,16                    ; _JM_FSM_Vars[8]._FSM_Condition @ 816
     290 00000034 0007          .bits   7,16                    ; _JM_FSM_Vars[8]._FSM_RunAction @ 832
     291 00000035 000E          .bits   14,16                   ; _JM_FSM_Vars[8]._FSM_NextState @ 848
     292 00000036 0000          .xfloat $strtod("-0x1p+1")              ; _JM_FSM_Vars[9]._FSM_RefSpeed @ 864
         00000037 C000 
     293 00000038 0384          .bits   900,16                  ; _JM_FSM_Vars[9]._FSM_CondValue @ 896
     294 00000039 0000          .bits   0,16                    ; _JM_FSM_Vars[9]._FSM_Condition @ 912
     295 0000003a 0007          .bits   7,16                    ; _JM_FSM_Vars[9]._FSM_RunAction @ 928
     296 0000003b 000E          .bits   14,16                   ; _JM_FSM_Vars[9]._FSM_NextState @ 944
     297 0000003c 8F5C          .xfloat $strtod("-0x1.a51eb8p+0")               ; _JM_FSM_Vars[10]._FSM_RefSpeed @ 960
         0000003d BFD2 
     298 0000003e 0000          .bits   0,16                    ; _JM_FSM_Vars[10]._FSM_CondValue @ 992
     299 0000003f 0001          .bits   1,16                    ; _JM_FSM_Vars[10]._FSM_Condition @ 1008
     300 00000040 0007          .bits   7,16                    ; _JM_FSM_Vars[10]._FSM_RunAction @ 1024
     301 00000041 000E          .bits   14,16                   ; _JM_FSM_Vars[10]._FSM_NextState @ 1040
     302 00000042 8F5C          .xfloat $strtod("0x1.a51eb8p+0")                ; _JM_FSM_Vars[11]._FSM_RefSpeed @ 1056
         00000043 3FD2 
     303 00000044 001E          .bits   30,16                   ; _JM_FSM_Vars[11]._FSM_CondValue @ 1088
     304 00000045 0000          .bits   0,16                    ; _JM_FSM_Vars[11]._FSM_Condition @ 1104
     305 00000046 0007          .bits   7,16                    ; _JM_FSM_Vars[11]._FSM_RunAction @ 1120
     306 00000047 000E          .bits   14,16                   ; _JM_FSM_Vars[11]._FSM_NextState @ 1136
     307 00000048 0000          .xfloat $strtod("0x1p-1")               ; _JM_FSM_Vars[12]._FSM_RefSpeed @ 1152
         00000049 3F00 
     308 0000004a 07D0          .bits   2000,16                 ; _JM_FSM_Vars[12]._FSM_CondValue @ 1184
     309 0000004b 0005          .bits   5,16                    ; _JM_FSM_Vars[12]._FSM_Condition @ 1200
     310 0000004c 0007          .bits   7,16                    ; _JM_FSM_Vars[12]._FSM_RunAction @ 1216
     311 0000004d 000E          .bits   14,16                   ; _JM_FSM_Vars[12]._FSM_NextState @ 1232
     312 0000004e 0000          .xfloat $strtod("0x0p+0")               ; _JM_FSM_Vars[13]._FSM_RefSpeed @ 1248
         0000004f 0000 
     313 00000050 012C          .bits   300,16                  ; _JM_FSM_Vars[13]._FSM_CondValue @ 1280
     314 00000051 0009          .bits   9,16                    ; _JM_FSM_Vars[13]._FSM_Condition @ 1296
     315 00000052 0006          .bits   6,16                    ; _JM_FSM_Vars[13]._FSM_RunAction @ 1312
     316 00000053 000E          .bits   14,16                   ; _JM_FSM_Vars[13]._FSM_NextState @ 1328
     317 00000054 0000          .xfloat $strtod("0x0p+0")               ; _JM_FSM_Vars[14]._FSM_RefSpeed @ 1344
         00000055 0000 
     318 00000056 0001          .bits   1,16                    ; _JM_FSM_Vars[14]._FSM_CondValue @ 1376
     319 00000057 0000          .bits   0,16                    ; _JM_FSM_Vars[14]._FSM_Condition @ 1392
     320 00000058 000A          .bits   10,16                   ; _JM_FSM_Vars[14]._FSM_RunAction @ 1408
     321 00000059 0000          .bits   0,16                    ; _JM_FSM_Vars[14]._FSM_NextState @ 1424
     322              
     323              $C$DW$25        .dwtag  DW_TAG_variable, DW_AT_name("JM_FSM_Vars")
     324                      .dwattr $C$DW$25, DW_AT_TI_symbol_name("_JM_FSM_Vars")
     325                      .dwattr $C$DW$25, DW_AT_location[DW_OP_addr _JM_FSM_Vars]
     326                      .dwattr $C$DW$25, DW_AT_type(*$C$DW$T$181)
     327                      .dwattr $C$DW$25, DW_AT_external
     328              ;       C:\ti\ccsv6\tools\compiler\c2000_6.2.5\bin\opt2000.exe C:\\Users\\wmj\\AppData\\Local\\Temp\\125764 C
     329              ;       C:\ti\ccsv6\tools\compiler\c2000_6.2.5\bin\ac2000.exe -@C:\\Users\\wmj\\AppData\\Local\\Temp\\1257618
     330 00000000               .sect   ".text"
     331                      .clink
     332                      .global _FSM_setMotorHandle
TMS320C2000 Assembler PC v6.2.5 Wed Nov 22 14:48:16 2017

Tools Copyright (c) 1996-2014 Texas Instruments Incorporated
C:\Users\wmj\AppData\Local\Temp\1257612                              PAGE    8

     333              
     334              $C$DW$26        .dwtag  DW_TAG_subprogram, DW_AT_name("FSM_setMotorHandle")
     335                      .dwattr $C$DW$26, DW_AT_low_pc(_FSM_setMotorHandle)
     336                      .dwattr $C$DW$26, DW_AT_high_pc(0x00)
     337                      .dwattr $C$DW$26, DW_AT_TI_symbol_name("_FSM_setMotorHandle")
     338                      .dwattr $C$DW$26, DW_AT_external
     339                      .dwattr $C$DW$26, DW_AT_TI_begin_file("D:/BM1000_v1.1/sw/drivers/drvic/fsm.c")
     340                      .dwattr $C$DW$26, DW_AT_TI_begin_line(0xfa)
     341                      .dwattr $C$DW$26, DW_AT_TI_begin_column(0x06)
     342                      .dwattr $C$DW$26, DW_AT_TI_max_frame_size(-2)
     343                      .dwpsn  file "D:/BM1000_v1.1/sw/drivers/drvic/fsm.c",line 251,column 1,is_stmt,address _FSM_setMotorH
     344              
     345                      .dwfde $C$DW$CIE, _FSM_setMotorHandle
     346              $C$DW$27        .dwtag  DW_TAG_formal_parameter, DW_AT_name("handle")
     347                      .dwattr $C$DW$27, DW_AT_TI_symbol_name("_handle")
     348                      .dwattr $C$DW$27, DW_AT_type(*$C$DW$T$169)
     349                      .dwattr $C$DW$27, DW_AT_location[DW_OP_reg12]
     350              $C$DW$28        .dwtag  DW_TAG_formal_parameter, DW_AT_name("motorHandle")
     351                      .dwattr $C$DW$28, DW_AT_TI_symbol_name("_motorHandle")
     352                      .dwattr $C$DW$28, DW_AT_type(*$C$DW$T$41)
     353                      .dwattr $C$DW$28, DW_AT_location[DW_OP_reg14]
     354              
     355              ;***************************************************************
     356              ;* FNAME: _FSM_setMotorHandle           FR SIZE:   0           *
     357              ;*                                                             *
     358              ;* FUNCTION ENVIRONMENT                                        *
     359              ;*                                                             *
     360              ;* FUNCTION PROPERTIES                                         *
     361              ;*                            0 Parameter,  0 Auto,  0 SOE     *
     362              ;***************************************************************
     363              
     364              _FSM_setMotorHandle:
     365              ;* AR4   assigned to _handle
     366              $C$DW$29        .dwtag  DW_TAG_variable, DW_AT_name("handle")
     367                      .dwattr $C$DW$29, DW_AT_TI_symbol_name("_handle")
     368                      .dwattr $C$DW$29, DW_AT_type(*$C$DW$T$170)
     369                      .dwattr $C$DW$29, DW_AT_location[DW_OP_reg12]
     370              ;* AR5   assigned to _motorHandle
     371              $C$DW$30        .dwtag  DW_TAG_variable, DW_AT_name("motorHandle")
     372                      .dwattr $C$DW$30, DW_AT_TI_symbol_name("_motorHandle")
     373                      .dwattr $C$DW$30, DW_AT_type(*$C$DW$T$207)
     374                      .dwattr $C$DW$30, DW_AT_location[DW_OP_reg14]
     375                      .dwcfi  cfa_offset, -2
     376                      .dwcfi  save_reg_to_mem, 26, 0
     377                      .dwcfi  save_reg_to_reg, 78, 26
     378                      .dwpsn  file "D:/BM1000_v1.1/sw/drivers/drvic/fsm.c",line 254,column 3,is_stmt
     379 00000000 A0C4          MOVL      *+XAR4[0],XAR5        ; [CPU_] |254| 
     380              $C$DW$31        .dwtag  DW_TAG_TI_branch
     381                      .dwattr $C$DW$31, DW_AT_low_pc(0x00)
     382                      .dwattr $C$DW$31, DW_AT_TI_return
     383 00000001 0006          LRETR     ; [CPU_] 
     384                      ; return occurs ; [] 
     385                      .dwattr $C$DW$26, DW_AT_TI_end_file("D:/BM1000_v1.1/sw/drivers/drvic/fsm.c")
     386                      .dwattr $C$DW$26, DW_AT_TI_end_line(0x101)
     387                      .dwattr $C$DW$26, DW_AT_TI_end_column(0x01)
TMS320C2000 Assembler PC v6.2.5 Wed Nov 22 14:48:16 2017

Tools Copyright (c) 1996-2014 Texas Instruments Incorporated
C:\Users\wmj\AppData\Local\Temp\1257612                              PAGE    9

     388                      .dwendentry
     389                      .dwendtag $C$DW$26
     390              
     391 00000002               .sect   ".text"
     392                      .clink
     393                      .global _FSM_setHalHandle
     394              
     395              $C$DW$32        .dwtag  DW_TAG_subprogram, DW_AT_name("FSM_setHalHandle")
     396                      .dwattr $C$DW$32, DW_AT_low_pc(_FSM_setHalHandle)
     397                      .dwattr $C$DW$32, DW_AT_high_pc(0x00)
     398                      .dwattr $C$DW$32, DW_AT_TI_symbol_name("_FSM_setHalHandle")
     399                      .dwattr $C$DW$32, DW_AT_external
     400                      .dwattr $C$DW$32, DW_AT_TI_begin_file("D:/BM1000_v1.1/sw/drivers/drvic/fsm.c")
     401                      .dwattr $C$DW$32, DW_AT_TI_begin_line(0x103)
     402                      .dwattr $C$DW$32, DW_AT_TI_begin_column(0x06)
     403                      .dwattr $C$DW$32, DW_AT_TI_max_frame_size(-2)
     404                      .dwpsn  file "D:/BM1000_v1.1/sw/drivers/drvic/fsm.c",line 260,column 1,is_stmt,address _FSM_setHalHan
     405              
     406                      .dwfde $C$DW$CIE, _FSM_setHalHandle
     407              $C$DW$33        .dwtag  DW_TAG_formal_parameter, DW_AT_name("handle")
     408                      .dwattr $C$DW$33, DW_AT_TI_symbol_name("_handle")
     409                      .dwattr $C$DW$33, DW_AT_type(*$C$DW$T$169)
     410                      .dwattr $C$DW$33, DW_AT_location[DW_OP_reg12]
     411              $C$DW$34        .dwtag  DW_TAG_formal_parameter, DW_AT_name("halHandle")
     412                      .dwattr $C$DW$34, DW_AT_TI_symbol_name("_halHandle")
     413                      .dwattr $C$DW$34, DW_AT_type(*$C$DW$T$43)
     414                      .dwattr $C$DW$34, DW_AT_location[DW_OP_reg14]
     415              
     416              ;***************************************************************
     417              ;* FNAME: _FSM_setHalHandle             FR SIZE:   0           *
     418              ;*                                                             *
     419              ;* FUNCTION ENVIRONMENT                                        *
     420              ;*                                                             *
     421              ;* FUNCTION PROPERTIES                                         *
     422              ;*                            0 Parameter,  0 Auto,  0 SOE     *
     423              ;***************************************************************
     424              
     425              _FSM_setHalHandle:
     426              ;* AR4   assigned to _handle
     427              $C$DW$35        .dwtag  DW_TAG_variable, DW_AT_name("handle")
     428                      .dwattr $C$DW$35, DW_AT_TI_symbol_name("_handle")
     429                      .dwattr $C$DW$35, DW_AT_type(*$C$DW$T$170)
     430                      .dwattr $C$DW$35, DW_AT_location[DW_OP_reg12]
     431              ;* AR5   assigned to _halHandle
     432              $C$DW$36        .dwtag  DW_TAG_variable, DW_AT_name("halHandle")
     433                      .dwattr $C$DW$36, DW_AT_TI_symbol_name("_halHandle")
     434                      .dwattr $C$DW$36, DW_AT_type(*$C$DW$T$204)
     435                      .dwattr $C$DW$36, DW_AT_location[DW_OP_reg14]
     436                      .dwcfi  cfa_offset, -2
     437                      .dwcfi  save_reg_to_mem, 26, 0
     438                      .dwcfi  save_reg_to_reg, 78, 26
     439                      .dwpsn  file "D:/BM1000_v1.1/sw/drivers/drvic/fsm.c",line 263,column 3,is_stmt
     440 00000002 A0D4          MOVL      *+XAR4[2],XAR5        ; [CPU_] |263| 
     441              $C$DW$37        .dwtag  DW_TAG_TI_branch
     442                      .dwattr $C$DW$37, DW_AT_low_pc(0x00)
TMS320C2000 Assembler PC v6.2.5 Wed Nov 22 14:48:16 2017

Tools Copyright (c) 1996-2014 Texas Instruments Incorporated
C:\Users\wmj\AppData\Local\Temp\1257612                              PAGE   10

     443                      .dwattr $C$DW$37, DW_AT_TI_return
     444 00000003 0006          LRETR     ; [CPU_] 
     445                      ; return occurs ; [] 
     446                      .dwattr $C$DW$32, DW_AT_TI_end_file("D:/BM1000_v1.1/sw/drivers/drvic/fsm.c")
     447                      .dwattr $C$DW$32, DW_AT_TI_end_line(0x10a)
     448                      .dwattr $C$DW$32, DW_AT_TI_end_column(0x01)
     449                      .dwendentry
     450                      .dwendtag $C$DW$32
     451              
     452 00000004               .sect   ".text"
     453                      .clink
     454                      .global _FSM_init
     455              
     456              $C$DW$38        .dwtag  DW_TAG_subprogram, DW_AT_name("FSM_init")
     457                      .dwattr $C$DW$38, DW_AT_low_pc(_FSM_init)
     458                      .dwattr $C$DW$38, DW_AT_high_pc(0x00)
     459                      .dwattr $C$DW$38, DW_AT_TI_symbol_name("_FSM_init")
     460                      .dwattr $C$DW$38, DW_AT_external
     461                      .dwattr $C$DW$38, DW_AT_type(*$C$DW$T$169)
     462                      .dwattr $C$DW$38, DW_AT_TI_begin_file("D:/BM1000_v1.1/sw/drivers/drvic/fsm.c")
     463                      .dwattr $C$DW$38, DW_AT_TI_begin_line(0xe8)
     464                      .dwattr $C$DW$38, DW_AT_TI_begin_column(0x0c)
     465                      .dwattr $C$DW$38, DW_AT_TI_max_frame_size(-2)
     466                      .dwpsn  file "D:/BM1000_v1.1/sw/drivers/drvic/fsm.c",line 233,column 1,is_stmt,address _FSM_init
     467              
     468                      .dwfde $C$DW$CIE, _FSM_init
     469              $C$DW$39        .dwtag  DW_TAG_formal_parameter, DW_AT_name("pMemory")
     470                      .dwattr $C$DW$39, DW_AT_TI_symbol_name("_pMemory")
     471                      .dwattr $C$DW$39, DW_AT_type(*$C$DW$T$3)
     472                      .dwattr $C$DW$39, DW_AT_location[DW_OP_reg12]
     473              $C$DW$40        .dwtag  DW_TAG_formal_parameter, DW_AT_name("numBytes")
     474                      .dwattr $C$DW$40, DW_AT_TI_symbol_name("_numBytes")
     475                      .dwattr $C$DW$40, DW_AT_type(*$C$DW$T$172)
     476                      .dwattr $C$DW$40, DW_AT_location[DW_OP_reg0]
     477              
     478              ;***************************************************************
     479              ;* FNAME: _FSM_init                     FR SIZE:   0           *
     480              ;*                                                             *
     481              ;* FUNCTION ENVIRONMENT                                        *
     482              ;*                                                             *
     483              ;* FUNCTION PROPERTIES                                         *
     484              ;*                            0 Parameter,  0 Auto,  0 SOE     *
     485              ;***************************************************************
     486              
     487              _FSM_init:
     488              ;* AR6   assigned to _numBytes
     489              $C$DW$41        .dwtag  DW_TAG_variable, DW_AT_name("numBytes")
     490                      .dwattr $C$DW$41, DW_AT_TI_symbol_name("_numBytes")
     491                      .dwattr $C$DW$41, DW_AT_type(*$C$DW$T$172)
     492                      .dwattr $C$DW$41, DW_AT_location[DW_OP_reg16]
     493              ;* AR4   assigned to _pMemory
     494              $C$DW$42        .dwtag  DW_TAG_variable, DW_AT_name("pMemory")
     495                      .dwattr $C$DW$42, DW_AT_TI_symbol_name("_pMemory")
     496                      .dwattr $C$DW$42, DW_AT_type(*$C$DW$T$209)
     497                      .dwattr $C$DW$42, DW_AT_location[DW_OP_reg12]
TMS320C2000 Assembler PC v6.2.5 Wed Nov 22 14:48:16 2017

Tools Copyright (c) 1996-2014 Texas Instruments Incorporated
C:\Users\wmj\AppData\Local\Temp\1257612                              PAGE   11

     498                      .dwcfi  cfa_offset, -2
     499                      .dwcfi  save_reg_to_mem, 26, 0
     500                      .dwcfi  save_reg_to_reg, 78, 26
     501 00000004 1EA6          MOVL      XAR6,ACC              ; [CPU_] |233| 
     502                      .dwpsn  file "D:/BM1000_v1.1/sw/drivers/drvic/fsm.c",line 237,column 4,is_stmt
     503 00000005 0226          MOVB      ACC,#38               ; [CPU_] |237| 
     504 00000006 0FA6          CMPL      ACC,XAR6              ; [CPU_] |237| 
     505 00000007 6903          B         $C$L1,LOS             ; [CPU_] |237| 
     506                      ; branchcc occurs ; [] |237| 
     507                      .dwpsn  file "D:/BM1000_v1.1/sw/drivers/drvic/fsm.c",line 238,column 6,is_stmt
     508 00000008 D400          MOVB      XAR4,#0               ; [CPU_] |238| 
     509              $C$DW$43        .dwtag  DW_TAG_TI_branch
     510                      .dwattr $C$DW$43, DW_AT_low_pc(0x00)
     511                      .dwattr $C$DW$43, DW_AT_TI_return
     512 00000009 0006          LRETR     ; [CPU_] 
     513                      ; return occurs ; [] 
     514 0000000a       $C$L1:    
     515                      .dwpsn  file "D:/BM1000_v1.1/sw/drivers/drvic/fsm.c",line 244,column 4,is_stmt
     516 0000000a 8F40-         MOVL      XAR5,#_FSM_State_Box  ; [CPU_U] |244| 
         0000000b 0000 
     517 0000000c A0E4          MOVL      *+XAR4[4],XAR5        ; [CPU_] |244| 
     518              $C$DW$44        .dwtag  DW_TAG_TI_branch
     519                      .dwattr $C$DW$44, DW_AT_low_pc(0x00)
     520                      .dwattr $C$DW$44, DW_AT_TI_return
     521 0000000d 0006          LRETR     ; [CPU_] 
     522                      ; return occurs ; [] 
     523                      .dwattr $C$DW$38, DW_AT_TI_end_file("D:/BM1000_v1.1/sw/drivers/drvic/fsm.c")
     524                      .dwattr $C$DW$38, DW_AT_TI_end_line(0xf8)
     525                      .dwattr $C$DW$38, DW_AT_TI_end_column(0x01)
     526                      .dwendentry
     527                      .dwendtag $C$DW$38
     528              
     529 0000000e               .sect   ".text"
     530                      .clink
     531                      .global _FSM_getPortStatus
     532              
     533              $C$DW$45        .dwtag  DW_TAG_subprogram, DW_AT_name("FSM_getPortStatus")
     534                      .dwattr $C$DW$45, DW_AT_low_pc(_FSM_getPortStatus)
     535                      .dwattr $C$DW$45, DW_AT_high_pc(0x00)
     536                      .dwattr $C$DW$45, DW_AT_TI_symbol_name("_FSM_getPortStatus")
     537                      .dwattr $C$DW$45, DW_AT_external
     538                      .dwattr $C$DW$45, DW_AT_TI_begin_file("D:/BM1000_v1.1/sw/drivers/drvic/fsm.c")
     539                      .dwattr $C$DW$45, DW_AT_TI_begin_line(0x498)
     540                      .dwattr $C$DW$45, DW_AT_TI_begin_column(0x06)
     541                      .dwattr $C$DW$45, DW_AT_TI_max_frame_size(-2)
     542                      .dwpsn  file "D:/BM1000_v1.1/sw/drivers/drvic/fsm.c",line 1177,column 1,is_stmt,address _FSM_getPortS
     543              
     544                      .dwfde $C$DW$CIE, _FSM_getPortStatus
     545              $C$DW$46        .dwtag  DW_TAG_formal_parameter, DW_AT_name("handle")
     546                      .dwattr $C$DW$46, DW_AT_TI_symbol_name("_handle")
     547                      .dwattr $C$DW$46, DW_AT_type(*$C$DW$T$169)
     548                      .dwattr $C$DW$46, DW_AT_location[DW_OP_reg12]
     549              
     550              ;***************************************************************
     551              ;* FNAME: _FSM_getPortStatus            FR SIZE:   0           *
TMS320C2000 Assembler PC v6.2.5 Wed Nov 22 14:48:16 2017

Tools Copyright (c) 1996-2014 Texas Instruments Incorporated
C:\Users\wmj\AppData\Local\Temp\1257612                              PAGE   12

     552              ;*                                                             *
     553              ;* FUNCTION ENVIRONMENT                                        *
     554              ;*                                                             *
     555              ;* FUNCTION PROPERTIES                                         *
     556              ;*                            0 Parameter,  0 Auto,  0 SOE     *
     557              ;***************************************************************
     558              
     559              _FSM_getPortStatus:
     560              ;* AR4   assigned to _handle
     561              $C$DW$47        .dwtag  DW_TAG_variable, DW_AT_name("handle")
     562                      .dwattr $C$DW$47, DW_AT_TI_symbol_name("_handle")
     563                      .dwattr $C$DW$47, DW_AT_type(*$C$DW$T$170)
     564                      .dwattr $C$DW$47, DW_AT_location[DW_OP_reg12]
     565                      .dwcfi  cfa_offset, -2
     566                      .dwcfi  save_reg_to_mem, 26, 0
     567                      .dwcfi  save_reg_to_reg, 78, 26
     568                      .dwpsn  file "D:/BM1000_v1.1/sw/modules/hal/boards/hvkit_rev1p1/f28x/f2802x/src/hal.h",line 821,colum
     569 0000000e 8AD4          MOVL      XAR4,*+XAR4[2]        ; [CPU_] |821| 
     570 0000000f D008          MOVB      XAR0,#8               ; [CPU_] |821| 
     571 00000010 9A10          MOVB      AL,#16                ; [CPU_] |821| 
     572 00000011 8A94          MOVL      XAR4,*+XAR4[AR0]      ; [CPU_] |821| 
     573              $C$DW$48        .dwtag  DW_TAG_TI_branch
     574                      .dwattr $C$DW$48, DW_AT_low_pc(0x00)
     575                      .dwattr $C$DW$48, DW_AT_name("_GPIO_read")
     576                      .dwattr $C$DW$48, DW_AT_TI_call
     577 00000012 7640!         LCR       #_GPIO_read           ; [CPU_] |821| 
         00000013 0000 
     578                      ; call occurs [#_GPIO_read] ; [] |821| 
     579              $C$DW$49        .dwtag  DW_TAG_TI_branch
     580                      .dwattr $C$DW$49, DW_AT_low_pc(0x00)
     581                      .dwattr $C$DW$49, DW_AT_TI_return
     582 00000014 0006          LRETR     ; [CPU_] 
     583                      ; return occurs ; [] 
     584                      .dwattr $C$DW$45, DW_AT_TI_end_file("D:/BM1000_v1.1/sw/drivers/drvic/fsm.c")
     585                      .dwattr $C$DW$45, DW_AT_TI_end_line(0x49f)
     586                      .dwattr $C$DW$45, DW_AT_TI_end_column(0x01)
     587                      .dwendentry
     588                      .dwendtag $C$DW$45
     589              
     590 00000015               .sect   ".text"
     591                      .clink
     592                      .global _FSM_clrOverCurrentReg
     593              
     594              $C$DW$50        .dwtag  DW_TAG_subprogram, DW_AT_name("FSM_clrOverCurrentReg")
     595                      .dwattr $C$DW$50, DW_AT_low_pc(_FSM_clrOverCurrentReg)
     596                      .dwattr $C$DW$50, DW_AT_high_pc(0x00)
     597                      .dwattr $C$DW$50, DW_AT_TI_symbol_name("_FSM_clrOverCurrentReg")
     598                      .dwattr $C$DW$50, DW_AT_external
     599                      .dwattr $C$DW$50, DW_AT_TI_begin_file("D:/BM1000_v1.1/sw/drivers/drvic/fsm.c")
     600                      .dwattr $C$DW$50, DW_AT_TI_begin_line(0x488)
     601                      .dwattr $C$DW$50, DW_AT_TI_begin_column(0x06)
     602                      .dwattr $C$DW$50, DW_AT_TI_max_frame_size(-4)
     603                      .dwpsn  file "D:/BM1000_v1.1/sw/drivers/drvic/fsm.c",line 1161,column 1,is_stmt,address _FSM_clrOverC
     604              
     605                      .dwfde $C$DW$CIE, _FSM_clrOverCurrentReg
TMS320C2000 Assembler PC v6.2.5 Wed Nov 22 14:48:16 2017

Tools Copyright (c) 1996-2014 Texas Instruments Incorporated
C:\Users\wmj\AppData\Local\Temp\1257612                              PAGE   13

     606              $C$DW$51        .dwtag  DW_TAG_formal_parameter, DW_AT_name("handle")
     607                      .dwattr $C$DW$51, DW_AT_TI_symbol_name("_handle")
     608                      .dwattr $C$DW$51, DW_AT_type(*$C$DW$T$169)
     609                      .dwattr $C$DW$51, DW_AT_location[DW_OP_reg12]
     610              
     611              ;***************************************************************
     612              ;* FNAME: _FSM_clrOverCurrentReg        FR SIZE:   2           *
     613              ;*                                                             *
     614              ;* FUNCTION ENVIRONMENT                                        *
     615              ;*                                                             *
     616              ;* FUNCTION PROPERTIES                                         *
     617              ;*                            0 Parameter,  0 Auto,  2 SOE     *
     618              ;***************************************************************
     619              
     620              _FSM_clrOverCurrentReg:
     621              ;* AR1   assigned to _handle
     622              $C$DW$52        .dwtag  DW_TAG_variable, DW_AT_name("handle")
     623                      .dwattr $C$DW$52, DW_AT_TI_symbol_name("_handle")
     624                      .dwattr $C$DW$52, DW_AT_type(*$C$DW$T$170)
     625                      .dwattr $C$DW$52, DW_AT_location[DW_OP_reg6]
     626                      .dwcfi  cfa_offset, -2
     627                      .dwcfi  save_reg_to_mem, 26, 0
     628                      .dwcfi  save_reg_to_reg, 78, 26
     629 00000015 B2BD          MOVL      *SP++,XAR1            ; [CPU_] 
     630                      .dwcfi  save_reg_to_mem, 7, 2
     631                      .dwcfi  cfa_offset, -4
     632 00000016 8BA4          MOVL      XAR1,XAR4             ; [CPU_] |1161| 
     633                      .dwpsn  file "D:/BM1000_v1.1/sw/modules/hal/boards/hvkit_rev1p1/f28x/f2802x/src/hal.h",line 821,colum
     634 00000017 8AD1          MOVL      XAR4,*+XAR1[2]        ; [CPU_] |821| 
     635 00000018 D008          MOVB      XAR0,#8               ; [CPU_] |821| 
     636 00000019 9A11          MOVB      AL,#17                ; [CPU_] |821| 
     637 0000001a 8A94          MOVL      XAR4,*+XAR4[AR0]      ; [CPU_] |821| 
     638              $C$DW$53        .dwtag  DW_TAG_TI_branch
     639                      .dwattr $C$DW$53, DW_AT_low_pc(0x00)
     640                      .dwattr $C$DW$53, DW_AT_name("_GPIO_read")
     641                      .dwattr $C$DW$53, DW_AT_TI_call
     642 0000001b 7640!         LCR       #_GPIO_read           ; [CPU_] |821| 
         0000001c 0000 
     643                      ; call occurs [#_GPIO_read] ; [] |821| 
     644 0000001d 5200          CMPB      AL,#0                 ; [CPU_] |821| 
     645 0000001e ED17          BF        $C$L2,NEQ             ; [CPU_] |821| 
     646                      ; branchcc occurs ; [] |821| 
     647                      .dwpsn  file "D:/BM1000_v1.1/sw/modules/hal/boards/hvkit_rev1p1/f28x/f2802x/src/hal.h",line 853,colum
     648 0000001f 8AD1          MOVL      XAR4,*+XAR1[2]        ; [CPU_] |853| 
     649 00000020 D008          MOVB      XAR0,#8               ; [CPU_] |853| 
     650 00000021 9A20          MOVB      AL,#32                ; [CPU_] |853| 
     651 00000022 8A94          MOVL      XAR4,*+XAR4[AR0]      ; [CPU_] |853| 
     652              $C$DW$54        .dwtag  DW_TAG_TI_branch
     653                      .dwattr $C$DW$54, DW_AT_low_pc(0x00)
     654                      .dwattr $C$DW$54, DW_AT_name("_GPIO_setLow")
     655                      .dwattr $C$DW$54, DW_AT_TI_call
     656 00000023 7640!         LCR       #_GPIO_setLow         ; [CPU_] |853| 
         00000024 0000 
     657                      ; call occurs [#_GPIO_setLow] ; [] |853| 
     658 00000025 8AD1          MOVL      XAR4,*+XAR1[2]        ; [CPU_] |853| 
TMS320C2000 Assembler PC v6.2.5 Wed Nov 22 14:48:16 2017

Tools Copyright (c) 1996-2014 Texas Instruments Incorporated
C:\Users\wmj\AppData\Local\Temp\1257612                              PAGE   14

     659 00000026 D008          MOVB      XAR0,#8               ; [CPU_] |853| 
     660 00000027 9A12          MOVB      AL,#18                ; [CPU_] |853| 
     661 00000028 8A94          MOVL      XAR4,*+XAR4[AR0]      ; [CPU_] |853| 
     662              $C$DW$55        .dwtag  DW_TAG_TI_branch
     663                      .dwattr $C$DW$55, DW_AT_low_pc(0x00)
     664                      .dwattr $C$DW$55, DW_AT_name("_GPIO_setLow")
     665                      .dwattr $C$DW$55, DW_AT_TI_call
     666 00000029 7640!         LCR       #_GPIO_setLow         ; [CPU_] |853| 
         0000002a 0000 
     667                      ; call occurs [#_GPIO_setLow] ; [] |853| 
     668                      .dwpsn  file "D:/BM1000_v1.1/sw/drivers/drvic/fsm.c",line 1169,column 5,is_stmt
     669 0000002b FF20          MOV       ACC,#1198             ; [CPU_] |1169| 
         0000002c 04AE 
     670              $C$DW$56        .dwtag  DW_TAG_TI_branch
     671                      .dwattr $C$DW$56, DW_AT_low_pc(0x00)
     672                      .dwattr $C$DW$56, DW_AT_name("_usDelay")
     673                      .dwattr $C$DW$56, DW_AT_TI_call
     674 0000002d 7640!         LCR       #_usDelay             ; [CPU_] |1169| 
         0000002e 0000 
     675                      ; call occurs [#_usDelay] ; [] |1169| 
     676                      .dwpsn  file "D:/BM1000_v1.1/sw/modules/hal/boards/hvkit_rev1p1/f28x/f2802x/src/hal.h",line 807,colum
     677 0000002f 8AD1          MOVL      XAR4,*+XAR1[2]        ; [CPU_] |807| 
     678 00000030 D008          MOVB      XAR0,#8               ; [CPU_] |807| 
     679 00000031 9A12          MOVB      AL,#18                ; [CPU_] |807| 
     680 00000032 8A94          MOVL      XAR4,*+XAR4[AR0]      ; [CPU_] |807| 
     681              $C$DW$57        .dwtag  DW_TAG_TI_branch
     682                      .dwattr $C$DW$57, DW_AT_low_pc(0x00)
     683                      .dwattr $C$DW$57, DW_AT_name("_GPIO_setHigh")
     684                      .dwattr $C$DW$57, DW_AT_TI_call
     685 00000033 7640!         LCR       #_GPIO_setHigh        ; [CPU_] |807| 
         00000034 0000 
     686                      ; call occurs [#_GPIO_setHigh] ; [] |807| 
     687 00000035       $C$L2:    
     688 00000035 8BBE          MOVL      XAR1,*--SP            ; [CPU_] 
     689                      .dwcfi  cfa_offset, -2
     690                      .dwcfi  restore_reg, 7
     691              $C$DW$58        .dwtag  DW_TAG_TI_branch
     692                      .dwattr $C$DW$58, DW_AT_low_pc(0x00)
     693                      .dwattr $C$DW$58, DW_AT_TI_return
     694 00000036 0006          LRETR     ; [CPU_] 
     695                      ; return occurs ; [] 
     696                      .dwattr $C$DW$50, DW_AT_TI_end_file("D:/BM1000_v1.1/sw/drivers/drvic/fsm.c")
     697                      .dwattr $C$DW$50, DW_AT_TI_end_line(0x496)
     698                      .dwattr $C$DW$50, DW_AT_TI_end_column(0x01)
     699                      .dwendentry
     700                      .dwendtag $C$DW$50
     701              
     702 00000037               .sect   ".text"
     703                      .clink
     704                      .global _FSM_SelectMode
     705              
     706              $C$DW$59        .dwtag  DW_TAG_subprogram, DW_AT_name("FSM_SelectMode")
     707                      .dwattr $C$DW$59, DW_AT_low_pc(_FSM_SelectMode)
     708                      .dwattr $C$DW$59, DW_AT_high_pc(0x00)
     709                      .dwattr $C$DW$59, DW_AT_TI_symbol_name("_FSM_SelectMode")
TMS320C2000 Assembler PC v6.2.5 Wed Nov 22 14:48:16 2017

Tools Copyright (c) 1996-2014 Texas Instruments Incorporated
C:\Users\wmj\AppData\Local\Temp\1257612                              PAGE   15

     710                      .dwattr $C$DW$59, DW_AT_external
     711                      .dwattr $C$DW$59, DW_AT_TI_begin_file("D:/BM1000_v1.1/sw/drivers/drvic/fsm.c")
     712                      .dwattr $C$DW$59, DW_AT_TI_begin_line(0x158)
     713                      .dwattr $C$DW$59, DW_AT_TI_begin_column(0x06)
     714                      .dwattr $C$DW$59, DW_AT_TI_max_frame_size(-68)
     715                      .dwpsn  file "D:/BM1000_v1.1/sw/drivers/drvic/fsm.c",line 345,column 1,is_stmt,address _FSM_SelectMod
     716              
     717                      .dwfde $C$DW$CIE, _FSM_SelectMode
     718              $C$DW$60        .dwtag  DW_TAG_formal_parameter, DW_AT_name("handle")
     719                      .dwattr $C$DW$60, DW_AT_TI_symbol_name("_handle")
     720                      .dwattr $C$DW$60, DW_AT_type(*$C$DW$T$169)
     721                      .dwattr $C$DW$60, DW_AT_location[DW_OP_reg12]
     722              
     723              ;***************************************************************
     724              ;* FNAME: _FSM_SelectMode               FR SIZE:  66           *
     725              ;*                                                             *
     726              ;* FUNCTION ENVIRONMENT                                        *
     727              ;*                                                             *
     728              ;* FUNCTION PROPERTIES                                         *
     729              ;*                            2 Parameter, 62 Auto,  2 SOE     *
     730              ;***************************************************************
     731              
     732              _FSM_SelectMode:
     733              ;* AR1   assigned to _handle
     734              $C$DW$61        .dwtag  DW_TAG_variable, DW_AT_name("handle")
     735                      .dwattr $C$DW$61, DW_AT_TI_symbol_name("_handle")
     736                      .dwattr $C$DW$61, DW_AT_type(*$C$DW$T$170)
     737                      .dwattr $C$DW$61, DW_AT_location[DW_OP_reg6]
     738              $C$DW$62        .dwtag  DW_TAG_variable, DW_AT_name("State")
     739                      .dwattr $C$DW$62, DW_AT_TI_symbol_name("_State")
     740                      .dwattr $C$DW$62, DW_AT_type(*$C$DW$T$177)
     741                      .dwattr $C$DW$62, DW_AT_location[DW_OP_breg20 -8]
     742              $C$DW$63        .dwtag  DW_TAG_variable, DW_AT_name("State")
     743                      .dwattr $C$DW$63, DW_AT_TI_symbol_name("_State")
     744                      .dwattr $C$DW$63, DW_AT_type(*$C$DW$T$177)
     745                      .dwattr $C$DW$63, DW_AT_location[DW_OP_breg20 -14]
     746              $C$DW$64        .dwtag  DW_TAG_variable, DW_AT_name("State")
     747                      .dwattr $C$DW$64, DW_AT_TI_symbol_name("_State")
     748                      .dwattr $C$DW$64, DW_AT_type(*$C$DW$T$177)
     749                      .dwattr $C$DW$64, DW_AT_location[DW_OP_breg20 -20]
     750              $C$DW$65        .dwtag  DW_TAG_variable, DW_AT_name("State")
     751                      .dwattr $C$DW$65, DW_AT_TI_symbol_name("_State")
     752                      .dwattr $C$DW$65, DW_AT_type(*$C$DW$T$177)
     753                      .dwattr $C$DW$65, DW_AT_location[DW_OP_breg20 -26]
     754              $C$DW$66        .dwtag  DW_TAG_variable, DW_AT_name("State")
     755                      .dwattr $C$DW$66, DW_AT_TI_symbol_name("_State")
     756                      .dwattr $C$DW$66, DW_AT_type(*$C$DW$T$177)
     757                      .dwattr $C$DW$66, DW_AT_location[DW_OP_breg20 -32]
     758              $C$DW$67        .dwtag  DW_TAG_variable, DW_AT_name("State")
     759                      .dwattr $C$DW$67, DW_AT_TI_symbol_name("_State")
     760                      .dwattr $C$DW$67, DW_AT_type(*$C$DW$T$177)
     761                      .dwattr $C$DW$67, DW_AT_location[DW_OP_breg20 -38]
     762              $C$DW$68        .dwtag  DW_TAG_variable, DW_AT_name("State")
     763                      .dwattr $C$DW$68, DW_AT_TI_symbol_name("_State")
     764                      .dwattr $C$DW$68, DW_AT_type(*$C$DW$T$177)
TMS320C2000 Assembler PC v6.2.5 Wed Nov 22 14:48:16 2017

Tools Copyright (c) 1996-2014 Texas Instruments Incorporated
C:\Users\wmj\AppData\Local\Temp\1257612                              PAGE   16

     765                      .dwattr $C$DW$68, DW_AT_location[DW_OP_breg20 -44]
     766              $C$DW$69        .dwtag  DW_TAG_variable, DW_AT_name("State")
     767                      .dwattr $C$DW$69, DW_AT_TI_symbol_name("_State")
     768                      .dwattr $C$DW$69, DW_AT_type(*$C$DW$T$177)
     769                      .dwattr $C$DW$69, DW_AT_location[DW_OP_breg20 -50]
     770              $C$DW$70        .dwtag  DW_TAG_variable, DW_AT_name("State")
     771                      .dwattr $C$DW$70, DW_AT_TI_symbol_name("_State")
     772                      .dwattr $C$DW$70, DW_AT_type(*$C$DW$T$177)
     773                      .dwattr $C$DW$70, DW_AT_location[DW_OP_breg20 -56]
     774                      .dwcfi  cfa_offset, -2
     775                      .dwcfi  save_reg_to_mem, 26, 0
     776                      .dwcfi  save_reg_to_reg, 78, 26
     777 00000037 B2BD          MOVL      *SP++,XAR1            ; [CPU_] 
     778                      .dwcfi  save_reg_to_mem, 7, 2
     779                      .dwcfi  cfa_offset, -4
     780 00000038 FE40          ADDB      SP,#64                ; [CPU_U] 
     781                      .dwcfi  cfa_offset, -68
     782                      .dwpsn  file "D:/BM1000_v1.1/sw/drivers/drvic/fsm.c",line 348,column 4,is_stmt
     783 00000039 D00A          MOVB      XAR0,#10              ; [CPU_] |348| 
     784                      .dwpsn  file "D:/BM1000_v1.1/sw/drivers/drvic/fsm.c",line 345,column 1,is_stmt
     785 0000003a 8BA4          MOVL      XAR1,XAR4             ; [CPU_] |345| 
     786                      .dwpsn  file "D:/BM1000_v1.1/sw/drivers/drvic/fsm.c",line 348,column 4,is_stmt
     787 0000003b 9291          MOV       AL,*+XAR1[AR0]        ; [CPU_] |348| 
     788 0000003c 5204          CMPB      AL,#4                 ; [CPU_] |348| 
     789 0000003d 6211          B         $C$L3,GT              ; [CPU_] |348| 
     790                      ; branchcc occurs ; [] |348| 
     791 0000003e 5204          CMPB      AL,#4                 ; [CPU_] |348| 
     792 0000003f 56C1          BF        $C$L8,EQ              ; [CPU_] |348| 
         00000040 00CA 
     793                      ; branchcc occurs ; [] |348| 
     794 00000041 5200          CMPB      AL,#0                 ; [CPU_] |348| 
     795 00000042 56C1          BF        $C$L12,EQ             ; [CPU_] |348| 
         00000043 0179 
     796                      ; branchcc occurs ; [] |348| 
     797 00000044 5201          CMPB      AL,#1                 ; [CPU_] |348| 
     798 00000045 56C1          BF        $C$L11,EQ             ; [CPU_] |348| 
         00000046 014A 
     799                      ; branchcc occurs ; [] |348| 
     800 00000047 5202          CMPB      AL,#2                 ; [CPU_] |348| 
     801 00000048 56C1          BF        $C$L10,EQ             ; [CPU_] |348| 
         00000049 011B 
     802                      ; branchcc occurs ; [] |348| 
     803 0000004a 5203          CMPB      AL,#3                 ; [CPU_] |348| 
     804 0000004b 56C1          BF        $C$L9,EQ              ; [CPU_] |348| 
         0000004c 00EB 
     805                      ; branchcc occurs ; [] |348| 
     806 0000004d 6F08          B         $C$L4,UNC             ; [CPU_] |348| 
     807                      ; branch occurs ; [] |348| 
     808 0000004e       $C$L3:    
     809 0000004e 5205          CMPB      AL,#5                 ; [CPU_] |348| 
     810 0000004f 56C1          BF        $C$L7,EQ              ; [CPU_] |348| 
         00000050 008D 
     811                      ; branchcc occurs ; [] |348| 
     812 00000051 5206          CMPB      AL,#6                 ; [CPU_] |348| 
     813 00000052 EC5D          BF        $C$L6,EQ              ; [CPU_] |348| 
TMS320C2000 Assembler PC v6.2.5 Wed Nov 22 14:48:16 2017

Tools Copyright (c) 1996-2014 Texas Instruments Incorporated
C:\Users\wmj\AppData\Local\Temp\1257612                              PAGE   17

     814                      ; branchcc occurs ; [] |348| 
     815 00000053 5207          CMPB      AL,#7                 ; [CPU_] |348| 
     816 00000054 EC2E          BF        $C$L5,EQ              ; [CPU_] |348| 
     817                      ; branchcc occurs ; [] |348| 
     818 00000055       $C$L4:    
     819                      .dwpsn  file "D:/BM1000_v1.1/sw/drivers/drvic/fsm.h",line 427,column 1,is_stmt
     820 00000055 5CAD          MOVZ      AR4,SP                ; [CPU_U] |427| 
     821 00000056 76C0+         MOVL      XAR7,#_JM_FSM_MotorFunc ; [CPU_U] |427| 
         00000057 0000 
     822 00000058 DC88          SUBB      XAR4,#8               ; [CPU_U] |427| 
     823 00000059 F605          RPT       #5
     824 0000005a 2484  ||     PREAD     *XAR4++,*XAR7         ; [CPU_] |427| 
     825                      .dwpsn  file "D:/BM1000_v1.1/sw/drivers/drvic/fsm.h",line 430,column 3,is_stmt
     826 0000005b 8AE1          MOVL      XAR4,*+XAR1[4]        ; [CPU_] |430| 
     827 0000005c D01F          MOVB      XAR0,#31              ; [CPU_] |430| 
     828 0000005d 9245          MOV       AL,*-SP[5]            ; [CPU_] |430| 
     829 0000005e 9694          MOV       *+XAR4[AR0],AL        ; [CPU_] |430| 
     830                      .dwpsn  file "D:/BM1000_v1.1/sw/drivers/drvic/fsm.h",line 431,column 3,is_stmt
     831 0000005f 8AE1          MOVL      XAR4,*+XAR1[4]        ; [CPU_] |431| 
     832 00000060 D010          MOVB      XAR0,#16              ; [CPU_] |431| 
     833 00000061 9246          MOV       AL,*-SP[6]            ; [CPU_] |431| 
     834 00000062 9694          MOV       *+XAR4[AR0],AL        ; [CPU_] |431| 
     835                      .dwpsn  file "D:/BM1000_v1.1/sw/drivers/drvic/fsm.h",line 432,column 3,is_stmt
     836 00000063 0648          MOVL      ACC,*-SP[8]           ; [CPU_] |432| 
     837 00000064 88AD          MOVZ      AR6,SP                ; [CPU_U] |432| 
     838 00000065 DEC0          SUBB      XAR6,#64              ; [CPU_U] |432| 
     839              $C$DW$71        .dwtag  DW_TAG_TI_branch
     840                      .dwattr $C$DW$71, DW_AT_low_pc(0x00)
     841                      .dwattr $C$DW$71, DW_AT_name("FS$$TOFD")
     842                      .dwattr $C$DW$71, DW_AT_TI_call
     843 00000066 7640!         LCR       #FS$$TOFD             ; [CPU_] |432| 
         00000067 0000 
     844                      ; call occurs [#FS$$TOFD] ; [] |432| 
     845 00000068 5CAD          MOVZ      AR4,SP                ; [CPU_U] |432| 
     846 00000069 88AD          MOVZ      AR6,SP                ; [CPU_U] |432| 
     847 0000006a 8F40+         MOVL      XAR5,#$C$FL1          ; [CPU_U] |432| 
         0000006b 0000 
     848 0000006c DCC0          SUBB      XAR4,#64              ; [CPU_U] |432| 
     849 0000006d DEBC          SUBB      XAR6,#60              ; [CPU_U] |432| 
     850              $C$DW$72        .dwtag  DW_TAG_TI_branch
     851                      .dwattr $C$DW$72, DW_AT_low_pc(0x00)
     852                      .dwattr $C$DW$72, DW_AT_name("FD$$MPY")
     853                      .dwattr $C$DW$72, DW_AT_TI_call
     854 0000006e 7640!         LCR       #FD$$MPY              ; [CPU_] |432| 
         0000006f 0000 
     855                      ; call occurs [#FD$$MPY] ; [] |432| 
     856 00000070 5CAD          MOVZ      AR4,SP                ; [CPU_U] |432| 
     857 00000071 DCBC          SUBB      XAR4,#60              ; [CPU_U] |432| 
     858              $C$DW$73        .dwtag  DW_TAG_TI_branch
     859                      .dwattr $C$DW$73, DW_AT_low_pc(0x00)
     860                      .dwattr $C$DW$73, DW_AT_name("FD$$TOL")
     861                      .dwattr $C$DW$73, DW_AT_TI_call
     862 00000072 7640!         LCR       #FD$$TOL              ; [CPU_] |432| 
         00000073 0000 
     863                      ; call occurs [#FD$$TOL] ; [] |432| 
TMS320C2000 Assembler PC v6.2.5 Wed Nov 22 14:48:16 2017

Tools Copyright (c) 1996-2014 Texas Instruments Incorporated
C:\Users\wmj\AppData\Local\Temp\1257612                              PAGE   18

     864 00000074 8F00          MOVL      XAR4,#16777           ; [CPU_U] |432| 
         00000075 4189 
     865 00000076 A842          MOVL      *-SP[2],XAR4          ; [CPU_] |432| 
     866              $C$DW$74        .dwtag  DW_TAG_TI_branch
     867                      .dwattr $C$DW$74, DW_AT_low_pc(0x00)
     868                      .dwattr $C$DW$74, DW_AT_name("L$$DIV")
     869                      .dwattr $C$DW$74, DW_AT_TI_call
     870 00000077 00C0!         FFC       XAR7,#L$$DIV          ; [CPU_] |432| 
         00000078 0000 
     871                      ; call occurs [#L$$DIV] ; [] |432| 
     872 00000079 8AE1          MOVL      XAR4,*+XAR1[4]        ; [CPU_] |432| 
     873 0000007a 96CC          MOV       *+XAR4[1],AL          ; [CPU_] |432| 
     874                      .dwpsn  file "D:/BM1000_v1.1/sw/drivers/drvic/fsm.h",line 433,column 3,is_stmt
     875 0000007b 8AE1          MOVL      XAR4,*+XAR1[4]        ; [CPU_] |433| 
     876 0000007c D02E          MOVB      XAR0,#46              ; [CPU_] |433| 
     877 0000007d 9244          MOV       AL,*-SP[4]            ; [CPU_] |433| 
     878 0000007e 9694          MOV       *+XAR4[AR0],AL        ; [CPU_] |433| 
     879                      .dwpsn  file "D:/BM1000_v1.1/sw/drivers/drvic/fsm.h",line 434,column 3,is_stmt
     880 0000007f 9243          MOV       AL,*-SP[3]            ; [CPU_] |434| 
     881                      .dwpsn  file "D:/BM1000_v1.1/sw/drivers/drvic/fsm.h",line 436,column 3,is_stmt
     882 00000080 FFEF          B         $C$L13,UNC            ; [CPU_] |436| 
         00000081 0166 
     883                      ; branch occurs ; [] |436| 
     884 00000082       $C$L5:    
     885                      .dwpsn  file "D:/BM1000_v1.1/sw/drivers/drvic/fsm.h",line 427,column 1,is_stmt
     886 00000082 5CAD          MOVZ      AR4,SP                ; [CPU_U] |427| 
     887 00000083 76C0+         MOVL      XAR7,#_JM_FSM_MotorFunc+42 ; [CPU_U] |427| 
         00000084 002A 
     888 00000085 DC8E          SUBB      XAR4,#14              ; [CPU_U] |427| 
     889 00000086 F605          RPT       #5
     890 00000087 2484  ||     PREAD     *XAR4++,*XAR7         ; [CPU_] |427| 
     891                      .dwpsn  file "D:/BM1000_v1.1/sw/drivers/drvic/fsm.h",line 430,column 3,is_stmt
     892 00000088 8AE1          MOVL      XAR4,*+XAR1[4]        ; [CPU_] |430| 
     893 00000089 D01F          MOVB      XAR0,#31              ; [CPU_] |430| 
     894 0000008a 924B          MOV       AL,*-SP[11]           ; [CPU_] |430| 
     895 0000008b 9694          MOV       *+XAR4[AR0],AL        ; [CPU_] |430| 
     896                      .dwpsn  file "D:/BM1000_v1.1/sw/drivers/drvic/fsm.h",line 431,column 3,is_stmt
     897 0000008c 8AE1          MOVL      XAR4,*+XAR1[4]        ; [CPU_] |431| 
     898 0000008d D010          MOVB      XAR0,#16              ; [CPU_] |431| 
     899 0000008e 924C          MOV       AL,*-SP[12]           ; [CPU_] |431| 
     900 0000008f 9694          MOV       *+XAR4[AR0],AL        ; [CPU_] |431| 
     901                      .dwpsn  file "D:/BM1000_v1.1/sw/drivers/drvic/fsm.h",line 432,column 3,is_stmt
     902 00000090 064E          MOVL      ACC,*-SP[14]          ; [CPU_] |432| 
     903 00000091 88AD          MOVZ      AR6,SP                ; [CPU_U] |432| 
     904 00000092 DEC0          SUBB      XAR6,#64              ; [CPU_U] |432| 
     905              $C$DW$75        .dwtag  DW_TAG_TI_branch
     906                      .dwattr $C$DW$75, DW_AT_low_pc(0x00)
     907                      .dwattr $C$DW$75, DW_AT_name("FS$$TOFD")
     908                      .dwattr $C$DW$75, DW_AT_TI_call
     909 00000093 7640!         LCR       #FS$$TOFD             ; [CPU_] |432| 
         00000094 0000 
     910                      ; call occurs [#FS$$TOFD] ; [] |432| 
     911 00000095 5CAD          MOVZ      AR4,SP                ; [CPU_U] |432| 
     912 00000096 88AD          MOVZ      AR6,SP                ; [CPU_U] |432| 
     913 00000097 8F40+         MOVL      XAR5,#$C$FL1          ; [CPU_U] |432| 
TMS320C2000 Assembler PC v6.2.5 Wed Nov 22 14:48:16 2017

Tools Copyright (c) 1996-2014 Texas Instruments Incorporated
C:\Users\wmj\AppData\Local\Temp\1257612                              PAGE   19

         00000098 0000 
     914 00000099 DCC0          SUBB      XAR4,#64              ; [CPU_U] |432| 
     915 0000009a DEBC          SUBB      XAR6,#60              ; [CPU_U] |432| 
     916              $C$DW$76        .dwtag  DW_TAG_TI_branch
     917                      .dwattr $C$DW$76, DW_AT_low_pc(0x00)
     918                      .dwattr $C$DW$76, DW_AT_name("FD$$MPY")
     919                      .dwattr $C$DW$76, DW_AT_TI_call
     920 0000009b 7640!         LCR       #FD$$MPY              ; [CPU_] |432| 
         0000009c 0000 
     921                      ; call occurs [#FD$$MPY] ; [] |432| 
     922 0000009d 5CAD          MOVZ      AR4,SP                ; [CPU_U] |432| 
     923 0000009e DCBC          SUBB      XAR4,#60              ; [CPU_U] |432| 
     924              $C$DW$77        .dwtag  DW_TAG_TI_branch
     925                      .dwattr $C$DW$77, DW_AT_low_pc(0x00)
     926                      .dwattr $C$DW$77, DW_AT_name("FD$$TOL")
     927                      .dwattr $C$DW$77, DW_AT_TI_call
     928 0000009f 7640!         LCR       #FD$$TOL              ; [CPU_] |432| 
         000000a0 0000 
     929                      ; call occurs [#FD$$TOL] ; [] |432| 
     930 000000a1 8F00          MOVL      XAR4,#16777           ; [CPU_U] |432| 
         000000a2 4189 
     931 000000a3 A842          MOVL      *-SP[2],XAR4          ; [CPU_] |432| 
     932              $C$DW$78        .dwtag  DW_TAG_TI_branch
     933                      .dwattr $C$DW$78, DW_AT_low_pc(0x00)
     934                      .dwattr $C$DW$78, DW_AT_name("L$$DIV")
     935                      .dwattr $C$DW$78, DW_AT_TI_call
     936 000000a4 00C0!         FFC       XAR7,#L$$DIV          ; [CPU_] |432| 
         000000a5 0000 
     937                      ; call occurs [#L$$DIV] ; [] |432| 
     938 000000a6 8AE1          MOVL      XAR4,*+XAR1[4]        ; [CPU_] |432| 
     939 000000a7 96CC          MOV       *+XAR4[1],AL          ; [CPU_] |432| 
     940                      .dwpsn  file "D:/BM1000_v1.1/sw/drivers/drvic/fsm.h",line 433,column 3,is_stmt
     941 000000a8 8AE1          MOVL      XAR4,*+XAR1[4]        ; [CPU_] |433| 
     942 000000a9 D02E          MOVB      XAR0,#46              ; [CPU_] |433| 
     943 000000aa 924A          MOV       AL,*-SP[10]           ; [CPU_] |433| 
     944 000000ab 9694          MOV       *+XAR4[AR0],AL        ; [CPU_] |433| 
     945                      .dwpsn  file "D:/BM1000_v1.1/sw/drivers/drvic/fsm.h",line 434,column 3,is_stmt
     946 000000ac 9249          MOV       AL,*-SP[9]            ; [CPU_] |434| 
     947                      .dwpsn  file "D:/BM1000_v1.1/sw/drivers/drvic/fsm.h",line 436,column 3,is_stmt
     948 000000ad FFEF          B         $C$L13,UNC            ; [CPU_] |436| 
         000000ae 0139 
     949                      ; branch occurs ; [] |436| 
     950 000000af       $C$L6:    
     951                      .dwpsn  file "D:/BM1000_v1.1/sw/drivers/drvic/fsm.h",line 427,column 1,is_stmt
     952 000000af 5CAD          MOVZ      AR4,SP                ; [CPU_U] |427| 
     953 000000b0 76C0+         MOVL      XAR7,#_JM_FSM_MotorFunc+36 ; [CPU_U] |427| 
         000000b1 0024 
     954 000000b2 DC94          SUBB      XAR4,#20              ; [CPU_U] |427| 
     955 000000b3 F605          RPT       #5
     956 000000b4 2484  ||     PREAD     *XAR4++,*XAR7         ; [CPU_] |427| 
     957                      .dwpsn  file "D:/BM1000_v1.1/sw/drivers/drvic/fsm.h",line 430,column 3,is_stmt
     958 000000b5 8AE1          MOVL      XAR4,*+XAR1[4]        ; [CPU_] |430| 
     959 000000b6 D01F          MOVB      XAR0,#31              ; [CPU_] |430| 
     960 000000b7 9251          MOV       AL,*-SP[17]           ; [CPU_] |430| 
     961 000000b8 9694          MOV       *+XAR4[AR0],AL        ; [CPU_] |430| 
TMS320C2000 Assembler PC v6.2.5 Wed Nov 22 14:48:16 2017

Tools Copyright (c) 1996-2014 Texas Instruments Incorporated
C:\Users\wmj\AppData\Local\Temp\1257612                              PAGE   20

     962                      .dwpsn  file "D:/BM1000_v1.1/sw/drivers/drvic/fsm.h",line 431,column 3,is_stmt
     963 000000b9 8AE1          MOVL      XAR4,*+XAR1[4]        ; [CPU_] |431| 
     964 000000ba D010          MOVB      XAR0,#16              ; [CPU_] |431| 
     965 000000bb 9252          MOV       AL,*-SP[18]           ; [CPU_] |431| 
     966 000000bc 9694          MOV       *+XAR4[AR0],AL        ; [CPU_] |431| 
     967                      .dwpsn  file "D:/BM1000_v1.1/sw/drivers/drvic/fsm.h",line 432,column 3,is_stmt
     968 000000bd 0654          MOVL      ACC,*-SP[20]          ; [CPU_] |432| 
     969 000000be 88AD          MOVZ      AR6,SP                ; [CPU_U] |432| 
     970 000000bf DEC0          SUBB      XAR6,#64              ; [CPU_U] |432| 
     971              $C$DW$79        .dwtag  DW_TAG_TI_branch
     972                      .dwattr $C$DW$79, DW_AT_low_pc(0x00)
     973                      .dwattr $C$DW$79, DW_AT_name("FS$$TOFD")
     974                      .dwattr $C$DW$79, DW_AT_TI_call
     975 000000c0 7640!         LCR       #FS$$TOFD             ; [CPU_] |432| 
         000000c1 0000 
     976                      ; call occurs [#FS$$TOFD] ; [] |432| 
     977 000000c2 5CAD          MOVZ      AR4,SP                ; [CPU_U] |432| 
     978 000000c3 88AD          MOVZ      AR6,SP                ; [CPU_U] |432| 
     979 000000c4 8F40+         MOVL      XAR5,#$C$FL1          ; [CPU_U] |432| 
         000000c5 0000 
     980 000000c6 DCC0          SUBB      XAR4,#64              ; [CPU_U] |432| 
     981 000000c7 DEBC          SUBB      XAR6,#60              ; [CPU_U] |432| 
     982              $C$DW$80        .dwtag  DW_TAG_TI_branch
     983                      .dwattr $C$DW$80, DW_AT_low_pc(0x00)
     984                      .dwattr $C$DW$80, DW_AT_name("FD$$MPY")
     985                      .dwattr $C$DW$80, DW_AT_TI_call
     986 000000c8 7640!         LCR       #FD$$MPY              ; [CPU_] |432| 
         000000c9 0000 
     987                      ; call occurs [#FD$$MPY] ; [] |432| 
     988 000000ca 5CAD          MOVZ      AR4,SP                ; [CPU_U] |432| 
     989 000000cb DCBC          SUBB      XAR4,#60              ; [CPU_U] |432| 
     990              $C$DW$81        .dwtag  DW_TAG_TI_branch
     991                      .dwattr $C$DW$81, DW_AT_low_pc(0x00)
     992                      .dwattr $C$DW$81, DW_AT_name("FD$$TOL")
     993                      .dwattr $C$DW$81, DW_AT_TI_call
     994 000000cc 7640!         LCR       #FD$$TOL              ; [CPU_] |432| 
         000000cd 0000 
     995                      ; call occurs [#FD$$TOL] ; [] |432| 
     996 000000ce 8F00          MOVL      XAR4,#16777           ; [CPU_U] |432| 
         000000cf 4189 
     997 000000d0 A842          MOVL      *-SP[2],XAR4          ; [CPU_] |432| 
     998              $C$DW$82        .dwtag  DW_TAG_TI_branch
     999                      .dwattr $C$DW$82, DW_AT_low_pc(0x00)
    1000                      .dwattr $C$DW$82, DW_AT_name("L$$DIV")
    1001                      .dwattr $C$DW$82, DW_AT_TI_call
    1002 000000d1 00C0!         FFC       XAR7,#L$$DIV          ; [CPU_] |432| 
         000000d2 0000 
    1003                      ; call occurs [#L$$DIV] ; [] |432| 
    1004 000000d3 8AE1          MOVL      XAR4,*+XAR1[4]        ; [CPU_] |432| 
    1005 000000d4 96CC          MOV       *+XAR4[1],AL          ; [CPU_] |432| 
    1006                      .dwpsn  file "D:/BM1000_v1.1/sw/drivers/drvic/fsm.h",line 433,column 3,is_stmt
    1007 000000d5 8AE1          MOVL      XAR4,*+XAR1[4]        ; [CPU_] |433| 
    1008 000000d6 D02E          MOVB      XAR0,#46              ; [CPU_] |433| 
    1009 000000d7 9250          MOV       AL,*-SP[16]           ; [CPU_] |433| 
    1010 000000d8 9694          MOV       *+XAR4[AR0],AL        ; [CPU_] |433| 
TMS320C2000 Assembler PC v6.2.5 Wed Nov 22 14:48:16 2017

Tools Copyright (c) 1996-2014 Texas Instruments Incorporated
C:\Users\wmj\AppData\Local\Temp\1257612                              PAGE   21

    1011                      .dwpsn  file "D:/BM1000_v1.1/sw/drivers/drvic/fsm.h",line 434,column 3,is_stmt
    1012 000000d9 924F          MOV       AL,*-SP[15]           ; [CPU_] |434| 
    1013                      .dwpsn  file "D:/BM1000_v1.1/sw/drivers/drvic/fsm.h",line 436,column 3,is_stmt
    1014 000000da FFEF          B         $C$L13,UNC            ; [CPU_] |436| 
         000000db 010C 
    1015                      ; branch occurs ; [] |436| 
    1016 000000dc       $C$L7:    
    1017                      .dwpsn  file "D:/BM1000_v1.1/sw/drivers/drvic/fsm.h",line 427,column 1,is_stmt
    1018 000000dc 5CAD          MOVZ      AR4,SP                ; [CPU_U] |427| 
    1019 000000dd 76C0+         MOVL      XAR7,#_JM_FSM_MotorFunc+30 ; [CPU_U] |427| 
         000000de 001E 
    1020 000000df DC9A          SUBB      XAR4,#26              ; [CPU_U] |427| 
    1021 000000e0 F605          RPT       #5
    1022 000000e1 2484  ||     PREAD     *XAR4++,*XAR7         ; [CPU_] |427| 
    1023                      .dwpsn  file "D:/BM1000_v1.1/sw/drivers/drvic/fsm.h",line 430,column 3,is_stmt
    1024 000000e2 8AE1          MOVL      XAR4,*+XAR1[4]        ; [CPU_] |430| 
    1025 000000e3 D01F          MOVB      XAR0,#31              ; [CPU_] |430| 
    1026 000000e4 9257          MOV       AL,*-SP[23]           ; [CPU_] |430| 
    1027 000000e5 9694          MOV       *+XAR4[AR0],AL        ; [CPU_] |430| 
    1028                      .dwpsn  file "D:/BM1000_v1.1/sw/drivers/drvic/fsm.h",line 431,column 3,is_stmt
    1029 000000e6 8AE1          MOVL      XAR4,*+XAR1[4]        ; [CPU_] |431| 
    1030 000000e7 D010          MOVB      XAR0,#16              ; [CPU_] |431| 
    1031 000000e8 9258          MOV       AL,*-SP[24]           ; [CPU_] |431| 
    1032 000000e9 9694          MOV       *+XAR4[AR0],AL        ; [CPU_] |431| 
    1033                      .dwpsn  file "D:/BM1000_v1.1/sw/drivers/drvic/fsm.h",line 432,column 3,is_stmt
    1034 000000ea 065A          MOVL      ACC,*-SP[26]          ; [CPU_] |432| 
    1035 000000eb 88AD          MOVZ      AR6,SP                ; [CPU_U] |432| 
    1036 000000ec DEC0          SUBB      XAR6,#64              ; [CPU_U] |432| 
    1037              $C$DW$83        .dwtag  DW_TAG_TI_branch
    1038                      .dwattr $C$DW$83, DW_AT_low_pc(0x00)
    1039                      .dwattr $C$DW$83, DW_AT_name("FS$$TOFD")
    1040                      .dwattr $C$DW$83, DW_AT_TI_call
    1041 000000ed 7640!         LCR       #FS$$TOFD             ; [CPU_] |432| 
         000000ee 0000 
    1042                      ; call occurs [#FS$$TOFD] ; [] |432| 
    1043 000000ef 5CAD          MOVZ      AR4,SP                ; [CPU_U] |432| 
    1044 000000f0 88AD          MOVZ      AR6,SP                ; [CPU_U] |432| 
    1045 000000f1 8F40+         MOVL      XAR5,#$C$FL1          ; [CPU_U] |432| 
         000000f2 0000 
    1046 000000f3 DCC0          SUBB      XAR4,#64              ; [CPU_U] |432| 
    1047 000000f4 DEBC          SUBB      XAR6,#60              ; [CPU_U] |432| 
    1048              $C$DW$84        .dwtag  DW_TAG_TI_branch
    1049                      .dwattr $C$DW$84, DW_AT_low_pc(0x00)
    1050                      .dwattr $C$DW$84, DW_AT_name("FD$$MPY")
    1051                      .dwattr $C$DW$84, DW_AT_TI_call
    1052 000000f5 7640!         LCR       #FD$$MPY              ; [CPU_] |432| 
         000000f6 0000 
    1053                      ; call occurs [#FD$$MPY] ; [] |432| 
    1054 000000f7 5CAD          MOVZ      AR4,SP                ; [CPU_U] |432| 
    1055 000000f8 DCBC          SUBB      XAR4,#60              ; [CPU_U] |432| 
    1056              $C$DW$85        .dwtag  DW_TAG_TI_branch
    1057                      .dwattr $C$DW$85, DW_AT_low_pc(0x00)
    1058                      .dwattr $C$DW$85, DW_AT_name("FD$$TOL")
    1059                      .dwattr $C$DW$85, DW_AT_TI_call
    1060 000000f9 7640!         LCR       #FD$$TOL              ; [CPU_] |432| 
TMS320C2000 Assembler PC v6.2.5 Wed Nov 22 14:48:16 2017

Tools Copyright (c) 1996-2014 Texas Instruments Incorporated
C:\Users\wmj\AppData\Local\Temp\1257612                              PAGE   22

         000000fa 0000 
    1061                      ; call occurs [#FD$$TOL] ; [] |432| 
    1062 000000fb 8F00          MOVL      XAR4,#16777           ; [CPU_U] |432| 
         000000fc 4189 
    1063 000000fd A842          MOVL      *-SP[2],XAR4          ; [CPU_] |432| 
    1064              $C$DW$86        .dwtag  DW_TAG_TI_branch
    1065                      .dwattr $C$DW$86, DW_AT_low_pc(0x00)
    1066                      .dwattr $C$DW$86, DW_AT_name("L$$DIV")
    1067                      .dwattr $C$DW$86, DW_AT_TI_call
    1068 000000fe 00C0!         FFC       XAR7,#L$$DIV          ; [CPU_] |432| 
         000000ff 0000 
    1069                      ; call occurs [#L$$DIV] ; [] |432| 
    1070 00000100 8AE1          MOVL      XAR4,*+XAR1[4]        ; [CPU_] |432| 
    1071 00000101 96CC          MOV       *+XAR4[1],AL          ; [CPU_] |432| 
    1072                      .dwpsn  file "D:/BM1000_v1.1/sw/drivers/drvic/fsm.h",line 433,column 3,is_stmt
    1073 00000102 8AE1          MOVL      XAR4,*+XAR1[4]        ; [CPU_] |433| 
    1074 00000103 D02E          MOVB      XAR0,#46              ; [CPU_] |433| 
    1075 00000104 9256          MOV       AL,*-SP[22]           ; [CPU_] |433| 
    1076 00000105 9694          MOV       *+XAR4[AR0],AL        ; [CPU_] |433| 
    1077                      .dwpsn  file "D:/BM1000_v1.1/sw/drivers/drvic/fsm.h",line 434,column 3,is_stmt
    1078 00000106 9255          MOV       AL,*-SP[21]           ; [CPU_] |434| 
    1079                      .dwpsn  file "D:/BM1000_v1.1/sw/drivers/drvic/fsm.h",line 436,column 3,is_stmt
    1080 00000107 FFEF          B         $C$L13,UNC            ; [CPU_] |436| 
         00000108 00DF 
    1081                      ; branch occurs ; [] |436| 
    1082 00000109       $C$L8:    
    1083                      .dwpsn  file "D:/BM1000_v1.1/sw/drivers/drvic/fsm.h",line 427,column 1,is_stmt
    1084 00000109 5CAD          MOVZ      AR4,SP                ; [CPU_U] |427| 
    1085 0000010a 76C0+         MOVL      XAR7,#_JM_FSM_MotorFunc+24 ; [CPU_U] |427| 
         0000010b 0018 
    1086 0000010c DCA0          SUBB      XAR4,#32              ; [CPU_U] |427| 
    1087 0000010d F605          RPT       #5
    1088 0000010e 2484  ||     PREAD     *XAR4++,*XAR7         ; [CPU_] |427| 
    1089                      .dwpsn  file "D:/BM1000_v1.1/sw/drivers/drvic/fsm.h",line 430,column 3,is_stmt
    1090 0000010f 8AE1          MOVL      XAR4,*+XAR1[4]        ; [CPU_] |430| 
    1091 00000110 D01F          MOVB      XAR0,#31              ; [CPU_] |430| 
    1092 00000111 925D          MOV       AL,*-SP[29]           ; [CPU_] |430| 
    1093 00000112 9694          MOV       *+XAR4[AR0],AL        ; [CPU_] |430| 
    1094                      .dwpsn  file "D:/BM1000_v1.1/sw/drivers/drvic/fsm.h",line 431,column 3,is_stmt
    1095 00000113 8AE1          MOVL      XAR4,*+XAR1[4]        ; [CPU_] |431| 
    1096 00000114 D010          MOVB      XAR0,#16              ; [CPU_] |431| 
    1097 00000115 925E          MOV       AL,*-SP[30]           ; [CPU_] |431| 
    1098 00000116 9694          MOV       *+XAR4[AR0],AL        ; [CPU_] |431| 
    1099                      .dwpsn  file "D:/BM1000_v1.1/sw/drivers/drvic/fsm.h",line 432,column 3,is_stmt
    1100 00000117 0660          MOVL      ACC,*-SP[32]          ; [CPU_] |432| 
    1101 00000118 88AD          MOVZ      AR6,SP                ; [CPU_U] |432| 
    1102 00000119 DEC0          SUBB      XAR6,#64              ; [CPU_U] |432| 
    1103              $C$DW$87        .dwtag  DW_TAG_TI_branch
    1104                      .dwattr $C$DW$87, DW_AT_low_pc(0x00)
    1105                      .dwattr $C$DW$87, DW_AT_name("FS$$TOFD")
    1106                      .dwattr $C$DW$87, DW_AT_TI_call
    1107 0000011a 7640!         LCR       #FS$$TOFD             ; [CPU_] |432| 
         0000011b 0000 
    1108                      ; call occurs [#FS$$TOFD] ; [] |432| 
    1109 0000011c 5CAD          MOVZ      AR4,SP                ; [CPU_U] |432| 
TMS320C2000 Assembler PC v6.2.5 Wed Nov 22 14:48:16 2017

Tools Copyright (c) 1996-2014 Texas Instruments Incorporated
C:\Users\wmj\AppData\Local\Temp\1257612                              PAGE   23

    1110 0000011d 88AD          MOVZ      AR6,SP                ; [CPU_U] |432| 
    1111 0000011e 8F40+         MOVL      XAR5,#$C$FL1          ; [CPU_U] |432| 
         0000011f 0000 
    1112 00000120 DCC0          SUBB      XAR4,#64              ; [CPU_U] |432| 
    1113 00000121 DEBC          SUBB      XAR6,#60              ; [CPU_U] |432| 
    1114              $C$DW$88        .dwtag  DW_TAG_TI_branch
    1115                      .dwattr $C$DW$88, DW_AT_low_pc(0x00)
    1116                      .dwattr $C$DW$88, DW_AT_name("FD$$MPY")
    1117                      .dwattr $C$DW$88, DW_AT_TI_call
    1118 00000122 7640!         LCR       #FD$$MPY              ; [CPU_] |432| 
         00000123 0000 
    1119                      ; call occurs [#FD$$MPY] ; [] |432| 
    1120 00000124 5CAD          MOVZ      AR4,SP                ; [CPU_U] |432| 
    1121 00000125 DCBC          SUBB      XAR4,#60              ; [CPU_U] |432| 
    1122              $C$DW$89        .dwtag  DW_TAG_TI_branch
    1123                      .dwattr $C$DW$89, DW_AT_low_pc(0x00)
    1124                      .dwattr $C$DW$89, DW_AT_name("FD$$TOL")
    1125                      .dwattr $C$DW$89, DW_AT_TI_call
    1126 00000126 7640!         LCR       #FD$$TOL              ; [CPU_] |432| 
         00000127 0000 
    1127                      ; call occurs [#FD$$TOL] ; [] |432| 
    1128 00000128 8F00          MOVL      XAR4,#16777           ; [CPU_U] |432| 
         00000129 4189 
    1129 0000012a A842          MOVL      *-SP[2],XAR4          ; [CPU_] |432| 
    1130              $C$DW$90        .dwtag  DW_TAG_TI_branch
    1131                      .dwattr $C$DW$90, DW_AT_low_pc(0x00)
    1132                      .dwattr $C$DW$90, DW_AT_name("L$$DIV")
    1133                      .dwattr $C$DW$90, DW_AT_TI_call
    1134 0000012b 00C0!         FFC       XAR7,#L$$DIV          ; [CPU_] |432| 
         0000012c 0000 
    1135                      ; call occurs [#L$$DIV] ; [] |432| 
    1136 0000012d 8AE1          MOVL      XAR4,*+XAR1[4]        ; [CPU_] |432| 
    1137 0000012e 96CC          MOV       *+XAR4[1],AL          ; [CPU_] |432| 
    1138                      .dwpsn  file "D:/BM1000_v1.1/sw/drivers/drvic/fsm.h",line 433,column 3,is_stmt
    1139 0000012f 8AE1          MOVL      XAR4,*+XAR1[4]        ; [CPU_] |433| 
    1140 00000130 D02E          MOVB      XAR0,#46              ; [CPU_] |433| 
    1141 00000131 925C          MOV       AL,*-SP[28]           ; [CPU_] |433| 
    1142 00000132 9694          MOV       *+XAR4[AR0],AL        ; [CPU_] |433| 
    1143                      .dwpsn  file "D:/BM1000_v1.1/sw/drivers/drvic/fsm.h",line 434,column 3,is_stmt
    1144 00000133 925B          MOV       AL,*-SP[27]           ; [CPU_] |434| 
    1145                      .dwpsn  file "D:/BM1000_v1.1/sw/drivers/drvic/fsm.h",line 436,column 3,is_stmt
    1146 00000134 FFEF          B         $C$L13,UNC            ; [CPU_] |436| 
         00000135 00B2 
    1147                      ; branch occurs ; [] |436| 
    1148 00000136       $C$L9:    
    1149                      .dwpsn  file "D:/BM1000_v1.1/sw/drivers/drvic/fsm.h",line 427,column 1,is_stmt
    1150 00000136 5CAD          MOVZ      AR4,SP                ; [CPU_U] |427| 
    1151 00000137 76C0+         MOVL      XAR7,#_JM_FSM_MotorFunc+18 ; [CPU_U] |427| 
         00000138 0012 
    1152 00000139 DCA6          SUBB      XAR4,#38              ; [CPU_U] |427| 
    1153 0000013a F605          RPT       #5
    1154 0000013b 2484  ||     PREAD     *XAR4++,*XAR7         ; [CPU_] |427| 
    1155                      .dwpsn  file "D:/BM1000_v1.1/sw/drivers/drvic/fsm.h",line 430,column 3,is_stmt
    1156 0000013c 8AE1          MOVL      XAR4,*+XAR1[4]        ; [CPU_] |430| 
    1157 0000013d D01F          MOVB      XAR0,#31              ; [CPU_] |430| 
TMS320C2000 Assembler PC v6.2.5 Wed Nov 22 14:48:16 2017

Tools Copyright (c) 1996-2014 Texas Instruments Incorporated
C:\Users\wmj\AppData\Local\Temp\1257612                              PAGE   24

    1158 0000013e 9263          MOV       AL,*-SP[35]           ; [CPU_] |430| 
    1159 0000013f 9694          MOV       *+XAR4[AR0],AL        ; [CPU_] |430| 
    1160                      .dwpsn  file "D:/BM1000_v1.1/sw/drivers/drvic/fsm.h",line 431,column 3,is_stmt
    1161 00000140 8AE1          MOVL      XAR4,*+XAR1[4]        ; [CPU_] |431| 
    1162 00000141 D010          MOVB      XAR0,#16              ; [CPU_] |431| 
    1163 00000142 9264          MOV       AL,*-SP[36]           ; [CPU_] |431| 
    1164 00000143 9694          MOV       *+XAR4[AR0],AL        ; [CPU_] |431| 
    1165                      .dwpsn  file "D:/BM1000_v1.1/sw/drivers/drvic/fsm.h",line 432,column 3,is_stmt
    1166 00000144 0666          MOVL      ACC,*-SP[38]          ; [CPU_] |432| 
    1167 00000145 88AD          MOVZ      AR6,SP                ; [CPU_U] |432| 
    1168 00000146 DEC0          SUBB      XAR6,#64              ; [CPU_U] |432| 
    1169              $C$DW$91        .dwtag  DW_TAG_TI_branch
    1170                      .dwattr $C$DW$91, DW_AT_low_pc(0x00)
    1171                      .dwattr $C$DW$91, DW_AT_name("FS$$TOFD")
    1172                      .dwattr $C$DW$91, DW_AT_TI_call
    1173 00000147 7640!         LCR       #FS$$TOFD             ; [CPU_] |432| 
         00000148 0000 
    1174                      ; call occurs [#FS$$TOFD] ; [] |432| 
    1175 00000149 5CAD          MOVZ      AR4,SP                ; [CPU_U] |432| 
    1176 0000014a 88AD          MOVZ      AR6,SP                ; [CPU_U] |432| 
    1177 0000014b 8F40+         MOVL      XAR5,#$C$FL1          ; [CPU_U] |432| 
         0000014c 0000 
    1178 0000014d DCC0          SUBB      XAR4,#64              ; [CPU_U] |432| 
    1179 0000014e DEBC          SUBB      XAR6,#60              ; [CPU_U] |432| 
    1180              $C$DW$92        .dwtag  DW_TAG_TI_branch
    1181                      .dwattr $C$DW$92, DW_AT_low_pc(0x00)
    1182                      .dwattr $C$DW$92, DW_AT_name("FD$$MPY")
    1183                      .dwattr $C$DW$92, DW_AT_TI_call
    1184 0000014f 7640!         LCR       #FD$$MPY              ; [CPU_] |432| 
         00000150 0000 
    1185                      ; call occurs [#FD$$MPY] ; [] |432| 
    1186 00000151 5CAD          MOVZ      AR4,SP                ; [CPU_U] |432| 
    1187 00000152 DCBC          SUBB      XAR4,#60              ; [CPU_U] |432| 
    1188              $C$DW$93        .dwtag  DW_TAG_TI_branch
    1189                      .dwattr $C$DW$93, DW_AT_low_pc(0x00)
    1190                      .dwattr $C$DW$93, DW_AT_name("FD$$TOL")
    1191                      .dwattr $C$DW$93, DW_AT_TI_call
    1192 00000153 7640!         LCR       #FD$$TOL              ; [CPU_] |432| 
         00000154 0000 
    1193                      ; call occurs [#FD$$TOL] ; [] |432| 
    1194 00000155 8F00          MOVL      XAR4,#16777           ; [CPU_U] |432| 
         00000156 4189 
    1195 00000157 A842          MOVL      *-SP[2],XAR4          ; [CPU_] |432| 
    1196              $C$DW$94        .dwtag  DW_TAG_TI_branch
    1197                      .dwattr $C$DW$94, DW_AT_low_pc(0x00)
    1198                      .dwattr $C$DW$94, DW_AT_name("L$$DIV")
    1199                      .dwattr $C$DW$94, DW_AT_TI_call
    1200 00000158 00C0!         FFC       XAR7,#L$$DIV          ; [CPU_] |432| 
         00000159 0000 
    1201                      ; call occurs [#L$$DIV] ; [] |432| 
    1202 0000015a 8AE1          MOVL      XAR4,*+XAR1[4]        ; [CPU_] |432| 
    1203 0000015b 96CC          MOV       *+XAR4[1],AL          ; [CPU_] |432| 
    1204                      .dwpsn  file "D:/BM1000_v1.1/sw/drivers/drvic/fsm.h",line 433,column 3,is_stmt
    1205 0000015c 8AE1          MOVL      XAR4,*+XAR1[4]        ; [CPU_] |433| 
    1206 0000015d D02E          MOVB      XAR0,#46              ; [CPU_] |433| 
TMS320C2000 Assembler PC v6.2.5 Wed Nov 22 14:48:16 2017

Tools Copyright (c) 1996-2014 Texas Instruments Incorporated
C:\Users\wmj\AppData\Local\Temp\1257612                              PAGE   25

    1207 0000015e 9262          MOV       AL,*-SP[34]           ; [CPU_] |433| 
    1208 0000015f 9694          MOV       *+XAR4[AR0],AL        ; [CPU_] |433| 
    1209                      .dwpsn  file "D:/BM1000_v1.1/sw/drivers/drvic/fsm.h",line 434,column 3,is_stmt
    1210 00000160 9261          MOV       AL,*-SP[33]           ; [CPU_] |434| 
    1211                      .dwpsn  file "D:/BM1000_v1.1/sw/drivers/drvic/fsm.h",line 436,column 3,is_stmt
    1212 00000161 FFEF          B         $C$L13,UNC            ; [CPU_] |436| 
         00000162 0085 
    1213                      ; branch occurs ; [] |436| 
    1214 00000163       $C$L10:    
    1215                      .dwpsn  file "D:/BM1000_v1.1/sw/drivers/drvic/fsm.h",line 427,column 1,is_stmt
    1216 00000163 5CAD          MOVZ      AR4,SP                ; [CPU_U] |427| 
    1217 00000164 76C0+         MOVL      XAR7,#_JM_FSM_MotorFunc+12 ; [CPU_U] |427| 
         00000165 000C 
    1218 00000166 DCAC          SUBB      XAR4,#44              ; [CPU_U] |427| 
    1219 00000167 F605          RPT       #5
    1220 00000168 2484  ||     PREAD     *XAR4++,*XAR7         ; [CPU_] |427| 
    1221                      .dwpsn  file "D:/BM1000_v1.1/sw/drivers/drvic/fsm.h",line 430,column 3,is_stmt
    1222 00000169 8AE1          MOVL      XAR4,*+XAR1[4]        ; [CPU_] |430| 
    1223 0000016a D01F          MOVB      XAR0,#31              ; [CPU_] |430| 
    1224 0000016b 9269          MOV       AL,*-SP[41]           ; [CPU_] |430| 
    1225 0000016c 9694          MOV       *+XAR4[AR0],AL        ; [CPU_] |430| 
    1226                      .dwpsn  file "D:/BM1000_v1.1/sw/drivers/drvic/fsm.h",line 431,column 3,is_stmt
    1227 0000016d 8AE1          MOVL      XAR4,*+XAR1[4]        ; [CPU_] |431| 
    1228 0000016e D010          MOVB      XAR0,#16              ; [CPU_] |431| 
    1229 0000016f 926A          MOV       AL,*-SP[42]           ; [CPU_] |431| 
    1230 00000170 9694          MOV       *+XAR4[AR0],AL        ; [CPU_] |431| 
    1231                      .dwpsn  file "D:/BM1000_v1.1/sw/drivers/drvic/fsm.h",line 432,column 3,is_stmt
    1232 00000171 066C          MOVL      ACC,*-SP[44]          ; [CPU_] |432| 
    1233 00000172 88AD          MOVZ      AR6,SP                ; [CPU_U] |432| 
    1234 00000173 DEC0          SUBB      XAR6,#64              ; [CPU_U] |432| 
    1235              $C$DW$95        .dwtag  DW_TAG_TI_branch
    1236                      .dwattr $C$DW$95, DW_AT_low_pc(0x00)
    1237                      .dwattr $C$DW$95, DW_AT_name("FS$$TOFD")
    1238                      .dwattr $C$DW$95, DW_AT_TI_call
    1239 00000174 7640!         LCR       #FS$$TOFD             ; [CPU_] |432| 
         00000175 0000 
    1240                      ; call occurs [#FS$$TOFD] ; [] |432| 
    1241 00000176 5CAD          MOVZ      AR4,SP                ; [CPU_U] |432| 
    1242 00000177 88AD          MOVZ      AR6,SP                ; [CPU_U] |432| 
    1243 00000178 8F40+         MOVL      XAR5,#$C$FL1          ; [CPU_U] |432| 
         00000179 0000 
    1244 0000017a DCC0          SUBB      XAR4,#64              ; [CPU_U] |432| 
    1245 0000017b DEBC          SUBB      XAR6,#60              ; [CPU_U] |432| 
    1246              $C$DW$96        .dwtag  DW_TAG_TI_branch
    1247                      .dwattr $C$DW$96, DW_AT_low_pc(0x00)
    1248                      .dwattr $C$DW$96, DW_AT_name("FD$$MPY")
    1249                      .dwattr $C$DW$96, DW_AT_TI_call
    1250 0000017c 7640!         LCR       #FD$$MPY              ; [CPU_] |432| 
         0000017d 0000 
    1251                      ; call occurs [#FD$$MPY] ; [] |432| 
    1252 0000017e 5CAD          MOVZ      AR4,SP                ; [CPU_U] |432| 
    1253 0000017f DCBC          SUBB      XAR4,#60              ; [CPU_U] |432| 
    1254              $C$DW$97        .dwtag  DW_TAG_TI_branch
    1255                      .dwattr $C$DW$97, DW_AT_low_pc(0x00)
    1256                      .dwattr $C$DW$97, DW_AT_name("FD$$TOL")
TMS320C2000 Assembler PC v6.2.5 Wed Nov 22 14:48:16 2017

Tools Copyright (c) 1996-2014 Texas Instruments Incorporated
C:\Users\wmj\AppData\Local\Temp\1257612                              PAGE   26

    1257                      .dwattr $C$DW$97, DW_AT_TI_call
    1258 00000180 7640!         LCR       #FD$$TOL              ; [CPU_] |432| 
         00000181 0000 
    1259                      ; call occurs [#FD$$TOL] ; [] |432| 
    1260 00000182 8F00          MOVL      XAR4,#16777           ; [CPU_U] |432| 
         00000183 4189 
    1261 00000184 A842          MOVL      *-SP[2],XAR4          ; [CPU_] |432| 
    1262              $C$DW$98        .dwtag  DW_TAG_TI_branch
    1263                      .dwattr $C$DW$98, DW_AT_low_pc(0x00)
    1264                      .dwattr $C$DW$98, DW_AT_name("L$$DIV")
    1265                      .dwattr $C$DW$98, DW_AT_TI_call
    1266 00000185 00C0!         FFC       XAR7,#L$$DIV          ; [CPU_] |432| 
         00000186 0000 
    1267                      ; call occurs [#L$$DIV] ; [] |432| 
    1268 00000187 8AE1          MOVL      XAR4,*+XAR1[4]        ; [CPU_] |432| 
    1269 00000188 96CC          MOV       *+XAR4[1],AL          ; [CPU_] |432| 
    1270                      .dwpsn  file "D:/BM1000_v1.1/sw/drivers/drvic/fsm.h",line 433,column 3,is_stmt
    1271 00000189 8AE1          MOVL      XAR4,*+XAR1[4]        ; [CPU_] |433| 
    1272 0000018a D02E          MOVB      XAR0,#46              ; [CPU_] |433| 
    1273 0000018b 9268          MOV       AL,*-SP[40]           ; [CPU_] |433| 
    1274 0000018c 9694          MOV       *+XAR4[AR0],AL        ; [CPU_] |433| 
    1275                      .dwpsn  file "D:/BM1000_v1.1/sw/drivers/drvic/fsm.h",line 434,column 3,is_stmt
    1276 0000018d 9267          MOV       AL,*-SP[39]           ; [CPU_] |434| 
    1277                      .dwpsn  file "D:/BM1000_v1.1/sw/drivers/drvic/fsm.h",line 436,column 3,is_stmt
    1278 0000018e 6F58          B         $C$L13,UNC            ; [CPU_] |436| 
    1279                      ; branch occurs ; [] |436| 
    1280 0000018f       $C$L11:    
    1281                      .dwpsn  file "D:/BM1000_v1.1/sw/drivers/drvic/fsm.h",line 427,column 1,is_stmt
    1282 0000018f 5CAD          MOVZ      AR4,SP                ; [CPU_U] |427| 
    1283 00000190 76C0+         MOVL      XAR7,#_JM_FSM_MotorFunc+6 ; [CPU_U] |427| 
         00000191 0006 
    1284 00000192 DCB2          SUBB      XAR4,#50              ; [CPU_U] |427| 
    1285 00000193 F605          RPT       #5
    1286 00000194 2484  ||     PREAD     *XAR4++,*XAR7         ; [CPU_] |427| 
    1287                      .dwpsn  file "D:/BM1000_v1.1/sw/drivers/drvic/fsm.h",line 430,column 3,is_stmt
    1288 00000195 8AE1          MOVL      XAR4,*+XAR1[4]        ; [CPU_] |430| 
    1289 00000196 D01F          MOVB      XAR0,#31              ; [CPU_] |430| 
    1290 00000197 926F          MOV       AL,*-SP[47]           ; [CPU_] |430| 
    1291 00000198 9694          MOV       *+XAR4[AR0],AL        ; [CPU_] |430| 
    1292                      .dwpsn  file "D:/BM1000_v1.1/sw/drivers/drvic/fsm.h",line 431,column 3,is_stmt
    1293 00000199 8AE1          MOVL      XAR4,*+XAR1[4]        ; [CPU_] |431| 
    1294 0000019a D010          MOVB      XAR0,#16              ; [CPU_] |431| 
    1295 0000019b 9270          MOV       AL,*-SP[48]           ; [CPU_] |431| 
    1296 0000019c 9694          MOV       *+XAR4[AR0],AL        ; [CPU_] |431| 
    1297                      .dwpsn  file "D:/BM1000_v1.1/sw/drivers/drvic/fsm.h",line 432,column 3,is_stmt
    1298 0000019d 0672          MOVL      ACC,*-SP[50]          ; [CPU_] |432| 
    1299 0000019e 88AD          MOVZ      AR6,SP                ; [CPU_U] |432| 
    1300 0000019f DEC0          SUBB      XAR6,#64              ; [CPU_U] |432| 
    1301              $C$DW$99        .dwtag  DW_TAG_TI_branch
    1302                      .dwattr $C$DW$99, DW_AT_low_pc(0x00)
    1303                      .dwattr $C$DW$99, DW_AT_name("FS$$TOFD")
    1304                      .dwattr $C$DW$99, DW_AT_TI_call
    1305 000001a0 7640!         LCR       #FS$$TOFD             ; [CPU_] |432| 
         000001a1 0000 
    1306                      ; call occurs [#FS$$TOFD] ; [] |432| 
TMS320C2000 Assembler PC v6.2.5 Wed Nov 22 14:48:16 2017

Tools Copyright (c) 1996-2014 Texas Instruments Incorporated
C:\Users\wmj\AppData\Local\Temp\1257612                              PAGE   27

    1307 000001a2 5CAD          MOVZ      AR4,SP                ; [CPU_U] |432| 
    1308 000001a3 88AD          MOVZ      AR6,SP                ; [CPU_U] |432| 
    1309 000001a4 8F40+         MOVL      XAR5,#$C$FL1          ; [CPU_U] |432| 
         000001a5 0000 
    1310 000001a6 DCC0          SUBB      XAR4,#64              ; [CPU_U] |432| 
    1311 000001a7 DEBC          SUBB      XAR6,#60              ; [CPU_U] |432| 
    1312              $C$DW$100       .dwtag  DW_TAG_TI_branch
    1313                      .dwattr $C$DW$100, DW_AT_low_pc(0x00)
    1314                      .dwattr $C$DW$100, DW_AT_name("FD$$MPY")
    1315                      .dwattr $C$DW$100, DW_AT_TI_call
    1316 000001a8 7640!         LCR       #FD$$MPY              ; [CPU_] |432| 
         000001a9 0000 
    1317                      ; call occurs [#FD$$MPY] ; [] |432| 
    1318 000001aa 5CAD          MOVZ      AR4,SP                ; [CPU_U] |432| 
    1319 000001ab DCBC          SUBB      XAR4,#60              ; [CPU_U] |432| 
    1320              $C$DW$101       .dwtag  DW_TAG_TI_branch
    1321                      .dwattr $C$DW$101, DW_AT_low_pc(0x00)
    1322                      .dwattr $C$DW$101, DW_AT_name("FD$$TOL")
    1323                      .dwattr $C$DW$101, DW_AT_TI_call
    1324 000001ac 7640!         LCR       #FD$$TOL              ; [CPU_] |432| 
         000001ad 0000 
    1325                      ; call occurs [#FD$$TOL] ; [] |432| 
    1326 000001ae 8F00          MOVL      XAR4,#16777           ; [CPU_U] |432| 
         000001af 4189 
    1327 000001b0 A842          MOVL      *-SP[2],XAR4          ; [CPU_] |432| 
    1328              $C$DW$102       .dwtag  DW_TAG_TI_branch
    1329                      .dwattr $C$DW$102, DW_AT_low_pc(0x00)
    1330                      .dwattr $C$DW$102, DW_AT_name("L$$DIV")
    1331                      .dwattr $C$DW$102, DW_AT_TI_call
    1332 000001b1 00C0!         FFC       XAR7,#L$$DIV          ; [CPU_] |432| 
         000001b2 0000 
    1333                      ; call occurs [#L$$DIV] ; [] |432| 
    1334 000001b3 8AE1          MOVL      XAR4,*+XAR1[4]        ; [CPU_] |432| 
    1335 000001b4 96CC          MOV       *+XAR4[1],AL          ; [CPU_] |432| 
    1336                      .dwpsn  file "D:/BM1000_v1.1/sw/drivers/drvic/fsm.h",line 433,column 3,is_stmt
    1337 000001b5 8AE1          MOVL      XAR4,*+XAR1[4]        ; [CPU_] |433| 
    1338 000001b6 D02E          MOVB      XAR0,#46              ; [CPU_] |433| 
    1339 000001b7 926E          MOV       AL,*-SP[46]           ; [CPU_] |433| 
    1340 000001b8 9694          MOV       *+XAR4[AR0],AL        ; [CPU_] |433| 
    1341                      .dwpsn  file "D:/BM1000_v1.1/sw/drivers/drvic/fsm.h",line 434,column 3,is_stmt
    1342 000001b9 926D          MOV       AL,*-SP[45]           ; [CPU_] |434| 
    1343                      .dwpsn  file "D:/BM1000_v1.1/sw/drivers/drvic/fsm.h",line 436,column 3,is_stmt
    1344 000001ba 6F2C          B         $C$L13,UNC            ; [CPU_] |436| 
    1345                      ; branch occurs ; [] |436| 
    1346 000001bb       $C$L12:    
    1347                      .dwpsn  file "D:/BM1000_v1.1/sw/drivers/drvic/fsm.h",line 427,column 1,is_stmt
    1348 000001bb 5CAD          MOVZ      AR4,SP                ; [CPU_U] |427| 
    1349 000001bc 76C0+         MOVL      XAR7,#_JM_FSM_MotorFunc ; [CPU_U] |427| 
         000001bd 0000 
    1350 000001be DCB8          SUBB      XAR4,#56              ; [CPU_U] |427| 
    1351 000001bf F605          RPT       #5
    1352 000001c0 2484  ||     PREAD     *XAR4++,*XAR7         ; [CPU_] |427| 
    1353                      .dwpsn  file "D:/BM1000_v1.1/sw/drivers/drvic/fsm.h",line 430,column 3,is_stmt
    1354 000001c1 8AE1          MOVL      XAR4,*+XAR1[4]        ; [CPU_] |430| 
    1355 000001c2 D01F          MOVB      XAR0,#31              ; [CPU_] |430| 
TMS320C2000 Assembler PC v6.2.5 Wed Nov 22 14:48:16 2017

Tools Copyright (c) 1996-2014 Texas Instruments Incorporated
C:\Users\wmj\AppData\Local\Temp\1257612                              PAGE   28

    1356 000001c3 9275          MOV       AL,*-SP[53]           ; [CPU_] |430| 
    1357 000001c4 9694          MOV       *+XAR4[AR0],AL        ; [CPU_] |430| 
    1358                      .dwpsn  file "D:/BM1000_v1.1/sw/drivers/drvic/fsm.h",line 431,column 3,is_stmt
    1359 000001c5 8AE1          MOVL      XAR4,*+XAR1[4]        ; [CPU_] |431| 
    1360 000001c6 D010          MOVB      XAR0,#16              ; [CPU_] |431| 
    1361 000001c7 9276          MOV       AL,*-SP[54]           ; [CPU_] |431| 
    1362 000001c8 9694          MOV       *+XAR4[AR0],AL        ; [CPU_] |431| 
    1363                      .dwpsn  file "D:/BM1000_v1.1/sw/drivers/drvic/fsm.h",line 432,column 3,is_stmt
    1364 000001c9 0678          MOVL      ACC,*-SP[56]          ; [CPU_] |432| 
    1365 000001ca 88AD          MOVZ      AR6,SP                ; [CPU_U] |432| 
    1366 000001cb DEC0          SUBB      XAR6,#64              ; [CPU_U] |432| 
    1367              $C$DW$103       .dwtag  DW_TAG_TI_branch
    1368                      .dwattr $C$DW$103, DW_AT_low_pc(0x00)
    1369                      .dwattr $C$DW$103, DW_AT_name("FS$$TOFD")
    1370                      .dwattr $C$DW$103, DW_AT_TI_call
    1371 000001cc 7640!         LCR       #FS$$TOFD             ; [CPU_] |432| 
         000001cd 0000 
    1372                      ; call occurs [#FS$$TOFD] ; [] |432| 
    1373 000001ce 5CAD          MOVZ      AR4,SP                ; [CPU_U] |432| 
    1374 000001cf 88AD          MOVZ      AR6,SP                ; [CPU_U] |432| 
    1375 000001d0 8F40+         MOVL      XAR5,#$C$FL1          ; [CPU_U] |432| 
         000001d1 0000 
    1376 000001d2 DCC0          SUBB      XAR4,#64              ; [CPU_U] |432| 
    1377 000001d3 DEBC          SUBB      XAR6,#60              ; [CPU_U] |432| 
    1378              $C$DW$104       .dwtag  DW_TAG_TI_branch
    1379                      .dwattr $C$DW$104, DW_AT_low_pc(0x00)
    1380                      .dwattr $C$DW$104, DW_AT_name("FD$$MPY")
    1381                      .dwattr $C$DW$104, DW_AT_TI_call
    1382 000001d4 7640!         LCR       #FD$$MPY              ; [CPU_] |432| 
         000001d5 0000 
    1383                      ; call occurs [#FD$$MPY] ; [] |432| 
    1384 000001d6 5CAD          MOVZ      AR4,SP                ; [CPU_U] |432| 
    1385 000001d7 DCBC          SUBB      XAR4,#60              ; [CPU_U] |432| 
    1386              $C$DW$105       .dwtag  DW_TAG_TI_branch
    1387                      .dwattr $C$DW$105, DW_AT_low_pc(0x00)
    1388                      .dwattr $C$DW$105, DW_AT_name("FD$$TOL")
    1389                      .dwattr $C$DW$105, DW_AT_TI_call
    1390 000001d8 7640!         LCR       #FD$$TOL              ; [CPU_] |432| 
         000001d9 0000 
    1391                      ; call occurs [#FD$$TOL] ; [] |432| 
    1392 000001da 8F00          MOVL      XAR4,#16777           ; [CPU_U] |432| 
         000001db 4189 
    1393 000001dc A842          MOVL      *-SP[2],XAR4          ; [CPU_] |432| 
    1394              $C$DW$106       .dwtag  DW_TAG_TI_branch
    1395                      .dwattr $C$DW$106, DW_AT_low_pc(0x00)
    1396                      .dwattr $C$DW$106, DW_AT_name("L$$DIV")
    1397                      .dwattr $C$DW$106, DW_AT_TI_call
    1398 000001dd 00C0!         FFC       XAR7,#L$$DIV          ; [CPU_] |432| 
         000001de 0000 
    1399                      ; call occurs [#L$$DIV] ; [] |432| 
    1400 000001df 8AE1          MOVL      XAR4,*+XAR1[4]        ; [CPU_] |432| 
    1401 000001e0 96CC          MOV       *+XAR4[1],AL          ; [CPU_] |432| 
    1402                      .dwpsn  file "D:/BM1000_v1.1/sw/drivers/drvic/fsm.h",line 433,column 3,is_stmt
    1403 000001e1 8AE1          MOVL      XAR4,*+XAR1[4]        ; [CPU_] |433| 
    1404 000001e2 D02E          MOVB      XAR0,#46              ; [CPU_] |433| 
TMS320C2000 Assembler PC v6.2.5 Wed Nov 22 14:48:16 2017

Tools Copyright (c) 1996-2014 Texas Instruments Incorporated
C:\Users\wmj\AppData\Local\Temp\1257612                              PAGE   29

    1405 000001e3 9274          MOV       AL,*-SP[52]           ; [CPU_] |433| 
    1406 000001e4 9694          MOV       *+XAR4[AR0],AL        ; [CPU_] |433| 
    1407                      .dwpsn  file "D:/BM1000_v1.1/sw/drivers/drvic/fsm.h",line 434,column 3,is_stmt
    1408 000001e5 9273          MOV       AL,*-SP[51]           ; [CPU_] |434| 
    1409 000001e6       $C$L13:    
    1410                      .dwpsn  file "D:/BM1000_v1.1/sw/drivers/drvic/fsm.c",line 362,column 4,is_stmt
    1411 000001e6 88AD          MOVZ      AR6,SP                ; [CPU_U] |362| 
    1412                      .dwpsn  file "D:/BM1000_v1.1/sw/drivers/drvic/fsm.h",line 434,column 3,is_stmt
    1413 000001e7 8AE1          MOVL      XAR4,*+XAR1[4]        ; [CPU_] |434| 
    1414 000001e8 D03D          MOVB      XAR0,#61              ; [CPU_] |434| 
    1415 000001e9 3B01          SETC      SXM                   ; [CPU_] 
    1416                      .dwpsn  file "D:/BM1000_v1.1/sw/drivers/drvic/fsm.c",line 362,column 4,is_stmt
    1417 000001ea DEC0          SUBB      XAR6,#64              ; [CPU_U] |362| 
    1418                      .dwpsn  file "D:/BM1000_v1.1/sw/drivers/drvic/fsm.h",line 434,column 3,is_stmt
    1419 000001eb 9694          MOV       *+XAR4[AR0],AL        ; [CPU_] |434| 
    1420                      .dwpsn  file "D:/BM1000_v1.1/sw/drivers/drvic/fsm.c",line 362,column 4,is_stmt
    1421 000001ec D00A          MOVB      XAR0,#10              ; [CPU_] |362| 
    1422 000001ed 5603          MOV       ACC,*+XAR1[AR0] << 1  ; [CPU_] |362| 
         000001ee 0191 
    1423 000001ef 8F00+         MOVL      XAR4,#_FSM_MaxTorque  ; [CPU_U] |362| 
         000001f0 0000 
    1424 000001f1 5601          ADDL      XAR4,ACC              ; [CPU_] |362| 
         000001f2 00A4 
    1425 000001f3 06C4          MOVL      ACC,*+XAR4[0]         ; [CPU_] |362| 
    1426              $C$DW$107       .dwtag  DW_TAG_TI_branch
    1427                      .dwattr $C$DW$107, DW_AT_low_pc(0x00)
    1428                      .dwattr $C$DW$107, DW_AT_name("FS$$TOFD")
    1429                      .dwattr $C$DW$107, DW_AT_TI_call
    1430 000001f4 7640!         LCR       #FS$$TOFD             ; [CPU_] |362| 
         000001f5 0000 
    1431                      ; call occurs [#FS$$TOFD] ; [] |362| 
    1432 000001f6 5CAD          MOVZ      AR4,SP                ; [CPU_U] |362| 
    1433 000001f7 88AD          MOVZ      AR6,SP                ; [CPU_U] |362| 
    1434 000001f8 8F40+         MOVL      XAR5,#$C$FL1          ; [CPU_U] |362| 
         000001f9 0000 
    1435 000001fa DCC0          SUBB      XAR4,#64              ; [CPU_U] |362| 
    1436 000001fb DEBC          SUBB      XAR6,#60              ; [CPU_U] |362| 
    1437              $C$DW$108       .dwtag  DW_TAG_TI_branch
    1438                      .dwattr $C$DW$108, DW_AT_low_pc(0x00)
    1439                      .dwattr $C$DW$108, DW_AT_name("FD$$MPY")
    1440                      .dwattr $C$DW$108, DW_AT_TI_call
    1441 000001fc 7640!         LCR       #FD$$MPY              ; [CPU_] |362| 
         000001fd 0000 
    1442                      ; call occurs [#FD$$MPY] ; [] |362| 
    1443 000001fe 5CAD          MOVZ      AR4,SP                ; [CPU_U] |362| 
    1444 000001ff DCBC          SUBB      XAR4,#60              ; [CPU_U] |362| 
    1445              $C$DW$109       .dwtag  DW_TAG_TI_branch
    1446                      .dwattr $C$DW$109, DW_AT_low_pc(0x00)
    1447                      .dwattr $C$DW$109, DW_AT_name("FD$$TOL")
    1448                      .dwattr $C$DW$109, DW_AT_TI_call
    1449 00000200 7640!         LCR       #FD$$TOL              ; [CPU_] |362| 
         00000201 0000 
    1450                      ; call occurs [#FD$$TOL] ; [] |362| 
    1451 00000202 D012          MOVB      XAR0,#18              ; [CPU_] |362| 
    1452 00000203 1E91          MOVL      *+XAR1[AR0],ACC       ; [CPU_] |362| 
TMS320C2000 Assembler PC v6.2.5 Wed Nov 22 14:48:16 2017

Tools Copyright (c) 1996-2014 Texas Instruments Incorporated
C:\Users\wmj\AppData\Local\Temp\1257612                              PAGE   30

    1453 00000204 FEC0          SUBB      SP,#64                ; [CPU_U] 
    1454                      .dwcfi  cfa_offset, -4
    1455 00000205 8BBE          MOVL      XAR1,*--SP            ; [CPU_] 
    1456                      .dwcfi  cfa_offset, -2
    1457                      .dwcfi  restore_reg, 7
    1458              $C$DW$110       .dwtag  DW_TAG_TI_branch
    1459                      .dwattr $C$DW$110, DW_AT_low_pc(0x00)
    1460                      .dwattr $C$DW$110, DW_AT_TI_return
    1461 00000206 0006          LRETR     ; [CPU_] 
    1462                      ; return occurs ; [] 
    1463                      .dwattr $C$DW$59, DW_AT_TI_end_file("D:/BM1000_v1.1/sw/drivers/drvic/fsm.c")
    1464                      .dwattr $C$DW$59, DW_AT_TI_end_line(0x16d)
    1465                      .dwattr $C$DW$59, DW_AT_TI_end_column(0x01)
    1466                      .dwendentry
    1467                      .dwendtag $C$DW$59
    1468              
    1469 00000207               .sect   ".text"
    1470                      .clink
    1471                      .global _FSM_State_Box_Init
    1472              
    1473              $C$DW$111       .dwtag  DW_TAG_subprogram, DW_AT_name("FSM_State_Box_Init")
    1474                      .dwattr $C$DW$111, DW_AT_low_pc(_FSM_State_Box_Init)
    1475                      .dwattr $C$DW$111, DW_AT_high_pc(0x00)
    1476                      .dwattr $C$DW$111, DW_AT_TI_symbol_name("_FSM_State_Box_Init")
    1477                      .dwattr $C$DW$111, DW_AT_external
    1478                      .dwattr $C$DW$111, DW_AT_TI_begin_file("D:/BM1000_v1.1/sw/drivers/drvic/fsm.c")
    1479                      .dwattr $C$DW$111, DW_AT_TI_begin_line(0x16f)
    1480                      .dwattr $C$DW$111, DW_AT_TI_begin_column(0x06)
    1481                      .dwattr $C$DW$111, DW_AT_TI_max_frame_size(-20)
    1482                      .dwpsn  file "D:/BM1000_v1.1/sw/drivers/drvic/fsm.c",line 368,column 1,is_stmt,address _FSM_State_Box
    1483              
    1484                      .dwfde $C$DW$CIE, _FSM_State_Box_Init
    1485              $C$DW$112       .dwtag  DW_TAG_formal_parameter, DW_AT_name("handle")
    1486                      .dwattr $C$DW$112, DW_AT_TI_symbol_name("_handle")
    1487                      .dwattr $C$DW$112, DW_AT_type(*$C$DW$T$169)
    1488                      .dwattr $C$DW$112, DW_AT_location[DW_OP_reg12]
    1489              $C$DW$113       .dwtag  DW_TAG_formal_parameter, DW_AT_name("RomState_Vars")
    1490                      .dwattr $C$DW$113, DW_AT_TI_symbol_name("_RomState_Vars")
    1491                      .dwattr $C$DW$113, DW_AT_type(*$C$DW$T$179)
    1492                      .dwattr $C$DW$113, DW_AT_location[DW_OP_reg14]
    1493              
    1494              ;***************************************************************
    1495              ;* FNAME: _FSM_State_Box_Init           FR SIZE:  18           *
    1496              ;*                                                             *
    1497              ;* FUNCTION ENVIRONMENT                                        *
    1498              ;*                                                             *
    1499              ;* FUNCTION PROPERTIES                                         *
    1500              ;*                            2 Parameter,  9 Auto,  6 SOE     *
    1501              ;***************************************************************
    1502              
    1503              _FSM_State_Box_Init:
    1504              ;* AR3   assigned to _handle
    1505              $C$DW$114       .dwtag  DW_TAG_variable, DW_AT_name("handle")
    1506                      .dwattr $C$DW$114, DW_AT_TI_symbol_name("_handle")
    1507                      .dwattr $C$DW$114, DW_AT_type(*$C$DW$T$170)
TMS320C2000 Assembler PC v6.2.5 Wed Nov 22 14:48:16 2017

Tools Copyright (c) 1996-2014 Texas Instruments Incorporated
C:\Users\wmj\AppData\Local\Temp\1257612                              PAGE   31

    1508                      .dwattr $C$DW$114, DW_AT_location[DW_OP_reg10]
    1509              ;* AR2   assigned to _RomState_Vars
    1510              $C$DW$115       .dwtag  DW_TAG_variable, DW_AT_name("RomState_Vars")
    1511                      .dwattr $C$DW$115, DW_AT_TI_symbol_name("_RomState_Vars")
    1512                      .dwattr $C$DW$115, DW_AT_type(*$C$DW$T$180)
    1513                      .dwattr $C$DW$115, DW_AT_location[DW_OP_reg8]
    1514              ;* AR1   assigned to _State_Num
    1515              $C$DW$116       .dwtag  DW_TAG_variable, DW_AT_name("State_Num")
    1516                      .dwattr $C$DW$116, DW_AT_TI_symbol_name("_State_Num")
    1517                      .dwattr $C$DW$116, DW_AT_type(*$C$DW$T$21)
    1518                      .dwattr $C$DW$116, DW_AT_location[DW_OP_reg6]
    1519              ;* AR2   assigned to $O$U7
    1520                      .dwcfi  cfa_offset, -2
    1521                      .dwcfi  save_reg_to_mem, 26, 0
    1522                      .dwcfi  save_reg_to_reg, 78, 26
    1523 00000207 B2BD          MOVL      *SP++,XAR1            ; [CPU_] 
    1524                      .dwcfi  save_reg_to_mem, 7, 2
    1525                      .dwcfi  cfa_offset, -4
    1526 00000208 AABD          MOVL      *SP++,XAR2            ; [CPU_] 
    1527                      .dwcfi  save_reg_to_mem, 9, 4
    1528                      .dwcfi  cfa_offset, -6
    1529 00000209 A2BD          MOVL      *SP++,XAR3            ; [CPU_] 
    1530                      .dwcfi  save_reg_to_mem, 11, 6
    1531                      .dwcfi  cfa_offset, -8
    1532 0000020a FE0C          ADDB      SP,#12                ; [CPU_U] 
    1533                      .dwcfi  cfa_offset, -20
    1534                      .dwpsn  file "D:/BM1000_v1.1/sw/drivers/drvic/fsm.c",line 373,column 7,is_stmt
    1535 0000020b D100          MOVB      XAR1,#0               ; [CPU_] |373| 
    1536                      .dwpsn  file "D:/BM1000_v1.1/sw/drivers/drvic/fsm.c",line 368,column 1,is_stmt
    1537 0000020c 86A5          MOVL      XAR2,XAR5             ; [CPU_] |368| 
    1538 0000020d 82A4          MOVL      XAR3,XAR4             ; [CPU_] |368| 
    1539 0000020e 284B          MOV       *-SP[11],#14          ; [CPU_] 
         0000020f 000E 
    1540 00000210       $C$L14:    
    1541                      .dwpsn  file "D:/BM1000_v1.1/sw/drivers/drvic/fsm.c",line 375,column 5,is_stmt
    1542 00000210 06E3          MOVL      ACC,*+XAR3[4]         ; [CPU_] |375| 
    1543 00000211 88DA          MOVZ      AR6,*+XAR2[3]         ; [CPU_] |375| 
    1544 00000212 D01E          MOVB      XAR0,#30              ; [CPU_] |375| 
    1545 00000213 0DA1          ADDU      ACC,AR1               ; [CPU_] |375| 
    1546 00000214 8AA9          MOVL      XAR4,ACC              ; [CPU_] |375| 
    1547 00000215 7E94          MOV       *+XAR4[AR0],AR6       ; [CPU_] |375| 
    1548                      .dwpsn  file "D:/BM1000_v1.1/sw/drivers/drvic/fsm.c",line 376,column 5,is_stmt
    1549 00000216 D00F          MOVB      XAR0,#15              ; [CPU_] |376| 
    1550 00000217 88D2          MOVZ      AR6,*+XAR2[2]         ; [CPU_] |376| 
    1551 00000218 06E3          MOVL      ACC,*+XAR3[4]         ; [CPU_] |376| 
    1552 00000219 0DA1          ADDU      ACC,AR1               ; [CPU_] |376| 
    1553 0000021a 8AA9          MOVL      XAR4,ACC              ; [CPU_] |376| 
    1554 0000021b 7E94          MOV       *+XAR4[AR0],AR6       ; [CPU_] |376| 
    1555                      .dwpsn  file "D:/BM1000_v1.1/sw/drivers/drvic/fsm.c",line 377,column 5,is_stmt
    1556 0000021c 88AD          MOVZ      AR6,SP                ; [CPU_U] |377| 
    1557 0000021d 06C2          MOVL      ACC,*+XAR2[0]         ; [CPU_] |377| 
    1558 0000021e DE8A          SUBB      XAR6,#10              ; [CPU_U] |377| 
    1559              $C$DW$117       .dwtag  DW_TAG_TI_branch
    1560                      .dwattr $C$DW$117, DW_AT_low_pc(0x00)
    1561                      .dwattr $C$DW$117, DW_AT_name("FS$$TOFD")
TMS320C2000 Assembler PC v6.2.5 Wed Nov 22 14:48:16 2017

Tools Copyright (c) 1996-2014 Texas Instruments Incorporated
C:\Users\wmj\AppData\Local\Temp\1257612                              PAGE   32

    1562                      .dwattr $C$DW$117, DW_AT_TI_call
    1563 0000021f 7640!         LCR       #FS$$TOFD             ; [CPU_] |377| 
         00000220 0000 
    1564                      ; call occurs [#FS$$TOFD] ; [] |377| 
    1565 00000221 5CAD          MOVZ      AR4,SP                ; [CPU_U] |377| 
    1566 00000222 88AD          MOVZ      AR6,SP                ; [CPU_U] |377| 
    1567 00000223 8F40+         MOVL      XAR5,#$C$FL1          ; [CPU_U] |377| 
         00000224 0000 
    1568 00000225 DC8A          SUBB      XAR4,#10              ; [CPU_U] |377| 
    1569 00000226 DE86          SUBB      XAR6,#6               ; [CPU_U] |377| 
    1570              $C$DW$118       .dwtag  DW_TAG_TI_branch
    1571                      .dwattr $C$DW$118, DW_AT_low_pc(0x00)
    1572                      .dwattr $C$DW$118, DW_AT_name("FD$$MPY")
    1573                      .dwattr $C$DW$118, DW_AT_TI_call
    1574 00000227 7640!         LCR       #FD$$MPY              ; [CPU_] |377| 
         00000228 0000 
    1575                      ; call occurs [#FD$$MPY] ; [] |377| 
    1576 00000229 5CAD          MOVZ      AR4,SP                ; [CPU_U] |377| 
    1577 0000022a DC86          SUBB      XAR4,#6               ; [CPU_U] |377| 
    1578              $C$DW$119       .dwtag  DW_TAG_TI_branch
    1579                      .dwattr $C$DW$119, DW_AT_low_pc(0x00)
    1580                      .dwattr $C$DW$119, DW_AT_name("FD$$TOL")
    1581                      .dwattr $C$DW$119, DW_AT_TI_call
    1582 0000022b 7640!         LCR       #FD$$TOL              ; [CPU_] |377| 
         0000022c 0000 
    1583                      ; call occurs [#FD$$TOL] ; [] |377| 
    1584 0000022d 8F00          MOVL      XAR4,#16777           ; [CPU_U] |377| 
         0000022e 4189 
    1585 0000022f A842          MOVL      *-SP[2],XAR4          ; [CPU_] |377| 
    1586              $C$DW$120       .dwtag  DW_TAG_TI_branch
    1587                      .dwattr $C$DW$120, DW_AT_low_pc(0x00)
    1588                      .dwattr $C$DW$120, DW_AT_name("L$$DIV")
    1589                      .dwattr $C$DW$120, DW_AT_TI_call
    1590 00000230 00C0!         FFC       XAR7,#L$$DIV          ; [CPU_] |377| 
         00000231 0000 
    1591                      ; call occurs [#L$$DIV] ; [] |377| 
    1592 00000232 8AE3          MOVL      XAR4,*+XAR3[4]        ; [CPU_] |377| 
    1593                      .dwpsn  file "D:/BM1000_v1.1/sw/drivers/drvic/fsm.c",line 378,column 5,is_stmt
    1594 00000233 D02D          MOVB      XAR0,#45              ; [CPU_] |378| 
    1595                      .dwpsn  file "D:/BM1000_v1.1/sw/drivers/drvic/fsm.c",line 377,column 5,is_stmt
    1596 00000234 969C          MOV       *+XAR4[AR1],AL        ; [CPU_] |377| 
    1597                      .dwpsn  file "D:/BM1000_v1.1/sw/drivers/drvic/fsm.c",line 378,column 5,is_stmt
    1598 00000235 88E2          MOVZ      AR6,*+XAR2[4]         ; [CPU_] |378| 
    1599 00000236 06E3          MOVL      ACC,*+XAR3[4]         ; [CPU_] |378| 
    1600 00000237 0DA1          ADDU      ACC,AR1               ; [CPU_] |378| 
    1601 00000238 8AA9          MOVL      XAR4,ACC              ; [CPU_] |378| 
    1602 00000239 7E94          MOV       *+XAR4[AR0],AR6       ; [CPU_] |378| 
    1603                      .dwpsn  file "D:/BM1000_v1.1/sw/drivers/drvic/fsm.c",line 379,column 5,is_stmt
    1604 0000023a D03C          MOVB      XAR0,#60              ; [CPU_] |379| 
    1605 0000023b 88EA          MOVZ      AR6,*+XAR2[5]         ; [CPU_] |379| 
    1606 0000023c 06E3          MOVL      ACC,*+XAR3[4]         ; [CPU_] |379| 
    1607 0000023d 0DA1          ADDU      ACC,AR1               ; [CPU_] |379| 
    1608 0000023e 8AA9          MOVL      XAR4,ACC              ; [CPU_] |379| 
    1609 0000023f 7E94          MOV       *+XAR4[AR0],AR6       ; [CPU_] |379| 
    1610                      .dwpsn  file "D:/BM1000_v1.1/sw/drivers/drvic/fsm.c",line 373,column 22,is_stmt
TMS320C2000 Assembler PC v6.2.5 Wed Nov 22 14:48:16 2017

Tools Copyright (c) 1996-2014 Texas Instruments Incorporated
C:\Users\wmj\AppData\Local\Temp\1257612                              PAGE   33

    1611 00000240 884B          MOVZ      AR6,*-SP[11]          ; [CPU_] |373| 
    1612 00000241 DA06          ADDB      XAR2,#6               ; [CPU_] |373| 
    1613 00000242 D901          ADDB      XAR1,#1               ; [CPU_] |373| 
    1614 00000243 DE81          SUBB      XAR6,#1               ; [CPU_U] |373| 
    1615 00000244 58A6          MOVZ      AR0,AR6               ; [CPU_] |373| 
    1616 00000245 7E4B          MOV       *-SP[11],AR6          ; [CPU_] |373| 
    1617 00000246 1BA0          CMP       AR0,#-1               ; [CPU_] |373| 
         00000247 FFFF 
    1618 00000248 EDC8          BF        $C$L14,NEQ            ; [CPU_] |373| 
    1619                      ; branchcc occurs ; [] |373| 
    1620                      .dwpsn  file "D:/BM1000_v1.1/sw/drivers/drvic/fsm.c",line 383,column 3,is_stmt
    1621 00000249 8AA3          MOVL      XAR4,XAR3             ; [CPU_] |383| 
    1622              $C$DW$121       .dwtag  DW_TAG_TI_branch
    1623                      .dwattr $C$DW$121, DW_AT_low_pc(0x00)
    1624                      .dwattr $C$DW$121, DW_AT_name("_FSM_SelectMode")
    1625                      .dwattr $C$DW$121, DW_AT_TI_call
    1626 0000024a 7640'         LCR       #_FSM_SelectMode      ; [CPU_] |383| 
         0000024b 0037 
    1627                      ; call occurs [#_FSM_SelectMode] ; [] |383| 
    1628 0000024c FE8C          SUBB      SP,#12                ; [CPU_U] 
    1629                      .dwcfi  cfa_offset, -8
    1630 0000024d 82BE          MOVL      XAR3,*--SP            ; [CPU_] 
    1631                      .dwcfi  cfa_offset, -6
    1632                      .dwcfi  restore_reg, 11
    1633 0000024e 86BE          MOVL      XAR2,*--SP            ; [CPU_] 
    1634                      .dwcfi  cfa_offset, -4
    1635                      .dwcfi  restore_reg, 9
    1636 0000024f 8BBE          MOVL      XAR1,*--SP            ; [CPU_] 
    1637                      .dwcfi  cfa_offset, -2
    1638                      .dwcfi  restore_reg, 7
    1639              $C$DW$122       .dwtag  DW_TAG_TI_branch
    1640                      .dwattr $C$DW$122, DW_AT_low_pc(0x00)
    1641                      .dwattr $C$DW$122, DW_AT_TI_return
    1642 00000250 0006          LRETR     ; [CPU_] 
    1643                      ; return occurs ; [] 
    1644                      .dwattr $C$DW$111, DW_AT_TI_end_file("D:/BM1000_v1.1/sw/drivers/drvic/fsm.c")
    1645                      .dwattr $C$DW$111, DW_AT_TI_end_line(0x18d)
    1646                      .dwattr $C$DW$111, DW_AT_TI_end_column(0x01)
    1647                      .dwendentry
    1648                      .dwendtag $C$DW$111
    1649              
    1650 00000251               .sect   ".text"
    1651                      .clink
    1652                      .global _FSM_ShutDowm
    1653              
    1654              $C$DW$123       .dwtag  DW_TAG_subprogram, DW_AT_name("FSM_ShutDowm")
    1655                      .dwattr $C$DW$123, DW_AT_low_pc(_FSM_ShutDowm)
    1656                      .dwattr $C$DW$123, DW_AT_high_pc(0x00)
    1657                      .dwattr $C$DW$123, DW_AT_TI_symbol_name("_FSM_ShutDowm")
    1658                      .dwattr $C$DW$123, DW_AT_external
    1659                      .dwattr $C$DW$123, DW_AT_TI_begin_file("D:/BM1000_v1.1/sw/drivers/drvic/fsm.c")
    1660                      .dwattr $C$DW$123, DW_AT_TI_begin_line(0x4a2)
    1661                      .dwattr $C$DW$123, DW_AT_TI_begin_column(0x06)
    1662                      .dwattr $C$DW$123, DW_AT_TI_max_frame_size(-2)
    1663                      .dwpsn  file "D:/BM1000_v1.1/sw/drivers/drvic/fsm.c",line 1187,column 1,is_stmt,address _FSM_ShutDowm
TMS320C2000 Assembler PC v6.2.5 Wed Nov 22 14:48:16 2017

Tools Copyright (c) 1996-2014 Texas Instruments Incorporated
C:\Users\wmj\AppData\Local\Temp\1257612                              PAGE   34

    1664              
    1665                      .dwfde $C$DW$CIE, _FSM_ShutDowm
    1666              $C$DW$124       .dwtag  DW_TAG_formal_parameter, DW_AT_name("handle")
    1667                      .dwattr $C$DW$124, DW_AT_TI_symbol_name("_handle")
    1668                      .dwattr $C$DW$124, DW_AT_type(*$C$DW$T$169)
    1669                      .dwattr $C$DW$124, DW_AT_location[DW_OP_reg12]
    1670              
    1671              ;***************************************************************
    1672              ;* FNAME: _FSM_ShutDowm                 FR SIZE:   0           *
    1673              ;*                                                             *
    1674              ;* FUNCTION ENVIRONMENT                                        *
    1675              ;*                                                             *
    1676              ;* FUNCTION PROPERTIES                                         *
    1677              ;*                            0 Parameter,  0 Auto,  0 SOE     *
    1678              ;***************************************************************
    1679              
    1680              _FSM_ShutDowm:
    1681              ;* AR4   assigned to _handle
    1682              $C$DW$125       .dwtag  DW_TAG_variable, DW_AT_name("handle")
    1683                      .dwattr $C$DW$125, DW_AT_TI_symbol_name("_handle")
    1684                      .dwattr $C$DW$125, DW_AT_type(*$C$DW$T$170)
    1685                      .dwattr $C$DW$125, DW_AT_location[DW_OP_reg12]
    1686                      .dwcfi  cfa_offset, -2
    1687                      .dwcfi  save_reg_to_mem, 26, 0
    1688                      .dwcfi  save_reg_to_reg, 78, 26
    1689                      .dwpsn  file "D:/BM1000_v1.1/sw/modules/hal/boards/hvkit_rev1p1/f28x/f2802x/src/hal.h",line 807,colum
    1690 00000251 8AD4          MOVL      XAR4,*+XAR4[2]        ; [CPU_] |807| 
    1691 00000252 D008          MOVB      XAR0,#8               ; [CPU_] |807| 
    1692 00000253 9A20          MOVB      AL,#32                ; [CPU_] |807| 
    1693 00000254 8A94          MOVL      XAR4,*+XAR4[AR0]      ; [CPU_] |807| 
    1694              $C$DW$126       .dwtag  DW_TAG_TI_branch
    1695                      .dwattr $C$DW$126, DW_AT_low_pc(0x00)
    1696                      .dwattr $C$DW$126, DW_AT_name("_GPIO_setHigh")
    1697                      .dwattr $C$DW$126, DW_AT_TI_call
    1698 00000255 7640!         LCR       #_GPIO_setHigh        ; [CPU_] |807| 
         00000256 0000 
    1699                      ; call occurs [#_GPIO_setHigh] ; [] |807| 
    1700              $C$DW$127       .dwtag  DW_TAG_TI_branch
    1701                      .dwattr $C$DW$127, DW_AT_low_pc(0x00)
    1702                      .dwattr $C$DW$127, DW_AT_TI_return
    1703 00000257 0006          LRETR     ; [CPU_] 
    1704                      ; return occurs ; [] 
    1705                      .dwattr $C$DW$123, DW_AT_TI_end_file("D:/BM1000_v1.1/sw/drivers/drvic/fsm.c")
    1706                      .dwattr $C$DW$123, DW_AT_TI_end_line(0x4a9)
    1707                      .dwattr $C$DW$123, DW_AT_TI_end_column(0x01)
    1708                      .dwendentry
    1709                      .dwendtag $C$DW$123
    1710              
    1711 00000258               .sect   ".text"
    1712                      .clink
    1713                      .global _FSM_SetupFsmMode
    1714              
    1715              $C$DW$128       .dwtag  DW_TAG_subprogram, DW_AT_name("FSM_SetupFsmMode")
    1716                      .dwattr $C$DW$128, DW_AT_low_pc(_FSM_SetupFsmMode)
    1717                      .dwattr $C$DW$128, DW_AT_high_pc(0x00)
TMS320C2000 Assembler PC v6.2.5 Wed Nov 22 14:48:16 2017

Tools Copyright (c) 1996-2014 Texas Instruments Incorporated
C:\Users\wmj\AppData\Local\Temp\1257612                              PAGE   35

    1718                      .dwattr $C$DW$128, DW_AT_TI_symbol_name("_FSM_SetupFsmMode")
    1719                      .dwattr $C$DW$128, DW_AT_external
    1720                      .dwattr $C$DW$128, DW_AT_TI_begin_file("D:/BM1000_v1.1/sw/drivers/drvic/fsm.c")
    1721                      .dwattr $C$DW$128, DW_AT_TI_begin_line(0x13d)
    1722                      .dwattr $C$DW$128, DW_AT_TI_begin_column(0x06)
    1723                      .dwattr $C$DW$128, DW_AT_TI_max_frame_size(-2)
    1724                      .dwpsn  file "D:/BM1000_v1.1/sw/drivers/drvic/fsm.c",line 318,column 1,is_stmt,address _FSM_SetupFsmM
    1725              
    1726                      .dwfde $C$DW$CIE, _FSM_SetupFsmMode
    1727              $C$DW$129       .dwtag  DW_TAG_formal_parameter, DW_AT_name("handle")
    1728                      .dwattr $C$DW$129, DW_AT_TI_symbol_name("_handle")
    1729                      .dwattr $C$DW$129, DW_AT_type(*$C$DW$T$169)
    1730                      .dwattr $C$DW$129, DW_AT_location[DW_OP_reg12]
    1731              
    1732              ;***************************************************************
    1733              ;* FNAME: _FSM_SetupFsmMode             FR SIZE:   0           *
    1734              ;*                                                             *
    1735              ;* FUNCTION ENVIRONMENT                                        *
    1736              ;*                                                             *
    1737              ;* FUNCTION PROPERTIES                                         *
    1738              ;*                            0 Parameter,  0 Auto,  0 SOE     *
    1739              ;***************************************************************
    1740              
    1741              _FSM_SetupFsmMode:
    1742              ;* AR4   assigned to _handle
    1743              $C$DW$130       .dwtag  DW_TAG_variable, DW_AT_name("handle")
    1744                      .dwattr $C$DW$130, DW_AT_TI_symbol_name("_handle")
    1745                      .dwattr $C$DW$130, DW_AT_type(*$C$DW$T$170)
    1746                      .dwattr $C$DW$130, DW_AT_location[DW_OP_reg12]
    1747                      .dwcfi  cfa_offset, -2
    1748                      .dwcfi  save_reg_to_mem, 26, 0
    1749                      .dwcfi  save_reg_to_reg, 78, 26
    1750                      .dwpsn  file "D:/BM1000_v1.1/sw/drivers/drvic/fsm.c",line 321,column 3,is_stmt
    1751 00000258 83D4          MOVL      XAR5,*+XAR4[2]        ; [CPU_] |321| 
    1752 00000259 D0B2          MOVB      XAR0,#178             ; [CPU_] |321| 
    1753 0000025a 9295          MOV       AL,*+XAR5[AR0]        ; [CPU_] |321| 
    1754 0000025b 5203          CMPB      AL,#3                 ; [CPU_] |321| 
    1755 0000025c 620A          B         $C$L15,GT             ; [CPU_] |321| 
    1756                      ; branchcc occurs ; [] |321| 
    1757 0000025d 5203          CMPB      AL,#3                 ; [CPU_] |321| 
    1758 0000025e EC16          BF        $C$L19,EQ             ; [CPU_] |321| 
    1759                      ; branchcc occurs ; [] |321| 
    1760 0000025f 5200          CMPB      AL,#0                 ; [CPU_] |321| 
    1761 00000260 EC23          BF        $C$L23,EQ             ; [CPU_] |321| 
    1762                      ; branchcc occurs ; [] |321| 
    1763 00000261 5201          CMPB      AL,#1                 ; [CPU_] |321| 
    1764 00000262 EC1D          BF        $C$L22,EQ             ; [CPU_] |321| 
    1765                      ; branchcc occurs ; [] |321| 
    1766 00000263 5202          CMPB      AL,#2                 ; [CPU_] |321| 
    1767 00000264 EC17          BF        $C$L21,EQ             ; [CPU_] |321| 
    1768                      ; branchcc occurs ; [] |321| 
    1769 00000265 6F05          B         $C$L16,UNC            ; [CPU_] |321| 
    1770                      ; branch occurs ; [] |321| 
    1771 00000266       $C$L15:    
    1772 00000266 5204          CMPB      AL,#4                 ; [CPU_] |321| 
TMS320C2000 Assembler PC v6.2.5 Wed Nov 22 14:48:16 2017

Tools Copyright (c) 1996-2014 Texas Instruments Incorporated
C:\Users\wmj\AppData\Local\Temp\1257612                              PAGE   36

    1773 00000267 EC09          BF        $C$L18,EQ             ; [CPU_] |321| 
    1774                      ; branchcc occurs ; [] |321| 
    1775 00000268 5206          CMPB      AL,#6                 ; [CPU_] |321| 
    1776 00000269 EC03          BF        $C$L17,EQ             ; [CPU_] |321| 
    1777                      ; branchcc occurs ; [] |321| 
    1778 0000026a       $C$L16:    
    1779                      .dwpsn  file "D:/BM1000_v1.1/sw/drivers/drvic/fsm.c",line 332,column 30,is_stmt
    1780 0000026a D00A          MOVB      XAR0,#10              ; [CPU_] |332| 
    1781                      .dwpsn  file "D:/BM1000_v1.1/sw/drivers/drvic/fsm.c",line 332,column 73,is_stmt
    1782 0000026b 6F0E          B         $C$L20,UNC            ; [CPU_] |332| 
    1783                      ; branch occurs ; [] |332| 
    1784 0000026c       $C$L17:    
    1785                      .dwpsn  file "D:/BM1000_v1.1/sw/drivers/drvic/fsm.c",line 333,column 30,is_stmt
    1786 0000026c D00A          MOVB      XAR0,#10              ; [CPU_] |333| 
    1787 0000026d 56BF          MOVB      *+XAR4[AR0],#7,UNC    ; [CPU_] |333| 
         0000026e 0794 
    1788              $C$DW$131       .dwtag  DW_TAG_TI_branch
    1789                      .dwattr $C$DW$131, DW_AT_low_pc(0x00)
    1790                      .dwattr $C$DW$131, DW_AT_TI_return
    1791 0000026f 0006          LRETR     ; [CPU_] 
    1792                      ; return occurs ; [] 
    1793 00000270       $C$L18:    
    1794                      .dwpsn  file "D:/BM1000_v1.1/sw/drivers/drvic/fsm.c",line 331,column 30,is_stmt
    1795 00000270 D00A          MOVB      XAR0,#10              ; [CPU_] |331| 
    1796 00000271 56BF          MOVB      *+XAR4[AR0],#3,UNC    ; [CPU_] |331| 
         00000272 0394 
    1797              $C$DW$132       .dwtag  DW_TAG_TI_branch
    1798                      .dwattr $C$DW$132, DW_AT_low_pc(0x00)
    1799                      .dwattr $C$DW$132, DW_AT_TI_return
    1800 00000273 0006          LRETR     ; [CPU_] 
    1801                      ; return occurs ; [] 
    1802 00000274       $C$L19:    
    1803                      .dwpsn  file "D:/BM1000_v1.1/sw/drivers/drvic/fsm.c",line 327,column 30,is_stmt
    1804 00000274 D00A          MOVB      XAR0,#10              ; [CPU_] |327| 
    1805 00000275 56BF          MOVB      *+XAR4[AR0],#5,UNC    ; [CPU_] |327| 
         00000276 0594 
    1806                      .dwpsn  file "D:/BM1000_v1.1/sw/drivers/drvic/motor.h",line 240,column 3,is_stmt
    1807 00000277 8AC4          MOVL      XAR4,*+XAR4[0]        ; [CPU_] |240| 
    1808 00000278 D008          MOVB      XAR0,#8               ; [CPU_] |240| 
    1809 00000279       $C$L20:    
    1810 00000279 2B94          MOV       *+XAR4[AR0],#0        ; [CPU_] |240| 
    1811              $C$DW$133       .dwtag  DW_TAG_TI_branch
    1812                      .dwattr $C$DW$133, DW_AT_low_pc(0x00)
    1813                      .dwattr $C$DW$133, DW_AT_TI_return
    1814 0000027a 0006          LRETR     ; [CPU_] 
    1815                      ; return occurs ; [] 
    1816 0000027b       $C$L21:    
    1817                      .dwpsn  file "D:/BM1000_v1.1/sw/drivers/drvic/fsm.c",line 325,column 30,is_stmt
    1818 0000027b D00A          MOVB      XAR0,#10              ; [CPU_] |325| 
    1819 0000027c 56BF          MOVB      *+XAR4[AR0],#4,UNC    ; [CPU_] |325| 
         0000027d 0494 
    1820              $C$DW$134       .dwtag  DW_TAG_TI_branch
    1821                      .dwattr $C$DW$134, DW_AT_low_pc(0x00)
    1822                      .dwattr $C$DW$134, DW_AT_TI_return
    1823 0000027e 0006          LRETR     ; [CPU_] 
TMS320C2000 Assembler PC v6.2.5 Wed Nov 22 14:48:16 2017

Tools Copyright (c) 1996-2014 Texas Instruments Incorporated
C:\Users\wmj\AppData\Local\Temp\1257612                              PAGE   37

    1824                      ; return occurs ; [] 
    1825 0000027f       $C$L22:    
    1826                      .dwpsn  file "D:/BM1000_v1.1/sw/drivers/drvic/fsm.c",line 324,column 30,is_stmt
    1827 0000027f D00A          MOVB      XAR0,#10              ; [CPU_] |324| 
    1828 00000280 56BF          MOVB      *+XAR4[AR0],#1,UNC    ; [CPU_] |324| 
         00000281 0194 
    1829              $C$DW$135       .dwtag  DW_TAG_TI_branch
    1830                      .dwattr $C$DW$135, DW_AT_low_pc(0x00)
    1831                      .dwattr $C$DW$135, DW_AT_TI_return
    1832 00000282 0006          LRETR     ; [CPU_] 
    1833                      ; return occurs ; [] 
    1834 00000283       $C$L23:    
    1835                      .dwpsn  file "D:/BM1000_v1.1/sw/drivers/drvic/fsm.c",line 323,column 30,is_stmt
    1836 00000283 D00A          MOVB      XAR0,#10              ; [CPU_] |323| 
    1837 00000284 56BF          MOVB      *+XAR4[AR0],#2,UNC    ; [CPU_] |323| 
         00000285 0294 
    1838              $C$DW$136       .dwtag  DW_TAG_TI_branch
    1839                      .dwattr $C$DW$136, DW_AT_low_pc(0x00)
    1840                      .dwattr $C$DW$136, DW_AT_TI_return
    1841 00000286 0006          LRETR     ; [CPU_] 
    1842                      ; return occurs ; [] 
    1843                      .dwattr $C$DW$128, DW_AT_TI_end_file("D:/BM1000_v1.1/sw/drivers/drvic/fsm.c")
    1844                      .dwattr $C$DW$128, DW_AT_TI_end_line(0x154)
    1845                      .dwattr $C$DW$128, DW_AT_TI_end_column(0x01)
    1846                      .dwendentry
    1847                      .dwendtag $C$DW$128
    1848              
    1849 00000287               .sect   ".text"
    1850                      .clink
    1851                      .global _FSM_SetVelocity
    1852              
    1853              $C$DW$137       .dwtag  DW_TAG_subprogram, DW_AT_name("FSM_SetVelocity")
    1854                      .dwattr $C$DW$137, DW_AT_low_pc(_FSM_SetVelocity)
    1855                      .dwattr $C$DW$137, DW_AT_high_pc(0x00)
    1856                      .dwattr $C$DW$137, DW_AT_TI_symbol_name("_FSM_SetVelocity")
    1857                      .dwattr $C$DW$137, DW_AT_external
    1858                      .dwattr $C$DW$137, DW_AT_TI_begin_file("D:/BM1000_v1.1/sw/drivers/drvic/fsm.c")
    1859                      .dwattr $C$DW$137, DW_AT_TI_begin_line(0x51a)
    1860                      .dwattr $C$DW$137, DW_AT_TI_begin_column(0x06)
    1861                      .dwattr $C$DW$137, DW_AT_TI_max_frame_size(-2)
    1862                      .dwpsn  file "D:/BM1000_v1.1/sw/drivers/drvic/fsm.c",line 1307,column 1,is_stmt,address _FSM_SetVeloc
    1863              
    1864                      .dwfde $C$DW$CIE, _FSM_SetVelocity
    1865              $C$DW$138       .dwtag  DW_TAG_formal_parameter, DW_AT_name("handle")
    1866                      .dwattr $C$DW$138, DW_AT_TI_symbol_name("_handle")
    1867                      .dwattr $C$DW$138, DW_AT_type(*$C$DW$T$169)
    1868                      .dwattr $C$DW$138, DW_AT_location[DW_OP_reg12]
    1869              
    1870              ;***************************************************************
    1871              ;* FNAME: _FSM_SetVelocity              FR SIZE:   0           *
    1872              ;*                                                             *
    1873              ;* FUNCTION ENVIRONMENT                                        *
    1874              ;*                                                             *
    1875              ;* FUNCTION PROPERTIES                                         *
    1876              ;*                            0 Parameter,  0 Auto,  0 SOE     *
TMS320C2000 Assembler PC v6.2.5 Wed Nov 22 14:48:16 2017

Tools Copyright (c) 1996-2014 Texas Instruments Incorporated
C:\Users\wmj\AppData\Local\Temp\1257612                              PAGE   38

    1877              ;***************************************************************
    1878              
    1879              _FSM_SetVelocity:
    1880              ;* AR4   assigned to _handle
    1881              $C$DW$139       .dwtag  DW_TAG_variable, DW_AT_name("handle")
    1882                      .dwattr $C$DW$139, DW_AT_TI_symbol_name("_handle")
    1883                      .dwattr $C$DW$139, DW_AT_type(*$C$DW$T$170)
    1884                      .dwattr $C$DW$139, DW_AT_location[DW_OP_reg12]
    1885              ;* AL    assigned to _SpeedData
    1886              $C$DW$140       .dwtag  DW_TAG_variable, DW_AT_name("SpeedData")
    1887                      .dwattr $C$DW$140, DW_AT_TI_symbol_name("_SpeedData")
    1888                      .dwattr $C$DW$140, DW_AT_type(*$C$DW$T$12)
    1889                      .dwattr $C$DW$140, DW_AT_location[DW_OP_reg0]
    1890                      .dwcfi  cfa_offset, -2
    1891                      .dwcfi  save_reg_to_mem, 26, 0
    1892                      .dwcfi  save_reg_to_reg, 78, 26
    1893 00000287 3B01          SETC      SXM                   ; [CPU_] 
    1894                      .dwpsn  file "D:/BM1000_v1.1/sw/drivers/drvic/fsm.c",line 1312,column 3,is_stmt
    1895 00000288 85F4          MOV       ACC,*+XAR4[6]         ; [CPU_] |1312| 
    1896 00000289 83E4          MOVL      XAR5,*+XAR4[4]        ; [CPU_] |1312| 
    1897 0000028a 5601          ADDL      XAR5,ACC              ; [CPU_] |1312| 
         0000028b 00A5 
    1898 0000028c 85C5          MOV       ACC,*+XAR5[0]         ; [CPU_] |1312| 
    1899                      .dwpsn  file "D:/BM1000_v1.1/sw/drivers/drvic/fsm.h",line 368,column 4,is_stmt
    1900 0000028d 8AC4          MOVL      XAR4,*+XAR4[0]        ; [CPU_] |368| 
    1901              ;       MOV       T,AL Implicitly done by - MPY ACC,OP,#IMM
    1902 0000028e 34A9          MPY      ACC,AL,#16777         ; [CPU_] |368| 
         0000028f 4189 
    1903 00000290 D01A          MOVB      XAR0,#26              ; [CPU_] |368| 
    1904 00000291 1E94          MOVL      *+XAR4[AR0],ACC       ; [CPU_] |368| 
    1905              $C$DW$141       .dwtag  DW_TAG_TI_branch
    1906                      .dwattr $C$DW$141, DW_AT_low_pc(0x00)
    1907                      .dwattr $C$DW$141, DW_AT_TI_return
    1908 00000292 0006          LRETR     ; [CPU_] 
    1909                      ; return occurs ; [] 
    1910                      .dwattr $C$DW$137, DW_AT_TI_end_file("D:/BM1000_v1.1/sw/drivers/drvic/fsm.c")
    1911                      .dwattr $C$DW$137, DW_AT_TI_end_line(0x52e)
    1912                      .dwattr $C$DW$137, DW_AT_TI_end_column(0x01)
    1913                      .dwendentry
    1914                      .dwendtag $C$DW$137
    1915              
    1916 00000293               .sect   ".text"
    1917                      .clink
    1918                      .global _FSM_ReportResults
    1919              
    1920              $C$DW$142       .dwtag  DW_TAG_subprogram, DW_AT_name("FSM_ReportResults")
    1921                      .dwattr $C$DW$142, DW_AT_low_pc(_FSM_ReportResults)
    1922                      .dwattr $C$DW$142, DW_AT_high_pc(0x00)
    1923                      .dwattr $C$DW$142, DW_AT_TI_symbol_name("_FSM_ReportResults")
    1924                      .dwattr $C$DW$142, DW_AT_external
    1925                      .dwattr $C$DW$142, DW_AT_TI_begin_file("D:/BM1000_v1.1/sw/drivers/drvic/fsm.c")
    1926                      .dwattr $C$DW$142, DW_AT_TI_begin_line(0x47e)
    1927                      .dwattr $C$DW$142, DW_AT_TI_begin_column(0x06)
    1928                      .dwattr $C$DW$142, DW_AT_TI_max_frame_size(-2)
    1929                      .dwpsn  file "D:/BM1000_v1.1/sw/drivers/drvic/fsm.c",line 1151,column 1,is_stmt,address _FSM_ReportRe
TMS320C2000 Assembler PC v6.2.5 Wed Nov 22 14:48:16 2017

Tools Copyright (c) 1996-2014 Texas Instruments Incorporated
C:\Users\wmj\AppData\Local\Temp\1257612                              PAGE   39

    1930              
    1931                      .dwfde $C$DW$CIE, _FSM_ReportResults
    1932              $C$DW$143       .dwtag  DW_TAG_formal_parameter, DW_AT_name("handle")
    1933                      .dwattr $C$DW$143, DW_AT_TI_symbol_name("_handle")
    1934                      .dwattr $C$DW$143, DW_AT_type(*$C$DW$T$169)
    1935                      .dwattr $C$DW$143, DW_AT_location[DW_OP_reg12]
    1936              
    1937              ;***************************************************************
    1938              ;* FNAME: _FSM_ReportResults            FR SIZE:   0           *
    1939              ;*                                                             *
    1940              ;* FUNCTION ENVIRONMENT                                        *
    1941              ;*                                                             *
    1942              ;* FUNCTION PROPERTIES                                         *
    1943              ;*                            0 Parameter,  0 Auto,  0 SOE     *
    1944              ;***************************************************************
    1945              
    1946              _FSM_ReportResults:
    1947              ;* AR4   assigned to _handle
    1948              $C$DW$144       .dwtag  DW_TAG_variable, DW_AT_name("handle")
    1949                      .dwattr $C$DW$144, DW_AT_TI_symbol_name("_handle")
    1950                      .dwattr $C$DW$144, DW_AT_type(*$C$DW$T$170)
    1951                      .dwattr $C$DW$144, DW_AT_location[DW_OP_reg12]
    1952                      .dwcfi  cfa_offset, -2
    1953                      .dwcfi  save_reg_to_mem, 26, 0
    1954                      .dwcfi  save_reg_to_reg, 78, 26
    1955                      .dwpsn  file "D:/BM1000_v1.1/sw/modules/hal/boards/hvkit_rev1p1/f28x/f2802x/src/hal.h",line 807,colum
    1956 00000293 8AD4          MOVL      XAR4,*+XAR4[2]        ; [CPU_] |807| 
    1957 00000294 D008          MOVB      XAR0,#8               ; [CPU_] |807| 
    1958 00000295 9A13          MOVB      AL,#19                ; [CPU_] |807| 
    1959 00000296 8A94          MOVL      XAR4,*+XAR4[AR0]      ; [CPU_] |807| 
    1960              $C$DW$145       .dwtag  DW_TAG_TI_branch
    1961                      .dwattr $C$DW$145, DW_AT_low_pc(0x00)
    1962                      .dwattr $C$DW$145, DW_AT_name("_GPIO_setHigh")
    1963                      .dwattr $C$DW$145, DW_AT_TI_call
    1964 00000297 7640!         LCR       #_GPIO_setHigh        ; [CPU_] |807| 
         00000298 0000 
    1965                      ; call occurs [#_GPIO_setHigh] ; [] |807| 
    1966              $C$DW$146       .dwtag  DW_TAG_TI_branch
    1967                      .dwattr $C$DW$146, DW_AT_low_pc(0x00)
    1968                      .dwattr $C$DW$146, DW_AT_TI_return
    1969 00000299 0006          LRETR     ; [CPU_] 
    1970                      ; return occurs ; [] 
    1971                      .dwattr $C$DW$142, DW_AT_TI_end_file("D:/BM1000_v1.1/sw/drivers/drvic/fsm.c")
    1972                      .dwattr $C$DW$142, DW_AT_TI_end_line(0x485)
    1973                      .dwattr $C$DW$142, DW_AT_TI_end_column(0x01)
    1974                      .dwendentry
    1975                      .dwendtag $C$DW$142
    1976              
    1977 0000029a               .sect   ".text"
    1978                      .clink
    1979                      .global _FSM_Run_STOP
    1980              
    1981              $C$DW$147       .dwtag  DW_TAG_subprogram, DW_AT_name("FSM_Run_STOP")
    1982                      .dwattr $C$DW$147, DW_AT_low_pc(_FSM_Run_STOP)
    1983                      .dwattr $C$DW$147, DW_AT_high_pc(0x00)
TMS320C2000 Assembler PC v6.2.5 Wed Nov 22 14:48:16 2017

Tools Copyright (c) 1996-2014 Texas Instruments Incorporated
C:\Users\wmj\AppData\Local\Temp\1257612                              PAGE   40

    1984                      .dwattr $C$DW$147, DW_AT_TI_symbol_name("_FSM_Run_STOP")
    1985                      .dwattr $C$DW$147, DW_AT_external
    1986                      .dwattr $C$DW$147, DW_AT_TI_begin_file("D:/BM1000_v1.1/sw/drivers/drvic/fsm.c")
    1987                      .dwattr $C$DW$147, DW_AT_TI_begin_line(0x1ce)
    1988                      .dwattr $C$DW$147, DW_AT_TI_begin_column(0x06)
    1989                      .dwattr $C$DW$147, DW_AT_TI_max_frame_size(-2)
    1990                      .dwpsn  file "D:/BM1000_v1.1/sw/drivers/drvic/fsm.c",line 463,column 1,is_stmt,address _FSM_Run_STOP
    1991              
    1992                      .dwfde $C$DW$CIE, _FSM_Run_STOP
    1993              $C$DW$148       .dwtag  DW_TAG_formal_parameter, DW_AT_name("handle")
    1994                      .dwattr $C$DW$148, DW_AT_TI_symbol_name("_handle")
    1995                      .dwattr $C$DW$148, DW_AT_type(*$C$DW$T$169)
    1996                      .dwattr $C$DW$148, DW_AT_location[DW_OP_reg12]
    1997              
    1998              ;***************************************************************
    1999              ;* FNAME: _FSM_Run_STOP                 FR SIZE:   0           *
    2000              ;*                                                             *
    2001              ;* FUNCTION ENVIRONMENT                                        *
    2002              ;*                                                             *
    2003              ;* FUNCTION PROPERTIES                                         *
    2004              ;*                            0 Parameter,  0 Auto,  0 SOE     *
    2005              ;***************************************************************
    2006              
    2007              _FSM_Run_STOP:
    2008              ;* AR4   assigned to _handle
    2009              $C$DW$149       .dwtag  DW_TAG_variable, DW_AT_name("handle")
    2010                      .dwattr $C$DW$149, DW_AT_TI_symbol_name("_handle")
    2011                      .dwattr $C$DW$149, DW_AT_type(*$C$DW$T$170)
    2012                      .dwattr $C$DW$149, DW_AT_location[DW_OP_reg12]
    2013                      .dwcfi  cfa_offset, -2
    2014                      .dwcfi  save_reg_to_mem, 26, 0
    2015                      .dwcfi  save_reg_to_reg, 78, 26
    2016                      .dwpsn  file "D:/BM1000_v1.1/sw/drivers/drvic/fsm.h",line 490,column 3,is_stmt
    2017 0000029a 83C4          MOVL      XAR5,*+XAR4[0]        ; [CPU_] |490| 
    2018 0000029b D00A          MOVB      XAR0,#10              ; [CPU_] |490| 
    2019 0000029c 2B95          MOV       *+XAR5[AR0],#0        ; [CPU_] |490| 
    2020                      .dwpsn  file "D:/BM1000_v1.1/sw/drivers/drvic/fsm.h",line 481,column 3,is_stmt
    2021 0000029d D01E          MOVB      XAR0,#30              ; [CPU_] |481| 
    2022 0000029e 2B94          MOV       *+XAR4[AR0],#0        ; [CPU_] |481| 
    2023                      .dwpsn  file "D:/BM1000_v1.1/sw/drivers/drvic/fsm.c",line 467,column 3,is_stmt
    2024              $C$DW$150       .dwtag  DW_TAG_TI_branch
    2025                      .dwattr $C$DW$150, DW_AT_low_pc(0x00)
    2026                      .dwattr $C$DW$150, DW_AT_name("_FSM_ReportResults")
    2027                      .dwattr $C$DW$150, DW_AT_TI_call
    2028 0000029f 7640'         LCR       #_FSM_ReportResults   ; [CPU_] |467| 
         000002a0 0293 
    2029                      ; call occurs [#_FSM_ReportResults] ; [] |467| 
    2030              $C$DW$151       .dwtag  DW_TAG_TI_branch
    2031                      .dwattr $C$DW$151, DW_AT_low_pc(0x00)
    2032                      .dwattr $C$DW$151, DW_AT_TI_return
    2033 000002a1 0006          LRETR     ; [CPU_] 
    2034                      ; return occurs ; [] 
    2035                      .dwattr $C$DW$147, DW_AT_TI_end_file("D:/BM1000_v1.1/sw/drivers/drvic/fsm.c")
    2036                      .dwattr $C$DW$147, DW_AT_TI_end_line(0x1d6)
    2037                      .dwattr $C$DW$147, DW_AT_TI_end_column(0x01)
TMS320C2000 Assembler PC v6.2.5 Wed Nov 22 14:48:16 2017

Tools Copyright (c) 1996-2014 Texas Instruments Incorporated
C:\Users\wmj\AppData\Local\Temp\1257612                              PAGE   41

    2038                      .dwendentry
    2039                      .dwendtag $C$DW$147
    2040              
    2041 000002a2               .sect   ".text"
    2042                      .clink
    2043                      .global _FSM_Run_ReleaseDcBrake
    2044              
    2045              $C$DW$152       .dwtag  DW_TAG_subprogram, DW_AT_name("FSM_Run_ReleaseDcBrake")
    2046                      .dwattr $C$DW$152, DW_AT_low_pc(_FSM_Run_ReleaseDcBrake)
    2047                      .dwattr $C$DW$152, DW_AT_high_pc(0x00)
    2048                      .dwattr $C$DW$152, DW_AT_TI_symbol_name("_FSM_Run_ReleaseDcBrake")
    2049                      .dwattr $C$DW$152, DW_AT_external
    2050                      .dwattr $C$DW$152, DW_AT_TI_begin_file("D:/BM1000_v1.1/sw/drivers/drvic/fsm.c")
    2051                      .dwattr $C$DW$152, DW_AT_TI_begin_line(0x1d8)
    2052                      .dwattr $C$DW$152, DW_AT_TI_begin_column(0x06)
    2053                      .dwattr $C$DW$152, DW_AT_TI_max_frame_size(-2)
    2054                      .dwpsn  file "D:/BM1000_v1.1/sw/drivers/drvic/fsm.c",line 473,column 1,is_stmt,address _FSM_Run_Relea
    2055              
    2056                      .dwfde $C$DW$CIE, _FSM_Run_ReleaseDcBrake
    2057              $C$DW$153       .dwtag  DW_TAG_formal_parameter, DW_AT_name("handle")
    2058                      .dwattr $C$DW$153, DW_AT_TI_symbol_name("_handle")
    2059                      .dwattr $C$DW$153, DW_AT_type(*$C$DW$T$169)
    2060                      .dwattr $C$DW$153, DW_AT_location[DW_OP_reg12]
    2061              
    2062              ;***************************************************************
    2063              ;* FNAME: _FSM_Run_ReleaseDcBrake       FR SIZE:   0           *
    2064              ;*                                                             *
    2065              ;* FUNCTION ENVIRONMENT                                        *
    2066              ;*                                                             *
    2067              ;* FUNCTION PROPERTIES                                         *
    2068              ;*                            0 Parameter,  0 Auto,  0 SOE     *
    2069              ;***************************************************************
    2070              
    2071              _FSM_Run_ReleaseDcBrake:
    2072              ;* AR4   assigned to _handle
    2073              $C$DW$154       .dwtag  DW_TAG_variable, DW_AT_name("handle")
    2074                      .dwattr $C$DW$154, DW_AT_TI_symbol_name("_handle")
    2075                      .dwattr $C$DW$154, DW_AT_type(*$C$DW$T$170)
    2076                      .dwattr $C$DW$154, DW_AT_location[DW_OP_reg12]
    2077                      .dwcfi  cfa_offset, -2
    2078                      .dwcfi  save_reg_to_mem, 26, 0
    2079                      .dwcfi  save_reg_to_reg, 78, 26
    2080                      .dwpsn  file "D:/BM1000_v1.1/sw/drivers/drvic/fsm.c",line 476,column 3,is_stmt
    2081 000002a2 D024          MOVB      XAR0,#36              ; [CPU_] |476| 
    2082 000002a3 2B94          MOV       *+XAR4[AR0],#0        ; [CPU_] |476| 
    2083                      .dwpsn  file "D:/BM1000_v1.1/sw/drivers/drvic/fsm.h",line 490,column 3,is_stmt
    2084 000002a4 8AC4          MOVL      XAR4,*+XAR4[0]        ; [CPU_] |490| 
    2085 000002a5 D00A          MOVB      XAR0,#10              ; [CPU_] |490| 
    2086 000002a6 2B94          MOV       *+XAR4[AR0],#0        ; [CPU_] |490| 
    2087              $C$DW$155       .dwtag  DW_TAG_TI_branch
    2088                      .dwattr $C$DW$155, DW_AT_low_pc(0x00)
    2089                      .dwattr $C$DW$155, DW_AT_TI_return
    2090 000002a7 0006          LRETR     ; [CPU_] 
    2091                      ; return occurs ; [] 
    2092                      .dwattr $C$DW$152, DW_AT_TI_end_file("D:/BM1000_v1.1/sw/drivers/drvic/fsm.c")
TMS320C2000 Assembler PC v6.2.5 Wed Nov 22 14:48:16 2017

Tools Copyright (c) 1996-2014 Texas Instruments Incorporated
C:\Users\wmj\AppData\Local\Temp\1257612                              PAGE   42

    2093                      .dwattr $C$DW$152, DW_AT_TI_end_line(0x1e0)
    2094                      .dwattr $C$DW$152, DW_AT_TI_end_column(0x01)
    2095                      .dwendentry
    2096                      .dwendtag $C$DW$152
    2097              
    2098 000002a8               .sect   ".text"
    2099                      .clink
    2100                      .global _FSM_Run_IDLE
    2101              
    2102              $C$DW$156       .dwtag  DW_TAG_subprogram, DW_AT_name("FSM_Run_IDLE")
    2103                      .dwattr $C$DW$156, DW_AT_low_pc(_FSM_Run_IDLE)
    2104                      .dwattr $C$DW$156, DW_AT_high_pc(0x00)
    2105                      .dwattr $C$DW$156, DW_AT_TI_symbol_name("_FSM_Run_IDLE")
    2106                      .dwattr $C$DW$156, DW_AT_external
    2107                      .dwattr $C$DW$156, DW_AT_TI_begin_file("D:/BM1000_v1.1/sw/drivers/drvic/fsm.c")
    2108                      .dwattr $C$DW$156, DW_AT_TI_begin_line(0x1c4)
    2109                      .dwattr $C$DW$156, DW_AT_TI_begin_column(0x06)
    2110                      .dwattr $C$DW$156, DW_AT_TI_max_frame_size(-2)
    2111                      .dwpsn  file "D:/BM1000_v1.1/sw/drivers/drvic/fsm.c",line 453,column 1,is_stmt,address _FSM_Run_IDLE
    2112              
    2113                      .dwfde $C$DW$CIE, _FSM_Run_IDLE
    2114              $C$DW$157       .dwtag  DW_TAG_formal_parameter, DW_AT_name("handle")
    2115                      .dwattr $C$DW$157, DW_AT_TI_symbol_name("_handle")
    2116                      .dwattr $C$DW$157, DW_AT_type(*$C$DW$T$169)
    2117                      .dwattr $C$DW$157, DW_AT_location[DW_OP_reg12]
    2118              
    2119              ;***************************************************************
    2120              ;* FNAME: _FSM_Run_IDLE                 FR SIZE:   0           *
    2121              ;*                                                             *
    2122              ;* FUNCTION ENVIRONMENT                                        *
    2123              ;*                                                             *
    2124              ;* FUNCTION PROPERTIES                                         *
    2125              ;*                            0 Parameter,  0 Auto,  0 SOE     *
    2126              ;***************************************************************
    2127              
    2128              _FSM_Run_IDLE:
    2129              ;* AR4   assigned to _handle
    2130              $C$DW$158       .dwtag  DW_TAG_variable, DW_AT_name("handle")
    2131                      .dwattr $C$DW$158, DW_AT_TI_symbol_name("_handle")
    2132                      .dwattr $C$DW$158, DW_AT_type(*$C$DW$T$170)
    2133                      .dwattr $C$DW$158, DW_AT_location[DW_OP_reg12]
    2134                      .dwcfi  cfa_offset, -2
    2135                      .dwcfi  save_reg_to_mem, 26, 0
    2136                      .dwcfi  save_reg_to_reg, 78, 26
    2137                      .dwpsn  file "D:/BM1000_v1.1/sw/drivers/drvic/fsm.h",line 499,column 3,is_stmt
    2138 000002a8 D00B          MOVB      XAR0,#11              ; [CPU_] |499| 
    2139 000002a9 2B94          MOV       *+XAR4[AR0],#0        ; [CPU_] |499| 
    2140                      .dwpsn  file "D:/BM1000_v1.1/sw/drivers/drvic/fsm.h",line 464,column 3,is_stmt
    2141 000002aa 8AC4          MOVL      XAR4,*+XAR4[0]        ; [CPU_] |464| 
    2142 000002ab D00A          MOVB      XAR0,#10              ; [CPU_] |464| 
    2143 000002ac 56BF          MOVB      *+XAR4[AR0],#1,UNC    ; [CPU_] |464| 
         000002ad 0194 
    2144              $C$DW$159       .dwtag  DW_TAG_TI_branch
    2145                      .dwattr $C$DW$159, DW_AT_low_pc(0x00)
    2146                      .dwattr $C$DW$159, DW_AT_TI_return
TMS320C2000 Assembler PC v6.2.5 Wed Nov 22 14:48:16 2017

Tools Copyright (c) 1996-2014 Texas Instruments Incorporated
C:\Users\wmj\AppData\Local\Temp\1257612                              PAGE   43

    2147 000002ae 0006          LRETR     ; [CPU_] 
    2148                      ; return occurs ; [] 
    2149                      .dwattr $C$DW$156, DW_AT_TI_end_file("D:/BM1000_v1.1/sw/drivers/drvic/fsm.c")
    2150                      .dwattr $C$DW$156, DW_AT_TI_end_line(0x1cc)
    2151                      .dwattr $C$DW$156, DW_AT_TI_end_column(0x01)
    2152                      .dwendentry
    2153                      .dwendtag $C$DW$156
    2154              
    2155 000002af               .sect   ".text"
    2156                      .clink
    2157                      .global _FSM_CheckErrors
    2158              
    2159              $C$DW$160       .dwtag  DW_TAG_subprogram, DW_AT_name("FSM_CheckErrors")
    2160                      .dwattr $C$DW$160, DW_AT_low_pc(_FSM_CheckErrors)
    2161                      .dwattr $C$DW$160, DW_AT_high_pc(0x00)
    2162                      .dwattr $C$DW$160, DW_AT_TI_symbol_name("_FSM_CheckErrors")
    2163                      .dwattr $C$DW$160, DW_AT_external
    2164                      .dwattr $C$DW$160, DW_AT_TI_begin_file("D:/BM1000_v1.1/sw/drivers/drvic/fsm.c")
    2165                      .dwattr $C$DW$160, DW_AT_TI_begin_line(0x365)
    2166                      .dwattr $C$DW$160, DW_AT_TI_begin_column(0x06)
    2167                      .dwattr $C$DW$160, DW_AT_TI_max_frame_size(-4)
    2168                      .dwpsn  file "D:/BM1000_v1.1/sw/drivers/drvic/fsm.c",line 870,column 1,is_stmt,address _FSM_CheckErro
    2169              
    2170                      .dwfde $C$DW$CIE, _FSM_CheckErrors
    2171              $C$DW$161       .dwtag  DW_TAG_formal_parameter, DW_AT_name("handle")
    2172                      .dwattr $C$DW$161, DW_AT_TI_symbol_name("_handle")
    2173                      .dwattr $C$DW$161, DW_AT_type(*$C$DW$T$169)
    2174                      .dwattr $C$DW$161, DW_AT_location[DW_OP_reg12]
    2175              
    2176              ;***************************************************************
    2177              ;* FNAME: _FSM_CheckErrors              FR SIZE:   2           *
    2178              ;*                                                             *
    2179              ;* FUNCTION ENVIRONMENT                                        *
    2180              ;*                                                             *
    2181              ;* FUNCTION PROPERTIES                                         *
    2182              ;*                            0 Parameter,  0 Auto,  2 SOE     *
    2183              ;***************************************************************
    2184              
    2185              _FSM_CheckErrors:
    2186              ;* AR7   assigned to $O$C1
    2187              ;* AR6   assigned to $O$C2
    2188              ;* AR1   assigned to _handle
    2189              $C$DW$162       .dwtag  DW_TAG_variable, DW_AT_name("handle")
    2190                      .dwattr $C$DW$162, DW_AT_TI_symbol_name("_handle")
    2191                      .dwattr $C$DW$162, DW_AT_type(*$C$DW$T$170)
    2192                      .dwattr $C$DW$162, DW_AT_location[DW_OP_reg6]
    2193              ;* AR5   assigned to $O$v2
    2194              ;* AH    assigned to $O$v3
    2195              ;* AL    assigned to $O$v1
    2196              ;* AR6   assigned to $O$v1
    2197                      .dwcfi  cfa_offset, -2
    2198                      .dwcfi  save_reg_to_mem, 26, 0
    2199                      .dwcfi  save_reg_to_reg, 78, 26
    2200 000002af B2BD          MOVL      *SP++,XAR1            ; [CPU_] 
    2201                      .dwcfi  save_reg_to_mem, 7, 2
TMS320C2000 Assembler PC v6.2.5 Wed Nov 22 14:48:16 2017

Tools Copyright (c) 1996-2014 Texas Instruments Incorporated
C:\Users\wmj\AppData\Local\Temp\1257612                              PAGE   44

    2202                      .dwcfi  cfa_offset, -4
    2203                      .dwpsn  file "D:/BM1000_v1.1/sw/drivers/drvic/fsm.c",line 849,column 3,is_stmt
    2204 000002b0 D01E          MOVB      XAR0,#30              ; [CPU_] |849| 
    2205                      .dwpsn  file "D:/BM1000_v1.1/sw/drivers/drvic/fsm.c",line 870,column 1,is_stmt
    2206 000002b1 8BA4          MOVL      XAR1,XAR4             ; [CPU_] |870| 
    2207                      .dwpsn  file "D:/BM1000_v1.1/sw/drivers/drvic/fsm.c",line 849,column 3,is_stmt
    2208 000002b2 9291          MOV       AL,*+XAR1[AR0]        ; [CPU_] |849| 
    2209 000002b3 ED04          BF        $C$L24,NEQ            ; [CPU_] |849| 
    2210                      ; branchcc occurs ; [] |849| 
    2211                      .dwpsn  file "D:/BM1000_v1.1/sw/drivers/drvic/fsm.c",line 851,column 5,is_stmt
    2212 000002b4 9A40          MOVB      AL,#64                ; [CPU_] |851| 
    2213 000002b5 9B40          MOVB      AH,#64                ; [CPU_] |851| 
    2214 000002b6 6F03          B         $C$L25,UNC            ; [CPU_] |851| 
    2215                      ; branch occurs ; [] |851| 
    2216 000002b7       $C$L24:    
    2217                      .dwpsn  file "D:/BM1000_v1.1/sw/drivers/drvic/fsm.h",line 499,column 3,is_stmt
    2218 000002b7 9A00          MOVB      AL,#0                 ; [CPU_] |499| 
    2219 000002b8 93A9          MOV       AH,AL                 ; [CPU_] |499| 
    2220 000002b9       $C$L25:    
    2221                      .dwpsn  file "D:/BM1000_v1.1/sw/drivers/drvic/fsm.c",line 816,column 3,is_stmt
    2222 000002b9 D00D          MOVB      XAR0,#13              ; [CPU_] |816| 
    2223 000002ba 1B91          CMP       *+XAR1[AR0],#10000    ; [CPU_] |816| 
         000002bb 2710 
    2224 000002bc 56B8          MOVB      XAR0,#11,LO           ; [CPU_] 
         000002bd 0BA0 
    2225 000002be 562B          MOV       *+XAR1[AR0],AH,LO     ; [CPU_] 
         000002bf 0891 
    2226 000002c0 6806          B         $C$L26,LO             ; [CPU_] 
    2227                      ; branchcc occurs ; [] 
    2228                      .dwpsn  file "D:/BM1000_v1.1/sw/drivers/drvic/fsm.c",line 818,column 2,is_stmt
    2229 000002c1 D00B          MOVB      XAR0,#11              ; [CPU_] |818| 
    2230 000002c2 5001          ORB       AL,#0x01              ; [CPU_] |818| 
    2231 000002c3 9691          MOV       *+XAR1[AR0],AL        ; [CPU_] |818| 
    2232                      .dwpsn  file "D:/BM1000_v1.1/sw/drivers/drvic/fsm.h",line 378,column 3,is_stmt
    2233 000002c4 D020          MOVB      XAR0,#32              ; [CPU_] |378| 
    2234 000002c5 2B91          MOV       *+XAR1[AR0],#0        ; [CPU_] |378| 
    2235 000002c6       $C$L26:    
    2236                      .dwpsn  file "D:/BM1000_v1.1/sw/modules/hal/boards/hvkit_rev1p1/f28x/f2802x/src/hal.h",line 821,colum
    2237 000002c6 8AD1          MOVL      XAR4,*+XAR1[2]        ; [CPU_] |821| 
    2238 000002c7 D008          MOVB      XAR0,#8               ; [CPU_] |821| 
    2239 000002c8 9A11          MOVB      AL,#17                ; [CPU_] |821| 
    2240 000002c9 8A94          MOVL      XAR4,*+XAR4[AR0]      ; [CPU_] |821| 
    2241              $C$DW$163       .dwtag  DW_TAG_TI_branch
    2242                      .dwattr $C$DW$163, DW_AT_low_pc(0x00)
    2243                      .dwattr $C$DW$163, DW_AT_name("_GPIO_read")
    2244                      .dwattr $C$DW$163, DW_AT_TI_call
    2245 000002ca 7640!         LCR       #_GPIO_read           ; [CPU_] |821| 
         000002cb 0000 
    2246                      ; call occurs [#_GPIO_read] ; [] |821| 
    2247 000002cc 5200          CMPB      AL,#0                 ; [CPU_] |821| 
    2248 000002cd EC05          BF        $C$L27,EQ             ; [CPU_] |821| 
    2249                      ; branchcc occurs ; [] |821| 
    2250                      .dwpsn  file "D:/BM1000_v1.1/sw/drivers/drvic/fsm.c",line 863,column 2,is_stmt
    2251 000002ce 8AA1          MOVL      XAR4,XAR1             ; [CPU_] |863| 
    2252 000002cf DC0B          ADDB      XAR4,#11              ; [CPU_] |863| 
TMS320C2000 Assembler PC v6.2.5 Wed Nov 22 14:48:16 2017

Tools Copyright (c) 1996-2014 Texas Instruments Incorporated
C:\Users\wmj\AppData\Local\Temp\1257612                              PAGE   45

    2253 000002d0 1AC4          OR        *+XAR4[0],#0x0002     ; [CPU_] |863| 
         000002d1 0002 
    2254 000002d2       $C$L27:    
    2255                      .dwpsn  file "D:/BM1000_v1.1/sw/modules/hal/boards/hvkit_rev1p1/f28x/f2802x/src/hal.h",line 821,colum
    2256 000002d2 8AD1          MOVL      XAR4,*+XAR1[2]        ; [CPU_] |821| 
    2257 000002d3 D008          MOVB      XAR0,#8               ; [CPU_] |821| 
    2258 000002d4 9A10          MOVB      AL,#16                ; [CPU_] |821| 
    2259 000002d5 8A94          MOVL      XAR4,*+XAR4[AR0]      ; [CPU_] |821| 
    2260              $C$DW$164       .dwtag  DW_TAG_TI_branch
    2261                      .dwattr $C$DW$164, DW_AT_low_pc(0x00)
    2262                      .dwattr $C$DW$164, DW_AT_name("_GPIO_read")
    2263                      .dwattr $C$DW$164, DW_AT_TI_call
    2264 000002d6 7640!         LCR       #_GPIO_read           ; [CPU_] |821| 
         000002d7 0000 
    2265                      ; call occurs [#_GPIO_read] ; [] |821| 
    2266 000002d8 5200          CMPB      AL,#0                 ; [CPU_] |821| 
    2267 000002d9 EC05          BF        $C$L28,EQ             ; [CPU_] |821| 
    2268                      ; branchcc occurs ; [] |821| 
    2269                      .dwpsn  file "D:/BM1000_v1.1/sw/drivers/drvic/fsm.c",line 806,column 5,is_stmt
    2270 000002da 8AA1          MOVL      XAR4,XAR1             ; [CPU_] |806| 
    2271 000002db DC0B          ADDB      XAR4,#11              ; [CPU_] |806| 
    2272 000002dc 1AC4          OR        *+XAR4[0],#0x0020     ; [CPU_] |806| 
         000002dd 0020 
    2273 000002de       $C$L28:    
    2274                      .dwpsn  file "D:/BM1000_v1.1/sw/drivers/drvic/fsm.c",line 790,column 3,is_stmt
    2275 000002de 83C1          MOVL      XAR5,*+XAR1[0]        ; [CPU_] |790| 
    2276                      .dwpsn  file "D:/BM1000_v1.1/sw/drivers/drvic/fsm.c",line 792,column 3,is_stmt
    2277 000002df D06A          MOVB      XAR0,#106             ; [CPU_] |792| 
    2278 000002e0 C495          MOVL      XAR6,*+XAR5[AR0]      ; [CPU_] |792| 
    2279 000002e1 FF2F          MOV       ACC,#2880 << 15       ; [CPU_] |792| 
         000002e2 0B40 
    2280 000002e3 0FA6          CMPL      ACC,XAR6              ; [CPU_] |792| 
    2281 000002e4 6309          B         $C$L29,GEQ            ; [CPU_] |792| 
    2282                      ; branchcc occurs ; [] |792| 
    2283 000002e5 FF2F          MOV       ACC,#3200 << 15       ; [CPU_] |792| 
         000002e6 0C80 
    2284 000002e7 0FA6          CMPL      ACC,XAR6              ; [CPU_] |792| 
    2285 000002e8 6505          B         $C$L29,LEQ            ; [CPU_] |792| 
    2286                      ; branchcc occurs ; [] |792| 
    2287                      .dwpsn  file "D:/BM1000_v1.1/sw/drivers/drvic/fsm.c",line 794,column 5,is_stmt
    2288 000002e9 8AA1          MOVL      XAR4,XAR1             ; [CPU_] |794| 
    2289 000002ea DC0B          ADDB      XAR4,#11              ; [CPU_] |794| 
    2290 000002eb 1AC4          OR        *+XAR4[0],#0x0010     ; [CPU_] |794| 
         000002ec 0010 
    2291 000002ed       $C$L29:    
    2292                      .dwpsn  file "D:/BM1000_v1.1/sw/drivers/drvic/fsm.c",line 772,column 3,is_stmt
    2293 000002ed D06C          MOVB      XAR0,#108             ; [CPU_] |772| 
    2294 000002ee C595          MOVL      XAR7,*+XAR5[AR0]      ; [CPU_] |772| 
    2295 000002ef 28A9          MOV       AL,#5244              ; [CPU_] |772| 
         000002f0 147C 
    2296 000002f1 9B6E          MOV       AH,#110               ; [CPU_] |772| 
    2297 000002f2 0FA7          CMPL      ACC,XAR7              ; [CPU_] |772| 
    2298 000002f3 650E          B         $C$L30,LEQ            ; [CPU_] |772| 
    2299                      ; branchcc occurs ; [] |772| 
    2300                      .dwpsn  file "D:/BM1000_v1.1/sw/drivers/drvic/fsm.c",line 776,column 8,is_stmt
TMS320C2000 Assembler PC v6.2.5 Wed Nov 22 14:48:16 2017

Tools Copyright (c) 1996-2014 Texas Instruments Incorporated
C:\Users\wmj\AppData\Local\Temp\1257612                              PAGE   46

    2301 000002f4 D00B          MOVB      XAR0,#11              ; [CPU_] |776| 
    2302 000002f5 28A9          MOV       AL,#44564             ; [CPU_] |776| 
         000002f6 AE14 
    2303 000002f7 8891          MOVZ      AR6,*+XAR1[AR0]       ; [CPU_] |776| 
    2304 000002f8 9B47          MOV       AH,#71                ; [CPU_] |776| 
    2305 000002f9 0FA7          CMPL      ACC,XAR7              ; [CPU_] |776| 
    2306 000002fa 650D          B         $C$L31,LEQ            ; [CPU_] |776| 
    2307                      ; branchcc occurs ; [] |776| 
    2308                      .dwpsn  file "D:/BM1000_v1.1/sw/drivers/drvic/fsm.c",line 778,column 5,is_stmt
    2309 000002fb 92A6          MOV       AL,AR6                ; [CPU_] |778| 
    2310 000002fc D00B          MOVB      XAR0,#11              ; [CPU_] |778| 
    2311 000002fd 5008          ORB       AL,#0x08              ; [CPU_] |778| 
    2312 000002fe 88A9          MOVZ      AR6,AL                ; [CPU_] |778| 
    2313 000002ff 9691          MOV       *+XAR1[AR0],AL        ; [CPU_] |778| 
    2314 00000300 6F07          B         $C$L31,UNC            ; [CPU_] |778| 
    2315                      ; branch occurs ; [] |778| 
    2316 00000301       $C$L30:    
    2317                      .dwpsn  file "D:/BM1000_v1.1/sw/drivers/drvic/fsm.c",line 774,column 5,is_stmt
    2318 00000301 8AA1          MOVL      XAR4,XAR1             ; [CPU_] |774| 
    2319                      .dwpsn  file "D:/BM1000_v1.1/sw/drivers/drvic/fsm.c",line 775,column 3,is_stmt
    2320 00000302 D00B          MOVB      XAR0,#11              ; [CPU_] |775| 
    2321                      .dwpsn  file "D:/BM1000_v1.1/sw/drivers/drvic/fsm.c",line 774,column 5,is_stmt
    2322 00000303 DC0B          ADDB      XAR4,#11              ; [CPU_] |774| 
    2323 00000304 1AC4          OR        *+XAR4[0],#0x0004     ; [CPU_] |774| 
         00000305 0004 
    2324                      .dwpsn  file "D:/BM1000_v1.1/sw/drivers/drvic/fsm.c",line 775,column 3,is_stmt
    2325 00000306 8891          MOVZ      AR6,*+XAR1[AR0]       ; [CPU_] |775| 
    2326 00000307       $C$L31:    
    2327 00000307 92A6          MOV       AL,AR6                ; [CPU_] 
    2328                      .dwpsn  file "D:/BM1000_v1.1/sw/drivers/drvic/fsm.c",line 890,column 3,is_stmt
    2329 00000308 EC03          BF        $C$L32,EQ             ; [CPU_] |890| 
    2330                      ; branchcc occurs ; [] |890| 
    2331                      .dwpsn  file "D:/BM1000_v1.1/sw/drivers/drvic/fsm.c",line 892,column 2,is_stmt
    2332 00000309 D008          MOVB      XAR0,#8               ; [CPU_] |892| 
    2333 0000030a 2B91          MOV       *+XAR1[AR0],#0        ; [CPU_] |892| 
    2334 0000030b       $C$L32:    
    2335 0000030b 8BBE          MOVL      XAR1,*--SP            ; [CPU_] 
    2336                      .dwcfi  cfa_offset, -2
    2337                      .dwcfi  restore_reg, 7
    2338              $C$DW$165       .dwtag  DW_TAG_TI_branch
    2339                      .dwattr $C$DW$165, DW_AT_low_pc(0x00)
    2340                      .dwattr $C$DW$165, DW_AT_TI_return
    2341 0000030c 0006          LRETR     ; [CPU_] 
    2342                      ; return occurs ; [] 
    2343                      .dwattr $C$DW$160, DW_AT_TI_end_file("D:/BM1000_v1.1/sw/drivers/drvic/fsm.c")
    2344                      .dwattr $C$DW$160, DW_AT_TI_end_line(0x380)
    2345                      .dwattr $C$DW$160, DW_AT_TI_end_column(0x01)
    2346                      .dwendentry
    2347                      .dwendtag $C$DW$160
    2348              
    2349 0000030d               .sect   ".text"
    2350                      .clink
    2351                      .global _FSM_RunTrans
    2352              
    2353              $C$DW$166       .dwtag  DW_TAG_subprogram, DW_AT_name("FSM_RunTrans")
TMS320C2000 Assembler PC v6.2.5 Wed Nov 22 14:48:16 2017

Tools Copyright (c) 1996-2014 Texas Instruments Incorporated
C:\Users\wmj\AppData\Local\Temp\1257612                              PAGE   47

    2354                      .dwattr $C$DW$166, DW_AT_low_pc(_FSM_RunTrans)
    2355                      .dwattr $C$DW$166, DW_AT_high_pc(0x00)
    2356                      .dwattr $C$DW$166, DW_AT_TI_symbol_name("_FSM_RunTrans")
    2357                      .dwattr $C$DW$166, DW_AT_external
    2358                      .dwattr $C$DW$166, DW_AT_TI_begin_file("D:/BM1000_v1.1/sw/drivers/drvic/fsm.c")
    2359                      .dwattr $C$DW$166, DW_AT_TI_begin_line(0x4ae)
    2360                      .dwattr $C$DW$166, DW_AT_TI_begin_column(0x06)
    2361                      .dwattr $C$DW$166, DW_AT_TI_max_frame_size(-2)
    2362                      .dwpsn  file "D:/BM1000_v1.1/sw/drivers/drvic/fsm.c",line 1199,column 1,is_stmt,address _FSM_RunTrans
    2363              
    2364                      .dwfde $C$DW$CIE, _FSM_RunTrans
    2365              $C$DW$167       .dwtag  DW_TAG_formal_parameter, DW_AT_name("handle")
    2366                      .dwattr $C$DW$167, DW_AT_TI_symbol_name("_handle")
    2367                      .dwattr $C$DW$167, DW_AT_type(*$C$DW$T$169)
    2368                      .dwattr $C$DW$167, DW_AT_location[DW_OP_reg12]
    2369              
    2370              ;***************************************************************
    2371              ;* FNAME: _FSM_RunTrans                 FR SIZE:   0           *
    2372              ;*                                                             *
    2373              ;* FUNCTION ENVIRONMENT                                        *
    2374              ;*                                                             *
    2375              ;* FUNCTION PROPERTIES                                         *
    2376              ;*                            0 Parameter,  0 Auto,  0 SOE     *
    2377              ;***************************************************************
    2378              
    2379              _FSM_RunTrans:
    2380              ;* AR6   assigned to $O$v1
    2381              ;* AR4   assigned to _handle
    2382              $C$DW$168       .dwtag  DW_TAG_variable, DW_AT_name("handle")
    2383                      .dwattr $C$DW$168, DW_AT_TI_symbol_name("_handle")
    2384                      .dwattr $C$DW$168, DW_AT_type(*$C$DW$T$170)
    2385                      .dwattr $C$DW$168, DW_AT_location[DW_OP_reg12]
    2386                      .dwcfi  cfa_offset, -2
    2387                      .dwcfi  save_reg_to_mem, 26, 0
    2388                      .dwcfi  save_reg_to_reg, 78, 26
    2389                      .dwpsn  file "D:/BM1000_v1.1/sw/drivers/drvic/fsm.c",line 1202,column 3,is_stmt
    2390 0000030d 88F4          MOVZ      AR6,*+XAR4[6]         ; [CPU_] |1202| 
    2391 0000030e 3B01          SETC      SXM                   ; [CPU_] 
    2392                      .dwpsn  file "D:/BM1000_v1.1/sw/drivers/drvic/fsm.c",line 1204,column 5,is_stmt
    2393 0000030f 83E4          MOVL      XAR5,*+XAR4[4]        ; [CPU_] |1204| 
    2394 00000310 D01E          MOVB      XAR0,#30              ; [CPU_] |1204| 
    2395                      .dwpsn  file "D:/BM1000_v1.1/sw/drivers/drvic/fsm.c",line 1202,column 3,is_stmt
    2396 00000311 92A6          MOV       AL,AR6                ; [CPU_] |1202| 
    2397                      .dwpsn  file "D:/BM1000_v1.1/sw/drivers/drvic/fsm.c",line 1204,column 5,is_stmt
    2398 00000312 85A9          MOV       ACC,AL                ; [CPU_] |1204| 
    2399 00000313 5601          ADDL      XAR5,ACC              ; [CPU_] |1204| 
         00000314 00A5 
    2400 00000315 8595          MOV       ACC,*+XAR5[AR0]       ; [CPU_] |1204| 
    2401 00000316 D009          MOVB      XAR0,#9               ; [CPU_] |1204| 
    2402 00000317 8F40+         MOVL      XAR5,#_FSM_EventTab   ; [CPU_U] |1204| 
         00000318 0000 
    2403 00000319 5601          ADDL      XAR5,ACC              ; [CPU_] |1204| 
         0000031a 00A5 
    2404 0000031b 92C5          MOV       AL,*+XAR5[0]          ; [CPU_] |1204| 
    2405 0000031c 5494          CMP       AL,*+XAR4[AR0]        ; [CPU_] |1204| 
TMS320C2000 Assembler PC v6.2.5 Wed Nov 22 14:48:16 2017

Tools Copyright (c) 1996-2014 Texas Instruments Incorporated
C:\Users\wmj\AppData\Local\Temp\1257612                              PAGE   48

    2406 0000031d ED03          BF        $C$L33,NEQ            ; [CPU_] |1204| 
    2407                      ; branchcc occurs ; [] |1204| 
    2408 0000031e 9A02          MOVB      AL,#2                 ; [CPU_] |1204| 
    2409 0000031f 6F02          B         $C$L34,UNC            ; [CPU_] |1204| 
    2410                      ; branch occurs ; [] |1204| 
    2411 00000320       $C$L33:    
    2412 00000320 9A01          MOVB      AL,#1                 ; [CPU_] |1204| 
    2413 00000321       $C$L34:    
    2414 00000321 D008          MOVB      XAR0,#8               ; [CPU_] |1204| 
    2415 00000322 9694          MOV       *+XAR4[AR0],AL        ; [CPU_] |1204| 
    2416 00000323 92A6          MOV       AL,AR6                ; [CPU_] |1204| 
    2417                      .dwpsn  file "D:/BM1000_v1.1/sw/drivers/drvic/fsm.c",line 1211,column 3,is_stmt
    2418 00000324 520E          CMPB      AL,#14                ; [CPU_] |1211| 
    2419 00000325 EC03          BF        $C$L35,EQ             ; [CPU_] |1211| 
    2420                      ; branchcc occurs ; [] |1211| 
    2421                      .dwpsn  file "D:/BM1000_v1.1/sw/drivers/drvic/fsm.c",line 1213,column 5,is_stmt
    2422              $C$DW$169       .dwtag  DW_TAG_TI_branch
    2423                      .dwattr $C$DW$169, DW_AT_low_pc(0x00)
    2424                      .dwattr $C$DW$169, DW_AT_name("_FSM_CheckErrors")
    2425                      .dwattr $C$DW$169, DW_AT_TI_call
    2426 00000326 7640'         LCR       #_FSM_CheckErrors     ; [CPU_] |1213| 
         00000327 02AF 
    2427                      ; call occurs [#_FSM_CheckErrors] ; [] |1213| 
    2428              $C$L35:    
    2429              $C$DW$170       .dwtag  DW_TAG_TI_branch
    2430                      .dwattr $C$DW$170, DW_AT_low_pc(0x00)
    2431                      .dwattr $C$DW$170, DW_AT_TI_return
    2432 00000328 0006          LRETR     ; [CPU_] 
    2433                      ; return occurs ; [] 
    2434                      .dwattr $C$DW$166, DW_AT_TI_end_file("D:/BM1000_v1.1/sw/drivers/drvic/fsm.c")
    2435                      .dwattr $C$DW$166, DW_AT_TI_end_line(0x4c1)
    2436                      .dwattr $C$DW$166, DW_AT_TI_end_column(0x01)
    2437                      .dwendentry
    2438                      .dwendtag $C$DW$166
    2439              
    2440 00000329               .sect   ".text"
    2441                      .clink
    2442                      .global _FSM_RunRetire
    2443              
    2444              $C$DW$171       .dwtag  DW_TAG_subprogram, DW_AT_name("FSM_RunRetire")
    2445                      .dwattr $C$DW$171, DW_AT_low_pc(_FSM_RunRetire)
    2446                      .dwattr $C$DW$171, DW_AT_high_pc(0x00)
    2447                      .dwattr $C$DW$171, DW_AT_TI_symbol_name("_FSM_RunRetire")
    2448                      .dwattr $C$DW$171, DW_AT_external
    2449                      .dwattr $C$DW$171, DW_AT_TI_begin_file("D:/BM1000_v1.1/sw/drivers/drvic/fsm.c")
    2450                      .dwattr $C$DW$171, DW_AT_TI_begin_line(0x4de)
    2451                      .dwattr $C$DW$171, DW_AT_TI_begin_column(0x06)
    2452                      .dwattr $C$DW$171, DW_AT_TI_max_frame_size(-2)
    2453                      .dwpsn  file "D:/BM1000_v1.1/sw/drivers/drvic/fsm.c",line 1247,column 1,is_stmt,address _FSM_RunRetir
    2454              
    2455                      .dwfde $C$DW$CIE, _FSM_RunRetire
    2456              $C$DW$172       .dwtag  DW_TAG_formal_parameter, DW_AT_name("handle")
    2457                      .dwattr $C$DW$172, DW_AT_TI_symbol_name("_handle")
    2458                      .dwattr $C$DW$172, DW_AT_type(*$C$DW$T$169)
    2459                      .dwattr $C$DW$172, DW_AT_location[DW_OP_reg12]
TMS320C2000 Assembler PC v6.2.5 Wed Nov 22 14:48:16 2017

Tools Copyright (c) 1996-2014 Texas Instruments Incorporated
C:\Users\wmj\AppData\Local\Temp\1257612                              PAGE   49

    2460              
    2461              ;***************************************************************
    2462              ;* FNAME: _FSM_RunRetire                FR SIZE:   0           *
    2463              ;*                                                             *
    2464              ;* FUNCTION ENVIRONMENT                                        *
    2465              ;*                                                             *
    2466              ;* FUNCTION PROPERTIES                                         *
    2467              ;*                            0 Parameter,  0 Auto,  0 SOE     *
    2468              ;***************************************************************
    2469              
    2470              _FSM_RunRetire:
    2471              ;* AR4   assigned to _handle
    2472              $C$DW$173       .dwtag  DW_TAG_variable, DW_AT_name("handle")
    2473                      .dwattr $C$DW$173, DW_AT_TI_symbol_name("_handle")
    2474                      .dwattr $C$DW$173, DW_AT_type(*$C$DW$T$170)
    2475                      .dwattr $C$DW$173, DW_AT_location[DW_OP_reg12]
    2476                      .dwcfi  cfa_offset, -2
    2477                      .dwcfi  save_reg_to_mem, 26, 0
    2478                      .dwcfi  save_reg_to_reg, 78, 26
    2479                      .dwpsn  file "D:/BM1000_v1.1/sw/drivers/drvic/fsm.c",line 1250,column 3,is_stmt
    2480 00000329 92F4          MOV       AL,*+XAR4[6]          ; [CPU_] |1250| 
    2481 0000032a ED0D          BF        $C$L37,NEQ            ; [CPU_] |1250| 
    2482                      ; branchcc occurs ; [] |1250| 
    2483                      .dwpsn  file "D:/BM1000_v1.1/sw/drivers/drvic/fsm.h",line 481,column 3,is_stmt
    2484 0000032b D01E          MOVB      XAR0,#30              ; [CPU_] |481| 
    2485 0000032c 2B94          MOV       *+XAR4[AR0],#0        ; [CPU_] |481| 
    2486                      .dwpsn  file "D:/BM1000_v1.1/sw/drivers/drvic/fsm.c",line 1257,column 4,is_stmt
    2487 0000032d D00B          MOVB      XAR0,#11              ; [CPU_] |1257| 
    2488 0000032e 4094          TBIT      *+XAR4[AR0],#0        ; [CPU_] |1257| 
    2489 0000032f EF06          BF        $C$L36,NTC            ; [CPU_] |1257| 
    2490                      ; branchcc occurs ; [] |1257| 
    2491                      .dwpsn  file "D:/BM1000_v1.1/sw/drivers/drvic/fsm.h",line 387,column 3,is_stmt
    2492 00000330 D00D          MOVB      XAR0,#13              ; [CPU_] |387| 
    2493 00000331 2B94          MOV       *+XAR4[AR0],#0        ; [CPU_] |387| 
    2494                      .dwpsn  file "D:/BM1000_v1.1/sw/drivers/drvic/fsm.h",line 378,column 3,is_stmt
    2495 00000332 D020          MOVB      XAR0,#32              ; [CPU_] |378| 
    2496 00000333 56BF          MOVB      *+XAR4[AR0],#1,UNC    ; [CPU_] |378| 
         00000334 0194 
    2497 00000335       $C$L36:    
    2498                      .dwpsn  file "D:/BM1000_v1.1/sw/drivers/drvic/fsm.h",line 421,column 3,is_stmt
    2499 00000335 2BF4          MOV       *+XAR4[6],#0          ; [CPU_] |421| 
    2500              $C$DW$174       .dwtag  DW_TAG_TI_branch
    2501                      .dwattr $C$DW$174, DW_AT_low_pc(0x00)
    2502                      .dwattr $C$DW$174, DW_AT_TI_return
    2503 00000336 0006          LRETR     ; [CPU_] 
    2504                      ; return occurs ; [] 
    2505 00000337       $C$L37:    
    2506 00000337 56BF          MOVB      *+XAR4[6],#14,UNC     ; [CPU_] |421| 
         00000338 0EF4 
    2507              $C$DW$175       .dwtag  DW_TAG_TI_branch
    2508                      .dwattr $C$DW$175, DW_AT_low_pc(0x00)
    2509                      .dwattr $C$DW$175, DW_AT_TI_return
    2510 00000339 0006          LRETR     ; [CPU_] 
    2511                      ; return occurs ; [] 
    2512                      .dwattr $C$DW$171, DW_AT_TI_end_file("D:/BM1000_v1.1/sw/drivers/drvic/fsm.c")
TMS320C2000 Assembler PC v6.2.5 Wed Nov 22 14:48:16 2017

Tools Copyright (c) 1996-2014 Texas Instruments Incorporated
C:\Users\wmj\AppData\Local\Temp\1257612                              PAGE   50

    2513                      .dwattr $C$DW$171, DW_AT_TI_end_line(0x4f5)
    2514                      .dwattr $C$DW$171, DW_AT_TI_end_column(0x01)
    2515                      .dwendentry
    2516                      .dwendtag $C$DW$171
    2517              
    2518 0000033a               .sect   ".text"
    2519                      .clink
    2520                      .global _FSM_RunPolling
    2521              
    2522              $C$DW$176       .dwtag  DW_TAG_subprogram, DW_AT_name("FSM_RunPolling")
    2523                      .dwattr $C$DW$176, DW_AT_low_pc(_FSM_RunPolling)
    2524                      .dwattr $C$DW$176, DW_AT_high_pc(0x00)
    2525                      .dwattr $C$DW$176, DW_AT_TI_symbol_name("_FSM_RunPolling")
    2526                      .dwattr $C$DW$176, DW_AT_external
    2527                      .dwattr $C$DW$176, DW_AT_TI_begin_file("D:/BM1000_v1.1/sw/drivers/drvic/fsm.c")
    2528                      .dwattr $C$DW$176, DW_AT_TI_begin_line(0x4f7)
    2529                      .dwattr $C$DW$176, DW_AT_TI_begin_column(0x06)
    2530                      .dwattr $C$DW$176, DW_AT_TI_max_frame_size(-2)
    2531                      .dwpsn  file "D:/BM1000_v1.1/sw/drivers/drvic/fsm.c",line 1272,column 1,is_stmt,address _FSM_RunPolli
    2532              
    2533                      .dwfde $C$DW$CIE, _FSM_RunPolling
    2534              $C$DW$177       .dwtag  DW_TAG_formal_parameter, DW_AT_name("handle")
    2535                      .dwattr $C$DW$177, DW_AT_TI_symbol_name("_handle")
    2536                      .dwattr $C$DW$177, DW_AT_type(*$C$DW$T$169)
    2537                      .dwattr $C$DW$177, DW_AT_location[DW_OP_reg12]
    2538              
    2539              ;***************************************************************
    2540              ;* FNAME: _FSM_RunPolling               FR SIZE:   0           *
    2541              ;*                                                             *
    2542              ;* FUNCTION ENVIRONMENT                                        *
    2543              ;*                                                             *
    2544              ;* FUNCTION PROPERTIES                                         *
    2545              ;*                            0 Parameter,  0 Auto,  0 SOE     *
    2546              ;***************************************************************
    2547              
    2548              _FSM_RunPolling:
    2549              ;* AR4   assigned to _handle
    2550              $C$DW$178       .dwtag  DW_TAG_variable, DW_AT_name("handle")
    2551                      .dwattr $C$DW$178, DW_AT_TI_symbol_name("_handle")
    2552                      .dwattr $C$DW$178, DW_AT_type(*$C$DW$T$170)
    2553                      .dwattr $C$DW$178, DW_AT_location[DW_OP_reg12]
    2554              ;* AL    assigned to _SpeedData
    2555              $C$DW$179       .dwtag  DW_TAG_variable, DW_AT_name("SpeedData")
    2556                      .dwattr $C$DW$179, DW_AT_TI_symbol_name("_SpeedData")
    2557                      .dwattr $C$DW$179, DW_AT_type(*$C$DW$T$12)
    2558                      .dwattr $C$DW$179, DW_AT_location[DW_OP_reg0]
    2559                      .dwcfi  cfa_offset, -2
    2560                      .dwcfi  save_reg_to_mem, 26, 0
    2561                      .dwcfi  save_reg_to_reg, 78, 26
    2562 0000033a 3B01          SETC      SXM                   ; [CPU_] 
    2563                      .dwpsn  file "D:/BM1000_v1.1/sw/drivers/drvic/fsm.c",line 1277,column 3,is_stmt
    2564 0000033b 85F4          MOV       ACC,*+XAR4[6]         ; [CPU_] |1277| 
    2565 0000033c 83E4          MOVL      XAR5,*+XAR4[4]        ; [CPU_] |1277| 
    2566 0000033d 5601          ADDL      XAR5,ACC              ; [CPU_] |1277| 
         0000033e 00A5 
TMS320C2000 Assembler PC v6.2.5 Wed Nov 22 14:48:16 2017

Tools Copyright (c) 1996-2014 Texas Instruments Incorporated
C:\Users\wmj\AppData\Local\Temp\1257612                              PAGE   51

    2567 0000033f 85C5          MOV       ACC,*+XAR5[0]         ; [CPU_] |1277| 
    2568                      .dwpsn  file "D:/BM1000_v1.1/sw/drivers/drvic/fsm.h",line 368,column 4,is_stmt
    2569 00000340 8AC4          MOVL      XAR4,*+XAR4[0]        ; [CPU_] |368| 
    2570              ;       MOV       T,AL Implicitly done by - MPY ACC,OP,#IMM
    2571 00000341 34A9          MPY      ACC,AL,#16777         ; [CPU_] |368| 
         00000342 4189 
    2572 00000343 D01A          MOVB      XAR0,#26              ; [CPU_] |368| 
    2573 00000344 1E94          MOVL      *+XAR4[AR0],ACC       ; [CPU_] |368| 
    2574              $C$DW$180       .dwtag  DW_TAG_TI_branch
    2575                      .dwattr $C$DW$180, DW_AT_low_pc(0x00)
    2576                      .dwattr $C$DW$180, DW_AT_TI_return
    2577 00000345 0006          LRETR     ; [CPU_] 
    2578                      ; return occurs ; [] 
    2579                      .dwattr $C$DW$176, DW_AT_TI_end_file("D:/BM1000_v1.1/sw/drivers/drvic/fsm.c")
    2580                      .dwattr $C$DW$176, DW_AT_TI_end_line(0x518)
    2581                      .dwattr $C$DW$176, DW_AT_TI_end_column(0x01)
    2582                      .dwendentry
    2583                      .dwendtag $C$DW$176
    2584              
    2585 00000346               .sect   ".text"
    2586                      .clink
    2587                      .global _FSM_RunConfig
    2588              
    2589              $C$DW$181       .dwtag  DW_TAG_subprogram, DW_AT_name("FSM_RunConfig")
    2590                      .dwattr $C$DW$181, DW_AT_low_pc(_FSM_RunConfig)
    2591                      .dwattr $C$DW$181, DW_AT_high_pc(0x00)
    2592                      .dwattr $C$DW$181, DW_AT_TI_symbol_name("_FSM_RunConfig")
    2593                      .dwattr $C$DW$181, DW_AT_external
    2594                      .dwattr $C$DW$181, DW_AT_TI_begin_file("D:/BM1000_v1.1/sw/drivers/drvic/fsm.c")
    2595                      .dwattr $C$DW$181, DW_AT_TI_begin_line(0x4c3)
    2596                      .dwattr $C$DW$181, DW_AT_TI_begin_column(0x06)
    2597                      .dwattr $C$DW$181, DW_AT_TI_max_frame_size(-2)
    2598                      .dwpsn  file "D:/BM1000_v1.1/sw/drivers/drvic/fsm.c",line 1220,column 1,is_stmt,address _FSM_RunConfi
    2599              
    2600                      .dwfde $C$DW$CIE, _FSM_RunConfig
    2601              $C$DW$182       .dwtag  DW_TAG_formal_parameter, DW_AT_name("handle")
    2602                      .dwattr $C$DW$182, DW_AT_TI_symbol_name("_handle")
    2603                      .dwattr $C$DW$182, DW_AT_type(*$C$DW$T$169)
    2604                      .dwattr $C$DW$182, DW_AT_location[DW_OP_reg12]
    2605              
    2606              ;***************************************************************
    2607              ;* FNAME: _FSM_RunConfig                FR SIZE:   0           *
    2608              ;*                                                             *
    2609              ;* FUNCTION ENVIRONMENT                                        *
    2610              ;*                                                             *
    2611              ;* FUNCTION PROPERTIES                                         *
    2612              ;*                            0 Parameter,  0 Auto,  0 SOE     *
    2613              ;***************************************************************
    2614              
    2615              _FSM_RunConfig:
    2616              ;* AR5   assigned to $O$C1
    2617              ;* AL    assigned to $O$v2
    2618              ;* AH    assigned to $O$v1
    2619              ;* AR4   assigned to _handle
    2620              $C$DW$183       .dwtag  DW_TAG_variable, DW_AT_name("handle")
TMS320C2000 Assembler PC v6.2.5 Wed Nov 22 14:48:16 2017

Tools Copyright (c) 1996-2014 Texas Instruments Incorporated
C:\Users\wmj\AppData\Local\Temp\1257612                              PAGE   52

    2621                      .dwattr $C$DW$183, DW_AT_TI_symbol_name("_handle")
    2622                      .dwattr $C$DW$183, DW_AT_type(*$C$DW$T$170)
    2623                      .dwattr $C$DW$183, DW_AT_location[DW_OP_reg12]
    2624                      .dwcfi  cfa_offset, -2
    2625                      .dwcfi  save_reg_to_mem, 26, 0
    2626                      .dwcfi  save_reg_to_reg, 78, 26
    2627                      .dwpsn  file "D:/BM1000_v1.1/sw/drivers/drvic/fsm.c",line 1223,column 3,is_stmt
    2628 00000346 92F4          MOV       AL,*+XAR4[6]          ; [CPU_] |1223| 
    2629 00000347 93FC          MOV       AH,*+XAR4[7]          ; [CPU_] |1223| 
    2630 00000348 54A8          CMP       AL,AH                 ; [CPU_] |1223| 
    2631 00000349 EC15          BF        $C$L39,EQ             ; [CPU_] |1223| 
    2632                      ; branchcc occurs ; [] |1223| 
    2633                      .dwpsn  file "D:/BM1000_v1.1/sw/drivers/drvic/fsm.h",line 387,column 3,is_stmt
    2634 0000034a D00D          MOVB      XAR0,#13              ; [CPU_] |387| 
    2635 0000034b 2B94          MOV       *+XAR4[AR0],#0        ; [CPU_] |387| 
    2636                      .dwpsn  file "D:/BM1000_v1.1/sw/drivers/drvic/fsm.c",line 1230,column 5,is_stmt
    2637 0000034c 5302          CMPB      AH,#2                 ; [CPU_] |1230| 
    2638                      .dwpsn  file "D:/BM1000_v1.1/sw/drivers/drvic/fsm.h",line 378,column 3,is_stmt
    2639 0000034d D020          MOVB      XAR0,#32              ; [CPU_] |378| 
    2640 0000034e 56BF          MOVB      *+XAR4[AR0],#1,UNC    ; [CPU_] |378| 
         0000034f 0194 
    2641                      .dwpsn  file "D:/BM1000_v1.1/sw/drivers/drvic/fsm.c",line 1230,column 5,is_stmt
    2642 00000350 ED08          BF        $C$L38,NEQ            ; [CPU_] |1230| 
    2643                      ; branchcc occurs ; [] |1230| 
    2644 00000351 5203          CMPB      AL,#3                 ; [CPU_] |1230| 
    2645 00000352 ED06          BF        $C$L38,NEQ            ; [CPU_] |1230| 
    2646                      ; branchcc occurs ; [] |1230| 
    2647                      .dwpsn  file "D:/BM1000_v1.1/sw/drivers/drvic/fsm.c",line 1232,column 7,is_stmt
    2648 00000353 83E4          MOVL      XAR5,*+XAR4[4]        ; [CPU_] |1232| 
    2649 00000354 92D5          MOV       AL,*+XAR5[2]          ; [CPU_] |1232| 
    2650 00000355 FF5C          NEG       AL                    ; [CPU_] |1232| 
    2651 00000356 96DD          MOV       *+XAR5[3],AL          ; [CPU_] |1232| 
    2652 00000357 92F4          MOV       AL,*+XAR4[6]          ; [CPU_] |1232| 
    2653 00000358       $C$L38:    
    2654                      .dwpsn  file "D:/BM1000_v1.1/sw/drivers/drvic/fsm.c",line 1235,column 5,is_stmt
    2655 00000358 5206          CMPB      AL,#6                 ; [CPU_] |1235| 
    2656                      .dwpsn  file "D:/BM1000_v1.1/sw/drivers/drvic/fsm.c",line 1237,column 6,is_stmt
    2657 00000359 56B1          MOVB      XAR0,#36,EQ           ; [CPU_] |1237| 
         0000035a 24A0 
    2658 0000035b 56B1          MOVB      *+XAR4[AR0],#1,EQ     ; [CPU_] |1237| 
         0000035c 0194 
    2659                      .dwpsn  file "D:/BM1000_v1.1/sw/drivers/drvic/fsm.c",line 1240,column 5,is_stmt
    2660 0000035d 96FC          MOV       *+XAR4[7],AL          ; [CPU_] |1240| 
    2661              $C$L39:    
    2662              $C$DW$184       .dwtag  DW_TAG_TI_branch
    2663                      .dwattr $C$DW$184, DW_AT_low_pc(0x00)
    2664                      .dwattr $C$DW$184, DW_AT_TI_return
    2665 0000035e 0006          LRETR     ; [CPU_] 
    2666                      ; return occurs ; [] 
    2667                      .dwattr $C$DW$181, DW_AT_TI_end_file("D:/BM1000_v1.1/sw/drivers/drvic/fsm.c")
    2668                      .dwattr $C$DW$181, DW_AT_TI_end_line(0x4dc)
    2669                      .dwattr $C$DW$181, DW_AT_TI_end_column(0x01)
    2670                      .dwendentry
    2671                      .dwendtag $C$DW$181
    2672              
TMS320C2000 Assembler PC v6.2.5 Wed Nov 22 14:48:16 2017

Tools Copyright (c) 1996-2014 Texas Instruments Incorporated
C:\Users\wmj\AppData\Local\Temp\1257612                              PAGE   53

    2673 0000035f               .sect   ".text"
    2674                      .clink
    2675                      .global _FSM_CheckTimes
    2676              
    2677              $C$DW$185       .dwtag  DW_TAG_subprogram, DW_AT_name("FSM_CheckTimes")
    2678                      .dwattr $C$DW$185, DW_AT_low_pc(_FSM_CheckTimes)
    2679                      .dwattr $C$DW$185, DW_AT_high_pc(0x00)
    2680                      .dwattr $C$DW$185, DW_AT_TI_symbol_name("_FSM_CheckTimes")
    2681                      .dwattr $C$DW$185, DW_AT_external
    2682                      .dwattr $C$DW$185, DW_AT_TI_begin_file("D:/BM1000_v1.1/sw/drivers/drvic/fsm.c")
    2683                      .dwattr $C$DW$185, DW_AT_TI_begin_line(0x2ed)
    2684                      .dwattr $C$DW$185, DW_AT_TI_begin_column(0x06)
    2685                      .dwattr $C$DW$185, DW_AT_TI_max_frame_size(-2)
    2686                      .dwpsn  file "D:/BM1000_v1.1/sw/drivers/drvic/fsm.c",line 750,column 1,is_stmt,address _FSM_CheckTime
    2687              
    2688                      .dwfde $C$DW$CIE, _FSM_CheckTimes
    2689              $C$DW$186       .dwtag  DW_TAG_formal_parameter, DW_AT_name("handle")
    2690                      .dwattr $C$DW$186, DW_AT_TI_symbol_name("_handle")
    2691                      .dwattr $C$DW$186, DW_AT_type(*$C$DW$T$169)
    2692                      .dwattr $C$DW$186, DW_AT_location[DW_OP_reg12]
    2693              
    2694              ;***************************************************************
    2695              ;* FNAME: _FSM_CheckTimes               FR SIZE:   0           *
    2696              ;*                                                             *
    2697              ;* FUNCTION ENVIRONMENT                                        *
    2698              ;*                                                             *
    2699              ;* FUNCTION PROPERTIES                                         *
    2700              ;*                            0 Parameter,  0 Auto,  0 SOE     *
    2701              ;***************************************************************
    2702              
    2703              _FSM_CheckTimes:
    2704              ;* AR4   assigned to _handle
    2705              $C$DW$187       .dwtag  DW_TAG_variable, DW_AT_name("handle")
    2706                      .dwattr $C$DW$187, DW_AT_TI_symbol_name("_handle")
    2707                      .dwattr $C$DW$187, DW_AT_type(*$C$DW$T$170)
    2708                      .dwattr $C$DW$187, DW_AT_location[DW_OP_reg12]
    2709                      .dwcfi  cfa_offset, -2
    2710                      .dwcfi  save_reg_to_mem, 26, 0
    2711                      .dwcfi  save_reg_to_reg, 78, 26
    2712                      .dwpsn  file "D:/BM1000_v1.1/sw/drivers/drvic/fsm.c",line 753,column 3,is_stmt
    2713 0000035f D015          MOVB      XAR0,#21              ; [CPU_] |753| 
    2714 00000360 9294          MOV       AL,*+XAR4[AR0]        ; [CPU_] |753| 
    2715 00000361 D00D          MOVB      XAR0,#13              ; [CPU_] |753| 
    2716 00000362 5494          CMP       AL,*+XAR4[AR0]        ; [CPU_] |753| 
    2717 00000363 6903          B         $C$L40,LOS            ; [CPU_] |753| 
    2718                      ; branchcc occurs ; [] |753| 
    2719                      .dwpsn  file "D:/BM1000_v1.1/sw/drivers/drvic/fsm.c",line 759,column 5,is_stmt
    2720 00000364 D009          MOVB      XAR0,#9               ; [CPU_] |759| 
    2721 00000365 6F05          B         $C$L41,UNC            ; [CPU_] |759| 
    2722                      ; branch occurs ; [] |759| 
    2723 00000366       $C$L40:    
    2724                      .dwpsn  file "D:/BM1000_v1.1/sw/drivers/drvic/fsm.c",line 755,column 5,is_stmt
    2725 00000366 D009          MOVB      XAR0,#9               ; [CPU_] |755| 
    2726 00000367 56BF          MOVB      *+XAR4[AR0],#1,UNC    ; [CPU_] |755| 
         00000368 0194 
TMS320C2000 Assembler PC v6.2.5 Wed Nov 22 14:48:16 2017

Tools Copyright (c) 1996-2014 Texas Instruments Incorporated
C:\Users\wmj\AppData\Local\Temp\1257612                              PAGE   54

    2727                      .dwpsn  file "D:/BM1000_v1.1/sw/drivers/drvic/fsm.h",line 378,column 3,is_stmt
    2728 00000369 D020          MOVB      XAR0,#32              ; [CPU_] |378| 
    2729 0000036a       $C$L41:    
    2730 0000036a 2B94          MOV       *+XAR4[AR0],#0        ; [CPU_] |378| 
    2731              $C$DW$188       .dwtag  DW_TAG_TI_branch
    2732                      .dwattr $C$DW$188, DW_AT_low_pc(0x00)
    2733                      .dwattr $C$DW$188, DW_AT_TI_return
    2734 0000036b 0006          LRETR     ; [CPU_] 
    2735                      ; return occurs ; [] 
    2736                      .dwattr $C$DW$185, DW_AT_TI_end_file("D:/BM1000_v1.1/sw/drivers/drvic/fsm.c")
    2737                      .dwattr $C$DW$185, DW_AT_TI_end_line(0x2fa)
    2738                      .dwattr $C$DW$185, DW_AT_TI_end_column(0x01)
    2739                      .dwendentry
    2740                      .dwendtag $C$DW$185
    2741              
    2742 0000036c               .sect   ".text"
    2743                      .clink
    2744                      .global _FSM_CheckMoveStatus
    2745              
    2746              $C$DW$189       .dwtag  DW_TAG_subprogram, DW_AT_name("FSM_CheckMoveStatus")
    2747                      .dwattr $C$DW$189, DW_AT_low_pc(_FSM_CheckMoveStatus)
    2748                      .dwattr $C$DW$189, DW_AT_high_pc(0x00)
    2749                      .dwattr $C$DW$189, DW_AT_TI_symbol_name("_FSM_CheckMoveStatus")
    2750                      .dwattr $C$DW$189, DW_AT_external
    2751                      .dwattr $C$DW$189, DW_AT_TI_begin_file("D:/BM1000_v1.1/sw/drivers/drvic/fsm.c")
    2752                      .dwattr $C$DW$189, DW_AT_TI_begin_line(0x29f)
    2753                      .dwattr $C$DW$189, DW_AT_TI_begin_column(0x06)
    2754                      .dwattr $C$DW$189, DW_AT_TI_max_frame_size(-2)
    2755                      .dwpsn  file "D:/BM1000_v1.1/sw/drivers/drvic/fsm.c",line 672,column 1,is_stmt,address _FSM_CheckMove
    2756              
    2757                      .dwfde $C$DW$CIE, _FSM_CheckMoveStatus
    2758              $C$DW$190       .dwtag  DW_TAG_formal_parameter, DW_AT_name("handle")
    2759                      .dwattr $C$DW$190, DW_AT_TI_symbol_name("_handle")
    2760                      .dwattr $C$DW$190, DW_AT_type(*$C$DW$T$169)
    2761                      .dwattr $C$DW$190, DW_AT_location[DW_OP_reg12]
    2762              
    2763              ;***************************************************************
    2764              ;* FNAME: _FSM_CheckMoveStatus          FR SIZE:   0           *
    2765              ;*                                                             *
    2766              ;* FUNCTION ENVIRONMENT                                        *
    2767              ;*                                                             *
    2768              ;* FUNCTION PROPERTIES                                         *
    2769              ;*                            0 Parameter,  0 Auto,  0 SOE     *
    2770              ;***************************************************************
    2771              
    2772              _FSM_CheckMoveStatus:
    2773              ;* AR4   assigned to _handle
    2774              $C$DW$191       .dwtag  DW_TAG_variable, DW_AT_name("handle")
    2775                      .dwattr $C$DW$191, DW_AT_TI_symbol_name("_handle")
    2776                      .dwattr $C$DW$191, DW_AT_type(*$C$DW$T$170)
    2777                      .dwattr $C$DW$191, DW_AT_location[DW_OP_reg12]
    2778                      .dwcfi  cfa_offset, -2
    2779                      .dwcfi  save_reg_to_mem, 26, 0
    2780                      .dwcfi  save_reg_to_reg, 78, 26
    2781                      .dwpsn  file "D:/BM1000_v1.1/sw/drivers/drvic/fsm.c",line 703,column 3,is_stmt
TMS320C2000 Assembler PC v6.2.5 Wed Nov 22 14:48:16 2017

Tools Copyright (c) 1996-2014 Texas Instruments Incorporated
C:\Users\wmj\AppData\Local\Temp\1257612                              PAGE   55

    2782              $C$DW$192       .dwtag  DW_TAG_TI_branch
    2783                      .dwattr $C$DW$192, DW_AT_low_pc(0x00)
    2784                      .dwattr $C$DW$192, DW_AT_name("_FSM_CheckTimes")
    2785                      .dwattr $C$DW$192, DW_AT_TI_call
    2786 0000036c 7640'         LCR       #_FSM_CheckTimes      ; [CPU_] |703| 
         0000036d 035F 
    2787                      ; call occurs [#_FSM_CheckTimes] ; [] |703| 
    2788                      .dwpsn  file "D:/BM1000_v1.1/sw/drivers/drvic/fsm.c",line 704,column 3,is_stmt
    2789 0000036e D009          MOVB      XAR0,#9               ; [CPU_] |704| 
    2790 0000036f 9294          MOV       AL,*+XAR4[AR0]        ; [CPU_] |704| 
    2791 00000370 5201          CMPB      AL,#1                 ; [CPU_] |704| 
    2792                      .dwpsn  file "D:/BM1000_v1.1/sw/drivers/drvic/fsm.c",line 706,column 6,is_stmt
    2793 00000371 56B1          MOVB      XAR0,#9,EQ            ; [CPU_] |706| 
         00000372 09A0 
    2794 00000373 56B1          MOVB      *+XAR4[AR0],#9,EQ     ; [CPU_] |706| 
         00000374 0994 
    2795              $C$DW$193       .dwtag  DW_TAG_TI_branch
    2796                      .dwattr $C$DW$193, DW_AT_low_pc(0x00)
    2797                      .dwattr $C$DW$193, DW_AT_TI_return
    2798 00000375 0006          LRETR     ; [CPU_] 
    2799                      ; return occurs ; [] 
    2800                      .dwattr $C$DW$189, DW_AT_TI_end_file("D:/BM1000_v1.1/sw/drivers/drvic/fsm.c")
    2801                      .dwattr $C$DW$189, DW_AT_TI_end_line(0x2c8)
    2802                      .dwattr $C$DW$189, DW_AT_TI_end_column(0x01)
    2803                      .dwendentry
    2804                      .dwendtag $C$DW$189
    2805              
    2806 00000376               .sect   ".text"
    2807                      .clink
    2808                      .global _FSM_CheckZeroSpeed
    2809              
    2810              $C$DW$194       .dwtag  DW_TAG_subprogram, DW_AT_name("FSM_CheckZeroSpeed")
    2811                      .dwattr $C$DW$194, DW_AT_low_pc(_FSM_CheckZeroSpeed)
    2812                      .dwattr $C$DW$194, DW_AT_high_pc(0x00)
    2813                      .dwattr $C$DW$194, DW_AT_TI_symbol_name("_FSM_CheckZeroSpeed")
    2814                      .dwattr $C$DW$194, DW_AT_external
    2815                      .dwattr $C$DW$194, DW_AT_TI_begin_file("D:/BM1000_v1.1/sw/drivers/drvic/fsm.c")
    2816                      .dwattr $C$DW$194, DW_AT_TI_begin_line(0x2cb)
    2817                      .dwattr $C$DW$194, DW_AT_TI_begin_column(0x06)
    2818                      .dwattr $C$DW$194, DW_AT_TI_max_frame_size(-2)
    2819                      .dwpsn  file "D:/BM1000_v1.1/sw/drivers/drvic/fsm.c",line 716,column 1,is_stmt,address _FSM_CheckZero
    2820              
    2821                      .dwfde $C$DW$CIE, _FSM_CheckZeroSpeed
    2822              $C$DW$195       .dwtag  DW_TAG_formal_parameter, DW_AT_name("handle")
    2823                      .dwattr $C$DW$195, DW_AT_TI_symbol_name("_handle")
    2824                      .dwattr $C$DW$195, DW_AT_type(*$C$DW$T$169)
    2825                      .dwattr $C$DW$195, DW_AT_location[DW_OP_reg12]
    2826              
    2827              ;***************************************************************
    2828              ;* FNAME: _FSM_CheckZeroSpeed           FR SIZE:   0           *
    2829              ;*                                                             *
    2830              ;* FUNCTION ENVIRONMENT                                        *
    2831              ;*                                                             *
    2832              ;* FUNCTION PROPERTIES                                         *
    2833              ;*                            0 Parameter,  0 Auto,  0 SOE     *
TMS320C2000 Assembler PC v6.2.5 Wed Nov 22 14:48:16 2017

Tools Copyright (c) 1996-2014 Texas Instruments Incorporated
C:\Users\wmj\AppData\Local\Temp\1257612                              PAGE   56

    2834              ;***************************************************************
    2835              
    2836              _FSM_CheckZeroSpeed:
    2837              ;* AR4   assigned to _handle
    2838              $C$DW$196       .dwtag  DW_TAG_variable, DW_AT_name("handle")
    2839                      .dwattr $C$DW$196, DW_AT_TI_symbol_name("_handle")
    2840                      .dwattr $C$DW$196, DW_AT_type(*$C$DW$T$170)
    2841                      .dwattr $C$DW$196, DW_AT_location[DW_OP_reg12]
    2842                      .dwcfi  cfa_offset, -2
    2843                      .dwcfi  save_reg_to_mem, 26, 0
    2844                      .dwcfi  save_reg_to_reg, 78, 26
    2845                      .dwpsn  file "D:/BM1000_v1.1/sw/drivers/drvic/fsm.c",line 725,column 5,is_stmt
    2846 00000376 83C4          MOVL      XAR5,*+XAR4[0]        ; [CPU_] |725| 
    2847 00000377 D024          MOVB      XAR0,#36              ; [CPU_] |725| 
    2848 00000378 0695          MOVL      ACC,*+XAR5[AR0]       ; [CPU_] |725| 
    2849 00000379 EC03          BF        $C$L42,EQ             ; [CPU_] |725| 
    2850                      ; branchcc occurs ; [] |725| 
    2851 0000037a 9A00          MOVB      AL,#0                 ; [CPU_] |725| 
    2852 0000037b 6F02          B         $C$L43,UNC            ; [CPU_] |725| 
    2853                      ; branch occurs ; [] |725| 
    2854 0000037c       $C$L42:    
    2855 0000037c 9A08          MOVB      AL,#8                 ; [CPU_] |725| 
    2856 0000037d       $C$L43:    
    2857 0000037d D009          MOVB      XAR0,#9               ; [CPU_] |725| 
    2858 0000037e 9694          MOV       *+XAR4[AR0],AL        ; [CPU_] |725| 
    2859              $C$DW$197       .dwtag  DW_TAG_TI_branch
    2860                      .dwattr $C$DW$197, DW_AT_low_pc(0x00)
    2861                      .dwattr $C$DW$197, DW_AT_TI_return
    2862 0000037f 0006          LRETR     ; [CPU_] 
    2863                      ; return occurs ; [] 
    2864                      .dwattr $C$DW$194, DW_AT_TI_end_file("D:/BM1000_v1.1/sw/drivers/drvic/fsm.c")
    2865                      .dwattr $C$DW$194, DW_AT_TI_end_line(0x2da)
    2866                      .dwattr $C$DW$194, DW_AT_TI_end_column(0x01)
    2867                      .dwendentry
    2868                      .dwendtag $C$DW$194
    2869              
    2870 00000380               .sect   ".text"
    2871                      .clink
    2872                      .global _FSM_CheckContactSensor2
    2873              
    2874              $C$DW$198       .dwtag  DW_TAG_subprogram, DW_AT_name("FSM_CheckContactSensor2")
    2875                      .dwattr $C$DW$198, DW_AT_low_pc(_FSM_CheckContactSensor2)
    2876                      .dwattr $C$DW$198, DW_AT_high_pc(0x00)
    2877                      .dwattr $C$DW$198, DW_AT_TI_symbol_name("_FSM_CheckContactSensor2")
    2878                      .dwattr $C$DW$198, DW_AT_external
    2879                      .dwattr $C$DW$198, DW_AT_TI_begin_file("D:/BM1000_v1.1/sw/drivers/drvic/fsm.c")
    2880                      .dwattr $C$DW$198, DW_AT_TI_begin_line(0x28c)
    2881                      .dwattr $C$DW$198, DW_AT_TI_begin_column(0x06)
    2882                      .dwattr $C$DW$198, DW_AT_TI_max_frame_size(-2)
    2883                      .dwpsn  file "D:/BM1000_v1.1/sw/drivers/drvic/fsm.c",line 653,column 1,is_stmt,address _FSM_CheckCont
    2884              
    2885                      .dwfde $C$DW$CIE, _FSM_CheckContactSensor2
    2886              $C$DW$199       .dwtag  DW_TAG_formal_parameter, DW_AT_name("handle")
    2887                      .dwattr $C$DW$199, DW_AT_TI_symbol_name("_handle")
    2888                      .dwattr $C$DW$199, DW_AT_type(*$C$DW$T$169)
TMS320C2000 Assembler PC v6.2.5 Wed Nov 22 14:48:16 2017

Tools Copyright (c) 1996-2014 Texas Instruments Incorporated
C:\Users\wmj\AppData\Local\Temp\1257612                              PAGE   57

    2889                      .dwattr $C$DW$199, DW_AT_location[DW_OP_reg12]
    2890              
    2891              ;***************************************************************
    2892              ;* FNAME: _FSM_CheckContactSensor2      FR SIZE:   0           *
    2893              ;*                                                             *
    2894              ;* FUNCTION ENVIRONMENT                                        *
    2895              ;*                                                             *
    2896              ;* FUNCTION PROPERTIES                                         *
    2897              ;*                            0 Parameter,  0 Auto,  0 SOE     *
    2898              ;***************************************************************
    2899              
    2900              _FSM_CheckContactSensor2:
    2901              ;* AR5   assigned to $O$v1
    2902              ;* AR4   assigned to _handle
    2903              $C$DW$200       .dwtag  DW_TAG_variable, DW_AT_name("handle")
    2904                      .dwattr $C$DW$200, DW_AT_TI_symbol_name("_handle")
    2905                      .dwattr $C$DW$200, DW_AT_type(*$C$DW$T$170)
    2906                      .dwattr $C$DW$200, DW_AT_location[DW_OP_reg12]
    2907                      .dwcfi  cfa_offset, -2
    2908                      .dwcfi  save_reg_to_mem, 26, 0
    2909                      .dwcfi  save_reg_to_reg, 78, 26
    2910                      .dwpsn  file "D:/BM1000_v1.1/sw/drivers/drvic/fsm.c",line 656,column 3,is_stmt
    2911 00000380 83C4          MOVL      XAR5,*+XAR4[0]        ; [CPU_] |656| 
    2912 00000381 D015          MOVB      XAR0,#21              ; [CPU_] |656| 
    2913 00000382 0E94          MOVU      ACC,*+XAR4[AR0]       ; [CPU_] |656| 
    2914 00000383 D066          MOVB      XAR0,#102             ; [CPU_] |656| 
    2915 00000384 0F95          CMPL      ACC,*+XAR5[AR0]       ; [CPU_] |656| 
    2916 00000385 6206          B         $C$L44,GT             ; [CPU_] |656| 
    2917                      ; branchcc occurs ; [] |656| 
    2918                      .dwpsn  file "D:/BM1000_v1.1/sw/drivers/drvic/fsm.c",line 663,column 4,is_stmt
    2919 00000386 D009          MOVB      XAR0,#9               ; [CPU_] |663| 
    2920 00000387 2B94          MOV       *+XAR4[AR0],#0        ; [CPU_] |663| 
    2921                      .dwpsn  file "D:/BM1000_v1.1/sw/drivers/drvic/fsm.c",line 664,column 4,is_stmt
    2922 00000388 D00D          MOVB      XAR0,#13              ; [CPU_] |664| 
    2923 00000389 2B95          MOV       *+XAR5[AR0],#0        ; [CPU_] |664| 
    2924              $C$DW$201       .dwtag  DW_TAG_TI_branch
    2925                      .dwattr $C$DW$201, DW_AT_low_pc(0x00)
    2926                      .dwattr $C$DW$201, DW_AT_TI_return
    2927 0000038a 0006          LRETR     ; [CPU_] 
    2928                      ; return occurs ; [] 
    2929 0000038b       $C$L44:    
    2930                      .dwpsn  file "D:/BM1000_v1.1/sw/drivers/drvic/fsm.c",line 658,column 4,is_stmt
    2931 0000038b D00D          MOVB      XAR0,#13              ; [CPU_] |658| 
    2932 0000038c 56BF          MOVB      *+XAR5[AR0],#1,UNC    ; [CPU_] |658| 
         0000038d 0195 
    2933                      .dwpsn  file "D:/BM1000_v1.1/sw/drivers/drvic/fsm.c",line 659,column 4,is_stmt
    2934 0000038e D009          MOVB      XAR0,#9               ; [CPU_] |659| 
    2935 0000038f 56BF          MOVB      *+XAR4[AR0],#7,UNC    ; [CPU_] |659| 
         00000390 0794 
    2936              $C$DW$202       .dwtag  DW_TAG_TI_branch
    2937                      .dwattr $C$DW$202, DW_AT_low_pc(0x00)
    2938                      .dwattr $C$DW$202, DW_AT_TI_return
    2939 00000391 0006          LRETR     ; [CPU_] 
    2940                      ; return occurs ; [] 
    2941                      .dwattr $C$DW$198, DW_AT_TI_end_file("D:/BM1000_v1.1/sw/drivers/drvic/fsm.c")
TMS320C2000 Assembler PC v6.2.5 Wed Nov 22 14:48:16 2017

Tools Copyright (c) 1996-2014 Texas Instruments Incorporated
C:\Users\wmj\AppData\Local\Temp\1257612                              PAGE   58

    2942                      .dwattr $C$DW$198, DW_AT_TI_end_line(0x29c)
    2943                      .dwattr $C$DW$198, DW_AT_TI_end_column(0x01)
    2944                      .dwendentry
    2945                      .dwendtag $C$DW$198
    2946              
    2947 00000392               .sect   ".text"
    2948                      .clink
    2949                      .global _FSM_CheckContactSensor1
    2950              
    2951              $C$DW$203       .dwtag  DW_TAG_subprogram, DW_AT_name("FSM_CheckContactSensor1")
    2952                      .dwattr $C$DW$203, DW_AT_low_pc(_FSM_CheckContactSensor1)
    2953                      .dwattr $C$DW$203, DW_AT_high_pc(0x00)
    2954                      .dwattr $C$DW$203, DW_AT_TI_symbol_name("_FSM_CheckContactSensor1")
    2955                      .dwattr $C$DW$203, DW_AT_external
    2956                      .dwattr $C$DW$203, DW_AT_TI_begin_file("D:/BM1000_v1.1/sw/drivers/drvic/fsm.c")
    2957                      .dwattr $C$DW$203, DW_AT_TI_begin_line(0x27a)
    2958                      .dwattr $C$DW$203, DW_AT_TI_begin_column(0x06)
    2959                      .dwattr $C$DW$203, DW_AT_TI_max_frame_size(-2)
    2960                      .dwpsn  file "D:/BM1000_v1.1/sw/drivers/drvic/fsm.c",line 635,column 1,is_stmt,address _FSM_CheckCont
    2961              
    2962                      .dwfde $C$DW$CIE, _FSM_CheckContactSensor1
    2963              $C$DW$204       .dwtag  DW_TAG_formal_parameter, DW_AT_name("handle")
    2964                      .dwattr $C$DW$204, DW_AT_TI_symbol_name("_handle")
    2965                      .dwattr $C$DW$204, DW_AT_type(*$C$DW$T$169)
    2966                      .dwattr $C$DW$204, DW_AT_location[DW_OP_reg12]
    2967              
    2968              ;***************************************************************
    2969              ;* FNAME: _FSM_CheckContactSensor1      FR SIZE:   0           *
    2970              ;*                                                             *
    2971              ;* FUNCTION ENVIRONMENT                                        *
    2972              ;*                                                             *
    2973              ;* FUNCTION PROPERTIES                                         *
    2974              ;*                            0 Parameter,  0 Auto,  0 SOE     *
    2975              ;***************************************************************
    2976              
    2977              _FSM_CheckContactSensor1:
    2978              ;* AR5   assigned to $O$v1
    2979              ;* AR4   assigned to _handle
    2980              $C$DW$205       .dwtag  DW_TAG_variable, DW_AT_name("handle")
    2981                      .dwattr $C$DW$205, DW_AT_TI_symbol_name("_handle")
    2982                      .dwattr $C$DW$205, DW_AT_type(*$C$DW$T$170)
    2983                      .dwattr $C$DW$205, DW_AT_location[DW_OP_reg12]
    2984                      .dwcfi  cfa_offset, -2
    2985                      .dwcfi  save_reg_to_mem, 26, 0
    2986                      .dwcfi  save_reg_to_reg, 78, 26
    2987                      .dwpsn  file "D:/BM1000_v1.1/sw/drivers/drvic/fsm.c",line 638,column 3,is_stmt
    2988 00000392 83C4          MOVL      XAR5,*+XAR4[0]        ; [CPU_] |638| 
    2989 00000393 D015          MOVB      XAR0,#21              ; [CPU_] |638| 
    2990 00000394 0E94          MOVU      ACC,*+XAR4[AR0]       ; [CPU_] |638| 
    2991 00000395 D064          MOVB      XAR0,#100             ; [CPU_] |638| 
    2992 00000396 0F95          CMPL      ACC,*+XAR5[AR0]       ; [CPU_] |638| 
    2993 00000397 6206          B         $C$L45,GT             ; [CPU_] |638| 
    2994                      ; branchcc occurs ; [] |638| 
    2995                      .dwpsn  file "D:/BM1000_v1.1/sw/drivers/drvic/fsm.c",line 645,column 4,is_stmt
    2996 00000398 D009          MOVB      XAR0,#9               ; [CPU_] |645| 
TMS320C2000 Assembler PC v6.2.5 Wed Nov 22 14:48:16 2017

Tools Copyright (c) 1996-2014 Texas Instruments Incorporated
C:\Users\wmj\AppData\Local\Temp\1257612                              PAGE   59

    2997 00000399 2B94          MOV       *+XAR4[AR0],#0        ; [CPU_] |645| 
    2998                      .dwpsn  file "D:/BM1000_v1.1/sw/drivers/drvic/fsm.c",line 646,column 4,is_stmt
    2999 0000039a D00D          MOVB      XAR0,#13              ; [CPU_] |646| 
    3000 0000039b 2B95          MOV       *+XAR5[AR0],#0        ; [CPU_] |646| 
    3001              $C$DW$206       .dwtag  DW_TAG_TI_branch
    3002                      .dwattr $C$DW$206, DW_AT_low_pc(0x00)
    3003                      .dwattr $C$DW$206, DW_AT_TI_return
    3004 0000039c 0006          LRETR     ; [CPU_] 
    3005                      ; return occurs ; [] 
    3006 0000039d       $C$L45:    
    3007                      .dwpsn  file "D:/BM1000_v1.1/sw/drivers/drvic/fsm.c",line 640,column 4,is_stmt
    3008 0000039d D00D          MOVB      XAR0,#13              ; [CPU_] |640| 
    3009 0000039e 56BF          MOVB      *+XAR5[AR0],#1,UNC    ; [CPU_] |640| 
         0000039f 0195 
    3010                      .dwpsn  file "D:/BM1000_v1.1/sw/drivers/drvic/fsm.c",line 641,column 4,is_stmt
    3011 000003a0 D009          MOVB      XAR0,#9               ; [CPU_] |641| 
    3012 000003a1 56BF          MOVB      *+XAR4[AR0],#7,UNC    ; [CPU_] |641| 
         000003a2 0794 
    3013              $C$DW$207       .dwtag  DW_TAG_TI_branch
    3014                      .dwattr $C$DW$207, DW_AT_low_pc(0x00)
    3015                      .dwattr $C$DW$207, DW_AT_TI_return
    3016 000003a3 0006          LRETR     ; [CPU_] 
    3017                      ; return occurs ; [] 
    3018                      .dwattr $C$DW$203, DW_AT_TI_end_file("D:/BM1000_v1.1/sw/drivers/drvic/fsm.c")
    3019                      .dwattr $C$DW$203, DW_AT_TI_end_line(0x28a)
    3020                      .dwattr $C$DW$203, DW_AT_TI_end_column(0x01)
    3021                      .dwendentry
    3022                      .dwendtag $C$DW$203
    3023              
    3024 000003a4               .sect   ".text"
    3025                      .clink
    3026                      .global _FSM_CheckAnalogSensor2
    3027              
    3028              $C$DW$208       .dwtag  DW_TAG_subprogram, DW_AT_name("FSM_CheckAnalogSensor2")
    3029                      .dwattr $C$DW$208, DW_AT_low_pc(_FSM_CheckAnalogSensor2)
    3030                      .dwattr $C$DW$208, DW_AT_high_pc(0x00)
    3031                      .dwattr $C$DW$208, DW_AT_TI_symbol_name("_FSM_CheckAnalogSensor2")
    3032                      .dwattr $C$DW$208, DW_AT_external
    3033                      .dwattr $C$DW$208, DW_AT_TI_begin_file("D:/BM1000_v1.1/sw/drivers/drvic/fsm.c")
    3034                      .dwattr $C$DW$208, DW_AT_TI_begin_line(0x265)
    3035                      .dwattr $C$DW$208, DW_AT_TI_begin_column(0x06)
    3036                      .dwattr $C$DW$208, DW_AT_TI_max_frame_size(-6)
    3037                      .dwpsn  file "D:/BM1000_v1.1/sw/drivers/drvic/fsm.c",line 614,column 1,is_stmt,address _FSM_CheckAnal
    3038              
    3039                      .dwfde $C$DW$CIE, _FSM_CheckAnalogSensor2
    3040              $C$DW$209       .dwtag  DW_TAG_formal_parameter, DW_AT_name("handle")
    3041                      .dwattr $C$DW$209, DW_AT_TI_symbol_name("_handle")
    3042                      .dwattr $C$DW$209, DW_AT_type(*$C$DW$T$169)
    3043                      .dwattr $C$DW$209, DW_AT_location[DW_OP_reg12]
    3044              
    3045              ;***************************************************************
    3046              ;* FNAME: _FSM_CheckAnalogSensor2       FR SIZE:   4           *
    3047              ;*                                                             *
    3048              ;* FUNCTION ENVIRONMENT                                        *
    3049              ;*                                                             *
TMS320C2000 Assembler PC v6.2.5 Wed Nov 22 14:48:16 2017

Tools Copyright (c) 1996-2014 Texas Instruments Incorporated
C:\Users\wmj\AppData\Local\Temp\1257612                              PAGE   60

    3050              ;* FUNCTION PROPERTIES                                         *
    3051              ;*                            0 Parameter,  4 Auto,  0 SOE     *
    3052              ;***************************************************************
    3053              
    3054              _FSM_CheckAnalogSensor2:
    3055              ;* AR6   assigned to $O$C1
    3056              ;* AR4   assigned to _handle
    3057              $C$DW$210       .dwtag  DW_TAG_variable, DW_AT_name("handle")
    3058                      .dwattr $C$DW$210, DW_AT_TI_symbol_name("_handle")
    3059                      .dwattr $C$DW$210, DW_AT_type(*$C$DW$T$170)
    3060                      .dwattr $C$DW$210, DW_AT_location[DW_OP_reg12]
    3061              $C$DW$211       .dwtag  DW_TAG_variable, DW_AT_name("SensorError")
    3062                      .dwattr $C$DW$211, DW_AT_TI_symbol_name("_SensorError")
    3063                      .dwattr $C$DW$211, DW_AT_type(*$C$DW$T$253)
    3064                      .dwattr $C$DW$211, DW_AT_location[DW_OP_breg20 -2]
    3065              $C$DW$212       .dwtag  DW_TAG_variable, DW_AT_name("ObjecteValue")
    3066                      .dwattr $C$DW$212, DW_AT_TI_symbol_name("_ObjecteValue")
    3067                      .dwattr $C$DW$212, DW_AT_type(*$C$DW$T$253)
    3068                      .dwattr $C$DW$212, DW_AT_location[DW_OP_breg20 -4]
    3069                      .dwcfi  cfa_offset, -2
    3070                      .dwcfi  save_reg_to_mem, 26, 0
    3071                      .dwcfi  save_reg_to_reg, 78, 26
    3072 000003a4 FE04          ADDB      SP,#4                 ; [CPU_U] 
    3073                      .dwcfi  cfa_offset, -6
    3074                      .dwpsn  file "D:/BM1000_v1.1/sw/drivers/drvic/fsm.c",line 617,column 28,is_stmt
    3075 000003a5 0200          MOVB      ACC,#0                ; [CPU_] |617| 
    3076                      .dwpsn  file "D:/BM1000_v1.1/sw/drivers/drvic/fsm.c",line 620,column 3,is_stmt
    3077 000003a6 D015          MOVB      XAR0,#21              ; [CPU_] |620| 
    3078                      .dwpsn  file "D:/BM1000_v1.1/sw/drivers/drvic/fsm.c",line 617,column 28,is_stmt
    3079 000003a7 1E42          MOVL      *-SP[2],ACC           ; [CPU_] |617| 
    3080                      .dwpsn  file "D:/BM1000_v1.1/sw/drivers/drvic/fsm.c",line 618,column 29,is_stmt
    3081 000003a8 1E44          MOVL      *-SP[4],ACC           ; [CPU_] |618| 
    3082                      .dwpsn  file "D:/BM1000_v1.1/sw/drivers/drvic/fsm.c",line 620,column 3,is_stmt
    3083 000003a9 8894          MOVZ      AR6,*+XAR4[AR0]       ; [CPU_] |620| 
    3084 000003aa 8F42          MOVL      XAR5,#167772          ; [CPU_U] |620| 
         000003ab 8F5C 
    3085 000003ac A0AC          MOVL      XT,XAR5               ; [CPU_] |620| 
    3086 000003ad 0EA6          MOVU      ACC,AR6               ; [CPU_] |620| 
    3087 000003ae 5605          IMPYL     P,XT,ACC              ; [CPU_] |620| 
         000003af 00A9 
    3088 000003b0 5663          QMPYL     ACC,XT,ACC            ; [CPU_] |620| 
         000003b1 00A9 
    3089 000003b2 56A7          LSL64     ACC:P,#8              ; [CPU_] |620| 
    3090 000003b3 1E44          MOVL      *-SP[4],ACC           ; [CPU_] |620| 
    3091                      .dwpsn  file "D:/BM1000_v1.1/sw/drivers/drvic/fsm.c",line 621,column 3,is_stmt
    3092 000003b4 83C4          MOVL      XAR5,*+XAR4[0]        ; [CPU_] |621| 
    3093 000003b5 D066          MOVB      XAR0,#102             ; [CPU_] |621| 
    3094 000003b6 88A6          MOVZ      AR6,AR6               ; [CPU_] |621| 
    3095 000003b7 0695          MOVL      ACC,*+XAR5[AR0]       ; [CPU_] |621| 
    3096 000003b8 03A6          SUBL      ACC,XAR6              ; [CPU_] |621| 
    3097 000003b9 1E42          MOVL      *-SP[2],ACC           ; [CPU_] |621| 
    3098                      .dwpsn  file "D:/BM1000_v1.1/sw/drivers/drvic/fsm.c",line 622,column 3,is_stmt
    3099 000003ba FF56          ABS       ACC                   ; [CPU_] |622| 
    3100 000003bb 0F44          CMPL      ACC,*-SP[4]           ; [CPU_] |622| 
    3101 000003bc 6404          B         $C$L46,LT             ; [CPU_] |622| 
TMS320C2000 Assembler PC v6.2.5 Wed Nov 22 14:48:16 2017

Tools Copyright (c) 1996-2014 Texas Instruments Incorporated
C:\Users\wmj\AppData\Local\Temp\1257612                              PAGE   61

    3102                      ; branchcc occurs ; [] |622| 
    3103                      .dwpsn  file "D:/BM1000_v1.1/sw/drivers/drvic/fsm.c",line 628,column 4,is_stmt
    3104 000003bd D009          MOVB      XAR0,#9               ; [CPU_] |628| 
    3105 000003be 2B94          MOV       *+XAR4[AR0],#0        ; [CPU_] |628| 
    3106 000003bf 6F04          B         $C$L47,UNC            ; [CPU_] |628| 
    3107                      ; branch occurs ; [] |628| 
    3108 000003c0       $C$L46:    
    3109                      .dwpsn  file "D:/BM1000_v1.1/sw/drivers/drvic/fsm.c",line 624,column 4,is_stmt
    3110 000003c0 D009          MOVB      XAR0,#9               ; [CPU_] |624| 
    3111 000003c1 56BF          MOVB      *+XAR4[AR0],#6,UNC    ; [CPU_] |624| 
         000003c2 0694 
    3112 000003c3       $C$L47:    
    3113 000003c3 FE84          SUBB      SP,#4                 ; [CPU_U] 
    3114                      .dwcfi  cfa_offset, -2
    3115              $C$DW$213       .dwtag  DW_TAG_TI_branch
    3116                      .dwattr $C$DW$213, DW_AT_low_pc(0x00)
    3117                      .dwattr $C$DW$213, DW_AT_TI_return
    3118 000003c4 0006          LRETR     ; [CPU_] 
    3119                      ; return occurs ; [] 
    3120                      .dwattr $C$DW$208, DW_AT_TI_end_file("D:/BM1000_v1.1/sw/drivers/drvic/fsm.c")
    3121                      .dwattr $C$DW$208, DW_AT_TI_end_line(0x278)
    3122                      .dwattr $C$DW$208, DW_AT_TI_end_column(0x01)
    3123                      .dwendentry
    3124                      .dwendtag $C$DW$208
    3125              
    3126 000003c5               .sect   ".text"
    3127                      .clink
    3128                      .global _FSM_CheckAnalogSensor1
    3129              
    3130              $C$DW$214       .dwtag  DW_TAG_subprogram, DW_AT_name("FSM_CheckAnalogSensor1")
    3131                      .dwattr $C$DW$214, DW_AT_low_pc(_FSM_CheckAnalogSensor1)
    3132                      .dwattr $C$DW$214, DW_AT_high_pc(0x00)
    3133                      .dwattr $C$DW$214, DW_AT_TI_symbol_name("_FSM_CheckAnalogSensor1")
    3134                      .dwattr $C$DW$214, DW_AT_external
    3135                      .dwattr $C$DW$214, DW_AT_TI_begin_file("D:/BM1000_v1.1/sw/drivers/drvic/fsm.c")
    3136                      .dwattr $C$DW$214, DW_AT_TI_begin_line(0x24f)
    3137                      .dwattr $C$DW$214, DW_AT_TI_begin_column(0x06)
    3138                      .dwattr $C$DW$214, DW_AT_TI_max_frame_size(-6)
    3139                      .dwpsn  file "D:/BM1000_v1.1/sw/drivers/drvic/fsm.c",line 592,column 1,is_stmt,address _FSM_CheckAnal
    3140              
    3141                      .dwfde $C$DW$CIE, _FSM_CheckAnalogSensor1
    3142              $C$DW$215       .dwtag  DW_TAG_formal_parameter, DW_AT_name("handle")
    3143                      .dwattr $C$DW$215, DW_AT_TI_symbol_name("_handle")
    3144                      .dwattr $C$DW$215, DW_AT_type(*$C$DW$T$169)
    3145                      .dwattr $C$DW$215, DW_AT_location[DW_OP_reg12]
    3146              
    3147              ;***************************************************************
    3148              ;* FNAME: _FSM_CheckAnalogSensor1       FR SIZE:   4           *
    3149              ;*                                                             *
    3150              ;* FUNCTION ENVIRONMENT                                        *
    3151              ;*                                                             *
    3152              ;* FUNCTION PROPERTIES                                         *
    3153              ;*                            0 Parameter,  4 Auto,  0 SOE     *
    3154              ;***************************************************************
    3155              
TMS320C2000 Assembler PC v6.2.5 Wed Nov 22 14:48:16 2017

Tools Copyright (c) 1996-2014 Texas Instruments Incorporated
C:\Users\wmj\AppData\Local\Temp\1257612                              PAGE   62

    3156              _FSM_CheckAnalogSensor1:
    3157              ;* AR6   assigned to $O$C1
    3158              ;* AR4   assigned to _handle
    3159              $C$DW$216       .dwtag  DW_TAG_variable, DW_AT_name("handle")
    3160                      .dwattr $C$DW$216, DW_AT_TI_symbol_name("_handle")
    3161                      .dwattr $C$DW$216, DW_AT_type(*$C$DW$T$170)
    3162                      .dwattr $C$DW$216, DW_AT_location[DW_OP_reg12]
    3163              $C$DW$217       .dwtag  DW_TAG_variable, DW_AT_name("SensorError")
    3164                      .dwattr $C$DW$217, DW_AT_TI_symbol_name("_SensorError")
    3165                      .dwattr $C$DW$217, DW_AT_type(*$C$DW$T$253)
    3166                      .dwattr $C$DW$217, DW_AT_location[DW_OP_breg20 -2]
    3167              $C$DW$218       .dwtag  DW_TAG_variable, DW_AT_name("ObjecteValue")
    3168                      .dwattr $C$DW$218, DW_AT_TI_symbol_name("_ObjecteValue")
    3169                      .dwattr $C$DW$218, DW_AT_type(*$C$DW$T$253)
    3170                      .dwattr $C$DW$218, DW_AT_location[DW_OP_breg20 -4]
    3171                      .dwcfi  cfa_offset, -2
    3172                      .dwcfi  save_reg_to_mem, 26, 0
    3173                      .dwcfi  save_reg_to_reg, 78, 26
    3174 000003c5 FE04          ADDB      SP,#4                 ; [CPU_U] 
    3175                      .dwcfi  cfa_offset, -6
    3176                      .dwpsn  file "D:/BM1000_v1.1/sw/drivers/drvic/fsm.c",line 595,column 28,is_stmt
    3177 000003c6 0200          MOVB      ACC,#0                ; [CPU_] |595| 
    3178                      .dwpsn  file "D:/BM1000_v1.1/sw/drivers/drvic/fsm.c",line 599,column 3,is_stmt
    3179 000003c7 D015          MOVB      XAR0,#21              ; [CPU_] |599| 
    3180                      .dwpsn  file "D:/BM1000_v1.1/sw/drivers/drvic/fsm.c",line 595,column 28,is_stmt
    3181 000003c8 1E42          MOVL      *-SP[2],ACC           ; [CPU_] |595| 
    3182                      .dwpsn  file "D:/BM1000_v1.1/sw/drivers/drvic/fsm.c",line 596,column 29,is_stmt
    3183 000003c9 1E44          MOVL      *-SP[4],ACC           ; [CPU_] |596| 
    3184                      .dwpsn  file "D:/BM1000_v1.1/sw/drivers/drvic/fsm.c",line 599,column 3,is_stmt
    3185 000003ca 8894          MOVZ      AR6,*+XAR4[AR0]       ; [CPU_] |599| 
    3186 000003cb 8F42          MOVL      XAR5,#167772          ; [CPU_U] |599| 
         000003cc 8F5C 
    3187 000003cd A0AC          MOVL      XT,XAR5               ; [CPU_] |599| 
    3188 000003ce 0EA6          MOVU      ACC,AR6               ; [CPU_] |599| 
    3189 000003cf 5605          IMPYL     P,XT,ACC              ; [CPU_] |599| 
         000003d0 00A9 
    3190 000003d1 5663          QMPYL     ACC,XT,ACC            ; [CPU_] |599| 
         000003d2 00A9 
    3191 000003d3 56A7          LSL64     ACC:P,#8              ; [CPU_] |599| 
    3192 000003d4 1E44          MOVL      *-SP[4],ACC           ; [CPU_] |599| 
    3193                      .dwpsn  file "D:/BM1000_v1.1/sw/drivers/drvic/fsm.c",line 600,column 3,is_stmt
    3194 000003d5 83C4          MOVL      XAR5,*+XAR4[0]        ; [CPU_] |600| 
    3195 000003d6 D064          MOVB      XAR0,#100             ; [CPU_] |600| 
    3196 000003d7 88A6          MOVZ      AR6,AR6               ; [CPU_] |600| 
    3197 000003d8 0695          MOVL      ACC,*+XAR5[AR0]       ; [CPU_] |600| 
    3198 000003d9 03A6          SUBL      ACC,XAR6              ; [CPU_] |600| 
    3199 000003da 1E42          MOVL      *-SP[2],ACC           ; [CPU_] |600| 
    3200                      .dwpsn  file "D:/BM1000_v1.1/sw/drivers/drvic/fsm.c",line 601,column 3,is_stmt
    3201 000003db FF56          ABS       ACC                   ; [CPU_] |601| 
    3202 000003dc 0F44          CMPL      ACC,*-SP[4]           ; [CPU_] |601| 
    3203 000003dd 6404          B         $C$L48,LT             ; [CPU_] |601| 
    3204                      ; branchcc occurs ; [] |601| 
    3205                      .dwpsn  file "D:/BM1000_v1.1/sw/drivers/drvic/fsm.c",line 607,column 5,is_stmt
    3206 000003de D009          MOVB      XAR0,#9               ; [CPU_] |607| 
    3207 000003df 2B94          MOV       *+XAR4[AR0],#0        ; [CPU_] |607| 
TMS320C2000 Assembler PC v6.2.5 Wed Nov 22 14:48:16 2017

Tools Copyright (c) 1996-2014 Texas Instruments Incorporated
C:\Users\wmj\AppData\Local\Temp\1257612                              PAGE   63

    3208 000003e0 6F04          B         $C$L49,UNC            ; [CPU_] |607| 
    3209                      ; branch occurs ; [] |607| 
    3210 000003e1       $C$L48:    
    3211                      .dwpsn  file "D:/BM1000_v1.1/sw/drivers/drvic/fsm.c",line 603,column 5,is_stmt
    3212 000003e1 D009          MOVB      XAR0,#9               ; [CPU_] |603| 
    3213 000003e2 56BF          MOVB      *+XAR4[AR0],#6,UNC    ; [CPU_] |603| 
         000003e3 0694 
    3214 000003e4       $C$L49:    
    3215 000003e4 FE84          SUBB      SP,#4                 ; [CPU_U] 
    3216                      .dwcfi  cfa_offset, -2
    3217              $C$DW$219       .dwtag  DW_TAG_TI_branch
    3218                      .dwattr $C$DW$219, DW_AT_low_pc(0x00)
    3219                      .dwattr $C$DW$219, DW_AT_TI_return
    3220 000003e5 0006          LRETR     ; [CPU_] 
    3221                      ; return occurs ; [] 
    3222                      .dwattr $C$DW$214, DW_AT_TI_end_file("D:/BM1000_v1.1/sw/drivers/drvic/fsm.c")
    3223                      .dwattr $C$DW$214, DW_AT_TI_end_line(0x263)
    3224                      .dwattr $C$DW$214, DW_AT_TI_end_column(0x01)
    3225                      .dwendentry
    3226                      .dwendtag $C$DW$214
    3227              
    3228 000003e6               .sect   ".text"
    3229                      .clink
    3230                      .global _FSM_CheckKeySensor2
    3231              
    3232              $C$DW$220       .dwtag  DW_TAG_subprogram, DW_AT_name("FSM_CheckKeySensor2")
    3233                      .dwattr $C$DW$220, DW_AT_low_pc(_FSM_CheckKeySensor2)
    3234                      .dwattr $C$DW$220, DW_AT_high_pc(0x00)
    3235                      .dwattr $C$DW$220, DW_AT_TI_symbol_name("_FSM_CheckKeySensor2")
    3236                      .dwattr $C$DW$220, DW_AT_external
    3237                      .dwattr $C$DW$220, DW_AT_TI_begin_file("D:/BM1000_v1.1/sw/drivers/drvic/fsm.c")
    3238                      .dwattr $C$DW$220, DW_AT_TI_begin_line(0x21f)
    3239                      .dwattr $C$DW$220, DW_AT_TI_begin_column(0x06)
    3240                      .dwattr $C$DW$220, DW_AT_TI_max_frame_size(-4)
    3241                      .dwpsn  file "D:/BM1000_v1.1/sw/drivers/drvic/fsm.c",line 544,column 1,is_stmt,address _FSM_CheckKeyS
    3242              
    3243                      .dwfde $C$DW$CIE, _FSM_CheckKeySensor2
    3244              $C$DW$221       .dwtag  DW_TAG_formal_parameter, DW_AT_name("handle")
    3245                      .dwattr $C$DW$221, DW_AT_TI_symbol_name("_handle")
    3246                      .dwattr $C$DW$221, DW_AT_type(*$C$DW$T$169)
    3247                      .dwattr $C$DW$221, DW_AT_location[DW_OP_reg12]
    3248              
    3249              ;***************************************************************
    3250              ;* FNAME: _FSM_CheckKeySensor2          FR SIZE:   2           *
    3251              ;*                                                             *
    3252              ;* FUNCTION ENVIRONMENT                                        *
    3253              ;*                                                             *
    3254              ;* FUNCTION PROPERTIES                                         *
    3255              ;*                            0 Parameter,  0 Auto,  2 SOE     *
    3256              ;***************************************************************
    3257              
    3258              _FSM_CheckKeySensor2:
    3259              ;* AR1   assigned to _handle
    3260              $C$DW$222       .dwtag  DW_TAG_variable, DW_AT_name("handle")
    3261                      .dwattr $C$DW$222, DW_AT_TI_symbol_name("_handle")
TMS320C2000 Assembler PC v6.2.5 Wed Nov 22 14:48:16 2017

Tools Copyright (c) 1996-2014 Texas Instruments Incorporated
C:\Users\wmj\AppData\Local\Temp\1257612                              PAGE   64

    3262                      .dwattr $C$DW$222, DW_AT_type(*$C$DW$T$170)
    3263                      .dwattr $C$DW$222, DW_AT_location[DW_OP_reg6]
    3264                      .dwcfi  cfa_offset, -2
    3265                      .dwcfi  save_reg_to_mem, 26, 0
    3266                      .dwcfi  save_reg_to_reg, 78, 26
    3267 000003e6 B2BD          MOVL      *SP++,XAR1            ; [CPU_] 
    3268                      .dwcfi  save_reg_to_mem, 7, 2
    3269                      .dwcfi  cfa_offset, -4
    3270 000003e7 8BA4          MOVL      XAR1,XAR4             ; [CPU_] |544| 
    3271                      .dwpsn  file "D:/BM1000_v1.1/sw/modules/hal/boards/hvkit_rev1p1/f28x/f2802x/src/hal.h",line 821,colum
    3272 000003e8 8AD1          MOVL      XAR4,*+XAR1[2]        ; [CPU_] |821| 
    3273 000003e9 D008          MOVB      XAR0,#8               ; [CPU_] |821| 
    3274 000003ea 9A07          MOVB      AL,#7                 ; [CPU_] |821| 
    3275 000003eb 8A94          MOVL      XAR4,*+XAR4[AR0]      ; [CPU_] |821| 
    3276              $C$DW$223       .dwtag  DW_TAG_TI_branch
    3277                      .dwattr $C$DW$223, DW_AT_low_pc(0x00)
    3278                      .dwattr $C$DW$223, DW_AT_name("_GPIO_read")
    3279                      .dwattr $C$DW$223, DW_AT_TI_call
    3280 000003ec 7640!         LCR       #_GPIO_read           ; [CPU_] |821| 
         000003ed 0000 
    3281                      ; call occurs [#_GPIO_read] ; [] |821| 
    3282 000003ee 5200          CMPB      AL,#0                 ; [CPU_] |821| 
    3283                      .dwpsn  file "D:/BM1000_v1.1/sw/drivers/drvic/fsm.c",line 565,column 5,is_stmt
    3284 000003ef 56B1          MOVB      XAR0,#9,EQ            ; [CPU_] |565| 
         000003f0 09A0 
    3285 000003f1 56B1          MOVB      *+XAR1[AR0],#5,EQ     ; [CPU_] |565| 
         000003f2 0591 
    3286 000003f3 EC03          BF        $C$L50,EQ             ; [CPU_] |565| 
    3287                      ; branchcc occurs ; [] |565| 
    3288                      .dwpsn  file "D:/BM1000_v1.1/sw/drivers/drvic/fsm.c",line 561,column 5,is_stmt
    3289 000003f4 D009          MOVB      XAR0,#9               ; [CPU_] |561| 
    3290 000003f5 2B91          MOV       *+XAR1[AR0],#0        ; [CPU_] |561| 
    3291 000003f6       $C$L50:    
    3292 000003f6 8BBE          MOVL      XAR1,*--SP            ; [CPU_] 
    3293                      .dwcfi  cfa_offset, -2
    3294                      .dwcfi  restore_reg, 7
    3295              $C$DW$224       .dwtag  DW_TAG_TI_branch
    3296                      .dwattr $C$DW$224, DW_AT_low_pc(0x00)
    3297                      .dwattr $C$DW$224, DW_AT_TI_return
    3298 000003f7 0006          LRETR     ; [CPU_] 
    3299                      ; return occurs ; [] 
    3300                      .dwattr $C$DW$220, DW_AT_TI_end_file("D:/BM1000_v1.1/sw/drivers/drvic/fsm.c")
    3301                      .dwattr $C$DW$220, DW_AT_TI_end_line(0x23b)
    3302                      .dwattr $C$DW$220, DW_AT_TI_end_column(0x01)
    3303                      .dwendentry
    3304                      .dwendtag $C$DW$220
    3305              
    3306 000003f8               .sect   ".text"
    3307                      .clink
    3308                      .global _FSM_CheckKeySensor1
    3309              
    3310              $C$DW$225       .dwtag  DW_TAG_subprogram, DW_AT_name("FSM_CheckKeySensor1")
    3311                      .dwattr $C$DW$225, DW_AT_low_pc(_FSM_CheckKeySensor1)
    3312                      .dwattr $C$DW$225, DW_AT_high_pc(0x00)
    3313                      .dwattr $C$DW$225, DW_AT_TI_symbol_name("_FSM_CheckKeySensor1")
TMS320C2000 Assembler PC v6.2.5 Wed Nov 22 14:48:16 2017

Tools Copyright (c) 1996-2014 Texas Instruments Incorporated
C:\Users\wmj\AppData\Local\Temp\1257612                              PAGE   65

    3314                      .dwattr $C$DW$225, DW_AT_external
    3315                      .dwattr $C$DW$225, DW_AT_TI_begin_file("D:/BM1000_v1.1/sw/drivers/drvic/fsm.c")
    3316                      .dwattr $C$DW$225, DW_AT_TI_begin_line(0x200)
    3317                      .dwattr $C$DW$225, DW_AT_TI_begin_column(0x06)
    3318                      .dwattr $C$DW$225, DW_AT_TI_max_frame_size(-4)
    3319                      .dwpsn  file "D:/BM1000_v1.1/sw/drivers/drvic/fsm.c",line 513,column 1,is_stmt,address _FSM_CheckKeyS
    3320              
    3321                      .dwfde $C$DW$CIE, _FSM_CheckKeySensor1
    3322              $C$DW$226       .dwtag  DW_TAG_formal_parameter, DW_AT_name("handle")
    3323                      .dwattr $C$DW$226, DW_AT_TI_symbol_name("_handle")
    3324                      .dwattr $C$DW$226, DW_AT_type(*$C$DW$T$169)
    3325                      .dwattr $C$DW$226, DW_AT_location[DW_OP_reg12]
    3326              
    3327              ;***************************************************************
    3328              ;* FNAME: _FSM_CheckKeySensor1          FR SIZE:   2           *
    3329              ;*                                                             *
    3330              ;* FUNCTION ENVIRONMENT                                        *
    3331              ;*                                                             *
    3332              ;* FUNCTION PROPERTIES                                         *
    3333              ;*                            0 Parameter,  0 Auto,  2 SOE     *
    3334              ;***************************************************************
    3335              
    3336              _FSM_CheckKeySensor1:
    3337              ;* AR1   assigned to _handle
    3338              $C$DW$227       .dwtag  DW_TAG_variable, DW_AT_name("handle")
    3339                      .dwattr $C$DW$227, DW_AT_TI_symbol_name("_handle")
    3340                      .dwattr $C$DW$227, DW_AT_type(*$C$DW$T$170)
    3341                      .dwattr $C$DW$227, DW_AT_location[DW_OP_reg6]
    3342                      .dwcfi  cfa_offset, -2
    3343                      .dwcfi  save_reg_to_mem, 26, 0
    3344                      .dwcfi  save_reg_to_reg, 78, 26
    3345 000003f8 B2BD          MOVL      *SP++,XAR1            ; [CPU_] 
    3346                      .dwcfi  save_reg_to_mem, 7, 2
    3347                      .dwcfi  cfa_offset, -4
    3348 000003f9 8BA4          MOVL      XAR1,XAR4             ; [CPU_] |513| 
    3349                      .dwpsn  file "D:/BM1000_v1.1/sw/modules/hal/boards/hvkit_rev1p1/f28x/f2802x/src/hal.h",line 821,colum
    3350 000003fa 8AD1          MOVL      XAR4,*+XAR1[2]        ; [CPU_] |821| 
    3351 000003fb D008          MOVB      XAR0,#8               ; [CPU_] |821| 
    3352 000003fc 9A06          MOVB      AL,#6                 ; [CPU_] |821| 
    3353 000003fd 8A94          MOVL      XAR4,*+XAR4[AR0]      ; [CPU_] |821| 
    3354              $C$DW$228       .dwtag  DW_TAG_TI_branch
    3355                      .dwattr $C$DW$228, DW_AT_low_pc(0x00)
    3356                      .dwattr $C$DW$228, DW_AT_name("_GPIO_read")
    3357                      .dwattr $C$DW$228, DW_AT_TI_call
    3358 000003fe 7640!         LCR       #_GPIO_read           ; [CPU_] |821| 
         000003ff 0000 
    3359                      ; call occurs [#_GPIO_read] ; [] |821| 
    3360 00000400 5200          CMPB      AL,#0                 ; [CPU_] |821| 
    3361                      .dwpsn  file "D:/BM1000_v1.1/sw/drivers/drvic/fsm.c",line 536,column 5,is_stmt
    3362 00000401 56B1          MOVB      XAR0,#9,EQ            ; [CPU_] |536| 
         00000402 09A0 
    3363 00000403 56B1          MOVB      *+XAR1[AR0],#4,EQ     ; [CPU_] |536| 
         00000404 0491 
    3364 00000405 EC03          BF        $C$L51,EQ             ; [CPU_] |536| 
    3365                      ; branchcc occurs ; [] |536| 
TMS320C2000 Assembler PC v6.2.5 Wed Nov 22 14:48:16 2017

Tools Copyright (c) 1996-2014 Texas Instruments Incorporated
C:\Users\wmj\AppData\Local\Temp\1257612                              PAGE   66

    3366                      .dwpsn  file "D:/BM1000_v1.1/sw/drivers/drvic/fsm.c",line 532,column 5,is_stmt
    3367 00000406 D009          MOVB      XAR0,#9               ; [CPU_] |532| 
    3368 00000407 2B91          MOV       *+XAR1[AR0],#0        ; [CPU_] |532| 
    3369 00000408       $C$L51:    
    3370 00000408 8BBE          MOVL      XAR1,*--SP            ; [CPU_] 
    3371                      .dwcfi  cfa_offset, -2
    3372                      .dwcfi  restore_reg, 7
    3373              $C$DW$229       .dwtag  DW_TAG_TI_branch
    3374                      .dwattr $C$DW$229, DW_AT_low_pc(0x00)
    3375                      .dwattr $C$DW$229, DW_AT_TI_return
    3376 00000409 0006          LRETR     ; [CPU_] 
    3377                      ; return occurs ; [] 
    3378                      .dwattr $C$DW$225, DW_AT_TI_end_file("D:/BM1000_v1.1/sw/drivers/drvic/fsm.c")
    3379                      .dwattr $C$DW$225, DW_AT_TI_end_line(0x21d)
    3380                      .dwattr $C$DW$225, DW_AT_TI_end_column(0x01)
    3381                      .dwendentry
    3382                      .dwendtag $C$DW$225
    3383              
    3384 0000040a               .sect   ".text"
    3385                      .clink
    3386                      .global _FSM_Check485Start
    3387              
    3388              $C$DW$230       .dwtag  DW_TAG_subprogram, DW_AT_name("FSM_Check485Start")
    3389                      .dwattr $C$DW$230, DW_AT_low_pc(_FSM_Check485Start)
    3390                      .dwattr $C$DW$230, DW_AT_high_pc(0x00)
    3391                      .dwattr $C$DW$230, DW_AT_TI_symbol_name("_FSM_Check485Start")
    3392                      .dwattr $C$DW$230, DW_AT_external
    3393                      .dwattr $C$DW$230, DW_AT_TI_begin_file("D:/BM1000_v1.1/sw/drivers/drvic/fsm.c")
    3394                      .dwattr $C$DW$230, DW_AT_TI_begin_line(0x23e)
    3395                      .dwattr $C$DW$230, DW_AT_TI_begin_column(0x06)
    3396                      .dwattr $C$DW$230, DW_AT_TI_max_frame_size(-2)
    3397                      .dwpsn  file "D:/BM1000_v1.1/sw/drivers/drvic/fsm.c",line 575,column 1,is_stmt,address _FSM_Check485S
    3398              
    3399                      .dwfde $C$DW$CIE, _FSM_Check485Start
    3400              $C$DW$231       .dwtag  DW_TAG_formal_parameter, DW_AT_name("handle")
    3401                      .dwattr $C$DW$231, DW_AT_TI_symbol_name("_handle")
    3402                      .dwattr $C$DW$231, DW_AT_type(*$C$DW$T$169)
    3403                      .dwattr $C$DW$231, DW_AT_location[DW_OP_reg12]
    3404              
    3405              ;***************************************************************
    3406              ;* FNAME: _FSM_Check485Start            FR SIZE:   0           *
    3407              ;*                                                             *
    3408              ;* FUNCTION ENVIRONMENT                                        *
    3409              ;*                                                             *
    3410              ;* FUNCTION PROPERTIES                                         *
    3411              ;*                            0 Parameter,  0 Auto,  0 SOE     *
    3412              ;***************************************************************
    3413              
    3414              _FSM_Check485Start:
    3415              ;* AR4   assigned to _handle
    3416              $C$DW$232       .dwtag  DW_TAG_variable, DW_AT_name("handle")
    3417                      .dwattr $C$DW$232, DW_AT_TI_symbol_name("_handle")
    3418                      .dwattr $C$DW$232, DW_AT_type(*$C$DW$T$170)
    3419                      .dwattr $C$DW$232, DW_AT_location[DW_OP_reg12]
    3420                      .dwcfi  cfa_offset, -2
TMS320C2000 Assembler PC v6.2.5 Wed Nov 22 14:48:16 2017

Tools Copyright (c) 1996-2014 Texas Instruments Incorporated
C:\Users\wmj\AppData\Local\Temp\1257612                              PAGE   67

    3421                      .dwcfi  save_reg_to_mem, 26, 0
    3422                      .dwcfi  save_reg_to_reg, 78, 26
    3423                      .dwpsn  file "D:/BM1000_v1.1/sw/drivers/drvic/fsm.c",line 580,column 5,is_stmt
    3424 0000040a D01E          MOVB      XAR0,#30              ; [CPU_] |580| 
    3425 0000040b 9294          MOV       AL,*+XAR4[AR0]        ; [CPU_] |580| 
    3426 0000040c EC03          BF        $C$L52,EQ             ; [CPU_] |580| 
    3427                      ; branchcc occurs ; [] |580| 
    3428 0000040d 9A03          MOVB      AL,#3                 ; [CPU_] |580| 
    3429 0000040e 6F02          B         $C$L53,UNC            ; [CPU_] |580| 
    3430                      ; branch occurs ; [] |580| 
    3431 0000040f       $C$L52:    
    3432 0000040f 9A00          MOVB      AL,#0                 ; [CPU_] |580| 
    3433 00000410       $C$L53:    
    3434 00000410 D009          MOVB      XAR0,#9               ; [CPU_] |580| 
    3435 00000411 9694          MOV       *+XAR4[AR0],AL        ; [CPU_] |580| 
    3436              $C$DW$233       .dwtag  DW_TAG_TI_branch
    3437                      .dwattr $C$DW$233, DW_AT_low_pc(0x00)
    3438                      .dwattr $C$DW$233, DW_AT_TI_return
    3439 00000412 0006          LRETR     ; [CPU_] 
    3440                      ; return occurs ; [] 
    3441                      .dwattr $C$DW$230, DW_AT_TI_end_file("D:/BM1000_v1.1/sw/drivers/drvic/fsm.c")
    3442                      .dwattr $C$DW$230, DW_AT_TI_end_line(0x24c)
    3443                      .dwattr $C$DW$230, DW_AT_TI_end_column(0x01)
    3444                      .dwendentry
    3445                      .dwendtag $C$DW$230
    3446              
    3447 00000413               .sect   ".text"
    3448                      .clink
    3449                      .global _FSM_CheckSpeed
    3450              
    3451              $C$DW$234       .dwtag  DW_TAG_subprogram, DW_AT_name("FSM_CheckSpeed")
    3452                      .dwattr $C$DW$234, DW_AT_low_pc(_FSM_CheckSpeed)
    3453                      .dwattr $C$DW$234, DW_AT_high_pc(0x00)
    3454                      .dwattr $C$DW$234, DW_AT_TI_symbol_name("_FSM_CheckSpeed")
    3455                      .dwattr $C$DW$234, DW_AT_external
    3456                      .dwattr $C$DW$234, DW_AT_TI_begin_file("D:/BM1000_v1.1/sw/drivers/drvic/fsm.c")
    3457                      .dwattr $C$DW$234, DW_AT_TI_begin_line(0x2dc)
    3458                      .dwattr $C$DW$234, DW_AT_TI_begin_column(0x06)
    3459                      .dwattr $C$DW$234, DW_AT_TI_max_frame_size(-4)
    3460                      .dwpsn  file "D:/BM1000_v1.1/sw/drivers/drvic/fsm.c",line 733,column 1,is_stmt,address _FSM_CheckSpee
    3461              
    3462                      .dwfde $C$DW$CIE, _FSM_CheckSpeed
    3463              $C$DW$235       .dwtag  DW_TAG_formal_parameter, DW_AT_name("handle")
    3464                      .dwattr $C$DW$235, DW_AT_TI_symbol_name("_handle")
    3465                      .dwattr $C$DW$235, DW_AT_type(*$C$DW$T$169)
    3466                      .dwattr $C$DW$235, DW_AT_location[DW_OP_reg12]
    3467              
    3468              ;***************************************************************
    3469              ;* FNAME: _FSM_CheckSpeed               FR SIZE:   2           *
    3470              ;*                                                             *
    3471              ;* FUNCTION ENVIRONMENT                                        *
    3472              ;*                                                             *
    3473              ;* FUNCTION PROPERTIES                                         *
    3474              ;*                            0 Parameter,  0 Auto,  2 SOE     *
    3475              ;***************************************************************
TMS320C2000 Assembler PC v6.2.5 Wed Nov 22 14:48:16 2017

Tools Copyright (c) 1996-2014 Texas Instruments Incorporated
C:\Users\wmj\AppData\Local\Temp\1257612                              PAGE   68

    3476              
    3477              _FSM_CheckSpeed:
    3478              ;* AR5   assigned to $O$C1
    3479              ;* AR4   assigned to _handle
    3480              $C$DW$236       .dwtag  DW_TAG_variable, DW_AT_name("handle")
    3481                      .dwattr $C$DW$236, DW_AT_TI_symbol_name("_handle")
    3482                      .dwattr $C$DW$236, DW_AT_type(*$C$DW$T$170)
    3483                      .dwattr $C$DW$236, DW_AT_location[DW_OP_reg12]
    3484                      .dwcfi  cfa_offset, -2
    3485                      .dwcfi  save_reg_to_mem, 26, 0
    3486                      .dwcfi  save_reg_to_reg, 78, 26
    3487 00000413 B2BD          MOVL      *SP++,XAR1            ; [CPU_] 
    3488                      .dwcfi  save_reg_to_mem, 7, 2
    3489                      .dwcfi  cfa_offset, -4
    3490                      .dwpsn  file "D:/BM1000_v1.1/sw/drivers/drvic/fsm.c",line 737,column 4,is_stmt
    3491 00000414 83C4          MOVL      XAR5,*+XAR4[0]        ; [CPU_] |737| 
    3492                      .dwpsn  file "D:/BM1000_v1.1/sw/drivers/drvic/fsm.c",line 739,column 6,is_stmt
    3493 00000415 D124          MOVB      XAR1,#36              ; [CPU_] |739| 
    3494 00000416 D01A          MOVB      XAR0,#26              ; [CPU_] |739| 
    3495 00000417 069D          MOVL      ACC,*+XAR5[AR1]       ; [CPU_] |739| 
    3496 00000418 0395          SUBL      ACC,*+XAR5[AR0]       ; [CPU_] |739| 
    3497 00000419 FF56          ABS       ACC                   ; [CPU_] |739| 
    3498 0000041a 8F59          MOVL      XAR5,#1677722         ; [CPU_U] |739| 
         0000041b 999A 
    3499 0000041c 0FA5          CMPL      ACC,XAR5              ; [CPU_] |739| 
    3500 0000041d 6303          B         $C$L54,GEQ            ; [CPU_] |739| 
    3501                      ; branchcc occurs ; [] |739| 
    3502 0000041e 9A02          MOVB      AL,#2                 ; [CPU_] |739| 
    3503 0000041f 6F02          B         $C$L55,UNC            ; [CPU_] |739| 
    3504                      ; branch occurs ; [] |739| 
    3505 00000420       $C$L54:    
    3506 00000420 9A00          MOVB      AL,#0                 ; [CPU_] |739| 
    3507 00000421       $C$L55:    
    3508 00000421 D009          MOVB      XAR0,#9               ; [CPU_] |739| 
    3509 00000422 9694          MOV       *+XAR4[AR0],AL        ; [CPU_] |739| 
    3510 00000423 8BBE          MOVL      XAR1,*--SP            ; [CPU_] 
    3511                      .dwcfi  cfa_offset, -2
    3512                      .dwcfi  restore_reg, 7
    3513              $C$DW$237       .dwtag  DW_TAG_TI_branch
    3514                      .dwattr $C$DW$237, DW_AT_low_pc(0x00)
    3515                      .dwattr $C$DW$237, DW_AT_TI_return
    3516 00000424 0006          LRETR     ; [CPU_] 
    3517                      ; return occurs ; [] 
    3518                      .dwattr $C$DW$234, DW_AT_TI_end_file("D:/BM1000_v1.1/sw/drivers/drvic/fsm.c")
    3519                      .dwattr $C$DW$234, DW_AT_TI_end_line(0x2eb)
    3520                      .dwattr $C$DW$234, DW_AT_TI_end_column(0x01)
    3521                      .dwendentry
    3522                      .dwendtag $C$DW$234
    3523              
    3524 00000425               .sect   ".text"
    3525                      .clink
    3526                      .global _FSM_Run
    3527              
    3528              $C$DW$238       .dwtag  DW_TAG_subprogram, DW_AT_name("FSM_Run")
    3529                      .dwattr $C$DW$238, DW_AT_low_pc(_FSM_Run)
TMS320C2000 Assembler PC v6.2.5 Wed Nov 22 14:48:16 2017

Tools Copyright (c) 1996-2014 Texas Instruments Incorporated
C:\Users\wmj\AppData\Local\Temp\1257612                              PAGE   69

    3530                      .dwattr $C$DW$238, DW_AT_high_pc(0x00)
    3531                      .dwattr $C$DW$238, DW_AT_TI_symbol_name("_FSM_Run")
    3532                      .dwattr $C$DW$238, DW_AT_external
    3533                      .dwattr $C$DW$238, DW_AT_TI_begin_file("D:/BM1000_v1.1/sw/drivers/drvic/fsm.c")
    3534                      .dwattr $C$DW$238, DW_AT_TI_begin_line(0x530)
    3535                      .dwattr $C$DW$238, DW_AT_TI_begin_column(0x06)
    3536                      .dwattr $C$DW$238, DW_AT_TI_max_frame_size(-4)
    3537                      .dwpsn  file "D:/BM1000_v1.1/sw/drivers/drvic/fsm.c",line 1329,column 1,is_stmt,address _FSM_Run
    3538              
    3539                      .dwfde $C$DW$CIE, _FSM_Run
    3540              $C$DW$239       .dwtag  DW_TAG_formal_parameter, DW_AT_name("handle")
    3541                      .dwattr $C$DW$239, DW_AT_TI_symbol_name("_handle")
    3542                      .dwattr $C$DW$239, DW_AT_type(*$C$DW$T$169)
    3543                      .dwattr $C$DW$239, DW_AT_location[DW_OP_reg12]
    3544              
    3545              ;***************************************************************
    3546              ;* FNAME: _FSM_Run                      FR SIZE:   2           *
    3547              ;*                                                             *
    3548              ;* FUNCTION ENVIRONMENT                                        *
    3549              ;*                                                             *
    3550              ;* FUNCTION PROPERTIES                                         *
    3551              ;*                            0 Parameter,  0 Auto,  2 SOE     *
    3552              ;***************************************************************
    3553              
    3554              _FSM_Run:
    3555              ;* AR7   assigned to $O$C1
    3556              ;* AR6   assigned to $O$C2
    3557              ;* AL    assigned to _State
    3558              $C$DW$240       .dwtag  DW_TAG_variable, DW_AT_name("State")
    3559                      .dwattr $C$DW$240, DW_AT_TI_symbol_name("_State")
    3560                      .dwattr $C$DW$240, DW_AT_type(*$C$DW$T$47)
    3561                      .dwattr $C$DW$240, DW_AT_location[DW_OP_reg0]
    3562              ;* AR7   assigned to _FSM_RunActions
    3563              $C$DW$241       .dwtag  DW_TAG_variable, DW_AT_name("FSM_RunActions")
    3564                      .dwattr $C$DW$241, DW_AT_TI_symbol_name("_FSM_RunActions")
    3565                      .dwattr $C$DW$241, DW_AT_type(*$C$DW$T$226)
    3566                      .dwattr $C$DW$241, DW_AT_location[DW_OP_reg18]
    3567              ;* PL    assigned to _FSM_CheckEvent
    3568              $C$DW$242       .dwtag  DW_TAG_variable, DW_AT_name("FSM_CheckEvent")
    3569                      .dwattr $C$DW$242, DW_AT_TI_symbol_name("_FSM_CheckEvent")
    3570                      .dwattr $C$DW$242, DW_AT_type(*$C$DW$T$226)
    3571                      .dwattr $C$DW$242, DW_AT_location[DW_OP_reg2]
    3572              ;* AR1   assigned to _handle
    3573              $C$DW$243       .dwtag  DW_TAG_variable, DW_AT_name("handle")
    3574                      .dwattr $C$DW$243, DW_AT_TI_symbol_name("_handle")
    3575                      .dwattr $C$DW$243, DW_AT_type(*$C$DW$T$170)
    3576                      .dwattr $C$DW$243, DW_AT_location[DW_OP_reg6]
    3577                      .dwcfi  cfa_offset, -2
    3578                      .dwcfi  save_reg_to_mem, 26, 0
    3579                      .dwcfi  save_reg_to_reg, 78, 26
    3580 00000425 B2BD          MOVL      *SP++,XAR1            ; [CPU_] 
    3581                      .dwcfi  save_reg_to_mem, 7, 2
    3582                      .dwcfi  cfa_offset, -4
    3583                      .dwpsn  file "D:/BM1000_v1.1/sw/drivers/drvic/fsm.c",line 1336,column 3,is_stmt
    3584              $C$DW$244       .dwtag  DW_TAG_TI_branch
TMS320C2000 Assembler PC v6.2.5 Wed Nov 22 14:48:16 2017

Tools Copyright (c) 1996-2014 Texas Instruments Incorporated
C:\Users\wmj\AppData\Local\Temp\1257612                              PAGE   70

    3585                      .dwattr $C$DW$244, DW_AT_low_pc(0x00)
    3586                      .dwattr $C$DW$244, DW_AT_name("_FSM_RunConfig")
    3587                      .dwattr $C$DW$244, DW_AT_TI_call
    3588 00000426 7640'         LCR       #_FSM_RunConfig       ; [CPU_] |1336| 
         00000427 0346 
    3589                      ; call occurs [#_FSM_RunConfig] ; [] |1336| 
    3590                      .dwpsn  file "D:/BM1000_v1.1/sw/drivers/drvic/fsm.c",line 1329,column 1,is_stmt
    3591 00000428 8BA4          MOVL      XAR1,XAR4             ; [CPU_] |1329| 
    3592                      .dwpsn  file "D:/BM1000_v1.1/sw/drivers/drvic/fsm.c",line 1338,column 3,is_stmt
    3593 00000429 88F1          MOVZ      AR6,*+XAR1[6]         ; [CPU_] |1338| 
    3594 0000042a C5E1          MOVL      XAR7,*+XAR1[4]        ; [CPU_] |1338| 
    3595 0000042b 3B01          SETC      SXM                   ; [CPU_] 
    3596 0000042c D01E          MOVB      XAR0,#30              ; [CPU_] |1338| 
    3597 0000042d 85A6          MOV       ACC,AR6               ; [CPU_] |1338| 
    3598 0000042e 8AA7          MOVL      XAR4,XAR7             ; [CPU_] |1338| 
    3599 0000042f 5601          ADDL      XAR4,ACC              ; [CPU_] |1338| 
         00000430 00A4 
    3600 00000431 5603          MOV       ACC,*+XAR4[AR0] << 1  ; [CPU_] |1338| 
         00000432 0194 
    3601 00000433 8F00+         MOVL      XAR4,#_FSM_CondFunc   ; [CPU_U] |1338| 
         00000434 0000 
    3602 00000435 5601          ADDL      XAR4,ACC              ; [CPU_] |1338| 
         00000436 00A4 
    3603                      .dwpsn  file "D:/BM1000_v1.1/sw/drivers/drvic/fsm.c",line 1339,column 3,is_stmt
    3604 00000437 85A6          MOV       ACC,AR6               ; [CPU_] |1339| 
    3605 00000438 5601          ADDL      XAR7,ACC              ; [CPU_] |1339| 
         00000439 00A7 
    3606                      .dwpsn  file "D:/BM1000_v1.1/sw/drivers/drvic/fsm.c",line 1338,column 3,is_stmt
    3607 0000043a A3C4          MOVL      P,*+XAR4[0]           ; [CPU_] |1338| 
    3608                      .dwpsn  file "D:/BM1000_v1.1/sw/drivers/drvic/fsm.c",line 1339,column 3,is_stmt
    3609 0000043b D015          MOVB      XAR0,#21              ; [CPU_] |1339| 
    3610                      .dwpsn  file "D:/BM1000_v1.1/sw/drivers/drvic/fsm.c",line 1340,column 3,is_stmt
    3611 0000043c 8AA1          MOVL      XAR4,XAR1             ; [CPU_] |1340| 
    3612                      .dwpsn  file "D:/BM1000_v1.1/sw/drivers/drvic/fsm.c",line 1339,column 3,is_stmt
    3613 0000043d DF0F          ADDB      XAR7,#15              ; [CPU_] |1339| 
    3614 0000043e 92C7          MOV       AL,*XAR7              ; [CPU_] |1339| 
    3615                      .dwpsn  file "D:/BM1000_v1.1/sw/drivers/drvic/fsm.c",line 1340,column 3,is_stmt
    3616 0000043f A9A7          MOVL      XAR7,P                ; [CPU_] |1340| 
    3617                      .dwpsn  file "D:/BM1000_v1.1/sw/drivers/drvic/fsm.c",line 1339,column 3,is_stmt
    3618 00000440 9691          MOV       *+XAR1[AR0],AL        ; [CPU_] |1339| 
    3619                      .dwpsn  file "D:/BM1000_v1.1/sw/drivers/drvic/fsm.c",line 1340,column 3,is_stmt
    3620              $C$DW$245       .dwtag  DW_TAG_TI_branch
    3621                      .dwattr $C$DW$245, DW_AT_low_pc(0x00)
    3622                      .dwattr $C$DW$245, DW_AT_TI_call
    3623                      .dwattr $C$DW$245, DW_AT_TI_indirect
    3624 00000441 3E67          LCR       *XAR7                 ; [CPU_] |1340| 
    3625                      ; call occurs [XAR7] ; [] |1340| 
    3626                      .dwpsn  file "D:/BM1000_v1.1/sw/drivers/drvic/fsm.c",line 1342,column 3,is_stmt
    3627 00000442 8AA1          MOVL      XAR4,XAR1             ; [CPU_] |1342| 
    3628              $C$DW$246       .dwtag  DW_TAG_TI_branch
    3629                      .dwattr $C$DW$246, DW_AT_low_pc(0x00)
    3630                      .dwattr $C$DW$246, DW_AT_name("_FSM_RunTrans")
    3631                      .dwattr $C$DW$246, DW_AT_TI_call
    3632 00000443 7640'         LCR       #_FSM_RunTrans        ; [CPU_] |1342| 
         00000444 030D 
TMS320C2000 Assembler PC v6.2.5 Wed Nov 22 14:48:16 2017

Tools Copyright (c) 1996-2014 Texas Instruments Incorporated
C:\Users\wmj\AppData\Local\Temp\1257612                              PAGE   71

    3633                      ; call occurs [#_FSM_RunTrans] ; [] |1342| 
    3634                      .dwpsn  file "D:/BM1000_v1.1/sw/drivers/drvic/fsm.c",line 1344,column 3,is_stmt
    3635 00000445 D008          MOVB      XAR0,#8               ; [CPU_] |1344| 
    3636 00000446 9291          MOV       AL,*+XAR1[AR0]        ; [CPU_] |1344| 
    3637 00000447 EC21          BF        $C$L57,EQ             ; [CPU_] |1344| 
    3638                      ; branchcc occurs ; [] |1344| 
    3639 00000448 5201          CMPB      AL,#1                 ; [CPU_] |1344| 
    3640 00000449 EC1B          BF        $C$L56,EQ             ; [CPU_] |1344| 
    3641                      ; branchcc occurs ; [] |1344| 
    3642 0000044a 5202          CMPB      AL,#2                 ; [CPU_] |1344| 
    3643 0000044b ED20          BF        $C$L58,NEQ            ; [CPU_] |1344| 
    3644                      ; branchcc occurs ; [] |1344| 
    3645 0000044c 3B01          SETC      SXM                   ; [CPU_] 
    3646                      .dwpsn  file "D:/BM1000_v1.1/sw/drivers/drvic/fsm.c",line 1349,column 30,is_stmt
    3647 0000044d 85F1          MOV       ACC,*+XAR1[6]         ; [CPU_] |1349| 
    3648 0000044e 8AE1          MOVL      XAR4,*+XAR1[4]        ; [CPU_] |1349| 
    3649 0000044f D02D          MOVB      XAR0,#45              ; [CPU_] |1349| 
    3650 00000450 5601          ADDL      XAR4,ACC              ; [CPU_] |1349| 
         00000451 00A4 
    3651 00000452 5603          MOV       ACC,*+XAR4[AR0] << 1  ; [CPU_] |1349| 
         00000453 0194 
    3652 00000454 8F00+         MOVL      XAR4,#_FSM_ActionFunc ; [CPU_U] |1349| 
         00000455 0000 
    3653 00000456 5601          ADDL      XAR4,ACC              ; [CPU_] |1349| 
         00000457 00A4 
    3654 00000458 C5C4          MOVL      XAR7,*+XAR4[0]        ; [CPU_] |1349| 
    3655                      .dwpsn  file "D:/BM1000_v1.1/sw/drivers/drvic/fsm.c",line 1350,column 9,is_stmt
    3656 00000459 8AA1          MOVL      XAR4,XAR1             ; [CPU_] |1350| 
    3657              $C$DW$247       .dwtag  DW_TAG_TI_branch
    3658                      .dwattr $C$DW$247, DW_AT_low_pc(0x00)
    3659                      .dwattr $C$DW$247, DW_AT_TI_call
    3660                      .dwattr $C$DW$247, DW_AT_TI_indirect
    3661 0000045a 3E67          LCR       *XAR7                 ; [CPU_] |1350| 
    3662                      ; call occurs [XAR7] ; [] |1350| 
    3663 0000045b 3B01          SETC      SXM                   ; [CPU_] 
    3664                      .dwpsn  file "D:/BM1000_v1.1/sw/drivers/drvic/fsm.c",line 1351,column 9,is_stmt
    3665 0000045c 85F1          MOV       ACC,*+XAR1[6]         ; [CPU_] |1351| 
    3666 0000045d 8AE1          MOVL      XAR4,*+XAR1[4]        ; [CPU_] |1351| 
    3667 0000045e D03C          MOVB      XAR0,#60              ; [CPU_] |1351| 
    3668 0000045f 5601          ADDL      XAR4,ACC              ; [CPU_] |1351| 
         00000460 00A4 
    3669 00000461 9294          MOV       AL,*+XAR4[AR0]        ; [CPU_] |1351| 
    3670                      .dwpsn  file "D:/BM1000_v1.1/sw/drivers/drvic/fsm.h",line 421,column 3,is_stmt
    3671 00000462 96F1          MOV       *+XAR1[6],AL          ; [CPU_] |421| 
    3672                      .dwpsn  file "D:/BM1000_v1.1/sw/drivers/drvic/fsm.h",line 423,column 3,is_stmt
    3673 00000463 6F08          B         $C$L58,UNC            ; [CPU_] |423| 
    3674                      ; branch occurs ; [] |423| 
    3675 00000464       $C$L56:    
    3676                      .dwpsn  file "D:/BM1000_v1.1/sw/drivers/drvic/fsm.c",line 1347,column 30,is_stmt
    3677 00000464 8AA1          MOVL      XAR4,XAR1             ; [CPU_] |1347| 
    3678              $C$DW$248       .dwtag  DW_TAG_TI_branch
    3679                      .dwattr $C$DW$248, DW_AT_low_pc(0x00)
    3680                      .dwattr $C$DW$248, DW_AT_name("_FSM_RunPolling")
    3681                      .dwattr $C$DW$248, DW_AT_TI_call
    3682 00000465 7640'         LCR       #_FSM_RunPolling      ; [CPU_] |1347| 
TMS320C2000 Assembler PC v6.2.5 Wed Nov 22 14:48:16 2017

Tools Copyright (c) 1996-2014 Texas Instruments Incorporated
C:\Users\wmj\AppData\Local\Temp\1257612                              PAGE   72

         00000466 033A 
    3683                      ; call occurs [#_FSM_RunPolling] ; [] |1347| 
    3684                      .dwpsn  file "D:/BM1000_v1.1/sw/drivers/drvic/fsm.c",line 1347,column 54,is_stmt
    3685 00000467 6F04          B         $C$L58,UNC            ; [CPU_] |1347| 
    3686                      ; branch occurs ; [] |1347| 
    3687 00000468       $C$L57:    
    3688                      .dwpsn  file "D:/BM1000_v1.1/sw/drivers/drvic/fsm.c",line 1346,column 30,is_stmt
    3689 00000468 8AA1          MOVL      XAR4,XAR1             ; [CPU_] |1346| 
    3690              $C$DW$249       .dwtag  DW_TAG_TI_branch
    3691                      .dwattr $C$DW$249, DW_AT_low_pc(0x00)
    3692                      .dwattr $C$DW$249, DW_AT_name("_FSM_RunRetire")
    3693                      .dwattr $C$DW$249, DW_AT_TI_call
    3694 00000469 7640'         LCR       #_FSM_RunRetire       ; [CPU_] |1346| 
         0000046a 0329 
    3695                      ; call occurs [#_FSM_RunRetire] ; [] |1346| 
    3696 0000046b       $C$L58:    
    3697 0000046b 8BBE          MOVL      XAR1,*--SP            ; [CPU_] 
    3698                      .dwcfi  cfa_offset, -2
    3699                      .dwcfi  restore_reg, 7
    3700              $C$DW$250       .dwtag  DW_TAG_TI_branch
    3701                      .dwattr $C$DW$250, DW_AT_low_pc(0x00)
    3702                      .dwattr $C$DW$250, DW_AT_TI_return
    3703 0000046c 0006          LRETR     ; [CPU_] 
    3704                      ; return occurs ; [] 
    3705                      .dwattr $C$DW$238, DW_AT_TI_end_file("D:/BM1000_v1.1/sw/drivers/drvic/fsm.c")
    3706                      .dwattr $C$DW$238, DW_AT_TI_end_line(0x54e)
    3707                      .dwattr $C$DW$238, DW_AT_TI_end_column(0x01)
    3708                      .dwendentry
    3709                      .dwendtag $C$DW$238
    3710              
    3711 0000046d               .sect   ".text"
    3712                      .clink
    3713                      .global _FSM_ParamInit
    3714              
    3715              $C$DW$251       .dwtag  DW_TAG_subprogram, DW_AT_name("FSM_ParamInit")
    3716                      .dwattr $C$DW$251, DW_AT_low_pc(_FSM_ParamInit)
    3717                      .dwattr $C$DW$251, DW_AT_high_pc(0x00)
    3718                      .dwattr $C$DW$251, DW_AT_TI_symbol_name("_FSM_ParamInit")
    3719                      .dwattr $C$DW$251, DW_AT_external
    3720                      .dwattr $C$DW$251, DW_AT_TI_begin_file("D:/BM1000_v1.1/sw/drivers/drvic/fsm.c")
    3721                      .dwattr $C$DW$251, DW_AT_TI_begin_line(0x117)
    3722                      .dwattr $C$DW$251, DW_AT_TI_begin_column(0x06)
    3723                      .dwattr $C$DW$251, DW_AT_TI_max_frame_size(-2)
    3724                      .dwpsn  file "D:/BM1000_v1.1/sw/drivers/drvic/fsm.c",line 280,column 1,is_stmt,address _FSM_ParamInit
    3725              
    3726                      .dwfde $C$DW$CIE, _FSM_ParamInit
    3727              $C$DW$252       .dwtag  DW_TAG_formal_parameter, DW_AT_name("handle")
    3728                      .dwattr $C$DW$252, DW_AT_TI_symbol_name("_handle")
    3729                      .dwattr $C$DW$252, DW_AT_type(*$C$DW$T$169)
    3730                      .dwattr $C$DW$252, DW_AT_location[DW_OP_reg12]
    3731              
    3732              ;***************************************************************
    3733              ;* FNAME: _FSM_ParamInit                FR SIZE:   0           *
    3734              ;*                                                             *
    3735              ;* FUNCTION ENVIRONMENT                                        *
TMS320C2000 Assembler PC v6.2.5 Wed Nov 22 14:48:16 2017

Tools Copyright (c) 1996-2014 Texas Instruments Incorporated
C:\Users\wmj\AppData\Local\Temp\1257612                              PAGE   73

    3736              ;*                                                             *
    3737              ;* FUNCTION PROPERTIES                                         *
    3738              ;*                            0 Parameter,  0 Auto,  0 SOE     *
    3739              ;***************************************************************
    3740              
    3741              _FSM_ParamInit:
    3742              ;* AR6   assigned to _handle
    3743              $C$DW$253       .dwtag  DW_TAG_variable, DW_AT_name("handle")
    3744                      .dwattr $C$DW$253, DW_AT_TI_symbol_name("_handle")
    3745                      .dwattr $C$DW$253, DW_AT_type(*$C$DW$T$170)
    3746                      .dwattr $C$DW$253, DW_AT_location[DW_OP_reg16]
    3747                      .dwcfi  cfa_offset, -2
    3748                      .dwcfi  save_reg_to_mem, 26, 0
    3749                      .dwcfi  save_reg_to_reg, 78, 26
    3750 0000046d C4A4          MOVL      XAR6,XAR4             ; [CPU_] |280| 
    3751                      .dwpsn  file "D:/BM1000_v1.1/sw/drivers/drvic/fsm.h",line 548,column 3,is_stmt
    3752 0000046e D00F          MOVB      XAR0,#15              ; [CPU_] |548| 
    3753                      .dwpsn  file "D:/BM1000_v1.1/sw/drivers/drvic/fsm.h",line 421,column 3,is_stmt
    3754 0000046f 2BF6          MOV       *+XAR6[6],#0          ; [CPU_] |421| 
    3755                      .dwpsn  file "D:/BM1000_v1.1/sw/drivers/drvic/fsm.h",line 548,column 3,is_stmt
    3756 00000470 2B96          MOV       *+XAR6[AR0],#0        ; [CPU_] |548| 
    3757                      .dwpsn  file "D:/BM1000_v1.1/sw/drivers/drvic/fsm.h",line 464,column 3,is_stmt
    3758 00000471 8AC6          MOVL      XAR4,*+XAR6[0]        ; [CPU_] |464| 
    3759 00000472 D00A          MOVB      XAR0,#10              ; [CPU_] |464| 
    3760 00000473 2B94          MOV       *+XAR4[AR0],#0        ; [CPU_] |464| 
    3761                      .dwpsn  file "D:/BM1000_v1.1/sw/drivers/drvic/fsm.h",line 368,column 4,is_stmt
    3762 00000474 8AC6          MOVL      XAR4,*+XAR6[0]        ; [CPU_] |368| 
    3763 00000475 0200          MOVB      ACC,#0                ; [CPU_] |368| 
    3764 00000476 D01A          MOVB      XAR0,#26              ; [CPU_] |368| 
    3765 00000477 1E94          MOVL      *+XAR4[AR0],ACC       ; [CPU_] |368| 
    3766                      .dwpsn  file "D:/BM1000_v1.1/sw/drivers/drvic/fsm.h",line 387,column 3,is_stmt
    3767 00000478 D00D          MOVB      XAR0,#13              ; [CPU_] |387| 
    3768 00000479 2B96          MOV       *+XAR6[AR0],#0        ; [CPU_] |387| 
    3769                      .dwpsn  file "D:/BM1000_v1.1/sw/drivers/drvic/fsm.h",line 378,column 3,is_stmt
    3770 0000047a D020          MOVB      XAR0,#32              ; [CPU_] |378| 
    3771                      .dwpsn  file "D:/BM1000_v1.1/sw/drivers/drvic/fsm.c",line 297,column 3,is_stmt
    3772 0000047b 8AA6          MOVL      XAR4,XAR6             ; [CPU_] |297| 
    3773                      .dwpsn  file "D:/BM1000_v1.1/sw/drivers/drvic/fsm.h",line 378,column 3,is_stmt
    3774 0000047c 2B96          MOV       *+XAR6[AR0],#0        ; [CPU_] |378| 
    3775                      .dwpsn  file "D:/BM1000_v1.1/sw/drivers/drvic/fsm.c",line 291,column 3,is_stmt
    3776 0000047d D009          MOVB      XAR0,#9               ; [CPU_] |291| 
    3777 0000047e 2B96          MOV       *+XAR6[AR0],#0        ; [CPU_] |291| 
    3778                      .dwpsn  file "D:/BM1000_v1.1/sw/drivers/drvic/fsm.c",line 293,column 3,is_stmt
    3779 0000047f D008          MOVB      XAR0,#8               ; [CPU_] |293| 
    3780                      .dwpsn  file "D:/BM1000_v1.1/sw/drivers/drvic/fsm.c",line 292,column 3,is_stmt
    3781 00000480 2BFE          MOV       *+XAR6[7],#0          ; [CPU_] |292| 
    3782                      .dwpsn  file "D:/BM1000_v1.1/sw/drivers/drvic/fsm.c",line 293,column 3,is_stmt
    3783 00000481 56BF          MOVB      *+XAR6[AR0],#1,UNC    ; [CPU_] |293| 
         00000482 0196 
    3784                      .dwpsn  file "D:/BM1000_v1.1/sw/drivers/drvic/fsm.c",line 294,column 3,is_stmt
    3785 00000483 D010          MOVB      XAR0,#16              ; [CPU_] |294| 
    3786 00000484 2B96          MOV       *+XAR6[AR0],#0        ; [CPU_] |294| 
    3787                      .dwpsn  file "D:/BM1000_v1.1/sw/drivers/drvic/fsm.c",line 297,column 3,is_stmt
    3788              $C$DW$254       .dwtag  DW_TAG_TI_branch
    3789                      .dwattr $C$DW$254, DW_AT_low_pc(0x00)
TMS320C2000 Assembler PC v6.2.5 Wed Nov 22 14:48:16 2017

Tools Copyright (c) 1996-2014 Texas Instruments Incorporated
C:\Users\wmj\AppData\Local\Temp\1257612                              PAGE   74

    3790                      .dwattr $C$DW$254, DW_AT_name("_FSM_SetupFsmMode")
    3791                      .dwattr $C$DW$254, DW_AT_TI_call
    3792 00000485 7640'         LCR       #_FSM_SetupFsmMode    ; [CPU_] |297| 
         00000486 0258 
    3793                      ; call occurs [#_FSM_SetupFsmMode] ; [] |297| 
    3794                      .dwpsn  file "D:/BM1000_v1.1/sw/drivers/drvic/fsm.c",line 299,column 3,is_stmt
    3795 00000487 D01E          MOVB      XAR0,#30              ; [CPU_] |299| 
    3796                      .dwpsn  file "D:/BM1000_v1.1/sw/drivers/drvic/fsm.c",line 301,column 3,is_stmt
    3797 00000488 0200          MOVB      ACC,#0                ; [CPU_] |301| 
    3798                      .dwpsn  file "D:/BM1000_v1.1/sw/drivers/drvic/fsm.c",line 299,column 3,is_stmt
    3799 00000489 2B96          MOV       *+XAR6[AR0],#0        ; [CPU_] |299| 
    3800                      .dwpsn  file "D:/BM1000_v1.1/sw/drivers/drvic/fsm.c",line 301,column 3,is_stmt
    3801 0000048a D01C          MOVB      XAR0,#28              ; [CPU_] |301| 
    3802                      .dwpsn  file "D:/BM1000_v1.1/sw/drivers/drvic/fsm.c",line 308,column 3,is_stmt
    3803 0000048b 8F40+         MOVL      XAR5,#_JM_FSM_Vars    ; [CPU_U] |308| 
         0000048c 0000 
    3804 0000048d 8AA6          MOVL      XAR4,XAR6             ; [CPU_] |308| 
    3805                      .dwpsn  file "D:/BM1000_v1.1/sw/drivers/drvic/fsm.c",line 301,column 3,is_stmt
    3806 0000048e 1E96          MOVL      *+XAR6[AR0],ACC       ; [CPU_] |301| 
    3807                      .dwpsn  file "D:/BM1000_v1.1/sw/drivers/drvic/fsm.c",line 302,column 3,is_stmt
    3808 0000048f D01A          MOVB      XAR0,#26              ; [CPU_] |302| 
    3809 00000490 1E96          MOVL      *+XAR6[AR0],ACC       ; [CPU_] |302| 
    3810                      .dwpsn  file "D:/BM1000_v1.1/sw/drivers/drvic/fsm.c",line 303,column 3,is_stmt
    3811 00000491 D018          MOVB      XAR0,#24              ; [CPU_] |303| 
    3812 00000492 1E96          MOVL      *+XAR6[AR0],ACC       ; [CPU_] |303| 
    3813                      .dwpsn  file "D:/BM1000_v1.1/sw/drivers/drvic/fsm.c",line 304,column 3,is_stmt
    3814 00000493 D016          MOVB      XAR0,#22              ; [CPU_] |304| 
    3815 00000494 1E96          MOVL      *+XAR6[AR0],ACC       ; [CPU_] |304| 
    3816                      .dwpsn  file "D:/BM1000_v1.1/sw/drivers/drvic/fsm.h",line 531,column 3,is_stmt
    3817 00000495 D011          MOVB      XAR0,#17              ; [CPU_] |531| 
    3818 00000496 2B96          MOV       *+XAR6[AR0],#0        ; [CPU_] |531| 
    3819                      .dwpsn  file "D:/BM1000_v1.1/sw/drivers/drvic/fsm.c",line 306,column 3,is_stmt
    3820 00000497 D024          MOVB      XAR0,#36              ; [CPU_] |306| 
    3821 00000498 2B96          MOV       *+XAR6[AR0],#0        ; [CPU_] |306| 
    3822                      .dwpsn  file "D:/BM1000_v1.1/sw/drivers/drvic/fsm.c",line 308,column 3,is_stmt
    3823              $C$DW$255       .dwtag  DW_TAG_TI_branch
    3824                      .dwattr $C$DW$255, DW_AT_low_pc(0x00)
    3825                      .dwattr $C$DW$255, DW_AT_name("_FSM_State_Box_Init")
    3826                      .dwattr $C$DW$255, DW_AT_TI_call
    3827 00000499 7640'         LCR       #_FSM_State_Box_Init  ; [CPU_] |308| 
         0000049a 0207 
    3828                      ; call occurs [#_FSM_State_Box_Init] ; [] |308| 
    3829              $C$DW$256       .dwtag  DW_TAG_TI_branch
    3830                      .dwattr $C$DW$256, DW_AT_low_pc(0x00)
    3831                      .dwattr $C$DW$256, DW_AT_TI_return
    3832 0000049b 0006          LRETR     ; [CPU_] 
    3833                      ; return occurs ; [] 
    3834                      .dwattr $C$DW$251, DW_AT_TI_end_file("D:/BM1000_v1.1/sw/drivers/drvic/fsm.c")
    3835                      .dwattr $C$DW$251, DW_AT_TI_end_line(0x13b)
    3836                      .dwattr $C$DW$251, DW_AT_TI_end_column(0x01)
    3837                      .dwendentry
    3838                      .dwendtag $C$DW$251
    3839              
    3840 0000049c               .sect   ".text"
    3841                      .clink
TMS320C2000 Assembler PC v6.2.5 Wed Nov 22 14:48:16 2017

Tools Copyright (c) 1996-2014 Texas Instruments Incorporated
C:\Users\wmj\AppData\Local\Temp\1257612                              PAGE   75

    3842                      .global _FSM_485Read_State_Box
    3843              
    3844              $C$DW$257       .dwtag  DW_TAG_subprogram, DW_AT_name("FSM_485Read_State_Box")
    3845                      .dwattr $C$DW$257, DW_AT_low_pc(_FSM_485Read_State_Box)
    3846                      .dwattr $C$DW$257, DW_AT_high_pc(0x00)
    3847                      .dwattr $C$DW$257, DW_AT_TI_symbol_name("_FSM_485Read_State_Box")
    3848                      .dwattr $C$DW$257, DW_AT_external
    3849                      .dwattr $C$DW$257, DW_AT_type(*$C$DW$T$21)
    3850                      .dwattr $C$DW$257, DW_AT_TI_begin_file("D:/BM1000_v1.1/sw/drivers/drvic/fsm.c")
    3851                      .dwattr $C$DW$257, DW_AT_TI_begin_line(0x1a9)
    3852                      .dwattr $C$DW$257, DW_AT_TI_begin_column(0x0a)
    3853                      .dwattr $C$DW$257, DW_AT_TI_max_frame_size(-2)
    3854                      .dwpsn  file "D:/BM1000_v1.1/sw/drivers/drvic/fsm.c",line 426,column 1,is_stmt,address _FSM_485Read_S
    3855              
    3856                      .dwfde $C$DW$CIE, _FSM_485Read_State_Box
    3857              $C$DW$258       .dwtag  DW_TAG_formal_parameter, DW_AT_name("handle")
    3858                      .dwattr $C$DW$258, DW_AT_TI_symbol_name("_handle")
    3859                      .dwattr $C$DW$258, DW_AT_type(*$C$DW$T$169)
    3860                      .dwattr $C$DW$258, DW_AT_location[DW_OP_reg12]
    3861              
    3862              ;***************************************************************
    3863              ;* FNAME: _FSM_485Read_State_Box        FR SIZE:   0           *
    3864              ;*                                                             *
    3865              ;* FUNCTION ENVIRONMENT                                        *
    3866              ;*                                                             *
    3867              ;* FUNCTION PROPERTIES                                         *
    3868              ;*                            0 Parameter,  0 Auto,  0 SOE     *
    3869              ;***************************************************************
    3870              
    3871              _FSM_485Read_State_Box:
    3872              ;* AL    assigned to _Params
    3873              $C$DW$259       .dwtag  DW_TAG_variable, DW_AT_name("Params")
    3874                      .dwattr $C$DW$259, DW_AT_TI_symbol_name("_Params")
    3875                      .dwattr $C$DW$259, DW_AT_type(*$C$DW$T$21)
    3876                      .dwattr $C$DW$259, DW_AT_location[DW_OP_reg0]
    3877              ;* AR4   assigned to _handle
    3878              $C$DW$260       .dwtag  DW_TAG_variable, DW_AT_name("handle")
    3879                      .dwattr $C$DW$260, DW_AT_TI_symbol_name("_handle")
    3880                      .dwattr $C$DW$260, DW_AT_type(*$C$DW$T$170)
    3881                      .dwattr $C$DW$260, DW_AT_location[DW_OP_reg12]
    3882                      .dwcfi  cfa_offset, -2
    3883                      .dwcfi  save_reg_to_mem, 26, 0
    3884                      .dwcfi  save_reg_to_reg, 78, 26
    3885                      .dwpsn  file "D:/BM1000_v1.1/sw/drivers/drvic/fsm.c",line 430,column 4,is_stmt
    3886 0000049c D010          MOVB      XAR0,#16              ; [CPU_] |430| 
    3887 0000049d 9294          MOV       AL,*+XAR4[AR0]        ; [CPU_] |430| 
    3888 0000049e 5202          CMPB      AL,#2                 ; [CPU_] |430| 
    3889 0000049f 6208          B         $C$L59,GT             ; [CPU_] |430| 
    3890                      ; branchcc occurs ; [] |430| 
    3891 000004a0 5202          CMPB      AL,#2                 ; [CPU_] |430| 
    3892 000004a1 EC16          BF        $C$L63,EQ             ; [CPU_] |430| 
    3893                      ; branchcc occurs ; [] |430| 
    3894 000004a2 5200          CMPB      AL,#0                 ; [CPU_] |430| 
    3895 000004a3 EC22          BF        $C$L66,EQ             ; [CPU_] |430| 
    3896                      ; branchcc occurs ; [] |430| 
TMS320C2000 Assembler PC v6.2.5 Wed Nov 22 14:48:16 2017

Tools Copyright (c) 1996-2014 Texas Instruments Incorporated
C:\Users\wmj\AppData\Local\Temp\1257612                              PAGE   76

    3897 000004a4 5201          CMPB      AL,#1                 ; [CPU_] |430| 
    3898 000004a5 EC17          BF        $C$L64,EQ             ; [CPU_] |430| 
    3899                      ; branchcc occurs ; [] |430| 
    3900 000004a6 6F05          B         $C$L60,UNC            ; [CPU_] |430| 
    3901                      ; branch occurs ; [] |430| 
    3902 000004a7       $C$L59:    
    3903 000004a7 5203          CMPB      AL,#3                 ; [CPU_] |430| 
    3904 000004a8 EC0A          BF        $C$L62,EQ             ; [CPU_] |430| 
    3905                      ; branchcc occurs ; [] |430| 
    3906 000004a9 5204          CMPB      AL,#4                 ; [CPU_] |430| 
    3907 000004aa EC03          BF        $C$L61,EQ             ; [CPU_] |430| 
    3908                      ; branchcc occurs ; [] |430| 
    3909 000004ab       $C$L60:    
    3910                      .dwpsn  file "D:/BM1000_v1.1/sw/drivers/drvic/fsm.c",line 428,column 20,is_stmt
    3911 000004ab 9A00          MOVB      AL,#0                 ; [CPU_] |428| 
    3912              $C$DW$261       .dwtag  DW_TAG_TI_branch
    3913                      .dwattr $C$DW$261, DW_AT_low_pc(0x00)
    3914                      .dwattr $C$DW$261, DW_AT_TI_return
    3915 000004ac 0006          LRETR     ; [CPU_] 
    3916                      ; return occurs ; [] 
    3917 000004ad       $C$L61:    
    3918                      .dwpsn  file "D:/BM1000_v1.1/sw/drivers/drvic/fsm.c",line 440,column 35,is_stmt
    3919 000004ad D00F          MOVB      XAR0,#15              ; [CPU_] |440| 
    3920 000004ae 3B01          SETC      SXM                   ; [CPU_] 
    3921 000004af 8594          MOV       ACC,*+XAR4[AR0]       ; [CPU_] |440| 
    3922 000004b0 D03C          MOVB      XAR0,#60              ; [CPU_] |440| 
    3923                      .dwpsn  file "D:/BM1000_v1.1/sw/drivers/drvic/fsm.c",line 440,column 112,is_stmt
    3924 000004b1 6F0F          B         $C$L65,UNC            ; [CPU_] |440| 
    3925                      ; branch occurs ; [] |440| 
    3926 000004b2       $C$L62:    
    3927                      .dwpsn  file "D:/BM1000_v1.1/sw/drivers/drvic/fsm.c",line 438,column 35,is_stmt
    3928 000004b2 D00F          MOVB      XAR0,#15              ; [CPU_] |438| 
    3929 000004b3 3B01          SETC      SXM                   ; [CPU_] 
    3930 000004b4 8594          MOV       ACC,*+XAR4[AR0]       ; [CPU_] |438| 
    3931 000004b5 D02D          MOVB      XAR0,#45              ; [CPU_] |438| 
    3932                      .dwpsn  file "D:/BM1000_v1.1/sw/drivers/drvic/fsm.c",line 438,column 112,is_stmt
    3933 000004b6 6F0A          B         $C$L65,UNC            ; [CPU_] |438| 
    3934                      ; branch occurs ; [] |438| 
    3935 000004b7       $C$L63:    
    3936                      .dwpsn  file "D:/BM1000_v1.1/sw/drivers/drvic/fsm.c",line 436,column 35,is_stmt
    3937 000004b7 D00F          MOVB      XAR0,#15              ; [CPU_] |436| 
    3938 000004b8 3B01          SETC      SXM                   ; [CPU_] 
    3939 000004b9 8594          MOV       ACC,*+XAR4[AR0]       ; [CPU_] |436| 
    3940 000004ba D01E          MOVB      XAR0,#30              ; [CPU_] |436| 
    3941                      .dwpsn  file "D:/BM1000_v1.1/sw/drivers/drvic/fsm.c",line 436,column 112,is_stmt
    3942 000004bb 6F05          B         $C$L65,UNC            ; [CPU_] |436| 
    3943                      ; branch occurs ; [] |436| 
    3944 000004bc       $C$L64:    
    3945                      .dwpsn  file "D:/BM1000_v1.1/sw/drivers/drvic/fsm.c",line 434,column 35,is_stmt
    3946 000004bc D00F          MOVB      XAR0,#15              ; [CPU_] |434| 
    3947 000004bd 3B01          SETC      SXM                   ; [CPU_] 
    3948 000004be 8594          MOV       ACC,*+XAR4[AR0]       ; [CPU_] |434| 
    3949 000004bf D00F          MOVB      XAR0,#15              ; [CPU_] |434| 
    3950 000004c0       $C$L65:    
    3951 000004c0 8AE4          MOVL      XAR4,*+XAR4[4]        ; [CPU_] |434| 
TMS320C2000 Assembler PC v6.2.5 Wed Nov 22 14:48:16 2017

Tools Copyright (c) 1996-2014 Texas Instruments Incorporated
C:\Users\wmj\AppData\Local\Temp\1257612                              PAGE   77

    3952 000004c1 5601          ADDL      XAR4,ACC              ; [CPU_] |434| 
         000004c2 00A4 
    3953 000004c3 9294          MOV       AL,*+XAR4[AR0]        ; [CPU_] |434| 
    3954              $C$DW$262       .dwtag  DW_TAG_TI_branch
    3955                      .dwattr $C$DW$262, DW_AT_low_pc(0x00)
    3956                      .dwattr $C$DW$262, DW_AT_TI_return
    3957 000004c4 0006          LRETR     ; [CPU_] 
    3958                      ; return occurs ; [] 
    3959 000004c5       $C$L66:    
    3960                      .dwpsn  file "D:/BM1000_v1.1/sw/drivers/drvic/fsm.c",line 433,column 35,is_stmt
    3961 000004c5 D00F          MOVB      XAR0,#15              ; [CPU_] |433| 
    3962 000004c6 3B01          SETC      SXM                   ; [CPU_] 
    3963 000004c7 8594          MOV       ACC,*+XAR4[AR0]       ; [CPU_] |433| 
    3964 000004c8 8AE4          MOVL      XAR4,*+XAR4[4]        ; [CPU_] |433| 
    3965 000004c9 5601          ADDL      XAR4,ACC              ; [CPU_] |433| 
         000004ca 00A4 
    3966 000004cb 92C4          MOV       AL,*+XAR4[0]          ; [CPU_] |433| 
    3967              $C$DW$263       .dwtag  DW_TAG_TI_branch
    3968                      .dwattr $C$DW$263, DW_AT_low_pc(0x00)
    3969                      .dwattr $C$DW$263, DW_AT_TI_return
    3970 000004cc 0006          LRETR     ; [CPU_] 
    3971                      ; return occurs ; [] 
    3972                      .dwattr $C$DW$257, DW_AT_TI_end_file("D:/BM1000_v1.1/sw/drivers/drvic/fsm.c")
    3973                      .dwattr $C$DW$257, DW_AT_TI_end_line(0x1be)
    3974                      .dwattr $C$DW$257, DW_AT_TI_end_column(0x01)
    3975                      .dwendentry
    3976                      .dwendtag $C$DW$257
    3977              
    3978 000004cd               .sect   ".text"
    3979                      .clink
    3980                      .global _FSM_485Edit_State_Box
    3981              
    3982              $C$DW$264       .dwtag  DW_TAG_subprogram, DW_AT_name("FSM_485Edit_State_Box")
    3983                      .dwattr $C$DW$264, DW_AT_low_pc(_FSM_485Edit_State_Box)
    3984                      .dwattr $C$DW$264, DW_AT_high_pc(0x00)
    3985                      .dwattr $C$DW$264, DW_AT_TI_symbol_name("_FSM_485Edit_State_Box")
    3986                      .dwattr $C$DW$264, DW_AT_external
    3987                      .dwattr $C$DW$264, DW_AT_TI_begin_file("D:/BM1000_v1.1/sw/drivers/drvic/fsm.c")
    3988                      .dwattr $C$DW$264, DW_AT_TI_begin_line(0x18f)
    3989                      .dwattr $C$DW$264, DW_AT_TI_begin_column(0x06)
    3990                      .dwattr $C$DW$264, DW_AT_TI_max_frame_size(-2)
    3991                      .dwpsn  file "D:/BM1000_v1.1/sw/drivers/drvic/fsm.c",line 400,column 1,is_stmt,address _FSM_485Edit_S
    3992              
    3993                      .dwfde $C$DW$CIE, _FSM_485Edit_State_Box
    3994              $C$DW$265       .dwtag  DW_TAG_formal_parameter, DW_AT_name("handle")
    3995                      .dwattr $C$DW$265, DW_AT_TI_symbol_name("_handle")
    3996                      .dwattr $C$DW$265, DW_AT_type(*$C$DW$T$169)
    3997                      .dwattr $C$DW$265, DW_AT_location[DW_OP_reg12]
    3998              $C$DW$266       .dwtag  DW_TAG_formal_parameter, DW_AT_name("Params")
    3999                      .dwattr $C$DW$266, DW_AT_TI_symbol_name("_Params")
    4000                      .dwattr $C$DW$266, DW_AT_type(*$C$DW$T$231)
    4001                      .dwattr $C$DW$266, DW_AT_location[DW_OP_reg0]
    4002              
    4003              ;***************************************************************
    4004              ;* FNAME: _FSM_485Edit_State_Box        FR SIZE:   0           *
TMS320C2000 Assembler PC v6.2.5 Wed Nov 22 14:48:16 2017

Tools Copyright (c) 1996-2014 Texas Instruments Incorporated
C:\Users\wmj\AppData\Local\Temp\1257612                              PAGE   78

    4005              ;*                                                             *
    4006              ;* FUNCTION ENVIRONMENT                                        *
    4007              ;*                                                             *
    4008              ;* FUNCTION PROPERTIES                                         *
    4009              ;*                            0 Parameter,  0 Auto,  0 SOE     *
    4010              ;***************************************************************
    4011              
    4012              _FSM_485Edit_State_Box:
    4013              ;* AR6   assigned to _Params
    4014              $C$DW$267       .dwtag  DW_TAG_variable, DW_AT_name("Params")
    4015                      .dwattr $C$DW$267, DW_AT_TI_symbol_name("_Params")
    4016                      .dwattr $C$DW$267, DW_AT_type(*$C$DW$T$231)
    4017                      .dwattr $C$DW$267, DW_AT_location[DW_OP_reg16]
    4018              ;* AR4   assigned to _handle
    4019              $C$DW$268       .dwtag  DW_TAG_variable, DW_AT_name("handle")
    4020                      .dwattr $C$DW$268, DW_AT_TI_symbol_name("_handle")
    4021                      .dwattr $C$DW$268, DW_AT_type(*$C$DW$T$170)
    4022                      .dwattr $C$DW$268, DW_AT_location[DW_OP_reg12]
    4023                      .dwcfi  cfa_offset, -2
    4024                      .dwcfi  save_reg_to_mem, 26, 0
    4025                      .dwcfi  save_reg_to_reg, 78, 26
    4026                      .dwpsn  file "D:/BM1000_v1.1/sw/drivers/drvic/fsm.c",line 403,column 4,is_stmt
    4027 000004cd D010          MOVB      XAR0,#16              ; [CPU_] |403| 
    4028                      .dwpsn  file "D:/BM1000_v1.1/sw/drivers/drvic/fsm.c",line 400,column 1,is_stmt
    4029 000004ce 88A9          MOVZ      AR6,AL                ; [CPU_] |400| 
    4030                      .dwpsn  file "D:/BM1000_v1.1/sw/drivers/drvic/fsm.c",line 403,column 4,is_stmt
    4031 000004cf 9394          MOV       AH,*+XAR4[AR0]        ; [CPU_] |403| 
    4032 000004d0 5302          CMPB      AH,#2                 ; [CPU_] |403| 
    4033 000004d1 6208          B         $C$L67,GT             ; [CPU_] |403| 
    4034                      ; branchcc occurs ; [] |403| 
    4035 000004d2 5302          CMPB      AH,#2                 ; [CPU_] |403| 
    4036 000004d3 EC18          BF        $C$L69,EQ             ; [CPU_] |403| 
    4037                      ; branchcc occurs ; [] |403| 
    4038 000004d4 5300          CMPB      AH,#0                 ; [CPU_] |403| 
    4039 000004d5 EC26          BF        $C$L72,EQ             ; [CPU_] |403| 
    4040                      ; branchcc occurs ; [] |403| 
    4041 000004d6 5301          CMPB      AH,#1                 ; [CPU_] |403| 
    4042 000004d7 EC1B          BF        $C$L70,EQ             ; [CPU_] |403| 
    4043                      ; branchcc occurs ; [] |403| 
    4044              $C$DW$269       .dwtag  DW_TAG_TI_branch
    4045                      .dwattr $C$DW$269, DW_AT_low_pc(0x00)
    4046                      .dwattr $C$DW$269, DW_AT_TI_return
    4047 000004d8 0006          LRETR     ; [CPU_] 
    4048                      ; return occurs ; [] 
    4049 000004d9       $C$L67:    
    4050 000004d9 5303          CMPB      AH,#3                 ; [CPU_] |403| 
    4051 000004da EC0A          BF        $C$L68,EQ             ; [CPU_] |403| 
    4052                      ; branchcc occurs ; [] |403| 
    4053 000004db 5304          CMPB      AH,#4                 ; [CPU_] |403| 
    4054 000004dc ED26          BF        $C$L73,NEQ            ; [CPU_] |403| 
    4055                      ; branchcc occurs ; [] |403| 
    4056                      .dwpsn  file "D:/BM1000_v1.1/sw/drivers/drvic/fsm.c",line 415,column 35,is_stmt
    4057 000004dd 520F          CMPB      AL,#15                ; [CPU_] |415| 
    4058 000004de 6724          B         $C$L73,HIS            ; [CPU_] |415| 
    4059                      ; branchcc occurs ; [] |415| 
TMS320C2000 Assembler PC v6.2.5 Wed Nov 22 14:48:16 2017

Tools Copyright (c) 1996-2014 Texas Instruments Incorporated
C:\Users\wmj\AppData\Local\Temp\1257612                              PAGE   79

    4060                      .dwpsn  file "D:/BM1000_v1.1/sw/drivers/drvic/fsm.c",line 416,column 32,is_stmt
    4061 000004df D00F          MOVB      XAR0,#15              ; [CPU_] |416| 
    4062 000004e0 3B01          SETC      SXM                   ; [CPU_] 
    4063 000004e1 8594          MOV       ACC,*+XAR4[AR0]       ; [CPU_] |416| 
    4064 000004e2 D03C          MOVB      XAR0,#60              ; [CPU_] |416| 
    4065 000004e3 6F13          B         $C$L71,UNC            ; [CPU_] |416| 
    4066                      ; branch occurs ; [] |416| 
    4067 000004e4       $C$L68:    
    4068                      .dwpsn  file "D:/BM1000_v1.1/sw/drivers/drvic/fsm.c",line 412,column 35,is_stmt
    4069 000004e4 520B          CMPB      AL,#11                ; [CPU_] |412| 
    4070 000004e5 671D          B         $C$L73,HIS            ; [CPU_] |412| 
    4071                      ; branchcc occurs ; [] |412| 
    4072                      .dwpsn  file "D:/BM1000_v1.1/sw/drivers/drvic/fsm.c",line 413,column 32,is_stmt
    4073 000004e6 D00F          MOVB      XAR0,#15              ; [CPU_] |413| 
    4074 000004e7 3B01          SETC      SXM                   ; [CPU_] 
    4075 000004e8 8594          MOV       ACC,*+XAR4[AR0]       ; [CPU_] |413| 
    4076 000004e9 D02D          MOVB      XAR0,#45              ; [CPU_] |413| 
    4077 000004ea 6F0C          B         $C$L71,UNC            ; [CPU_] |413| 
    4078                      ; branch occurs ; [] |413| 
    4079 000004eb       $C$L69:    
    4080                      .dwpsn  file "D:/BM1000_v1.1/sw/drivers/drvic/fsm.c",line 409,column 35,is_stmt
    4081 000004eb 520B          CMPB      AL,#11                ; [CPU_] |409| 
    4082 000004ec 6716          B         $C$L73,HIS            ; [CPU_] |409| 
    4083                      ; branchcc occurs ; [] |409| 
    4084                      .dwpsn  file "D:/BM1000_v1.1/sw/drivers/drvic/fsm.c",line 410,column 32,is_stmt
    4085 000004ed D00F          MOVB      XAR0,#15              ; [CPU_] |410| 
    4086 000004ee 3B01          SETC      SXM                   ; [CPU_] 
    4087 000004ef 8594          MOV       ACC,*+XAR4[AR0]       ; [CPU_] |410| 
    4088 000004f0 D01E          MOVB      XAR0,#30              ; [CPU_] |410| 
    4089 000004f1 6F05          B         $C$L71,UNC            ; [CPU_] |410| 
    4090                      ; branch occurs ; [] |410| 
    4091 000004f2       $C$L70:    
    4092                      .dwpsn  file "D:/BM1000_v1.1/sw/drivers/drvic/fsm.c",line 407,column 35,is_stmt
    4093 000004f2 D00F          MOVB      XAR0,#15              ; [CPU_] |407| 
    4094 000004f3 3B01          SETC      SXM                   ; [CPU_] 
    4095 000004f4 8594          MOV       ACC,*+XAR4[AR0]       ; [CPU_] |407| 
    4096 000004f5 D00F          MOVB      XAR0,#15              ; [CPU_] |407| 
    4097 000004f6       $C$L71:    
    4098 000004f6 8AE4          MOVL      XAR4,*+XAR4[4]        ; [CPU_] |407| 
    4099 000004f7 5601          ADDL      XAR4,ACC              ; [CPU_] |407| 
         000004f8 00A4 
    4100 000004f9 7E94          MOV       *+XAR4[AR0],AR6       ; [CPU_] |407| 
    4101              $C$DW$270       .dwtag  DW_TAG_TI_branch
    4102                      .dwattr $C$DW$270, DW_AT_low_pc(0x00)
    4103                      .dwattr $C$DW$270, DW_AT_TI_return
    4104 000004fa 0006          LRETR     ; [CPU_] 
    4105                      ; return occurs ; [] 
    4106 000004fb       $C$L72:    
    4107                      .dwpsn  file "D:/BM1000_v1.1/sw/drivers/drvic/fsm.c",line 406,column 35,is_stmt
    4108 000004fb D00F          MOVB      XAR0,#15              ; [CPU_] |406| 
    4109 000004fc 3B01          SETC      SXM                   ; [CPU_] 
    4110 000004fd 8594          MOV       ACC,*+XAR4[AR0]       ; [CPU_] |406| 
    4111 000004fe 8AE4          MOVL      XAR4,*+XAR4[4]        ; [CPU_] |406| 
    4112 000004ff 5601          ADDL      XAR4,ACC              ; [CPU_] |406| 
         00000500 00A4 
TMS320C2000 Assembler PC v6.2.5 Wed Nov 22 14:48:16 2017

Tools Copyright (c) 1996-2014 Texas Instruments Incorporated
C:\Users\wmj\AppData\Local\Temp\1257612                              PAGE   80

    4113 00000501 7EC4          MOV       *+XAR4[0],AR6         ; [CPU_] |406| 
    4114              $C$L73:    
    4115              $C$DW$271       .dwtag  DW_TAG_TI_branch
    4116                      .dwattr $C$DW$271, DW_AT_low_pc(0x00)
    4117                      .dwattr $C$DW$271, DW_AT_TI_return
    4118 00000502 0006          LRETR     ; [CPU_] 
    4119                      ; return occurs ; [] 
    4120                      .dwattr $C$DW$264, DW_AT_TI_end_file("D:/BM1000_v1.1/sw/drivers/drvic/fsm.c")
    4121                      .dwattr $C$DW$264, DW_AT_TI_end_line(0x1a7)
    4122                      .dwattr $C$DW$264, DW_AT_TI_end_column(0x01)
    4123                      .dwendentry
    4124                      .dwendtag $C$DW$264
    4125              
    4126              ;***************************************************************
    4127              ;* FLOATING-POINT CONSTANTS                                    *
    4128              ;***************************************************************
    4129 00000000               .sect   ".econst"
    4130                      .align  2
    4131 00000000 0000  $C$FL1: .xldouble       $strtod("0x1p+24")
         00000001 0000 
         00000002 0000 
         00000003 4170 
    4132              ;**************************************************************
    4133              ;* UNDEFINED EXTERNAL REFERENCES                              *
    4134              ;**************************************************************
    4135                      .global _usDelay
    4136                      .global _GPIO_setLow
    4137                      .global _GPIO_setHigh
    4138                      .global _GPIO_read
    4139                      .global FD$$MPY
    4140                      .global FS$$TOFD
    4141                      .global FD$$TOL
    4142                      .global L$$DIV
    4143              
    4144              ;***************************************************************
    4145              ;* TYPE INFORMATION                                            *
    4146              ;***************************************************************
    4147              
    4148              $C$DW$T$34      .dwtag  DW_TAG_enumeration_type
    4149                      .dwattr $C$DW$T$34, DW_AT_byte_size(0x01)
    4150              $C$DW$272       .dwtag  DW_TAG_enumerator, DW_AT_name("CTRL_TargetProc_2806x"), DW_AT_const_value(0x00)
    4151              $C$DW$273       .dwtag  DW_TAG_enumerator, DW_AT_name("CTRL_TargetProc_2805x"), DW_AT_const_value(0x01)
    4152              $C$DW$274       .dwtag  DW_TAG_enumerator, DW_AT_name("CTRL_TargetProc_2803x"), DW_AT_const_value(0x02)
    4153              $C$DW$275       .dwtag  DW_TAG_enumerator, DW_AT_name("CTRL_TargetProc_2802x"), DW_AT_const_value(0x03)
    4154              $C$DW$276       .dwtag  DW_TAG_enumerator, DW_AT_name("CTRL_TargetProc_Unknown"), DW_AT_const_value(0x04)
    4155                      .dwendtag $C$DW$T$34
    4156              
    4157              $C$DW$T$35      .dwtag  DW_TAG_typedef, DW_AT_name("CTRL_TargetProc_e")
    4158                      .dwattr $C$DW$T$35, DW_AT_type(*$C$DW$T$34)
    4159                      .dwattr $C$DW$T$35, DW_AT_language(DW_LANG_C)
    4160              
    4161              $C$DW$T$46      .dwtag  DW_TAG_enumeration_type
    4162                      .dwattr $C$DW$T$46, DW_AT_byte_size(0x01)
    4163              $C$DW$277       .dwtag  DW_TAG_enumerator, DW_AT_name("Fsm_State_Idle"), DW_AT_const_value(0x00)
    4164              $C$DW$278       .dwtag  DW_TAG_enumerator, DW_AT_name("Fsm_State_MotorFunc"), DW_AT_const_value(0x01)
TMS320C2000 Assembler PC v6.2.5 Wed Nov 22 14:48:16 2017

Tools Copyright (c) 1996-2014 Texas Instruments Incorporated
C:\Users\wmj\AppData\Local\Temp\1257612                              PAGE   81

    4165              $C$DW$279       .dwtag  DW_TAG_enumerator, DW_AT_name("Fsm_State_Spinning"), DW_AT_const_value(0x02)
    4166              $C$DW$280       .dwtag  DW_TAG_enumerator, DW_AT_name("Fsm_State_Reverse"), DW_AT_const_value(0x03)
    4167              $C$DW$281       .dwtag  DW_TAG_enumerator, DW_AT_name("Fsm_State_Slowdown"), DW_AT_const_value(0x04)
    4168              $C$DW$282       .dwtag  DW_TAG_enumerator, DW_AT_name("Fsm_State_ConstTorque"), DW_AT_const_value(0x05)
    4169              $C$DW$283       .dwtag  DW_TAG_enumerator, DW_AT_name("Fsm_State_MagneticBrake"), DW_AT_const_value(0x06)
    4170              $C$DW$284       .dwtag  DW_TAG_enumerator, DW_AT_name("Fsm_State_FullyClose"), DW_AT_const_value(0x07)
    4171              $C$DW$285       .dwtag  DW_TAG_enumerator, DW_AT_name("Fsm_State_InchingOpen"), DW_AT_const_value(0x08)
    4172              $C$DW$286       .dwtag  DW_TAG_enumerator, DW_AT_name("Fsm_State_FullyOpen"), DW_AT_const_value(0x09)
    4173              $C$DW$287       .dwtag  DW_TAG_enumerator, DW_AT_name("Fsm_State_SharedState1"), DW_AT_const_value(0x0a)
    4174              $C$DW$288       .dwtag  DW_TAG_enumerator, DW_AT_name("Fsm_State_SharedState2"), DW_AT_const_value(0x0b)
    4175              $C$DW$289       .dwtag  DW_TAG_enumerator, DW_AT_name("Fsm_State_SharedState3"), DW_AT_const_value(0x0c)
    4176              $C$DW$290       .dwtag  DW_TAG_enumerator, DW_AT_name("Fsm_State_NormWait"), DW_AT_const_value(0x0d)
    4177              $C$DW$291       .dwtag  DW_TAG_enumerator, DW_AT_name("Fsm_State_STOP"), DW_AT_const_value(0x0e)
    4178              $C$DW$292       .dwtag  DW_TAG_enumerator, DW_AT_name("Fsm_State_Num"), DW_AT_const_value(0x0f)
    4179                      .dwendtag $C$DW$T$46
    4180              
    4181              $C$DW$T$47      .dwtag  DW_TAG_typedef, DW_AT_name("FSM_State_e")
    4182                      .dwattr $C$DW$T$47, DW_AT_type(*$C$DW$T$46)
    4183                      .dwattr $C$DW$T$47, DW_AT_language(DW_LANG_C)
    4184              
    4185              $C$DW$T$70      .dwtag  DW_TAG_array_type
    4186                      .dwattr $C$DW$T$70, DW_AT_type(*$C$DW$T$47)
    4187                      .dwattr $C$DW$T$70, DW_AT_language(DW_LANG_C)
    4188                      .dwattr $C$DW$T$70, DW_AT_byte_size(0x0f)
    4189              $C$DW$293       .dwtag  DW_TAG_subrange_type
    4190                      .dwattr $C$DW$293, DW_AT_upper_bound(0x0e)
    4191                      .dwendtag $C$DW$T$70
    4192              
    4193              
    4194              $C$DW$T$48      .dwtag  DW_TAG_enumeration_type
    4195                      .dwattr $C$DW$T$48, DW_AT_byte_size(0x01)
    4196              $C$DW$294       .dwtag  DW_TAG_enumerator, DW_AT_name("FSM_Trans_RetireState"), DW_AT_const_value(0x00)
    4197              $C$DW$295       .dwtag  DW_TAG_enumerator, DW_AT_name("FSM_Trans_LoopForever"), DW_AT_const_value(0x01)
    4198              $C$DW$296       .dwtag  DW_TAG_enumerator, DW_AT_name("FSM_Trans_JumpState1"), DW_AT_const_value(0x02)
    4199              $C$DW$297       .dwtag  DW_TAG_enumerator, DW_AT_name("FSM_Trans_JumpState2"), DW_AT_const_value(0x03)
    4200                      .dwendtag $C$DW$T$48
    4201              
    4202              $C$DW$T$49      .dwtag  DW_TAG_typedef, DW_AT_name("FSM_Trans_e")
    4203                      .dwattr $C$DW$T$49, DW_AT_type(*$C$DW$T$48)
    4204                      .dwattr $C$DW$T$49, DW_AT_language(DW_LANG_C)
    4205              
    4206              $C$DW$T$50      .dwtag  DW_TAG_enumeration_type
    4207                      .dwattr $C$DW$T$50, DW_AT_byte_size(0x01)
    4208              $C$DW$298       .dwtag  DW_TAG_enumerator, DW_AT_name("FSM_Event_IDLE"), DW_AT_const_value(0x00)
    4209              $C$DW$299       .dwtag  DW_TAG_enumerator, DW_AT_name("FSM_Event_MeetTime"), DW_AT_const_value(0x01)
    4210              $C$DW$300       .dwtag  DW_TAG_enumerator, DW_AT_name("FSM_Event_ArriveRefSpd"), DW_AT_const_value(0x02)
    4211              $C$DW$301       .dwtag  DW_TAG_enumerator, DW_AT_name("FSM_Event_485Start"), DW_AT_const_value(0x03)
    4212              $C$DW$302       .dwtag  DW_TAG_enumerator, DW_AT_name("FSM_Event_Sensor0"), DW_AT_const_value(0x04)
    4213              $C$DW$303       .dwtag  DW_TAG_enumerator, DW_AT_name("FSM_Event_Sensor1"), DW_AT_const_value(0x05)
    4214              $C$DW$304       .dwtag  DW_TAG_enumerator, DW_AT_name("FSM_Event_arrive_point"), DW_AT_const_value(0x06)
    4215              $C$DW$305       .dwtag  DW_TAG_enumerator, DW_AT_name("FSM_Event_ContactSensor"), DW_AT_const_value(0x07)
    4216              $C$DW$306       .dwtag  DW_TAG_enumerator, DW_AT_name("FSM_Event_ZeroSpeed"), DW_AT_const_value(0x08)
    4217              $C$DW$307       .dwtag  DW_TAG_enumerator, DW_AT_name("FSM_Event_MoveIdle"), DW_AT_const_value(0x09)
    4218              $C$DW$308       .dwtag  DW_TAG_enumerator, DW_AT_name("FSM_Event_Num"), DW_AT_const_value(0x0a)
    4219                      .dwendtag $C$DW$T$50
TMS320C2000 Assembler PC v6.2.5 Wed Nov 22 14:48:16 2017

Tools Copyright (c) 1996-2014 Texas Instruments Incorporated
C:\Users\wmj\AppData\Local\Temp\1257612                              PAGE   82

    4220              
    4221              $C$DW$T$51      .dwtag  DW_TAG_typedef, DW_AT_name("FSM_Event_e")
    4222                      .dwattr $C$DW$T$51, DW_AT_type(*$C$DW$T$50)
    4223                      .dwattr $C$DW$T$51, DW_AT_language(DW_LANG_C)
    4224              $C$DW$309       .dwtag  DW_TAG_TI_far_type
    4225                      .dwattr $C$DW$309, DW_AT_type(*$C$DW$T$51)
    4226              $C$DW$T$160     .dwtag  DW_TAG_const_type
    4227                      .dwattr $C$DW$T$160, DW_AT_type(*$C$DW$309)
    4228              
    4229              $C$DW$T$161     .dwtag  DW_TAG_array_type
    4230                      .dwattr $C$DW$T$161, DW_AT_type(*$C$DW$T$160)
    4231                      .dwattr $C$DW$T$161, DW_AT_language(DW_LANG_C)
    4232                      .dwattr $C$DW$T$161, DW_AT_byte_size(0x0b)
    4233              $C$DW$310       .dwtag  DW_TAG_subrange_type
    4234                      .dwattr $C$DW$310, DW_AT_upper_bound(0x0a)
    4235                      .dwendtag $C$DW$T$161
    4236              
    4237              
    4238              $C$DW$T$52      .dwtag  DW_TAG_enumeration_type
    4239                      .dwattr $C$DW$T$52, DW_AT_byte_size(0x01)
    4240              $C$DW$311       .dwtag  DW_TAG_enumerator, DW_AT_name("FSM_StateMode_Free_mode"), DW_AT_const_value(0x00)
    4241              $C$DW$312       .dwtag  DW_TAG_enumerator, DW_AT_name("FSM_StateMode_Nipping_mode"), DW_AT_const_value(0x01)
    4242              $C$DW$313       .dwtag  DW_TAG_enumerator, DW_AT_name("FSM_StateMode_Notching_mode"), DW_AT_const_value(0x02)
    4243              $C$DW$314       .dwtag  DW_TAG_enumerator, DW_AT_name("FSM_StateMode_TrimPlat_mode"), DW_AT_const_value(0x03)
    4244              $C$DW$315       .dwtag  DW_TAG_enumerator, DW_AT_name("FSM_StateMode_Clamper_mode"), DW_AT_const_value(0x04)
    4245              $C$DW$316       .dwtag  DW_TAG_enumerator, DW_AT_name("FSM_StateMode_GlueTank_mode"), DW_AT_const_value(0x05)
    4246              $C$DW$317       .dwtag  DW_TAG_enumerator, DW_AT_name("FSM_StateMode_BlowerFan_mode"), DW_AT_const_value(0x06
    4247              $C$DW$318       .dwtag  DW_TAG_enumerator, DW_AT_name("FSM_StateMode_Trolley_mode"), DW_AT_const_value(0x07)
    4248              $C$DW$319       .dwtag  DW_TAG_enumerator, DW_AT_name("FSM_StateMode_Num"), DW_AT_const_value(0x08)
    4249                      .dwendtag $C$DW$T$52
    4250              
    4251              $C$DW$T$53      .dwtag  DW_TAG_typedef, DW_AT_name("FSM_StateMode_e")
    4252                      .dwattr $C$DW$T$53, DW_AT_type(*$C$DW$T$52)
    4253                      .dwattr $C$DW$T$53, DW_AT_language(DW_LANG_C)
    4254              
    4255              $C$DW$T$54      .dwtag  DW_TAG_enumeration_type
    4256                      .dwattr $C$DW$T$54, DW_AT_byte_size(0x01)
    4257              $C$DW$320       .dwtag  DW_TAG_enumerator, DW_AT_name("FSM_485EditOpt_RefSpeed"), DW_AT_const_value(0x00)
    4258              $C$DW$321       .dwtag  DW_TAG_enumerator, DW_AT_name("FSM_485EditOpt_CondValue"), DW_AT_const_value(0x01)
    4259              $C$DW$322       .dwtag  DW_TAG_enumerator, DW_AT_name("FSM_485EditOpt_Condition"), DW_AT_const_value(0x02)
    4260              $C$DW$323       .dwtag  DW_TAG_enumerator, DW_AT_name("FSM_485EditOpt_RunAction"), DW_AT_const_value(0x03)
    4261              $C$DW$324       .dwtag  DW_TAG_enumerator, DW_AT_name("FSM_485EditOpt_NextState"), DW_AT_const_value(0x04)
    4262              $C$DW$325       .dwtag  DW_TAG_enumerator, DW_AT_name("FSM_485EditOpt_Num"), DW_AT_const_value(0x05)
    4263                      .dwendtag $C$DW$T$54
    4264              
    4265              $C$DW$T$55      .dwtag  DW_TAG_typedef, DW_AT_name("FSM_EditOpt_e")
    4266                      .dwattr $C$DW$T$55, DW_AT_type(*$C$DW$T$54)
    4267                      .dwattr $C$DW$T$55, DW_AT_language(DW_LANG_C)
    4268              
    4269              $C$DW$T$56      .dwtag  DW_TAG_enumeration_type
    4270                      .dwattr $C$DW$T$56, DW_AT_byte_size(0x01)
    4271              $C$DW$326       .dwtag  DW_TAG_enumerator, DW_AT_name("FSM_Condition_Times"), DW_AT_const_value(0x00)
    4272              $C$DW$327       .dwtag  DW_TAG_enumerator, DW_AT_name("FSM_Condition_Speed"), DW_AT_const_value(0x01)
    4273              $C$DW$328       .dwtag  DW_TAG_enumerator, DW_AT_name("FSM_Condition_485Cmd"), DW_AT_const_value(0x02)
    4274              $C$DW$329       .dwtag  DW_TAG_enumerator, DW_AT_name("FSM_Condition_KeyS1"), DW_AT_const_value(0x03)
TMS320C2000 Assembler PC v6.2.5 Wed Nov 22 14:48:16 2017

Tools Copyright (c) 1996-2014 Texas Instruments Incorporated
C:\Users\wmj\AppData\Local\Temp\1257612                              PAGE   83

    4275              $C$DW$330       .dwtag  DW_TAG_enumerator, DW_AT_name("FSM_Condition_KeyS2"), DW_AT_const_value(0x04)
    4276              $C$DW$331       .dwtag  DW_TAG_enumerator, DW_AT_name("FSM_Condition_AnalogS1"), DW_AT_const_value(0x05)
    4277              $C$DW$332       .dwtag  DW_TAG_enumerator, DW_AT_name("FSM_Condition_AnalogS2"), DW_AT_const_value(0x06)
    4278              $C$DW$333       .dwtag  DW_TAG_enumerator, DW_AT_name("FSM_Condition_ContactS1"), DW_AT_const_value(0x07)
    4279              $C$DW$334       .dwtag  DW_TAG_enumerator, DW_AT_name("FSM_Condition_ContactS2"), DW_AT_const_value(0x08)
    4280              $C$DW$335       .dwtag  DW_TAG_enumerator, DW_AT_name("FSM_Condition_ZeroSpeed"), DW_AT_const_value(0x09)
    4281              $C$DW$336       .dwtag  DW_TAG_enumerator, DW_AT_name("FSM_Condition_MoveStatus"), DW_AT_const_value(0x0a)
    4282              $C$DW$337       .dwtag  DW_TAG_enumerator, DW_AT_name("FSM_Condition_Num"), DW_AT_const_value(0x0b)
    4283                      .dwendtag $C$DW$T$56
    4284              
    4285              $C$DW$T$57      .dwtag  DW_TAG_typedef, DW_AT_name("FSM_Cond_e")
    4286                      .dwattr $C$DW$T$57, DW_AT_type(*$C$DW$T$56)
    4287                      .dwattr $C$DW$T$57, DW_AT_language(DW_LANG_C)
    4288              
    4289              $C$DW$T$66      .dwtag  DW_TAG_array_type
    4290                      .dwattr $C$DW$T$66, DW_AT_type(*$C$DW$T$57)
    4291                      .dwattr $C$DW$T$66, DW_AT_language(DW_LANG_C)
    4292                      .dwattr $C$DW$T$66, DW_AT_byte_size(0x0f)
    4293              $C$DW$338       .dwtag  DW_TAG_subrange_type
    4294                      .dwattr $C$DW$338, DW_AT_upper_bound(0x0e)
    4295                      .dwendtag $C$DW$T$66
    4296              
    4297              
    4298              $C$DW$T$67      .dwtag  DW_TAG_enumeration_type
    4299                      .dwattr $C$DW$T$67, DW_AT_byte_size(0x01)
    4300              $C$DW$339       .dwtag  DW_TAG_enumerator, DW_AT_name("FSM_Action_RunIDLE"), DW_AT_const_value(0x00)
    4301              $C$DW$340       .dwtag  DW_TAG_enumerator, DW_AT_name("FSM_Action_calcSensorPos"), DW_AT_const_value(0x01)
    4302              $C$DW$341       .dwtag  DW_TAG_enumerator, DW_AT_name("FSM_Action_calcRelativePos"), DW_AT_const_value(0x02)
    4303              $C$DW$342       .dwtag  DW_TAG_enumerator, DW_AT_name("FSM_Action_CheckCoverSensor"), DW_AT_const_value(0x03)
    4304              $C$DW$343       .dwtag  DW_TAG_enumerator, DW_AT_name("FSM_Action_SetPosStep"), DW_AT_const_value(0x04)
    4305              $C$DW$344       .dwtag  DW_TAG_enumerator, DW_AT_name("FSM_Action_CheckPosition"), DW_AT_const_value(0x05)
    4306              $C$DW$345       .dwtag  DW_TAG_enumerator, DW_AT_name("FSM_Action_VelTransToPos"), DW_AT_const_value(0x06)
    4307              $C$DW$346       .dwtag  DW_TAG_enumerator, DW_AT_name("FSM_Action_SetVelocity"), DW_AT_const_value(0x07)
    4308              $C$DW$347       .dwtag  DW_TAG_enumerator, DW_AT_name("FSM_Action_RunVelocityMode"), DW_AT_const_value(0x08)
    4309              $C$DW$348       .dwtag  DW_TAG_enumerator, DW_AT_name("FSM_Action_ReleaseDcBrake"), DW_AT_const_value(0x09)
    4310              $C$DW$349       .dwtag  DW_TAG_enumerator, DW_AT_name("FSM_Action_RunSTOP"), DW_AT_const_value(0x0a)
    4311              $C$DW$350       .dwtag  DW_TAG_enumerator, DW_AT_name("FSM_Action_Num"), DW_AT_const_value(0x0b)
    4312                      .dwendtag $C$DW$T$67
    4313              
    4314              $C$DW$T$68      .dwtag  DW_TAG_typedef, DW_AT_name("FSM_Action_e")
    4315                      .dwattr $C$DW$T$68, DW_AT_type(*$C$DW$T$67)
    4316                      .dwattr $C$DW$T$68, DW_AT_language(DW_LANG_C)
    4317              
    4318              $C$DW$T$69      .dwtag  DW_TAG_array_type
    4319                      .dwattr $C$DW$T$69, DW_AT_type(*$C$DW$T$68)
    4320                      .dwattr $C$DW$T$69, DW_AT_language(DW_LANG_C)
    4321                      .dwattr $C$DW$T$69, DW_AT_byte_size(0x0f)
    4322              $C$DW$351       .dwtag  DW_TAG_subrange_type
    4323                      .dwattr $C$DW$351, DW_AT_upper_bound(0x0e)
    4324                      .dwendtag $C$DW$T$69
    4325              
    4326              
    4327              $C$DW$T$116     .dwtag  DW_TAG_enumeration_type
    4328                      .dwattr $C$DW$T$116, DW_AT_byte_size(0x01)
    4329              $C$DW$352       .dwtag  DW_TAG_enumerator, DW_AT_name("HAL_BoardAddr_Motor1"), DW_AT_const_value(0x00)
TMS320C2000 Assembler PC v6.2.5 Wed Nov 22 14:48:16 2017

Tools Copyright (c) 1996-2014 Texas Instruments Incorporated
C:\Users\wmj\AppData\Local\Temp\1257612                              PAGE   84

    4330              $C$DW$353       .dwtag  DW_TAG_enumerator, DW_AT_name("HAL_BoardAddr_Motor2"), DW_AT_const_value(0x01)
    4331              $C$DW$354       .dwtag  DW_TAG_enumerator, DW_AT_name("HAL_BoardAddr_Motor3"), DW_AT_const_value(0x02)
    4332              $C$DW$355       .dwtag  DW_TAG_enumerator, DW_AT_name("HAL_BoardAddr_Motor4"), DW_AT_const_value(0x03)
    4333              $C$DW$356       .dwtag  DW_TAG_enumerator, DW_AT_name("HAL_BoardAddr_Motor5"), DW_AT_const_value(0x04)
    4334              $C$DW$357       .dwtag  DW_TAG_enumerator, DW_AT_name("HAL_BoardAddr_Motor6"), DW_AT_const_value(0x05)
    4335              $C$DW$358       .dwtag  DW_TAG_enumerator, DW_AT_name("HAL_BoardAddr_Motor7"), DW_AT_const_value(0x06)
    4336              $C$DW$359       .dwtag  DW_TAG_enumerator, DW_AT_name("HAL_BoardAddr_Heater"), DW_AT_const_value(0x07)
    4337              $C$DW$360       .dwtag  DW_TAG_enumerator, DW_AT_name("HAL_BoardAddr_OpenLoop"), DW_AT_const_value(0x08)
    4338              $C$DW$361       .dwtag  DW_TAG_enumerator, DW_AT_name("HAL_BoardAddr_Short"), DW_AT_const_value(0x09)
    4339                      .dwendtag $C$DW$T$116
    4340              
    4341              $C$DW$T$117     .dwtag  DW_TAG_typedef, DW_AT_name("HAL_BdAddr_e")
    4342                      .dwattr $C$DW$T$117, DW_AT_type(*$C$DW$T$116)
    4343                      .dwattr $C$DW$T$117, DW_AT_language(DW_LANG_C)
    4344              
    4345              $C$DW$T$121     .dwtag  DW_TAG_enumeration_type
    4346                      .dwattr $C$DW$T$121, DW_AT_byte_size(0x01)
    4347              $C$DW$362       .dwtag  DW_TAG_enumerator, DW_AT_name("CTRL_State_Error"), DW_AT_const_value(0x00)
    4348              $C$DW$363       .dwtag  DW_TAG_enumerator, DW_AT_name("CTRL_State_Idle"), DW_AT_const_value(0x01)
    4349              $C$DW$364       .dwtag  DW_TAG_enumerator, DW_AT_name("CTRL_State_OffLine"), DW_AT_const_value(0x02)
    4350              $C$DW$365       .dwtag  DW_TAG_enumerator, DW_AT_name("CTRL_State_OnLine"), DW_AT_const_value(0x03)
    4351              $C$DW$366       .dwtag  DW_TAG_enumerator, DW_AT_name("CTRL_numStates"), DW_AT_const_value(0x04)
    4352                      .dwendtag $C$DW$T$121
    4353              
    4354              $C$DW$T$122     .dwtag  DW_TAG_typedef, DW_AT_name("CTRL_State_e")
    4355                      .dwattr $C$DW$T$122, DW_AT_type(*$C$DW$T$121)
    4356                      .dwattr $C$DW$T$122, DW_AT_language(DW_LANG_C)
    4357              
    4358              $C$DW$T$123     .dwtag  DW_TAG_enumeration_type
    4359                      .dwattr $C$DW$T$123, DW_AT_byte_size(0x01)
    4360              $C$DW$367       .dwtag  DW_TAG_enumerator, DW_AT_name("EST_State_Error"), DW_AT_const_value(0x00)
    4361              $C$DW$368       .dwtag  DW_TAG_enumerator, DW_AT_name("EST_State_Idle"), DW_AT_const_value(0x01)
    4362              $C$DW$369       .dwtag  DW_TAG_enumerator, DW_AT_name("EST_State_RoverL"), DW_AT_const_value(0x02)
    4363              $C$DW$370       .dwtag  DW_TAG_enumerator, DW_AT_name("EST_State_Rs"), DW_AT_const_value(0x03)
    4364              $C$DW$371       .dwtag  DW_TAG_enumerator, DW_AT_name("EST_State_RampUp"), DW_AT_const_value(0x04)
    4365              $C$DW$372       .dwtag  DW_TAG_enumerator, DW_AT_name("EST_State_IdRated"), DW_AT_const_value(0x05)
    4366              $C$DW$373       .dwtag  DW_TAG_enumerator, DW_AT_name("EST_State_RatedFlux_OL"), DW_AT_const_value(0x06)
    4367              $C$DW$374       .dwtag  DW_TAG_enumerator, DW_AT_name("EST_State_RatedFlux"), DW_AT_const_value(0x07)
    4368              $C$DW$375       .dwtag  DW_TAG_enumerator, DW_AT_name("EST_State_RampDown"), DW_AT_const_value(0x08)
    4369              $C$DW$376       .dwtag  DW_TAG_enumerator, DW_AT_name("EST_State_LockRotor"), DW_AT_const_value(0x09)
    4370              $C$DW$377       .dwtag  DW_TAG_enumerator, DW_AT_name("EST_State_Ls"), DW_AT_const_value(0x0a)
    4371              $C$DW$378       .dwtag  DW_TAG_enumerator, DW_AT_name("EST_State_Rr"), DW_AT_const_value(0x0b)
    4372              $C$DW$379       .dwtag  DW_TAG_enumerator, DW_AT_name("EST_State_MotorIdentified"), DW_AT_const_value(0x0c)
    4373              $C$DW$380       .dwtag  DW_TAG_enumerator, DW_AT_name("EST_State_OnLine"), DW_AT_const_value(0x0d)
    4374              $C$DW$381       .dwtag  DW_TAG_enumerator, DW_AT_name("EST_numStates"), DW_AT_const_value(0x0e)
    4375                      .dwendtag $C$DW$T$123
    4376              
    4377              $C$DW$T$124     .dwtag  DW_TAG_typedef, DW_AT_name("EST_State_e")
    4378                      .dwattr $C$DW$T$124, DW_AT_type(*$C$DW$T$123)
    4379                      .dwattr $C$DW$T$124, DW_AT_language(DW_LANG_C)
    4380              
    4381              $C$DW$T$125     .dwtag  DW_TAG_enumeration_type
    4382                      .dwattr $C$DW$T$125, DW_AT_byte_size(0x01)
    4383              $C$DW$382       .dwtag  DW_TAG_enumerator, DW_AT_name("USER_ErrorCode_NoError"), DW_AT_const_value(0x00)
    4384              $C$DW$383       .dwtag  DW_TAG_enumerator, DW_AT_name("USER_ErrorCode_iqFullScaleCurrent_A_High"), DW_AT_cons
TMS320C2000 Assembler PC v6.2.5 Wed Nov 22 14:48:16 2017

Tools Copyright (c) 1996-2014 Texas Instruments Incorporated
C:\Users\wmj\AppData\Local\Temp\1257612                              PAGE   85

    4385              $C$DW$384       .dwtag  DW_TAG_enumerator, DW_AT_name("USER_ErrorCode_iqFullScaleCurrent_A_Low"), DW_AT_const
    4386              $C$DW$385       .dwtag  DW_TAG_enumerator, DW_AT_name("USER_ErrorCode_iqFullScaleVoltage_V_High"), DW_AT_cons
    4387              $C$DW$386       .dwtag  DW_TAG_enumerator, DW_AT_name("USER_ErrorCode_iqFullScaleVoltage_V_Low"), DW_AT_const
    4388              $C$DW$387       .dwtag  DW_TAG_enumerator, DW_AT_name("USER_ErrorCode_iqFullScaleFreq_Hz_High"), DW_AT_const_
    4389              $C$DW$388       .dwtag  DW_TAG_enumerator, DW_AT_name("USER_ErrorCode_iqFullScaleFreq_Hz_Low"), DW_AT_const_v
    4390              $C$DW$389       .dwtag  DW_TAG_enumerator, DW_AT_name("USER_ErrorCode_numPwmTicksPerIsrTick_High"), DW_AT_con
    4391              $C$DW$390       .dwtag  DW_TAG_enumerator, DW_AT_name("USER_ErrorCode_numPwmTicksPerIsrTick_Low"), DW_AT_cons
    4392              $C$DW$391       .dwtag  DW_TAG_enumerator, DW_AT_name("USER_ErrorCode_numIsrTicksPerCtrlTick_High"), DW_AT_co
    4393              $C$DW$392       .dwtag  DW_TAG_enumerator, DW_AT_name("USER_ErrorCode_numIsrTicksPerCtrlTick_Low"), DW_AT_con
    4394              $C$DW$393       .dwtag  DW_TAG_enumerator, DW_AT_name("USER_ErrorCode_numCtrlTicksPerCurrentTick_High"), DW_A
    4395              $C$DW$394       .dwtag  DW_TAG_enumerator, DW_AT_name("USER_ErrorCode_numCtrlTicksPerCurrentTick_Low"), DW_AT
    4396              $C$DW$395       .dwtag  DW_TAG_enumerator, DW_AT_name("USER_ErrorCode_numCtrlTicksPerEstTick_High"), DW_AT_co
    4397              $C$DW$396       .dwtag  DW_TAG_enumerator, DW_AT_name("USER_ErrorCode_numCtrlTicksPerEstTick_Low"), DW_AT_con
    4398              $C$DW$397       .dwtag  DW_TAG_enumerator, DW_AT_name("USER_ErrorCode_numCtrlTicksPerSpeedTick_High"), DW_AT_
    4399              $C$DW$398       .dwtag  DW_TAG_enumerator, DW_AT_name("USER_ErrorCode_numCtrlTicksPerSpeedTick_Low"), DW_AT_c
    4400              $C$DW$399       .dwtag  DW_TAG_enumerator, DW_AT_name("USER_ErrorCode_numCtrlTicksPerTrajTick_High"), DW_AT_c
    4401              $C$DW$400       .dwtag  DW_TAG_enumerator, DW_AT_name("USER_ErrorCode_numCtrlTicksPerTrajTick_Low"), DW_AT_co
    4402              $C$DW$401       .dwtag  DW_TAG_enumerator, DW_AT_name("USER_ErrorCode_numCurrentSensors_High"), DW_AT_const_v
    4403              $C$DW$402       .dwtag  DW_TAG_enumerator, DW_AT_name("USER_ErrorCode_numCurrentSensors_Low"), DW_AT_const_va
    4404              $C$DW$403       .dwtag  DW_TAG_enumerator, DW_AT_name("USER_ErrorCode_numVoltageSensors_High"), DW_AT_const_v
    4405              $C$DW$404       .dwtag  DW_TAG_enumerator, DW_AT_name("USER_ErrorCode_numVoltageSensors_Low"), DW_AT_const_va
    4406              $C$DW$405       .dwtag  DW_TAG_enumerator, DW_AT_name("USER_ErrorCode_offsetPole_rps_High"), DW_AT_const_valu
    4407              $C$DW$406       .dwtag  DW_TAG_enumerator, DW_AT_name("USER_ErrorCode_offsetPole_rps_Low"), DW_AT_const_value
    4408              $C$DW$407       .dwtag  DW_TAG_enumerator, DW_AT_name("USER_ErrorCode_fluxPole_rps_High"), DW_AT_const_value(
    4409              $C$DW$408       .dwtag  DW_TAG_enumerator, DW_AT_name("USER_ErrorCode_fluxPole_rps_Low"), DW_AT_const_value(0
    4410              $C$DW$409       .dwtag  DW_TAG_enumerator, DW_AT_name("USER_ErrorCode_zeroSpeedLimit_High"), DW_AT_const_valu
    4411              $C$DW$410       .dwtag  DW_TAG_enumerator, DW_AT_name("USER_ErrorCode_zeroSpeedLimit_Low"), DW_AT_const_value
    4412              $C$DW$411       .dwtag  DW_TAG_enumerator, DW_AT_name("USER_ErrorCode_forceAngleFreq_Hz_High"), DW_AT_const_v
    4413              $C$DW$412       .dwtag  DW_TAG_enumerator, DW_AT_name("USER_ErrorCode_forceAngleFreq_Hz_Low"), DW_AT_const_va
    4414              $C$DW$413       .dwtag  DW_TAG_enumerator, DW_AT_name("USER_ErrorCode_maxAccel_Hzps_High"), DW_AT_const_value
    4415              $C$DW$414       .dwtag  DW_TAG_enumerator, DW_AT_name("USER_ErrorCode_maxAccel_Hzps_Low"), DW_AT_const_value(
    4416              $C$DW$415       .dwtag  DW_TAG_enumerator, DW_AT_name("USER_ErrorCode_maxAccel_est_Hzps_High"), DW_AT_const_v
    4417              $C$DW$416       .dwtag  DW_TAG_enumerator, DW_AT_name("USER_ErrorCode_maxAccel_est_Hzps_Low"), DW_AT_const_va
    4418              $C$DW$417       .dwtag  DW_TAG_enumerator, DW_AT_name("USER_ErrorCode_directionPole_rps_High"), DW_AT_const_v
    4419              $C$DW$418       .dwtag  DW_TAG_enumerator, DW_AT_name("USER_ErrorCode_directionPole_rps_Low"), DW_AT_const_va
    4420              $C$DW$419       .dwtag  DW_TAG_enumerator, DW_AT_name("USER_ErrorCode_speedPole_rps_High"), DW_AT_const_value
    4421              $C$DW$420       .dwtag  DW_TAG_enumerator, DW_AT_name("USER_ErrorCode_speedPole_rps_Low"), DW_AT_const_value(
    4422              $C$DW$421       .dwtag  DW_TAG_enumerator, DW_AT_name("USER_ErrorCode_dcBusPole_rps_High"), DW_AT_const_value
    4423              $C$DW$422       .dwtag  DW_TAG_enumerator, DW_AT_name("USER_ErrorCode_dcBusPole_rps_Low"), DW_AT_const_value(
    4424              $C$DW$423       .dwtag  DW_TAG_enumerator, DW_AT_name("USER_ErrorCode_fluxFraction_High"), DW_AT_const_value(
    4425              $C$DW$424       .dwtag  DW_TAG_enumerator, DW_AT_name("USER_ErrorCode_fluxFraction_Low"), DW_AT_const_value(0
    4426              $C$DW$425       .dwtag  DW_TAG_enumerator, DW_AT_name("USER_ErrorCode_indEst_speedMaxFraction_High"), DW_AT_c
    4427              $C$DW$426       .dwtag  DW_TAG_enumerator, DW_AT_name("USER_ErrorCode_indEst_speedMaxFraction_Low"), DW_AT_co
    4428              $C$DW$427       .dwtag  DW_TAG_enumerator, DW_AT_name("USER_ErrorCode_powerWarpGain_High"), DW_AT_const_value
    4429              $C$DW$428       .dwtag  DW_TAG_enumerator, DW_AT_name("USER_ErrorCode_powerWarpGain_Low"), DW_AT_const_value(
    4430              $C$DW$429       .dwtag  DW_TAG_enumerator, DW_AT_name("USER_ErrorCode_systemFreq_MHz_High"), DW_AT_const_valu
    4431              $C$DW$430       .dwtag  DW_TAG_enumerator, DW_AT_name("USER_ErrorCode_systemFreq_MHz_Low"), DW_AT_const_value
    4432              $C$DW$431       .dwtag  DW_TAG_enumerator, DW_AT_name("USER_ErrorCode_pwmFreq_kHz_High"), DW_AT_const_value(0
    4433              $C$DW$432       .dwtag  DW_TAG_enumerator, DW_AT_name("USER_ErrorCode_pwmFreq_kHz_Low"), DW_AT_const_value(0x
    4434              $C$DW$433       .dwtag  DW_TAG_enumerator, DW_AT_name("USER_ErrorCode_voltage_sf_High"), DW_AT_const_value(0x
    4435              $C$DW$434       .dwtag  DW_TAG_enumerator, DW_AT_name("USER_ErrorCode_voltage_sf_Low"), DW_AT_const_value(0x3
    4436              $C$DW$435       .dwtag  DW_TAG_enumerator, DW_AT_name("USER_ErrorCode_current_sf_High"), DW_AT_const_value(0x
    4437              $C$DW$436       .dwtag  DW_TAG_enumerator, DW_AT_name("USER_ErrorCode_current_sf_Low"), DW_AT_const_value(0x3
    4438              $C$DW$437       .dwtag  DW_TAG_enumerator, DW_AT_name("USER_ErrorCode_voltageFilterPole_Hz_High"), DW_AT_cons
    4439              $C$DW$438       .dwtag  DW_TAG_enumerator, DW_AT_name("USER_ErrorCode_voltageFilterPole_Hz_Low"), DW_AT_const
TMS320C2000 Assembler PC v6.2.5 Wed Nov 22 14:48:16 2017

Tools Copyright (c) 1996-2014 Texas Instruments Incorporated
C:\Users\wmj\AppData\Local\Temp\1257612                              PAGE   86

    4440              $C$DW$439       .dwtag  DW_TAG_enumerator, DW_AT_name("USER_ErrorCode_maxVsMag_pu_High"), DW_AT_const_value(0
    4441              $C$DW$440       .dwtag  DW_TAG_enumerator, DW_AT_name("USER_ErrorCode_maxVsMag_pu_Low"), DW_AT_const_value(0x
    4442              $C$DW$441       .dwtag  DW_TAG_enumerator, DW_AT_name("USER_ErrorCode_estKappa_High"), DW_AT_const_value(0x3b
    4443              $C$DW$442       .dwtag  DW_TAG_enumerator, DW_AT_name("USER_ErrorCode_estKappa_Low"), DW_AT_const_value(0x3c)
    4444              $C$DW$443       .dwtag  DW_TAG_enumerator, DW_AT_name("USER_ErrorCode_motor_type_Unknown"), DW_AT_const_value
    4445              $C$DW$444       .dwtag  DW_TAG_enumerator, DW_AT_name("USER_ErrorCode_motor_numPolePairs_High"), DW_AT_const_
    4446              $C$DW$445       .dwtag  DW_TAG_enumerator, DW_AT_name("USER_ErrorCode_motor_numPolePairs_Low"), DW_AT_const_v
    4447              $C$DW$446       .dwtag  DW_TAG_enumerator, DW_AT_name("USER_ErrorCode_motor_ratedFlux_High"), DW_AT_const_val
    4448              $C$DW$447       .dwtag  DW_TAG_enumerator, DW_AT_name("USER_ErrorCode_motor_ratedFlux_Low"), DW_AT_const_valu
    4449              $C$DW$448       .dwtag  DW_TAG_enumerator, DW_AT_name("USER_ErrorCode_motor_Rr_High"), DW_AT_const_value(0x42
    4450              $C$DW$449       .dwtag  DW_TAG_enumerator, DW_AT_name("USER_ErrorCode_motor_Rr_Low"), DW_AT_const_value(0x43)
    4451              $C$DW$450       .dwtag  DW_TAG_enumerator, DW_AT_name("USER_ErrorCode_motor_Rs_High"), DW_AT_const_value(0x44
    4452              $C$DW$451       .dwtag  DW_TAG_enumerator, DW_AT_name("USER_ErrorCode_motor_Rs_Low"), DW_AT_const_value(0x45)
    4453              $C$DW$452       .dwtag  DW_TAG_enumerator, DW_AT_name("USER_ErrorCode_motor_Ls_d_High"), DW_AT_const_value(0x
    4454              $C$DW$453       .dwtag  DW_TAG_enumerator, DW_AT_name("USER_ErrorCode_motor_Ls_d_Low"), DW_AT_const_value(0x4
    4455              $C$DW$454       .dwtag  DW_TAG_enumerator, DW_AT_name("USER_ErrorCode_motor_Ls_q_High"), DW_AT_const_value(0x
    4456              $C$DW$455       .dwtag  DW_TAG_enumerator, DW_AT_name("USER_ErrorCode_motor_Ls_q_Low"), DW_AT_const_value(0x4
    4457              $C$DW$456       .dwtag  DW_TAG_enumerator, DW_AT_name("USER_ErrorCode_maxCurrent_High"), DW_AT_const_value(0x
    4458              $C$DW$457       .dwtag  DW_TAG_enumerator, DW_AT_name("USER_ErrorCode_maxCurrent_Low"), DW_AT_const_value(0x4
    4459              $C$DW$458       .dwtag  DW_TAG_enumerator, DW_AT_name("USER_ErrorCode_maxCurrent_resEst_High"), DW_AT_const_v
    4460              $C$DW$459       .dwtag  DW_TAG_enumerator, DW_AT_name("USER_ErrorCode_maxCurrent_resEst_Low"), DW_AT_const_va
    4461              $C$DW$460       .dwtag  DW_TAG_enumerator, DW_AT_name("USER_ErrorCode_maxCurrent_indEst_High"), DW_AT_const_v
    4462              $C$DW$461       .dwtag  DW_TAG_enumerator, DW_AT_name("USER_ErrorCode_maxCurrent_indEst_Low"), DW_AT_const_va
    4463              $C$DW$462       .dwtag  DW_TAG_enumerator, DW_AT_name("USER_ErrorCode_maxCurrentSlope_High"), DW_AT_const_val
    4464              $C$DW$463       .dwtag  DW_TAG_enumerator, DW_AT_name("USER_ErrorCode_maxCurrentSlope_Low"), DW_AT_const_valu
    4465              $C$DW$464       .dwtag  DW_TAG_enumerator, DW_AT_name("USER_ErrorCode_maxCurrentSlope_powerWarp_High"), DW_AT
    4466              $C$DW$465       .dwtag  DW_TAG_enumerator, DW_AT_name("USER_ErrorCode_maxCurrentSlope_powerWarp_Low"), DW_AT_
    4467              $C$DW$466       .dwtag  DW_TAG_enumerator, DW_AT_name("USER_ErrorCode_IdRated_High"), DW_AT_const_value(0x54)
    4468              $C$DW$467       .dwtag  DW_TAG_enumerator, DW_AT_name("USER_ErrorCode_IdRated_Low"), DW_AT_const_value(0x55)
    4469              $C$DW$468       .dwtag  DW_TAG_enumerator, DW_AT_name("USER_ErrorCode_IdRatedFraction_indEst_High"), DW_AT_co
    4470              $C$DW$469       .dwtag  DW_TAG_enumerator, DW_AT_name("USER_ErrorCode_IdRatedFraction_indEst_Low"), DW_AT_con
    4471              $C$DW$470       .dwtag  DW_TAG_enumerator, DW_AT_name("USER_ErrorCode_IdRatedFraction_ratedFlux_High"), DW_AT
    4472              $C$DW$471       .dwtag  DW_TAG_enumerator, DW_AT_name("USER_ErrorCode_IdRatedFraction_ratedFlux_Low"), DW_AT_
    4473              $C$DW$472       .dwtag  DW_TAG_enumerator, DW_AT_name("USER_ErrorCode_IdRated_delta_High"), DW_AT_const_value
    4474              $C$DW$473       .dwtag  DW_TAG_enumerator, DW_AT_name("USER_ErrorCode_IdRated_delta_Low"), DW_AT_const_value(
    4475              $C$DW$474       .dwtag  DW_TAG_enumerator, DW_AT_name("USER_ErrorCode_fluxEstFreq_Hz_High"), DW_AT_const_valu
    4476              $C$DW$475       .dwtag  DW_TAG_enumerator, DW_AT_name("USER_ErrorCode_fluxEstFreq_Hz_Low"), DW_AT_const_value
    4477              $C$DW$476       .dwtag  DW_TAG_enumerator, DW_AT_name("USER_ErrorCode_ctrlFreq_Hz_High"), DW_AT_const_value(0
    4478              $C$DW$477       .dwtag  DW_TAG_enumerator, DW_AT_name("USER_ErrorCode_ctrlFreq_Hz_Low"), DW_AT_const_value(0x
    4479              $C$DW$478       .dwtag  DW_TAG_enumerator, DW_AT_name("USER_ErrorCode_estFreq_Hz_High"), DW_AT_const_value(0x
    4480              $C$DW$479       .dwtag  DW_TAG_enumerator, DW_AT_name("USER_ErrorCode_estFreq_Hz_Low"), DW_AT_const_value(0x6
    4481              $C$DW$480       .dwtag  DW_TAG_enumerator, DW_AT_name("USER_ErrorCode_RoverL_estFreq_Hz_High"), DW_AT_const_v
    4482              $C$DW$481       .dwtag  DW_TAG_enumerator, DW_AT_name("USER_ErrorCode_RoverL_estFreq_Hz_Low"), DW_AT_const_va
    4483              $C$DW$482       .dwtag  DW_TAG_enumerator, DW_AT_name("USER_ErrorCode_trajFreq_Hz_High"), DW_AT_const_value(0
    4484              $C$DW$483       .dwtag  DW_TAG_enumerator, DW_AT_name("USER_ErrorCode_trajFreq_Hz_Low"), DW_AT_const_value(0x
    4485              $C$DW$484       .dwtag  DW_TAG_enumerator, DW_AT_name("USER_ErrorCode_ctrlPeriod_sec_High"), DW_AT_const_valu
    4486              $C$DW$485       .dwtag  DW_TAG_enumerator, DW_AT_name("USER_ErrorCode_ctrlPeriod_sec_Low"), DW_AT_const_value
    4487              $C$DW$486       .dwtag  DW_TAG_enumerator, DW_AT_name("USER_ErrorCode_maxNegativeIdCurrent_a_High"), DW_AT_co
    4488              $C$DW$487       .dwtag  DW_TAG_enumerator, DW_AT_name("USER_ErrorCode_maxNegativeIdCurrent_a_Low"), DW_AT_con
    4489              $C$DW$488       .dwtag  DW_TAG_enumerator, DW_AT_name("USER_numErrorCodes"), DW_AT_const_value(0x6a)
    4490                      .dwendtag $C$DW$T$125
    4491              
    4492              $C$DW$T$126     .dwtag  DW_TAG_typedef, DW_AT_name("USER_ErrorCode_e")
    4493                      .dwattr $C$DW$T$126, DW_AT_type(*$C$DW$T$125)
    4494                      .dwattr $C$DW$T$126, DW_AT_language(DW_LANG_C)
TMS320C2000 Assembler PC v6.2.5 Wed Nov 22 14:48:16 2017

Tools Copyright (c) 1996-2014 Texas Instruments Incorporated
C:\Users\wmj\AppData\Local\Temp\1257612                              PAGE   87

    4495              
    4496              $C$DW$T$164     .dwtag  DW_TAG_enumeration_type
    4497                      .dwattr $C$DW$T$164, DW_AT_byte_size(0x01)
    4498              $C$DW$489       .dwtag  DW_TAG_enumerator, DW_AT_name("GPIO_Number_0"), DW_AT_const_value(0x00)
    4499              $C$DW$490       .dwtag  DW_TAG_enumerator, DW_AT_name("GPIO_Number_1"), DW_AT_const_value(0x01)
    4500              $C$DW$491       .dwtag  DW_TAG_enumerator, DW_AT_name("GPIO_Number_2"), DW_AT_const_value(0x02)
    4501              $C$DW$492       .dwtag  DW_TAG_enumerator, DW_AT_name("GPIO_Number_3"), DW_AT_const_value(0x03)
    4502              $C$DW$493       .dwtag  DW_TAG_enumerator, DW_AT_name("GPIO_Number_4"), DW_AT_const_value(0x04)
    4503              $C$DW$494       .dwtag  DW_TAG_enumerator, DW_AT_name("GPIO_Number_5"), DW_AT_const_value(0x05)
    4504              $C$DW$495       .dwtag  DW_TAG_enumerator, DW_AT_name("GPIO_Number_6"), DW_AT_const_value(0x06)
    4505              $C$DW$496       .dwtag  DW_TAG_enumerator, DW_AT_name("GPIO_Number_7"), DW_AT_const_value(0x07)
    4506              $C$DW$497       .dwtag  DW_TAG_enumerator, DW_AT_name("GPIO_Rsvd_8"), DW_AT_const_value(0x08)
    4507              $C$DW$498       .dwtag  DW_TAG_enumerator, DW_AT_name("GPIO_Rsvd_9"), DW_AT_const_value(0x09)
    4508              $C$DW$499       .dwtag  DW_TAG_enumerator, DW_AT_name("GPIO_Rsvd_10"), DW_AT_const_value(0x0a)
    4509              $C$DW$500       .dwtag  DW_TAG_enumerator, DW_AT_name("GPIO_Rsvd_11"), DW_AT_const_value(0x0b)
    4510              $C$DW$501       .dwtag  DW_TAG_enumerator, DW_AT_name("GPIO_Number_12"), DW_AT_const_value(0x0c)
    4511              $C$DW$502       .dwtag  DW_TAG_enumerator, DW_AT_name("GPIO_Rsvd_13"), DW_AT_const_value(0x0d)
    4512              $C$DW$503       .dwtag  DW_TAG_enumerator, DW_AT_name("GPIO_Rsvd_14"), DW_AT_const_value(0x0e)
    4513              $C$DW$504       .dwtag  DW_TAG_enumerator, DW_AT_name("GPIO_Rsvd_15"), DW_AT_const_value(0x0f)
    4514              $C$DW$505       .dwtag  DW_TAG_enumerator, DW_AT_name("GPIO_Number_16"), DW_AT_const_value(0x10)
    4515              $C$DW$506       .dwtag  DW_TAG_enumerator, DW_AT_name("GPIO_Number_17"), DW_AT_const_value(0x11)
    4516              $C$DW$507       .dwtag  DW_TAG_enumerator, DW_AT_name("GPIO_Number_18"), DW_AT_const_value(0x12)
    4517              $C$DW$508       .dwtag  DW_TAG_enumerator, DW_AT_name("GPIO_Number_19"), DW_AT_const_value(0x13)
    4518              $C$DW$509       .dwtag  DW_TAG_enumerator, DW_AT_name("GPIO_Rsvd_20"), DW_AT_const_value(0x14)
    4519              $C$DW$510       .dwtag  DW_TAG_enumerator, DW_AT_name("GPIO_Rsvd_21"), DW_AT_const_value(0x15)
    4520              $C$DW$511       .dwtag  DW_TAG_enumerator, DW_AT_name("GPIO_Rsvd_22"), DW_AT_const_value(0x16)
    4521              $C$DW$512       .dwtag  DW_TAG_enumerator, DW_AT_name("GPIO_Rsvd_23"), DW_AT_const_value(0x17)
    4522              $C$DW$513       .dwtag  DW_TAG_enumerator, DW_AT_name("GPIO_Rsvd_24"), DW_AT_const_value(0x18)
    4523              $C$DW$514       .dwtag  DW_TAG_enumerator, DW_AT_name("GPIO_Rsvd_25"), DW_AT_const_value(0x19)
    4524              $C$DW$515       .dwtag  DW_TAG_enumerator, DW_AT_name("GPIO_Rsvd_26"), DW_AT_const_value(0x1a)
    4525              $C$DW$516       .dwtag  DW_TAG_enumerator, DW_AT_name("GPIO_Rsvd_27"), DW_AT_const_value(0x1b)
    4526              $C$DW$517       .dwtag  DW_TAG_enumerator, DW_AT_name("GPIO_Number_28"), DW_AT_const_value(0x1c)
    4527              $C$DW$518       .dwtag  DW_TAG_enumerator, DW_AT_name("GPIO_Number_29"), DW_AT_const_value(0x1d)
    4528              $C$DW$519       .dwtag  DW_TAG_enumerator, DW_AT_name("GPIO_Rsvd_30"), DW_AT_const_value(0x1e)
    4529              $C$DW$520       .dwtag  DW_TAG_enumerator, DW_AT_name("GPIO_Rsvd_31"), DW_AT_const_value(0x1f)
    4530              $C$DW$521       .dwtag  DW_TAG_enumerator, DW_AT_name("GPIO_Number_32"), DW_AT_const_value(0x20)
    4531              $C$DW$522       .dwtag  DW_TAG_enumerator, DW_AT_name("GPIO_Number_33"), DW_AT_const_value(0x21)
    4532              $C$DW$523       .dwtag  DW_TAG_enumerator, DW_AT_name("GPIO_Number_34"), DW_AT_const_value(0x22)
    4533              $C$DW$524       .dwtag  DW_TAG_enumerator, DW_AT_name("GPIO_Number_35"), DW_AT_const_value(0x23)
    4534              $C$DW$525       .dwtag  DW_TAG_enumerator, DW_AT_name("GPIO_Number_36"), DW_AT_const_value(0x24)
    4535              $C$DW$526       .dwtag  DW_TAG_enumerator, DW_AT_name("GPIO_Number_37"), DW_AT_const_value(0x25)
    4536              $C$DW$527       .dwtag  DW_TAG_enumerator, DW_AT_name("GPIO_Number_38"), DW_AT_const_value(0x26)
    4537              $C$DW$528       .dwtag  DW_TAG_enumerator, DW_AT_name("GPIO_numGpios"), DW_AT_const_value(0x27)
    4538                      .dwendtag $C$DW$T$164
    4539              
    4540              $C$DW$T$165     .dwtag  DW_TAG_typedef, DW_AT_name("GPIO_Number_e")
    4541                      .dwattr $C$DW$T$165, DW_AT_type(*$C$DW$T$164)
    4542                      .dwattr $C$DW$T$165, DW_AT_language(DW_LANG_C)
    4543              $C$DW$529       .dwtag  DW_TAG_TI_far_type
    4544                      .dwattr $C$DW$529, DW_AT_type(*$C$DW$T$165)
    4545              $C$DW$T$166     .dwtag  DW_TAG_const_type
    4546                      .dwattr $C$DW$T$166, DW_AT_type(*$C$DW$529)
    4547              
    4548              $C$DW$T$29      .dwtag  DW_TAG_structure_type
    4549                      .dwattr $C$DW$T$29, DW_AT_name("_ADC_Obj_")
TMS320C2000 Assembler PC v6.2.5 Wed Nov 22 14:48:16 2017

Tools Copyright (c) 1996-2014 Texas Instruments Incorporated
C:\Users\wmj\AppData\Local\Temp\1257612                              PAGE   88

    4550                      .dwattr $C$DW$T$29, DW_AT_byte_size(0x6650)
    4551              $C$DW$530       .dwtag  DW_TAG_member
    4552                      .dwattr $C$DW$530, DW_AT_type(*$C$DW$T$23)
    4553                      .dwattr $C$DW$530, DW_AT_name("ADCRESULT")
    4554                      .dwattr $C$DW$530, DW_AT_TI_symbol_name("_ADCRESULT")
    4555                      .dwattr $C$DW$530, DW_AT_data_member_location[DW_OP_plus_uconst 0x0]
    4556                      .dwattr $C$DW$530, DW_AT_accessibility(DW_ACCESS_public)
    4557              $C$DW$531       .dwtag  DW_TAG_member
    4558                      .dwattr $C$DW$531, DW_AT_type(*$C$DW$T$24)
    4559                      .dwattr $C$DW$531, DW_AT_name("resvd_1")
    4560                      .dwattr $C$DW$531, DW_AT_TI_symbol_name("_resvd_1")
    4561                      .dwattr $C$DW$531, DW_AT_data_member_location[DW_OP_plus_uconst 0x10]
    4562                      .dwattr $C$DW$531, DW_AT_accessibility(DW_ACCESS_public)
    4563              $C$DW$532       .dwtag  DW_TAG_member
    4564                      .dwattr $C$DW$532, DW_AT_type(*$C$DW$T$22)
    4565                      .dwattr $C$DW$532, DW_AT_name("ADCCTL1")
    4566                      .dwattr $C$DW$532, DW_AT_TI_symbol_name("_ADCCTL1")
    4567                      .dwattr $C$DW$532, DW_AT_data_member_location[DW_OP_plus_uconst 0x6600]
    4568                      .dwattr $C$DW$532, DW_AT_accessibility(DW_ACCESS_public)
    4569              $C$DW$533       .dwtag  DW_TAG_member
    4570                      .dwattr $C$DW$533, DW_AT_type(*$C$DW$T$22)
    4571                      .dwattr $C$DW$533, DW_AT_name("ADCCTL2")
    4572                      .dwattr $C$DW$533, DW_AT_TI_symbol_name("_ADCCTL2")
    4573                      .dwattr $C$DW$533, DW_AT_data_member_location[DW_OP_plus_uconst 0x6601]
    4574                      .dwattr $C$DW$533, DW_AT_accessibility(DW_ACCESS_public)
    4575              $C$DW$534       .dwtag  DW_TAG_member
    4576                      .dwattr $C$DW$534, DW_AT_type(*$C$DW$T$25)
    4577                      .dwattr $C$DW$534, DW_AT_name("rsvd_2")
    4578                      .dwattr $C$DW$534, DW_AT_TI_symbol_name("_rsvd_2")
    4579                      .dwattr $C$DW$534, DW_AT_data_member_location[DW_OP_plus_uconst 0x6602]
    4580                      .dwattr $C$DW$534, DW_AT_accessibility(DW_ACCESS_public)
    4581              $C$DW$535       .dwtag  DW_TAG_member
    4582                      .dwattr $C$DW$535, DW_AT_type(*$C$DW$T$22)
    4583                      .dwattr $C$DW$535, DW_AT_name("ADCINTFLG")
    4584                      .dwattr $C$DW$535, DW_AT_TI_symbol_name("_ADCINTFLG")
    4585                      .dwattr $C$DW$535, DW_AT_data_member_location[DW_OP_plus_uconst 0x6604]
    4586                      .dwattr $C$DW$535, DW_AT_accessibility(DW_ACCESS_public)
    4587              $C$DW$536       .dwtag  DW_TAG_member
    4588                      .dwattr $C$DW$536, DW_AT_type(*$C$DW$T$22)
    4589                      .dwattr $C$DW$536, DW_AT_name("ADCINTFLGCLR")
    4590                      .dwattr $C$DW$536, DW_AT_TI_symbol_name("_ADCINTFLGCLR")
    4591                      .dwattr $C$DW$536, DW_AT_data_member_location[DW_OP_plus_uconst 0x6605]
    4592                      .dwattr $C$DW$536, DW_AT_accessibility(DW_ACCESS_public)
    4593              $C$DW$537       .dwtag  DW_TAG_member
    4594                      .dwattr $C$DW$537, DW_AT_type(*$C$DW$T$22)
    4595                      .dwattr $C$DW$537, DW_AT_name("ADCINTOVF")
    4596                      .dwattr $C$DW$537, DW_AT_TI_symbol_name("_ADCINTOVF")
    4597                      .dwattr $C$DW$537, DW_AT_data_member_location[DW_OP_plus_uconst 0x6606]
    4598                      .dwattr $C$DW$537, DW_AT_accessibility(DW_ACCESS_public)
    4599              $C$DW$538       .dwtag  DW_TAG_member
    4600                      .dwattr $C$DW$538, DW_AT_type(*$C$DW$T$22)
    4601                      .dwattr $C$DW$538, DW_AT_name("ADCINTOVFCLR")
    4602                      .dwattr $C$DW$538, DW_AT_TI_symbol_name("_ADCINTOVFCLR")
    4603                      .dwattr $C$DW$538, DW_AT_data_member_location[DW_OP_plus_uconst 0x6607]
    4604                      .dwattr $C$DW$538, DW_AT_accessibility(DW_ACCESS_public)
TMS320C2000 Assembler PC v6.2.5 Wed Nov 22 14:48:16 2017

Tools Copyright (c) 1996-2014 Texas Instruments Incorporated
C:\Users\wmj\AppData\Local\Temp\1257612                              PAGE   89

    4605              $C$DW$539       .dwtag  DW_TAG_member
    4606                      .dwattr $C$DW$539, DW_AT_type(*$C$DW$T$26)
    4607                      .dwattr $C$DW$539, DW_AT_name("INTSELxNy")
    4608                      .dwattr $C$DW$539, DW_AT_TI_symbol_name("_INTSELxNy")
    4609                      .dwattr $C$DW$539, DW_AT_data_member_location[DW_OP_plus_uconst 0x6608]
    4610                      .dwattr $C$DW$539, DW_AT_accessibility(DW_ACCESS_public)
    4611              $C$DW$540       .dwtag  DW_TAG_member
    4612                      .dwattr $C$DW$540, DW_AT_type(*$C$DW$T$27)
    4613                      .dwattr $C$DW$540, DW_AT_name("rsvd_3")
    4614                      .dwattr $C$DW$540, DW_AT_TI_symbol_name("_rsvd_3")
    4615                      .dwattr $C$DW$540, DW_AT_data_member_location[DW_OP_plus_uconst 0x660d]
    4616                      .dwattr $C$DW$540, DW_AT_accessibility(DW_ACCESS_public)
    4617              $C$DW$541       .dwtag  DW_TAG_member
    4618                      .dwattr $C$DW$541, DW_AT_type(*$C$DW$T$22)
    4619                      .dwattr $C$DW$541, DW_AT_name("SOCPRICTRL")
    4620                      .dwattr $C$DW$541, DW_AT_TI_symbol_name("_SOCPRICTRL")
    4621                      .dwattr $C$DW$541, DW_AT_data_member_location[DW_OP_plus_uconst 0x6610]
    4622                      .dwattr $C$DW$541, DW_AT_accessibility(DW_ACCESS_public)
    4623              $C$DW$542       .dwtag  DW_TAG_member
    4624                      .dwattr $C$DW$542, DW_AT_type(*$C$DW$T$22)
    4625                      .dwattr $C$DW$542, DW_AT_name("rsvd_4")
    4626                      .dwattr $C$DW$542, DW_AT_TI_symbol_name("_rsvd_4")
    4627                      .dwattr $C$DW$542, DW_AT_data_member_location[DW_OP_plus_uconst 0x6611]
    4628                      .dwattr $C$DW$542, DW_AT_accessibility(DW_ACCESS_public)
    4629              $C$DW$543       .dwtag  DW_TAG_member
    4630                      .dwattr $C$DW$543, DW_AT_type(*$C$DW$T$22)
    4631                      .dwattr $C$DW$543, DW_AT_name("ADCSAMPLEMODE")
    4632                      .dwattr $C$DW$543, DW_AT_TI_symbol_name("_ADCSAMPLEMODE")
    4633                      .dwattr $C$DW$543, DW_AT_data_member_location[DW_OP_plus_uconst 0x6612]
    4634                      .dwattr $C$DW$543, DW_AT_accessibility(DW_ACCESS_public)
    4635              $C$DW$544       .dwtag  DW_TAG_member
    4636                      .dwattr $C$DW$544, DW_AT_type(*$C$DW$T$22)
    4637                      .dwattr $C$DW$544, DW_AT_name("rsvd_5")
    4638                      .dwattr $C$DW$544, DW_AT_TI_symbol_name("_rsvd_5")
    4639                      .dwattr $C$DW$544, DW_AT_data_member_location[DW_OP_plus_uconst 0x6613]
    4640                      .dwattr $C$DW$544, DW_AT_accessibility(DW_ACCESS_public)
    4641              $C$DW$545       .dwtag  DW_TAG_member
    4642                      .dwattr $C$DW$545, DW_AT_type(*$C$DW$T$22)
    4643                      .dwattr $C$DW$545, DW_AT_name("ADCINTSOCSEL1")
    4644                      .dwattr $C$DW$545, DW_AT_TI_symbol_name("_ADCINTSOCSEL1")
    4645                      .dwattr $C$DW$545, DW_AT_data_member_location[DW_OP_plus_uconst 0x6614]
    4646                      .dwattr $C$DW$545, DW_AT_accessibility(DW_ACCESS_public)
    4647              $C$DW$546       .dwtag  DW_TAG_member
    4648                      .dwattr $C$DW$546, DW_AT_type(*$C$DW$T$22)
    4649                      .dwattr $C$DW$546, DW_AT_name("ADCINTSOCSEL2")
    4650                      .dwattr $C$DW$546, DW_AT_TI_symbol_name("_ADCINTSOCSEL2")
    4651                      .dwattr $C$DW$546, DW_AT_data_member_location[DW_OP_plus_uconst 0x6615]
    4652                      .dwattr $C$DW$546, DW_AT_accessibility(DW_ACCESS_public)
    4653              $C$DW$547       .dwtag  DW_TAG_member
    4654                      .dwattr $C$DW$547, DW_AT_type(*$C$DW$T$25)
    4655                      .dwattr $C$DW$547, DW_AT_name("rsvd_6")
    4656                      .dwattr $C$DW$547, DW_AT_TI_symbol_name("_rsvd_6")
    4657                      .dwattr $C$DW$547, DW_AT_data_member_location[DW_OP_plus_uconst 0x6616]
    4658                      .dwattr $C$DW$547, DW_AT_accessibility(DW_ACCESS_public)
    4659              $C$DW$548       .dwtag  DW_TAG_member
TMS320C2000 Assembler PC v6.2.5 Wed Nov 22 14:48:16 2017

Tools Copyright (c) 1996-2014 Texas Instruments Incorporated
C:\Users\wmj\AppData\Local\Temp\1257612                              PAGE   90

    4660                      .dwattr $C$DW$548, DW_AT_type(*$C$DW$T$22)
    4661                      .dwattr $C$DW$548, DW_AT_name("ADCSOCFLG1")
    4662                      .dwattr $C$DW$548, DW_AT_TI_symbol_name("_ADCSOCFLG1")
    4663                      .dwattr $C$DW$548, DW_AT_data_member_location[DW_OP_plus_uconst 0x6618]
    4664                      .dwattr $C$DW$548, DW_AT_accessibility(DW_ACCESS_public)
    4665              $C$DW$549       .dwtag  DW_TAG_member
    4666                      .dwattr $C$DW$549, DW_AT_type(*$C$DW$T$22)
    4667                      .dwattr $C$DW$549, DW_AT_name("rsvd_7")
    4668                      .dwattr $C$DW$549, DW_AT_TI_symbol_name("_rsvd_7")
    4669                      .dwattr $C$DW$549, DW_AT_data_member_location[DW_OP_plus_uconst 0x6619]
    4670                      .dwattr $C$DW$549, DW_AT_accessibility(DW_ACCESS_public)
    4671              $C$DW$550       .dwtag  DW_TAG_member
    4672                      .dwattr $C$DW$550, DW_AT_type(*$C$DW$T$22)
    4673                      .dwattr $C$DW$550, DW_AT_name("ADCSOCFRC1")
    4674                      .dwattr $C$DW$550, DW_AT_TI_symbol_name("_ADCSOCFRC1")
    4675                      .dwattr $C$DW$550, DW_AT_data_member_location[DW_OP_plus_uconst 0x661a]
    4676                      .dwattr $C$DW$550, DW_AT_accessibility(DW_ACCESS_public)
    4677              $C$DW$551       .dwtag  DW_TAG_member
    4678                      .dwattr $C$DW$551, DW_AT_type(*$C$DW$T$22)
    4679                      .dwattr $C$DW$551, DW_AT_name("rsvd_8")
    4680                      .dwattr $C$DW$551, DW_AT_TI_symbol_name("_rsvd_8")
    4681                      .dwattr $C$DW$551, DW_AT_data_member_location[DW_OP_plus_uconst 0x661b]
    4682                      .dwattr $C$DW$551, DW_AT_accessibility(DW_ACCESS_public)
    4683              $C$DW$552       .dwtag  DW_TAG_member
    4684                      .dwattr $C$DW$552, DW_AT_type(*$C$DW$T$22)
    4685                      .dwattr $C$DW$552, DW_AT_name("ADCSOCOVF1")
    4686                      .dwattr $C$DW$552, DW_AT_TI_symbol_name("_ADCSOCOVF1")
    4687                      .dwattr $C$DW$552, DW_AT_data_member_location[DW_OP_plus_uconst 0x661c]
    4688                      .dwattr $C$DW$552, DW_AT_accessibility(DW_ACCESS_public)
    4689              $C$DW$553       .dwtag  DW_TAG_member
    4690                      .dwattr $C$DW$553, DW_AT_type(*$C$DW$T$22)
    4691                      .dwattr $C$DW$553, DW_AT_name("rsvd_9")
    4692                      .dwattr $C$DW$553, DW_AT_TI_symbol_name("_rsvd_9")
    4693                      .dwattr $C$DW$553, DW_AT_data_member_location[DW_OP_plus_uconst 0x661d]
    4694                      .dwattr $C$DW$553, DW_AT_accessibility(DW_ACCESS_public)
    4695              $C$DW$554       .dwtag  DW_TAG_member
    4696                      .dwattr $C$DW$554, DW_AT_type(*$C$DW$T$22)
    4697                      .dwattr $C$DW$554, DW_AT_name("ADCSOCOVFCLR1")
    4698                      .dwattr $C$DW$554, DW_AT_TI_symbol_name("_ADCSOCOVFCLR1")
    4699                      .dwattr $C$DW$554, DW_AT_data_member_location[DW_OP_plus_uconst 0x661e]
    4700                      .dwattr $C$DW$554, DW_AT_accessibility(DW_ACCESS_public)
    4701              $C$DW$555       .dwtag  DW_TAG_member
    4702                      .dwattr $C$DW$555, DW_AT_type(*$C$DW$T$22)
    4703                      .dwattr $C$DW$555, DW_AT_name("rsvd_10")
    4704                      .dwattr $C$DW$555, DW_AT_TI_symbol_name("_rsvd_10")
    4705                      .dwattr $C$DW$555, DW_AT_data_member_location[DW_OP_plus_uconst 0x661f]
    4706                      .dwattr $C$DW$555, DW_AT_accessibility(DW_ACCESS_public)
    4707              $C$DW$556       .dwtag  DW_TAG_member
    4708                      .dwattr $C$DW$556, DW_AT_type(*$C$DW$T$23)
    4709                      .dwattr $C$DW$556, DW_AT_name("ADCSOCxCTL")
    4710                      .dwattr $C$DW$556, DW_AT_TI_symbol_name("_ADCSOCxCTL")
    4711                      .dwattr $C$DW$556, DW_AT_data_member_location[DW_OP_plus_uconst 0x6620]
    4712                      .dwattr $C$DW$556, DW_AT_accessibility(DW_ACCESS_public)
    4713              $C$DW$557       .dwtag  DW_TAG_member
    4714                      .dwattr $C$DW$557, DW_AT_type(*$C$DW$T$23)
TMS320C2000 Assembler PC v6.2.5 Wed Nov 22 14:48:16 2017

Tools Copyright (c) 1996-2014 Texas Instruments Incorporated
C:\Users\wmj\AppData\Local\Temp\1257612                              PAGE   91

    4715                      .dwattr $C$DW$557, DW_AT_name("rsvd_11")
    4716                      .dwattr $C$DW$557, DW_AT_TI_symbol_name("_rsvd_11")
    4717                      .dwattr $C$DW$557, DW_AT_data_member_location[DW_OP_plus_uconst 0x6630]
    4718                      .dwattr $C$DW$557, DW_AT_accessibility(DW_ACCESS_public)
    4719              $C$DW$558       .dwtag  DW_TAG_member
    4720                      .dwattr $C$DW$558, DW_AT_type(*$C$DW$T$22)
    4721                      .dwattr $C$DW$558, DW_AT_name("ADCREFTRIM")
    4722                      .dwattr $C$DW$558, DW_AT_TI_symbol_name("_ADCREFTRIM")
    4723                      .dwattr $C$DW$558, DW_AT_data_member_location[DW_OP_plus_uconst 0x6640]
    4724                      .dwattr $C$DW$558, DW_AT_accessibility(DW_ACCESS_public)
    4725              $C$DW$559       .dwtag  DW_TAG_member
    4726                      .dwattr $C$DW$559, DW_AT_type(*$C$DW$T$22)
    4727                      .dwattr $C$DW$559, DW_AT_name("ADCOFFTRIM")
    4728                      .dwattr $C$DW$559, DW_AT_TI_symbol_name("_ADCOFFTRIM")
    4729                      .dwattr $C$DW$559, DW_AT_data_member_location[DW_OP_plus_uconst 0x6641]
    4730                      .dwattr $C$DW$559, DW_AT_accessibility(DW_ACCESS_public)
    4731              $C$DW$560       .dwtag  DW_TAG_member
    4732                      .dwattr $C$DW$560, DW_AT_type(*$C$DW$T$28)
    4733                      .dwattr $C$DW$560, DW_AT_name("resvd_12")
    4734                      .dwattr $C$DW$560, DW_AT_TI_symbol_name("_resvd_12")
    4735                      .dwattr $C$DW$560, DW_AT_data_member_location[DW_OP_plus_uconst 0x6642]
    4736                      .dwattr $C$DW$560, DW_AT_accessibility(DW_ACCESS_public)
    4737              $C$DW$561       .dwtag  DW_TAG_member
    4738                      .dwattr $C$DW$561, DW_AT_type(*$C$DW$T$22)
    4739                      .dwattr $C$DW$561, DW_AT_name("ADCREV")
    4740                      .dwattr $C$DW$561, DW_AT_TI_symbol_name("_ADCREV")
    4741                      .dwattr $C$DW$561, DW_AT_data_member_location[DW_OP_plus_uconst 0x664f]
    4742                      .dwattr $C$DW$561, DW_AT_accessibility(DW_ACCESS_public)
    4743                      .dwendtag $C$DW$T$29
    4744              
    4745              $C$DW$T$80      .dwtag  DW_TAG_pointer_type
    4746                      .dwattr $C$DW$T$80, DW_AT_type(*$C$DW$T$29)
    4747                      .dwattr $C$DW$T$80, DW_AT_address_class(0x16)
    4748              $C$DW$T$81      .dwtag  DW_TAG_typedef, DW_AT_name("ADC_Handle")
    4749                      .dwattr $C$DW$T$81, DW_AT_type(*$C$DW$T$80)
    4750                      .dwattr $C$DW$T$81, DW_AT_language(DW_LANG_C)
    4751              
    4752              $C$DW$T$31      .dwtag  DW_TAG_structure_type
    4753                      .dwattr $C$DW$T$31, DW_AT_name("_CLK_Obj_")
    4754                      .dwattr $C$DW$T$31, DW_AT_byte_size(0x11)
    4755              $C$DW$562       .dwtag  DW_TAG_member
    4756                      .dwattr $C$DW$562, DW_AT_type(*$C$DW$T$22)
    4757                      .dwattr $C$DW$562, DW_AT_name("XCLK")
    4758                      .dwattr $C$DW$562, DW_AT_TI_symbol_name("_XCLK")
    4759                      .dwattr $C$DW$562, DW_AT_data_member_location[DW_OP_plus_uconst 0x0]
    4760                      .dwattr $C$DW$562, DW_AT_accessibility(DW_ACCESS_public)
    4761              $C$DW$563       .dwtag  DW_TAG_member
    4762                      .dwattr $C$DW$563, DW_AT_type(*$C$DW$T$22)
    4763                      .dwattr $C$DW$563, DW_AT_name("rsvd_1")
    4764                      .dwattr $C$DW$563, DW_AT_TI_symbol_name("_rsvd_1")
    4765                      .dwattr $C$DW$563, DW_AT_data_member_location[DW_OP_plus_uconst 0x1]
    4766                      .dwattr $C$DW$563, DW_AT_accessibility(DW_ACCESS_public)
    4767              $C$DW$564       .dwtag  DW_TAG_member
    4768                      .dwattr $C$DW$564, DW_AT_type(*$C$DW$T$22)
    4769                      .dwattr $C$DW$564, DW_AT_name("CLKCTL")
TMS320C2000 Assembler PC v6.2.5 Wed Nov 22 14:48:16 2017

Tools Copyright (c) 1996-2014 Texas Instruments Incorporated
C:\Users\wmj\AppData\Local\Temp\1257612                              PAGE   92

    4770                      .dwattr $C$DW$564, DW_AT_TI_symbol_name("_CLKCTL")
    4771                      .dwattr $C$DW$564, DW_AT_data_member_location[DW_OP_plus_uconst 0x2]
    4772                      .dwattr $C$DW$564, DW_AT_accessibility(DW_ACCESS_public)
    4773              $C$DW$565       .dwtag  DW_TAG_member
    4774                      .dwattr $C$DW$565, DW_AT_type(*$C$DW$T$30)
    4775                      .dwattr $C$DW$565, DW_AT_name("rsvd_2")
    4776                      .dwattr $C$DW$565, DW_AT_TI_symbol_name("_rsvd_2")
    4777                      .dwattr $C$DW$565, DW_AT_data_member_location[DW_OP_plus_uconst 0x3]
    4778                      .dwattr $C$DW$565, DW_AT_accessibility(DW_ACCESS_public)
    4779              $C$DW$566       .dwtag  DW_TAG_member
    4780                      .dwattr $C$DW$566, DW_AT_type(*$C$DW$T$22)
    4781                      .dwattr $C$DW$566, DW_AT_name("LOSPCP")
    4782                      .dwattr $C$DW$566, DW_AT_TI_symbol_name("_LOSPCP")
    4783                      .dwattr $C$DW$566, DW_AT_data_member_location[DW_OP_plus_uconst 0xb]
    4784                      .dwattr $C$DW$566, DW_AT_accessibility(DW_ACCESS_public)
    4785              $C$DW$567       .dwtag  DW_TAG_member
    4786                      .dwattr $C$DW$567, DW_AT_type(*$C$DW$T$22)
    4787                      .dwattr $C$DW$567, DW_AT_name("PCLKCR0")
    4788                      .dwattr $C$DW$567, DW_AT_TI_symbol_name("_PCLKCR0")
    4789                      .dwattr $C$DW$567, DW_AT_data_member_location[DW_OP_plus_uconst 0xc]
    4790                      .dwattr $C$DW$567, DW_AT_accessibility(DW_ACCESS_public)
    4791              $C$DW$568       .dwtag  DW_TAG_member
    4792                      .dwattr $C$DW$568, DW_AT_type(*$C$DW$T$22)
    4793                      .dwattr $C$DW$568, DW_AT_name("PCLKCR1")
    4794                      .dwattr $C$DW$568, DW_AT_TI_symbol_name("_PCLKCR1")
    4795                      .dwattr $C$DW$568, DW_AT_data_member_location[DW_OP_plus_uconst 0xd]
    4796                      .dwattr $C$DW$568, DW_AT_accessibility(DW_ACCESS_public)
    4797              $C$DW$569       .dwtag  DW_TAG_member
    4798                      .dwattr $C$DW$569, DW_AT_type(*$C$DW$T$25)
    4799                      .dwattr $C$DW$569, DW_AT_name("rsvd_3")
    4800                      .dwattr $C$DW$569, DW_AT_TI_symbol_name("_rsvd_3")
    4801                      .dwattr $C$DW$569, DW_AT_data_member_location[DW_OP_plus_uconst 0xe]
    4802                      .dwattr $C$DW$569, DW_AT_accessibility(DW_ACCESS_public)
    4803              $C$DW$570       .dwtag  DW_TAG_member
    4804                      .dwattr $C$DW$570, DW_AT_type(*$C$DW$T$22)
    4805                      .dwattr $C$DW$570, DW_AT_name("PCLKCR3")
    4806                      .dwattr $C$DW$570, DW_AT_TI_symbol_name("_PCLKCR3")
    4807                      .dwattr $C$DW$570, DW_AT_data_member_location[DW_OP_plus_uconst 0x10]
    4808                      .dwattr $C$DW$570, DW_AT_accessibility(DW_ACCESS_public)
    4809                      .dwendtag $C$DW$T$31
    4810              
    4811              $C$DW$T$82      .dwtag  DW_TAG_pointer_type
    4812                      .dwattr $C$DW$T$82, DW_AT_type(*$C$DW$T$31)
    4813                      .dwattr $C$DW$T$82, DW_AT_address_class(0x16)
    4814              $C$DW$T$83      .dwtag  DW_TAG_typedef, DW_AT_name("CLK_Handle")
    4815                      .dwattr $C$DW$T$83, DW_AT_type(*$C$DW$T$82)
    4816                      .dwattr $C$DW$T$83, DW_AT_language(DW_LANG_C)
    4817              
    4818              $C$DW$T$33      .dwtag  DW_TAG_structure_type
    4819                      .dwattr $C$DW$T$33, DW_AT_name("_CPU_Obj_")
    4820                      .dwattr $C$DW$T$33, DW_AT_byte_size(0x01)
    4821              $C$DW$571       .dwtag  DW_TAG_member
    4822                      .dwattr $C$DW$571, DW_AT_type(*$C$DW$T$32)
    4823                      .dwattr $C$DW$571, DW_AT_name("tmp")
    4824                      .dwattr $C$DW$571, DW_AT_TI_symbol_name("_tmp")
TMS320C2000 Assembler PC v6.2.5 Wed Nov 22 14:48:16 2017

Tools Copyright (c) 1996-2014 Texas Instruments Incorporated
C:\Users\wmj\AppData\Local\Temp\1257612                              PAGE   93

    4825                      .dwattr $C$DW$571, DW_AT_data_member_location[DW_OP_plus_uconst 0x0]
    4826                      .dwattr $C$DW$571, DW_AT_accessibility(DW_ACCESS_public)
    4827                      .dwendtag $C$DW$T$33
    4828              
    4829              $C$DW$T$84      .dwtag  DW_TAG_pointer_type
    4830                      .dwattr $C$DW$T$84, DW_AT_type(*$C$DW$T$33)
    4831                      .dwattr $C$DW$T$84, DW_AT_address_class(0x16)
    4832              $C$DW$T$85      .dwtag  DW_TAG_typedef, DW_AT_name("CPU_Handle")
    4833                      .dwattr $C$DW$T$85, DW_AT_type(*$C$DW$T$84)
    4834                      .dwattr $C$DW$T$85, DW_AT_language(DW_LANG_C)
    4835              
    4836              $C$DW$T$36      .dwtag  DW_TAG_structure_type
    4837                      .dwattr $C$DW$T$36, DW_AT_name("_CTRL_Version_")
    4838                      .dwattr $C$DW$T$36, DW_AT_byte_size(0x04)
    4839              $C$DW$572       .dwtag  DW_TAG_member
    4840                      .dwattr $C$DW$572, DW_AT_type(*$C$DW$T$21)
    4841                      .dwattr $C$DW$572, DW_AT_name("rsvd")
    4842                      .dwattr $C$DW$572, DW_AT_TI_symbol_name("_rsvd")
    4843                      .dwattr $C$DW$572, DW_AT_data_member_location[DW_OP_plus_uconst 0x0]
    4844                      .dwattr $C$DW$572, DW_AT_accessibility(DW_ACCESS_public)
    4845              $C$DW$573       .dwtag  DW_TAG_member
    4846                      .dwattr $C$DW$573, DW_AT_type(*$C$DW$T$35)
    4847                      .dwattr $C$DW$573, DW_AT_name("targetProc")
    4848                      .dwattr $C$DW$573, DW_AT_TI_symbol_name("_targetProc")
    4849                      .dwattr $C$DW$573, DW_AT_data_member_location[DW_OP_plus_uconst 0x1]
    4850                      .dwattr $C$DW$573, DW_AT_accessibility(DW_ACCESS_public)
    4851              $C$DW$574       .dwtag  DW_TAG_member
    4852                      .dwattr $C$DW$574, DW_AT_type(*$C$DW$T$21)
    4853                      .dwattr $C$DW$574, DW_AT_name("major")
    4854                      .dwattr $C$DW$574, DW_AT_TI_symbol_name("_major")
    4855                      .dwattr $C$DW$574, DW_AT_data_member_location[DW_OP_plus_uconst 0x2]
    4856                      .dwattr $C$DW$574, DW_AT_accessibility(DW_ACCESS_public)
    4857              $C$DW$575       .dwtag  DW_TAG_member
    4858                      .dwattr $C$DW$575, DW_AT_type(*$C$DW$T$21)
    4859                      .dwattr $C$DW$575, DW_AT_name("minor")
    4860                      .dwattr $C$DW$575, DW_AT_TI_symbol_name("_minor")
    4861                      .dwattr $C$DW$575, DW_AT_data_member_location[DW_OP_plus_uconst 0x3]
    4862                      .dwattr $C$DW$575, DW_AT_accessibility(DW_ACCESS_public)
    4863                      .dwendtag $C$DW$T$36
    4864              
    4865              $C$DW$T$127     .dwtag  DW_TAG_typedef, DW_AT_name("CTRL_Version")
    4866                      .dwattr $C$DW$T$127, DW_AT_type(*$C$DW$T$36)
    4867                      .dwattr $C$DW$T$127, DW_AT_language(DW_LANG_C)
    4868              
    4869              $C$DW$T$38      .dwtag  DW_TAG_structure_type
    4870                      .dwattr $C$DW$T$38, DW_AT_name("_FILTER_FO_")
    4871                      .dwattr $C$DW$T$38, DW_AT_byte_size(0x0a)
    4872              $C$DW$576       .dwtag  DW_TAG_member
    4873                      .dwattr $C$DW$576, DW_AT_type(*$C$DW$T$37)
    4874                      .dwattr $C$DW$576, DW_AT_name("a1")
    4875                      .dwattr $C$DW$576, DW_AT_TI_symbol_name("_a1")
    4876                      .dwattr $C$DW$576, DW_AT_data_member_location[DW_OP_plus_uconst 0x0]
    4877                      .dwattr $C$DW$576, DW_AT_accessibility(DW_ACCESS_public)
    4878              $C$DW$577       .dwtag  DW_TAG_member
    4879                      .dwattr $C$DW$577, DW_AT_type(*$C$DW$T$37)
TMS320C2000 Assembler PC v6.2.5 Wed Nov 22 14:48:16 2017

Tools Copyright (c) 1996-2014 Texas Instruments Incorporated
C:\Users\wmj\AppData\Local\Temp\1257612                              PAGE   94

    4880                      .dwattr $C$DW$577, DW_AT_name("b0")
    4881                      .dwattr $C$DW$577, DW_AT_TI_symbol_name("_b0")
    4882                      .dwattr $C$DW$577, DW_AT_data_member_location[DW_OP_plus_uconst 0x2]
    4883                      .dwattr $C$DW$577, DW_AT_accessibility(DW_ACCESS_public)
    4884              $C$DW$578       .dwtag  DW_TAG_member
    4885                      .dwattr $C$DW$578, DW_AT_type(*$C$DW$T$37)
    4886                      .dwattr $C$DW$578, DW_AT_name("b1")
    4887                      .dwattr $C$DW$578, DW_AT_TI_symbol_name("_b1")
    4888                      .dwattr $C$DW$578, DW_AT_data_member_location[DW_OP_plus_uconst 0x4]
    4889                      .dwattr $C$DW$578, DW_AT_accessibility(DW_ACCESS_public)
    4890              $C$DW$579       .dwtag  DW_TAG_member
    4891                      .dwattr $C$DW$579, DW_AT_type(*$C$DW$T$37)
    4892                      .dwattr $C$DW$579, DW_AT_name("x1")
    4893                      .dwattr $C$DW$579, DW_AT_TI_symbol_name("_x1")
    4894                      .dwattr $C$DW$579, DW_AT_data_member_location[DW_OP_plus_uconst 0x6]
    4895                      .dwattr $C$DW$579, DW_AT_accessibility(DW_ACCESS_public)
    4896              $C$DW$580       .dwtag  DW_TAG_member
    4897                      .dwattr $C$DW$580, DW_AT_type(*$C$DW$T$37)
    4898                      .dwattr $C$DW$580, DW_AT_name("y1")
    4899                      .dwattr $C$DW$580, DW_AT_TI_symbol_name("_y1")
    4900                      .dwattr $C$DW$580, DW_AT_data_member_location[DW_OP_plus_uconst 0x8]
    4901                      .dwattr $C$DW$580, DW_AT_accessibility(DW_ACCESS_public)
    4902                      .dwendtag $C$DW$T$38
    4903              
    4904              $C$DW$T$131     .dwtag  DW_TAG_typedef, DW_AT_name("FILTER_FO_Obj")
    4905                      .dwattr $C$DW$T$131, DW_AT_type(*$C$DW$T$38)
    4906                      .dwattr $C$DW$T$131, DW_AT_language(DW_LANG_C)
    4907              
    4908              $C$DW$T$19      .dwtag  DW_TAG_structure_type
    4909                      .dwattr $C$DW$T$19, DW_AT_name("_FILTER_FO_Obj_")
    4910                      .dwattr $C$DW$T$19, DW_AT_declaration
    4911                      .dwendtag $C$DW$T$19
    4912              
    4913              $C$DW$T$132     .dwtag  DW_TAG_pointer_type
    4914                      .dwattr $C$DW$T$132, DW_AT_type(*$C$DW$T$19)
    4915                      .dwattr $C$DW$T$132, DW_AT_address_class(0x16)
    4916              $C$DW$T$133     .dwtag  DW_TAG_typedef, DW_AT_name("FILTER_FO_Handle")
    4917                      .dwattr $C$DW$T$133, DW_AT_type(*$C$DW$T$132)
    4918                      .dwattr $C$DW$T$133, DW_AT_language(DW_LANG_C)
    4919              
    4920              $C$DW$T$39      .dwtag  DW_TAG_structure_type
    4921                      .dwattr $C$DW$T$39, DW_AT_name("_FLASH_Obj_")
    4922                      .dwattr $C$DW$T$39, DW_AT_byte_size(0x08)
    4923              $C$DW$581       .dwtag  DW_TAG_member
    4924                      .dwattr $C$DW$581, DW_AT_type(*$C$DW$T$22)
    4925                      .dwattr $C$DW$581, DW_AT_name("FOPT")
    4926                      .dwattr $C$DW$581, DW_AT_TI_symbol_name("_FOPT")
    4927                      .dwattr $C$DW$581, DW_AT_data_member_location[DW_OP_plus_uconst 0x0]
    4928                      .dwattr $C$DW$581, DW_AT_accessibility(DW_ACCESS_public)
    4929              $C$DW$582       .dwtag  DW_TAG_member
    4930                      .dwattr $C$DW$582, DW_AT_type(*$C$DW$T$22)
    4931                      .dwattr $C$DW$582, DW_AT_name("rsvd_1")
    4932                      .dwattr $C$DW$582, DW_AT_TI_symbol_name("_rsvd_1")
    4933                      .dwattr $C$DW$582, DW_AT_data_member_location[DW_OP_plus_uconst 0x1]
    4934                      .dwattr $C$DW$582, DW_AT_accessibility(DW_ACCESS_public)
TMS320C2000 Assembler PC v6.2.5 Wed Nov 22 14:48:16 2017

Tools Copyright (c) 1996-2014 Texas Instruments Incorporated
C:\Users\wmj\AppData\Local\Temp\1257612                              PAGE   95

    4935              $C$DW$583       .dwtag  DW_TAG_member
    4936                      .dwattr $C$DW$583, DW_AT_type(*$C$DW$T$22)
    4937                      .dwattr $C$DW$583, DW_AT_name("FPWR")
    4938                      .dwattr $C$DW$583, DW_AT_TI_symbol_name("_FPWR")
    4939                      .dwattr $C$DW$583, DW_AT_data_member_location[DW_OP_plus_uconst 0x2]
    4940                      .dwattr $C$DW$583, DW_AT_accessibility(DW_ACCESS_public)
    4941              $C$DW$584       .dwtag  DW_TAG_member
    4942                      .dwattr $C$DW$584, DW_AT_type(*$C$DW$T$22)
    4943                      .dwattr $C$DW$584, DW_AT_name("FSTATUS")
    4944                      .dwattr $C$DW$584, DW_AT_TI_symbol_name("_FSTATUS")
    4945                      .dwattr $C$DW$584, DW_AT_data_member_location[DW_OP_plus_uconst 0x3]
    4946                      .dwattr $C$DW$584, DW_AT_accessibility(DW_ACCESS_public)
    4947              $C$DW$585       .dwtag  DW_TAG_member
    4948                      .dwattr $C$DW$585, DW_AT_type(*$C$DW$T$22)
    4949                      .dwattr $C$DW$585, DW_AT_name("FSTDBYWAIT")
    4950                      .dwattr $C$DW$585, DW_AT_TI_symbol_name("_FSTDBYWAIT")
    4951                      .dwattr $C$DW$585, DW_AT_data_member_location[DW_OP_plus_uconst 0x4]
    4952                      .dwattr $C$DW$585, DW_AT_accessibility(DW_ACCESS_public)
    4953              $C$DW$586       .dwtag  DW_TAG_member
    4954                      .dwattr $C$DW$586, DW_AT_type(*$C$DW$T$22)
    4955                      .dwattr $C$DW$586, DW_AT_name("FACTIVEWAIT")
    4956                      .dwattr $C$DW$586, DW_AT_TI_symbol_name("_FACTIVEWAIT")
    4957                      .dwattr $C$DW$586, DW_AT_data_member_location[DW_OP_plus_uconst 0x5]
    4958                      .dwattr $C$DW$586, DW_AT_accessibility(DW_ACCESS_public)
    4959              $C$DW$587       .dwtag  DW_TAG_member
    4960                      .dwattr $C$DW$587, DW_AT_type(*$C$DW$T$22)
    4961                      .dwattr $C$DW$587, DW_AT_name("FBANKWAIT")
    4962                      .dwattr $C$DW$587, DW_AT_TI_symbol_name("_FBANKWAIT")
    4963                      .dwattr $C$DW$587, DW_AT_data_member_location[DW_OP_plus_uconst 0x6]
    4964                      .dwattr $C$DW$587, DW_AT_accessibility(DW_ACCESS_public)
    4965              $C$DW$588       .dwtag  DW_TAG_member
    4966                      .dwattr $C$DW$588, DW_AT_type(*$C$DW$T$22)
    4967                      .dwattr $C$DW$588, DW_AT_name("FOTPWAIT")
    4968                      .dwattr $C$DW$588, DW_AT_TI_symbol_name("_FOTPWAIT")
    4969                      .dwattr $C$DW$588, DW_AT_data_member_location[DW_OP_plus_uconst 0x7]
    4970                      .dwattr $C$DW$588, DW_AT_accessibility(DW_ACCESS_public)
    4971                      .dwendtag $C$DW$T$39
    4972              
    4973              $C$DW$T$86      .dwtag  DW_TAG_pointer_type
    4974                      .dwattr $C$DW$T$86, DW_AT_type(*$C$DW$T$39)
    4975                      .dwattr $C$DW$T$86, DW_AT_address_class(0x16)
    4976              $C$DW$T$87      .dwtag  DW_TAG_typedef, DW_AT_name("FLASH_Handle")
    4977                      .dwattr $C$DW$T$87, DW_AT_type(*$C$DW$T$86)
    4978                      .dwattr $C$DW$T$87, DW_AT_language(DW_LANG_C)
    4979              
    4980              $C$DW$T$60      .dwtag  DW_TAG_structure_type
    4981                      .dwattr $C$DW$T$60, DW_AT_name("_FSM_Obj_")
    4982                      .dwattr $C$DW$T$60, DW_AT_byte_size(0x26)
    4983              $C$DW$589       .dwtag  DW_TAG_member
    4984                      .dwattr $C$DW$589, DW_AT_type(*$C$DW$T$41)
    4985                      .dwattr $C$DW$589, DW_AT_name("motorHandle")
    4986                      .dwattr $C$DW$589, DW_AT_TI_symbol_name("_motorHandle")
    4987                      .dwattr $C$DW$589, DW_AT_data_member_location[DW_OP_plus_uconst 0x0]
    4988                      .dwattr $C$DW$589, DW_AT_accessibility(DW_ACCESS_public)
    4989              $C$DW$590       .dwtag  DW_TAG_member
TMS320C2000 Assembler PC v6.2.5 Wed Nov 22 14:48:16 2017

Tools Copyright (c) 1996-2014 Texas Instruments Incorporated
C:\Users\wmj\AppData\Local\Temp\1257612                              PAGE   96

    4990                      .dwattr $C$DW$590, DW_AT_type(*$C$DW$T$43)
    4991                      .dwattr $C$DW$590, DW_AT_name("halHandle")
    4992                      .dwattr $C$DW$590, DW_AT_TI_symbol_name("_halHandle")
    4993                      .dwattr $C$DW$590, DW_AT_data_member_location[DW_OP_plus_uconst 0x2]
    4994                      .dwattr $C$DW$590, DW_AT_accessibility(DW_ACCESS_public)
    4995              $C$DW$591       .dwtag  DW_TAG_member
    4996                      .dwattr $C$DW$591, DW_AT_type(*$C$DW$T$45)
    4997                      .dwattr $C$DW$591, DW_AT_name("StBoxHandle")
    4998                      .dwattr $C$DW$591, DW_AT_TI_symbol_name("_StBoxHandle")
    4999                      .dwattr $C$DW$591, DW_AT_data_member_location[DW_OP_plus_uconst 0x4]
    5000                      .dwattr $C$DW$591, DW_AT_accessibility(DW_ACCESS_public)
    5001              $C$DW$592       .dwtag  DW_TAG_member
    5002                      .dwattr $C$DW$592, DW_AT_type(*$C$DW$T$47)
    5003                      .dwattr $C$DW$592, DW_AT_name("FSM_State")
    5004                      .dwattr $C$DW$592, DW_AT_TI_symbol_name("_FSM_State")
    5005                      .dwattr $C$DW$592, DW_AT_data_member_location[DW_OP_plus_uconst 0x6]
    5006                      .dwattr $C$DW$592, DW_AT_accessibility(DW_ACCESS_public)
    5007              $C$DW$593       .dwtag  DW_TAG_member
    5008                      .dwattr $C$DW$593, DW_AT_type(*$C$DW$T$47)
    5009                      .dwattr $C$DW$593, DW_AT_name("FSM_CurState")
    5010                      .dwattr $C$DW$593, DW_AT_TI_symbol_name("_FSM_CurState")
    5011                      .dwattr $C$DW$593, DW_AT_data_member_location[DW_OP_plus_uconst 0x7]
    5012                      .dwattr $C$DW$593, DW_AT_accessibility(DW_ACCESS_public)
    5013              $C$DW$594       .dwtag  DW_TAG_member
    5014                      .dwattr $C$DW$594, DW_AT_type(*$C$DW$T$49)
    5015                      .dwattr $C$DW$594, DW_AT_name("FSM_Trans")
    5016                      .dwattr $C$DW$594, DW_AT_TI_symbol_name("_FSM_Trans")
    5017                      .dwattr $C$DW$594, DW_AT_data_member_location[DW_OP_plus_uconst 0x8]
    5018                      .dwattr $C$DW$594, DW_AT_accessibility(DW_ACCESS_public)
    5019              $C$DW$595       .dwtag  DW_TAG_member
    5020                      .dwattr $C$DW$595, DW_AT_type(*$C$DW$T$51)
    5021                      .dwattr $C$DW$595, DW_AT_name("FSM_Event")
    5022                      .dwattr $C$DW$595, DW_AT_TI_symbol_name("_FSM_Event")
    5023                      .dwattr $C$DW$595, DW_AT_data_member_location[DW_OP_plus_uconst 0x9]
    5024                      .dwattr $C$DW$595, DW_AT_accessibility(DW_ACCESS_public)
    5025              $C$DW$596       .dwtag  DW_TAG_member
    5026                      .dwattr $C$DW$596, DW_AT_type(*$C$DW$T$53)
    5027                      .dwattr $C$DW$596, DW_AT_name("FSM_StMode")
    5028                      .dwattr $C$DW$596, DW_AT_TI_symbol_name("_FSM_StMode")
    5029                      .dwattr $C$DW$596, DW_AT_data_member_location[DW_OP_plus_uconst 0xa]
    5030                      .dwattr $C$DW$596, DW_AT_accessibility(DW_ACCESS_public)
    5031              $C$DW$597       .dwtag  DW_TAG_member
    5032                      .dwattr $C$DW$597, DW_AT_type(*$C$DW$T$21)
    5033                      .dwattr $C$DW$597, DW_AT_name("FSM_ErrFlg")
    5034                      .dwattr $C$DW$597, DW_AT_TI_symbol_name("_FSM_ErrFlg")
    5035                      .dwattr $C$DW$597, DW_AT_data_member_location[DW_OP_plus_uconst 0xb]
    5036                      .dwattr $C$DW$597, DW_AT_accessibility(DW_ACCESS_public)
    5037              $C$DW$598       .dwtag  DW_TAG_member
    5038                      .dwattr $C$DW$598, DW_AT_type(*$C$DW$T$21)
    5039                      .dwattr $C$DW$598, DW_AT_name("FSM_ErrMask")
    5040                      .dwattr $C$DW$598, DW_AT_TI_symbol_name("_FSM_ErrMask")
    5041                      .dwattr $C$DW$598, DW_AT_data_member_location[DW_OP_plus_uconst 0xc]
    5042                      .dwattr $C$DW$598, DW_AT_accessibility(DW_ACCESS_public)
    5043              $C$DW$599       .dwtag  DW_TAG_member
    5044                      .dwattr $C$DW$599, DW_AT_type(*$C$DW$T$21)
TMS320C2000 Assembler PC v6.2.5 Wed Nov 22 14:48:16 2017

Tools Copyright (c) 1996-2014 Texas Instruments Incorporated
C:\Users\wmj\AppData\Local\Temp\1257612                              PAGE   97

    5045                      .dwattr $C$DW$599, DW_AT_name("FSM_runTime")
    5046                      .dwattr $C$DW$599, DW_AT_TI_symbol_name("_FSM_runTime")
    5047                      .dwattr $C$DW$599, DW_AT_data_member_location[DW_OP_plus_uconst 0xd]
    5048                      .dwattr $C$DW$599, DW_AT_accessibility(DW_ACCESS_public)
    5049              $C$DW$600       .dwtag  DW_TAG_member
    5050                      .dwattr $C$DW$600, DW_AT_type(*$C$DW$T$21)
    5051                      .dwattr $C$DW$600, DW_AT_name("FSM_485Cmd")
    5052                      .dwattr $C$DW$600, DW_AT_TI_symbol_name("_FSM_485Cmd")
    5053                      .dwattr $C$DW$600, DW_AT_data_member_location[DW_OP_plus_uconst 0xe]
    5054                      .dwattr $C$DW$600, DW_AT_accessibility(DW_ACCESS_public)
    5055              $C$DW$601       .dwtag  DW_TAG_member
    5056                      .dwattr $C$DW$601, DW_AT_type(*$C$DW$T$47)
    5057                      .dwattr $C$DW$601, DW_AT_name("FSM_485EditState")
    5058                      .dwattr $C$DW$601, DW_AT_TI_symbol_name("_FSM_485EditState")
    5059                      .dwattr $C$DW$601, DW_AT_data_member_location[DW_OP_plus_uconst 0xf]
    5060                      .dwattr $C$DW$601, DW_AT_accessibility(DW_ACCESS_public)
    5061              $C$DW$602       .dwtag  DW_TAG_member
    5062                      .dwattr $C$DW$602, DW_AT_type(*$C$DW$T$55)
    5063                      .dwattr $C$DW$602, DW_AT_name("FSM_485EditOpt")
    5064                      .dwattr $C$DW$602, DW_AT_TI_symbol_name("_FSM_485EditOpt")
    5065                      .dwattr $C$DW$602, DW_AT_data_member_location[DW_OP_plus_uconst 0x10]
    5066                      .dwattr $C$DW$602, DW_AT_accessibility(DW_ACCESS_public)
    5067              $C$DW$603       .dwtag  DW_TAG_member
    5068                      .dwattr $C$DW$603, DW_AT_type(*$C$DW$T$21)
    5069                      .dwattr $C$DW$603, DW_AT_name("FSM_485RefSpeed")
    5070                      .dwattr $C$DW$603, DW_AT_TI_symbol_name("_FSM_485RefSpeed")
    5071                      .dwattr $C$DW$603, DW_AT_data_member_location[DW_OP_plus_uconst 0x11]
    5072                      .dwattr $C$DW$603, DW_AT_accessibility(DW_ACCESS_public)
    5073              $C$DW$604       .dwtag  DW_TAG_member
    5074                      .dwattr $C$DW$604, DW_AT_type(*$C$DW$T$37)
    5075                      .dwattr $C$DW$604, DW_AT_name("MaxTorque_Nm")
    5076                      .dwattr $C$DW$604, DW_AT_TI_symbol_name("_MaxTorque_Nm")
    5077                      .dwattr $C$DW$604, DW_AT_data_member_location[DW_OP_plus_uconst 0x12]
    5078                      .dwattr $C$DW$604, DW_AT_accessibility(DW_ACCESS_public)
    5079              $C$DW$605       .dwtag  DW_TAG_member
    5080                      .dwattr $C$DW$605, DW_AT_type(*$C$DW$T$57)
    5081                      .dwattr $C$DW$605, DW_AT_name("FSM_CheckCond")
    5082                      .dwattr $C$DW$605, DW_AT_TI_symbol_name("_FSM_CheckCond")
    5083                      .dwattr $C$DW$605, DW_AT_data_member_location[DW_OP_plus_uconst 0x14]
    5084                      .dwattr $C$DW$605, DW_AT_accessibility(DW_ACCESS_public)
    5085              $C$DW$606       .dwtag  DW_TAG_member
    5086                      .dwattr $C$DW$606, DW_AT_type(*$C$DW$T$21)
    5087                      .dwattr $C$DW$606, DW_AT_name("FSM_CondValue")
    5088                      .dwattr $C$DW$606, DW_AT_TI_symbol_name("_FSM_CondValue")
    5089                      .dwattr $C$DW$606, DW_AT_data_member_location[DW_OP_plus_uconst 0x15]
    5090                      .dwattr $C$DW$606, DW_AT_accessibility(DW_ACCESS_public)
    5091              $C$DW$607       .dwtag  DW_TAG_member
    5092                      .dwattr $C$DW$607, DW_AT_type(*$C$DW$T$58)
    5093                      .dwattr $C$DW$607, DW_AT_name("OldAbsPos")
    5094                      .dwattr $C$DW$607, DW_AT_TI_symbol_name("_OldAbsPos")
    5095                      .dwattr $C$DW$607, DW_AT_data_member_location[DW_OP_plus_uconst 0x16]
    5096                      .dwattr $C$DW$607, DW_AT_accessibility(DW_ACCESS_public)
    5097              $C$DW$608       .dwtag  DW_TAG_member
    5098                      .dwattr $C$DW$608, DW_AT_type(*$C$DW$T$58)
    5099                      .dwattr $C$DW$608, DW_AT_name("NewAbsPos")
TMS320C2000 Assembler PC v6.2.5 Wed Nov 22 14:48:16 2017

Tools Copyright (c) 1996-2014 Texas Instruments Incorporated
C:\Users\wmj\AppData\Local\Temp\1257612                              PAGE   98

    5100                      .dwattr $C$DW$608, DW_AT_TI_symbol_name("_NewAbsPos")
    5101                      .dwattr $C$DW$608, DW_AT_data_member_location[DW_OP_plus_uconst 0x1a]
    5102                      .dwattr $C$DW$608, DW_AT_accessibility(DW_ACCESS_public)
    5103              $C$DW$609       .dwtag  DW_TAG_member
    5104                      .dwattr $C$DW$609, DW_AT_type(*$C$DW$T$59)
    5105                      .dwattr $C$DW$609, DW_AT_name("Flag_485StartMotor")
    5106                      .dwattr $C$DW$609, DW_AT_TI_symbol_name("_Flag_485StartMotor")
    5107                      .dwattr $C$DW$609, DW_AT_data_member_location[DW_OP_plus_uconst 0x1e]
    5108                      .dwattr $C$DW$609, DW_AT_accessibility(DW_ACCESS_public)
    5109              $C$DW$610       .dwtag  DW_TAG_member
    5110                      .dwattr $C$DW$610, DW_AT_type(*$C$DW$T$59)
    5111                      .dwattr $C$DW$610, DW_AT_name("Flag_MaxTimeLimit")
    5112                      .dwattr $C$DW$610, DW_AT_TI_symbol_name("_Flag_MaxTimeLimit")
    5113                      .dwattr $C$DW$610, DW_AT_data_member_location[DW_OP_plus_uconst 0x1f]
    5114                      .dwattr $C$DW$610, DW_AT_accessibility(DW_ACCESS_public)
    5115              $C$DW$611       .dwtag  DW_TAG_member
    5116                      .dwattr $C$DW$611, DW_AT_type(*$C$DW$T$59)
    5117                      .dwattr $C$DW$611, DW_AT_name("runTime_Enable")
    5118                      .dwattr $C$DW$611, DW_AT_TI_symbol_name("_runTime_Enable")
    5119                      .dwattr $C$DW$611, DW_AT_data_member_location[DW_OP_plus_uconst 0x20]
    5120                      .dwattr $C$DW$611, DW_AT_accessibility(DW_ACCESS_public)
    5121              $C$DW$612       .dwtag  DW_TAG_member
    5122                      .dwattr $C$DW$612, DW_AT_type(*$C$DW$T$59)
    5123                      .dwattr $C$DW$612, DW_AT_name("Flag_StallEnable")
    5124                      .dwattr $C$DW$612, DW_AT_TI_symbol_name("_Flag_StallEnable")
    5125                      .dwattr $C$DW$612, DW_AT_data_member_location[DW_OP_plus_uconst 0x21]
    5126                      .dwattr $C$DW$612, DW_AT_accessibility(DW_ACCESS_public)
    5127              $C$DW$613       .dwtag  DW_TAG_member
    5128                      .dwattr $C$DW$613, DW_AT_type(*$C$DW$T$59)
    5129                      .dwattr $C$DW$613, DW_AT_name("Flag_ReportState")
    5130                      .dwattr $C$DW$613, DW_AT_TI_symbol_name("_Flag_ReportState")
    5131                      .dwattr $C$DW$613, DW_AT_data_member_location[DW_OP_plus_uconst 0x22]
    5132                      .dwattr $C$DW$613, DW_AT_accessibility(DW_ACCESS_public)
    5133              $C$DW$614       .dwtag  DW_TAG_member
    5134                      .dwattr $C$DW$614, DW_AT_type(*$C$DW$T$59)
    5135                      .dwattr $C$DW$614, DW_AT_name("Flag_RunMode")
    5136                      .dwattr $C$DW$614, DW_AT_TI_symbol_name("_Flag_RunMode")
    5137                      .dwattr $C$DW$614, DW_AT_data_member_location[DW_OP_plus_uconst 0x23]
    5138                      .dwattr $C$DW$614, DW_AT_accessibility(DW_ACCESS_public)
    5139              $C$DW$615       .dwtag  DW_TAG_member
    5140                      .dwattr $C$DW$615, DW_AT_type(*$C$DW$T$59)
    5141                      .dwattr $C$DW$615, DW_AT_name("Flag_DcBrake")
    5142                      .dwattr $C$DW$615, DW_AT_TI_symbol_name("_Flag_DcBrake")
    5143                      .dwattr $C$DW$615, DW_AT_data_member_location[DW_OP_plus_uconst 0x24]
    5144                      .dwattr $C$DW$615, DW_AT_accessibility(DW_ACCESS_public)
    5145                      .dwendtag $C$DW$T$60
    5146              
    5147              $C$DW$T$167     .dwtag  DW_TAG_typedef, DW_AT_name("FSM_Obj")
    5148                      .dwattr $C$DW$T$167, DW_AT_type(*$C$DW$T$60)
    5149                      .dwattr $C$DW$T$167, DW_AT_language(DW_LANG_C)
    5150              $C$DW$T$168     .dwtag  DW_TAG_pointer_type
    5151                      .dwattr $C$DW$T$168, DW_AT_type(*$C$DW$T$60)
    5152                      .dwattr $C$DW$T$168, DW_AT_address_class(0x16)
    5153              $C$DW$T$169     .dwtag  DW_TAG_typedef, DW_AT_name("FSM_Handle")
    5154                      .dwattr $C$DW$T$169, DW_AT_type(*$C$DW$T$168)
TMS320C2000 Assembler PC v6.2.5 Wed Nov 22 14:48:16 2017

Tools Copyright (c) 1996-2014 Texas Instruments Incorporated
C:\Users\wmj\AppData\Local\Temp\1257612                              PAGE   99

    5155                      .dwattr $C$DW$T$169, DW_AT_language(DW_LANG_C)
    5156              $C$DW$616       .dwtag  DW_TAG_TI_far_type
    5157                      .dwattr $C$DW$616, DW_AT_type(*$C$DW$T$169)
    5158              $C$DW$T$170     .dwtag  DW_TAG_const_type
    5159                      .dwattr $C$DW$T$170, DW_AT_type(*$C$DW$616)
    5160              
    5161              $C$DW$T$62      .dwtag  DW_TAG_structure_type
    5162                      .dwattr $C$DW$T$62, DW_AT_name("_FSM_Position_t_")
    5163                      .dwattr $C$DW$T$62, DW_AT_byte_size(0x04)
    5164              $C$DW$617       .dwtag  DW_TAG_member
    5165                      .dwattr $C$DW$617, DW_AT_type(*$C$DW$T$61)
    5166                      .dwattr $C$DW$617, DW_AT_name("PosInt_MRev")
    5167                      .dwattr $C$DW$617, DW_AT_TI_symbol_name("_PosInt_MRev")
    5168                      .dwattr $C$DW$617, DW_AT_data_member_location[DW_OP_plus_uconst 0x0]
    5169                      .dwattr $C$DW$617, DW_AT_accessibility(DW_ACCESS_public)
    5170              $C$DW$618       .dwtag  DW_TAG_member
    5171                      .dwattr $C$DW$618, DW_AT_type(*$C$DW$T$37)
    5172                      .dwattr $C$DW$618, DW_AT_name("PosFrac_MRev")
    5173                      .dwattr $C$DW$618, DW_AT_TI_symbol_name("_PosFrac_MRev")
    5174                      .dwattr $C$DW$618, DW_AT_data_member_location[DW_OP_plus_uconst 0x2]
    5175                      .dwattr $C$DW$618, DW_AT_accessibility(DW_ACCESS_public)
    5176                      .dwendtag $C$DW$T$62
    5177              
    5178              $C$DW$T$58      .dwtag  DW_TAG_typedef, DW_AT_name("FSM_Position_t")
    5179                      .dwattr $C$DW$T$58, DW_AT_type(*$C$DW$T$62)
    5180                      .dwattr $C$DW$T$58, DW_AT_language(DW_LANG_C)
    5181              
    5182              $C$DW$T$71      .dwtag  DW_TAG_structure_type
    5183                      .dwattr $C$DW$T$71, DW_AT_name("_FSM_StatePool_t_")
    5184                      .dwattr $C$DW$T$71, DW_AT_byte_size(0x4b)
    5185              $C$DW$619       .dwtag  DW_TAG_member
    5186                      .dwattr $C$DW$619, DW_AT_type(*$C$DW$T$64)
    5187                      .dwattr $C$DW$619, DW_AT_name("FSM_RefSpeed")
    5188                      .dwattr $C$DW$619, DW_AT_TI_symbol_name("_FSM_RefSpeed")
    5189                      .dwattr $C$DW$619, DW_AT_data_member_location[DW_OP_plus_uconst 0x0]
    5190                      .dwattr $C$DW$619, DW_AT_accessibility(DW_ACCESS_public)
    5191              $C$DW$620       .dwtag  DW_TAG_member
    5192                      .dwattr $C$DW$620, DW_AT_type(*$C$DW$T$65)
    5193                      .dwattr $C$DW$620, DW_AT_name("FSM_CondValue")
    5194                      .dwattr $C$DW$620, DW_AT_TI_symbol_name("_FSM_CondValue")
    5195                      .dwattr $C$DW$620, DW_AT_data_member_location[DW_OP_plus_uconst 0xf]
    5196                      .dwattr $C$DW$620, DW_AT_accessibility(DW_ACCESS_public)
    5197              $C$DW$621       .dwtag  DW_TAG_member
    5198                      .dwattr $C$DW$621, DW_AT_type(*$C$DW$T$66)
    5199                      .dwattr $C$DW$621, DW_AT_name("FSM_Condition")
    5200                      .dwattr $C$DW$621, DW_AT_TI_symbol_name("_FSM_Condition")
    5201                      .dwattr $C$DW$621, DW_AT_data_member_location[DW_OP_plus_uconst 0x1e]
    5202                      .dwattr $C$DW$621, DW_AT_accessibility(DW_ACCESS_public)
    5203              $C$DW$622       .dwtag  DW_TAG_member
    5204                      .dwattr $C$DW$622, DW_AT_type(*$C$DW$T$69)
    5205                      .dwattr $C$DW$622, DW_AT_name("FSM_RunAction")
    5206                      .dwattr $C$DW$622, DW_AT_TI_symbol_name("_FSM_RunAction")
    5207                      .dwattr $C$DW$622, DW_AT_data_member_location[DW_OP_plus_uconst 0x2d]
    5208                      .dwattr $C$DW$622, DW_AT_accessibility(DW_ACCESS_public)
    5209              $C$DW$623       .dwtag  DW_TAG_member
TMS320C2000 Assembler PC v6.2.5 Wed Nov 22 14:48:16 2017

Tools Copyright (c) 1996-2014 Texas Instruments Incorporated
C:\Users\wmj\AppData\Local\Temp\1257612                              PAGE  100

    5210                      .dwattr $C$DW$623, DW_AT_type(*$C$DW$T$70)
    5211                      .dwattr $C$DW$623, DW_AT_name("FSM_NextState")
    5212                      .dwattr $C$DW$623, DW_AT_TI_symbol_name("_FSM_NextState")
    5213                      .dwattr $C$DW$623, DW_AT_data_member_location[DW_OP_plus_uconst 0x3c]
    5214                      .dwattr $C$DW$623, DW_AT_accessibility(DW_ACCESS_public)
    5215                      .dwendtag $C$DW$T$71
    5216              
    5217              $C$DW$T$176     .dwtag  DW_TAG_typedef, DW_AT_name("FSM_StatePool_t")
    5218                      .dwattr $C$DW$T$176, DW_AT_type(*$C$DW$T$71)
    5219                      .dwattr $C$DW$T$176, DW_AT_language(DW_LANG_C)
    5220              $C$DW$T$44      .dwtag  DW_TAG_pointer_type
    5221                      .dwattr $C$DW$T$44, DW_AT_type(*$C$DW$T$71)
    5222                      .dwattr $C$DW$T$44, DW_AT_address_class(0x16)
    5223              $C$DW$T$45      .dwtag  DW_TAG_typedef, DW_AT_name("StPool_Handle")
    5224                      .dwattr $C$DW$T$45, DW_AT_type(*$C$DW$T$44)
    5225                      .dwattr $C$DW$T$45, DW_AT_language(DW_LANG_C)
    5226              
    5227              $C$DW$T$72      .dwtag  DW_TAG_structure_type
    5228                      .dwattr $C$DW$T$72, DW_AT_name("_FSM_Vars_t_")
    5229                      .dwattr $C$DW$T$72, DW_AT_byte_size(0x06)
    5230              $C$DW$624       .dwtag  DW_TAG_member
    5231                      .dwattr $C$DW$624, DW_AT_type(*$C$DW$T$16)
    5232                      .dwattr $C$DW$624, DW_AT_name("FSM_RefSpeed")
    5233                      .dwattr $C$DW$624, DW_AT_TI_symbol_name("_FSM_RefSpeed")
    5234                      .dwattr $C$DW$624, DW_AT_data_member_location[DW_OP_plus_uconst 0x0]
    5235                      .dwattr $C$DW$624, DW_AT_accessibility(DW_ACCESS_public)
    5236              $C$DW$625       .dwtag  DW_TAG_member
    5237                      .dwattr $C$DW$625, DW_AT_type(*$C$DW$T$21)
    5238                      .dwattr $C$DW$625, DW_AT_name("FSM_CondValue")
    5239                      .dwattr $C$DW$625, DW_AT_TI_symbol_name("_FSM_CondValue")
    5240                      .dwattr $C$DW$625, DW_AT_data_member_location[DW_OP_plus_uconst 0x2]
    5241                      .dwattr $C$DW$625, DW_AT_accessibility(DW_ACCESS_public)
    5242              $C$DW$626       .dwtag  DW_TAG_member
    5243                      .dwattr $C$DW$626, DW_AT_type(*$C$DW$T$57)
    5244                      .dwattr $C$DW$626, DW_AT_name("FSM_Condition")
    5245                      .dwattr $C$DW$626, DW_AT_TI_symbol_name("_FSM_Condition")
    5246                      .dwattr $C$DW$626, DW_AT_data_member_location[DW_OP_plus_uconst 0x3]
    5247                      .dwattr $C$DW$626, DW_AT_accessibility(DW_ACCESS_public)
    5248              $C$DW$627       .dwtag  DW_TAG_member
    5249                      .dwattr $C$DW$627, DW_AT_type(*$C$DW$T$68)
    5250                      .dwattr $C$DW$627, DW_AT_name("FSM_RunAction")
    5251                      .dwattr $C$DW$627, DW_AT_TI_symbol_name("_FSM_RunAction")
    5252                      .dwattr $C$DW$627, DW_AT_data_member_location[DW_OP_plus_uconst 0x4]
    5253                      .dwattr $C$DW$627, DW_AT_accessibility(DW_ACCESS_public)
    5254              $C$DW$628       .dwtag  DW_TAG_member
    5255                      .dwattr $C$DW$628, DW_AT_type(*$C$DW$T$47)
    5256                      .dwattr $C$DW$628, DW_AT_name("FSM_NextState")
    5257                      .dwattr $C$DW$628, DW_AT_TI_symbol_name("_FSM_NextState")
    5258                      .dwattr $C$DW$628, DW_AT_data_member_location[DW_OP_plus_uconst 0x5]
    5259                      .dwattr $C$DW$628, DW_AT_accessibility(DW_ACCESS_public)
    5260                      .dwendtag $C$DW$T$72
    5261              
    5262              $C$DW$T$177     .dwtag  DW_TAG_typedef, DW_AT_name("FSM_Vars_t")
    5263                      .dwattr $C$DW$T$177, DW_AT_type(*$C$DW$T$72)
    5264                      .dwattr $C$DW$T$177, DW_AT_language(DW_LANG_C)
TMS320C2000 Assembler PC v6.2.5 Wed Nov 22 14:48:16 2017

Tools Copyright (c) 1996-2014 Texas Instruments Incorporated
C:\Users\wmj\AppData\Local\Temp\1257612                              PAGE  101

    5265              $C$DW$629       .dwtag  DW_TAG_TI_far_type
    5266                      .dwattr $C$DW$629, DW_AT_type(*$C$DW$T$177)
    5267              $C$DW$T$178     .dwtag  DW_TAG_const_type
    5268                      .dwattr $C$DW$T$178, DW_AT_type(*$C$DW$629)
    5269              $C$DW$T$179     .dwtag  DW_TAG_pointer_type
    5270                      .dwattr $C$DW$T$179, DW_AT_type(*$C$DW$T$178)
    5271                      .dwattr $C$DW$T$179, DW_AT_address_class(0x16)
    5272              $C$DW$630       .dwtag  DW_TAG_TI_far_type
    5273                      .dwattr $C$DW$630, DW_AT_type(*$C$DW$T$179)
    5274              $C$DW$T$180     .dwtag  DW_TAG_const_type
    5275                      .dwattr $C$DW$T$180, DW_AT_type(*$C$DW$630)
    5276              
    5277              $C$DW$T$181     .dwtag  DW_TAG_array_type
    5278                      .dwattr $C$DW$T$181, DW_AT_type(*$C$DW$T$178)
    5279                      .dwattr $C$DW$T$181, DW_AT_language(DW_LANG_C)
    5280                      .dwattr $C$DW$T$181, DW_AT_byte_size(0x5a)
    5281              $C$DW$631       .dwtag  DW_TAG_subrange_type
    5282                      .dwattr $C$DW$631, DW_AT_upper_bound(0x0e)
    5283                      .dwendtag $C$DW$T$181
    5284              
    5285              
    5286              $C$DW$T$182     .dwtag  DW_TAG_array_type
    5287                      .dwattr $C$DW$T$182, DW_AT_type(*$C$DW$T$178)
    5288                      .dwattr $C$DW$T$182, DW_AT_language(DW_LANG_C)
    5289                      .dwattr $C$DW$T$182, DW_AT_byte_size(0x30)
    5290              $C$DW$632       .dwtag  DW_TAG_subrange_type
    5291                      .dwattr $C$DW$632, DW_AT_upper_bound(0x07)
    5292                      .dwendtag $C$DW$T$182
    5293              
    5294              
    5295              $C$DW$T$77      .dwtag  DW_TAG_structure_type
    5296                      .dwattr $C$DW$T$77, DW_AT_name("_GPIO_Obj_")
    5297                      .dwattr $C$DW$T$77, DW_AT_byte_size(0x6a)
    5298              $C$DW$633       .dwtag  DW_TAG_member
    5299                      .dwattr $C$DW$633, DW_AT_type(*$C$DW$T$74)
    5300                      .dwattr $C$DW$633, DW_AT_name("GPACTRL")
    5301                      .dwattr $C$DW$633, DW_AT_TI_symbol_name("_GPACTRL")
    5302                      .dwattr $C$DW$633, DW_AT_data_member_location[DW_OP_plus_uconst 0x0]
    5303                      .dwattr $C$DW$633, DW_AT_accessibility(DW_ACCESS_public)
    5304              $C$DW$634       .dwtag  DW_TAG_member
    5305                      .dwattr $C$DW$634, DW_AT_type(*$C$DW$T$74)
    5306                      .dwattr $C$DW$634, DW_AT_name("GPAQSEL1")
    5307                      .dwattr $C$DW$634, DW_AT_TI_symbol_name("_GPAQSEL1")
    5308                      .dwattr $C$DW$634, DW_AT_data_member_location[DW_OP_plus_uconst 0x2]
    5309                      .dwattr $C$DW$634, DW_AT_accessibility(DW_ACCESS_public)
    5310              $C$DW$635       .dwtag  DW_TAG_member
    5311                      .dwattr $C$DW$635, DW_AT_type(*$C$DW$T$74)
    5312                      .dwattr $C$DW$635, DW_AT_name("GPAQSEL2")
    5313                      .dwattr $C$DW$635, DW_AT_TI_symbol_name("_GPAQSEL2")
    5314                      .dwattr $C$DW$635, DW_AT_data_member_location[DW_OP_plus_uconst 0x4]
    5315                      .dwattr $C$DW$635, DW_AT_accessibility(DW_ACCESS_public)
    5316              $C$DW$636       .dwtag  DW_TAG_member
    5317                      .dwattr $C$DW$636, DW_AT_type(*$C$DW$T$74)
    5318                      .dwattr $C$DW$636, DW_AT_name("GPAMUX1")
    5319                      .dwattr $C$DW$636, DW_AT_TI_symbol_name("_GPAMUX1")
TMS320C2000 Assembler PC v6.2.5 Wed Nov 22 14:48:16 2017

Tools Copyright (c) 1996-2014 Texas Instruments Incorporated
C:\Users\wmj\AppData\Local\Temp\1257612                              PAGE  102

    5320                      .dwattr $C$DW$636, DW_AT_data_member_location[DW_OP_plus_uconst 0x6]
    5321                      .dwattr $C$DW$636, DW_AT_accessibility(DW_ACCESS_public)
    5322              $C$DW$637       .dwtag  DW_TAG_member
    5323                      .dwattr $C$DW$637, DW_AT_type(*$C$DW$T$74)
    5324                      .dwattr $C$DW$637, DW_AT_name("GPAMUX2")
    5325                      .dwattr $C$DW$637, DW_AT_TI_symbol_name("_GPAMUX2")
    5326                      .dwattr $C$DW$637, DW_AT_data_member_location[DW_OP_plus_uconst 0x8]
    5327                      .dwattr $C$DW$637, DW_AT_accessibility(DW_ACCESS_public)
    5328              $C$DW$638       .dwtag  DW_TAG_member
    5329                      .dwattr $C$DW$638, DW_AT_type(*$C$DW$T$74)
    5330                      .dwattr $C$DW$638, DW_AT_name("GPADIR")
    5331                      .dwattr $C$DW$638, DW_AT_TI_symbol_name("_GPADIR")
    5332                      .dwattr $C$DW$638, DW_AT_data_member_location[DW_OP_plus_uconst 0xa]
    5333                      .dwattr $C$DW$638, DW_AT_accessibility(DW_ACCESS_public)
    5334              $C$DW$639       .dwtag  DW_TAG_member
    5335                      .dwattr $C$DW$639, DW_AT_type(*$C$DW$T$74)
    5336                      .dwattr $C$DW$639, DW_AT_name("GPAPUD")
    5337                      .dwattr $C$DW$639, DW_AT_TI_symbol_name("_GPAPUD")
    5338                      .dwattr $C$DW$639, DW_AT_data_member_location[DW_OP_plus_uconst 0xc]
    5339                      .dwattr $C$DW$639, DW_AT_accessibility(DW_ACCESS_public)
    5340              $C$DW$640       .dwtag  DW_TAG_member
    5341                      .dwattr $C$DW$640, DW_AT_type(*$C$DW$T$25)
    5342                      .dwattr $C$DW$640, DW_AT_name("rsvd_1")
    5343                      .dwattr $C$DW$640, DW_AT_TI_symbol_name("_rsvd_1")
    5344                      .dwattr $C$DW$640, DW_AT_data_member_location[DW_OP_plus_uconst 0xe]
    5345                      .dwattr $C$DW$640, DW_AT_accessibility(DW_ACCESS_public)
    5346              $C$DW$641       .dwtag  DW_TAG_member
    5347                      .dwattr $C$DW$641, DW_AT_type(*$C$DW$T$74)
    5348                      .dwattr $C$DW$641, DW_AT_name("GPBCTRL")
    5349                      .dwattr $C$DW$641, DW_AT_TI_symbol_name("_GPBCTRL")
    5350                      .dwattr $C$DW$641, DW_AT_data_member_location[DW_OP_plus_uconst 0x10]
    5351                      .dwattr $C$DW$641, DW_AT_accessibility(DW_ACCESS_public)
    5352              $C$DW$642       .dwtag  DW_TAG_member
    5353                      .dwattr $C$DW$642, DW_AT_type(*$C$DW$T$74)
    5354                      .dwattr $C$DW$642, DW_AT_name("GPBQSEL1")
    5355                      .dwattr $C$DW$642, DW_AT_TI_symbol_name("_GPBQSEL1")
    5356                      .dwattr $C$DW$642, DW_AT_data_member_location[DW_OP_plus_uconst 0x12]
    5357                      .dwattr $C$DW$642, DW_AT_accessibility(DW_ACCESS_public)
    5358              $C$DW$643       .dwtag  DW_TAG_member
    5359                      .dwattr $C$DW$643, DW_AT_type(*$C$DW$T$25)
    5360                      .dwattr $C$DW$643, DW_AT_name("rsvd_2")
    5361                      .dwattr $C$DW$643, DW_AT_TI_symbol_name("_rsvd_2")
    5362                      .dwattr $C$DW$643, DW_AT_data_member_location[DW_OP_plus_uconst 0x14]
    5363                      .dwattr $C$DW$643, DW_AT_accessibility(DW_ACCESS_public)
    5364              $C$DW$644       .dwtag  DW_TAG_member
    5365                      .dwattr $C$DW$644, DW_AT_type(*$C$DW$T$74)
    5366                      .dwattr $C$DW$644, DW_AT_name("GPBMUX1")
    5367                      .dwattr $C$DW$644, DW_AT_TI_symbol_name("_GPBMUX1")
    5368                      .dwattr $C$DW$644, DW_AT_data_member_location[DW_OP_plus_uconst 0x16]
    5369                      .dwattr $C$DW$644, DW_AT_accessibility(DW_ACCESS_public)
    5370              $C$DW$645       .dwtag  DW_TAG_member
    5371                      .dwattr $C$DW$645, DW_AT_type(*$C$DW$T$25)
    5372                      .dwattr $C$DW$645, DW_AT_name("rsvd_3")
    5373                      .dwattr $C$DW$645, DW_AT_TI_symbol_name("_rsvd_3")
    5374                      .dwattr $C$DW$645, DW_AT_data_member_location[DW_OP_plus_uconst 0x18]
TMS320C2000 Assembler PC v6.2.5 Wed Nov 22 14:48:16 2017

Tools Copyright (c) 1996-2014 Texas Instruments Incorporated
C:\Users\wmj\AppData\Local\Temp\1257612                              PAGE  103

    5375                      .dwattr $C$DW$645, DW_AT_accessibility(DW_ACCESS_public)
    5376              $C$DW$646       .dwtag  DW_TAG_member
    5377                      .dwattr $C$DW$646, DW_AT_type(*$C$DW$T$74)
    5378                      .dwattr $C$DW$646, DW_AT_name("GPBDIR")
    5379                      .dwattr $C$DW$646, DW_AT_TI_symbol_name("_GPBDIR")
    5380                      .dwattr $C$DW$646, DW_AT_data_member_location[DW_OP_plus_uconst 0x1a]
    5381                      .dwattr $C$DW$646, DW_AT_accessibility(DW_ACCESS_public)
    5382              $C$DW$647       .dwtag  DW_TAG_member
    5383                      .dwattr $C$DW$647, DW_AT_type(*$C$DW$T$74)
    5384                      .dwattr $C$DW$647, DW_AT_name("GPBPUD")
    5385                      .dwattr $C$DW$647, DW_AT_TI_symbol_name("_GPBPUD")
    5386                      .dwattr $C$DW$647, DW_AT_data_member_location[DW_OP_plus_uconst 0x1c]
    5387                      .dwattr $C$DW$647, DW_AT_accessibility(DW_ACCESS_public)
    5388              $C$DW$648       .dwtag  DW_TAG_member
    5389                      .dwattr $C$DW$648, DW_AT_type(*$C$DW$T$75)
    5390                      .dwattr $C$DW$648, DW_AT_name("rsvd_4")
    5391                      .dwattr $C$DW$648, DW_AT_TI_symbol_name("_rsvd_4")
    5392                      .dwattr $C$DW$648, DW_AT_data_member_location[DW_OP_plus_uconst 0x1e]
    5393                      .dwattr $C$DW$648, DW_AT_accessibility(DW_ACCESS_public)
    5394              $C$DW$649       .dwtag  DW_TAG_member
    5395                      .dwattr $C$DW$649, DW_AT_type(*$C$DW$T$74)
    5396                      .dwattr $C$DW$649, DW_AT_name("AIOMUX1")
    5397                      .dwattr $C$DW$649, DW_AT_TI_symbol_name("_AIOMUX1")
    5398                      .dwattr $C$DW$649, DW_AT_data_member_location[DW_OP_plus_uconst 0x36]
    5399                      .dwattr $C$DW$649, DW_AT_accessibility(DW_ACCESS_public)
    5400              $C$DW$650       .dwtag  DW_TAG_member
    5401                      .dwattr $C$DW$650, DW_AT_type(*$C$DW$T$25)
    5402                      .dwattr $C$DW$650, DW_AT_name("rsvd_5")
    5403                      .dwattr $C$DW$650, DW_AT_TI_symbol_name("_rsvd_5")
    5404                      .dwattr $C$DW$650, DW_AT_data_member_location[DW_OP_plus_uconst 0x38]
    5405                      .dwattr $C$DW$650, DW_AT_accessibility(DW_ACCESS_public)
    5406              $C$DW$651       .dwtag  DW_TAG_member
    5407                      .dwattr $C$DW$651, DW_AT_type(*$C$DW$T$74)
    5408                      .dwattr $C$DW$651, DW_AT_name("AIODIR")
    5409                      .dwattr $C$DW$651, DW_AT_TI_symbol_name("_AIODIR")
    5410                      .dwattr $C$DW$651, DW_AT_data_member_location[DW_OP_plus_uconst 0x3a]
    5411                      .dwattr $C$DW$651, DW_AT_accessibility(DW_ACCESS_public)
    5412              $C$DW$652       .dwtag  DW_TAG_member
    5413                      .dwattr $C$DW$652, DW_AT_type(*$C$DW$T$76)
    5414                      .dwattr $C$DW$652, DW_AT_name("rsvd_6")
    5415                      .dwattr $C$DW$652, DW_AT_TI_symbol_name("_rsvd_6")
    5416                      .dwattr $C$DW$652, DW_AT_data_member_location[DW_OP_plus_uconst 0x3c]
    5417                      .dwattr $C$DW$652, DW_AT_accessibility(DW_ACCESS_public)
    5418              $C$DW$653       .dwtag  DW_TAG_member
    5419                      .dwattr $C$DW$653, DW_AT_type(*$C$DW$T$74)
    5420                      .dwattr $C$DW$653, DW_AT_name("GPADAT")
    5421                      .dwattr $C$DW$653, DW_AT_TI_symbol_name("_GPADAT")
    5422                      .dwattr $C$DW$653, DW_AT_data_member_location[DW_OP_plus_uconst 0x40]
    5423                      .dwattr $C$DW$653, DW_AT_accessibility(DW_ACCESS_public)
    5424              $C$DW$654       .dwtag  DW_TAG_member
    5425                      .dwattr $C$DW$654, DW_AT_type(*$C$DW$T$74)
    5426                      .dwattr $C$DW$654, DW_AT_name("GPASET")
    5427                      .dwattr $C$DW$654, DW_AT_TI_symbol_name("_GPASET")
    5428                      .dwattr $C$DW$654, DW_AT_data_member_location[DW_OP_plus_uconst 0x42]
    5429                      .dwattr $C$DW$654, DW_AT_accessibility(DW_ACCESS_public)
TMS320C2000 Assembler PC v6.2.5 Wed Nov 22 14:48:16 2017

Tools Copyright (c) 1996-2014 Texas Instruments Incorporated
C:\Users\wmj\AppData\Local\Temp\1257612                              PAGE  104

    5430              $C$DW$655       .dwtag  DW_TAG_member
    5431                      .dwattr $C$DW$655, DW_AT_type(*$C$DW$T$74)
    5432                      .dwattr $C$DW$655, DW_AT_name("GPACLEAR")
    5433                      .dwattr $C$DW$655, DW_AT_TI_symbol_name("_GPACLEAR")
    5434                      .dwattr $C$DW$655, DW_AT_data_member_location[DW_OP_plus_uconst 0x44]
    5435                      .dwattr $C$DW$655, DW_AT_accessibility(DW_ACCESS_public)
    5436              $C$DW$656       .dwtag  DW_TAG_member
    5437                      .dwattr $C$DW$656, DW_AT_type(*$C$DW$T$74)
    5438                      .dwattr $C$DW$656, DW_AT_name("GPATOGGLE")
    5439                      .dwattr $C$DW$656, DW_AT_TI_symbol_name("_GPATOGGLE")
    5440                      .dwattr $C$DW$656, DW_AT_data_member_location[DW_OP_plus_uconst 0x46]
    5441                      .dwattr $C$DW$656, DW_AT_accessibility(DW_ACCESS_public)
    5442              $C$DW$657       .dwtag  DW_TAG_member
    5443                      .dwattr $C$DW$657, DW_AT_type(*$C$DW$T$74)
    5444                      .dwattr $C$DW$657, DW_AT_name("GPBDAT")
    5445                      .dwattr $C$DW$657, DW_AT_TI_symbol_name("_GPBDAT")
    5446                      .dwattr $C$DW$657, DW_AT_data_member_location[DW_OP_plus_uconst 0x48]
    5447                      .dwattr $C$DW$657, DW_AT_accessibility(DW_ACCESS_public)
    5448              $C$DW$658       .dwtag  DW_TAG_member
    5449                      .dwattr $C$DW$658, DW_AT_type(*$C$DW$T$74)
    5450                      .dwattr $C$DW$658, DW_AT_name("GPBSET")
    5451                      .dwattr $C$DW$658, DW_AT_TI_symbol_name("_GPBSET")
    5452                      .dwattr $C$DW$658, DW_AT_data_member_location[DW_OP_plus_uconst 0x4a]
    5453                      .dwattr $C$DW$658, DW_AT_accessibility(DW_ACCESS_public)
    5454              $C$DW$659       .dwtag  DW_TAG_member
    5455                      .dwattr $C$DW$659, DW_AT_type(*$C$DW$T$74)
    5456                      .dwattr $C$DW$659, DW_AT_name("GPBCLEAR")
    5457                      .dwattr $C$DW$659, DW_AT_TI_symbol_name("_GPBCLEAR")
    5458                      .dwattr $C$DW$659, DW_AT_data_member_location[DW_OP_plus_uconst 0x4c]
    5459                      .dwattr $C$DW$659, DW_AT_accessibility(DW_ACCESS_public)
    5460              $C$DW$660       .dwtag  DW_TAG_member
    5461                      .dwattr $C$DW$660, DW_AT_type(*$C$DW$T$74)
    5462                      .dwattr $C$DW$660, DW_AT_name("GPBTOGGLE")
    5463                      .dwattr $C$DW$660, DW_AT_TI_symbol_name("_GPBTOGGLE")
    5464                      .dwattr $C$DW$660, DW_AT_data_member_location[DW_OP_plus_uconst 0x4e]
    5465                      .dwattr $C$DW$660, DW_AT_accessibility(DW_ACCESS_public)
    5466              $C$DW$661       .dwtag  DW_TAG_member
    5467                      .dwattr $C$DW$661, DW_AT_type(*$C$DW$T$30)
    5468                      .dwattr $C$DW$661, DW_AT_name("rsvd_7")
    5469                      .dwattr $C$DW$661, DW_AT_TI_symbol_name("_rsvd_7")
    5470                      .dwattr $C$DW$661, DW_AT_data_member_location[DW_OP_plus_uconst 0x50]
    5471                      .dwattr $C$DW$661, DW_AT_accessibility(DW_ACCESS_public)
    5472              $C$DW$662       .dwtag  DW_TAG_member
    5473                      .dwattr $C$DW$662, DW_AT_type(*$C$DW$T$74)
    5474                      .dwattr $C$DW$662, DW_AT_name("AIODAT")
    5475                      .dwattr $C$DW$662, DW_AT_TI_symbol_name("_AIODAT")
    5476                      .dwattr $C$DW$662, DW_AT_data_member_location[DW_OP_plus_uconst 0x58]
    5477                      .dwattr $C$DW$662, DW_AT_accessibility(DW_ACCESS_public)
    5478              $C$DW$663       .dwtag  DW_TAG_member
    5479                      .dwattr $C$DW$663, DW_AT_type(*$C$DW$T$74)
    5480                      .dwattr $C$DW$663, DW_AT_name("AIOSET")
    5481                      .dwattr $C$DW$663, DW_AT_TI_symbol_name("_AIOSET")
    5482                      .dwattr $C$DW$663, DW_AT_data_member_location[DW_OP_plus_uconst 0x5a]
    5483                      .dwattr $C$DW$663, DW_AT_accessibility(DW_ACCESS_public)
    5484              $C$DW$664       .dwtag  DW_TAG_member
TMS320C2000 Assembler PC v6.2.5 Wed Nov 22 14:48:16 2017

Tools Copyright (c) 1996-2014 Texas Instruments Incorporated
C:\Users\wmj\AppData\Local\Temp\1257612                              PAGE  105

    5485                      .dwattr $C$DW$664, DW_AT_type(*$C$DW$T$74)
    5486                      .dwattr $C$DW$664, DW_AT_name("AIOCLEAR")
    5487                      .dwattr $C$DW$664, DW_AT_TI_symbol_name("_AIOCLEAR")
    5488                      .dwattr $C$DW$664, DW_AT_data_member_location[DW_OP_plus_uconst 0x5c]
    5489                      .dwattr $C$DW$664, DW_AT_accessibility(DW_ACCESS_public)
    5490              $C$DW$665       .dwtag  DW_TAG_member
    5491                      .dwattr $C$DW$665, DW_AT_type(*$C$DW$T$74)
    5492                      .dwattr $C$DW$665, DW_AT_name("AIOTOGGLE")
    5493                      .dwattr $C$DW$665, DW_AT_TI_symbol_name("_AIOTOGGLE")
    5494                      .dwattr $C$DW$665, DW_AT_data_member_location[DW_OP_plus_uconst 0x5e]
    5495                      .dwattr $C$DW$665, DW_AT_accessibility(DW_ACCESS_public)
    5496              $C$DW$666       .dwtag  DW_TAG_member
    5497                      .dwattr $C$DW$666, DW_AT_type(*$C$DW$T$27)
    5498                      .dwattr $C$DW$666, DW_AT_name("GPIOXINTnSEL")
    5499                      .dwattr $C$DW$666, DW_AT_TI_symbol_name("_GPIOXINTnSEL")
    5500                      .dwattr $C$DW$666, DW_AT_data_member_location[DW_OP_plus_uconst 0x60]
    5501                      .dwattr $C$DW$666, DW_AT_accessibility(DW_ACCESS_public)
    5502              $C$DW$667       .dwtag  DW_TAG_member
    5503                      .dwattr $C$DW$667, DW_AT_type(*$C$DW$T$26)
    5504                      .dwattr $C$DW$667, DW_AT_name("rsvd_8")
    5505                      .dwattr $C$DW$667, DW_AT_TI_symbol_name("_rsvd_8")
    5506                      .dwattr $C$DW$667, DW_AT_data_member_location[DW_OP_plus_uconst 0x63]
    5507                      .dwattr $C$DW$667, DW_AT_accessibility(DW_ACCESS_public)
    5508              $C$DW$668       .dwtag  DW_TAG_member
    5509                      .dwattr $C$DW$668, DW_AT_type(*$C$DW$T$74)
    5510                      .dwattr $C$DW$668, DW_AT_name("GPIOLPMSEL")
    5511                      .dwattr $C$DW$668, DW_AT_TI_symbol_name("_GPIOLPMSEL")
    5512                      .dwattr $C$DW$668, DW_AT_data_member_location[DW_OP_plus_uconst 0x68]
    5513                      .dwattr $C$DW$668, DW_AT_accessibility(DW_ACCESS_public)
    5514                      .dwendtag $C$DW$T$77
    5515              
    5516              $C$DW$T$88      .dwtag  DW_TAG_pointer_type
    5517                      .dwattr $C$DW$T$88, DW_AT_type(*$C$DW$T$77)
    5518                      .dwattr $C$DW$T$88, DW_AT_address_class(0x16)
    5519              $C$DW$T$89      .dwtag  DW_TAG_typedef, DW_AT_name("GPIO_Handle")
    5520                      .dwattr $C$DW$T$89, DW_AT_type(*$C$DW$T$88)
    5521                      .dwattr $C$DW$T$89, DW_AT_language(DW_LANG_C)
    5522              
    5523              $C$DW$T$79      .dwtag  DW_TAG_structure_type
    5524                      .dwattr $C$DW$T$79, DW_AT_name("_HAL_AdcData_t_")
    5525                      .dwattr $C$DW$T$79, DW_AT_byte_size(0x16)
    5526              $C$DW$669       .dwtag  DW_TAG_member
    5527                      .dwattr $C$DW$669, DW_AT_type(*$C$DW$T$78)
    5528                      .dwattr $C$DW$669, DW_AT_name("I")
    5529                      .dwattr $C$DW$669, DW_AT_TI_symbol_name("_I")
    5530                      .dwattr $C$DW$669, DW_AT_data_member_location[DW_OP_plus_uconst 0x0]
    5531                      .dwattr $C$DW$669, DW_AT_accessibility(DW_ACCESS_public)
    5532              $C$DW$670       .dwtag  DW_TAG_member
    5533                      .dwattr $C$DW$670, DW_AT_type(*$C$DW$T$78)
    5534                      .dwattr $C$DW$670, DW_AT_name("V")
    5535                      .dwattr $C$DW$670, DW_AT_TI_symbol_name("_V")
    5536                      .dwattr $C$DW$670, DW_AT_data_member_location[DW_OP_plus_uconst 0x6]
    5537                      .dwattr $C$DW$670, DW_AT_accessibility(DW_ACCESS_public)
    5538              $C$DW$671       .dwtag  DW_TAG_member
    5539                      .dwattr $C$DW$671, DW_AT_type(*$C$DW$T$37)
TMS320C2000 Assembler PC v6.2.5 Wed Nov 22 14:48:16 2017

Tools Copyright (c) 1996-2014 Texas Instruments Incorporated
C:\Users\wmj\AppData\Local\Temp\1257612                              PAGE  106

    5540                      .dwattr $C$DW$671, DW_AT_name("dcBus")
    5541                      .dwattr $C$DW$671, DW_AT_TI_symbol_name("_dcBus")
    5542                      .dwattr $C$DW$671, DW_AT_data_member_location[DW_OP_plus_uconst 0xc]
    5543                      .dwattr $C$DW$671, DW_AT_accessibility(DW_ACCESS_public)
    5544              $C$DW$672       .dwtag  DW_TAG_member
    5545                      .dwattr $C$DW$672, DW_AT_type(*$C$DW$T$37)
    5546                      .dwattr $C$DW$672, DW_AT_name("analogSensor1")
    5547                      .dwattr $C$DW$672, DW_AT_TI_symbol_name("_analogSensor1")
    5548                      .dwattr $C$DW$672, DW_AT_data_member_location[DW_OP_plus_uconst 0xe]
    5549                      .dwattr $C$DW$672, DW_AT_accessibility(DW_ACCESS_public)
    5550              $C$DW$673       .dwtag  DW_TAG_member
    5551                      .dwattr $C$DW$673, DW_AT_type(*$C$DW$T$37)
    5552                      .dwattr $C$DW$673, DW_AT_name("analogSensor2")
    5553                      .dwattr $C$DW$673, DW_AT_TI_symbol_name("_analogSensor2")
    5554                      .dwattr $C$DW$673, DW_AT_data_member_location[DW_OP_plus_uconst 0x10]
    5555                      .dwattr $C$DW$673, DW_AT_accessibility(DW_ACCESS_public)
    5556              $C$DW$674       .dwtag  DW_TAG_member
    5557                      .dwattr $C$DW$674, DW_AT_type(*$C$DW$T$37)
    5558                      .dwattr $C$DW$674, DW_AT_name("igbtNTC")
    5559                      .dwattr $C$DW$674, DW_AT_TI_symbol_name("_igbtNTC")
    5560                      .dwattr $C$DW$674, DW_AT_data_member_location[DW_OP_plus_uconst 0x12]
    5561                      .dwattr $C$DW$674, DW_AT_accessibility(DW_ACCESS_public)
    5562              $C$DW$675       .dwtag  DW_TAG_member
    5563                      .dwattr $C$DW$675, DW_AT_type(*$C$DW$T$37)
    5564                      .dwattr $C$DW$675, DW_AT_name("boardAddr")
    5565                      .dwattr $C$DW$675, DW_AT_TI_symbol_name("_boardAddr")
    5566                      .dwattr $C$DW$675, DW_AT_data_member_location[DW_OP_plus_uconst 0x14]
    5567                      .dwattr $C$DW$675, DW_AT_accessibility(DW_ACCESS_public)
    5568                      .dwendtag $C$DW$T$79
    5569              
    5570              $C$DW$T$115     .dwtag  DW_TAG_typedef, DW_AT_name("HAL_AdcData_t")
    5571                      .dwattr $C$DW$T$115, DW_AT_type(*$C$DW$T$79)
    5572                      .dwattr $C$DW$T$115, DW_AT_language(DW_LANG_C)
    5573              
    5574              $C$DW$T$118     .dwtag  DW_TAG_structure_type
    5575                      .dwattr $C$DW$T$118, DW_AT_name("_HAL_Obj_")
    5576                      .dwattr $C$DW$T$118, DW_AT_byte_size(0xb4)
    5577              $C$DW$676       .dwtag  DW_TAG_member
    5578                      .dwattr $C$DW$676, DW_AT_type(*$C$DW$T$81)
    5579                      .dwattr $C$DW$676, DW_AT_name("adcHandle")
    5580                      .dwattr $C$DW$676, DW_AT_TI_symbol_name("_adcHandle")
    5581                      .dwattr $C$DW$676, DW_AT_data_member_location[DW_OP_plus_uconst 0x0]
    5582                      .dwattr $C$DW$676, DW_AT_accessibility(DW_ACCESS_public)
    5583              $C$DW$677       .dwtag  DW_TAG_member
    5584                      .dwattr $C$DW$677, DW_AT_type(*$C$DW$T$83)
    5585                      .dwattr $C$DW$677, DW_AT_name("clkHandle")
    5586                      .dwattr $C$DW$677, DW_AT_TI_symbol_name("_clkHandle")
    5587                      .dwattr $C$DW$677, DW_AT_data_member_location[DW_OP_plus_uconst 0x2]
    5588                      .dwattr $C$DW$677, DW_AT_accessibility(DW_ACCESS_public)
    5589              $C$DW$678       .dwtag  DW_TAG_member
    5590                      .dwattr $C$DW$678, DW_AT_type(*$C$DW$T$85)
    5591                      .dwattr $C$DW$678, DW_AT_name("cpuHandle")
    5592                      .dwattr $C$DW$678, DW_AT_TI_symbol_name("_cpuHandle")
    5593                      .dwattr $C$DW$678, DW_AT_data_member_location[DW_OP_plus_uconst 0x4]
    5594                      .dwattr $C$DW$678, DW_AT_accessibility(DW_ACCESS_public)
TMS320C2000 Assembler PC v6.2.5 Wed Nov 22 14:48:16 2017

Tools Copyright (c) 1996-2014 Texas Instruments Incorporated
C:\Users\wmj\AppData\Local\Temp\1257612                              PAGE  107

    5595              $C$DW$679       .dwtag  DW_TAG_member
    5596                      .dwattr $C$DW$679, DW_AT_type(*$C$DW$T$87)
    5597                      .dwattr $C$DW$679, DW_AT_name("flashHandle")
    5598                      .dwattr $C$DW$679, DW_AT_TI_symbol_name("_flashHandle")
    5599                      .dwattr $C$DW$679, DW_AT_data_member_location[DW_OP_plus_uconst 0x6]
    5600                      .dwattr $C$DW$679, DW_AT_accessibility(DW_ACCESS_public)
    5601              $C$DW$680       .dwtag  DW_TAG_member
    5602                      .dwattr $C$DW$680, DW_AT_type(*$C$DW$T$89)
    5603                      .dwattr $C$DW$680, DW_AT_name("gpioHandle")
    5604                      .dwattr $C$DW$680, DW_AT_TI_symbol_name("_gpioHandle")
    5605                      .dwattr $C$DW$680, DW_AT_data_member_location[DW_OP_plus_uconst 0x8]
    5606                      .dwattr $C$DW$680, DW_AT_accessibility(DW_ACCESS_public)
    5607              $C$DW$681       .dwtag  DW_TAG_member
    5608                      .dwattr $C$DW$681, DW_AT_type(*$C$DW$T$92)
    5609                      .dwattr $C$DW$681, DW_AT_name("offsetHandle_I")
    5610                      .dwattr $C$DW$681, DW_AT_TI_symbol_name("_offsetHandle_I")
    5611                      .dwattr $C$DW$681, DW_AT_data_member_location[DW_OP_plus_uconst 0xa]
    5612                      .dwattr $C$DW$681, DW_AT_accessibility(DW_ACCESS_public)
    5613              $C$DW$682       .dwtag  DW_TAG_member
    5614                      .dwattr $C$DW$682, DW_AT_type(*$C$DW$T$94)
    5615                      .dwattr $C$DW$682, DW_AT_name("offset_I")
    5616                      .dwattr $C$DW$682, DW_AT_TI_symbol_name("_offset_I")
    5617                      .dwattr $C$DW$682, DW_AT_data_member_location[DW_OP_plus_uconst 0x10]
    5618                      .dwattr $C$DW$682, DW_AT_accessibility(DW_ACCESS_public)
    5619              $C$DW$683       .dwtag  DW_TAG_member
    5620                      .dwattr $C$DW$683, DW_AT_type(*$C$DW$T$92)
    5621                      .dwattr $C$DW$683, DW_AT_name("offsetHandle_V")
    5622                      .dwattr $C$DW$683, DW_AT_TI_symbol_name("_offsetHandle_V")
    5623                      .dwattr $C$DW$683, DW_AT_data_member_location[DW_OP_plus_uconst 0x40]
    5624                      .dwattr $C$DW$683, DW_AT_accessibility(DW_ACCESS_public)
    5625              $C$DW$684       .dwtag  DW_TAG_member
    5626                      .dwattr $C$DW$684, DW_AT_type(*$C$DW$T$94)
    5627                      .dwattr $C$DW$684, DW_AT_name("offset_V")
    5628                      .dwattr $C$DW$684, DW_AT_TI_symbol_name("_offset_V")
    5629                      .dwattr $C$DW$684, DW_AT_data_member_location[DW_OP_plus_uconst 0x46]
    5630                      .dwattr $C$DW$684, DW_AT_accessibility(DW_ACCESS_public)
    5631              $C$DW$685       .dwtag  DW_TAG_member
    5632                      .dwattr $C$DW$685, DW_AT_type(*$C$DW$T$96)
    5633                      .dwattr $C$DW$685, DW_AT_name("oscHandle")
    5634                      .dwattr $C$DW$685, DW_AT_TI_symbol_name("_oscHandle")
    5635                      .dwattr $C$DW$685, DW_AT_data_member_location[DW_OP_plus_uconst 0x76]
    5636                      .dwattr $C$DW$685, DW_AT_accessibility(DW_ACCESS_public)
    5637              $C$DW$686       .dwtag  DW_TAG_member
    5638                      .dwattr $C$DW$686, DW_AT_type(*$C$DW$T$98)
    5639                      .dwattr $C$DW$686, DW_AT_name("pieHandle")
    5640                      .dwattr $C$DW$686, DW_AT_TI_symbol_name("_pieHandle")
    5641                      .dwattr $C$DW$686, DW_AT_data_member_location[DW_OP_plus_uconst 0x78]
    5642                      .dwattr $C$DW$686, DW_AT_accessibility(DW_ACCESS_public)
    5643              $C$DW$687       .dwtag  DW_TAG_member
    5644                      .dwattr $C$DW$687, DW_AT_type(*$C$DW$T$100)
    5645                      .dwattr $C$DW$687, DW_AT_name("pllHandle")
    5646                      .dwattr $C$DW$687, DW_AT_TI_symbol_name("_pllHandle")
    5647                      .dwattr $C$DW$687, DW_AT_data_member_location[DW_OP_plus_uconst 0x7a]
    5648                      .dwattr $C$DW$687, DW_AT_accessibility(DW_ACCESS_public)
    5649              $C$DW$688       .dwtag  DW_TAG_member
TMS320C2000 Assembler PC v6.2.5 Wed Nov 22 14:48:16 2017

Tools Copyright (c) 1996-2014 Texas Instruments Incorporated
C:\Users\wmj\AppData\Local\Temp\1257612                              PAGE  108

    5650                      .dwattr $C$DW$688, DW_AT_type(*$C$DW$T$103)
    5651                      .dwattr $C$DW$688, DW_AT_name("pwmHandle")
    5652                      .dwattr $C$DW$688, DW_AT_TI_symbol_name("_pwmHandle")
    5653                      .dwattr $C$DW$688, DW_AT_data_member_location[DW_OP_plus_uconst 0x7c]
    5654                      .dwattr $C$DW$688, DW_AT_accessibility(DW_ACCESS_public)
    5655              $C$DW$689       .dwtag  DW_TAG_member
    5656                      .dwattr $C$DW$689, DW_AT_type(*$C$DW$T$103)
    5657                      .dwattr $C$DW$689, DW_AT_name("pwmDacHandle")
    5658                      .dwattr $C$DW$689, DW_AT_TI_symbol_name("_pwmDacHandle")
    5659                      .dwattr $C$DW$689, DW_AT_data_member_location[DW_OP_plus_uconst 0x82]
    5660                      .dwattr $C$DW$689, DW_AT_accessibility(DW_ACCESS_public)
    5661              $C$DW$690       .dwtag  DW_TAG_member
    5662                      .dwattr $C$DW$690, DW_AT_type(*$C$DW$T$105)
    5663                      .dwattr $C$DW$690, DW_AT_name("pwrHandle")
    5664                      .dwattr $C$DW$690, DW_AT_TI_symbol_name("_pwrHandle")
    5665                      .dwattr $C$DW$690, DW_AT_data_member_location[DW_OP_plus_uconst 0x88]
    5666                      .dwattr $C$DW$690, DW_AT_accessibility(DW_ACCESS_public)
    5667              $C$DW$691       .dwtag  DW_TAG_member
    5668                      .dwattr $C$DW$691, DW_AT_type(*$C$DW$T$108)
    5669                      .dwattr $C$DW$691, DW_AT_name("timerHandle")
    5670                      .dwattr $C$DW$691, DW_AT_TI_symbol_name("_timerHandle")
    5671                      .dwattr $C$DW$691, DW_AT_data_member_location[DW_OP_plus_uconst 0x8a]
    5672                      .dwattr $C$DW$691, DW_AT_accessibility(DW_ACCESS_public)
    5673              $C$DW$692       .dwtag  DW_TAG_member
    5674                      .dwattr $C$DW$692, DW_AT_type(*$C$DW$T$110)
    5675                      .dwattr $C$DW$692, DW_AT_name("spiAHandle")
    5676                      .dwattr $C$DW$692, DW_AT_TI_symbol_name("_spiAHandle")
    5677                      .dwattr $C$DW$692, DW_AT_data_member_location[DW_OP_plus_uconst 0x90]
    5678                      .dwattr $C$DW$692, DW_AT_accessibility(DW_ACCESS_public)
    5679              $C$DW$693       .dwtag  DW_TAG_member
    5680                      .dwattr $C$DW$693, DW_AT_type(*$C$DW$T$112)
    5681                      .dwattr $C$DW$693, DW_AT_name("wdogHandle")
    5682                      .dwattr $C$DW$693, DW_AT_TI_symbol_name("_wdogHandle")
    5683                      .dwattr $C$DW$693, DW_AT_data_member_location[DW_OP_plus_uconst 0x92]
    5684                      .dwattr $C$DW$693, DW_AT_accessibility(DW_ACCESS_public)
    5685              $C$DW$694       .dwtag  DW_TAG_member
    5686                      .dwattr $C$DW$694, DW_AT_type(*$C$DW$T$114)
    5687                      .dwattr $C$DW$694, DW_AT_name("sciHandle")
    5688                      .dwattr $C$DW$694, DW_AT_TI_symbol_name("_sciHandle")
    5689                      .dwattr $C$DW$694, DW_AT_data_member_location[DW_OP_plus_uconst 0x94]
    5690                      .dwattr $C$DW$694, DW_AT_accessibility(DW_ACCESS_public)
    5691              $C$DW$695       .dwtag  DW_TAG_member
    5692                      .dwattr $C$DW$695, DW_AT_type(*$C$DW$T$115)
    5693                      .dwattr $C$DW$695, DW_AT_name("adcBias")
    5694                      .dwattr $C$DW$695, DW_AT_TI_symbol_name("_adcBias")
    5695                      .dwattr $C$DW$695, DW_AT_data_member_location[DW_OP_plus_uconst 0x96]
    5696                      .dwattr $C$DW$695, DW_AT_accessibility(DW_ACCESS_public)
    5697              $C$DW$696       .dwtag  DW_TAG_member
    5698                      .dwattr $C$DW$696, DW_AT_type(*$C$DW$T$37)
    5699                      .dwattr $C$DW$696, DW_AT_name("current_sf")
    5700                      .dwattr $C$DW$696, DW_AT_TI_symbol_name("_current_sf")
    5701                      .dwattr $C$DW$696, DW_AT_data_member_location[DW_OP_plus_uconst 0xac]
    5702                      .dwattr $C$DW$696, DW_AT_accessibility(DW_ACCESS_public)
    5703              $C$DW$697       .dwtag  DW_TAG_member
    5704                      .dwattr $C$DW$697, DW_AT_type(*$C$DW$T$37)
TMS320C2000 Assembler PC v6.2.5 Wed Nov 22 14:48:16 2017

Tools Copyright (c) 1996-2014 Texas Instruments Incorporated
C:\Users\wmj\AppData\Local\Temp\1257612                              PAGE  109

    5705                      .dwattr $C$DW$697, DW_AT_name("voltage_sf")
    5706                      .dwattr $C$DW$697, DW_AT_TI_symbol_name("_voltage_sf")
    5707                      .dwattr $C$DW$697, DW_AT_data_member_location[DW_OP_plus_uconst 0xae]
    5708                      .dwattr $C$DW$697, DW_AT_accessibility(DW_ACCESS_public)
    5709              $C$DW$698       .dwtag  DW_TAG_member
    5710                      .dwattr $C$DW$698, DW_AT_type(*$C$DW$T$32)
    5711                      .dwattr $C$DW$698, DW_AT_name("numCurrentSensors")
    5712                      .dwattr $C$DW$698, DW_AT_TI_symbol_name("_numCurrentSensors")
    5713                      .dwattr $C$DW$698, DW_AT_data_member_location[DW_OP_plus_uconst 0xb0]
    5714                      .dwattr $C$DW$698, DW_AT_accessibility(DW_ACCESS_public)
    5715              $C$DW$699       .dwtag  DW_TAG_member
    5716                      .dwattr $C$DW$699, DW_AT_type(*$C$DW$T$32)
    5717                      .dwattr $C$DW$699, DW_AT_name("numVoltageSensors")
    5718                      .dwattr $C$DW$699, DW_AT_TI_symbol_name("_numVoltageSensors")
    5719                      .dwattr $C$DW$699, DW_AT_data_member_location[DW_OP_plus_uconst 0xb1]
    5720                      .dwattr $C$DW$699, DW_AT_accessibility(DW_ACCESS_public)
    5721              $C$DW$700       .dwtag  DW_TAG_member
    5722                      .dwattr $C$DW$700, DW_AT_type(*$C$DW$T$117)
    5723                      .dwattr $C$DW$700, DW_AT_name("boardAddress")
    5724                      .dwattr $C$DW$700, DW_AT_TI_symbol_name("_boardAddress")
    5725                      .dwattr $C$DW$700, DW_AT_data_member_location[DW_OP_plus_uconst 0xb2]
    5726                      .dwattr $C$DW$700, DW_AT_accessibility(DW_ACCESS_public)
    5727                      .dwendtag $C$DW$T$118
    5728              
    5729              $C$DW$T$203     .dwtag  DW_TAG_typedef, DW_AT_name("HAL_Obj")
    5730                      .dwattr $C$DW$T$203, DW_AT_type(*$C$DW$T$118)
    5731                      .dwattr $C$DW$T$203, DW_AT_language(DW_LANG_C)
    5732              $C$DW$T$42      .dwtag  DW_TAG_pointer_type
    5733                      .dwattr $C$DW$T$42, DW_AT_type(*$C$DW$T$118)
    5734                      .dwattr $C$DW$T$42, DW_AT_address_class(0x16)
    5735              $C$DW$T$43      .dwtag  DW_TAG_typedef, DW_AT_name("HAL_Handle")
    5736                      .dwattr $C$DW$T$43, DW_AT_type(*$C$DW$T$42)
    5737                      .dwattr $C$DW$T$43, DW_AT_language(DW_LANG_C)
    5738              $C$DW$701       .dwtag  DW_TAG_TI_far_type
    5739                      .dwattr $C$DW$701, DW_AT_type(*$C$DW$T$43)
    5740              $C$DW$T$204     .dwtag  DW_TAG_const_type
    5741                      .dwattr $C$DW$T$204, DW_AT_type(*$C$DW$701)
    5742              
    5743              $C$DW$T$120     .dwtag  DW_TAG_structure_type
    5744                      .dwattr $C$DW$T$120, DW_AT_name("_MATH_vec3_")
    5745                      .dwattr $C$DW$T$120, DW_AT_byte_size(0x06)
    5746              $C$DW$702       .dwtag  DW_TAG_member
    5747                      .dwattr $C$DW$702, DW_AT_type(*$C$DW$T$119)
    5748                      .dwattr $C$DW$702, DW_AT_name("value")
    5749                      .dwattr $C$DW$702, DW_AT_TI_symbol_name("_value")
    5750                      .dwattr $C$DW$702, DW_AT_data_member_location[DW_OP_plus_uconst 0x0]
    5751                      .dwattr $C$DW$702, DW_AT_accessibility(DW_ACCESS_public)
    5752                      .dwendtag $C$DW$T$120
    5753              
    5754              $C$DW$T$78      .dwtag  DW_TAG_typedef, DW_AT_name("MATH_vec3")
    5755                      .dwattr $C$DW$T$78, DW_AT_type(*$C$DW$T$120)
    5756                      .dwattr $C$DW$T$78, DW_AT_language(DW_LANG_C)
    5757              
    5758              $C$DW$T$130     .dwtag  DW_TAG_structure_type
    5759                      .dwattr $C$DW$T$130, DW_AT_name("_MOTOR_Obj_")
TMS320C2000 Assembler PC v6.2.5 Wed Nov 22 14:48:16 2017

Tools Copyright (c) 1996-2014 Texas Instruments Incorporated
C:\Users\wmj\AppData\Local\Temp\1257612                              PAGE  110

    5760                      .dwattr $C$DW$T$130, DW_AT_byte_size(0x70)
    5761              $C$DW$703       .dwtag  DW_TAG_member
    5762                      .dwattr $C$DW$703, DW_AT_type(*$C$DW$T$59)
    5763                      .dwattr $C$DW$703, DW_AT_name("Flag_enableSys")
    5764                      .dwattr $C$DW$703, DW_AT_TI_symbol_name("_Flag_enableSys")
    5765                      .dwattr $C$DW$703, DW_AT_data_member_location[DW_OP_plus_uconst 0x0]
    5766                      .dwattr $C$DW$703, DW_AT_accessibility(DW_ACCESS_public)
    5767              $C$DW$704       .dwtag  DW_TAG_member
    5768                      .dwattr $C$DW$704, DW_AT_type(*$C$DW$T$59)
    5769                      .dwattr $C$DW$704, DW_AT_name("Flag_Run_Identify")
    5770                      .dwattr $C$DW$704, DW_AT_TI_symbol_name("_Flag_Run_Identify")
    5771                      .dwattr $C$DW$704, DW_AT_data_member_location[DW_OP_plus_uconst 0x1]
    5772                      .dwattr $C$DW$704, DW_AT_accessibility(DW_ACCESS_public)
    5773              $C$DW$705       .dwtag  DW_TAG_member
    5774                      .dwattr $C$DW$705, DW_AT_type(*$C$DW$T$59)
    5775                      .dwattr $C$DW$705, DW_AT_name("Flag_MotorIdentified")
    5776                      .dwattr $C$DW$705, DW_AT_TI_symbol_name("_Flag_MotorIdentified")
    5777                      .dwattr $C$DW$705, DW_AT_data_member_location[DW_OP_plus_uconst 0x2]
    5778                      .dwattr $C$DW$705, DW_AT_accessibility(DW_ACCESS_public)
    5779              $C$DW$706       .dwtag  DW_TAG_member
    5780                      .dwattr $C$DW$706, DW_AT_type(*$C$DW$T$59)
    5781                      .dwattr $C$DW$706, DW_AT_name("Flag_enableForceAngle")
    5782                      .dwattr $C$DW$706, DW_AT_TI_symbol_name("_Flag_enableForceAngle")
    5783                      .dwattr $C$DW$706, DW_AT_data_member_location[DW_OP_plus_uconst 0x3]
    5784                      .dwattr $C$DW$706, DW_AT_accessibility(DW_ACCESS_public)
    5785              $C$DW$707       .dwtag  DW_TAG_member
    5786                      .dwattr $C$DW$707, DW_AT_type(*$C$DW$T$59)
    5787                      .dwattr $C$DW$707, DW_AT_name("Flag_ZeroPiont_Identify")
    5788                      .dwattr $C$DW$707, DW_AT_TI_symbol_name("_Flag_ZeroPiont_Identify")
    5789                      .dwattr $C$DW$707, DW_AT_data_member_location[DW_OP_plus_uconst 0x4]
    5790                      .dwattr $C$DW$707, DW_AT_accessibility(DW_ACCESS_public)
    5791              $C$DW$708       .dwtag  DW_TAG_member
    5792                      .dwattr $C$DW$708, DW_AT_type(*$C$DW$T$59)
    5793                      .dwattr $C$DW$708, DW_AT_name("Flag_enableRsRecalc")
    5794                      .dwattr $C$DW$708, DW_AT_TI_symbol_name("_Flag_enableRsRecalc")
    5795                      .dwattr $C$DW$708, DW_AT_data_member_location[DW_OP_plus_uconst 0x5]
    5796                      .dwattr $C$DW$708, DW_AT_accessibility(DW_ACCESS_public)
    5797              $C$DW$709       .dwtag  DW_TAG_member
    5798                      .dwattr $C$DW$709, DW_AT_type(*$C$DW$T$59)
    5799                      .dwattr $C$DW$709, DW_AT_name("Flag_enableUserParams")
    5800                      .dwattr $C$DW$709, DW_AT_TI_symbol_name("_Flag_enableUserParams")
    5801                      .dwattr $C$DW$709, DW_AT_data_member_location[DW_OP_plus_uconst 0x6]
    5802                      .dwattr $C$DW$709, DW_AT_accessibility(DW_ACCESS_public)
    5803              $C$DW$710       .dwtag  DW_TAG_member
    5804                      .dwattr $C$DW$710, DW_AT_type(*$C$DW$T$59)
    5805                      .dwattr $C$DW$710, DW_AT_name("Flag_enableOffsetcalc")
    5806                      .dwattr $C$DW$710, DW_AT_TI_symbol_name("_Flag_enableOffsetcalc")
    5807                      .dwattr $C$DW$710, DW_AT_data_member_location[DW_OP_plus_uconst 0x7]
    5808                      .dwattr $C$DW$710, DW_AT_accessibility(DW_ACCESS_public)
    5809              $C$DW$711       .dwtag  DW_TAG_member
    5810                      .dwattr $C$DW$711, DW_AT_type(*$C$DW$T$59)
    5811                      .dwattr $C$DW$711, DW_AT_name("Flag_enablePowerWarp")
    5812                      .dwattr $C$DW$711, DW_AT_TI_symbol_name("_Flag_enablePowerWarp")
    5813                      .dwattr $C$DW$711, DW_AT_data_member_location[DW_OP_plus_uconst 0x8]
    5814                      .dwattr $C$DW$711, DW_AT_accessibility(DW_ACCESS_public)
TMS320C2000 Assembler PC v6.2.5 Wed Nov 22 14:48:16 2017

Tools Copyright (c) 1996-2014 Texas Instruments Incorporated
C:\Users\wmj\AppData\Local\Temp\1257612                              PAGE  111

    5815              $C$DW$712       .dwtag  DW_TAG_member
    5816                      .dwattr $C$DW$712, DW_AT_type(*$C$DW$T$59)
    5817                      .dwattr $C$DW$712, DW_AT_name("Flag_enableSpeedCtrl")
    5818                      .dwattr $C$DW$712, DW_AT_TI_symbol_name("_Flag_enableSpeedCtrl")
    5819                      .dwattr $C$DW$712, DW_AT_data_member_location[DW_OP_plus_uconst 0x9]
    5820                      .dwattr $C$DW$712, DW_AT_accessibility(DW_ACCESS_public)
    5821              $C$DW$713       .dwtag  DW_TAG_member
    5822                      .dwattr $C$DW$713, DW_AT_type(*$C$DW$T$59)
    5823                      .dwattr $C$DW$713, DW_AT_name("Flag_enableRun")
    5824                      .dwattr $C$DW$713, DW_AT_TI_symbol_name("_Flag_enableRun")
    5825                      .dwattr $C$DW$713, DW_AT_data_member_location[DW_OP_plus_uconst 0xa]
    5826                      .dwattr $C$DW$713, DW_AT_accessibility(DW_ACCESS_public)
    5827              $C$DW$714       .dwtag  DW_TAG_member
    5828                      .dwattr $C$DW$714, DW_AT_type(*$C$DW$T$59)
    5829                      .dwattr $C$DW$714, DW_AT_name("Flag_RunState")
    5830                      .dwattr $C$DW$714, DW_AT_TI_symbol_name("_Flag_RunState")
    5831                      .dwattr $C$DW$714, DW_AT_data_member_location[DW_OP_plus_uconst 0xb]
    5832                      .dwattr $C$DW$714, DW_AT_accessibility(DW_ACCESS_public)
    5833              $C$DW$715       .dwtag  DW_TAG_member
    5834                      .dwattr $C$DW$715, DW_AT_type(*$C$DW$T$59)
    5835                      .dwattr $C$DW$715, DW_AT_name("Flag_enableFlyingStart")
    5836                      .dwattr $C$DW$715, DW_AT_TI_symbol_name("_Flag_enableFlyingStart")
    5837                      .dwattr $C$DW$715, DW_AT_data_member_location[DW_OP_plus_uconst 0xc]
    5838                      .dwattr $C$DW$715, DW_AT_accessibility(DW_ACCESS_public)
    5839              $C$DW$716       .dwtag  DW_TAG_member
    5840                      .dwattr $C$DW$716, DW_AT_type(*$C$DW$T$59)
    5841                      .dwattr $C$DW$716, DW_AT_name("Flag_ContactSensor")
    5842                      .dwattr $C$DW$716, DW_AT_TI_symbol_name("_Flag_ContactSensor")
    5843                      .dwattr $C$DW$716, DW_AT_data_member_location[DW_OP_plus_uconst 0xd]
    5844                      .dwattr $C$DW$716, DW_AT_accessibility(DW_ACCESS_public)
    5845              $C$DW$717       .dwtag  DW_TAG_member
    5846                      .dwattr $C$DW$717, DW_AT_type(*$C$DW$T$59)
    5847                      .dwattr $C$DW$717, DW_AT_name("RunPositionProfile")
    5848                      .dwattr $C$DW$717, DW_AT_TI_symbol_name("_RunPositionProfile")
    5849                      .dwattr $C$DW$717, DW_AT_data_member_location[DW_OP_plus_uconst 0xe]
    5850                      .dwattr $C$DW$717, DW_AT_accessibility(DW_ACCESS_public)
    5851              $C$DW$718       .dwtag  DW_TAG_member
    5852                      .dwattr $C$DW$718, DW_AT_type(*$C$DW$T$59)
    5853                      .dwattr $C$DW$718, DW_AT_name("getSensor")
    5854                      .dwattr $C$DW$718, DW_AT_TI_symbol_name("_getSensor")
    5855                      .dwattr $C$DW$718, DW_AT_data_member_location[DW_OP_plus_uconst 0xf]
    5856                      .dwattr $C$DW$718, DW_AT_accessibility(DW_ACCESS_public)
    5857              $C$DW$719       .dwtag  DW_TAG_member
    5858                      .dwattr $C$DW$719, DW_AT_type(*$C$DW$T$59)
    5859                      .dwattr $C$DW$719, DW_AT_name("Flag_UseSpinTAC")
    5860                      .dwattr $C$DW$719, DW_AT_TI_symbol_name("_Flag_UseSpinTAC")
    5861                      .dwattr $C$DW$719, DW_AT_data_member_location[DW_OP_plus_uconst 0x10]
    5862                      .dwattr $C$DW$719, DW_AT_accessibility(DW_ACCESS_public)
    5863              $C$DW$720       .dwtag  DW_TAG_member
    5864                      .dwattr $C$DW$720, DW_AT_type(*$C$DW$T$59)
    5865                      .dwattr $C$DW$720, DW_AT_name("Flag_MotorParamsEst")
    5866                      .dwattr $C$DW$720, DW_AT_TI_symbol_name("_Flag_MotorParamsEst")
    5867                      .dwattr $C$DW$720, DW_AT_data_member_location[DW_OP_plus_uconst 0x11]
    5868                      .dwattr $C$DW$720, DW_AT_accessibility(DW_ACCESS_public)
    5869              $C$DW$721       .dwtag  DW_TAG_member
TMS320C2000 Assembler PC v6.2.5 Wed Nov 22 14:48:16 2017

Tools Copyright (c) 1996-2014 Texas Instruments Incorporated
C:\Users\wmj\AppData\Local\Temp\1257612                              PAGE  112

    5870                      .dwattr $C$DW$721, DW_AT_type(*$C$DW$T$122)
    5871                      .dwattr $C$DW$721, DW_AT_name("CtrlState")
    5872                      .dwattr $C$DW$721, DW_AT_TI_symbol_name("_CtrlState")
    5873                      .dwattr $C$DW$721, DW_AT_data_member_location[DW_OP_plus_uconst 0x12]
    5874                      .dwattr $C$DW$721, DW_AT_accessibility(DW_ACCESS_public)
    5875              $C$DW$722       .dwtag  DW_TAG_member
    5876                      .dwattr $C$DW$722, DW_AT_type(*$C$DW$T$124)
    5877                      .dwattr $C$DW$722, DW_AT_name("EstState")
    5878                      .dwattr $C$DW$722, DW_AT_TI_symbol_name("_EstState")
    5879                      .dwattr $C$DW$722, DW_AT_data_member_location[DW_OP_plus_uconst 0x13]
    5880                      .dwattr $C$DW$722, DW_AT_accessibility(DW_ACCESS_public)
    5881              $C$DW$723       .dwtag  DW_TAG_member
    5882                      .dwattr $C$DW$723, DW_AT_type(*$C$DW$T$126)
    5883                      .dwattr $C$DW$723, DW_AT_name("UserErrorCode")
    5884                      .dwattr $C$DW$723, DW_AT_TI_symbol_name("_UserErrorCode")
    5885                      .dwattr $C$DW$723, DW_AT_data_member_location[DW_OP_plus_uconst 0x14]
    5886                      .dwattr $C$DW$723, DW_AT_accessibility(DW_ACCESS_public)
    5887              $C$DW$724       .dwtag  DW_TAG_member
    5888                      .dwattr $C$DW$724, DW_AT_type(*$C$DW$T$127)
    5889                      .dwattr $C$DW$724, DW_AT_name("CtrlVersion")
    5890                      .dwattr $C$DW$724, DW_AT_TI_symbol_name("_CtrlVersion")
    5891                      .dwattr $C$DW$724, DW_AT_data_member_location[DW_OP_plus_uconst 0x15]
    5892                      .dwattr $C$DW$724, DW_AT_accessibility(DW_ACCESS_public)
    5893              $C$DW$725       .dwtag  DW_TAG_member
    5894                      .dwattr $C$DW$725, DW_AT_type(*$C$DW$T$37)
    5895                      .dwattr $C$DW$725, DW_AT_name("SpeedRef_krpm")
    5896                      .dwattr $C$DW$725, DW_AT_TI_symbol_name("_SpeedRef_krpm")
    5897                      .dwattr $C$DW$725, DW_AT_data_member_location[DW_OP_plus_uconst 0x1a]
    5898                      .dwattr $C$DW$725, DW_AT_accessibility(DW_ACCESS_public)
    5899              $C$DW$726       .dwtag  DW_TAG_member
    5900                      .dwattr $C$DW$726, DW_AT_type(*$C$DW$T$37)
    5901                      .dwattr $C$DW$726, DW_AT_name("MaxAccel_krpmps")
    5902                      .dwattr $C$DW$726, DW_AT_TI_symbol_name("_MaxAccel_krpmps")
    5903                      .dwattr $C$DW$726, DW_AT_data_member_location[DW_OP_plus_uconst 0x1c]
    5904                      .dwattr $C$DW$726, DW_AT_accessibility(DW_ACCESS_public)
    5905              $C$DW$727       .dwtag  DW_TAG_member
    5906                      .dwattr $C$DW$727, DW_AT_type(*$C$DW$T$37)
    5907                      .dwattr $C$DW$727, DW_AT_name("MaxDecel_krpmps")
    5908                      .dwattr $C$DW$727, DW_AT_TI_symbol_name("_MaxDecel_krpmps")
    5909                      .dwattr $C$DW$727, DW_AT_data_member_location[DW_OP_plus_uconst 0x1e]
    5910                      .dwattr $C$DW$727, DW_AT_accessibility(DW_ACCESS_public)
    5911              $C$DW$728       .dwtag  DW_TAG_member
    5912                      .dwattr $C$DW$728, DW_AT_type(*$C$DW$T$128)
    5913                      .dwattr $C$DW$728, DW_AT_name("MaxJrk_krpmps2")
    5914                      .dwattr $C$DW$728, DW_AT_TI_symbol_name("_MaxJrk_krpmps2")
    5915                      .dwattr $C$DW$728, DW_AT_data_member_location[DW_OP_plus_uconst 0x20]
    5916                      .dwattr $C$DW$728, DW_AT_accessibility(DW_ACCESS_public)
    5917              $C$DW$729       .dwtag  DW_TAG_member
    5918                      .dwattr $C$DW$729, DW_AT_type(*$C$DW$T$37)
    5919                      .dwattr $C$DW$729, DW_AT_name("MaxCurrentRatio_pu")
    5920                      .dwattr $C$DW$729, DW_AT_TI_symbol_name("_MaxCurrentRatio_pu")
    5921                      .dwattr $C$DW$729, DW_AT_data_member_location[DW_OP_plus_uconst 0x22]
    5922                      .dwattr $C$DW$729, DW_AT_accessibility(DW_ACCESS_public)
    5923              $C$DW$730       .dwtag  DW_TAG_member
    5924                      .dwattr $C$DW$730, DW_AT_type(*$C$DW$T$37)
TMS320C2000 Assembler PC v6.2.5 Wed Nov 22 14:48:16 2017

Tools Copyright (c) 1996-2014 Texas Instruments Incorporated
C:\Users\wmj\AppData\Local\Temp\1257612                              PAGE  113

    5925                      .dwattr $C$DW$730, DW_AT_name("Speed_krpm")
    5926                      .dwattr $C$DW$730, DW_AT_TI_symbol_name("_Speed_krpm")
    5927                      .dwattr $C$DW$730, DW_AT_data_member_location[DW_OP_plus_uconst 0x24]
    5928                      .dwattr $C$DW$730, DW_AT_accessibility(DW_ACCESS_public)
    5929              $C$DW$731       .dwtag  DW_TAG_member
    5930                      .dwattr $C$DW$731, DW_AT_type(*$C$DW$T$37)
    5931                      .dwattr $C$DW$731, DW_AT_name("Flux_Wb")
    5932                      .dwattr $C$DW$731, DW_AT_TI_symbol_name("_Flux_Wb")
    5933                      .dwattr $C$DW$731, DW_AT_data_member_location[DW_OP_plus_uconst 0x26]
    5934                      .dwattr $C$DW$731, DW_AT_accessibility(DW_ACCESS_public)
    5935              $C$DW$732       .dwtag  DW_TAG_member
    5936                      .dwattr $C$DW$732, DW_AT_type(*$C$DW$T$37)
    5937                      .dwattr $C$DW$732, DW_AT_name("Torque_Nm")
    5938                      .dwattr $C$DW$732, DW_AT_TI_symbol_name("_Torque_Nm")
    5939                      .dwattr $C$DW$732, DW_AT_data_member_location[DW_OP_plus_uconst 0x28]
    5940                      .dwattr $C$DW$732, DW_AT_accessibility(DW_ACCESS_public)
    5941              $C$DW$733       .dwtag  DW_TAG_member
    5942                      .dwattr $C$DW$733, DW_AT_type(*$C$DW$T$129)
    5943                      .dwattr $C$DW$733, DW_AT_name("Rr_Ohm")
    5944                      .dwattr $C$DW$733, DW_AT_TI_symbol_name("_Rr_Ohm")
    5945                      .dwattr $C$DW$733, DW_AT_data_member_location[DW_OP_plus_uconst 0x2a]
    5946                      .dwattr $C$DW$733, DW_AT_accessibility(DW_ACCESS_public)
    5947              $C$DW$734       .dwtag  DW_TAG_member
    5948                      .dwattr $C$DW$734, DW_AT_type(*$C$DW$T$129)
    5949                      .dwattr $C$DW$734, DW_AT_name("Rs_Ohm")
    5950                      .dwattr $C$DW$734, DW_AT_TI_symbol_name("_Rs_Ohm")
    5951                      .dwattr $C$DW$734, DW_AT_data_member_location[DW_OP_plus_uconst 0x2c]
    5952                      .dwattr $C$DW$734, DW_AT_accessibility(DW_ACCESS_public)
    5953              $C$DW$735       .dwtag  DW_TAG_member
    5954                      .dwattr $C$DW$735, DW_AT_type(*$C$DW$T$129)
    5955                      .dwattr $C$DW$735, DW_AT_name("Lsd_H")
    5956                      .dwattr $C$DW$735, DW_AT_TI_symbol_name("_Lsd_H")
    5957                      .dwattr $C$DW$735, DW_AT_data_member_location[DW_OP_plus_uconst 0x2e]
    5958                      .dwattr $C$DW$735, DW_AT_accessibility(DW_ACCESS_public)
    5959              $C$DW$736       .dwtag  DW_TAG_member
    5960                      .dwattr $C$DW$736, DW_AT_type(*$C$DW$T$129)
    5961                      .dwattr $C$DW$736, DW_AT_name("Lsq_H")
    5962                      .dwattr $C$DW$736, DW_AT_TI_symbol_name("_Lsq_H")
    5963                      .dwattr $C$DW$736, DW_AT_data_member_location[DW_OP_plus_uconst 0x30]
    5964                      .dwattr $C$DW$736, DW_AT_accessibility(DW_ACCESS_public)
    5965              $C$DW$737       .dwtag  DW_TAG_member
    5966                      .dwattr $C$DW$737, DW_AT_type(*$C$DW$T$129)
    5967                      .dwattr $C$DW$737, DW_AT_name("MaxCurr_A")
    5968                      .dwattr $C$DW$737, DW_AT_TI_symbol_name("_MaxCurr_A")
    5969                      .dwattr $C$DW$737, DW_AT_data_member_location[DW_OP_plus_uconst 0x32]
    5970                      .dwattr $C$DW$737, DW_AT_accessibility(DW_ACCESS_public)
    5971              $C$DW$738       .dwtag  DW_TAG_member
    5972                      .dwattr $C$DW$738, DW_AT_type(*$C$DW$T$129)
    5973                      .dwattr $C$DW$738, DW_AT_name("MagnCurr_A")
    5974                      .dwattr $C$DW$738, DW_AT_TI_symbol_name("_MagnCurr_A")
    5975                      .dwattr $C$DW$738, DW_AT_data_member_location[DW_OP_plus_uconst 0x34]
    5976                      .dwattr $C$DW$738, DW_AT_accessibility(DW_ACCESS_public)
    5977              $C$DW$739       .dwtag  DW_TAG_member
    5978                      .dwattr $C$DW$739, DW_AT_type(*$C$DW$T$129)
    5979                      .dwattr $C$DW$739, DW_AT_name("Flux_VpHz")
TMS320C2000 Assembler PC v6.2.5 Wed Nov 22 14:48:16 2017

Tools Copyright (c) 1996-2014 Texas Instruments Incorporated
C:\Users\wmj\AppData\Local\Temp\1257612                              PAGE  114

    5980                      .dwattr $C$DW$739, DW_AT_TI_symbol_name("_Flux_VpHz")
    5981                      .dwattr $C$DW$739, DW_AT_data_member_location[DW_OP_plus_uconst 0x36]
    5982                      .dwattr $C$DW$739, DW_AT_accessibility(DW_ACCESS_public)
    5983              $C$DW$740       .dwtag  DW_TAG_member
    5984                      .dwattr $C$DW$740, DW_AT_type(*$C$DW$T$129)
    5985                      .dwattr $C$DW$740, DW_AT_name("RsOnLine_Ohm")
    5986                      .dwattr $C$DW$740, DW_AT_TI_symbol_name("_RsOnLine_Ohm")
    5987                      .dwattr $C$DW$740, DW_AT_data_member_location[DW_OP_plus_uconst 0x38]
    5988                      .dwattr $C$DW$740, DW_AT_accessibility(DW_ACCESS_public)
    5989              $C$DW$741       .dwtag  DW_TAG_member
    5990                      .dwattr $C$DW$741, DW_AT_type(*$C$DW$T$37)
    5991                      .dwattr $C$DW$741, DW_AT_name("OverModulation")
    5992                      .dwattr $C$DW$741, DW_AT_TI_symbol_name("_OverModulation")
    5993                      .dwattr $C$DW$741, DW_AT_data_member_location[DW_OP_plus_uconst 0x3a]
    5994                      .dwattr $C$DW$741, DW_AT_accessibility(DW_ACCESS_public)
    5995              $C$DW$742       .dwtag  DW_TAG_member
    5996                      .dwattr $C$DW$742, DW_AT_type(*$C$DW$T$37)
    5997                      .dwattr $C$DW$742, DW_AT_name("RsOnLineCurrent_A")
    5998                      .dwattr $C$DW$742, DW_AT_TI_symbol_name("_RsOnLineCurrent_A")
    5999                      .dwattr $C$DW$742, DW_AT_data_member_location[DW_OP_plus_uconst 0x3c]
    6000                      .dwattr $C$DW$742, DW_AT_accessibility(DW_ACCESS_public)
    6001              $C$DW$743       .dwtag  DW_TAG_member
    6002                      .dwattr $C$DW$743, DW_AT_type(*$C$DW$T$37)
    6003                      .dwattr $C$DW$743, DW_AT_name("Kp_Idq")
    6004                      .dwattr $C$DW$743, DW_AT_TI_symbol_name("_Kp_Idq")
    6005                      .dwattr $C$DW$743, DW_AT_data_member_location[DW_OP_plus_uconst 0x3e]
    6006                      .dwattr $C$DW$743, DW_AT_accessibility(DW_ACCESS_public)
    6007              $C$DW$744       .dwtag  DW_TAG_member
    6008                      .dwattr $C$DW$744, DW_AT_type(*$C$DW$T$37)
    6009                      .dwattr $C$DW$744, DW_AT_name("Ki_Idq")
    6010                      .dwattr $C$DW$744, DW_AT_TI_symbol_name("_Ki_Idq")
    6011                      .dwattr $C$DW$744, DW_AT_data_member_location[DW_OP_plus_uconst 0x40]
    6012                      .dwattr $C$DW$744, DW_AT_accessibility(DW_ACCESS_public)
    6013              $C$DW$745       .dwtag  DW_TAG_member
    6014                      .dwattr $C$DW$745, DW_AT_type(*$C$DW$T$37)
    6015                      .dwattr $C$DW$745, DW_AT_name("Kp_spd")
    6016                      .dwattr $C$DW$745, DW_AT_TI_symbol_name("_Kp_spd")
    6017                      .dwattr $C$DW$745, DW_AT_data_member_location[DW_OP_plus_uconst 0x42]
    6018                      .dwattr $C$DW$745, DW_AT_accessibility(DW_ACCESS_public)
    6019              $C$DW$746       .dwtag  DW_TAG_member
    6020                      .dwattr $C$DW$746, DW_AT_type(*$C$DW$T$37)
    6021                      .dwattr $C$DW$746, DW_AT_name("Ki_spd")
    6022                      .dwattr $C$DW$746, DW_AT_TI_symbol_name("_Ki_spd")
    6023                      .dwattr $C$DW$746, DW_AT_data_member_location[DW_OP_plus_uconst 0x44]
    6024                      .dwattr $C$DW$746, DW_AT_accessibility(DW_ACCESS_public)
    6025              $C$DW$747       .dwtag  DW_TAG_member
    6026                      .dwattr $C$DW$747, DW_AT_type(*$C$DW$T$37)
    6027                      .dwattr $C$DW$747, DW_AT_name("Vd")
    6028                      .dwattr $C$DW$747, DW_AT_TI_symbol_name("_Vd")
    6029                      .dwattr $C$DW$747, DW_AT_data_member_location[DW_OP_plus_uconst 0x46]
    6030                      .dwattr $C$DW$747, DW_AT_accessibility(DW_ACCESS_public)
    6031              $C$DW$748       .dwtag  DW_TAG_member
    6032                      .dwattr $C$DW$748, DW_AT_type(*$C$DW$T$37)
    6033                      .dwattr $C$DW$748, DW_AT_name("Vq")
    6034                      .dwattr $C$DW$748, DW_AT_TI_symbol_name("_Vq")
TMS320C2000 Assembler PC v6.2.5 Wed Nov 22 14:48:16 2017

Tools Copyright (c) 1996-2014 Texas Instruments Incorporated
C:\Users\wmj\AppData\Local\Temp\1257612                              PAGE  115

    6035                      .dwattr $C$DW$748, DW_AT_data_member_location[DW_OP_plus_uconst 0x48]
    6036                      .dwattr $C$DW$748, DW_AT_accessibility(DW_ACCESS_public)
    6037              $C$DW$749       .dwtag  DW_TAG_member
    6038                      .dwattr $C$DW$749, DW_AT_type(*$C$DW$T$37)
    6039                      .dwattr $C$DW$749, DW_AT_name("Vs")
    6040                      .dwattr $C$DW$749, DW_AT_TI_symbol_name("_Vs")
    6041                      .dwattr $C$DW$749, DW_AT_data_member_location[DW_OP_plus_uconst 0x4a]
    6042                      .dwattr $C$DW$749, DW_AT_accessibility(DW_ACCESS_public)
    6043              $C$DW$750       .dwtag  DW_TAG_member
    6044                      .dwattr $C$DW$750, DW_AT_type(*$C$DW$T$37)
    6045                      .dwattr $C$DW$750, DW_AT_name("Id_A")
    6046                      .dwattr $C$DW$750, DW_AT_TI_symbol_name("_Id_A")
    6047                      .dwattr $C$DW$750, DW_AT_data_member_location[DW_OP_plus_uconst 0x4c]
    6048                      .dwattr $C$DW$750, DW_AT_accessibility(DW_ACCESS_public)
    6049              $C$DW$751       .dwtag  DW_TAG_member
    6050                      .dwattr $C$DW$751, DW_AT_type(*$C$DW$T$37)
    6051                      .dwattr $C$DW$751, DW_AT_name("Iq_A")
    6052                      .dwattr $C$DW$751, DW_AT_TI_symbol_name("_Iq_A")
    6053                      .dwattr $C$DW$751, DW_AT_data_member_location[DW_OP_plus_uconst 0x4e]
    6054                      .dwattr $C$DW$751, DW_AT_accessibility(DW_ACCESS_public)
    6055              $C$DW$752       .dwtag  DW_TAG_member
    6056                      .dwattr $C$DW$752, DW_AT_type(*$C$DW$T$37)
    6057                      .dwattr $C$DW$752, DW_AT_name("Is_A")
    6058                      .dwattr $C$DW$752, DW_AT_TI_symbol_name("_Is_A")
    6059                      .dwattr $C$DW$752, DW_AT_data_member_location[DW_OP_plus_uconst 0x50]
    6060                      .dwattr $C$DW$752, DW_AT_accessibility(DW_ACCESS_public)
    6061              $C$DW$753       .dwtag  DW_TAG_member
    6062                      .dwattr $C$DW$753, DW_AT_type(*$C$DW$T$37)
    6063                      .dwattr $C$DW$753, DW_AT_name("IdRef_A")
    6064                      .dwattr $C$DW$753, DW_AT_TI_symbol_name("_IdRef_A")
    6065                      .dwattr $C$DW$753, DW_AT_data_member_location[DW_OP_plus_uconst 0x52]
    6066                      .dwattr $C$DW$753, DW_AT_accessibility(DW_ACCESS_public)
    6067              $C$DW$754       .dwtag  DW_TAG_member
    6068                      .dwattr $C$DW$754, DW_AT_type(*$C$DW$T$37)
    6069                      .dwattr $C$DW$754, DW_AT_name("IqRef_A")
    6070                      .dwattr $C$DW$754, DW_AT_TI_symbol_name("_IqRef_A")
    6071                      .dwattr $C$DW$754, DW_AT_data_member_location[DW_OP_plus_uconst 0x54]
    6072                      .dwattr $C$DW$754, DW_AT_accessibility(DW_ACCESS_public)
    6073              $C$DW$755       .dwtag  DW_TAG_member
    6074                      .dwattr $C$DW$755, DW_AT_type(*$C$DW$T$37)
    6075                      .dwattr $C$DW$755, DW_AT_name("Ibrake_Ratio")
    6076                      .dwattr $C$DW$755, DW_AT_TI_symbol_name("_Ibrake_Ratio")
    6077                      .dwattr $C$DW$755, DW_AT_data_member_location[DW_OP_plus_uconst 0x56]
    6078                      .dwattr $C$DW$755, DW_AT_accessibility(DW_ACCESS_public)
    6079              $C$DW$756       .dwtag  DW_TAG_member
    6080                      .dwattr $C$DW$756, DW_AT_type(*$C$DW$T$78)
    6081                      .dwattr $C$DW$756, DW_AT_name("I_bias")
    6082                      .dwattr $C$DW$756, DW_AT_TI_symbol_name("_I_bias")
    6083                      .dwattr $C$DW$756, DW_AT_data_member_location[DW_OP_plus_uconst 0x58]
    6084                      .dwattr $C$DW$756, DW_AT_accessibility(DW_ACCESS_public)
    6085              $C$DW$757       .dwtag  DW_TAG_member
    6086                      .dwattr $C$DW$757, DW_AT_type(*$C$DW$T$78)
    6087                      .dwattr $C$DW$757, DW_AT_name("V_bias")
    6088                      .dwattr $C$DW$757, DW_AT_TI_symbol_name("_V_bias")
    6089                      .dwattr $C$DW$757, DW_AT_data_member_location[DW_OP_plus_uconst 0x5e]
TMS320C2000 Assembler PC v6.2.5 Wed Nov 22 14:48:16 2017

Tools Copyright (c) 1996-2014 Texas Instruments Incorporated
C:\Users\wmj\AppData\Local\Temp\1257612                              PAGE  116

    6090                      .dwattr $C$DW$757, DW_AT_accessibility(DW_ACCESS_public)
    6091              $C$DW$758       .dwtag  DW_TAG_member
    6092                      .dwattr $C$DW$758, DW_AT_type(*$C$DW$T$37)
    6093                      .dwattr $C$DW$758, DW_AT_name("Sensor0_Value")
    6094                      .dwattr $C$DW$758, DW_AT_TI_symbol_name("_Sensor0_Value")
    6095                      .dwattr $C$DW$758, DW_AT_data_member_location[DW_OP_plus_uconst 0x64]
    6096                      .dwattr $C$DW$758, DW_AT_accessibility(DW_ACCESS_public)
    6097              $C$DW$759       .dwtag  DW_TAG_member
    6098                      .dwattr $C$DW$759, DW_AT_type(*$C$DW$T$37)
    6099                      .dwattr $C$DW$759, DW_AT_name("Sensor1_Value")
    6100                      .dwattr $C$DW$759, DW_AT_TI_symbol_name("_Sensor1_Value")
    6101                      .dwattr $C$DW$759, DW_AT_data_member_location[DW_OP_plus_uconst 0x66]
    6102                      .dwattr $C$DW$759, DW_AT_accessibility(DW_ACCESS_public)
    6103              $C$DW$760       .dwtag  DW_TAG_member
    6104                      .dwattr $C$DW$760, DW_AT_type(*$C$DW$T$37)
    6105                      .dwattr $C$DW$760, DW_AT_name("ZeroPoint_Value")
    6106                      .dwattr $C$DW$760, DW_AT_TI_symbol_name("_ZeroPoint_Value")
    6107                      .dwattr $C$DW$760, DW_AT_data_member_location[DW_OP_plus_uconst 0x68]
    6108                      .dwattr $C$DW$760, DW_AT_accessibility(DW_ACCESS_public)
    6109              $C$DW$761       .dwtag  DW_TAG_member
    6110                      .dwattr $C$DW$761, DW_AT_type(*$C$DW$T$128)
    6111                      .dwattr $C$DW$761, DW_AT_name("ChipTemp")
    6112                      .dwattr $C$DW$761, DW_AT_TI_symbol_name("_ChipTemp")
    6113                      .dwattr $C$DW$761, DW_AT_data_member_location[DW_OP_plus_uconst 0x6a]
    6114                      .dwattr $C$DW$761, DW_AT_accessibility(DW_ACCESS_public)
    6115              $C$DW$762       .dwtag  DW_TAG_member
    6116                      .dwattr $C$DW$762, DW_AT_type(*$C$DW$T$37)
    6117                      .dwattr $C$DW$762, DW_AT_name("VdcBus_kV")
    6118                      .dwattr $C$DW$762, DW_AT_TI_symbol_name("_VdcBus_kV")
    6119                      .dwattr $C$DW$762, DW_AT_data_member_location[DW_OP_plus_uconst 0x6c]
    6120                      .dwattr $C$DW$762, DW_AT_accessibility(DW_ACCESS_public)
    6121              $C$DW$763       .dwtag  DW_TAG_member
    6122                      .dwattr $C$DW$763, DW_AT_type(*$C$DW$T$21)
    6123                      .dwattr $C$DW$763, DW_AT_name("MotorID")
    6124                      .dwattr $C$DW$763, DW_AT_TI_symbol_name("_MotorID")
    6125                      .dwattr $C$DW$763, DW_AT_data_member_location[DW_OP_plus_uconst 0x6e]
    6126                      .dwattr $C$DW$763, DW_AT_accessibility(DW_ACCESS_public)
    6127                      .dwendtag $C$DW$T$130
    6128              
    6129              $C$DW$T$206     .dwtag  DW_TAG_typedef, DW_AT_name("MOTOR_Obj")
    6130                      .dwattr $C$DW$T$206, DW_AT_type(*$C$DW$T$130)
    6131                      .dwattr $C$DW$T$206, DW_AT_language(DW_LANG_C)
    6132              $C$DW$T$40      .dwtag  DW_TAG_pointer_type
    6133                      .dwattr $C$DW$T$40, DW_AT_type(*$C$DW$T$130)
    6134                      .dwattr $C$DW$T$40, DW_AT_address_class(0x16)
    6135              $C$DW$T$41      .dwtag  DW_TAG_typedef, DW_AT_name("MOTOR_Handle")
    6136                      .dwattr $C$DW$T$41, DW_AT_type(*$C$DW$T$40)
    6137                      .dwattr $C$DW$T$41, DW_AT_language(DW_LANG_C)
    6138              $C$DW$764       .dwtag  DW_TAG_TI_far_type
    6139                      .dwattr $C$DW$764, DW_AT_type(*$C$DW$T$41)
    6140              $C$DW$T$207     .dwtag  DW_TAG_const_type
    6141                      .dwattr $C$DW$T$207, DW_AT_type(*$C$DW$764)
    6142              
    6143              $C$DW$T$134     .dwtag  DW_TAG_structure_type
    6144                      .dwattr $C$DW$T$134, DW_AT_name("_OFFSET_")
TMS320C2000 Assembler PC v6.2.5 Wed Nov 22 14:48:16 2017

Tools Copyright (c) 1996-2014 Texas Instruments Incorporated
C:\Users\wmj\AppData\Local\Temp\1257612                              PAGE  117

    6145                      .dwattr $C$DW$T$134, DW_AT_byte_size(0x10)
    6146              $C$DW$765       .dwtag  DW_TAG_member
    6147                      .dwattr $C$DW$765, DW_AT_type(*$C$DW$T$37)
    6148                      .dwattr $C$DW$765, DW_AT_name("value")
    6149                      .dwattr $C$DW$765, DW_AT_TI_symbol_name("_value")
    6150                      .dwattr $C$DW$765, DW_AT_data_member_location[DW_OP_plus_uconst 0x0]
    6151                      .dwattr $C$DW$765, DW_AT_accessibility(DW_ACCESS_public)
    6152              $C$DW$766       .dwtag  DW_TAG_member
    6153                      .dwattr $C$DW$766, DW_AT_type(*$C$DW$T$37)
    6154                      .dwattr $C$DW$766, DW_AT_name("bias")
    6155                      .dwattr $C$DW$766, DW_AT_TI_symbol_name("_bias")
    6156                      .dwattr $C$DW$766, DW_AT_data_member_location[DW_OP_plus_uconst 0x2]
    6157                      .dwattr $C$DW$766, DW_AT_accessibility(DW_ACCESS_public)
    6158              $C$DW$767       .dwtag  DW_TAG_member
    6159                      .dwattr $C$DW$767, DW_AT_type(*$C$DW$T$131)
    6160                      .dwattr $C$DW$767, DW_AT_name("filter")
    6161                      .dwattr $C$DW$767, DW_AT_TI_symbol_name("_filter")
    6162                      .dwattr $C$DW$767, DW_AT_data_member_location[DW_OP_plus_uconst 0x4]
    6163                      .dwattr $C$DW$767, DW_AT_accessibility(DW_ACCESS_public)
    6164              $C$DW$768       .dwtag  DW_TAG_member
    6165                      .dwattr $C$DW$768, DW_AT_type(*$C$DW$T$133)
    6166                      .dwattr $C$DW$768, DW_AT_name("filterHandle")
    6167                      .dwattr $C$DW$768, DW_AT_TI_symbol_name("_filterHandle")
    6168                      .dwattr $C$DW$768, DW_AT_data_member_location[DW_OP_plus_uconst 0xe]
    6169                      .dwattr $C$DW$768, DW_AT_accessibility(DW_ACCESS_public)
    6170                      .dwendtag $C$DW$T$134
    6171              
    6172              $C$DW$T$93      .dwtag  DW_TAG_typedef, DW_AT_name("OFFSET_Obj")
    6173                      .dwattr $C$DW$T$93, DW_AT_type(*$C$DW$T$134)
    6174                      .dwattr $C$DW$T$93, DW_AT_language(DW_LANG_C)
    6175              
    6176              $C$DW$T$94      .dwtag  DW_TAG_array_type
    6177                      .dwattr $C$DW$T$94, DW_AT_type(*$C$DW$T$93)
    6178                      .dwattr $C$DW$T$94, DW_AT_language(DW_LANG_C)
    6179                      .dwattr $C$DW$T$94, DW_AT_byte_size(0x30)
    6180              $C$DW$769       .dwtag  DW_TAG_subrange_type
    6181                      .dwattr $C$DW$769, DW_AT_upper_bound(0x02)
    6182                      .dwendtag $C$DW$T$94
    6183              
    6184              
    6185              $C$DW$T$20      .dwtag  DW_TAG_structure_type
    6186                      .dwattr $C$DW$T$20, DW_AT_name("_OFFSET_Obj_")
    6187                      .dwattr $C$DW$T$20, DW_AT_declaration
    6188                      .dwendtag $C$DW$T$20
    6189              
    6190              $C$DW$T$90      .dwtag  DW_TAG_pointer_type
    6191                      .dwattr $C$DW$T$90, DW_AT_type(*$C$DW$T$20)
    6192                      .dwattr $C$DW$T$90, DW_AT_address_class(0x16)
    6193              $C$DW$T$91      .dwtag  DW_TAG_typedef, DW_AT_name("OFFSET_Handle")
    6194                      .dwattr $C$DW$T$91, DW_AT_type(*$C$DW$T$90)
    6195                      .dwattr $C$DW$T$91, DW_AT_language(DW_LANG_C)
    6196              
    6197              $C$DW$T$92      .dwtag  DW_TAG_array_type
    6198                      .dwattr $C$DW$T$92, DW_AT_type(*$C$DW$T$91)
    6199                      .dwattr $C$DW$T$92, DW_AT_language(DW_LANG_C)
TMS320C2000 Assembler PC v6.2.5 Wed Nov 22 14:48:16 2017

Tools Copyright (c) 1996-2014 Texas Instruments Incorporated
C:\Users\wmj\AppData\Local\Temp\1257612                              PAGE  118

    6200                      .dwattr $C$DW$T$92, DW_AT_byte_size(0x06)
    6201              $C$DW$770       .dwtag  DW_TAG_subrange_type
    6202                      .dwattr $C$DW$770, DW_AT_upper_bound(0x02)
    6203                      .dwendtag $C$DW$T$92
    6204              
    6205              
    6206              $C$DW$T$135     .dwtag  DW_TAG_structure_type
    6207                      .dwattr $C$DW$T$135, DW_AT_name("_OSC_Obj_")
    6208                      .dwattr $C$DW$T$135, DW_AT_byte_size(0x03)
    6209              $C$DW$771       .dwtag  DW_TAG_member
    6210                      .dwattr $C$DW$771, DW_AT_type(*$C$DW$T$22)
    6211                      .dwattr $C$DW$771, DW_AT_name("INTOSC1TRIM")
    6212                      .dwattr $C$DW$771, DW_AT_TI_symbol_name("_INTOSC1TRIM")
    6213                      .dwattr $C$DW$771, DW_AT_data_member_location[DW_OP_plus_uconst 0x0]
    6214                      .dwattr $C$DW$771, DW_AT_accessibility(DW_ACCESS_public)
    6215              $C$DW$772       .dwtag  DW_TAG_member
    6216                      .dwattr $C$DW$772, DW_AT_type(*$C$DW$T$22)
    6217                      .dwattr $C$DW$772, DW_AT_name("rsvd_1")
    6218                      .dwattr $C$DW$772, DW_AT_TI_symbol_name("_rsvd_1")
    6219                      .dwattr $C$DW$772, DW_AT_data_member_location[DW_OP_plus_uconst 0x1]
    6220                      .dwattr $C$DW$772, DW_AT_accessibility(DW_ACCESS_public)
    6221              $C$DW$773       .dwtag  DW_TAG_member
    6222                      .dwattr $C$DW$773, DW_AT_type(*$C$DW$T$22)
    6223                      .dwattr $C$DW$773, DW_AT_name("INTOSC2TRIM")
    6224                      .dwattr $C$DW$773, DW_AT_TI_symbol_name("_INTOSC2TRIM")
    6225                      .dwattr $C$DW$773, DW_AT_data_member_location[DW_OP_plus_uconst 0x2]
    6226                      .dwattr $C$DW$773, DW_AT_accessibility(DW_ACCESS_public)
    6227                      .dwendtag $C$DW$T$135
    6228              
    6229              $C$DW$T$95      .dwtag  DW_TAG_pointer_type
    6230                      .dwattr $C$DW$T$95, DW_AT_type(*$C$DW$T$135)
    6231                      .dwattr $C$DW$T$95, DW_AT_address_class(0x16)
    6232              $C$DW$T$96      .dwtag  DW_TAG_typedef, DW_AT_name("OSC_Handle")
    6233                      .dwattr $C$DW$T$96, DW_AT_type(*$C$DW$T$95)
    6234                      .dwattr $C$DW$T$96, DW_AT_language(DW_LANG_C)
    6235              
    6236              $C$DW$T$136     .dwtag  DW_TAG_structure_type
    6237                      .dwattr $C$DW$T$136, DW_AT_name("_PIE_IERIFR_t")
    6238                      .dwattr $C$DW$T$136, DW_AT_byte_size(0x02)
    6239              $C$DW$774       .dwtag  DW_TAG_member
    6240                      .dwattr $C$DW$774, DW_AT_type(*$C$DW$T$22)
    6241                      .dwattr $C$DW$774, DW_AT_name("IER")
    6242                      .dwattr $C$DW$774, DW_AT_TI_symbol_name("_IER")
    6243                      .dwattr $C$DW$774, DW_AT_data_member_location[DW_OP_plus_uconst 0x0]
    6244                      .dwattr $C$DW$774, DW_AT_accessibility(DW_ACCESS_public)
    6245              $C$DW$775       .dwtag  DW_TAG_member
    6246                      .dwattr $C$DW$775, DW_AT_type(*$C$DW$T$22)
    6247                      .dwattr $C$DW$775, DW_AT_name("IFR")
    6248                      .dwattr $C$DW$775, DW_AT_TI_symbol_name("_IFR")
    6249                      .dwattr $C$DW$775, DW_AT_data_member_location[DW_OP_plus_uconst 0x1]
    6250                      .dwattr $C$DW$775, DW_AT_accessibility(DW_ACCESS_public)
    6251                      .dwendtag $C$DW$T$136
    6252              
    6253              $C$DW$T$137     .dwtag  DW_TAG_typedef, DW_AT_name("PIE_IERIFR_t")
    6254                      .dwattr $C$DW$T$137, DW_AT_type(*$C$DW$T$136)
TMS320C2000 Assembler PC v6.2.5 Wed Nov 22 14:48:16 2017

Tools Copyright (c) 1996-2014 Texas Instruments Incorporated
C:\Users\wmj\AppData\Local\Temp\1257612                              PAGE  119

    6255                      .dwattr $C$DW$T$137, DW_AT_language(DW_LANG_C)
    6256              $C$DW$776       .dwtag  DW_TAG_TI_far_type
    6257                      .dwattr $C$DW$776, DW_AT_type(*$C$DW$T$137)
    6258              $C$DW$T$138     .dwtag  DW_TAG_volatile_type
    6259                      .dwattr $C$DW$T$138, DW_AT_type(*$C$DW$776)
    6260              
    6261              $C$DW$T$139     .dwtag  DW_TAG_array_type
    6262                      .dwattr $C$DW$T$139, DW_AT_type(*$C$DW$T$138)
    6263                      .dwattr $C$DW$T$139, DW_AT_language(DW_LANG_C)
    6264                      .dwattr $C$DW$T$139, DW_AT_byte_size(0x18)
    6265              $C$DW$777       .dwtag  DW_TAG_subrange_type
    6266                      .dwattr $C$DW$777, DW_AT_upper_bound(0x0b)
    6267                      .dwendtag $C$DW$T$139
    6268              
    6269              
    6270              $C$DW$T$146     .dwtag  DW_TAG_structure_type
    6271                      .dwattr $C$DW$T$146, DW_AT_name("_PIE_Obj_")
    6272                      .dwattr $C$DW$T$146, DW_AT_byte_size(0x639c)
    6273              $C$DW$778       .dwtag  DW_TAG_member
    6274                      .dwattr $C$DW$778, DW_AT_type(*$C$DW$T$22)
    6275                      .dwattr $C$DW$778, DW_AT_name("PIECTRL")
    6276                      .dwattr $C$DW$778, DW_AT_TI_symbol_name("_PIECTRL")
    6277                      .dwattr $C$DW$778, DW_AT_data_member_location[DW_OP_plus_uconst 0x0]
    6278                      .dwattr $C$DW$778, DW_AT_accessibility(DW_ACCESS_public)
    6279              $C$DW$779       .dwtag  DW_TAG_member
    6280                      .dwattr $C$DW$779, DW_AT_type(*$C$DW$T$22)
    6281                      .dwattr $C$DW$779, DW_AT_name("PIEACK")
    6282                      .dwattr $C$DW$779, DW_AT_TI_symbol_name("_PIEACK")
    6283                      .dwattr $C$DW$779, DW_AT_data_member_location[DW_OP_plus_uconst 0x1]
    6284                      .dwattr $C$DW$779, DW_AT_accessibility(DW_ACCESS_public)
    6285              $C$DW$780       .dwtag  DW_TAG_member
    6286                      .dwattr $C$DW$780, DW_AT_type(*$C$DW$T$139)
    6287                      .dwattr $C$DW$780, DW_AT_name("PIEIER_PIEIFR")
    6288                      .dwattr $C$DW$780, DW_AT_TI_symbol_name("_PIEIER_PIEIFR")
    6289                      .dwattr $C$DW$780, DW_AT_data_member_location[DW_OP_plus_uconst 0x2]
    6290                      .dwattr $C$DW$780, DW_AT_accessibility(DW_ACCESS_public)
    6291              $C$DW$781       .dwtag  DW_TAG_member
    6292                      .dwattr $C$DW$781, DW_AT_type(*$C$DW$T$140)
    6293                      .dwattr $C$DW$781, DW_AT_name("rsvd_1")
    6294                      .dwattr $C$DW$781, DW_AT_TI_symbol_name("_rsvd_1")
    6295                      .dwattr $C$DW$781, DW_AT_data_member_location[DW_OP_plus_uconst 0x1a]
    6296                      .dwattr $C$DW$781, DW_AT_accessibility(DW_ACCESS_public)
    6297              $C$DW$782       .dwtag  DW_TAG_member
    6298                      .dwattr $C$DW$782, DW_AT_type(*$C$DW$T$144)
    6299                      .dwattr $C$DW$782, DW_AT_name("Reset")
    6300                      .dwattr $C$DW$782, DW_AT_TI_symbol_name("_Reset")
    6301                      .dwattr $C$DW$782, DW_AT_data_member_location[DW_OP_plus_uconst 0x20]
    6302                      .dwattr $C$DW$782, DW_AT_accessibility(DW_ACCESS_public)
    6303              $C$DW$783       .dwtag  DW_TAG_member
    6304                      .dwattr $C$DW$783, DW_AT_type(*$C$DW$T$144)
    6305                      .dwattr $C$DW$783, DW_AT_name("INT1")
    6306                      .dwattr $C$DW$783, DW_AT_TI_symbol_name("_INT1")
    6307                      .dwattr $C$DW$783, DW_AT_data_member_location[DW_OP_plus_uconst 0x22]
    6308                      .dwattr $C$DW$783, DW_AT_accessibility(DW_ACCESS_public)
    6309              $C$DW$784       .dwtag  DW_TAG_member
TMS320C2000 Assembler PC v6.2.5 Wed Nov 22 14:48:16 2017

Tools Copyright (c) 1996-2014 Texas Instruments Incorporated
C:\Users\wmj\AppData\Local\Temp\1257612                              PAGE  120

    6310                      .dwattr $C$DW$784, DW_AT_type(*$C$DW$T$144)
    6311                      .dwattr $C$DW$784, DW_AT_name("INT2")
    6312                      .dwattr $C$DW$784, DW_AT_TI_symbol_name("_INT2")
    6313                      .dwattr $C$DW$784, DW_AT_data_member_location[DW_OP_plus_uconst 0x24]
    6314                      .dwattr $C$DW$784, DW_AT_accessibility(DW_ACCESS_public)
    6315              $C$DW$785       .dwtag  DW_TAG_member
    6316                      .dwattr $C$DW$785, DW_AT_type(*$C$DW$T$144)
    6317                      .dwattr $C$DW$785, DW_AT_name("INT3")
    6318                      .dwattr $C$DW$785, DW_AT_TI_symbol_name("_INT3")
    6319                      .dwattr $C$DW$785, DW_AT_data_member_location[DW_OP_plus_uconst 0x26]
    6320                      .dwattr $C$DW$785, DW_AT_accessibility(DW_ACCESS_public)
    6321              $C$DW$786       .dwtag  DW_TAG_member
    6322                      .dwattr $C$DW$786, DW_AT_type(*$C$DW$T$144)
    6323                      .dwattr $C$DW$786, DW_AT_name("INT4")
    6324                      .dwattr $C$DW$786, DW_AT_TI_symbol_name("_INT4")
    6325                      .dwattr $C$DW$786, DW_AT_data_member_location[DW_OP_plus_uconst 0x28]
    6326                      .dwattr $C$DW$786, DW_AT_accessibility(DW_ACCESS_public)
    6327              $C$DW$787       .dwtag  DW_TAG_member
    6328                      .dwattr $C$DW$787, DW_AT_type(*$C$DW$T$144)
    6329                      .dwattr $C$DW$787, DW_AT_name("INT5")
    6330                      .dwattr $C$DW$787, DW_AT_TI_symbol_name("_INT5")
    6331                      .dwattr $C$DW$787, DW_AT_data_member_location[DW_OP_plus_uconst 0x2a]
    6332                      .dwattr $C$DW$787, DW_AT_accessibility(DW_ACCESS_public)
    6333              $C$DW$788       .dwtag  DW_TAG_member
    6334                      .dwattr $C$DW$788, DW_AT_type(*$C$DW$T$144)
    6335                      .dwattr $C$DW$788, DW_AT_name("INT6")
    6336                      .dwattr $C$DW$788, DW_AT_TI_symbol_name("_INT6")
    6337                      .dwattr $C$DW$788, DW_AT_data_member_location[DW_OP_plus_uconst 0x2c]
    6338                      .dwattr $C$DW$788, DW_AT_accessibility(DW_ACCESS_public)
    6339              $C$DW$789       .dwtag  DW_TAG_member
    6340                      .dwattr $C$DW$789, DW_AT_type(*$C$DW$T$144)
    6341                      .dwattr $C$DW$789, DW_AT_name("INT7")
    6342                      .dwattr $C$DW$789, DW_AT_TI_symbol_name("_INT7")
    6343                      .dwattr $C$DW$789, DW_AT_data_member_location[DW_OP_plus_uconst 0x2e]
    6344                      .dwattr $C$DW$789, DW_AT_accessibility(DW_ACCESS_public)
    6345              $C$DW$790       .dwtag  DW_TAG_member
    6346                      .dwattr $C$DW$790, DW_AT_type(*$C$DW$T$144)
    6347                      .dwattr $C$DW$790, DW_AT_name("INT8")
    6348                      .dwattr $C$DW$790, DW_AT_TI_symbol_name("_INT8")
    6349                      .dwattr $C$DW$790, DW_AT_data_member_location[DW_OP_plus_uconst 0x30]
    6350                      .dwattr $C$DW$790, DW_AT_accessibility(DW_ACCESS_public)
    6351              $C$DW$791       .dwtag  DW_TAG_member
    6352                      .dwattr $C$DW$791, DW_AT_type(*$C$DW$T$144)
    6353                      .dwattr $C$DW$791, DW_AT_name("INT9")
    6354                      .dwattr $C$DW$791, DW_AT_TI_symbol_name("_INT9")
    6355                      .dwattr $C$DW$791, DW_AT_data_member_location[DW_OP_plus_uconst 0x32]
    6356                      .dwattr $C$DW$791, DW_AT_accessibility(DW_ACCESS_public)
    6357              $C$DW$792       .dwtag  DW_TAG_member
    6358                      .dwattr $C$DW$792, DW_AT_type(*$C$DW$T$144)
    6359                      .dwattr $C$DW$792, DW_AT_name("INT10")
    6360                      .dwattr $C$DW$792, DW_AT_TI_symbol_name("_INT10")
    6361                      .dwattr $C$DW$792, DW_AT_data_member_location[DW_OP_plus_uconst 0x34]
    6362                      .dwattr $C$DW$792, DW_AT_accessibility(DW_ACCESS_public)
    6363              $C$DW$793       .dwtag  DW_TAG_member
    6364                      .dwattr $C$DW$793, DW_AT_type(*$C$DW$T$144)
TMS320C2000 Assembler PC v6.2.5 Wed Nov 22 14:48:16 2017

Tools Copyright (c) 1996-2014 Texas Instruments Incorporated
C:\Users\wmj\AppData\Local\Temp\1257612                              PAGE  121

    6365                      .dwattr $C$DW$793, DW_AT_name("INT11")
    6366                      .dwattr $C$DW$793, DW_AT_TI_symbol_name("_INT11")
    6367                      .dwattr $C$DW$793, DW_AT_data_member_location[DW_OP_plus_uconst 0x36]
    6368                      .dwattr $C$DW$793, DW_AT_accessibility(DW_ACCESS_public)
    6369              $C$DW$794       .dwtag  DW_TAG_member
    6370                      .dwattr $C$DW$794, DW_AT_type(*$C$DW$T$144)
    6371                      .dwattr $C$DW$794, DW_AT_name("INT12")
    6372                      .dwattr $C$DW$794, DW_AT_TI_symbol_name("_INT12")
    6373                      .dwattr $C$DW$794, DW_AT_data_member_location[DW_OP_plus_uconst 0x38]
    6374                      .dwattr $C$DW$794, DW_AT_accessibility(DW_ACCESS_public)
    6375              $C$DW$795       .dwtag  DW_TAG_member
    6376                      .dwattr $C$DW$795, DW_AT_type(*$C$DW$T$144)
    6377                      .dwattr $C$DW$795, DW_AT_name("TINT1")
    6378                      .dwattr $C$DW$795, DW_AT_TI_symbol_name("_TINT1")
    6379                      .dwattr $C$DW$795, DW_AT_data_member_location[DW_OP_plus_uconst 0x3a]
    6380                      .dwattr $C$DW$795, DW_AT_accessibility(DW_ACCESS_public)
    6381              $C$DW$796       .dwtag  DW_TAG_member
    6382                      .dwattr $C$DW$796, DW_AT_type(*$C$DW$T$144)
    6383                      .dwattr $C$DW$796, DW_AT_name("TINT2")
    6384                      .dwattr $C$DW$796, DW_AT_TI_symbol_name("_TINT2")
    6385                      .dwattr $C$DW$796, DW_AT_data_member_location[DW_OP_plus_uconst 0x3c]
    6386                      .dwattr $C$DW$796, DW_AT_accessibility(DW_ACCESS_public)
    6387              $C$DW$797       .dwtag  DW_TAG_member
    6388                      .dwattr $C$DW$797, DW_AT_type(*$C$DW$T$144)
    6389                      .dwattr $C$DW$797, DW_AT_name("DATALOG")
    6390                      .dwattr $C$DW$797, DW_AT_TI_symbol_name("_DATALOG")
    6391                      .dwattr $C$DW$797, DW_AT_data_member_location[DW_OP_plus_uconst 0x3e]
    6392                      .dwattr $C$DW$797, DW_AT_accessibility(DW_ACCESS_public)
    6393              $C$DW$798       .dwtag  DW_TAG_member
    6394                      .dwattr $C$DW$798, DW_AT_type(*$C$DW$T$144)
    6395                      .dwattr $C$DW$798, DW_AT_name("RTOSINT")
    6396                      .dwattr $C$DW$798, DW_AT_TI_symbol_name("_RTOSINT")
    6397                      .dwattr $C$DW$798, DW_AT_data_member_location[DW_OP_plus_uconst 0x40]
    6398                      .dwattr $C$DW$798, DW_AT_accessibility(DW_ACCESS_public)
    6399              $C$DW$799       .dwtag  DW_TAG_member
    6400                      .dwattr $C$DW$799, DW_AT_type(*$C$DW$T$144)
    6401                      .dwattr $C$DW$799, DW_AT_name("EMUINT")
    6402                      .dwattr $C$DW$799, DW_AT_TI_symbol_name("_EMUINT")
    6403                      .dwattr $C$DW$799, DW_AT_data_member_location[DW_OP_plus_uconst 0x42]
    6404                      .dwattr $C$DW$799, DW_AT_accessibility(DW_ACCESS_public)
    6405              $C$DW$800       .dwtag  DW_TAG_member
    6406                      .dwattr $C$DW$800, DW_AT_type(*$C$DW$T$144)
    6407                      .dwattr $C$DW$800, DW_AT_name("NMI")
    6408                      .dwattr $C$DW$800, DW_AT_TI_symbol_name("_NMI")
    6409                      .dwattr $C$DW$800, DW_AT_data_member_location[DW_OP_plus_uconst 0x44]
    6410                      .dwattr $C$DW$800, DW_AT_accessibility(DW_ACCESS_public)
    6411              $C$DW$801       .dwtag  DW_TAG_member
    6412                      .dwattr $C$DW$801, DW_AT_type(*$C$DW$T$144)
    6413                      .dwattr $C$DW$801, DW_AT_name("ILLEGAL")
    6414                      .dwattr $C$DW$801, DW_AT_TI_symbol_name("_ILLEGAL")
    6415                      .dwattr $C$DW$801, DW_AT_data_member_location[DW_OP_plus_uconst 0x46]
    6416                      .dwattr $C$DW$801, DW_AT_accessibility(DW_ACCESS_public)
    6417              $C$DW$802       .dwtag  DW_TAG_member
    6418                      .dwattr $C$DW$802, DW_AT_type(*$C$DW$T$144)
    6419                      .dwattr $C$DW$802, DW_AT_name("USER1")
TMS320C2000 Assembler PC v6.2.5 Wed Nov 22 14:48:16 2017

Tools Copyright (c) 1996-2014 Texas Instruments Incorporated
C:\Users\wmj\AppData\Local\Temp\1257612                              PAGE  122

    6420                      .dwattr $C$DW$802, DW_AT_TI_symbol_name("_USER1")
    6421                      .dwattr $C$DW$802, DW_AT_data_member_location[DW_OP_plus_uconst 0x48]
    6422                      .dwattr $C$DW$802, DW_AT_accessibility(DW_ACCESS_public)
    6423              $C$DW$803       .dwtag  DW_TAG_member
    6424                      .dwattr $C$DW$803, DW_AT_type(*$C$DW$T$144)
    6425                      .dwattr $C$DW$803, DW_AT_name("USER2")
    6426                      .dwattr $C$DW$803, DW_AT_TI_symbol_name("_USER2")
    6427                      .dwattr $C$DW$803, DW_AT_data_member_location[DW_OP_plus_uconst 0x4a]
    6428                      .dwattr $C$DW$803, DW_AT_accessibility(DW_ACCESS_public)
    6429              $C$DW$804       .dwtag  DW_TAG_member
    6430                      .dwattr $C$DW$804, DW_AT_type(*$C$DW$T$144)
    6431                      .dwattr $C$DW$804, DW_AT_name("USER3")
    6432                      .dwattr $C$DW$804, DW_AT_TI_symbol_name("_USER3")
    6433                      .dwattr $C$DW$804, DW_AT_data_member_location[DW_OP_plus_uconst 0x4c]
    6434                      .dwattr $C$DW$804, DW_AT_accessibility(DW_ACCESS_public)
    6435              $C$DW$805       .dwtag  DW_TAG_member
    6436                      .dwattr $C$DW$805, DW_AT_type(*$C$DW$T$144)
    6437                      .dwattr $C$DW$805, DW_AT_name("USER4")
    6438                      .dwattr $C$DW$805, DW_AT_TI_symbol_name("_USER4")
    6439                      .dwattr $C$DW$805, DW_AT_data_member_location[DW_OP_plus_uconst 0x4e]
    6440                      .dwattr $C$DW$805, DW_AT_accessibility(DW_ACCESS_public)
    6441              $C$DW$806       .dwtag  DW_TAG_member
    6442                      .dwattr $C$DW$806, DW_AT_type(*$C$DW$T$144)
    6443                      .dwattr $C$DW$806, DW_AT_name("USER5")
    6444                      .dwattr $C$DW$806, DW_AT_TI_symbol_name("_USER5")
    6445                      .dwattr $C$DW$806, DW_AT_data_member_location[DW_OP_plus_uconst 0x50]
    6446                      .dwattr $C$DW$806, DW_AT_accessibility(DW_ACCESS_public)
    6447              $C$DW$807       .dwtag  DW_TAG_member
    6448                      .dwattr $C$DW$807, DW_AT_type(*$C$DW$T$144)
    6449                      .dwattr $C$DW$807, DW_AT_name("USER6")
    6450                      .dwattr $C$DW$807, DW_AT_TI_symbol_name("_USER6")
    6451                      .dwattr $C$DW$807, DW_AT_data_member_location[DW_OP_plus_uconst 0x52]
    6452                      .dwattr $C$DW$807, DW_AT_accessibility(DW_ACCESS_public)
    6453              $C$DW$808       .dwtag  DW_TAG_member
    6454                      .dwattr $C$DW$808, DW_AT_type(*$C$DW$T$144)
    6455                      .dwattr $C$DW$808, DW_AT_name("USER7")
    6456                      .dwattr $C$DW$808, DW_AT_TI_symbol_name("_USER7")
    6457                      .dwattr $C$DW$808, DW_AT_data_member_location[DW_OP_plus_uconst 0x54]
    6458                      .dwattr $C$DW$808, DW_AT_accessibility(DW_ACCESS_public)
    6459              $C$DW$809       .dwtag  DW_TAG_member
    6460                      .dwattr $C$DW$809, DW_AT_type(*$C$DW$T$144)
    6461                      .dwattr $C$DW$809, DW_AT_name("USER8")
    6462                      .dwattr $C$DW$809, DW_AT_TI_symbol_name("_USER8")
    6463                      .dwattr $C$DW$809, DW_AT_data_member_location[DW_OP_plus_uconst 0x56]
    6464                      .dwattr $C$DW$809, DW_AT_accessibility(DW_ACCESS_public)
    6465              $C$DW$810       .dwtag  DW_TAG_member
    6466                      .dwattr $C$DW$810, DW_AT_type(*$C$DW$T$144)
    6467                      .dwattr $C$DW$810, DW_AT_name("USER9")
    6468                      .dwattr $C$DW$810, DW_AT_TI_symbol_name("_USER9")
    6469                      .dwattr $C$DW$810, DW_AT_data_member_location[DW_OP_plus_uconst 0x58]
    6470                      .dwattr $C$DW$810, DW_AT_accessibility(DW_ACCESS_public)
    6471              $C$DW$811       .dwtag  DW_TAG_member
    6472                      .dwattr $C$DW$811, DW_AT_type(*$C$DW$T$144)
    6473                      .dwattr $C$DW$811, DW_AT_name("USER10")
    6474                      .dwattr $C$DW$811, DW_AT_TI_symbol_name("_USER10")
TMS320C2000 Assembler PC v6.2.5 Wed Nov 22 14:48:16 2017

Tools Copyright (c) 1996-2014 Texas Instruments Incorporated
C:\Users\wmj\AppData\Local\Temp\1257612                              PAGE  123

    6475                      .dwattr $C$DW$811, DW_AT_data_member_location[DW_OP_plus_uconst 0x5a]
    6476                      .dwattr $C$DW$811, DW_AT_accessibility(DW_ACCESS_public)
    6477              $C$DW$812       .dwtag  DW_TAG_member
    6478                      .dwattr $C$DW$812, DW_AT_type(*$C$DW$T$144)
    6479                      .dwattr $C$DW$812, DW_AT_name("USER11")
    6480                      .dwattr $C$DW$812, DW_AT_TI_symbol_name("_USER11")
    6481                      .dwattr $C$DW$812, DW_AT_data_member_location[DW_OP_plus_uconst 0x5c]
    6482                      .dwattr $C$DW$812, DW_AT_accessibility(DW_ACCESS_public)
    6483              $C$DW$813       .dwtag  DW_TAG_member
    6484                      .dwattr $C$DW$813, DW_AT_type(*$C$DW$T$144)
    6485                      .dwattr $C$DW$813, DW_AT_name("USER12")
    6486                      .dwattr $C$DW$813, DW_AT_TI_symbol_name("_USER12")
    6487                      .dwattr $C$DW$813, DW_AT_data_member_location[DW_OP_plus_uconst 0x5e]
    6488                      .dwattr $C$DW$813, DW_AT_accessibility(DW_ACCESS_public)
    6489              $C$DW$814       .dwtag  DW_TAG_member
    6490                      .dwattr $C$DW$814, DW_AT_type(*$C$DW$T$144)
    6491                      .dwattr $C$DW$814, DW_AT_name("ADCINT1_HP")
    6492                      .dwattr $C$DW$814, DW_AT_TI_symbol_name("_ADCINT1_HP")
    6493                      .dwattr $C$DW$814, DW_AT_data_member_location[DW_OP_plus_uconst 0x60]
    6494                      .dwattr $C$DW$814, DW_AT_accessibility(DW_ACCESS_public)
    6495              $C$DW$815       .dwtag  DW_TAG_member
    6496                      .dwattr $C$DW$815, DW_AT_type(*$C$DW$T$144)
    6497                      .dwattr $C$DW$815, DW_AT_name("ADCINT2_HP")
    6498                      .dwattr $C$DW$815, DW_AT_TI_symbol_name("_ADCINT2_HP")
    6499                      .dwattr $C$DW$815, DW_AT_data_member_location[DW_OP_plus_uconst 0x62]
    6500                      .dwattr $C$DW$815, DW_AT_accessibility(DW_ACCESS_public)
    6501              $C$DW$816       .dwtag  DW_TAG_member
    6502                      .dwattr $C$DW$816, DW_AT_type(*$C$DW$T$144)
    6503                      .dwattr $C$DW$816, DW_AT_name("rsvd1_3")
    6504                      .dwattr $C$DW$816, DW_AT_TI_symbol_name("_rsvd1_3")
    6505                      .dwattr $C$DW$816, DW_AT_data_member_location[DW_OP_plus_uconst 0x64]
    6506                      .dwattr $C$DW$816, DW_AT_accessibility(DW_ACCESS_public)
    6507              $C$DW$817       .dwtag  DW_TAG_member
    6508                      .dwattr $C$DW$817, DW_AT_type(*$C$DW$T$144)
    6509                      .dwattr $C$DW$817, DW_AT_name("XINT1")
    6510                      .dwattr $C$DW$817, DW_AT_TI_symbol_name("_XINT1")
    6511                      .dwattr $C$DW$817, DW_AT_data_member_location[DW_OP_plus_uconst 0x66]
    6512                      .dwattr $C$DW$817, DW_AT_accessibility(DW_ACCESS_public)
    6513              $C$DW$818       .dwtag  DW_TAG_member
    6514                      .dwattr $C$DW$818, DW_AT_type(*$C$DW$T$144)
    6515                      .dwattr $C$DW$818, DW_AT_name("XINT2")
    6516                      .dwattr $C$DW$818, DW_AT_TI_symbol_name("_XINT2")
    6517                      .dwattr $C$DW$818, DW_AT_data_member_location[DW_OP_plus_uconst 0x68]
    6518                      .dwattr $C$DW$818, DW_AT_accessibility(DW_ACCESS_public)
    6519              $C$DW$819       .dwtag  DW_TAG_member
    6520                      .dwattr $C$DW$819, DW_AT_type(*$C$DW$T$144)
    6521                      .dwattr $C$DW$819, DW_AT_name("ADCINT9")
    6522                      .dwattr $C$DW$819, DW_AT_TI_symbol_name("_ADCINT9")
    6523                      .dwattr $C$DW$819, DW_AT_data_member_location[DW_OP_plus_uconst 0x6a]
    6524                      .dwattr $C$DW$819, DW_AT_accessibility(DW_ACCESS_public)
    6525              $C$DW$820       .dwtag  DW_TAG_member
    6526                      .dwattr $C$DW$820, DW_AT_type(*$C$DW$T$144)
    6527                      .dwattr $C$DW$820, DW_AT_name("TINT0")
    6528                      .dwattr $C$DW$820, DW_AT_TI_symbol_name("_TINT0")
    6529                      .dwattr $C$DW$820, DW_AT_data_member_location[DW_OP_plus_uconst 0x6c]
TMS320C2000 Assembler PC v6.2.5 Wed Nov 22 14:48:16 2017

Tools Copyright (c) 1996-2014 Texas Instruments Incorporated
C:\Users\wmj\AppData\Local\Temp\1257612                              PAGE  124

    6530                      .dwattr $C$DW$820, DW_AT_accessibility(DW_ACCESS_public)
    6531              $C$DW$821       .dwtag  DW_TAG_member
    6532                      .dwattr $C$DW$821, DW_AT_type(*$C$DW$T$144)
    6533                      .dwattr $C$DW$821, DW_AT_name("WAKEINT")
    6534                      .dwattr $C$DW$821, DW_AT_TI_symbol_name("_WAKEINT")
    6535                      .dwattr $C$DW$821, DW_AT_data_member_location[DW_OP_plus_uconst 0x6e]
    6536                      .dwattr $C$DW$821, DW_AT_accessibility(DW_ACCESS_public)
    6537              $C$DW$822       .dwtag  DW_TAG_member
    6538                      .dwattr $C$DW$822, DW_AT_type(*$C$DW$T$144)
    6539                      .dwattr $C$DW$822, DW_AT_name("EPWM1_TZINT")
    6540                      .dwattr $C$DW$822, DW_AT_TI_symbol_name("_EPWM1_TZINT")
    6541                      .dwattr $C$DW$822, DW_AT_data_member_location[DW_OP_plus_uconst 0x70]
    6542                      .dwattr $C$DW$822, DW_AT_accessibility(DW_ACCESS_public)
    6543              $C$DW$823       .dwtag  DW_TAG_member
    6544                      .dwattr $C$DW$823, DW_AT_type(*$C$DW$T$144)
    6545                      .dwattr $C$DW$823, DW_AT_name("EPWM2_TZINT")
    6546                      .dwattr $C$DW$823, DW_AT_TI_symbol_name("_EPWM2_TZINT")
    6547                      .dwattr $C$DW$823, DW_AT_data_member_location[DW_OP_plus_uconst 0x72]
    6548                      .dwattr $C$DW$823, DW_AT_accessibility(DW_ACCESS_public)
    6549              $C$DW$824       .dwtag  DW_TAG_member
    6550                      .dwattr $C$DW$824, DW_AT_type(*$C$DW$T$144)
    6551                      .dwattr $C$DW$824, DW_AT_name("EPWM3_TZINT")
    6552                      .dwattr $C$DW$824, DW_AT_TI_symbol_name("_EPWM3_TZINT")
    6553                      .dwattr $C$DW$824, DW_AT_data_member_location[DW_OP_plus_uconst 0x74]
    6554                      .dwattr $C$DW$824, DW_AT_accessibility(DW_ACCESS_public)
    6555              $C$DW$825       .dwtag  DW_TAG_member
    6556                      .dwattr $C$DW$825, DW_AT_type(*$C$DW$T$144)
    6557                      .dwattr $C$DW$825, DW_AT_name("EPWM4_TZINT")
    6558                      .dwattr $C$DW$825, DW_AT_TI_symbol_name("_EPWM4_TZINT")
    6559                      .dwattr $C$DW$825, DW_AT_data_member_location[DW_OP_plus_uconst 0x76]
    6560                      .dwattr $C$DW$825, DW_AT_accessibility(DW_ACCESS_public)
    6561              $C$DW$826       .dwtag  DW_TAG_member
    6562                      .dwattr $C$DW$826, DW_AT_type(*$C$DW$T$144)
    6563                      .dwattr $C$DW$826, DW_AT_name("rsvd2_5")
    6564                      .dwattr $C$DW$826, DW_AT_TI_symbol_name("_rsvd2_5")
    6565                      .dwattr $C$DW$826, DW_AT_data_member_location[DW_OP_plus_uconst 0x78]
    6566                      .dwattr $C$DW$826, DW_AT_accessibility(DW_ACCESS_public)
    6567              $C$DW$827       .dwtag  DW_TAG_member
    6568                      .dwattr $C$DW$827, DW_AT_type(*$C$DW$T$144)
    6569                      .dwattr $C$DW$827, DW_AT_name("rsvd2_6")
    6570                      .dwattr $C$DW$827, DW_AT_TI_symbol_name("_rsvd2_6")
    6571                      .dwattr $C$DW$827, DW_AT_data_member_location[DW_OP_plus_uconst 0x7a]
    6572                      .dwattr $C$DW$827, DW_AT_accessibility(DW_ACCESS_public)
    6573              $C$DW$828       .dwtag  DW_TAG_member
    6574                      .dwattr $C$DW$828, DW_AT_type(*$C$DW$T$144)
    6575                      .dwattr $C$DW$828, DW_AT_name("rsvd2_7")
    6576                      .dwattr $C$DW$828, DW_AT_TI_symbol_name("_rsvd2_7")
    6577                      .dwattr $C$DW$828, DW_AT_data_member_location[DW_OP_plus_uconst 0x7c]
    6578                      .dwattr $C$DW$828, DW_AT_accessibility(DW_ACCESS_public)
    6579              $C$DW$829       .dwtag  DW_TAG_member
    6580                      .dwattr $C$DW$829, DW_AT_type(*$C$DW$T$144)
    6581                      .dwattr $C$DW$829, DW_AT_name("rsvd2_8")
    6582                      .dwattr $C$DW$829, DW_AT_TI_symbol_name("_rsvd2_8")
    6583                      .dwattr $C$DW$829, DW_AT_data_member_location[DW_OP_plus_uconst 0x7e]
    6584                      .dwattr $C$DW$829, DW_AT_accessibility(DW_ACCESS_public)
TMS320C2000 Assembler PC v6.2.5 Wed Nov 22 14:48:16 2017

Tools Copyright (c) 1996-2014 Texas Instruments Incorporated
C:\Users\wmj\AppData\Local\Temp\1257612                              PAGE  125

    6585              $C$DW$830       .dwtag  DW_TAG_member
    6586                      .dwattr $C$DW$830, DW_AT_type(*$C$DW$T$144)
    6587                      .dwattr $C$DW$830, DW_AT_name("EPWM1_INT")
    6588                      .dwattr $C$DW$830, DW_AT_TI_symbol_name("_EPWM1_INT")
    6589                      .dwattr $C$DW$830, DW_AT_data_member_location[DW_OP_plus_uconst 0x80]
    6590                      .dwattr $C$DW$830, DW_AT_accessibility(DW_ACCESS_public)
    6591              $C$DW$831       .dwtag  DW_TAG_member
    6592                      .dwattr $C$DW$831, DW_AT_type(*$C$DW$T$144)
    6593                      .dwattr $C$DW$831, DW_AT_name("EPWM2_INT")
    6594                      .dwattr $C$DW$831, DW_AT_TI_symbol_name("_EPWM2_INT")
    6595                      .dwattr $C$DW$831, DW_AT_data_member_location[DW_OP_plus_uconst 0x82]
    6596                      .dwattr $C$DW$831, DW_AT_accessibility(DW_ACCESS_public)
    6597              $C$DW$832       .dwtag  DW_TAG_member
    6598                      .dwattr $C$DW$832, DW_AT_type(*$C$DW$T$144)
    6599                      .dwattr $C$DW$832, DW_AT_name("EPWM3_INT")
    6600                      .dwattr $C$DW$832, DW_AT_TI_symbol_name("_EPWM3_INT")
    6601                      .dwattr $C$DW$832, DW_AT_data_member_location[DW_OP_plus_uconst 0x84]
    6602                      .dwattr $C$DW$832, DW_AT_accessibility(DW_ACCESS_public)
    6603              $C$DW$833       .dwtag  DW_TAG_member
    6604                      .dwattr $C$DW$833, DW_AT_type(*$C$DW$T$144)
    6605                      .dwattr $C$DW$833, DW_AT_name("EPWM4_INT")
    6606                      .dwattr $C$DW$833, DW_AT_TI_symbol_name("_EPWM4_INT")
    6607                      .dwattr $C$DW$833, DW_AT_data_member_location[DW_OP_plus_uconst 0x86]
    6608                      .dwattr $C$DW$833, DW_AT_accessibility(DW_ACCESS_public)
    6609              $C$DW$834       .dwtag  DW_TAG_member
    6610                      .dwattr $C$DW$834, DW_AT_type(*$C$DW$T$144)
    6611                      .dwattr $C$DW$834, DW_AT_name("rsvd3_5")
    6612                      .dwattr $C$DW$834, DW_AT_TI_symbol_name("_rsvd3_5")
    6613                      .dwattr $C$DW$834, DW_AT_data_member_location[DW_OP_plus_uconst 0x88]
    6614                      .dwattr $C$DW$834, DW_AT_accessibility(DW_ACCESS_public)
    6615              $C$DW$835       .dwtag  DW_TAG_member
    6616                      .dwattr $C$DW$835, DW_AT_type(*$C$DW$T$144)
    6617                      .dwattr $C$DW$835, DW_AT_name("rsvd3_6")
    6618                      .dwattr $C$DW$835, DW_AT_TI_symbol_name("_rsvd3_6")
    6619                      .dwattr $C$DW$835, DW_AT_data_member_location[DW_OP_plus_uconst 0x8a]
    6620                      .dwattr $C$DW$835, DW_AT_accessibility(DW_ACCESS_public)
    6621              $C$DW$836       .dwtag  DW_TAG_member
    6622                      .dwattr $C$DW$836, DW_AT_type(*$C$DW$T$144)
    6623                      .dwattr $C$DW$836, DW_AT_name("rsvd3_7")
    6624                      .dwattr $C$DW$836, DW_AT_TI_symbol_name("_rsvd3_7")
    6625                      .dwattr $C$DW$836, DW_AT_data_member_location[DW_OP_plus_uconst 0x8c]
    6626                      .dwattr $C$DW$836, DW_AT_accessibility(DW_ACCESS_public)
    6627              $C$DW$837       .dwtag  DW_TAG_member
    6628                      .dwattr $C$DW$837, DW_AT_type(*$C$DW$T$144)
    6629                      .dwattr $C$DW$837, DW_AT_name("rsvd3_8")
    6630                      .dwattr $C$DW$837, DW_AT_TI_symbol_name("_rsvd3_8")
    6631                      .dwattr $C$DW$837, DW_AT_data_member_location[DW_OP_plus_uconst 0x8e]
    6632                      .dwattr $C$DW$837, DW_AT_accessibility(DW_ACCESS_public)
    6633              $C$DW$838       .dwtag  DW_TAG_member
    6634                      .dwattr $C$DW$838, DW_AT_type(*$C$DW$T$144)
    6635                      .dwattr $C$DW$838, DW_AT_name("ECAP1_INT")
    6636                      .dwattr $C$DW$838, DW_AT_TI_symbol_name("_ECAP1_INT")
    6637                      .dwattr $C$DW$838, DW_AT_data_member_location[DW_OP_plus_uconst 0x90]
    6638                      .dwattr $C$DW$838, DW_AT_accessibility(DW_ACCESS_public)
    6639              $C$DW$839       .dwtag  DW_TAG_member
TMS320C2000 Assembler PC v6.2.5 Wed Nov 22 14:48:16 2017

Tools Copyright (c) 1996-2014 Texas Instruments Incorporated
C:\Users\wmj\AppData\Local\Temp\1257612                              PAGE  126

    6640                      .dwattr $C$DW$839, DW_AT_type(*$C$DW$T$144)
    6641                      .dwattr $C$DW$839, DW_AT_name("rsvd4_2")
    6642                      .dwattr $C$DW$839, DW_AT_TI_symbol_name("_rsvd4_2")
    6643                      .dwattr $C$DW$839, DW_AT_data_member_location[DW_OP_plus_uconst 0x92]
    6644                      .dwattr $C$DW$839, DW_AT_accessibility(DW_ACCESS_public)
    6645              $C$DW$840       .dwtag  DW_TAG_member
    6646                      .dwattr $C$DW$840, DW_AT_type(*$C$DW$T$144)
    6647                      .dwattr $C$DW$840, DW_AT_name("rsvd4_3")
    6648                      .dwattr $C$DW$840, DW_AT_TI_symbol_name("_rsvd4_3")
    6649                      .dwattr $C$DW$840, DW_AT_data_member_location[DW_OP_plus_uconst 0x94]
    6650                      .dwattr $C$DW$840, DW_AT_accessibility(DW_ACCESS_public)
    6651              $C$DW$841       .dwtag  DW_TAG_member
    6652                      .dwattr $C$DW$841, DW_AT_type(*$C$DW$T$144)
    6653                      .dwattr $C$DW$841, DW_AT_name("rsvd4_4")
    6654                      .dwattr $C$DW$841, DW_AT_TI_symbol_name("_rsvd4_4")
    6655                      .dwattr $C$DW$841, DW_AT_data_member_location[DW_OP_plus_uconst 0x96]
    6656                      .dwattr $C$DW$841, DW_AT_accessibility(DW_ACCESS_public)
    6657              $C$DW$842       .dwtag  DW_TAG_member
    6658                      .dwattr $C$DW$842, DW_AT_type(*$C$DW$T$144)
    6659                      .dwattr $C$DW$842, DW_AT_name("rsvd4_5")
    6660                      .dwattr $C$DW$842, DW_AT_TI_symbol_name("_rsvd4_5")
    6661                      .dwattr $C$DW$842, DW_AT_data_member_location[DW_OP_plus_uconst 0x98]
    6662                      .dwattr $C$DW$842, DW_AT_accessibility(DW_ACCESS_public)
    6663              $C$DW$843       .dwtag  DW_TAG_member
    6664                      .dwattr $C$DW$843, DW_AT_type(*$C$DW$T$144)
    6665                      .dwattr $C$DW$843, DW_AT_name("rsvd4_6")
    6666                      .dwattr $C$DW$843, DW_AT_TI_symbol_name("_rsvd4_6")
    6667                      .dwattr $C$DW$843, DW_AT_data_member_location[DW_OP_plus_uconst 0x9a]
    6668                      .dwattr $C$DW$843, DW_AT_accessibility(DW_ACCESS_public)
    6669              $C$DW$844       .dwtag  DW_TAG_member
    6670                      .dwattr $C$DW$844, DW_AT_type(*$C$DW$T$144)
    6671                      .dwattr $C$DW$844, DW_AT_name("rsvd4_7")
    6672                      .dwattr $C$DW$844, DW_AT_TI_symbol_name("_rsvd4_7")
    6673                      .dwattr $C$DW$844, DW_AT_data_member_location[DW_OP_plus_uconst 0x9c]
    6674                      .dwattr $C$DW$844, DW_AT_accessibility(DW_ACCESS_public)
    6675              $C$DW$845       .dwtag  DW_TAG_member
    6676                      .dwattr $C$DW$845, DW_AT_type(*$C$DW$T$144)
    6677                      .dwattr $C$DW$845, DW_AT_name("rsvd4_8")
    6678                      .dwattr $C$DW$845, DW_AT_TI_symbol_name("_rsvd4_8")
    6679                      .dwattr $C$DW$845, DW_AT_data_member_location[DW_OP_plus_uconst 0x9e]
    6680                      .dwattr $C$DW$845, DW_AT_accessibility(DW_ACCESS_public)
    6681              $C$DW$846       .dwtag  DW_TAG_member
    6682                      .dwattr $C$DW$846, DW_AT_type(*$C$DW$T$144)
    6683                      .dwattr $C$DW$846, DW_AT_name("rsvd5_1")
    6684                      .dwattr $C$DW$846, DW_AT_TI_symbol_name("_rsvd5_1")
    6685                      .dwattr $C$DW$846, DW_AT_data_member_location[DW_OP_plus_uconst 0xa0]
    6686                      .dwattr $C$DW$846, DW_AT_accessibility(DW_ACCESS_public)
    6687              $C$DW$847       .dwtag  DW_TAG_member
    6688                      .dwattr $C$DW$847, DW_AT_type(*$C$DW$T$144)
    6689                      .dwattr $C$DW$847, DW_AT_name("rsvd5_2")
    6690                      .dwattr $C$DW$847, DW_AT_TI_symbol_name("_rsvd5_2")
    6691                      .dwattr $C$DW$847, DW_AT_data_member_location[DW_OP_plus_uconst 0xa2]
    6692                      .dwattr $C$DW$847, DW_AT_accessibility(DW_ACCESS_public)
    6693              $C$DW$848       .dwtag  DW_TAG_member
    6694                      .dwattr $C$DW$848, DW_AT_type(*$C$DW$T$144)
TMS320C2000 Assembler PC v6.2.5 Wed Nov 22 14:48:16 2017

Tools Copyright (c) 1996-2014 Texas Instruments Incorporated
C:\Users\wmj\AppData\Local\Temp\1257612                              PAGE  127

    6695                      .dwattr $C$DW$848, DW_AT_name("rsvd5_3")
    6696                      .dwattr $C$DW$848, DW_AT_TI_symbol_name("_rsvd5_3")
    6697                      .dwattr $C$DW$848, DW_AT_data_member_location[DW_OP_plus_uconst 0xa4]
    6698                      .dwattr $C$DW$848, DW_AT_accessibility(DW_ACCESS_public)
    6699              $C$DW$849       .dwtag  DW_TAG_member
    6700                      .dwattr $C$DW$849, DW_AT_type(*$C$DW$T$144)
    6701                      .dwattr $C$DW$849, DW_AT_name("rsvd5_4")
    6702                      .dwattr $C$DW$849, DW_AT_TI_symbol_name("_rsvd5_4")
    6703                      .dwattr $C$DW$849, DW_AT_data_member_location[DW_OP_plus_uconst 0xa6]
    6704                      .dwattr $C$DW$849, DW_AT_accessibility(DW_ACCESS_public)
    6705              $C$DW$850       .dwtag  DW_TAG_member
    6706                      .dwattr $C$DW$850, DW_AT_type(*$C$DW$T$144)
    6707                      .dwattr $C$DW$850, DW_AT_name("rsvd5_5")
    6708                      .dwattr $C$DW$850, DW_AT_TI_symbol_name("_rsvd5_5")
    6709                      .dwattr $C$DW$850, DW_AT_data_member_location[DW_OP_plus_uconst 0xa8]
    6710                      .dwattr $C$DW$850, DW_AT_accessibility(DW_ACCESS_public)
    6711              $C$DW$851       .dwtag  DW_TAG_member
    6712                      .dwattr $C$DW$851, DW_AT_type(*$C$DW$T$144)
    6713                      .dwattr $C$DW$851, DW_AT_name("rsvd5_6")
    6714                      .dwattr $C$DW$851, DW_AT_TI_symbol_name("_rsvd5_6")
    6715                      .dwattr $C$DW$851, DW_AT_data_member_location[DW_OP_plus_uconst 0xaa]
    6716                      .dwattr $C$DW$851, DW_AT_accessibility(DW_ACCESS_public)
    6717              $C$DW$852       .dwtag  DW_TAG_member
    6718                      .dwattr $C$DW$852, DW_AT_type(*$C$DW$T$144)
    6719                      .dwattr $C$DW$852, DW_AT_name("rsvd5_7")
    6720                      .dwattr $C$DW$852, DW_AT_TI_symbol_name("_rsvd5_7")
    6721                      .dwattr $C$DW$852, DW_AT_data_member_location[DW_OP_plus_uconst 0xac]
    6722                      .dwattr $C$DW$852, DW_AT_accessibility(DW_ACCESS_public)
    6723              $C$DW$853       .dwtag  DW_TAG_member
    6724                      .dwattr $C$DW$853, DW_AT_type(*$C$DW$T$144)
    6725                      .dwattr $C$DW$853, DW_AT_name("rsvd5_8")
    6726                      .dwattr $C$DW$853, DW_AT_TI_symbol_name("_rsvd5_8")
    6727                      .dwattr $C$DW$853, DW_AT_data_member_location[DW_OP_plus_uconst 0xae]
    6728                      .dwattr $C$DW$853, DW_AT_accessibility(DW_ACCESS_public)
    6729              $C$DW$854       .dwtag  DW_TAG_member
    6730                      .dwattr $C$DW$854, DW_AT_type(*$C$DW$T$144)
    6731                      .dwattr $C$DW$854, DW_AT_name("SPIRXINTA")
    6732                      .dwattr $C$DW$854, DW_AT_TI_symbol_name("_SPIRXINTA")
    6733                      .dwattr $C$DW$854, DW_AT_data_member_location[DW_OP_plus_uconst 0xb0]
    6734                      .dwattr $C$DW$854, DW_AT_accessibility(DW_ACCESS_public)
    6735              $C$DW$855       .dwtag  DW_TAG_member
    6736                      .dwattr $C$DW$855, DW_AT_type(*$C$DW$T$144)
    6737                      .dwattr $C$DW$855, DW_AT_name("SPITXINTA")
    6738                      .dwattr $C$DW$855, DW_AT_TI_symbol_name("_SPITXINTA")
    6739                      .dwattr $C$DW$855, DW_AT_data_member_location[DW_OP_plus_uconst 0xb2]
    6740                      .dwattr $C$DW$855, DW_AT_accessibility(DW_ACCESS_public)
    6741              $C$DW$856       .dwtag  DW_TAG_member
    6742                      .dwattr $C$DW$856, DW_AT_type(*$C$DW$T$144)
    6743                      .dwattr $C$DW$856, DW_AT_name("rsvd6_3")
    6744                      .dwattr $C$DW$856, DW_AT_TI_symbol_name("_rsvd6_3")
    6745                      .dwattr $C$DW$856, DW_AT_data_member_location[DW_OP_plus_uconst 0xb4]
    6746                      .dwattr $C$DW$856, DW_AT_accessibility(DW_ACCESS_public)
    6747              $C$DW$857       .dwtag  DW_TAG_member
    6748                      .dwattr $C$DW$857, DW_AT_type(*$C$DW$T$144)
    6749                      .dwattr $C$DW$857, DW_AT_name("rsvd6_4")
TMS320C2000 Assembler PC v6.2.5 Wed Nov 22 14:48:16 2017

Tools Copyright (c) 1996-2014 Texas Instruments Incorporated
C:\Users\wmj\AppData\Local\Temp\1257612                              PAGE  128

    6750                      .dwattr $C$DW$857, DW_AT_TI_symbol_name("_rsvd6_4")
    6751                      .dwattr $C$DW$857, DW_AT_data_member_location[DW_OP_plus_uconst 0xb6]
    6752                      .dwattr $C$DW$857, DW_AT_accessibility(DW_ACCESS_public)
    6753              $C$DW$858       .dwtag  DW_TAG_member
    6754                      .dwattr $C$DW$858, DW_AT_type(*$C$DW$T$144)
    6755                      .dwattr $C$DW$858, DW_AT_name("rsvd6_5")
    6756                      .dwattr $C$DW$858, DW_AT_TI_symbol_name("_rsvd6_5")
    6757                      .dwattr $C$DW$858, DW_AT_data_member_location[DW_OP_plus_uconst 0xb8]
    6758                      .dwattr $C$DW$858, DW_AT_accessibility(DW_ACCESS_public)
    6759              $C$DW$859       .dwtag  DW_TAG_member
    6760                      .dwattr $C$DW$859, DW_AT_type(*$C$DW$T$144)
    6761                      .dwattr $C$DW$859, DW_AT_name("rsvd6_6")
    6762                      .dwattr $C$DW$859, DW_AT_TI_symbol_name("_rsvd6_6")
    6763                      .dwattr $C$DW$859, DW_AT_data_member_location[DW_OP_plus_uconst 0xba]
    6764                      .dwattr $C$DW$859, DW_AT_accessibility(DW_ACCESS_public)
    6765              $C$DW$860       .dwtag  DW_TAG_member
    6766                      .dwattr $C$DW$860, DW_AT_type(*$C$DW$T$144)
    6767                      .dwattr $C$DW$860, DW_AT_name("rsvd6_7")
    6768                      .dwattr $C$DW$860, DW_AT_TI_symbol_name("_rsvd6_7")
    6769                      .dwattr $C$DW$860, DW_AT_data_member_location[DW_OP_plus_uconst 0xbc]
    6770                      .dwattr $C$DW$860, DW_AT_accessibility(DW_ACCESS_public)
    6771              $C$DW$861       .dwtag  DW_TAG_member
    6772                      .dwattr $C$DW$861, DW_AT_type(*$C$DW$T$144)
    6773                      .dwattr $C$DW$861, DW_AT_name("rsvd6_8")
    6774                      .dwattr $C$DW$861, DW_AT_TI_symbol_name("_rsvd6_8")
    6775                      .dwattr $C$DW$861, DW_AT_data_member_location[DW_OP_plus_uconst 0xbe]
    6776                      .dwattr $C$DW$861, DW_AT_accessibility(DW_ACCESS_public)
    6777              $C$DW$862       .dwtag  DW_TAG_member
    6778                      .dwattr $C$DW$862, DW_AT_type(*$C$DW$T$144)
    6779                      .dwattr $C$DW$862, DW_AT_name("rsvd7_1")
    6780                      .dwattr $C$DW$862, DW_AT_TI_symbol_name("_rsvd7_1")
    6781                      .dwattr $C$DW$862, DW_AT_data_member_location[DW_OP_plus_uconst 0xc0]
    6782                      .dwattr $C$DW$862, DW_AT_accessibility(DW_ACCESS_public)
    6783              $C$DW$863       .dwtag  DW_TAG_member
    6784                      .dwattr $C$DW$863, DW_AT_type(*$C$DW$T$144)
    6785                      .dwattr $C$DW$863, DW_AT_name("rsvd7_2")
    6786                      .dwattr $C$DW$863, DW_AT_TI_symbol_name("_rsvd7_2")
    6787                      .dwattr $C$DW$863, DW_AT_data_member_location[DW_OP_plus_uconst 0xc2]
    6788                      .dwattr $C$DW$863, DW_AT_accessibility(DW_ACCESS_public)
    6789              $C$DW$864       .dwtag  DW_TAG_member
    6790                      .dwattr $C$DW$864, DW_AT_type(*$C$DW$T$144)
    6791                      .dwattr $C$DW$864, DW_AT_name("rsvd7_3")
    6792                      .dwattr $C$DW$864, DW_AT_TI_symbol_name("_rsvd7_3")
    6793                      .dwattr $C$DW$864, DW_AT_data_member_location[DW_OP_plus_uconst 0xc4]
    6794                      .dwattr $C$DW$864, DW_AT_accessibility(DW_ACCESS_public)
    6795              $C$DW$865       .dwtag  DW_TAG_member
    6796                      .dwattr $C$DW$865, DW_AT_type(*$C$DW$T$144)
    6797                      .dwattr $C$DW$865, DW_AT_name("rsvd7_4")
    6798                      .dwattr $C$DW$865, DW_AT_TI_symbol_name("_rsvd7_4")
    6799                      .dwattr $C$DW$865, DW_AT_data_member_location[DW_OP_plus_uconst 0xc6]
    6800                      .dwattr $C$DW$865, DW_AT_accessibility(DW_ACCESS_public)
    6801              $C$DW$866       .dwtag  DW_TAG_member
    6802                      .dwattr $C$DW$866, DW_AT_type(*$C$DW$T$144)
    6803                      .dwattr $C$DW$866, DW_AT_name("rsvd7_5")
    6804                      .dwattr $C$DW$866, DW_AT_TI_symbol_name("_rsvd7_5")
TMS320C2000 Assembler PC v6.2.5 Wed Nov 22 14:48:16 2017

Tools Copyright (c) 1996-2014 Texas Instruments Incorporated
C:\Users\wmj\AppData\Local\Temp\1257612                              PAGE  129

    6805                      .dwattr $C$DW$866, DW_AT_data_member_location[DW_OP_plus_uconst 0xc8]
    6806                      .dwattr $C$DW$866, DW_AT_accessibility(DW_ACCESS_public)
    6807              $C$DW$867       .dwtag  DW_TAG_member
    6808                      .dwattr $C$DW$867, DW_AT_type(*$C$DW$T$144)
    6809                      .dwattr $C$DW$867, DW_AT_name("rsvd7_6")
    6810                      .dwattr $C$DW$867, DW_AT_TI_symbol_name("_rsvd7_6")
    6811                      .dwattr $C$DW$867, DW_AT_data_member_location[DW_OP_plus_uconst 0xca]
    6812                      .dwattr $C$DW$867, DW_AT_accessibility(DW_ACCESS_public)
    6813              $C$DW$868       .dwtag  DW_TAG_member
    6814                      .dwattr $C$DW$868, DW_AT_type(*$C$DW$T$144)
    6815                      .dwattr $C$DW$868, DW_AT_name("rsvd7_7")
    6816                      .dwattr $C$DW$868, DW_AT_TI_symbol_name("_rsvd7_7")
    6817                      .dwattr $C$DW$868, DW_AT_data_member_location[DW_OP_plus_uconst 0xcc]
    6818                      .dwattr $C$DW$868, DW_AT_accessibility(DW_ACCESS_public)
    6819              $C$DW$869       .dwtag  DW_TAG_member
    6820                      .dwattr $C$DW$869, DW_AT_type(*$C$DW$T$144)
    6821                      .dwattr $C$DW$869, DW_AT_name("rsvd7_8")
    6822                      .dwattr $C$DW$869, DW_AT_TI_symbol_name("_rsvd7_8")
    6823                      .dwattr $C$DW$869, DW_AT_data_member_location[DW_OP_plus_uconst 0xce]
    6824                      .dwattr $C$DW$869, DW_AT_accessibility(DW_ACCESS_public)
    6825              $C$DW$870       .dwtag  DW_TAG_member
    6826                      .dwattr $C$DW$870, DW_AT_type(*$C$DW$T$144)
    6827                      .dwattr $C$DW$870, DW_AT_name("I2CINT1A")
    6828                      .dwattr $C$DW$870, DW_AT_TI_symbol_name("_I2CINT1A")
    6829                      .dwattr $C$DW$870, DW_AT_data_member_location[DW_OP_plus_uconst 0xd0]
    6830                      .dwattr $C$DW$870, DW_AT_accessibility(DW_ACCESS_public)
    6831              $C$DW$871       .dwtag  DW_TAG_member
    6832                      .dwattr $C$DW$871, DW_AT_type(*$C$DW$T$144)
    6833                      .dwattr $C$DW$871, DW_AT_name("I2CINT2A")
    6834                      .dwattr $C$DW$871, DW_AT_TI_symbol_name("_I2CINT2A")
    6835                      .dwattr $C$DW$871, DW_AT_data_member_location[DW_OP_plus_uconst 0xd2]
    6836                      .dwattr $C$DW$871, DW_AT_accessibility(DW_ACCESS_public)
    6837              $C$DW$872       .dwtag  DW_TAG_member
    6838                      .dwattr $C$DW$872, DW_AT_type(*$C$DW$T$144)
    6839                      .dwattr $C$DW$872, DW_AT_name("rsvd8_3")
    6840                      .dwattr $C$DW$872, DW_AT_TI_symbol_name("_rsvd8_3")
    6841                      .dwattr $C$DW$872, DW_AT_data_member_location[DW_OP_plus_uconst 0xd4]
    6842                      .dwattr $C$DW$872, DW_AT_accessibility(DW_ACCESS_public)
    6843              $C$DW$873       .dwtag  DW_TAG_member
    6844                      .dwattr $C$DW$873, DW_AT_type(*$C$DW$T$144)
    6845                      .dwattr $C$DW$873, DW_AT_name("rsvd8_4")
    6846                      .dwattr $C$DW$873, DW_AT_TI_symbol_name("_rsvd8_4")
    6847                      .dwattr $C$DW$873, DW_AT_data_member_location[DW_OP_plus_uconst 0xd6]
    6848                      .dwattr $C$DW$873, DW_AT_accessibility(DW_ACCESS_public)
    6849              $C$DW$874       .dwtag  DW_TAG_member
    6850                      .dwattr $C$DW$874, DW_AT_type(*$C$DW$T$144)
    6851                      .dwattr $C$DW$874, DW_AT_name("rsvd8_5")
    6852                      .dwattr $C$DW$874, DW_AT_TI_symbol_name("_rsvd8_5")
    6853                      .dwattr $C$DW$874, DW_AT_data_member_location[DW_OP_plus_uconst 0xd8]
    6854                      .dwattr $C$DW$874, DW_AT_accessibility(DW_ACCESS_public)
    6855              $C$DW$875       .dwtag  DW_TAG_member
    6856                      .dwattr $C$DW$875, DW_AT_type(*$C$DW$T$144)
    6857                      .dwattr $C$DW$875, DW_AT_name("rsvd8_6")
    6858                      .dwattr $C$DW$875, DW_AT_TI_symbol_name("_rsvd8_6")
    6859                      .dwattr $C$DW$875, DW_AT_data_member_location[DW_OP_plus_uconst 0xda]
TMS320C2000 Assembler PC v6.2.5 Wed Nov 22 14:48:16 2017

Tools Copyright (c) 1996-2014 Texas Instruments Incorporated
C:\Users\wmj\AppData\Local\Temp\1257612                              PAGE  130

    6860                      .dwattr $C$DW$875, DW_AT_accessibility(DW_ACCESS_public)
    6861              $C$DW$876       .dwtag  DW_TAG_member
    6862                      .dwattr $C$DW$876, DW_AT_type(*$C$DW$T$144)
    6863                      .dwattr $C$DW$876, DW_AT_name("rsvd8_7")
    6864                      .dwattr $C$DW$876, DW_AT_TI_symbol_name("_rsvd8_7")
    6865                      .dwattr $C$DW$876, DW_AT_data_member_location[DW_OP_plus_uconst 0xdc]
    6866                      .dwattr $C$DW$876, DW_AT_accessibility(DW_ACCESS_public)
    6867              $C$DW$877       .dwtag  DW_TAG_member
    6868                      .dwattr $C$DW$877, DW_AT_type(*$C$DW$T$144)
    6869                      .dwattr $C$DW$877, DW_AT_name("rsvd8_8")
    6870                      .dwattr $C$DW$877, DW_AT_TI_symbol_name("_rsvd8_8")
    6871                      .dwattr $C$DW$877, DW_AT_data_member_location[DW_OP_plus_uconst 0xde]
    6872                      .dwattr $C$DW$877, DW_AT_accessibility(DW_ACCESS_public)
    6873              $C$DW$878       .dwtag  DW_TAG_member
    6874                      .dwattr $C$DW$878, DW_AT_type(*$C$DW$T$144)
    6875                      .dwattr $C$DW$878, DW_AT_name("SCIRXINTA")
    6876                      .dwattr $C$DW$878, DW_AT_TI_symbol_name("_SCIRXINTA")
    6877                      .dwattr $C$DW$878, DW_AT_data_member_location[DW_OP_plus_uconst 0xe0]
    6878                      .dwattr $C$DW$878, DW_AT_accessibility(DW_ACCESS_public)
    6879              $C$DW$879       .dwtag  DW_TAG_member
    6880                      .dwattr $C$DW$879, DW_AT_type(*$C$DW$T$144)
    6881                      .dwattr $C$DW$879, DW_AT_name("SCITXINTA")
    6882                      .dwattr $C$DW$879, DW_AT_TI_symbol_name("_SCITXINTA")
    6883                      .dwattr $C$DW$879, DW_AT_data_member_location[DW_OP_plus_uconst 0xe2]
    6884                      .dwattr $C$DW$879, DW_AT_accessibility(DW_ACCESS_public)
    6885              $C$DW$880       .dwtag  DW_TAG_member
    6886                      .dwattr $C$DW$880, DW_AT_type(*$C$DW$T$144)
    6887                      .dwattr $C$DW$880, DW_AT_name("rsvd9_3")
    6888                      .dwattr $C$DW$880, DW_AT_TI_symbol_name("_rsvd9_3")
    6889                      .dwattr $C$DW$880, DW_AT_data_member_location[DW_OP_plus_uconst 0xe4]
    6890                      .dwattr $C$DW$880, DW_AT_accessibility(DW_ACCESS_public)
    6891              $C$DW$881       .dwtag  DW_TAG_member
    6892                      .dwattr $C$DW$881, DW_AT_type(*$C$DW$T$144)
    6893                      .dwattr $C$DW$881, DW_AT_name("rsvd9_4")
    6894                      .dwattr $C$DW$881, DW_AT_TI_symbol_name("_rsvd9_4")
    6895                      .dwattr $C$DW$881, DW_AT_data_member_location[DW_OP_plus_uconst 0xe6]
    6896                      .dwattr $C$DW$881, DW_AT_accessibility(DW_ACCESS_public)
    6897              $C$DW$882       .dwtag  DW_TAG_member
    6898                      .dwattr $C$DW$882, DW_AT_type(*$C$DW$T$144)
    6899                      .dwattr $C$DW$882, DW_AT_name("rsvd9_5")
    6900                      .dwattr $C$DW$882, DW_AT_TI_symbol_name("_rsvd9_5")
    6901                      .dwattr $C$DW$882, DW_AT_data_member_location[DW_OP_plus_uconst 0xe8]
    6902                      .dwattr $C$DW$882, DW_AT_accessibility(DW_ACCESS_public)
    6903              $C$DW$883       .dwtag  DW_TAG_member
    6904                      .dwattr $C$DW$883, DW_AT_type(*$C$DW$T$144)
    6905                      .dwattr $C$DW$883, DW_AT_name("rsvd9_6")
    6906                      .dwattr $C$DW$883, DW_AT_TI_symbol_name("_rsvd9_6")
    6907                      .dwattr $C$DW$883, DW_AT_data_member_location[DW_OP_plus_uconst 0xea]
    6908                      .dwattr $C$DW$883, DW_AT_accessibility(DW_ACCESS_public)
    6909              $C$DW$884       .dwtag  DW_TAG_member
    6910                      .dwattr $C$DW$884, DW_AT_type(*$C$DW$T$144)
    6911                      .dwattr $C$DW$884, DW_AT_name("rsvd9_7")
    6912                      .dwattr $C$DW$884, DW_AT_TI_symbol_name("_rsvd9_7")
    6913                      .dwattr $C$DW$884, DW_AT_data_member_location[DW_OP_plus_uconst 0xec]
    6914                      .dwattr $C$DW$884, DW_AT_accessibility(DW_ACCESS_public)
TMS320C2000 Assembler PC v6.2.5 Wed Nov 22 14:48:16 2017

Tools Copyright (c) 1996-2014 Texas Instruments Incorporated
C:\Users\wmj\AppData\Local\Temp\1257612                              PAGE  131

    6915              $C$DW$885       .dwtag  DW_TAG_member
    6916                      .dwattr $C$DW$885, DW_AT_type(*$C$DW$T$144)
    6917                      .dwattr $C$DW$885, DW_AT_name("rsvd9_8")
    6918                      .dwattr $C$DW$885, DW_AT_TI_symbol_name("_rsvd9_8")
    6919                      .dwattr $C$DW$885, DW_AT_data_member_location[DW_OP_plus_uconst 0xee]
    6920                      .dwattr $C$DW$885, DW_AT_accessibility(DW_ACCESS_public)
    6921              $C$DW$886       .dwtag  DW_TAG_member
    6922                      .dwattr $C$DW$886, DW_AT_type(*$C$DW$T$144)
    6923                      .dwattr $C$DW$886, DW_AT_name("ADCINT1")
    6924                      .dwattr $C$DW$886, DW_AT_TI_symbol_name("_ADCINT1")
    6925                      .dwattr $C$DW$886, DW_AT_data_member_location[DW_OP_plus_uconst 0xf0]
    6926                      .dwattr $C$DW$886, DW_AT_accessibility(DW_ACCESS_public)
    6927              $C$DW$887       .dwtag  DW_TAG_member
    6928                      .dwattr $C$DW$887, DW_AT_type(*$C$DW$T$144)
    6929                      .dwattr $C$DW$887, DW_AT_name("ADCINT2")
    6930                      .dwattr $C$DW$887, DW_AT_TI_symbol_name("_ADCINT2")
    6931                      .dwattr $C$DW$887, DW_AT_data_member_location[DW_OP_plus_uconst 0xf2]
    6932                      .dwattr $C$DW$887, DW_AT_accessibility(DW_ACCESS_public)
    6933              $C$DW$888       .dwtag  DW_TAG_member
    6934                      .dwattr $C$DW$888, DW_AT_type(*$C$DW$T$144)
    6935                      .dwattr $C$DW$888, DW_AT_name("ADCINT3")
    6936                      .dwattr $C$DW$888, DW_AT_TI_symbol_name("_ADCINT3")
    6937                      .dwattr $C$DW$888, DW_AT_data_member_location[DW_OP_plus_uconst 0xf4]
    6938                      .dwattr $C$DW$888, DW_AT_accessibility(DW_ACCESS_public)
    6939              $C$DW$889       .dwtag  DW_TAG_member
    6940                      .dwattr $C$DW$889, DW_AT_type(*$C$DW$T$144)
    6941                      .dwattr $C$DW$889, DW_AT_name("ADCINT4")
    6942                      .dwattr $C$DW$889, DW_AT_TI_symbol_name("_ADCINT4")
    6943                      .dwattr $C$DW$889, DW_AT_data_member_location[DW_OP_plus_uconst 0xf6]
    6944                      .dwattr $C$DW$889, DW_AT_accessibility(DW_ACCESS_public)
    6945              $C$DW$890       .dwtag  DW_TAG_member
    6946                      .dwattr $C$DW$890, DW_AT_type(*$C$DW$T$144)
    6947                      .dwattr $C$DW$890, DW_AT_name("ADCINT5")
    6948                      .dwattr $C$DW$890, DW_AT_TI_symbol_name("_ADCINT5")
    6949                      .dwattr $C$DW$890, DW_AT_data_member_location[DW_OP_plus_uconst 0xf8]
    6950                      .dwattr $C$DW$890, DW_AT_accessibility(DW_ACCESS_public)
    6951              $C$DW$891       .dwtag  DW_TAG_member
    6952                      .dwattr $C$DW$891, DW_AT_type(*$C$DW$T$144)
    6953                      .dwattr $C$DW$891, DW_AT_name("ADCINT6")
    6954                      .dwattr $C$DW$891, DW_AT_TI_symbol_name("_ADCINT6")
    6955                      .dwattr $C$DW$891, DW_AT_data_member_location[DW_OP_plus_uconst 0xfa]
    6956                      .dwattr $C$DW$891, DW_AT_accessibility(DW_ACCESS_public)
    6957              $C$DW$892       .dwtag  DW_TAG_member
    6958                      .dwattr $C$DW$892, DW_AT_type(*$C$DW$T$144)
    6959                      .dwattr $C$DW$892, DW_AT_name("ADCINT7")
    6960                      .dwattr $C$DW$892, DW_AT_TI_symbol_name("_ADCINT7")
    6961                      .dwattr $C$DW$892, DW_AT_data_member_location[DW_OP_plus_uconst 0xfc]
    6962                      .dwattr $C$DW$892, DW_AT_accessibility(DW_ACCESS_public)
    6963              $C$DW$893       .dwtag  DW_TAG_member
    6964                      .dwattr $C$DW$893, DW_AT_type(*$C$DW$T$144)
    6965                      .dwattr $C$DW$893, DW_AT_name("ADCINT8")
    6966                      .dwattr $C$DW$893, DW_AT_TI_symbol_name("_ADCINT8")
    6967                      .dwattr $C$DW$893, DW_AT_data_member_location[DW_OP_plus_uconst 0xfe]
    6968                      .dwattr $C$DW$893, DW_AT_accessibility(DW_ACCESS_public)
    6969              $C$DW$894       .dwtag  DW_TAG_member
TMS320C2000 Assembler PC v6.2.5 Wed Nov 22 14:48:16 2017

Tools Copyright (c) 1996-2014 Texas Instruments Incorporated
C:\Users\wmj\AppData\Local\Temp\1257612                              PAGE  132

    6970                      .dwattr $C$DW$894, DW_AT_type(*$C$DW$T$144)
    6971                      .dwattr $C$DW$894, DW_AT_name("rsvd11_1")
    6972                      .dwattr $C$DW$894, DW_AT_TI_symbol_name("_rsvd11_1")
    6973                      .dwattr $C$DW$894, DW_AT_data_member_location[DW_OP_plus_uconst 0x100]
    6974                      .dwattr $C$DW$894, DW_AT_accessibility(DW_ACCESS_public)
    6975              $C$DW$895       .dwtag  DW_TAG_member
    6976                      .dwattr $C$DW$895, DW_AT_type(*$C$DW$T$144)
    6977                      .dwattr $C$DW$895, DW_AT_name("rsvd11_2")
    6978                      .dwattr $C$DW$895, DW_AT_TI_symbol_name("_rsvd11_2")
    6979                      .dwattr $C$DW$895, DW_AT_data_member_location[DW_OP_plus_uconst 0x102]
    6980                      .dwattr $C$DW$895, DW_AT_accessibility(DW_ACCESS_public)
    6981              $C$DW$896       .dwtag  DW_TAG_member
    6982                      .dwattr $C$DW$896, DW_AT_type(*$C$DW$T$144)
    6983                      .dwattr $C$DW$896, DW_AT_name("rsvd11_3")
    6984                      .dwattr $C$DW$896, DW_AT_TI_symbol_name("_rsvd11_3")
    6985                      .dwattr $C$DW$896, DW_AT_data_member_location[DW_OP_plus_uconst 0x104]
    6986                      .dwattr $C$DW$896, DW_AT_accessibility(DW_ACCESS_public)
    6987              $C$DW$897       .dwtag  DW_TAG_member
    6988                      .dwattr $C$DW$897, DW_AT_type(*$C$DW$T$144)
    6989                      .dwattr $C$DW$897, DW_AT_name("rsvd11_4")
    6990                      .dwattr $C$DW$897, DW_AT_TI_symbol_name("_rsvd11_4")
    6991                      .dwattr $C$DW$897, DW_AT_data_member_location[DW_OP_plus_uconst 0x106]
    6992                      .dwattr $C$DW$897, DW_AT_accessibility(DW_ACCESS_public)
    6993              $C$DW$898       .dwtag  DW_TAG_member
    6994                      .dwattr $C$DW$898, DW_AT_type(*$C$DW$T$144)
    6995                      .dwattr $C$DW$898, DW_AT_name("rsvd11_5")
    6996                      .dwattr $C$DW$898, DW_AT_TI_symbol_name("_rsvd11_5")
    6997                      .dwattr $C$DW$898, DW_AT_data_member_location[DW_OP_plus_uconst 0x108]
    6998                      .dwattr $C$DW$898, DW_AT_accessibility(DW_ACCESS_public)
    6999              $C$DW$899       .dwtag  DW_TAG_member
    7000                      .dwattr $C$DW$899, DW_AT_type(*$C$DW$T$144)
    7001                      .dwattr $C$DW$899, DW_AT_name("rsvd11_6")
    7002                      .dwattr $C$DW$899, DW_AT_TI_symbol_name("_rsvd11_6")
    7003                      .dwattr $C$DW$899, DW_AT_data_member_location[DW_OP_plus_uconst 0x10a]
    7004                      .dwattr $C$DW$899, DW_AT_accessibility(DW_ACCESS_public)
    7005              $C$DW$900       .dwtag  DW_TAG_member
    7006                      .dwattr $C$DW$900, DW_AT_type(*$C$DW$T$144)
    7007                      .dwattr $C$DW$900, DW_AT_name("rsvd11_7")
    7008                      .dwattr $C$DW$900, DW_AT_TI_symbol_name("_rsvd11_7")
    7009                      .dwattr $C$DW$900, DW_AT_data_member_location[DW_OP_plus_uconst 0x10c]
    7010                      .dwattr $C$DW$900, DW_AT_accessibility(DW_ACCESS_public)
    7011              $C$DW$901       .dwtag  DW_TAG_member
    7012                      .dwattr $C$DW$901, DW_AT_type(*$C$DW$T$144)
    7013                      .dwattr $C$DW$901, DW_AT_name("rsvd11_8")
    7014                      .dwattr $C$DW$901, DW_AT_TI_symbol_name("_rsvd11_8")
    7015                      .dwattr $C$DW$901, DW_AT_data_member_location[DW_OP_plus_uconst 0x10e]
    7016                      .dwattr $C$DW$901, DW_AT_accessibility(DW_ACCESS_public)
    7017              $C$DW$902       .dwtag  DW_TAG_member
    7018                      .dwattr $C$DW$902, DW_AT_type(*$C$DW$T$144)
    7019                      .dwattr $C$DW$902, DW_AT_name("XINT3")
    7020                      .dwattr $C$DW$902, DW_AT_TI_symbol_name("_XINT3")
    7021                      .dwattr $C$DW$902, DW_AT_data_member_location[DW_OP_plus_uconst 0x110]
    7022                      .dwattr $C$DW$902, DW_AT_accessibility(DW_ACCESS_public)
    7023              $C$DW$903       .dwtag  DW_TAG_member
    7024                      .dwattr $C$DW$903, DW_AT_type(*$C$DW$T$144)
TMS320C2000 Assembler PC v6.2.5 Wed Nov 22 14:48:16 2017

Tools Copyright (c) 1996-2014 Texas Instruments Incorporated
C:\Users\wmj\AppData\Local\Temp\1257612                              PAGE  133

    7025                      .dwattr $C$DW$903, DW_AT_name("rsvd12_2")
    7026                      .dwattr $C$DW$903, DW_AT_TI_symbol_name("_rsvd12_2")
    7027                      .dwattr $C$DW$903, DW_AT_data_member_location[DW_OP_plus_uconst 0x112]
    7028                      .dwattr $C$DW$903, DW_AT_accessibility(DW_ACCESS_public)
    7029              $C$DW$904       .dwtag  DW_TAG_member
    7030                      .dwattr $C$DW$904, DW_AT_type(*$C$DW$T$144)
    7031                      .dwattr $C$DW$904, DW_AT_name("rsvd12_3")
    7032                      .dwattr $C$DW$904, DW_AT_TI_symbol_name("_rsvd12_3")
    7033                      .dwattr $C$DW$904, DW_AT_data_member_location[DW_OP_plus_uconst 0x114]
    7034                      .dwattr $C$DW$904, DW_AT_accessibility(DW_ACCESS_public)
    7035              $C$DW$905       .dwtag  DW_TAG_member
    7036                      .dwattr $C$DW$905, DW_AT_type(*$C$DW$T$144)
    7037                      .dwattr $C$DW$905, DW_AT_name("rsvd12_4")
    7038                      .dwattr $C$DW$905, DW_AT_TI_symbol_name("_rsvd12_4")
    7039                      .dwattr $C$DW$905, DW_AT_data_member_location[DW_OP_plus_uconst 0x116]
    7040                      .dwattr $C$DW$905, DW_AT_accessibility(DW_ACCESS_public)
    7041              $C$DW$906       .dwtag  DW_TAG_member
    7042                      .dwattr $C$DW$906, DW_AT_type(*$C$DW$T$144)
    7043                      .dwattr $C$DW$906, DW_AT_name("rsvd12_5")
    7044                      .dwattr $C$DW$906, DW_AT_TI_symbol_name("_rsvd12_5")
    7045                      .dwattr $C$DW$906, DW_AT_data_member_location[DW_OP_plus_uconst 0x118]
    7046                      .dwattr $C$DW$906, DW_AT_accessibility(DW_ACCESS_public)
    7047              $C$DW$907       .dwtag  DW_TAG_member
    7048                      .dwattr $C$DW$907, DW_AT_type(*$C$DW$T$144)
    7049                      .dwattr $C$DW$907, DW_AT_name("rsvd12_6")
    7050                      .dwattr $C$DW$907, DW_AT_TI_symbol_name("_rsvd12_6")
    7051                      .dwattr $C$DW$907, DW_AT_data_member_location[DW_OP_plus_uconst 0x11a]
    7052                      .dwattr $C$DW$907, DW_AT_accessibility(DW_ACCESS_public)
    7053              $C$DW$908       .dwtag  DW_TAG_member
    7054                      .dwattr $C$DW$908, DW_AT_type(*$C$DW$T$144)
    7055                      .dwattr $C$DW$908, DW_AT_name("rsvd12_7")
    7056                      .dwattr $C$DW$908, DW_AT_TI_symbol_name("_rsvd12_7")
    7057                      .dwattr $C$DW$908, DW_AT_data_member_location[DW_OP_plus_uconst 0x11c]
    7058                      .dwattr $C$DW$908, DW_AT_accessibility(DW_ACCESS_public)
    7059              $C$DW$909       .dwtag  DW_TAG_member
    7060                      .dwattr $C$DW$909, DW_AT_type(*$C$DW$T$144)
    7061                      .dwattr $C$DW$909, DW_AT_name("rsvd12_8")
    7062                      .dwattr $C$DW$909, DW_AT_TI_symbol_name("_rsvd12_8")
    7063                      .dwattr $C$DW$909, DW_AT_data_member_location[DW_OP_plus_uconst 0x11e]
    7064                      .dwattr $C$DW$909, DW_AT_accessibility(DW_ACCESS_public)
    7065              $C$DW$910       .dwtag  DW_TAG_member
    7066                      .dwattr $C$DW$910, DW_AT_type(*$C$DW$T$145)
    7067                      .dwattr $C$DW$910, DW_AT_name("rsvd13")
    7068                      .dwattr $C$DW$910, DW_AT_TI_symbol_name("_rsvd13")
    7069                      .dwattr $C$DW$910, DW_AT_data_member_location[DW_OP_plus_uconst 0x120]
    7070                      .dwattr $C$DW$910, DW_AT_accessibility(DW_ACCESS_public)
    7071              $C$DW$911       .dwtag  DW_TAG_member
    7072                      .dwattr $C$DW$911, DW_AT_type(*$C$DW$T$27)
    7073                      .dwattr $C$DW$911, DW_AT_name("XINTnCR")
    7074                      .dwattr $C$DW$911, DW_AT_TI_symbol_name("_XINTnCR")
    7075                      .dwattr $C$DW$911, DW_AT_data_member_location[DW_OP_plus_uconst 0x6390]
    7076                      .dwattr $C$DW$911, DW_AT_accessibility(DW_ACCESS_public)
    7077              $C$DW$912       .dwtag  DW_TAG_member
    7078                      .dwattr $C$DW$912, DW_AT_type(*$C$DW$T$26)
    7079                      .dwattr $C$DW$912, DW_AT_name("rsvd14")
TMS320C2000 Assembler PC v6.2.5 Wed Nov 22 14:48:16 2017

Tools Copyright (c) 1996-2014 Texas Instruments Incorporated
C:\Users\wmj\AppData\Local\Temp\1257612                              PAGE  134

    7080                      .dwattr $C$DW$912, DW_AT_TI_symbol_name("_rsvd14")
    7081                      .dwattr $C$DW$912, DW_AT_data_member_location[DW_OP_plus_uconst 0x6393]
    7082                      .dwattr $C$DW$912, DW_AT_accessibility(DW_ACCESS_public)
    7083              $C$DW$913       .dwtag  DW_TAG_member
    7084                      .dwattr $C$DW$913, DW_AT_type(*$C$DW$T$27)
    7085                      .dwattr $C$DW$913, DW_AT_name("XINTnCTR")
    7086                      .dwattr $C$DW$913, DW_AT_TI_symbol_name("_XINTnCTR")
    7087                      .dwattr $C$DW$913, DW_AT_data_member_location[DW_OP_plus_uconst 0x6398]
    7088                      .dwattr $C$DW$913, DW_AT_accessibility(DW_ACCESS_public)
    7089                      .dwendtag $C$DW$T$146
    7090              
    7091              $C$DW$T$97      .dwtag  DW_TAG_pointer_type
    7092                      .dwattr $C$DW$T$97, DW_AT_type(*$C$DW$T$146)
    7093                      .dwattr $C$DW$T$97, DW_AT_address_class(0x16)
    7094              $C$DW$T$98      .dwtag  DW_TAG_typedef, DW_AT_name("PIE_Handle")
    7095                      .dwattr $C$DW$T$98, DW_AT_type(*$C$DW$T$97)
    7096                      .dwattr $C$DW$T$98, DW_AT_language(DW_LANG_C)
    7097              
    7098              $C$DW$T$147     .dwtag  DW_TAG_structure_type
    7099                      .dwattr $C$DW$T$147, DW_AT_name("_PLL_Obj_")
    7100                      .dwattr $C$DW$T$147, DW_AT_byte_size(0x11)
    7101              $C$DW$914       .dwtag  DW_TAG_member
    7102                      .dwattr $C$DW$914, DW_AT_type(*$C$DW$T$22)
    7103                      .dwattr $C$DW$914, DW_AT_name("PLLSTS")
    7104                      .dwattr $C$DW$914, DW_AT_TI_symbol_name("_PLLSTS")
    7105                      .dwattr $C$DW$914, DW_AT_data_member_location[DW_OP_plus_uconst 0x0]
    7106                      .dwattr $C$DW$914, DW_AT_accessibility(DW_ACCESS_public)
    7107              $C$DW$915       .dwtag  DW_TAG_member
    7108                      .dwattr $C$DW$915, DW_AT_type(*$C$DW$T$22)
    7109                      .dwattr $C$DW$915, DW_AT_name("rsvd_1")
    7110                      .dwattr $C$DW$915, DW_AT_TI_symbol_name("_rsvd_1")
    7111                      .dwattr $C$DW$915, DW_AT_data_member_location[DW_OP_plus_uconst 0x1]
    7112                      .dwattr $C$DW$915, DW_AT_accessibility(DW_ACCESS_public)
    7113              $C$DW$916       .dwtag  DW_TAG_member
    7114                      .dwattr $C$DW$916, DW_AT_type(*$C$DW$T$22)
    7115                      .dwattr $C$DW$916, DW_AT_name("PLLLOCKPRD")
    7116                      .dwattr $C$DW$916, DW_AT_TI_symbol_name("_PLLLOCKPRD")
    7117                      .dwattr $C$DW$916, DW_AT_data_member_location[DW_OP_plus_uconst 0x2]
    7118                      .dwattr $C$DW$916, DW_AT_accessibility(DW_ACCESS_public)
    7119              $C$DW$917       .dwtag  DW_TAG_member
    7120                      .dwattr $C$DW$917, DW_AT_type(*$C$DW$T$28)
    7121                      .dwattr $C$DW$917, DW_AT_name("rsvd_2")
    7122                      .dwattr $C$DW$917, DW_AT_TI_symbol_name("_rsvd_2")
    7123                      .dwattr $C$DW$917, DW_AT_data_member_location[DW_OP_plus_uconst 0x3]
    7124                      .dwattr $C$DW$917, DW_AT_accessibility(DW_ACCESS_public)
    7125              $C$DW$918       .dwtag  DW_TAG_member
    7126                      .dwattr $C$DW$918, DW_AT_type(*$C$DW$T$22)
    7127                      .dwattr $C$DW$918, DW_AT_name("PLLCR")
    7128                      .dwattr $C$DW$918, DW_AT_TI_symbol_name("_PLLCR")
    7129                      .dwattr $C$DW$918, DW_AT_data_member_location[DW_OP_plus_uconst 0x10]
    7130                      .dwattr $C$DW$918, DW_AT_accessibility(DW_ACCESS_public)
    7131                      .dwendtag $C$DW$T$147
    7132              
    7133              $C$DW$T$99      .dwtag  DW_TAG_pointer_type
    7134                      .dwattr $C$DW$T$99, DW_AT_type(*$C$DW$T$147)
TMS320C2000 Assembler PC v6.2.5 Wed Nov 22 14:48:16 2017

Tools Copyright (c) 1996-2014 Texas Instruments Incorporated
C:\Users\wmj\AppData\Local\Temp\1257612                              PAGE  135

    7135                      .dwattr $C$DW$T$99, DW_AT_address_class(0x16)
    7136              $C$DW$T$100     .dwtag  DW_TAG_typedef, DW_AT_name("PLL_Handle")
    7137                      .dwattr $C$DW$T$100, DW_AT_type(*$C$DW$T$99)
    7138                      .dwattr $C$DW$T$100, DW_AT_language(DW_LANG_C)
    7139              
    7140              $C$DW$T$148     .dwtag  DW_TAG_structure_type
    7141                      .dwattr $C$DW$T$148, DW_AT_name("_PWM_Obj_")
    7142                      .dwattr $C$DW$T$148, DW_AT_byte_size(0x3a)
    7143              $C$DW$919       .dwtag  DW_TAG_member
    7144                      .dwattr $C$DW$919, DW_AT_type(*$C$DW$T$22)
    7145                      .dwattr $C$DW$919, DW_AT_name("TBCTL")
    7146                      .dwattr $C$DW$919, DW_AT_TI_symbol_name("_TBCTL")
    7147                      .dwattr $C$DW$919, DW_AT_data_member_location[DW_OP_plus_uconst 0x0]
    7148                      .dwattr $C$DW$919, DW_AT_accessibility(DW_ACCESS_public)
    7149              $C$DW$920       .dwtag  DW_TAG_member
    7150                      .dwattr $C$DW$920, DW_AT_type(*$C$DW$T$22)
    7151                      .dwattr $C$DW$920, DW_AT_name("TBSTS")
    7152                      .dwattr $C$DW$920, DW_AT_TI_symbol_name("_TBSTS")
    7153                      .dwattr $C$DW$920, DW_AT_data_member_location[DW_OP_plus_uconst 0x1]
    7154                      .dwattr $C$DW$920, DW_AT_accessibility(DW_ACCESS_public)
    7155              $C$DW$921       .dwtag  DW_TAG_member
    7156                      .dwattr $C$DW$921, DW_AT_type(*$C$DW$T$22)
    7157                      .dwattr $C$DW$921, DW_AT_name("TBPHSHR")
    7158                      .dwattr $C$DW$921, DW_AT_TI_symbol_name("_TBPHSHR")
    7159                      .dwattr $C$DW$921, DW_AT_data_member_location[DW_OP_plus_uconst 0x2]
    7160                      .dwattr $C$DW$921, DW_AT_accessibility(DW_ACCESS_public)
    7161              $C$DW$922       .dwtag  DW_TAG_member
    7162                      .dwattr $C$DW$922, DW_AT_type(*$C$DW$T$22)
    7163                      .dwattr $C$DW$922, DW_AT_name("TBPHS")
    7164                      .dwattr $C$DW$922, DW_AT_TI_symbol_name("_TBPHS")
    7165                      .dwattr $C$DW$922, DW_AT_data_member_location[DW_OP_plus_uconst 0x3]
    7166                      .dwattr $C$DW$922, DW_AT_accessibility(DW_ACCESS_public)
    7167              $C$DW$923       .dwtag  DW_TAG_member
    7168                      .dwattr $C$DW$923, DW_AT_type(*$C$DW$T$22)
    7169                      .dwattr $C$DW$923, DW_AT_name("TBCTR")
    7170                      .dwattr $C$DW$923, DW_AT_TI_symbol_name("_TBCTR")
    7171                      .dwattr $C$DW$923, DW_AT_data_member_location[DW_OP_plus_uconst 0x4]
    7172                      .dwattr $C$DW$923, DW_AT_accessibility(DW_ACCESS_public)
    7173              $C$DW$924       .dwtag  DW_TAG_member
    7174                      .dwattr $C$DW$924, DW_AT_type(*$C$DW$T$22)
    7175                      .dwattr $C$DW$924, DW_AT_name("TBPRD")
    7176                      .dwattr $C$DW$924, DW_AT_TI_symbol_name("_TBPRD")
    7177                      .dwattr $C$DW$924, DW_AT_data_member_location[DW_OP_plus_uconst 0x5]
    7178                      .dwattr $C$DW$924, DW_AT_accessibility(DW_ACCESS_public)
    7179              $C$DW$925       .dwtag  DW_TAG_member
    7180                      .dwattr $C$DW$925, DW_AT_type(*$C$DW$T$22)
    7181                      .dwattr $C$DW$925, DW_AT_name("TBPRDHR")
    7182                      .dwattr $C$DW$925, DW_AT_TI_symbol_name("_TBPRDHR")
    7183                      .dwattr $C$DW$925, DW_AT_data_member_location[DW_OP_plus_uconst 0x6]
    7184                      .dwattr $C$DW$925, DW_AT_accessibility(DW_ACCESS_public)
    7185              $C$DW$926       .dwtag  DW_TAG_member
    7186                      .dwattr $C$DW$926, DW_AT_type(*$C$DW$T$22)
    7187                      .dwattr $C$DW$926, DW_AT_name("CMPCTL")
    7188                      .dwattr $C$DW$926, DW_AT_TI_symbol_name("_CMPCTL")
    7189                      .dwattr $C$DW$926, DW_AT_data_member_location[DW_OP_plus_uconst 0x7]
TMS320C2000 Assembler PC v6.2.5 Wed Nov 22 14:48:16 2017

Tools Copyright (c) 1996-2014 Texas Instruments Incorporated
C:\Users\wmj\AppData\Local\Temp\1257612                              PAGE  136

    7190                      .dwattr $C$DW$926, DW_AT_accessibility(DW_ACCESS_public)
    7191              $C$DW$927       .dwtag  DW_TAG_member
    7192                      .dwattr $C$DW$927, DW_AT_type(*$C$DW$T$22)
    7193                      .dwattr $C$DW$927, DW_AT_name("CMPAHR")
    7194                      .dwattr $C$DW$927, DW_AT_TI_symbol_name("_CMPAHR")
    7195                      .dwattr $C$DW$927, DW_AT_data_member_location[DW_OP_plus_uconst 0x8]
    7196                      .dwattr $C$DW$927, DW_AT_accessibility(DW_ACCESS_public)
    7197              $C$DW$928       .dwtag  DW_TAG_member
    7198                      .dwattr $C$DW$928, DW_AT_type(*$C$DW$T$22)
    7199                      .dwattr $C$DW$928, DW_AT_name("CMPA")
    7200                      .dwattr $C$DW$928, DW_AT_TI_symbol_name("_CMPA")
    7201                      .dwattr $C$DW$928, DW_AT_data_member_location[DW_OP_plus_uconst 0x9]
    7202                      .dwattr $C$DW$928, DW_AT_accessibility(DW_ACCESS_public)
    7203              $C$DW$929       .dwtag  DW_TAG_member
    7204                      .dwattr $C$DW$929, DW_AT_type(*$C$DW$T$22)
    7205                      .dwattr $C$DW$929, DW_AT_name("CMPB")
    7206                      .dwattr $C$DW$929, DW_AT_TI_symbol_name("_CMPB")
    7207                      .dwattr $C$DW$929, DW_AT_data_member_location[DW_OP_plus_uconst 0xa]
    7208                      .dwattr $C$DW$929, DW_AT_accessibility(DW_ACCESS_public)
    7209              $C$DW$930       .dwtag  DW_TAG_member
    7210                      .dwattr $C$DW$930, DW_AT_type(*$C$DW$T$22)
    7211                      .dwattr $C$DW$930, DW_AT_name("AQCTLA")
    7212                      .dwattr $C$DW$930, DW_AT_TI_symbol_name("_AQCTLA")
    7213                      .dwattr $C$DW$930, DW_AT_data_member_location[DW_OP_plus_uconst 0xb]
    7214                      .dwattr $C$DW$930, DW_AT_accessibility(DW_ACCESS_public)
    7215              $C$DW$931       .dwtag  DW_TAG_member
    7216                      .dwattr $C$DW$931, DW_AT_type(*$C$DW$T$22)
    7217                      .dwattr $C$DW$931, DW_AT_name("AQCTLB")
    7218                      .dwattr $C$DW$931, DW_AT_TI_symbol_name("_AQCTLB")
    7219                      .dwattr $C$DW$931, DW_AT_data_member_location[DW_OP_plus_uconst 0xc]
    7220                      .dwattr $C$DW$931, DW_AT_accessibility(DW_ACCESS_public)
    7221              $C$DW$932       .dwtag  DW_TAG_member
    7222                      .dwattr $C$DW$932, DW_AT_type(*$C$DW$T$22)
    7223                      .dwattr $C$DW$932, DW_AT_name("AQSFRC")
    7224                      .dwattr $C$DW$932, DW_AT_TI_symbol_name("_AQSFRC")
    7225                      .dwattr $C$DW$932, DW_AT_data_member_location[DW_OP_plus_uconst 0xd]
    7226                      .dwattr $C$DW$932, DW_AT_accessibility(DW_ACCESS_public)
    7227              $C$DW$933       .dwtag  DW_TAG_member
    7228                      .dwattr $C$DW$933, DW_AT_type(*$C$DW$T$22)
    7229                      .dwattr $C$DW$933, DW_AT_name("AQCSFRC")
    7230                      .dwattr $C$DW$933, DW_AT_TI_symbol_name("_AQCSFRC")
    7231                      .dwattr $C$DW$933, DW_AT_data_member_location[DW_OP_plus_uconst 0xe]
    7232                      .dwattr $C$DW$933, DW_AT_accessibility(DW_ACCESS_public)
    7233              $C$DW$934       .dwtag  DW_TAG_member
    7234                      .dwattr $C$DW$934, DW_AT_type(*$C$DW$T$22)
    7235                      .dwattr $C$DW$934, DW_AT_name("DBCTL")
    7236                      .dwattr $C$DW$934, DW_AT_TI_symbol_name("_DBCTL")
    7237                      .dwattr $C$DW$934, DW_AT_data_member_location[DW_OP_plus_uconst 0xf]
    7238                      .dwattr $C$DW$934, DW_AT_accessibility(DW_ACCESS_public)
    7239              $C$DW$935       .dwtag  DW_TAG_member
    7240                      .dwattr $C$DW$935, DW_AT_type(*$C$DW$T$22)
    7241                      .dwattr $C$DW$935, DW_AT_name("DBRED")
    7242                      .dwattr $C$DW$935, DW_AT_TI_symbol_name("_DBRED")
    7243                      .dwattr $C$DW$935, DW_AT_data_member_location[DW_OP_plus_uconst 0x10]
    7244                      .dwattr $C$DW$935, DW_AT_accessibility(DW_ACCESS_public)
TMS320C2000 Assembler PC v6.2.5 Wed Nov 22 14:48:16 2017

Tools Copyright (c) 1996-2014 Texas Instruments Incorporated
C:\Users\wmj\AppData\Local\Temp\1257612                              PAGE  137

    7245              $C$DW$936       .dwtag  DW_TAG_member
    7246                      .dwattr $C$DW$936, DW_AT_type(*$C$DW$T$22)
    7247                      .dwattr $C$DW$936, DW_AT_name("DBFED")
    7248                      .dwattr $C$DW$936, DW_AT_TI_symbol_name("_DBFED")
    7249                      .dwattr $C$DW$936, DW_AT_data_member_location[DW_OP_plus_uconst 0x11]
    7250                      .dwattr $C$DW$936, DW_AT_accessibility(DW_ACCESS_public)
    7251              $C$DW$937       .dwtag  DW_TAG_member
    7252                      .dwattr $C$DW$937, DW_AT_type(*$C$DW$T$22)
    7253                      .dwattr $C$DW$937, DW_AT_name("TZSEL")
    7254                      .dwattr $C$DW$937, DW_AT_TI_symbol_name("_TZSEL")
    7255                      .dwattr $C$DW$937, DW_AT_data_member_location[DW_OP_plus_uconst 0x12]
    7256                      .dwattr $C$DW$937, DW_AT_accessibility(DW_ACCESS_public)
    7257              $C$DW$938       .dwtag  DW_TAG_member
    7258                      .dwattr $C$DW$938, DW_AT_type(*$C$DW$T$22)
    7259                      .dwattr $C$DW$938, DW_AT_name("TZDCSEL")
    7260                      .dwattr $C$DW$938, DW_AT_TI_symbol_name("_TZDCSEL")
    7261                      .dwattr $C$DW$938, DW_AT_data_member_location[DW_OP_plus_uconst 0x13]
    7262                      .dwattr $C$DW$938, DW_AT_accessibility(DW_ACCESS_public)
    7263              $C$DW$939       .dwtag  DW_TAG_member
    7264                      .dwattr $C$DW$939, DW_AT_type(*$C$DW$T$22)
    7265                      .dwattr $C$DW$939, DW_AT_name("TZCTL")
    7266                      .dwattr $C$DW$939, DW_AT_TI_symbol_name("_TZCTL")
    7267                      .dwattr $C$DW$939, DW_AT_data_member_location[DW_OP_plus_uconst 0x14]
    7268                      .dwattr $C$DW$939, DW_AT_accessibility(DW_ACCESS_public)
    7269              $C$DW$940       .dwtag  DW_TAG_member
    7270                      .dwattr $C$DW$940, DW_AT_type(*$C$DW$T$22)
    7271                      .dwattr $C$DW$940, DW_AT_name("TZEINT")
    7272                      .dwattr $C$DW$940, DW_AT_TI_symbol_name("_TZEINT")
    7273                      .dwattr $C$DW$940, DW_AT_data_member_location[DW_OP_plus_uconst 0x15]
    7274                      .dwattr $C$DW$940, DW_AT_accessibility(DW_ACCESS_public)
    7275              $C$DW$941       .dwtag  DW_TAG_member
    7276                      .dwattr $C$DW$941, DW_AT_type(*$C$DW$T$22)
    7277                      .dwattr $C$DW$941, DW_AT_name("TZFLG")
    7278                      .dwattr $C$DW$941, DW_AT_TI_symbol_name("_TZFLG")
    7279                      .dwattr $C$DW$941, DW_AT_data_member_location[DW_OP_plus_uconst 0x16]
    7280                      .dwattr $C$DW$941, DW_AT_accessibility(DW_ACCESS_public)
    7281              $C$DW$942       .dwtag  DW_TAG_member
    7282                      .dwattr $C$DW$942, DW_AT_type(*$C$DW$T$22)
    7283                      .dwattr $C$DW$942, DW_AT_name("TZCLR")
    7284                      .dwattr $C$DW$942, DW_AT_TI_symbol_name("_TZCLR")
    7285                      .dwattr $C$DW$942, DW_AT_data_member_location[DW_OP_plus_uconst 0x17]
    7286                      .dwattr $C$DW$942, DW_AT_accessibility(DW_ACCESS_public)
    7287              $C$DW$943       .dwtag  DW_TAG_member
    7288                      .dwattr $C$DW$943, DW_AT_type(*$C$DW$T$22)
    7289                      .dwattr $C$DW$943, DW_AT_name("TZFRC")
    7290                      .dwattr $C$DW$943, DW_AT_TI_symbol_name("_TZFRC")
    7291                      .dwattr $C$DW$943, DW_AT_data_member_location[DW_OP_plus_uconst 0x18]
    7292                      .dwattr $C$DW$943, DW_AT_accessibility(DW_ACCESS_public)
    7293              $C$DW$944       .dwtag  DW_TAG_member
    7294                      .dwattr $C$DW$944, DW_AT_type(*$C$DW$T$22)
    7295                      .dwattr $C$DW$944, DW_AT_name("ETSEL")
    7296                      .dwattr $C$DW$944, DW_AT_TI_symbol_name("_ETSEL")
    7297                      .dwattr $C$DW$944, DW_AT_data_member_location[DW_OP_plus_uconst 0x19]
    7298                      .dwattr $C$DW$944, DW_AT_accessibility(DW_ACCESS_public)
    7299              $C$DW$945       .dwtag  DW_TAG_member
TMS320C2000 Assembler PC v6.2.5 Wed Nov 22 14:48:16 2017

Tools Copyright (c) 1996-2014 Texas Instruments Incorporated
C:\Users\wmj\AppData\Local\Temp\1257612                              PAGE  138

    7300                      .dwattr $C$DW$945, DW_AT_type(*$C$DW$T$22)
    7301                      .dwattr $C$DW$945, DW_AT_name("ETPS")
    7302                      .dwattr $C$DW$945, DW_AT_TI_symbol_name("_ETPS")
    7303                      .dwattr $C$DW$945, DW_AT_data_member_location[DW_OP_plus_uconst 0x1a]
    7304                      .dwattr $C$DW$945, DW_AT_accessibility(DW_ACCESS_public)
    7305              $C$DW$946       .dwtag  DW_TAG_member
    7306                      .dwattr $C$DW$946, DW_AT_type(*$C$DW$T$22)
    7307                      .dwattr $C$DW$946, DW_AT_name("ETFLG")
    7308                      .dwattr $C$DW$946, DW_AT_TI_symbol_name("_ETFLG")
    7309                      .dwattr $C$DW$946, DW_AT_data_member_location[DW_OP_plus_uconst 0x1b]
    7310                      .dwattr $C$DW$946, DW_AT_accessibility(DW_ACCESS_public)
    7311              $C$DW$947       .dwtag  DW_TAG_member
    7312                      .dwattr $C$DW$947, DW_AT_type(*$C$DW$T$22)
    7313                      .dwattr $C$DW$947, DW_AT_name("ETCLR")
    7314                      .dwattr $C$DW$947, DW_AT_TI_symbol_name("_ETCLR")
    7315                      .dwattr $C$DW$947, DW_AT_data_member_location[DW_OP_plus_uconst 0x1c]
    7316                      .dwattr $C$DW$947, DW_AT_accessibility(DW_ACCESS_public)
    7317              $C$DW$948       .dwtag  DW_TAG_member
    7318                      .dwattr $C$DW$948, DW_AT_type(*$C$DW$T$22)
    7319                      .dwattr $C$DW$948, DW_AT_name("ETFRC")
    7320                      .dwattr $C$DW$948, DW_AT_TI_symbol_name("_ETFRC")
    7321                      .dwattr $C$DW$948, DW_AT_data_member_location[DW_OP_plus_uconst 0x1d]
    7322                      .dwattr $C$DW$948, DW_AT_accessibility(DW_ACCESS_public)
    7323              $C$DW$949       .dwtag  DW_TAG_member
    7324                      .dwattr $C$DW$949, DW_AT_type(*$C$DW$T$22)
    7325                      .dwattr $C$DW$949, DW_AT_name("PCCTL")
    7326                      .dwattr $C$DW$949, DW_AT_TI_symbol_name("_PCCTL")
    7327                      .dwattr $C$DW$949, DW_AT_data_member_location[DW_OP_plus_uconst 0x1e]
    7328                      .dwattr $C$DW$949, DW_AT_accessibility(DW_ACCESS_public)
    7329              $C$DW$950       .dwtag  DW_TAG_member
    7330                      .dwattr $C$DW$950, DW_AT_type(*$C$DW$T$22)
    7331                      .dwattr $C$DW$950, DW_AT_name("rsvd_1")
    7332                      .dwattr $C$DW$950, DW_AT_TI_symbol_name("_rsvd_1")
    7333                      .dwattr $C$DW$950, DW_AT_data_member_location[DW_OP_plus_uconst 0x1f]
    7334                      .dwattr $C$DW$950, DW_AT_accessibility(DW_ACCESS_public)
    7335              $C$DW$951       .dwtag  DW_TAG_member
    7336                      .dwattr $C$DW$951, DW_AT_type(*$C$DW$T$22)
    7337                      .dwattr $C$DW$951, DW_AT_name("HRCNFG")
    7338                      .dwattr $C$DW$951, DW_AT_TI_symbol_name("_HRCNFG")
    7339                      .dwattr $C$DW$951, DW_AT_data_member_location[DW_OP_plus_uconst 0x20]
    7340                      .dwattr $C$DW$951, DW_AT_accessibility(DW_ACCESS_public)
    7341              $C$DW$952       .dwtag  DW_TAG_member
    7342                      .dwattr $C$DW$952, DW_AT_type(*$C$DW$T$22)
    7343                      .dwattr $C$DW$952, DW_AT_name("HRPWR")
    7344                      .dwattr $C$DW$952, DW_AT_TI_symbol_name("_HRPWR")
    7345                      .dwattr $C$DW$952, DW_AT_data_member_location[DW_OP_plus_uconst 0x21]
    7346                      .dwattr $C$DW$952, DW_AT_accessibility(DW_ACCESS_public)
    7347              $C$DW$953       .dwtag  DW_TAG_member
    7348                      .dwattr $C$DW$953, DW_AT_type(*$C$DW$T$76)
    7349                      .dwattr $C$DW$953, DW_AT_name("rsvd_2")
    7350                      .dwattr $C$DW$953, DW_AT_TI_symbol_name("_rsvd_2")
    7351                      .dwattr $C$DW$953, DW_AT_data_member_location[DW_OP_plus_uconst 0x22]
    7352                      .dwattr $C$DW$953, DW_AT_accessibility(DW_ACCESS_public)
    7353              $C$DW$954       .dwtag  DW_TAG_member
    7354                      .dwattr $C$DW$954, DW_AT_type(*$C$DW$T$22)
TMS320C2000 Assembler PC v6.2.5 Wed Nov 22 14:48:16 2017

Tools Copyright (c) 1996-2014 Texas Instruments Incorporated
C:\Users\wmj\AppData\Local\Temp\1257612                              PAGE  139

    7355                      .dwattr $C$DW$954, DW_AT_name("HRMSTEP")
    7356                      .dwattr $C$DW$954, DW_AT_TI_symbol_name("_HRMSTEP")
    7357                      .dwattr $C$DW$954, DW_AT_data_member_location[DW_OP_plus_uconst 0x26]
    7358                      .dwattr $C$DW$954, DW_AT_accessibility(DW_ACCESS_public)
    7359              $C$DW$955       .dwtag  DW_TAG_member
    7360                      .dwattr $C$DW$955, DW_AT_type(*$C$DW$T$22)
    7361                      .dwattr $C$DW$955, DW_AT_name("rsvd_3")
    7362                      .dwattr $C$DW$955, DW_AT_TI_symbol_name("_rsvd_3")
    7363                      .dwattr $C$DW$955, DW_AT_data_member_location[DW_OP_plus_uconst 0x27]
    7364                      .dwattr $C$DW$955, DW_AT_accessibility(DW_ACCESS_public)
    7365              $C$DW$956       .dwtag  DW_TAG_member
    7366                      .dwattr $C$DW$956, DW_AT_type(*$C$DW$T$22)
    7367                      .dwattr $C$DW$956, DW_AT_name("HRPCTL")
    7368                      .dwattr $C$DW$956, DW_AT_TI_symbol_name("_HRPCTL")
    7369                      .dwattr $C$DW$956, DW_AT_data_member_location[DW_OP_plus_uconst 0x28]
    7370                      .dwattr $C$DW$956, DW_AT_accessibility(DW_ACCESS_public)
    7371              $C$DW$957       .dwtag  DW_TAG_member
    7372                      .dwattr $C$DW$957, DW_AT_type(*$C$DW$T$22)
    7373                      .dwattr $C$DW$957, DW_AT_name("rsvd_4")
    7374                      .dwattr $C$DW$957, DW_AT_TI_symbol_name("_rsvd_4")
    7375                      .dwattr $C$DW$957, DW_AT_data_member_location[DW_OP_plus_uconst 0x29]
    7376                      .dwattr $C$DW$957, DW_AT_accessibility(DW_ACCESS_public)
    7377              $C$DW$958       .dwtag  DW_TAG_member
    7378                      .dwattr $C$DW$958, DW_AT_type(*$C$DW$T$22)
    7379                      .dwattr $C$DW$958, DW_AT_name("TBPRDHRM")
    7380                      .dwattr $C$DW$958, DW_AT_TI_symbol_name("_TBPRDHRM")
    7381                      .dwattr $C$DW$958, DW_AT_data_member_location[DW_OP_plus_uconst 0x2a]
    7382                      .dwattr $C$DW$958, DW_AT_accessibility(DW_ACCESS_public)
    7383              $C$DW$959       .dwtag  DW_TAG_member
    7384                      .dwattr $C$DW$959, DW_AT_type(*$C$DW$T$22)
    7385                      .dwattr $C$DW$959, DW_AT_name("TBPRDM")
    7386                      .dwattr $C$DW$959, DW_AT_TI_symbol_name("_TBPRDM")
    7387                      .dwattr $C$DW$959, DW_AT_data_member_location[DW_OP_plus_uconst 0x2b]
    7388                      .dwattr $C$DW$959, DW_AT_accessibility(DW_ACCESS_public)
    7389              $C$DW$960       .dwtag  DW_TAG_member
    7390                      .dwattr $C$DW$960, DW_AT_type(*$C$DW$T$22)
    7391                      .dwattr $C$DW$960, DW_AT_name("CMPAHRM")
    7392                      .dwattr $C$DW$960, DW_AT_TI_symbol_name("_CMPAHRM")
    7393                      .dwattr $C$DW$960, DW_AT_data_member_location[DW_OP_plus_uconst 0x2c]
    7394                      .dwattr $C$DW$960, DW_AT_accessibility(DW_ACCESS_public)
    7395              $C$DW$961       .dwtag  DW_TAG_member
    7396                      .dwattr $C$DW$961, DW_AT_type(*$C$DW$T$22)
    7397                      .dwattr $C$DW$961, DW_AT_name("CMPAM")
    7398                      .dwattr $C$DW$961, DW_AT_TI_symbol_name("_CMPAM")
    7399                      .dwattr $C$DW$961, DW_AT_data_member_location[DW_OP_plus_uconst 0x2d]
    7400                      .dwattr $C$DW$961, DW_AT_accessibility(DW_ACCESS_public)
    7401              $C$DW$962       .dwtag  DW_TAG_member
    7402                      .dwattr $C$DW$962, DW_AT_type(*$C$DW$T$25)
    7403                      .dwattr $C$DW$962, DW_AT_name("rsvd_5")
    7404                      .dwattr $C$DW$962, DW_AT_TI_symbol_name("_rsvd_5")
    7405                      .dwattr $C$DW$962, DW_AT_data_member_location[DW_OP_plus_uconst 0x2e]
    7406                      .dwattr $C$DW$962, DW_AT_accessibility(DW_ACCESS_public)
    7407              $C$DW$963       .dwtag  DW_TAG_member
    7408                      .dwattr $C$DW$963, DW_AT_type(*$C$DW$T$22)
    7409                      .dwattr $C$DW$963, DW_AT_name("DCTRIPSEL")
TMS320C2000 Assembler PC v6.2.5 Wed Nov 22 14:48:16 2017

Tools Copyright (c) 1996-2014 Texas Instruments Incorporated
C:\Users\wmj\AppData\Local\Temp\1257612                              PAGE  140

    7410                      .dwattr $C$DW$963, DW_AT_TI_symbol_name("_DCTRIPSEL")
    7411                      .dwattr $C$DW$963, DW_AT_data_member_location[DW_OP_plus_uconst 0x30]
    7412                      .dwattr $C$DW$963, DW_AT_accessibility(DW_ACCESS_public)
    7413              $C$DW$964       .dwtag  DW_TAG_member
    7414                      .dwattr $C$DW$964, DW_AT_type(*$C$DW$T$22)
    7415                      .dwattr $C$DW$964, DW_AT_name("DCACTL")
    7416                      .dwattr $C$DW$964, DW_AT_TI_symbol_name("_DCACTL")
    7417                      .dwattr $C$DW$964, DW_AT_data_member_location[DW_OP_plus_uconst 0x31]
    7418                      .dwattr $C$DW$964, DW_AT_accessibility(DW_ACCESS_public)
    7419              $C$DW$965       .dwtag  DW_TAG_member
    7420                      .dwattr $C$DW$965, DW_AT_type(*$C$DW$T$22)
    7421                      .dwattr $C$DW$965, DW_AT_name("DCBCTL")
    7422                      .dwattr $C$DW$965, DW_AT_TI_symbol_name("_DCBCTL")
    7423                      .dwattr $C$DW$965, DW_AT_data_member_location[DW_OP_plus_uconst 0x32]
    7424                      .dwattr $C$DW$965, DW_AT_accessibility(DW_ACCESS_public)
    7425              $C$DW$966       .dwtag  DW_TAG_member
    7426                      .dwattr $C$DW$966, DW_AT_type(*$C$DW$T$22)
    7427                      .dwattr $C$DW$966, DW_AT_name("DCFCTL")
    7428                      .dwattr $C$DW$966, DW_AT_TI_symbol_name("_DCFCTL")
    7429                      .dwattr $C$DW$966, DW_AT_data_member_location[DW_OP_plus_uconst 0x33]
    7430                      .dwattr $C$DW$966, DW_AT_accessibility(DW_ACCESS_public)
    7431              $C$DW$967       .dwtag  DW_TAG_member
    7432                      .dwattr $C$DW$967, DW_AT_type(*$C$DW$T$22)
    7433                      .dwattr $C$DW$967, DW_AT_name("DCCAPCTL")
    7434                      .dwattr $C$DW$967, DW_AT_TI_symbol_name("_DCCAPCTL")
    7435                      .dwattr $C$DW$967, DW_AT_data_member_location[DW_OP_plus_uconst 0x34]
    7436                      .dwattr $C$DW$967, DW_AT_accessibility(DW_ACCESS_public)
    7437              $C$DW$968       .dwtag  DW_TAG_member
    7438                      .dwattr $C$DW$968, DW_AT_type(*$C$DW$T$22)
    7439                      .dwattr $C$DW$968, DW_AT_name("DCFOFFSET")
    7440                      .dwattr $C$DW$968, DW_AT_TI_symbol_name("_DCFOFFSET")
    7441                      .dwattr $C$DW$968, DW_AT_data_member_location[DW_OP_plus_uconst 0x35]
    7442                      .dwattr $C$DW$968, DW_AT_accessibility(DW_ACCESS_public)
    7443              $C$DW$969       .dwtag  DW_TAG_member
    7444                      .dwattr $C$DW$969, DW_AT_type(*$C$DW$T$22)
    7445                      .dwattr $C$DW$969, DW_AT_name("DCFOFFSETCNT")
    7446                      .dwattr $C$DW$969, DW_AT_TI_symbol_name("_DCFOFFSETCNT")
    7447                      .dwattr $C$DW$969, DW_AT_data_member_location[DW_OP_plus_uconst 0x36]
    7448                      .dwattr $C$DW$969, DW_AT_accessibility(DW_ACCESS_public)
    7449              $C$DW$970       .dwtag  DW_TAG_member
    7450                      .dwattr $C$DW$970, DW_AT_type(*$C$DW$T$22)
    7451                      .dwattr $C$DW$970, DW_AT_name("DCFWINDOW")
    7452                      .dwattr $C$DW$970, DW_AT_TI_symbol_name("_DCFWINDOW")
    7453                      .dwattr $C$DW$970, DW_AT_data_member_location[DW_OP_plus_uconst 0x37]
    7454                      .dwattr $C$DW$970, DW_AT_accessibility(DW_ACCESS_public)
    7455              $C$DW$971       .dwtag  DW_TAG_member
    7456                      .dwattr $C$DW$971, DW_AT_type(*$C$DW$T$22)
    7457                      .dwattr $C$DW$971, DW_AT_name("DCFWINDOWCNT")
    7458                      .dwattr $C$DW$971, DW_AT_TI_symbol_name("_DCFWINDOWCNT")
    7459                      .dwattr $C$DW$971, DW_AT_data_member_location[DW_OP_plus_uconst 0x38]
    7460                      .dwattr $C$DW$971, DW_AT_accessibility(DW_ACCESS_public)
    7461              $C$DW$972       .dwtag  DW_TAG_member
    7462                      .dwattr $C$DW$972, DW_AT_type(*$C$DW$T$22)
    7463                      .dwattr $C$DW$972, DW_AT_name("DCCAP")
    7464                      .dwattr $C$DW$972, DW_AT_TI_symbol_name("_DCCAP")
TMS320C2000 Assembler PC v6.2.5 Wed Nov 22 14:48:16 2017

Tools Copyright (c) 1996-2014 Texas Instruments Incorporated
C:\Users\wmj\AppData\Local\Temp\1257612                              PAGE  141

    7465                      .dwattr $C$DW$972, DW_AT_data_member_location[DW_OP_plus_uconst 0x39]
    7466                      .dwattr $C$DW$972, DW_AT_accessibility(DW_ACCESS_public)
    7467                      .dwendtag $C$DW$T$148
    7468              
    7469              $C$DW$T$101     .dwtag  DW_TAG_pointer_type
    7470                      .dwattr $C$DW$T$101, DW_AT_type(*$C$DW$T$148)
    7471                      .dwattr $C$DW$T$101, DW_AT_address_class(0x16)
    7472              $C$DW$T$102     .dwtag  DW_TAG_typedef, DW_AT_name("PWM_Handle")
    7473                      .dwattr $C$DW$T$102, DW_AT_type(*$C$DW$T$101)
    7474                      .dwattr $C$DW$T$102, DW_AT_language(DW_LANG_C)
    7475              
    7476              $C$DW$T$103     .dwtag  DW_TAG_array_type
    7477                      .dwattr $C$DW$T$103, DW_AT_type(*$C$DW$T$102)
    7478                      .dwattr $C$DW$T$103, DW_AT_language(DW_LANG_C)
    7479                      .dwattr $C$DW$T$103, DW_AT_byte_size(0x06)
    7480              $C$DW$973       .dwtag  DW_TAG_subrange_type
    7481                      .dwattr $C$DW$973, DW_AT_upper_bound(0x02)
    7482                      .dwendtag $C$DW$T$103
    7483              
    7484              
    7485              $C$DW$T$150     .dwtag  DW_TAG_structure_type
    7486                      .dwattr $C$DW$T$150, DW_AT_name("_PWR_Obj_")
    7487                      .dwattr $C$DW$T$150, DW_AT_byte_size(0x669a)
    7488              $C$DW$974       .dwtag  DW_TAG_member
    7489                      .dwattr $C$DW$974, DW_AT_type(*$C$DW$T$22)
    7490                      .dwattr $C$DW$974, DW_AT_name("BORCFG")
    7491                      .dwattr $C$DW$974, DW_AT_TI_symbol_name("_BORCFG")
    7492                      .dwattr $C$DW$974, DW_AT_data_member_location[DW_OP_plus_uconst 0x0]
    7493                      .dwattr $C$DW$974, DW_AT_accessibility(DW_ACCESS_public)
    7494              $C$DW$975       .dwtag  DW_TAG_member
    7495                      .dwattr $C$DW$975, DW_AT_type(*$C$DW$T$149)
    7496                      .dwattr $C$DW$975, DW_AT_name("rsvd_1")
    7497                      .dwattr $C$DW$975, DW_AT_TI_symbol_name("_rsvd_1")
    7498                      .dwattr $C$DW$975, DW_AT_data_member_location[DW_OP_plus_uconst 0x1]
    7499                      .dwattr $C$DW$975, DW_AT_accessibility(DW_ACCESS_public)
    7500              $C$DW$976       .dwtag  DW_TAG_member
    7501                      .dwattr $C$DW$976, DW_AT_type(*$C$DW$T$22)
    7502                      .dwattr $C$DW$976, DW_AT_name("LPMCR0")
    7503                      .dwattr $C$DW$976, DW_AT_TI_symbol_name("_LPMCR0")
    7504                      .dwattr $C$DW$976, DW_AT_data_member_location[DW_OP_plus_uconst 0x6699]
    7505                      .dwattr $C$DW$976, DW_AT_accessibility(DW_ACCESS_public)
    7506                      .dwendtag $C$DW$T$150
    7507              
    7508              $C$DW$T$104     .dwtag  DW_TAG_pointer_type
    7509                      .dwattr $C$DW$T$104, DW_AT_type(*$C$DW$T$150)
    7510                      .dwattr $C$DW$T$104, DW_AT_address_class(0x16)
    7511              $C$DW$T$105     .dwtag  DW_TAG_typedef, DW_AT_name("PWR_Handle")
    7512                      .dwattr $C$DW$T$105, DW_AT_type(*$C$DW$T$104)
    7513                      .dwattr $C$DW$T$105, DW_AT_language(DW_LANG_C)
    7514              
    7515              $C$DW$T$151     .dwtag  DW_TAG_structure_type
    7516                      .dwattr $C$DW$T$151, DW_AT_name("_SCI_Obj_")
    7517                      .dwattr $C$DW$T$151, DW_AT_byte_size(0x10)
    7518              $C$DW$977       .dwtag  DW_TAG_member
    7519                      .dwattr $C$DW$977, DW_AT_type(*$C$DW$T$22)
TMS320C2000 Assembler PC v6.2.5 Wed Nov 22 14:48:16 2017

Tools Copyright (c) 1996-2014 Texas Instruments Incorporated
C:\Users\wmj\AppData\Local\Temp\1257612                              PAGE  142

    7520                      .dwattr $C$DW$977, DW_AT_name("SCICCR")
    7521                      .dwattr $C$DW$977, DW_AT_TI_symbol_name("_SCICCR")
    7522                      .dwattr $C$DW$977, DW_AT_data_member_location[DW_OP_plus_uconst 0x0]
    7523                      .dwattr $C$DW$977, DW_AT_accessibility(DW_ACCESS_public)
    7524              $C$DW$978       .dwtag  DW_TAG_member
    7525                      .dwattr $C$DW$978, DW_AT_type(*$C$DW$T$22)
    7526                      .dwattr $C$DW$978, DW_AT_name("SCICTL1")
    7527                      .dwattr $C$DW$978, DW_AT_TI_symbol_name("_SCICTL1")
    7528                      .dwattr $C$DW$978, DW_AT_data_member_location[DW_OP_plus_uconst 0x1]
    7529                      .dwattr $C$DW$978, DW_AT_accessibility(DW_ACCESS_public)
    7530              $C$DW$979       .dwtag  DW_TAG_member
    7531                      .dwattr $C$DW$979, DW_AT_type(*$C$DW$T$22)
    7532                      .dwattr $C$DW$979, DW_AT_name("SCIHBAUD")
    7533                      .dwattr $C$DW$979, DW_AT_TI_symbol_name("_SCIHBAUD")
    7534                      .dwattr $C$DW$979, DW_AT_data_member_location[DW_OP_plus_uconst 0x2]
    7535                      .dwattr $C$DW$979, DW_AT_accessibility(DW_ACCESS_public)
    7536              $C$DW$980       .dwtag  DW_TAG_member
    7537                      .dwattr $C$DW$980, DW_AT_type(*$C$DW$T$22)
    7538                      .dwattr $C$DW$980, DW_AT_name("SCILBAUD")
    7539                      .dwattr $C$DW$980, DW_AT_TI_symbol_name("_SCILBAUD")
    7540                      .dwattr $C$DW$980, DW_AT_data_member_location[DW_OP_plus_uconst 0x3]
    7541                      .dwattr $C$DW$980, DW_AT_accessibility(DW_ACCESS_public)
    7542              $C$DW$981       .dwtag  DW_TAG_member
    7543                      .dwattr $C$DW$981, DW_AT_type(*$C$DW$T$22)
    7544                      .dwattr $C$DW$981, DW_AT_name("SCICTL2")
    7545                      .dwattr $C$DW$981, DW_AT_TI_symbol_name("_SCICTL2")
    7546                      .dwattr $C$DW$981, DW_AT_data_member_location[DW_OP_plus_uconst 0x4]
    7547                      .dwattr $C$DW$981, DW_AT_accessibility(DW_ACCESS_public)
    7548              $C$DW$982       .dwtag  DW_TAG_member
    7549                      .dwattr $C$DW$982, DW_AT_type(*$C$DW$T$22)
    7550                      .dwattr $C$DW$982, DW_AT_name("SCIRXST")
    7551                      .dwattr $C$DW$982, DW_AT_TI_symbol_name("_SCIRXST")
    7552                      .dwattr $C$DW$982, DW_AT_data_member_location[DW_OP_plus_uconst 0x5]
    7553                      .dwattr $C$DW$982, DW_AT_accessibility(DW_ACCESS_public)
    7554              $C$DW$983       .dwtag  DW_TAG_member
    7555                      .dwattr $C$DW$983, DW_AT_type(*$C$DW$T$22)
    7556                      .dwattr $C$DW$983, DW_AT_name("SCIRXEMU")
    7557                      .dwattr $C$DW$983, DW_AT_TI_symbol_name("_SCIRXEMU")
    7558                      .dwattr $C$DW$983, DW_AT_data_member_location[DW_OP_plus_uconst 0x6]
    7559                      .dwattr $C$DW$983, DW_AT_accessibility(DW_ACCESS_public)
    7560              $C$DW$984       .dwtag  DW_TAG_member
    7561                      .dwattr $C$DW$984, DW_AT_type(*$C$DW$T$22)
    7562                      .dwattr $C$DW$984, DW_AT_name("SCIRXBUF")
    7563                      .dwattr $C$DW$984, DW_AT_TI_symbol_name("_SCIRXBUF")
    7564                      .dwattr $C$DW$984, DW_AT_data_member_location[DW_OP_plus_uconst 0x7]
    7565                      .dwattr $C$DW$984, DW_AT_accessibility(DW_ACCESS_public)
    7566              $C$DW$985       .dwtag  DW_TAG_member
    7567                      .dwattr $C$DW$985, DW_AT_type(*$C$DW$T$22)
    7568                      .dwattr $C$DW$985, DW_AT_name("rsvd_1")
    7569                      .dwattr $C$DW$985, DW_AT_TI_symbol_name("_rsvd_1")
    7570                      .dwattr $C$DW$985, DW_AT_data_member_location[DW_OP_plus_uconst 0x8]
    7571                      .dwattr $C$DW$985, DW_AT_accessibility(DW_ACCESS_public)
    7572              $C$DW$986       .dwtag  DW_TAG_member
    7573                      .dwattr $C$DW$986, DW_AT_type(*$C$DW$T$22)
    7574                      .dwattr $C$DW$986, DW_AT_name("SCITXBUF")
TMS320C2000 Assembler PC v6.2.5 Wed Nov 22 14:48:16 2017

Tools Copyright (c) 1996-2014 Texas Instruments Incorporated
C:\Users\wmj\AppData\Local\Temp\1257612                              PAGE  143

    7575                      .dwattr $C$DW$986, DW_AT_TI_symbol_name("_SCITXBUF")
    7576                      .dwattr $C$DW$986, DW_AT_data_member_location[DW_OP_plus_uconst 0x9]
    7577                      .dwattr $C$DW$986, DW_AT_accessibility(DW_ACCESS_public)
    7578              $C$DW$987       .dwtag  DW_TAG_member
    7579                      .dwattr $C$DW$987, DW_AT_type(*$C$DW$T$22)
    7580                      .dwattr $C$DW$987, DW_AT_name("SCIFFTX")
    7581                      .dwattr $C$DW$987, DW_AT_TI_symbol_name("_SCIFFTX")
    7582                      .dwattr $C$DW$987, DW_AT_data_member_location[DW_OP_plus_uconst 0xa]
    7583                      .dwattr $C$DW$987, DW_AT_accessibility(DW_ACCESS_public)
    7584              $C$DW$988       .dwtag  DW_TAG_member
    7585                      .dwattr $C$DW$988, DW_AT_type(*$C$DW$T$22)
    7586                      .dwattr $C$DW$988, DW_AT_name("SCIFFRX")
    7587                      .dwattr $C$DW$988, DW_AT_TI_symbol_name("_SCIFFRX")
    7588                      .dwattr $C$DW$988, DW_AT_data_member_location[DW_OP_plus_uconst 0xb]
    7589                      .dwattr $C$DW$988, DW_AT_accessibility(DW_ACCESS_public)
    7590              $C$DW$989       .dwtag  DW_TAG_member
    7591                      .dwattr $C$DW$989, DW_AT_type(*$C$DW$T$22)
    7592                      .dwattr $C$DW$989, DW_AT_name("SCIFFCT")
    7593                      .dwattr $C$DW$989, DW_AT_TI_symbol_name("_SCIFFCT")
    7594                      .dwattr $C$DW$989, DW_AT_data_member_location[DW_OP_plus_uconst 0xc]
    7595                      .dwattr $C$DW$989, DW_AT_accessibility(DW_ACCESS_public)
    7596              $C$DW$990       .dwtag  DW_TAG_member
    7597                      .dwattr $C$DW$990, DW_AT_type(*$C$DW$T$25)
    7598                      .dwattr $C$DW$990, DW_AT_name("rsvd_2")
    7599                      .dwattr $C$DW$990, DW_AT_TI_symbol_name("_rsvd_2")
    7600                      .dwattr $C$DW$990, DW_AT_data_member_location[DW_OP_plus_uconst 0xd]
    7601                      .dwattr $C$DW$990, DW_AT_accessibility(DW_ACCESS_public)
    7602              $C$DW$991       .dwtag  DW_TAG_member
    7603                      .dwattr $C$DW$991, DW_AT_type(*$C$DW$T$22)
    7604                      .dwattr $C$DW$991, DW_AT_name("SCIPRI")
    7605                      .dwattr $C$DW$991, DW_AT_TI_symbol_name("_SCIPRI")
    7606                      .dwattr $C$DW$991, DW_AT_data_member_location[DW_OP_plus_uconst 0xf]
    7607                      .dwattr $C$DW$991, DW_AT_accessibility(DW_ACCESS_public)
    7608                      .dwendtag $C$DW$T$151
    7609              
    7610              $C$DW$T$113     .dwtag  DW_TAG_pointer_type
    7611                      .dwattr $C$DW$T$113, DW_AT_type(*$C$DW$T$151)
    7612                      .dwattr $C$DW$T$113, DW_AT_address_class(0x16)
    7613              $C$DW$T$114     .dwtag  DW_TAG_typedef, DW_AT_name("SCI_Handle")
    7614                      .dwattr $C$DW$T$114, DW_AT_type(*$C$DW$T$113)
    7615                      .dwattr $C$DW$T$114, DW_AT_language(DW_LANG_C)
    7616              
    7617              $C$DW$T$152     .dwtag  DW_TAG_structure_type
    7618                      .dwattr $C$DW$T$152, DW_AT_name("_SPI_Obj_")
    7619                      .dwattr $C$DW$T$152, DW_AT_byte_size(0x10)
    7620              $C$DW$992       .dwtag  DW_TAG_member
    7621                      .dwattr $C$DW$992, DW_AT_type(*$C$DW$T$22)
    7622                      .dwattr $C$DW$992, DW_AT_name("SPICCR")
    7623                      .dwattr $C$DW$992, DW_AT_TI_symbol_name("_SPICCR")
    7624                      .dwattr $C$DW$992, DW_AT_data_member_location[DW_OP_plus_uconst 0x0]
    7625                      .dwattr $C$DW$992, DW_AT_accessibility(DW_ACCESS_public)
    7626              $C$DW$993       .dwtag  DW_TAG_member
    7627                      .dwattr $C$DW$993, DW_AT_type(*$C$DW$T$22)
    7628                      .dwattr $C$DW$993, DW_AT_name("SPICTL")
    7629                      .dwattr $C$DW$993, DW_AT_TI_symbol_name("_SPICTL")
TMS320C2000 Assembler PC v6.2.5 Wed Nov 22 14:48:16 2017

Tools Copyright (c) 1996-2014 Texas Instruments Incorporated
C:\Users\wmj\AppData\Local\Temp\1257612                              PAGE  144

    7630                      .dwattr $C$DW$993, DW_AT_data_member_location[DW_OP_plus_uconst 0x1]
    7631                      .dwattr $C$DW$993, DW_AT_accessibility(DW_ACCESS_public)
    7632              $C$DW$994       .dwtag  DW_TAG_member
    7633                      .dwattr $C$DW$994, DW_AT_type(*$C$DW$T$22)
    7634                      .dwattr $C$DW$994, DW_AT_name("SPIST")
    7635                      .dwattr $C$DW$994, DW_AT_TI_symbol_name("_SPIST")
    7636                      .dwattr $C$DW$994, DW_AT_data_member_location[DW_OP_plus_uconst 0x2]
    7637                      .dwattr $C$DW$994, DW_AT_accessibility(DW_ACCESS_public)
    7638              $C$DW$995       .dwtag  DW_TAG_member
    7639                      .dwattr $C$DW$995, DW_AT_type(*$C$DW$T$22)
    7640                      .dwattr $C$DW$995, DW_AT_name("rsvd_1")
    7641                      .dwattr $C$DW$995, DW_AT_TI_symbol_name("_rsvd_1")
    7642                      .dwattr $C$DW$995, DW_AT_data_member_location[DW_OP_plus_uconst 0x3]
    7643                      .dwattr $C$DW$995, DW_AT_accessibility(DW_ACCESS_public)
    7644              $C$DW$996       .dwtag  DW_TAG_member
    7645                      .dwattr $C$DW$996, DW_AT_type(*$C$DW$T$22)
    7646                      .dwattr $C$DW$996, DW_AT_name("SPIBRR")
    7647                      .dwattr $C$DW$996, DW_AT_TI_symbol_name("_SPIBRR")
    7648                      .dwattr $C$DW$996, DW_AT_data_member_location[DW_OP_plus_uconst 0x4]
    7649                      .dwattr $C$DW$996, DW_AT_accessibility(DW_ACCESS_public)
    7650              $C$DW$997       .dwtag  DW_TAG_member
    7651                      .dwattr $C$DW$997, DW_AT_type(*$C$DW$T$22)
    7652                      .dwattr $C$DW$997, DW_AT_name("rsvd_2")
    7653                      .dwattr $C$DW$997, DW_AT_TI_symbol_name("_rsvd_2")
    7654                      .dwattr $C$DW$997, DW_AT_data_member_location[DW_OP_plus_uconst 0x5]
    7655                      .dwattr $C$DW$997, DW_AT_accessibility(DW_ACCESS_public)
    7656              $C$DW$998       .dwtag  DW_TAG_member
    7657                      .dwattr $C$DW$998, DW_AT_type(*$C$DW$T$22)
    7658                      .dwattr $C$DW$998, DW_AT_name("SPIEMU")
    7659                      .dwattr $C$DW$998, DW_AT_TI_symbol_name("_SPIEMU")
    7660                      .dwattr $C$DW$998, DW_AT_data_member_location[DW_OP_plus_uconst 0x6]
    7661                      .dwattr $C$DW$998, DW_AT_accessibility(DW_ACCESS_public)
    7662              $C$DW$999       .dwtag  DW_TAG_member
    7663                      .dwattr $C$DW$999, DW_AT_type(*$C$DW$T$22)
    7664                      .dwattr $C$DW$999, DW_AT_name("SPIRXBUF")
    7665                      .dwattr $C$DW$999, DW_AT_TI_symbol_name("_SPIRXBUF")
    7666                      .dwattr $C$DW$999, DW_AT_data_member_location[DW_OP_plus_uconst 0x7]
    7667                      .dwattr $C$DW$999, DW_AT_accessibility(DW_ACCESS_public)
    7668              $C$DW$1000      .dwtag  DW_TAG_member
    7669                      .dwattr $C$DW$1000, DW_AT_type(*$C$DW$T$22)
    7670                      .dwattr $C$DW$1000, DW_AT_name("SPITXBUF")
    7671                      .dwattr $C$DW$1000, DW_AT_TI_symbol_name("_SPITXBUF")
    7672                      .dwattr $C$DW$1000, DW_AT_data_member_location[DW_OP_plus_uconst 0x8]
    7673                      .dwattr $C$DW$1000, DW_AT_accessibility(DW_ACCESS_public)
    7674              $C$DW$1001      .dwtag  DW_TAG_member
    7675                      .dwattr $C$DW$1001, DW_AT_type(*$C$DW$T$22)
    7676                      .dwattr $C$DW$1001, DW_AT_name("SPIDAT")
    7677                      .dwattr $C$DW$1001, DW_AT_TI_symbol_name("_SPIDAT")
    7678                      .dwattr $C$DW$1001, DW_AT_data_member_location[DW_OP_plus_uconst 0x9]
    7679                      .dwattr $C$DW$1001, DW_AT_accessibility(DW_ACCESS_public)
    7680              $C$DW$1002      .dwtag  DW_TAG_member
    7681                      .dwattr $C$DW$1002, DW_AT_type(*$C$DW$T$22)
    7682                      .dwattr $C$DW$1002, DW_AT_name("SPIFFTX")
    7683                      .dwattr $C$DW$1002, DW_AT_TI_symbol_name("_SPIFFTX")
    7684                      .dwattr $C$DW$1002, DW_AT_data_member_location[DW_OP_plus_uconst 0xa]
TMS320C2000 Assembler PC v6.2.5 Wed Nov 22 14:48:16 2017

Tools Copyright (c) 1996-2014 Texas Instruments Incorporated
C:\Users\wmj\AppData\Local\Temp\1257612                              PAGE  145

    7685                      .dwattr $C$DW$1002, DW_AT_accessibility(DW_ACCESS_public)
    7686              $C$DW$1003      .dwtag  DW_TAG_member
    7687                      .dwattr $C$DW$1003, DW_AT_type(*$C$DW$T$22)
    7688                      .dwattr $C$DW$1003, DW_AT_name("SPIFFRX")
    7689                      .dwattr $C$DW$1003, DW_AT_TI_symbol_name("_SPIFFRX")
    7690                      .dwattr $C$DW$1003, DW_AT_data_member_location[DW_OP_plus_uconst 0xb]
    7691                      .dwattr $C$DW$1003, DW_AT_accessibility(DW_ACCESS_public)
    7692              $C$DW$1004      .dwtag  DW_TAG_member
    7693                      .dwattr $C$DW$1004, DW_AT_type(*$C$DW$T$22)
    7694                      .dwattr $C$DW$1004, DW_AT_name("SPIFFCT")
    7695                      .dwattr $C$DW$1004, DW_AT_TI_symbol_name("_SPIFFCT")
    7696                      .dwattr $C$DW$1004, DW_AT_data_member_location[DW_OP_plus_uconst 0xc]
    7697                      .dwattr $C$DW$1004, DW_AT_accessibility(DW_ACCESS_public)
    7698              $C$DW$1005      .dwtag  DW_TAG_member
    7699                      .dwattr $C$DW$1005, DW_AT_type(*$C$DW$T$25)
    7700                      .dwattr $C$DW$1005, DW_AT_name("rsvd_3")
    7701                      .dwattr $C$DW$1005, DW_AT_TI_symbol_name("_rsvd_3")
    7702                      .dwattr $C$DW$1005, DW_AT_data_member_location[DW_OP_plus_uconst 0xd]
    7703                      .dwattr $C$DW$1005, DW_AT_accessibility(DW_ACCESS_public)
    7704              $C$DW$1006      .dwtag  DW_TAG_member
    7705                      .dwattr $C$DW$1006, DW_AT_type(*$C$DW$T$22)
    7706                      .dwattr $C$DW$1006, DW_AT_name("SPIPRI")
    7707                      .dwattr $C$DW$1006, DW_AT_TI_symbol_name("_SPIPRI")
    7708                      .dwattr $C$DW$1006, DW_AT_data_member_location[DW_OP_plus_uconst 0xf]
    7709                      .dwattr $C$DW$1006, DW_AT_accessibility(DW_ACCESS_public)
    7710                      .dwendtag $C$DW$T$152
    7711              
    7712              $C$DW$T$109     .dwtag  DW_TAG_pointer_type
    7713                      .dwattr $C$DW$T$109, DW_AT_type(*$C$DW$T$152)
    7714                      .dwattr $C$DW$T$109, DW_AT_address_class(0x16)
    7715              $C$DW$T$110     .dwtag  DW_TAG_typedef, DW_AT_name("SPI_Handle")
    7716                      .dwattr $C$DW$T$110, DW_AT_type(*$C$DW$T$109)
    7717                      .dwattr $C$DW$T$110, DW_AT_language(DW_LANG_C)
    7718              
    7719              $C$DW$T$153     .dwtag  DW_TAG_structure_type
    7720                      .dwattr $C$DW$T$153, DW_AT_name("_TIMER_Obj_")
    7721                      .dwattr $C$DW$T$153, DW_AT_byte_size(0x08)
    7722              $C$DW$1007      .dwtag  DW_TAG_member
    7723                      .dwattr $C$DW$1007, DW_AT_type(*$C$DW$T$74)
    7724                      .dwattr $C$DW$1007, DW_AT_name("TIM")
    7725                      .dwattr $C$DW$1007, DW_AT_TI_symbol_name("_TIM")
    7726                      .dwattr $C$DW$1007, DW_AT_data_member_location[DW_OP_plus_uconst 0x0]
    7727                      .dwattr $C$DW$1007, DW_AT_accessibility(DW_ACCESS_public)
    7728              $C$DW$1008      .dwtag  DW_TAG_member
    7729                      .dwattr $C$DW$1008, DW_AT_type(*$C$DW$T$74)
    7730                      .dwattr $C$DW$1008, DW_AT_name("PRD")
    7731                      .dwattr $C$DW$1008, DW_AT_TI_symbol_name("_PRD")
    7732                      .dwattr $C$DW$1008, DW_AT_data_member_location[DW_OP_plus_uconst 0x2]
    7733                      .dwattr $C$DW$1008, DW_AT_accessibility(DW_ACCESS_public)
    7734              $C$DW$1009      .dwtag  DW_TAG_member
    7735                      .dwattr $C$DW$1009, DW_AT_type(*$C$DW$T$22)
    7736                      .dwattr $C$DW$1009, DW_AT_name("TCR")
    7737                      .dwattr $C$DW$1009, DW_AT_TI_symbol_name("_TCR")
    7738                      .dwattr $C$DW$1009, DW_AT_data_member_location[DW_OP_plus_uconst 0x4]
    7739                      .dwattr $C$DW$1009, DW_AT_accessibility(DW_ACCESS_public)
TMS320C2000 Assembler PC v6.2.5 Wed Nov 22 14:48:16 2017

Tools Copyright (c) 1996-2014 Texas Instruments Incorporated
C:\Users\wmj\AppData\Local\Temp\1257612                              PAGE  146

    7740              $C$DW$1010      .dwtag  DW_TAG_member
    7741                      .dwattr $C$DW$1010, DW_AT_type(*$C$DW$T$22)
    7742                      .dwattr $C$DW$1010, DW_AT_name("resvd_1")
    7743                      .dwattr $C$DW$1010, DW_AT_TI_symbol_name("_resvd_1")
    7744                      .dwattr $C$DW$1010, DW_AT_data_member_location[DW_OP_plus_uconst 0x5]
    7745                      .dwattr $C$DW$1010, DW_AT_accessibility(DW_ACCESS_public)
    7746              $C$DW$1011      .dwtag  DW_TAG_member
    7747                      .dwattr $C$DW$1011, DW_AT_type(*$C$DW$T$74)
    7748                      .dwattr $C$DW$1011, DW_AT_name("TPR")
    7749                      .dwattr $C$DW$1011, DW_AT_TI_symbol_name("_TPR")
    7750                      .dwattr $C$DW$1011, DW_AT_data_member_location[DW_OP_plus_uconst 0x6]
    7751                      .dwattr $C$DW$1011, DW_AT_accessibility(DW_ACCESS_public)
    7752                      .dwendtag $C$DW$T$153
    7753              
    7754              $C$DW$T$106     .dwtag  DW_TAG_pointer_type
    7755                      .dwattr $C$DW$T$106, DW_AT_type(*$C$DW$T$153)
    7756                      .dwattr $C$DW$T$106, DW_AT_address_class(0x16)
    7757              $C$DW$T$107     .dwtag  DW_TAG_typedef, DW_AT_name("TIMER_Handle")
    7758                      .dwattr $C$DW$T$107, DW_AT_type(*$C$DW$T$106)
    7759                      .dwattr $C$DW$T$107, DW_AT_language(DW_LANG_C)
    7760              
    7761              $C$DW$T$108     .dwtag  DW_TAG_array_type
    7762                      .dwattr $C$DW$T$108, DW_AT_type(*$C$DW$T$107)
    7763                      .dwattr $C$DW$T$108, DW_AT_language(DW_LANG_C)
    7764                      .dwattr $C$DW$T$108, DW_AT_byte_size(0x06)
    7765              $C$DW$1012      .dwtag  DW_TAG_subrange_type
    7766                      .dwattr $C$DW$1012, DW_AT_upper_bound(0x02)
    7767                      .dwendtag $C$DW$T$108
    7768              
    7769              
    7770              $C$DW$T$154     .dwtag  DW_TAG_structure_type
    7771                      .dwattr $C$DW$T$154, DW_AT_name("_WDOG_Obj_")
    7772                      .dwattr $C$DW$T$154, DW_AT_byte_size(0x08)
    7773              $C$DW$1013      .dwtag  DW_TAG_member
    7774                      .dwattr $C$DW$1013, DW_AT_type(*$C$DW$T$22)
    7775                      .dwattr $C$DW$1013, DW_AT_name("SCSR")
    7776                      .dwattr $C$DW$1013, DW_AT_TI_symbol_name("_SCSR")
    7777                      .dwattr $C$DW$1013, DW_AT_data_member_location[DW_OP_plus_uconst 0x0]
    7778                      .dwattr $C$DW$1013, DW_AT_accessibility(DW_ACCESS_public)
    7779              $C$DW$1014      .dwtag  DW_TAG_member
    7780                      .dwattr $C$DW$1014, DW_AT_type(*$C$DW$T$22)
    7781                      .dwattr $C$DW$1014, DW_AT_name("WDCNTR")
    7782                      .dwattr $C$DW$1014, DW_AT_TI_symbol_name("_WDCNTR")
    7783                      .dwattr $C$DW$1014, DW_AT_data_member_location[DW_OP_plus_uconst 0x1]
    7784                      .dwattr $C$DW$1014, DW_AT_accessibility(DW_ACCESS_public)
    7785              $C$DW$1015      .dwtag  DW_TAG_member
    7786                      .dwattr $C$DW$1015, DW_AT_type(*$C$DW$T$22)
    7787                      .dwattr $C$DW$1015, DW_AT_name("rsvd_1")
    7788                      .dwattr $C$DW$1015, DW_AT_TI_symbol_name("_rsvd_1")
    7789                      .dwattr $C$DW$1015, DW_AT_data_member_location[DW_OP_plus_uconst 0x2]
    7790                      .dwattr $C$DW$1015, DW_AT_accessibility(DW_ACCESS_public)
    7791              $C$DW$1016      .dwtag  DW_TAG_member
    7792                      .dwattr $C$DW$1016, DW_AT_type(*$C$DW$T$22)
    7793                      .dwattr $C$DW$1016, DW_AT_name("WDKEY")
    7794                      .dwattr $C$DW$1016, DW_AT_TI_symbol_name("_WDKEY")
TMS320C2000 Assembler PC v6.2.5 Wed Nov 22 14:48:16 2017

Tools Copyright (c) 1996-2014 Texas Instruments Incorporated
C:\Users\wmj\AppData\Local\Temp\1257612                              PAGE  147

    7795                      .dwattr $C$DW$1016, DW_AT_data_member_location[DW_OP_plus_uconst 0x3]
    7796                      .dwattr $C$DW$1016, DW_AT_accessibility(DW_ACCESS_public)
    7797              $C$DW$1017      .dwtag  DW_TAG_member
    7798                      .dwattr $C$DW$1017, DW_AT_type(*$C$DW$T$27)
    7799                      .dwattr $C$DW$1017, DW_AT_name("rsvd_2")
    7800                      .dwattr $C$DW$1017, DW_AT_TI_symbol_name("_rsvd_2")
    7801                      .dwattr $C$DW$1017, DW_AT_data_member_location[DW_OP_plus_uconst 0x4]
    7802                      .dwattr $C$DW$1017, DW_AT_accessibility(DW_ACCESS_public)
    7803              $C$DW$1018      .dwtag  DW_TAG_member
    7804                      .dwattr $C$DW$1018, DW_AT_type(*$C$DW$T$22)
    7805                      .dwattr $C$DW$1018, DW_AT_name("WDCR")
    7806                      .dwattr $C$DW$1018, DW_AT_TI_symbol_name("_WDCR")
    7807                      .dwattr $C$DW$1018, DW_AT_data_member_location[DW_OP_plus_uconst 0x7]
    7808                      .dwattr $C$DW$1018, DW_AT_accessibility(DW_ACCESS_public)
    7809                      .dwendtag $C$DW$T$154
    7810              
    7811              $C$DW$T$111     .dwtag  DW_TAG_pointer_type
    7812                      .dwattr $C$DW$T$111, DW_AT_type(*$C$DW$T$154)
    7813                      .dwattr $C$DW$T$111, DW_AT_address_class(0x16)
    7814              $C$DW$T$112     .dwtag  DW_TAG_typedef, DW_AT_name("WDOG_Handle")
    7815                      .dwattr $C$DW$T$112, DW_AT_type(*$C$DW$T$111)
    7816                      .dwattr $C$DW$T$112, DW_AT_language(DW_LANG_C)
    7817              $C$DW$T$3       .dwtag  DW_TAG_pointer_type
    7818                      .dwattr $C$DW$T$3, DW_AT_address_class(0x16)
    7819              $C$DW$1019      .dwtag  DW_TAG_TI_far_type
    7820                      .dwattr $C$DW$1019, DW_AT_type(*$C$DW$T$3)
    7821              $C$DW$T$209     .dwtag  DW_TAG_const_type
    7822                      .dwattr $C$DW$T$209, DW_AT_type(*$C$DW$1019)
    7823              
    7824              $C$DW$T$141     .dwtag  DW_TAG_subroutine_type
    7825                      .dwattr $C$DW$T$141, DW_AT_language(DW_LANG_C)
    7826              $C$DW$T$142     .dwtag  DW_TAG_pointer_type
    7827                      .dwattr $C$DW$T$142, DW_AT_type(*$C$DW$T$141)
    7828                      .dwattr $C$DW$T$142, DW_AT_address_class(0x16)
    7829              $C$DW$T$143     .dwtag  DW_TAG_typedef, DW_AT_name("PIE_IntVec_t")
    7830                      .dwattr $C$DW$T$143, DW_AT_type(*$C$DW$T$142)
    7831                      .dwattr $C$DW$T$143, DW_AT_language(DW_LANG_C)
    7832              $C$DW$1020      .dwtag  DW_TAG_TI_far_type
    7833                      .dwattr $C$DW$1020, DW_AT_type(*$C$DW$T$143)
    7834              $C$DW$T$144     .dwtag  DW_TAG_volatile_type
    7835                      .dwattr $C$DW$T$144, DW_AT_type(*$C$DW$1020)
    7836              
    7837              $C$DW$T$221     .dwtag  DW_TAG_subroutine_type
    7838                      .dwattr $C$DW$T$221, DW_AT_language(DW_LANG_C)
    7839              $C$DW$1021      .dwtag  DW_TAG_formal_parameter
    7840                      .dwattr $C$DW$1021, DW_AT_type(*$C$DW$T$169)
    7841                      .dwendtag $C$DW$T$221
    7842              
    7843              $C$DW$T$222     .dwtag  DW_TAG_pointer_type
    7844                      .dwattr $C$DW$T$222, DW_AT_type(*$C$DW$T$221)
    7845                      .dwattr $C$DW$T$222, DW_AT_address_class(0x16)
    7846              $C$DW$T$226     .dwtag  DW_TAG_typedef, DW_AT_name("func_ptr_ret_t")
    7847                      .dwattr $C$DW$T$226, DW_AT_type(*$C$DW$T$222)
    7848                      .dwattr $C$DW$T$226, DW_AT_language(DW_LANG_C)
    7849              $C$DW$1022      .dwtag  DW_TAG_TI_far_type
TMS320C2000 Assembler PC v6.2.5 Wed Nov 22 14:48:16 2017

Tools Copyright (c) 1996-2014 Texas Instruments Incorporated
C:\Users\wmj\AppData\Local\Temp\1257612                              PAGE  148

    7850                      .dwattr $C$DW$1022, DW_AT_type(*$C$DW$T$226)
    7851              $C$DW$T$227     .dwtag  DW_TAG_const_type
    7852                      .dwattr $C$DW$T$227, DW_AT_type(*$C$DW$1022)
    7853              
    7854              $C$DW$T$228     .dwtag  DW_TAG_array_type
    7855                      .dwattr $C$DW$T$228, DW_AT_type(*$C$DW$T$227)
    7856                      .dwattr $C$DW$T$228, DW_AT_language(DW_LANG_C)
    7857                      .dwattr $C$DW$T$228, DW_AT_byte_size(0x16)
    7858              $C$DW$1023      .dwtag  DW_TAG_subrange_type
    7859                      .dwattr $C$DW$1023, DW_AT_upper_bound(0x0a)
    7860                      .dwendtag $C$DW$T$228
    7861              
    7862              $C$DW$T$4       .dwtag  DW_TAG_base_type
    7863                      .dwattr $C$DW$T$4, DW_AT_encoding(DW_ATE_boolean)
    7864                      .dwattr $C$DW$T$4, DW_AT_name("bool")
    7865                      .dwattr $C$DW$T$4, DW_AT_byte_size(0x01)
    7866              $C$DW$T$5       .dwtag  DW_TAG_base_type
    7867                      .dwattr $C$DW$T$5, DW_AT_encoding(DW_ATE_signed_char)
    7868                      .dwattr $C$DW$T$5, DW_AT_name("signed char")
    7869                      .dwattr $C$DW$T$5, DW_AT_byte_size(0x01)
    7870              $C$DW$T$6       .dwtag  DW_TAG_base_type
    7871                      .dwattr $C$DW$T$6, DW_AT_encoding(DW_ATE_unsigned_char)
    7872                      .dwattr $C$DW$T$6, DW_AT_name("unsigned char")
    7873                      .dwattr $C$DW$T$6, DW_AT_byte_size(0x01)
    7874              $C$DW$T$59      .dwtag  DW_TAG_typedef, DW_AT_name("_Bool")
    7875                      .dwattr $C$DW$T$59, DW_AT_type(*$C$DW$T$6)
    7876                      .dwattr $C$DW$T$59, DW_AT_language(DW_LANG_C)
    7877              $C$DW$1024      .dwtag  DW_TAG_TI_far_type
    7878                      .dwattr $C$DW$1024, DW_AT_type(*$C$DW$T$59)
    7879              $C$DW$T$216     .dwtag  DW_TAG_const_type
    7880                      .dwattr $C$DW$T$216, DW_AT_type(*$C$DW$1024)
    7881              
    7882              $C$DW$T$238     .dwtag  DW_TAG_array_type
    7883                      .dwattr $C$DW$T$238, DW_AT_type(*$C$DW$T$216)
    7884                      .dwattr $C$DW$T$238, DW_AT_language(DW_LANG_C)
    7885                      .dwattr $C$DW$T$238, DW_AT_byte_size(0x08)
    7886              $C$DW$1025      .dwtag  DW_TAG_subrange_type
    7887                      .dwattr $C$DW$1025, DW_AT_upper_bound(0x07)
    7888                      .dwendtag $C$DW$T$238
    7889              
    7890              $C$DW$T$7       .dwtag  DW_TAG_base_type
    7891                      .dwattr $C$DW$T$7, DW_AT_encoding(DW_ATE_signed_char)
    7892                      .dwattr $C$DW$T$7, DW_AT_name("wchar_t")
    7893                      .dwattr $C$DW$T$7, DW_AT_byte_size(0x01)
    7894              $C$DW$T$8       .dwtag  DW_TAG_base_type
    7895                      .dwattr $C$DW$T$8, DW_AT_encoding(DW_ATE_signed)
    7896                      .dwattr $C$DW$T$8, DW_AT_name("short")
    7897                      .dwattr $C$DW$T$8, DW_AT_byte_size(0x01)
    7898              $C$DW$T$63      .dwtag  DW_TAG_typedef, DW_AT_name("int16_t")
    7899                      .dwattr $C$DW$T$63, DW_AT_type(*$C$DW$T$8)
    7900                      .dwattr $C$DW$T$63, DW_AT_language(DW_LANG_C)
    7901              
    7902              $C$DW$T$64      .dwtag  DW_TAG_array_type
    7903                      .dwattr $C$DW$T$64, DW_AT_type(*$C$DW$T$63)
    7904                      .dwattr $C$DW$T$64, DW_AT_language(DW_LANG_C)
TMS320C2000 Assembler PC v6.2.5 Wed Nov 22 14:48:16 2017

Tools Copyright (c) 1996-2014 Texas Instruments Incorporated
C:\Users\wmj\AppData\Local\Temp\1257612                              PAGE  149

    7905                      .dwattr $C$DW$T$64, DW_AT_byte_size(0x0f)
    7906              $C$DW$1026      .dwtag  DW_TAG_subrange_type
    7907                      .dwattr $C$DW$1026, DW_AT_upper_bound(0x0e)
    7908                      .dwendtag $C$DW$T$64
    7909              
    7910              $C$DW$T$9       .dwtag  DW_TAG_base_type
    7911                      .dwattr $C$DW$T$9, DW_AT_encoding(DW_ATE_unsigned)
    7912                      .dwattr $C$DW$T$9, DW_AT_name("unsigned short")
    7913                      .dwattr $C$DW$T$9, DW_AT_byte_size(0x01)
    7914              $C$DW$T$21      .dwtag  DW_TAG_typedef, DW_AT_name("uint16_t")
    7915                      .dwattr $C$DW$T$21, DW_AT_type(*$C$DW$T$9)
    7916                      .dwattr $C$DW$T$21, DW_AT_language(DW_LANG_C)
    7917              
    7918              $C$DW$T$65      .dwtag  DW_TAG_array_type
    7919                      .dwattr $C$DW$T$65, DW_AT_type(*$C$DW$T$21)
    7920                      .dwattr $C$DW$T$65, DW_AT_language(DW_LANG_C)
    7921                      .dwattr $C$DW$T$65, DW_AT_byte_size(0x0f)
    7922              $C$DW$1027      .dwtag  DW_TAG_subrange_type
    7923                      .dwattr $C$DW$1027, DW_AT_upper_bound(0x0e)
    7924                      .dwendtag $C$DW$T$65
    7925              
    7926              $C$DW$1028      .dwtag  DW_TAG_TI_far_type
    7927                      .dwattr $C$DW$1028, DW_AT_type(*$C$DW$T$21)
    7928              $C$DW$T$22      .dwtag  DW_TAG_volatile_type
    7929                      .dwattr $C$DW$T$22, DW_AT_type(*$C$DW$1028)
    7930              
    7931              $C$DW$T$23      .dwtag  DW_TAG_array_type
    7932                      .dwattr $C$DW$T$23, DW_AT_type(*$C$DW$T$22)
    7933                      .dwattr $C$DW$T$23, DW_AT_language(DW_LANG_C)
    7934                      .dwattr $C$DW$T$23, DW_AT_byte_size(0x10)
    7935              $C$DW$1029      .dwtag  DW_TAG_subrange_type
    7936                      .dwattr $C$DW$1029, DW_AT_upper_bound(0x0f)
    7937                      .dwendtag $C$DW$T$23
    7938              
    7939              
    7940              $C$DW$T$24      .dwtag  DW_TAG_array_type
    7941                      .dwattr $C$DW$T$24, DW_AT_type(*$C$DW$T$22)
    7942                      .dwattr $C$DW$T$24, DW_AT_language(DW_LANG_C)
    7943                      .dwattr $C$DW$T$24, DW_AT_byte_size(0x65f0)
    7944              $C$DW$1030      .dwtag  DW_TAG_subrange_type
    7945                      .dwattr $C$DW$1030, DW_AT_upper_bound(0x65ef)
    7946                      .dwendtag $C$DW$T$24
    7947              
    7948              
    7949              $C$DW$T$25      .dwtag  DW_TAG_array_type
    7950                      .dwattr $C$DW$T$25, DW_AT_type(*$C$DW$T$22)
    7951                      .dwattr $C$DW$T$25, DW_AT_language(DW_LANG_C)
    7952                      .dwattr $C$DW$T$25, DW_AT_byte_size(0x02)
    7953              $C$DW$1031      .dwtag  DW_TAG_subrange_type
    7954                      .dwattr $C$DW$1031, DW_AT_upper_bound(0x01)
    7955                      .dwendtag $C$DW$T$25
    7956              
    7957              
    7958              $C$DW$T$26      .dwtag  DW_TAG_array_type
    7959                      .dwattr $C$DW$T$26, DW_AT_type(*$C$DW$T$22)
TMS320C2000 Assembler PC v6.2.5 Wed Nov 22 14:48:16 2017

Tools Copyright (c) 1996-2014 Texas Instruments Incorporated
C:\Users\wmj\AppData\Local\Temp\1257612                              PAGE  150

    7960                      .dwattr $C$DW$T$26, DW_AT_language(DW_LANG_C)
    7961                      .dwattr $C$DW$T$26, DW_AT_byte_size(0x05)
    7962              $C$DW$1032      .dwtag  DW_TAG_subrange_type
    7963                      .dwattr $C$DW$1032, DW_AT_upper_bound(0x04)
    7964                      .dwendtag $C$DW$T$26
    7965              
    7966              
    7967              $C$DW$T$27      .dwtag  DW_TAG_array_type
    7968                      .dwattr $C$DW$T$27, DW_AT_type(*$C$DW$T$22)
    7969                      .dwattr $C$DW$T$27, DW_AT_language(DW_LANG_C)
    7970                      .dwattr $C$DW$T$27, DW_AT_byte_size(0x03)
    7971              $C$DW$1033      .dwtag  DW_TAG_subrange_type
    7972                      .dwattr $C$DW$1033, DW_AT_upper_bound(0x02)
    7973                      .dwendtag $C$DW$T$27
    7974              
    7975              
    7976              $C$DW$T$28      .dwtag  DW_TAG_array_type
    7977                      .dwattr $C$DW$T$28, DW_AT_type(*$C$DW$T$22)
    7978                      .dwattr $C$DW$T$28, DW_AT_language(DW_LANG_C)
    7979                      .dwattr $C$DW$T$28, DW_AT_byte_size(0x0d)
    7980              $C$DW$1034      .dwtag  DW_TAG_subrange_type
    7981                      .dwattr $C$DW$1034, DW_AT_upper_bound(0x0c)
    7982                      .dwendtag $C$DW$T$28
    7983              
    7984              
    7985              $C$DW$T$30      .dwtag  DW_TAG_array_type
    7986                      .dwattr $C$DW$T$30, DW_AT_type(*$C$DW$T$22)
    7987                      .dwattr $C$DW$T$30, DW_AT_language(DW_LANG_C)
    7988                      .dwattr $C$DW$T$30, DW_AT_byte_size(0x08)
    7989              $C$DW$1035      .dwtag  DW_TAG_subrange_type
    7990                      .dwattr $C$DW$1035, DW_AT_upper_bound(0x07)
    7991                      .dwendtag $C$DW$T$30
    7992              
    7993              
    7994              $C$DW$T$75      .dwtag  DW_TAG_array_type
    7995                      .dwattr $C$DW$T$75, DW_AT_type(*$C$DW$T$22)
    7996                      .dwattr $C$DW$T$75, DW_AT_language(DW_LANG_C)
    7997                      .dwattr $C$DW$T$75, DW_AT_byte_size(0x18)
    7998              $C$DW$1036      .dwtag  DW_TAG_subrange_type
    7999                      .dwattr $C$DW$1036, DW_AT_upper_bound(0x17)
    8000                      .dwendtag $C$DW$T$75
    8001              
    8002              
    8003              $C$DW$T$76      .dwtag  DW_TAG_array_type
    8004                      .dwattr $C$DW$T$76, DW_AT_type(*$C$DW$T$22)
    8005                      .dwattr $C$DW$T$76, DW_AT_language(DW_LANG_C)
    8006                      .dwattr $C$DW$T$76, DW_AT_byte_size(0x04)
    8007              $C$DW$1037      .dwtag  DW_TAG_subrange_type
    8008                      .dwattr $C$DW$1037, DW_AT_upper_bound(0x03)
    8009                      .dwendtag $C$DW$T$76
    8010              
    8011              
    8012              $C$DW$T$140     .dwtag  DW_TAG_array_type
    8013                      .dwattr $C$DW$T$140, DW_AT_type(*$C$DW$T$22)
    8014                      .dwattr $C$DW$T$140, DW_AT_language(DW_LANG_C)
TMS320C2000 Assembler PC v6.2.5 Wed Nov 22 14:48:16 2017

Tools Copyright (c) 1996-2014 Texas Instruments Incorporated
C:\Users\wmj\AppData\Local\Temp\1257612                              PAGE  151

    8015                      .dwattr $C$DW$T$140, DW_AT_byte_size(0x06)
    8016              $C$DW$1038      .dwtag  DW_TAG_subrange_type
    8017                      .dwattr $C$DW$1038, DW_AT_upper_bound(0x05)
    8018                      .dwendtag $C$DW$T$140
    8019              
    8020              
    8021              $C$DW$T$145     .dwtag  DW_TAG_array_type
    8022                      .dwattr $C$DW$T$145, DW_AT_type(*$C$DW$T$22)
    8023                      .dwattr $C$DW$T$145, DW_AT_language(DW_LANG_C)
    8024                      .dwattr $C$DW$T$145, DW_AT_byte_size(0x6270)
    8025              $C$DW$1039      .dwtag  DW_TAG_subrange_type
    8026                      .dwattr $C$DW$1039, DW_AT_upper_bound(0x626f)
    8027                      .dwendtag $C$DW$T$145
    8028              
    8029              
    8030              $C$DW$T$149     .dwtag  DW_TAG_array_type
    8031                      .dwattr $C$DW$T$149, DW_AT_type(*$C$DW$T$22)
    8032                      .dwattr $C$DW$T$149, DW_AT_language(DW_LANG_C)
    8033                      .dwattr $C$DW$T$149, DW_AT_byte_size(0x6698)
    8034              $C$DW$1040      .dwtag  DW_TAG_subrange_type
    8035                      .dwattr $C$DW$1040, DW_AT_upper_bound(0x6697)
    8036                      .dwendtag $C$DW$T$149
    8037              
    8038              $C$DW$1041      .dwtag  DW_TAG_TI_far_type
    8039                      .dwattr $C$DW$1041, DW_AT_type(*$C$DW$T$21)
    8040              $C$DW$T$231     .dwtag  DW_TAG_const_type
    8041                      .dwattr $C$DW$T$231, DW_AT_type(*$C$DW$1041)
    8042              $C$DW$T$32      .dwtag  DW_TAG_typedef, DW_AT_name("uint_least8_t")
    8043                      .dwattr $C$DW$T$32, DW_AT_type(*$C$DW$T$21)
    8044                      .dwattr $C$DW$T$32, DW_AT_language(DW_LANG_C)
    8045              $C$DW$T$10      .dwtag  DW_TAG_base_type
    8046                      .dwattr $C$DW$T$10, DW_AT_encoding(DW_ATE_signed)
    8047                      .dwattr $C$DW$T$10, DW_AT_name("int")
    8048                      .dwattr $C$DW$T$10, DW_AT_byte_size(0x01)
    8049              $C$DW$T$11      .dwtag  DW_TAG_base_type
    8050                      .dwattr $C$DW$T$11, DW_AT_encoding(DW_ATE_unsigned)
    8051                      .dwattr $C$DW$T$11, DW_AT_name("unsigned int")
    8052                      .dwattr $C$DW$T$11, DW_AT_byte_size(0x01)
    8053              $C$DW$T$12      .dwtag  DW_TAG_base_type
    8054                      .dwattr $C$DW$T$12, DW_AT_encoding(DW_ATE_signed)
    8055                      .dwattr $C$DW$T$12, DW_AT_name("long")
    8056                      .dwattr $C$DW$T$12, DW_AT_byte_size(0x02)
    8057              $C$DW$T$37      .dwtag  DW_TAG_typedef, DW_AT_name("_iq")
    8058                      .dwattr $C$DW$T$37, DW_AT_type(*$C$DW$T$12)
    8059                      .dwattr $C$DW$T$37, DW_AT_language(DW_LANG_C)
    8060              
    8061              $C$DW$T$119     .dwtag  DW_TAG_array_type
    8062                      .dwattr $C$DW$T$119, DW_AT_type(*$C$DW$T$37)
    8063                      .dwattr $C$DW$T$119, DW_AT_language(DW_LANG_C)
    8064                      .dwattr $C$DW$T$119, DW_AT_byte_size(0x06)
    8065              $C$DW$1042      .dwtag  DW_TAG_subrange_type
    8066                      .dwattr $C$DW$1042, DW_AT_upper_bound(0x02)
    8067                      .dwendtag $C$DW$T$119
    8068              
    8069              $C$DW$1043      .dwtag  DW_TAG_TI_far_type
TMS320C2000 Assembler PC v6.2.5 Wed Nov 22 14:48:16 2017

Tools Copyright (c) 1996-2014 Texas Instruments Incorporated
C:\Users\wmj\AppData\Local\Temp\1257612                              PAGE  152

    8070                      .dwattr $C$DW$1043, DW_AT_type(*$C$DW$T$37)
    8071              $C$DW$T$253     .dwtag  DW_TAG_volatile_type
    8072                      .dwattr $C$DW$T$253, DW_AT_type(*$C$DW$1043)
    8073              $C$DW$T$128     .dwtag  DW_TAG_typedef, DW_AT_name("_iq20")
    8074                      .dwattr $C$DW$T$128, DW_AT_type(*$C$DW$T$12)
    8075                      .dwattr $C$DW$T$128, DW_AT_language(DW_LANG_C)
    8076              $C$DW$T$61      .dwtag  DW_TAG_typedef, DW_AT_name("int32_t")
    8077                      .dwattr $C$DW$T$61, DW_AT_type(*$C$DW$T$12)
    8078                      .dwattr $C$DW$T$61, DW_AT_language(DW_LANG_C)
    8079              $C$DW$T$13      .dwtag  DW_TAG_base_type
    8080                      .dwattr $C$DW$T$13, DW_AT_encoding(DW_ATE_unsigned)
    8081                      .dwattr $C$DW$T$13, DW_AT_name("unsigned long")
    8082                      .dwattr $C$DW$T$13, DW_AT_byte_size(0x02)
    8083              $C$DW$T$171     .dwtag  DW_TAG_typedef, DW_AT_name("size_t")
    8084                      .dwattr $C$DW$T$171, DW_AT_type(*$C$DW$T$13)
    8085                      .dwattr $C$DW$T$171, DW_AT_language(DW_LANG_C)
    8086              $C$DW$1044      .dwtag  DW_TAG_TI_far_type
    8087                      .dwattr $C$DW$1044, DW_AT_type(*$C$DW$T$171)
    8088              $C$DW$T$172     .dwtag  DW_TAG_const_type
    8089                      .dwattr $C$DW$T$172, DW_AT_type(*$C$DW$1044)
    8090              $C$DW$T$73      .dwtag  DW_TAG_typedef, DW_AT_name("uint32_t")
    8091                      .dwattr $C$DW$T$73, DW_AT_type(*$C$DW$T$13)
    8092                      .dwattr $C$DW$T$73, DW_AT_language(DW_LANG_C)
    8093              $C$DW$1045      .dwtag  DW_TAG_TI_far_type
    8094                      .dwattr $C$DW$1045, DW_AT_type(*$C$DW$T$73)
    8095              $C$DW$T$74      .dwtag  DW_TAG_volatile_type
    8096                      .dwattr $C$DW$T$74, DW_AT_type(*$C$DW$1045)
    8097              $C$DW$T$212     .dwtag  DW_TAG_typedef, DW_AT_name("uint_least32_t")
    8098                      .dwattr $C$DW$T$212, DW_AT_type(*$C$DW$T$73)
    8099                      .dwattr $C$DW$T$212, DW_AT_language(DW_LANG_C)
    8100              $C$DW$T$14      .dwtag  DW_TAG_base_type
    8101                      .dwattr $C$DW$T$14, DW_AT_encoding(DW_ATE_signed)
    8102                      .dwattr $C$DW$T$14, DW_AT_name("long long")
    8103                      .dwattr $C$DW$T$14, DW_AT_byte_size(0x04)
    8104              $C$DW$T$15      .dwtag  DW_TAG_base_type
    8105                      .dwattr $C$DW$T$15, DW_AT_encoding(DW_ATE_unsigned)
    8106                      .dwattr $C$DW$T$15, DW_AT_name("unsigned long long")
    8107                      .dwattr $C$DW$T$15, DW_AT_byte_size(0x04)
    8108              $C$DW$T$16      .dwtag  DW_TAG_base_type
    8109                      .dwattr $C$DW$T$16, DW_AT_encoding(DW_ATE_float)
    8110                      .dwattr $C$DW$T$16, DW_AT_name("float")
    8111                      .dwattr $C$DW$T$16, DW_AT_byte_size(0x02)
    8112              $C$DW$1046      .dwtag  DW_TAG_TI_far_type
    8113                      .dwattr $C$DW$1046, DW_AT_type(*$C$DW$T$16)
    8114              $C$DW$T$255     .dwtag  DW_TAG_const_type
    8115                      .dwattr $C$DW$T$255, DW_AT_type(*$C$DW$1046)
    8116              
    8117              $C$DW$T$256     .dwtag  DW_TAG_array_type
    8118                      .dwattr $C$DW$T$256, DW_AT_type(*$C$DW$T$255)
    8119                      .dwattr $C$DW$T$256, DW_AT_language(DW_LANG_C)
    8120                      .dwattr $C$DW$T$256, DW_AT_byte_size(0x10)
    8121              $C$DW$1047      .dwtag  DW_TAG_subrange_type
    8122                      .dwattr $C$DW$1047, DW_AT_upper_bound(0x07)
    8123                      .dwendtag $C$DW$T$256
    8124              
TMS320C2000 Assembler PC v6.2.5 Wed Nov 22 14:48:16 2017

Tools Copyright (c) 1996-2014 Texas Instruments Incorporated
C:\Users\wmj\AppData\Local\Temp\1257612                              PAGE  153

    8125              $C$DW$T$129     .dwtag  DW_TAG_typedef, DW_AT_name("float_t")
    8126                      .dwattr $C$DW$T$129, DW_AT_type(*$C$DW$T$16)
    8127                      .dwattr $C$DW$T$129, DW_AT_language(DW_LANG_C)
    8128              $C$DW$T$17      .dwtag  DW_TAG_base_type
    8129                      .dwattr $C$DW$T$17, DW_AT_encoding(DW_ATE_float)
    8130                      .dwattr $C$DW$T$17, DW_AT_name("double")
    8131                      .dwattr $C$DW$T$17, DW_AT_byte_size(0x02)
    8132              $C$DW$T$18      .dwtag  DW_TAG_base_type
    8133                      .dwattr $C$DW$T$18, DW_AT_encoding(DW_ATE_float)
    8134                      .dwattr $C$DW$T$18, DW_AT_name("long double")
    8135                      .dwattr $C$DW$T$18, DW_AT_byte_size(0x04)
    8136                      .dwattr $C$DW$CU, DW_AT_language(DW_LANG_C)
    8137              
    8138              ;***************************************************************
    8139              ;* DWARF CIE ENTRIES                                           *
    8140              ;***************************************************************
    8141              
    8142              $C$DW$CIE       .dwcie 78
    8143                      .dwcfi  cfa_register, 20
    8144                      .dwcfi  cfa_offset, 0
    8145                      .dwcfi  undefined, 0
    8146                      .dwcfi  undefined, 1
    8147                      .dwcfi  undefined, 2
    8148                      .dwcfi  undefined, 3
    8149                      .dwcfi  undefined, 20
    8150                      .dwcfi  undefined, 21
    8151                      .dwcfi  undefined, 22
    8152                      .dwcfi  undefined, 23
    8153                      .dwcfi  undefined, 24
    8154                      .dwcfi  undefined, 25
    8155                      .dwcfi  undefined, 26
    8156                      .dwcfi  same_value, 28
    8157                      .dwcfi  undefined, 29
    8158                      .dwcfi  undefined, 30
    8159                      .dwcfi  undefined, 31
    8160                      .dwcfi  undefined, 32
    8161                      .dwcfi  undefined, 33
    8162                      .dwcfi  undefined, 34
    8163                      .dwcfi  undefined, 35
    8164                      .dwcfi  undefined, 36
    8165                      .dwcfi  undefined, 37
    8166                      .dwcfi  undefined, 38
    8167                      .dwcfi  undefined, 75
    8168                      .dwcfi  undefined, 76
    8169                      .dwcfi  undefined, 77
    8170                      .dwcfi  undefined, 4
    8171                      .dwcfi  same_value, 6
    8172                      .dwcfi  same_value, 8
    8173                      .dwcfi  same_value, 10
    8174                      .dwcfi  undefined, 12
    8175                      .dwcfi  undefined, 14
    8176                      .dwcfi  undefined, 16
    8177                      .dwcfi  undefined, 17
    8178                      .dwcfi  undefined, 18
    8179                      .dwcfi  undefined, 19
TMS320C2000 Assembler PC v6.2.5 Wed Nov 22 14:48:16 2017

Tools Copyright (c) 1996-2014 Texas Instruments Incorporated
C:\Users\wmj\AppData\Local\Temp\1257612                              PAGE  154

    8180                      .dwcfi  undefined, 5
    8181                      .dwcfi  same_value, 7
    8182                      .dwcfi  same_value, 9
    8183                      .dwcfi  same_value, 11
    8184                      .dwcfi  undefined, 13
    8185                      .dwcfi  undefined, 15
    8186                      .dwcfi  undefined, 78
    8187                      .dwendentry
    8188              
    8189              ;***************************************************************
    8190              ;* DWARF REGISTER MAP                                          *
    8191              ;***************************************************************
    8192              
    8193              $C$DW$1048      .dwtag  DW_TAG_TI_assign_register, DW_AT_name("AL")
    8194                      .dwattr $C$DW$1048, DW_AT_location[DW_OP_reg0]
    8195              $C$DW$1049      .dwtag  DW_TAG_TI_assign_register, DW_AT_name("AH")
    8196                      .dwattr $C$DW$1049, DW_AT_location[DW_OP_reg1]
    8197              $C$DW$1050      .dwtag  DW_TAG_TI_assign_register, DW_AT_name("PL")
    8198                      .dwattr $C$DW$1050, DW_AT_location[DW_OP_reg2]
    8199              $C$DW$1051      .dwtag  DW_TAG_TI_assign_register, DW_AT_name("PH")
    8200                      .dwattr $C$DW$1051, DW_AT_location[DW_OP_reg3]
    8201              $C$DW$1052      .dwtag  DW_TAG_TI_assign_register, DW_AT_name("SP")
    8202                      .dwattr $C$DW$1052, DW_AT_location[DW_OP_reg20]
    8203              $C$DW$1053      .dwtag  DW_TAG_TI_assign_register, DW_AT_name("XT")
    8204                      .dwattr $C$DW$1053, DW_AT_location[DW_OP_reg21]
    8205              $C$DW$1054      .dwtag  DW_TAG_TI_assign_register, DW_AT_name("T")
    8206                      .dwattr $C$DW$1054, DW_AT_location[DW_OP_reg22]
    8207              $C$DW$1055      .dwtag  DW_TAG_TI_assign_register, DW_AT_name("ST0")
    8208                      .dwattr $C$DW$1055, DW_AT_location[DW_OP_reg23]
    8209              $C$DW$1056      .dwtag  DW_TAG_TI_assign_register, DW_AT_name("ST1")
    8210                      .dwattr $C$DW$1056, DW_AT_location[DW_OP_reg24]
    8211              $C$DW$1057      .dwtag  DW_TAG_TI_assign_register, DW_AT_name("PC")
    8212                      .dwattr $C$DW$1057, DW_AT_location[DW_OP_reg25]
    8213              $C$DW$1058      .dwtag  DW_TAG_TI_assign_register, DW_AT_name("RPC")
    8214                      .dwattr $C$DW$1058, DW_AT_location[DW_OP_reg26]
    8215              $C$DW$1059      .dwtag  DW_TAG_TI_assign_register, DW_AT_name("FP")
    8216                      .dwattr $C$DW$1059, DW_AT_location[DW_OP_reg28]
    8217              $C$DW$1060      .dwtag  DW_TAG_TI_assign_register, DW_AT_name("DP")
    8218                      .dwattr $C$DW$1060, DW_AT_location[DW_OP_reg29]
    8219              $C$DW$1061      .dwtag  DW_TAG_TI_assign_register, DW_AT_name("SXM")
    8220                      .dwattr $C$DW$1061, DW_AT_location[DW_OP_reg30]
    8221              $C$DW$1062      .dwtag  DW_TAG_TI_assign_register, DW_AT_name("PM")
    8222                      .dwattr $C$DW$1062, DW_AT_location[DW_OP_reg31]
    8223              $C$DW$1063      .dwtag  DW_TAG_TI_assign_register, DW_AT_name("OVM")
    8224                      .dwattr $C$DW$1063, DW_AT_location[DW_OP_regx 0x20]
    8225              $C$DW$1064      .dwtag  DW_TAG_TI_assign_register, DW_AT_name("PAGE0")
    8226                      .dwattr $C$DW$1064, DW_AT_location[DW_OP_regx 0x21]
    8227              $C$DW$1065      .dwtag  DW_TAG_TI_assign_register, DW_AT_name("AMODE")
    8228                      .dwattr $C$DW$1065, DW_AT_location[DW_OP_regx 0x22]
    8229              $C$DW$1066      .dwtag  DW_TAG_TI_assign_register, DW_AT_name("INTM")
    8230                      .dwattr $C$DW$1066, DW_AT_location[DW_OP_regx 0x23]
    8231              $C$DW$1067      .dwtag  DW_TAG_TI_assign_register, DW_AT_name("IFR")
    8232                      .dwattr $C$DW$1067, DW_AT_location[DW_OP_regx 0x24]
    8233              $C$DW$1068      .dwtag  DW_TAG_TI_assign_register, DW_AT_name("IER")
    8234                      .dwattr $C$DW$1068, DW_AT_location[DW_OP_regx 0x25]
TMS320C2000 Assembler PC v6.2.5 Wed Nov 22 14:48:16 2017

Tools Copyright (c) 1996-2014 Texas Instruments Incorporated
C:\Users\wmj\AppData\Local\Temp\1257612                              PAGE  155

    8235              $C$DW$1069      .dwtag  DW_TAG_TI_assign_register, DW_AT_name("V")
    8236                      .dwattr $C$DW$1069, DW_AT_location[DW_OP_regx 0x26]
    8237              $C$DW$1070      .dwtag  DW_TAG_TI_assign_register, DW_AT_name("PSEUDOH")
    8238                      .dwattr $C$DW$1070, DW_AT_location[DW_OP_regx 0x4c]
    8239              $C$DW$1071      .dwtag  DW_TAG_TI_assign_register, DW_AT_name("VOL")
    8240                      .dwattr $C$DW$1071, DW_AT_location[DW_OP_regx 0x4d]
    8241              $C$DW$1072      .dwtag  DW_TAG_TI_assign_register, DW_AT_name("AR0")
    8242                      .dwattr $C$DW$1072, DW_AT_location[DW_OP_reg4]
    8243              $C$DW$1073      .dwtag  DW_TAG_TI_assign_register, DW_AT_name("AR1")
    8244                      .dwattr $C$DW$1073, DW_AT_location[DW_OP_reg6]
    8245              $C$DW$1074      .dwtag  DW_TAG_TI_assign_register, DW_AT_name("AR2")
    8246                      .dwattr $C$DW$1074, DW_AT_location[DW_OP_reg8]
    8247              $C$DW$1075      .dwtag  DW_TAG_TI_assign_register, DW_AT_name("AR3")
    8248                      .dwattr $C$DW$1075, DW_AT_location[DW_OP_reg10]
    8249              $C$DW$1076      .dwtag  DW_TAG_TI_assign_register, DW_AT_name("AR4")
    8250                      .dwattr $C$DW$1076, DW_AT_location[DW_OP_reg12]
    8251              $C$DW$1077      .dwtag  DW_TAG_TI_assign_register, DW_AT_name("AR5")
    8252                      .dwattr $C$DW$1077, DW_AT_location[DW_OP_reg14]
    8253              $C$DW$1078      .dwtag  DW_TAG_TI_assign_register, DW_AT_name("AR6")
    8254                      .dwattr $C$DW$1078, DW_AT_location[DW_OP_reg16]
    8255              $C$DW$1079      .dwtag  DW_TAG_TI_assign_register, DW_AT_name("XAR6")
    8256                      .dwattr $C$DW$1079, DW_AT_location[DW_OP_reg17]
    8257              $C$DW$1080      .dwtag  DW_TAG_TI_assign_register, DW_AT_name("AR7")
    8258                      .dwattr $C$DW$1080, DW_AT_location[DW_OP_reg18]
    8259              $C$DW$1081      .dwtag  DW_TAG_TI_assign_register, DW_AT_name("XAR7")
    8260                      .dwattr $C$DW$1081, DW_AT_location[DW_OP_reg19]
    8261              $C$DW$1082      .dwtag  DW_TAG_TI_assign_register, DW_AT_name("XAR0")
    8262                      .dwattr $C$DW$1082, DW_AT_location[DW_OP_reg5]
    8263              $C$DW$1083      .dwtag  DW_TAG_TI_assign_register, DW_AT_name("XAR1")
    8264                      .dwattr $C$DW$1083, DW_AT_location[DW_OP_reg7]
    8265              $C$DW$1084      .dwtag  DW_TAG_TI_assign_register, DW_AT_name("XAR2")
    8266                      .dwattr $C$DW$1084, DW_AT_location[DW_OP_reg9]
    8267              $C$DW$1085      .dwtag  DW_TAG_TI_assign_register, DW_AT_name("XAR3")
    8268                      .dwattr $C$DW$1085, DW_AT_location[DW_OP_reg11]
    8269              $C$DW$1086      .dwtag  DW_TAG_TI_assign_register, DW_AT_name("XAR4")
    8270                      .dwattr $C$DW$1086, DW_AT_location[DW_OP_reg13]
    8271              $C$DW$1087      .dwtag  DW_TAG_TI_assign_register, DW_AT_name("XAR5")
    8272                      .dwattr $C$DW$1087, DW_AT_location[DW_OP_reg15]
    8273              $C$DW$1088      .dwtag  DW_TAG_TI_assign_register, DW_AT_name("CIE_RETA")
    8274                      .dwattr $C$DW$1088, DW_AT_location[DW_OP_regx 0x4e]
    8275                      .dwendtag $C$DW$CU
    8276              

No Assembly Errors, No Assembly Warnings
