TMS320C2000 Assembler PC v6.2.5 Sat Sep 16 14:55:48 2017

Tools Copyright (c) 1996-2014 Texas Instruments Incorporated
C:\Users\wmj\AppData\Local\Temp\1116811                              PAGE    1

       1              ;***************************************************************
       2              ;* TMS320C2000 C/C++ Codegen                         PC v6.2.5 *
       3              ;* Date/Time created: Sat Sep 16 14:55:48 2017                 *
       4              ;***************************************************************
       5                      .compiler_opts --float_support=softlib --hll_source=on --mem_model:code=flat --mem_model:data=large -
       6        0002  FP      .set    XAR2
       7              
       8              $C$DW$CU        .dwtag  DW_TAG_compile_unit
       9                      .dwattr $C$DW$CU, DW_AT_name("D:/BM1000/sw/drivers/drvic/ldc1612.c")
      10                      .dwattr $C$DW$CU, DW_AT_producer("TMS320C2000 C/C++ Codegen PC v6.2.5 Copyright (c) 1996-2014 Texas I
      11                      .dwattr $C$DW$CU, DW_AT_TI_version(0x01)
      12                      .dwattr $C$DW$CU, DW_AT_comp_dir("D:\BM1000\sw\solutions\instaspin_foc\boards\hvkit_rev1p1\f28x\f2802
      13              ;**************************************************************
      14              ;* CINIT RECORDS                                              *
      15              ;**************************************************************
      16 00000000               .sect   ".cinit"
      17                      .align  1
      18 00000000 FFFE          .field          -2,16
      19 00000001 0002-         .field          _Avage$3+0,32
         00000002 0000 
      20 00000003 0000          .bits   67108864,32                     ; _Avage$3 @ 0
         00000004 0400 
      21              
      22 00000005               .sect   ".cinit"
      23                      .align  1
      24 00000005 FFFE          .field          -2,16
      25 00000006 0004-         .field          _Sum$4+0,32
         00000007 0000 
      26 00000008 0000          .bits   1073741824,32                   ; _Sum$4 @ 0
         00000009 4000 
      27              
      28 0000000a               .sect   ".cinit"
      29                      .align  1
      30 0000000a FFFE          .field          -2,16
      31 0000000b 0006-         .field          _oldData$5+0,32
         0000000c 0000 
      32 0000000d D480          .bits   14800000,32                     ; _oldData$5 @ 0
         0000000e 00E1 
      33              
      34              
      35              $C$DW$1 .dwtag  DW_TAG_subprogram, DW_AT_name("GPIO_setLow")
      36                      .dwattr $C$DW$1, DW_AT_TI_symbol_name("_GPIO_setLow")
      37                      .dwattr $C$DW$1, DW_AT_declaration
      38                      .dwattr $C$DW$1, DW_AT_external
      39              $C$DW$2 .dwtag  DW_TAG_formal_parameter
      40                      .dwattr $C$DW$2, DW_AT_type(*$C$DW$T$46)
      41              $C$DW$3 .dwtag  DW_TAG_formal_parameter
      42                      .dwattr $C$DW$3, DW_AT_type(*$C$DW$T$87)
      43                      .dwendtag $C$DW$1
      44              
      45              
      46              $C$DW$4 .dwtag  DW_TAG_subprogram, DW_AT_name("GPIO_setDirection")
      47                      .dwattr $C$DW$4, DW_AT_TI_symbol_name("_GPIO_setDirection")
      48                      .dwattr $C$DW$4, DW_AT_declaration
      49                      .dwattr $C$DW$4, DW_AT_external
TMS320C2000 Assembler PC v6.2.5 Sat Sep 16 14:55:48 2017

Tools Copyright (c) 1996-2014 Texas Instruments Incorporated
C:\Users\wmj\AppData\Local\Temp\1116811                              PAGE    2

      50              $C$DW$5 .dwtag  DW_TAG_formal_parameter
      51                      .dwattr $C$DW$5, DW_AT_type(*$C$DW$T$46)
      52              $C$DW$6 .dwtag  DW_TAG_formal_parameter
      53                      .dwattr $C$DW$6, DW_AT_type(*$C$DW$T$87)
      54              $C$DW$7 .dwtag  DW_TAG_formal_parameter
      55                      .dwattr $C$DW$7, DW_AT_type(*$C$DW$T$90)
      56                      .dwendtag $C$DW$4
      57              
      58              
      59              $C$DW$8 .dwtag  DW_TAG_subprogram, DW_AT_name("GPIO_setMode")
      60                      .dwattr $C$DW$8, DW_AT_TI_symbol_name("_GPIO_setMode")
      61                      .dwattr $C$DW$8, DW_AT_declaration
      62                      .dwattr $C$DW$8, DW_AT_external
      63              $C$DW$9 .dwtag  DW_TAG_formal_parameter
      64                      .dwattr $C$DW$9, DW_AT_type(*$C$DW$T$46)
      65              $C$DW$10        .dwtag  DW_TAG_formal_parameter
      66                      .dwattr $C$DW$10, DW_AT_type(*$C$DW$T$87)
      67              $C$DW$11        .dwtag  DW_TAG_formal_parameter
      68                      .dwattr $C$DW$11, DW_AT_type(*$C$DW$T$93)
      69                      .dwendtag $C$DW$8
      70              
      71              
      72              $C$DW$12        .dwtag  DW_TAG_subprogram, DW_AT_name("I2C_MasterControl")
      73                      .dwattr $C$DW$12, DW_AT_TI_symbol_name("_I2C_MasterControl")
      74                      .dwattr $C$DW$12, DW_AT_declaration
      75                      .dwattr $C$DW$12, DW_AT_external
      76              $C$DW$13        .dwtag  DW_TAG_formal_parameter
      77                      .dwattr $C$DW$13, DW_AT_type(*$C$DW$T$44)
      78              $C$DW$14        .dwtag  DW_TAG_formal_parameter
      79                      .dwattr $C$DW$14, DW_AT_type(*$C$DW$T$77)
      80              $C$DW$15        .dwtag  DW_TAG_formal_parameter
      81                      .dwattr $C$DW$15, DW_AT_type(*$C$DW$T$79)
      82              $C$DW$16        .dwtag  DW_TAG_formal_parameter
      83                      .dwattr $C$DW$16, DW_AT_type(*$C$DW$T$21)
      84                      .dwendtag $C$DW$12
      85              
      86              
      87              $C$DW$17        .dwtag  DW_TAG_subprogram, DW_AT_name("_nop")
      88                      .dwattr $C$DW$17, DW_AT_TI_symbol_name("__nop")
      89                      .dwattr $C$DW$17, DW_AT_declaration
      90                      .dwattr $C$DW$17, DW_AT_external
      91              
      92              $C$DW$18        .dwtag  DW_TAG_subprogram, DW_AT_name("I2C_enable")
      93                      .dwattr $C$DW$18, DW_AT_TI_symbol_name("_I2C_enable")
      94                      .dwattr $C$DW$18, DW_AT_declaration
      95                      .dwattr $C$DW$18, DW_AT_external
      96              $C$DW$19        .dwtag  DW_TAG_formal_parameter
      97                      .dwattr $C$DW$19, DW_AT_type(*$C$DW$T$44)
      98                      .dwendtag $C$DW$18
      99              
     100              
     101              $C$DW$20        .dwtag  DW_TAG_subprogram, DW_AT_name("I2C_setMasterSlaveAddr")
     102                      .dwattr $C$DW$20, DW_AT_TI_symbol_name("_I2C_setMasterSlaveAddr")
     103                      .dwattr $C$DW$20, DW_AT_declaration
     104                      .dwattr $C$DW$20, DW_AT_external
TMS320C2000 Assembler PC v6.2.5 Sat Sep 16 14:55:48 2017

Tools Copyright (c) 1996-2014 Texas Instruments Incorporated
C:\Users\wmj\AppData\Local\Temp\1116811                              PAGE    3

     105              $C$DW$21        .dwtag  DW_TAG_formal_parameter
     106                      .dwattr $C$DW$21, DW_AT_type(*$C$DW$T$44)
     107              $C$DW$22        .dwtag  DW_TAG_formal_parameter
     108                      .dwattr $C$DW$22, DW_AT_type(*$C$DW$T$138)
     109                      .dwendtag $C$DW$20
     110              
     111              
     112              $C$DW$23        .dwtag  DW_TAG_subprogram, DW_AT_name("I2C_putData")
     113                      .dwattr $C$DW$23, DW_AT_TI_symbol_name("_I2C_putData")
     114                      .dwattr $C$DW$23, DW_AT_declaration
     115                      .dwattr $C$DW$23, DW_AT_external
     116              $C$DW$24        .dwtag  DW_TAG_formal_parameter
     117                      .dwattr $C$DW$24, DW_AT_type(*$C$DW$T$44)
     118              $C$DW$25        .dwtag  DW_TAG_formal_parameter
     119                      .dwattr $C$DW$25, DW_AT_type(*$C$DW$T$21)
     120                      .dwendtag $C$DW$23
     121              
     122 00000000       _WaitTimeOut$2: .usect  ".ebss",1,1,0
     123 00000001       _WaitTimeOut$1: .usect  ".ebss",1,1,0
     124              
     125              $C$DW$26        .dwtag  DW_TAG_subprogram, DW_AT_name("I2C_getStatus")
     126                      .dwattr $C$DW$26, DW_AT_TI_symbol_name("_I2C_getStatus")
     127                      .dwattr $C$DW$26, DW_AT_type(*$C$DW$T$81)
     128                      .dwattr $C$DW$26, DW_AT_declaration
     129                      .dwattr $C$DW$26, DW_AT_external
     130              $C$DW$27        .dwtag  DW_TAG_formal_parameter
     131                      .dwattr $C$DW$27, DW_AT_type(*$C$DW$T$44)
     132                      .dwendtag $C$DW$26
     133              
     134              
     135              $C$DW$28        .dwtag  DW_TAG_subprogram, DW_AT_name("I2C_getData")
     136                      .dwattr $C$DW$28, DW_AT_TI_symbol_name("_I2C_getData")
     137                      .dwattr $C$DW$28, DW_AT_type(*$C$DW$T$21)
     138                      .dwattr $C$DW$28, DW_AT_declaration
     139                      .dwattr $C$DW$28, DW_AT_external
     140              $C$DW$29        .dwtag  DW_TAG_formal_parameter
     141                      .dwattr $C$DW$29, DW_AT_type(*$C$DW$T$44)
     142                      .dwendtag $C$DW$28
     143              
     144              
     145              $C$DW$30        .dwtag  DW_TAG_subprogram, DW_AT_name("I2C_isMasterBusy")
     146                      .dwattr $C$DW$30, DW_AT_TI_symbol_name("_I2C_isMasterBusy")
     147                      .dwattr $C$DW$30, DW_AT_type(*$C$DW$T$35)
     148                      .dwattr $C$DW$30, DW_AT_declaration
     149                      .dwattr $C$DW$30, DW_AT_external
     150              $C$DW$31        .dwtag  DW_TAG_formal_parameter
     151                      .dwattr $C$DW$31, DW_AT_type(*$C$DW$T$44)
     152                      .dwendtag $C$DW$30
     153              
     154 00000002       _Avage$3:       .usect  ".ebss",2,1,1
     155 00000004       _Sum$4: .usect  ".ebss",2,1,1
     156 00000006       _oldData$5:     .usect  ".ebss",2,1,1
     157              ;       C:\ti\ccsv6\tools\compiler\c2000_6.2.5\bin\opt2000.exe C:\\Users\\wmj\\AppData\\Local\\Temp\\111683 C
     158              ;       C:\ti\ccsv6\tools\compiler\c2000_6.2.5\bin\ac2000.exe -@C:\\Users\\wmj\\AppData\\Local\\Temp\\1116817
     159 00000000               .sect   ".text"
TMS320C2000 Assembler PC v6.2.5 Sat Sep 16 14:55:48 2017

Tools Copyright (c) 1996-2014 Texas Instruments Incorporated
C:\Users\wmj\AppData\Local\Temp\1116811                              PAGE    4

     160                      .clink
     161                      .global _LDC161x_getSettleCnt
     162              
     163              $C$DW$32        .dwtag  DW_TAG_subprogram, DW_AT_name("LDC161x_getSettleCnt")
     164                      .dwattr $C$DW$32, DW_AT_low_pc(_LDC161x_getSettleCnt)
     165                      .dwattr $C$DW$32, DW_AT_high_pc(0x00)
     166                      .dwattr $C$DW$32, DW_AT_TI_symbol_name("_LDC161x_getSettleCnt")
     167                      .dwattr $C$DW$32, DW_AT_external
     168                      .dwattr $C$DW$32, DW_AT_TI_begin_file("D:/BM1000/sw/drivers/drvic/ldc1612.c")
     169                      .dwattr $C$DW$32, DW_AT_TI_begin_line(0x3e0)
     170                      .dwattr $C$DW$32, DW_AT_TI_begin_column(0x06)
     171                      .dwattr $C$DW$32, DW_AT_TI_max_frame_size(-2)
     172                      .dwpsn  file "D:/BM1000/sw/drivers/drvic/ldc1612.c",line 993,column 1,is_stmt,address _LDC161x_getSet
     173              
     174                      .dwfde $C$DW$CIE, _LDC161x_getSettleCnt
     175              $C$DW$33        .dwtag  DW_TAG_formal_parameter, DW_AT_name("handle")
     176                      .dwattr $C$DW$33, DW_AT_TI_symbol_name("_handle")
     177                      .dwattr $C$DW$33, DW_AT_type(*$C$DW$T$48)
     178                      .dwattr $C$DW$33, DW_AT_location[DW_OP_reg12]
     179              $C$DW$34        .dwtag  DW_TAG_formal_parameter, DW_AT_name("Channel")
     180                      .dwattr $C$DW$34, DW_AT_TI_symbol_name("_Channel")
     181                      .dwattr $C$DW$34, DW_AT_type(*$C$DW$T$138)
     182                      .dwattr $C$DW$34, DW_AT_location[DW_OP_reg0]
     183              $C$DW$35        .dwtag  DW_TAG_formal_parameter, DW_AT_name("drvDataGet")
     184                      .dwattr $C$DW$35, DW_AT_TI_symbol_name("_drvDataGet")
     185                      .dwattr $C$DW$35, DW_AT_type(*$C$DW$T$157)
     186                      .dwattr $C$DW$35, DW_AT_location[DW_OP_reg14]
     187              
     188              ;***************************************************************
     189              ;* FNAME: _LDC161x_getSettleCnt         FR SIZE:   0           *
     190              ;*                                                             *
     191              ;* FUNCTION ENVIRONMENT                                        *
     192              ;*                                                             *
     193              ;* FUNCTION PROPERTIES                                         *
     194              ;*                            0 Parameter,  0 Auto,  0 SOE     *
     195              ;***************************************************************
     196              
     197              _LDC161x_getSettleCnt:
     198              ;* AL    assigned to _drvData
     199              $C$DW$36        .dwtag  DW_TAG_variable, DW_AT_name("drvData")
     200                      .dwattr $C$DW$36, DW_AT_TI_symbol_name("_drvData")
     201                      .dwattr $C$DW$36, DW_AT_type(*$C$DW$T$21)
     202                      .dwattr $C$DW$36, DW_AT_location[DW_OP_reg0]
     203              ;* AR5   assigned to _drvDataGet
     204              $C$DW$37        .dwtag  DW_TAG_variable, DW_AT_name("drvDataGet")
     205                      .dwattr $C$DW$37, DW_AT_TI_symbol_name("_drvDataGet")
     206                      .dwattr $C$DW$37, DW_AT_type(*$C$DW$T$170)
     207                      .dwattr $C$DW$37, DW_AT_location[DW_OP_reg14]
     208              ;* AL    assigned to _Channel
     209              $C$DW$38        .dwtag  DW_TAG_variable, DW_AT_name("Channel")
     210                      .dwattr $C$DW$38, DW_AT_TI_symbol_name("_Channel")
     211                      .dwattr $C$DW$38, DW_AT_type(*$C$DW$T$138)
     212                      .dwattr $C$DW$38, DW_AT_location[DW_OP_reg0]
     213              ;* AR4   assigned to _handle
     214              $C$DW$39        .dwtag  DW_TAG_variable, DW_AT_name("handle")
TMS320C2000 Assembler PC v6.2.5 Sat Sep 16 14:55:48 2017

Tools Copyright (c) 1996-2014 Texas Instruments Incorporated
C:\Users\wmj\AppData\Local\Temp\1116811                              PAGE    5

     215                      .dwattr $C$DW$39, DW_AT_TI_symbol_name("_handle")
     216                      .dwattr $C$DW$39, DW_AT_type(*$C$DW$T$111)
     217                      .dwattr $C$DW$39, DW_AT_location[DW_OP_reg12]
     218                      .dwcfi  cfa_offset, -2
     219                      .dwcfi  save_reg_to_mem, 26, 0
     220                      .dwcfi  save_reg_to_reg, 78, 26
     221                      .dwpsn  file "D:/BM1000/sw/drivers/drvic/ldc1612.c",line 995,column 20,is_stmt
     222 00000000 5200          CMPB      AL,#0                 ; [CPU_] |995| 
     223 00000001 EC03          BF        $C$L1,EQ              ; [CPU_] |995| 
     224                      ; branchcc occurs ; [] |995| 
     225 00000002 9A00          MOVB      AL,#0                 ; [CPU_] |995| 
     226 00000003 6F03          B         $C$L2,UNC             ; [CPU_] |995| 
     227                      ; branch occurs ; [] |995| 
     228 00000004       $C$L1:    
     229 00000004 D008          MOVB      XAR0,#8               ; [CPU_] |995| 
     230 00000005 9294          MOV       AL,*+XAR4[AR0]        ; [CPU_] |995| 
     231 00000006       $C$L2:    
     232                      .dwpsn  file "D:/BM1000/sw/drivers/drvic/ldc1612.c",line 1011,column 3,is_stmt
     233 00000006 96C5          MOV       *+XAR5[0],AL          ; [CPU_] |1011| 
     234              $C$DW$40        .dwtag  DW_TAG_TI_branch
     235                      .dwattr $C$DW$40, DW_AT_low_pc(0x00)
     236                      .dwattr $C$DW$40, DW_AT_TI_return
     237 00000007 0006          LRETR     ; [CPU_] 
     238                      ; return occurs ; [] 
     239                      .dwattr $C$DW$32, DW_AT_TI_end_file("D:/BM1000/sw/drivers/drvic/ldc1612.c")
     240                      .dwattr $C$DW$32, DW_AT_TI_end_line(0x3f6)
     241                      .dwattr $C$DW$32, DW_AT_TI_end_column(0x01)
     242                      .dwendentry
     243                      .dwendtag $C$DW$32
     244              
     245 00000008               .sect   ".text"
     246                      .clink
     247                      .global _LDC161x_writeI2c
     248              
     249              $C$DW$41        .dwtag  DW_TAG_subprogram, DW_AT_name("LDC161x_writeI2c")
     250                      .dwattr $C$DW$41, DW_AT_low_pc(_LDC161x_writeI2c)
     251                      .dwattr $C$DW$41, DW_AT_high_pc(0x00)
     252                      .dwattr $C$DW$41, DW_AT_TI_symbol_name("_LDC161x_writeI2c")
     253                      .dwattr $C$DW$41, DW_AT_external
     254                      .dwattr $C$DW$41, DW_AT_TI_begin_file("D:/BM1000/sw/drivers/drvic/ldc1612.c")
     255                      .dwattr $C$DW$41, DW_AT_TI_begin_line(0x10)
     256                      .dwattr $C$DW$41, DW_AT_TI_begin_column(0x06)
     257                      .dwattr $C$DW$41, DW_AT_TI_max_frame_size(-8)
     258                      .dwpsn  file "D:/BM1000/sw/drivers/drvic/ldc1612.c",line 17,column 1,is_stmt,address _LDC161x_writeI2
     259              
     260                      .dwfde $C$DW$CIE, _LDC161x_writeI2c
     261              $C$DW$42        .dwtag  DW_TAG_variable, DW_AT_name("WaitTimeOut")
     262                      .dwattr $C$DW$42, DW_AT_TI_symbol_name("_WaitTimeOut$1")
     263                      .dwattr $C$DW$42, DW_AT_type(*$C$DW$T$27)
     264                      .dwattr $C$DW$42, DW_AT_location[DW_OP_addr _WaitTimeOut$1]
     265              $C$DW$43        .dwtag  DW_TAG_formal_parameter, DW_AT_name("handle")
     266                      .dwattr $C$DW$43, DW_AT_TI_symbol_name("_handle")
     267                      .dwattr $C$DW$43, DW_AT_type(*$C$DW$T$122)
     268                      .dwattr $C$DW$43, DW_AT_location[DW_OP_reg12]
     269              $C$DW$44        .dwtag  DW_TAG_formal_parameter, DW_AT_name("regName")
TMS320C2000 Assembler PC v6.2.5 Sat Sep 16 14:55:48 2017

Tools Copyright (c) 1996-2014 Texas Instruments Incorporated
C:\Users\wmj\AppData\Local\Temp\1116811                              PAGE    6

     270                      .dwattr $C$DW$44, DW_AT_TI_symbol_name("_regName")
     271                      .dwattr $C$DW$44, DW_AT_type(*$C$DW$T$96)
     272                      .dwattr $C$DW$44, DW_AT_location[DW_OP_reg0]
     273              $C$DW$45        .dwtag  DW_TAG_formal_parameter, DW_AT_name("data")
     274                      .dwattr $C$DW$45, DW_AT_TI_symbol_name("_data")
     275                      .dwattr $C$DW$45, DW_AT_type(*$C$DW$T$138)
     276                      .dwattr $C$DW$45, DW_AT_location[DW_OP_reg1]
     277              
     278              ;***************************************************************
     279              ;* FNAME: _LDC161x_writeI2c             FR SIZE:   6           *
     280              ;*                                                             *
     281              ;* FUNCTION ENVIRONMENT                                        *
     282              ;*                                                             *
     283              ;* FUNCTION PROPERTIES                                         *
     284              ;*                            0 Parameter,  0 Auto,  6 SOE     *
     285              ;***************************************************************
     286              
     287              _LDC161x_writeI2c:
     288              ;* AR1   assigned to _data
     289              $C$DW$46        .dwtag  DW_TAG_variable, DW_AT_name("data")
     290                      .dwattr $C$DW$46, DW_AT_TI_symbol_name("_data")
     291                      .dwattr $C$DW$46, DW_AT_type(*$C$DW$T$138)
     292                      .dwattr $C$DW$46, DW_AT_location[DW_OP_reg6]
     293              ;* AR2   assigned to _regName
     294              $C$DW$47        .dwtag  DW_TAG_variable, DW_AT_name("regName")
     295                      .dwattr $C$DW$47, DW_AT_TI_symbol_name("_regName")
     296                      .dwattr $C$DW$47, DW_AT_type(*$C$DW$T$96)
     297                      .dwattr $C$DW$47, DW_AT_location[DW_OP_reg8]
     298              ;* AR3   assigned to _handle
     299              $C$DW$48        .dwtag  DW_TAG_variable, DW_AT_name("handle")
     300                      .dwattr $C$DW$48, DW_AT_TI_symbol_name("_handle")
     301                      .dwattr $C$DW$48, DW_AT_type(*$C$DW$T$123)
     302                      .dwattr $C$DW$48, DW_AT_location[DW_OP_reg10]
     303                      .dwcfi  cfa_offset, -2
     304                      .dwcfi  save_reg_to_mem, 26, 0
     305                      .dwcfi  save_reg_to_reg, 78, 26
     306 00000008 B2BD          MOVL      *SP++,XAR1            ; [CPU_] 
     307                      .dwcfi  save_reg_to_mem, 7, 2
     308                      .dwcfi  cfa_offset, -4
     309 00000009 59A8          MOVZ      AR1,AH                ; [CPU_] |17| 
     310 0000000a AABD          MOVL      *SP++,XAR2            ; [CPU_] 
     311                      .dwcfi  save_reg_to_mem, 9, 4
     312                      .dwcfi  cfa_offset, -6
     313 0000000b 5AA9          MOVZ      AR2,AL                ; [CPU_] |17| 
     314 0000000c A2BD          MOVL      *SP++,XAR3            ; [CPU_] 
     315                      .dwcfi  save_reg_to_mem, 11, 6
     316                      .dwcfi  cfa_offset, -8
     317 0000000d 82A4          MOVL      XAR3,XAR4             ; [CPU_] |17| 
     318                      .dwpsn  file "D:/BM1000/sw/drivers/drvic/ldc1612.c",line 22,column 4,is_stmt
     319 0000000e 6F08          B         $C$L4,UNC             ; [CPU_] |22| 
     320                      ; branch occurs ; [] |22| 
     321 0000000f       $C$L3:    
     322                      .dwpsn  file "D:/BM1000/sw/drivers/drvic/ldc1612.c",line 23,column 8,is_stmt
     323 0000000f 8AC3          MOVL      XAR4,*+XAR3[0]        ; [CPU_] |23| 
     324 00000010 9B00          MOVB      AH,#0                 ; [CPU_] |23| 
TMS320C2000 Assembler PC v6.2.5 Sat Sep 16 14:55:48 2017

Tools Copyright (c) 1996-2014 Texas Instruments Incorporated
C:\Users\wmj\AppData\Local\Temp\1116811                              PAGE    7

     325 00000011 D501          MOVB      XAR5,#1               ; [CPU_] |23| 
     326 00000012 28A9          MOV       AL,#3072              ; [CPU_] |23| 
         00000013 0C00 
     327              $C$DW$49        .dwtag  DW_TAG_TI_branch
     328                      .dwattr $C$DW$49, DW_AT_low_pc(0x00)
     329                      .dwattr $C$DW$49, DW_AT_name("_I2C_MasterControl")
     330                      .dwattr $C$DW$49, DW_AT_TI_call
     331 00000014 7640!         LCR       #_I2C_MasterControl   ; [CPU_] |23| 
         00000015 0000 
     332                      ; call occurs [#_I2C_MasterControl] ; [] |23| 
     333 00000016       $C$L4:    
     334 00000016 8AC3          MOVL      XAR4,*+XAR3[0]        ; [CPU_] |23| 
     335              $C$DW$50        .dwtag  DW_TAG_TI_branch
     336                      .dwattr $C$DW$50, DW_AT_low_pc(0x00)
     337                      .dwattr $C$DW$50, DW_AT_name("_I2C_isMasterBusy")
     338                      .dwattr $C$DW$50, DW_AT_TI_call
     339 00000017 7640!         LCR       #_I2C_isMasterBusy    ; [CPU_] |23| 
         00000018 0000 
     340                      ; call occurs [#_I2C_isMasterBusy] ; [] |23| 
     341 00000019 5200          CMPB      AL,#0                 ; [CPU_] |23| 
     342 0000001a EDF5          BF        $C$L3,NEQ             ; [CPU_] |23| 
     343                      ; branchcc occurs ; [] |23| 
     344                      .dwpsn  file "D:/BM1000/sw/drivers/drvic/ldc1612.c",line 25,column 4,is_stmt
     345 0000001b D048          MOVB      XAR0,#72              ; [CPU_] |25| 
     346 0000001c 9293          MOV       AL,*+XAR3[AR0]        ; [CPU_] |25| 
     347 0000001d 5201          CMPB      AL,#1                 ; [CPU_] |25| 
     348 0000001e EC5A          BF        $C$L11,EQ             ; [CPU_] |25| 
     349                      ; branchcc occurs ; [] |25| 
     350 0000001f D049          MOVB      XAR0,#73              ; [CPU_] |25| 
     351 00000020 9293          MOV       AL,*+XAR3[AR0]        ; [CPU_] |25| 
     352 00000021 5201          CMPB      AL,#1                 ; [CPU_] |25| 
     353 00000022 EC56          BF        $C$L11,EQ             ; [CPU_] |25| 
     354                      ; branchcc occurs ; [] |25| 
     355                      .dwpsn  file "D:/BM1000/sw/drivers/drvic/ldc1612.c",line 31,column 4,is_stmt
     356 00000023 D047          MOVB      XAR0,#71              ; [CPU_] |31| 
     357 00000024 8AC3          MOVL      XAR4,*+XAR3[0]        ; [CPU_] |31| 
     358 00000025 9293          MOV       AL,*+XAR3[AR0]        ; [CPU_] |31| 
     359              $C$DW$51        .dwtag  DW_TAG_TI_branch
     360                      .dwattr $C$DW$51, DW_AT_low_pc(0x00)
     361                      .dwattr $C$DW$51, DW_AT_name("_I2C_setMasterSlaveAddr")
     362                      .dwattr $C$DW$51, DW_AT_TI_call
     363 00000026 7640!         LCR       #_I2C_setMasterSlaveAddr ; [CPU_] |31| 
         00000027 0000 
     364                      ; call occurs [#_I2C_setMasterSlaveAddr] ; [] |31| 
     365                      .dwpsn  file "D:/BM1000/sw/drivers/drvic/ldc1612.c",line 32,column 4,is_stmt
     366 00000028 9B00          MOVB      AH,#0                 ; [CPU_] |32| 
     367 00000029 D503          MOVB      XAR5,#3               ; [CPU_] |32| 
     368 0000002a 28A9          MOV       AL,#11776             ; [CPU_] |32| 
         0000002b 2E00 
     369 0000002c 8AC3          MOVL      XAR4,*+XAR3[0]        ; [CPU_] |32| 
     370              $C$DW$52        .dwtag  DW_TAG_TI_branch
     371                      .dwattr $C$DW$52, DW_AT_low_pc(0x00)
     372                      .dwattr $C$DW$52, DW_AT_name("_I2C_MasterControl")
     373                      .dwattr $C$DW$52, DW_AT_TI_call
     374 0000002d 7640!         LCR       #_I2C_MasterControl   ; [CPU_] |32| 
TMS320C2000 Assembler PC v6.2.5 Sat Sep 16 14:55:48 2017

Tools Copyright (c) 1996-2014 Texas Instruments Incorporated
C:\Users\wmj\AppData\Local\Temp\1116811                              PAGE    8

         0000002e 0000 
     375                      ; call occurs [#_I2C_MasterControl] ; [] |32| 
     376                      .dwpsn  file "D:/BM1000/sw/drivers/drvic/ldc1612.c",line 33,column 4,is_stmt
     377 0000002f 8AC3          MOVL      XAR4,*+XAR3[0]        ; [CPU_] |33| 
     378              $C$DW$53        .dwtag  DW_TAG_TI_branch
     379                      .dwattr $C$DW$53, DW_AT_low_pc(0x00)
     380                      .dwattr $C$DW$53, DW_AT_name("_I2C_enable")
     381                      .dwattr $C$DW$53, DW_AT_TI_call
     382 00000030 7640!         LCR       #_I2C_enable          ; [CPU_] |33| 
         00000031 0000 
     383                      ; call occurs [#_I2C_enable] ; [] |33| 
     384                      .dwpsn  file "D:/BM1000/sw/drivers/drvic/ldc1612.c",line 36,column 4,is_stmt
     385 00000032 92A2          MOV       AL,AR2                ; [CPU_] |36| 
     386 00000033 8AC3          MOVL      XAR4,*+XAR3[0]        ; [CPU_] |36| 
     387              $C$DW$54        .dwtag  DW_TAG_TI_branch
     388                      .dwattr $C$DW$54, DW_AT_low_pc(0x00)
     389                      .dwattr $C$DW$54, DW_AT_name("_I2C_putData")
     390                      .dwattr $C$DW$54, DW_AT_TI_call
     391 00000034 7640!         LCR       #_I2C_putData         ; [CPU_] |36| 
         00000035 0000 
     392                      ; call occurs [#_I2C_putData] ; [] |36| 
     393 00000036 761F-         MOVW      DP,#_WaitTimeOut$1    ; [CPU_U] 
         00000037 0000 
     394                      .dwpsn  file "D:/BM1000/sw/drivers/drvic/ldc1612.c",line 38,column 4,is_stmt
     395 00000038 2B01-         MOV       @_WaitTimeOut$1,#0    ; [CPU_] |38| 
     396 00000039       $C$L5:    
     397                      .dwpsn  file "D:/BM1000/sw/drivers/drvic/ldc1612.c",line 39,column 10,is_stmt
     398 00000039 8AC3          MOVL      XAR4,*+XAR3[0]        ; [CPU_] |39| 
     399              $C$DW$55        .dwtag  DW_TAG_TI_branch
     400                      .dwattr $C$DW$55, DW_AT_low_pc(0x00)
     401                      .dwattr $C$DW$55, DW_AT_name("_I2C_getStatus")
     402                      .dwattr $C$DW$55, DW_AT_TI_call
     403 0000003a 7640!         LCR       #_I2C_getStatus       ; [CPU_] |39| 
         0000003b 0000 
     404                      ; call occurs [#_I2C_getStatus] ; [] |39| 
     405 0000003c 44A9          TBIT      AL,#4                 ; [CPU_] |39| 
     406 0000003d EE0B          BF        $C$L6,TC              ; [CPU_] |39| 
     407                      ; branchcc occurs ; [] |39| 
     408 0000003e 761F-         MOVW      DP,#_WaitTimeOut$1    ; [CPU_U] 
         0000003f 0000 
     409 00000040 1B01-         CMP       @_WaitTimeOut$1,#8191 ; [CPU_] |39| 
         00000041 1FFF 
     410 00000042 6706          B         $C$L6,HIS             ; [CPU_] |39| 
     411                      ; branchcc occurs ; [] |39| 
     412                      .dwpsn  file "D:/BM1000/sw/drivers/drvic/ldc1612.c",line 42,column 8,is_stmt
     413 00000043 0A01-         INC       @_WaitTimeOut$1       ; [CPU_] |42| 
     414 00000044 1B01-         CMP       @_WaitTimeOut$1,#8190 ; [CPU_] |42| 
         00000045 1FFE 
     415 00000046 69F3          B         $C$L5,LOS             ; [CPU_] |42| 
     416                      ; branchcc occurs ; [] |42| 
     417 00000047 6F2E          B         $C$L10,UNC            ; [CPU_] |42| 
     418                      ; branch occurs ; [] |42| 
     419 00000048       $C$L6:    
     420                      .dwpsn  file "D:/BM1000/sw/drivers/drvic/ldc1612.c",line 50,column 4,is_stmt
     421 00000048 92A1          MOV       AL,AR1                ; [CPU_] |50| 
TMS320C2000 Assembler PC v6.2.5 Sat Sep 16 14:55:48 2017

Tools Copyright (c) 1996-2014 Texas Instruments Incorporated
C:\Users\wmj\AppData\Local\Temp\1116811                              PAGE    9

     422 00000049 8AC3          MOVL      XAR4,*+XAR3[0]        ; [CPU_] |50| 
     423 0000004a FFC7          LSR       AL,8                  ; [CPU_] |50| 
     424              $C$DW$56        .dwtag  DW_TAG_TI_branch
     425                      .dwattr $C$DW$56, DW_AT_low_pc(0x00)
     426                      .dwattr $C$DW$56, DW_AT_name("_I2C_putData")
     427                      .dwattr $C$DW$56, DW_AT_TI_call
     428 0000004b 7640!         LCR       #_I2C_putData         ; [CPU_] |50| 
         0000004c 0000 
     429                      ; call occurs [#_I2C_putData] ; [] |50| 
     430 0000004d 761F-         MOVW      DP,#_WaitTimeOut$1    ; [CPU_U] 
         0000004e 0000 
     431                      .dwpsn  file "D:/BM1000/sw/drivers/drvic/ldc1612.c",line 52,column 4,is_stmt
     432 0000004f 2B01-         MOV       @_WaitTimeOut$1,#0    ; [CPU_] |52| 
     433 00000050       $C$L7:    
     434                      .dwpsn  file "D:/BM1000/sw/drivers/drvic/ldc1612.c",line 53,column 10,is_stmt
     435 00000050 8AC3          MOVL      XAR4,*+XAR3[0]        ; [CPU_] |53| 
     436              $C$DW$57        .dwtag  DW_TAG_TI_branch
     437                      .dwattr $C$DW$57, DW_AT_low_pc(0x00)
     438                      .dwattr $C$DW$57, DW_AT_name("_I2C_getStatus")
     439                      .dwattr $C$DW$57, DW_AT_TI_call
     440 00000051 7640!         LCR       #_I2C_getStatus       ; [CPU_] |53| 
         00000052 0000 
     441                      ; call occurs [#_I2C_getStatus] ; [] |53| 
     442 00000053 44A9          TBIT      AL,#4                 ; [CPU_] |53| 
     443 00000054 EE0B          BF        $C$L8,TC              ; [CPU_] |53| 
     444                      ; branchcc occurs ; [] |53| 
     445 00000055 761F-         MOVW      DP,#_WaitTimeOut$1    ; [CPU_U] 
         00000056 0000 
     446 00000057 1B01-         CMP       @_WaitTimeOut$1,#8191 ; [CPU_] |53| 
         00000058 1FFF 
     447 00000059 6706          B         $C$L8,HIS             ; [CPU_] |53| 
     448                      ; branchcc occurs ; [] |53| 
     449                      .dwpsn  file "D:/BM1000/sw/drivers/drvic/ldc1612.c",line 56,column 8,is_stmt
     450 0000005a 0A01-         INC       @_WaitTimeOut$1       ; [CPU_] |56| 
     451 0000005b 1B01-         CMP       @_WaitTimeOut$1,#8190 ; [CPU_] |56| 
         0000005c 1FFE 
     452 0000005d 69F3          B         $C$L7,LOS             ; [CPU_] |56| 
     453                      ; branchcc occurs ; [] |56| 
     454 0000005e 6F17          B         $C$L10,UNC            ; [CPU_] |56| 
     455                      ; branch occurs ; [] |56| 
     456 0000005f       $C$L8:    
     457                      .dwpsn  file "D:/BM1000/sw/drivers/drvic/ldc1612.c",line 64,column 4,is_stmt
     458 0000005f 8AC3          MOVL      XAR4,*+XAR3[0]        ; [CPU_] |64| 
     459 00000060 CCA1          AND       AL,AR1,#0x00ff        ; [CPU_] |64| 
         00000061 00FF 
     460              $C$DW$58        .dwtag  DW_TAG_TI_branch
     461                      .dwattr $C$DW$58, DW_AT_low_pc(0x00)
     462                      .dwattr $C$DW$58, DW_AT_name("_I2C_putData")
     463                      .dwattr $C$DW$58, DW_AT_TI_call
     464 00000062 7640!         LCR       #_I2C_putData         ; [CPU_] |64| 
         00000063 0000 
     465                      ; call occurs [#_I2C_putData] ; [] |64| 
     466 00000064 761F-         MOVW      DP,#_WaitTimeOut$1    ; [CPU_U] 
         00000065 0000 
     467                      .dwpsn  file "D:/BM1000/sw/drivers/drvic/ldc1612.c",line 66,column 4,is_stmt
TMS320C2000 Assembler PC v6.2.5 Sat Sep 16 14:55:48 2017

Tools Copyright (c) 1996-2014 Texas Instruments Incorporated
C:\Users\wmj\AppData\Local\Temp\1116811                              PAGE   10

     468 00000066 2B01-         MOV       @_WaitTimeOut$1,#0    ; [CPU_] |66| 
     469 00000067       $C$L9:    
     470                      .dwpsn  file "D:/BM1000/sw/drivers/drvic/ldc1612.c",line 67,column 10,is_stmt
     471 00000067 8AC3          MOVL      XAR4,*+XAR3[0]        ; [CPU_] |67| 
     472              $C$DW$59        .dwtag  DW_TAG_TI_branch
     473                      .dwattr $C$DW$59, DW_AT_low_pc(0x00)
     474                      .dwattr $C$DW$59, DW_AT_name("_I2C_getStatus")
     475                      .dwattr $C$DW$59, DW_AT_TI_call
     476 00000068 7640!         LCR       #_I2C_getStatus       ; [CPU_] |67| 
         00000069 0000 
     477                      ; call occurs [#_I2C_getStatus] ; [] |67| 
     478 0000006a 45A9          TBIT      AL,#5                 ; [CPU_] |67| 
     479 0000006b EE0D          BF        $C$L11,TC             ; [CPU_] |67| 
     480                      ; branchcc occurs ; [] |67| 
     481 0000006c 761F-         MOVW      DP,#_WaitTimeOut$1    ; [CPU_U] 
         0000006d 0000 
     482 0000006e 1B01-         CMP       @_WaitTimeOut$1,#8191 ; [CPU_] |67| 
         0000006f 1FFF 
     483 00000070 6708          B         $C$L11,HIS            ; [CPU_] |67| 
     484                      ; branchcc occurs ; [] |67| 
     485                      .dwpsn  file "D:/BM1000/sw/drivers/drvic/ldc1612.c",line 70,column 8,is_stmt
     486 00000071 0A01-         INC       @_WaitTimeOut$1       ; [CPU_] |70| 
     487 00000072 1B01-         CMP       @_WaitTimeOut$1,#8190 ; [CPU_] |70| 
         00000073 1FFE 
     488 00000074 69F3          B         $C$L9,LOS             ; [CPU_] |70| 
     489                      ; branchcc occurs ; [] |70| 
     490 00000075       $C$L10:    
     491                      .dwpsn  file "D:/BM1000/sw/drivers/drvic/ldc1612.c",line 72,column 10,is_stmt
     492 00000075 D049          MOVB      XAR0,#73              ; [CPU_] |72| 
     493 00000076 56BF          MOVB      *+XAR3[AR0],#1,UNC    ; [CPU_] |72| 
         00000077 0193 
     494 00000078       $C$L11:    
     495 00000078 82BE          MOVL      XAR3,*--SP            ; [CPU_] 
     496                      .dwcfi  cfa_offset, -6
     497                      .dwcfi  restore_reg, 11
     498 00000079 86BE          MOVL      XAR2,*--SP            ; [CPU_] 
     499                      .dwcfi  cfa_offset, -4
     500                      .dwcfi  restore_reg, 9
     501 0000007a 8BBE          MOVL      XAR1,*--SP            ; [CPU_] 
     502                      .dwcfi  cfa_offset, -2
     503                      .dwcfi  restore_reg, 7
     504              $C$DW$60        .dwtag  DW_TAG_TI_branch
     505                      .dwattr $C$DW$60, DW_AT_low_pc(0x00)
     506                      .dwattr $C$DW$60, DW_AT_TI_return
     507 0000007b 0006          LRETR     ; [CPU_] 
     508                      ; return occurs ; [] 
     509                      .dwattr $C$DW$41, DW_AT_TI_end_file("D:/BM1000/sw/drivers/drvic/ldc1612.c")
     510                      .dwattr $C$DW$41, DW_AT_TI_end_line(0x4e)
     511                      .dwattr $C$DW$41, DW_AT_TI_end_column(0x01)
     512                      .dwendentry
     513                      .dwendtag $C$DW$41
     514              
     515 0000007c               .sect   ".text"
     516                      .clink
     517                      .global _LDC161x_writeSettleCnt
TMS320C2000 Assembler PC v6.2.5 Sat Sep 16 14:55:48 2017

Tools Copyright (c) 1996-2014 Texas Instruments Incorporated
C:\Users\wmj\AppData\Local\Temp\1116811                              PAGE   11

     518              
     519              $C$DW$61        .dwtag  DW_TAG_subprogram, DW_AT_name("LDC161x_writeSettleCnt")
     520                      .dwattr $C$DW$61, DW_AT_low_pc(_LDC161x_writeSettleCnt)
     521                      .dwattr $C$DW$61, DW_AT_high_pc(0x00)
     522                      .dwattr $C$DW$61, DW_AT_TI_symbol_name("_LDC161x_writeSettleCnt")
     523                      .dwattr $C$DW$61, DW_AT_external
     524                      .dwattr $C$DW$61, DW_AT_TI_begin_file("D:/BM1000/sw/drivers/drvic/ldc1612.c")
     525                      .dwattr $C$DW$61, DW_AT_TI_begin_line(0x1da)
     526                      .dwattr $C$DW$61, DW_AT_TI_begin_column(0x06)
     527                      .dwattr $C$DW$61, DW_AT_TI_max_frame_size(-4)
     528                      .dwpsn  file "D:/BM1000/sw/drivers/drvic/ldc1612.c",line 475,column 1,is_stmt,address _LDC161x_writeS
     529              
     530                      .dwfde $C$DW$CIE, _LDC161x_writeSettleCnt
     531              $C$DW$62        .dwtag  DW_TAG_formal_parameter, DW_AT_name("handle")
     532                      .dwattr $C$DW$62, DW_AT_TI_symbol_name("_handle")
     533                      .dwattr $C$DW$62, DW_AT_type(*$C$DW$T$122)
     534                      .dwattr $C$DW$62, DW_AT_location[DW_OP_reg12]
     535              $C$DW$63        .dwtag  DW_TAG_formal_parameter, DW_AT_name("ChannelNum")
     536                      .dwattr $C$DW$63, DW_AT_TI_symbol_name("_ChannelNum")
     537                      .dwattr $C$DW$63, DW_AT_type(*$C$DW$T$98)
     538                      .dwattr $C$DW$63, DW_AT_location[DW_OP_reg0]
     539              
     540              ;***************************************************************
     541              ;* FNAME: _LDC161x_writeSettleCnt       FR SIZE:   2           *
     542              ;*                                                             *
     543              ;* FUNCTION ENVIRONMENT                                        *
     544              ;*                                                             *
     545              ;* FUNCTION PROPERTIES                                         *
     546              ;*                            0 Parameter,  1 Auto,  0 SOE     *
     547              ;***************************************************************
     548              
     549              _LDC161x_writeSettleCnt:
     550              ;* AL    assigned to _ChNum
     551              $C$DW$64        .dwtag  DW_TAG_variable, DW_AT_name("ChNum")
     552                      .dwattr $C$DW$64, DW_AT_TI_symbol_name("_ChNum")
     553                      .dwattr $C$DW$64, DW_AT_type(*$C$DW$T$21)
     554                      .dwattr $C$DW$64, DW_AT_location[DW_OP_reg0]
     555              ;* AH    assigned to _drvRegName
     556              $C$DW$65        .dwtag  DW_TAG_variable, DW_AT_name("drvRegName")
     557                      .dwattr $C$DW$65, DW_AT_TI_symbol_name("_drvRegName")
     558                      .dwattr $C$DW$65, DW_AT_type(*$C$DW$T$95)
     559                      .dwattr $C$DW$65, DW_AT_location[DW_OP_reg1]
     560              $C$DW$66        .dwtag  DW_TAG_variable, DW_AT_name("drvDataGet")
     561                      .dwattr $C$DW$66, DW_AT_TI_symbol_name("_drvDataGet")
     562                      .dwattr $C$DW$66, DW_AT_type(*$C$DW$T$21)
     563                      .dwattr $C$DW$66, DW_AT_location[DW_OP_breg20 -1]
     564              ;* AL    assigned to _ChannelNum
     565              $C$DW$67        .dwtag  DW_TAG_variable, DW_AT_name("ChannelNum")
     566                      .dwattr $C$DW$67, DW_AT_TI_symbol_name("_ChannelNum")
     567                      .dwattr $C$DW$67, DW_AT_type(*$C$DW$T$100)
     568                      .dwattr $C$DW$67, DW_AT_location[DW_OP_reg0]
     569              ;* AR6   assigned to _handle
     570              $C$DW$68        .dwtag  DW_TAG_variable, DW_AT_name("handle")
     571                      .dwattr $C$DW$68, DW_AT_TI_symbol_name("_handle")
     572                      .dwattr $C$DW$68, DW_AT_type(*$C$DW$T$123)
TMS320C2000 Assembler PC v6.2.5 Sat Sep 16 14:55:48 2017

Tools Copyright (c) 1996-2014 Texas Instruments Incorporated
C:\Users\wmj\AppData\Local\Temp\1116811                              PAGE   12

     573                      .dwattr $C$DW$68, DW_AT_location[DW_OP_reg16]
     574                      .dwcfi  cfa_offset, -2
     575                      .dwcfi  save_reg_to_mem, 26, 0
     576                      .dwcfi  save_reg_to_reg, 78, 26
     577 0000007c FE02          ADDB      SP,#2                 ; [CPU_U] 
     578                      .dwcfi  cfa_offset, -4
     579                      .dwpsn  file "D:/BM1000/sw/drivers/drvic/ldc1612.c",line 481,column 3,is_stmt
     580 0000007d 5200          CMPB      AL,#0                 ; [CPU_] |481| 
     581                      .dwpsn  file "D:/BM1000/sw/drivers/drvic/ldc1612.c",line 475,column 1,is_stmt
     582 0000007e C4A4          MOVL      XAR6,XAR4             ; [CPU_] |475| 
     583                      .dwpsn  file "D:/BM1000/sw/drivers/drvic/ldc1612.c",line 481,column 3,is_stmt
     584 0000007f EC10          BF        $C$L14,EQ             ; [CPU_] |481| 
     585                      ; branchcc occurs ; [] |481| 
     586 00000080 5201          CMPB      AL,#1                 ; [CPU_] |481| 
     587 00000081 EC0B          BF        $C$L13,EQ             ; [CPU_] |481| 
     588                      ; branchcc occurs ; [] |481| 
     589 00000082 5202          CMPB      AL,#2                 ; [CPU_] |481| 
     590 00000083 EC06          BF        $C$L12,EQ             ; [CPU_] |481| 
     591                      ; branchcc occurs ; [] |481| 
     592 00000084 5203          CMPB      AL,#3                 ; [CPU_] |481| 
     593 00000085 ED0C          BF        $C$L15,NEQ            ; [CPU_] |481| 
     594                      ; branchcc occurs ; [] |481| 
     595                      .dwpsn  file "D:/BM1000/sw/drivers/drvic/ldc1612.c",line 492,column 29,is_stmt
     596 00000086 9B13          MOVB      AH,#19                ; [CPU_] |492| 
     597                      .dwpsn  file "D:/BM1000/sw/drivers/drvic/ldc1612.c",line 493,column 29,is_stmt
     598 00000087 9A03          MOVB      AL,#3                 ; [CPU_] |493| 
     599                      .dwpsn  file "D:/BM1000/sw/drivers/drvic/ldc1612.c",line 494,column 7,is_stmt
     600 00000088 6F09          B         $C$L15,UNC            ; [CPU_] |494| 
     601                      ; branch occurs ; [] |494| 
     602 00000089       $C$L12:    
     603                      .dwpsn  file "D:/BM1000/sw/drivers/drvic/ldc1612.c",line 489,column 29,is_stmt
     604 00000089 9B12          MOVB      AH,#18                ; [CPU_] |489| 
     605                      .dwpsn  file "D:/BM1000/sw/drivers/drvic/ldc1612.c",line 490,column 29,is_stmt
     606 0000008a 9A02          MOVB      AL,#2                 ; [CPU_] |490| 
     607                      .dwpsn  file "D:/BM1000/sw/drivers/drvic/ldc1612.c",line 491,column 7,is_stmt
     608 0000008b 6F06          B         $C$L15,UNC            ; [CPU_] |491| 
     609                      ; branch occurs ; [] |491| 
     610 0000008c       $C$L13:    
     611                      .dwpsn  file "D:/BM1000/sw/drivers/drvic/ldc1612.c",line 486,column 29,is_stmt
     612 0000008c 9B11          MOVB      AH,#17                ; [CPU_] |486| 
     613                      .dwpsn  file "D:/BM1000/sw/drivers/drvic/ldc1612.c",line 487,column 29,is_stmt
     614 0000008d 9A01          MOVB      AL,#1                 ; [CPU_] |487| 
     615                      .dwpsn  file "D:/BM1000/sw/drivers/drvic/ldc1612.c",line 488,column 7,is_stmt
     616 0000008e 6F03          B         $C$L15,UNC            ; [CPU_] |488| 
     617                      ; branch occurs ; [] |488| 
     618 0000008f       $C$L14:    
     619                      .dwpsn  file "D:/BM1000/sw/drivers/drvic/ldc1612.c",line 483,column 29,is_stmt
     620 0000008f 9B10          MOVB      AH,#16                ; [CPU_] |483| 
     621                      .dwpsn  file "D:/BM1000/sw/drivers/drvic/ldc1612.c",line 484,column 29,is_stmt
     622 00000090 9A00          MOVB      AL,#0                 ; [CPU_] |484| 
     623 00000091       $C$L15:    
     624                      .dwpsn  file "D:/BM1000/sw/drivers/drvic/ldc1612.c",line 498,column 3,is_stmt
     625 00000091 5DAD          MOVZ      AR5,SP                ; [CPU_U] |498| 
     626 00000092 8AE6          MOVL      XAR4,*+XAR6[4]        ; [CPU_] |498| 
     627 00000093 DD81          SUBB      XAR5,#1               ; [CPU_U] |498| 
TMS320C2000 Assembler PC v6.2.5 Sat Sep 16 14:55:48 2017

Tools Copyright (c) 1996-2014 Texas Instruments Incorporated
C:\Users\wmj\AppData\Local\Temp\1116811                              PAGE   13

     628              $C$DW$69        .dwtag  DW_TAG_TI_branch
     629                      .dwattr $C$DW$69, DW_AT_low_pc(0x00)
     630                      .dwattr $C$DW$69, DW_AT_name("_LDC161x_getSettleCnt")
     631                      .dwattr $C$DW$69, DW_AT_TI_call
     632 00000094 7640'         LCR       #_LDC161x_getSettleCnt ; [CPU_] |498| 
         00000095 0000 
     633                      ; call occurs [#_LDC161x_getSettleCnt] ; [] |498| 
     634                      .dwpsn  file "D:/BM1000/sw/drivers/drvic/ldc1612.c",line 499,column 3,is_stmt
     635 00000096 92A8          MOV       AL,AH                 ; [CPU_] |499| 
     636 00000097 9341          MOV       AH,*-SP[1]            ; [CPU_] |499| 
     637 00000098 8AA6          MOVL      XAR4,XAR6             ; [CPU_] |499| 
     638              $C$DW$70        .dwtag  DW_TAG_TI_branch
     639                      .dwattr $C$DW$70, DW_AT_low_pc(0x00)
     640                      .dwattr $C$DW$70, DW_AT_name("_LDC161x_writeI2c")
     641                      .dwattr $C$DW$70, DW_AT_TI_call
     642 00000099 7640'         LCR       #_LDC161x_writeI2c    ; [CPU_] |499| 
         0000009a 0008 
     643                      ; call occurs [#_LDC161x_writeI2c] ; [] |499| 
     644 0000009b FE82          SUBB      SP,#2                 ; [CPU_U] 
     645                      .dwcfi  cfa_offset, -2
     646              $C$DW$71        .dwtag  DW_TAG_TI_branch
     647                      .dwattr $C$DW$71, DW_AT_low_pc(0x00)
     648                      .dwattr $C$DW$71, DW_AT_TI_return
     649 0000009c 0006          LRETR     ; [CPU_] 
     650                      ; return occurs ; [] 
     651                      .dwattr $C$DW$61, DW_AT_TI_end_file("D:/BM1000/sw/drivers/drvic/ldc1612.c")
     652                      .dwattr $C$DW$61, DW_AT_TI_end_line(0x1f6)
     653                      .dwattr $C$DW$61, DW_AT_TI_end_column(0x01)
     654                      .dwendentry
     655                      .dwendtag $C$DW$61
     656              
     657 0000009d               .sect   ".text"
     658                      .clink
     659                      .global _LDC161x_getRcount
     660              
     661              $C$DW$72        .dwtag  DW_TAG_subprogram, DW_AT_name("LDC161x_getRcount")
     662                      .dwattr $C$DW$72, DW_AT_low_pc(_LDC161x_getRcount)
     663                      .dwattr $C$DW$72, DW_AT_high_pc(0x00)
     664                      .dwattr $C$DW$72, DW_AT_TI_symbol_name("_LDC161x_getRcount")
     665                      .dwattr $C$DW$72, DW_AT_external
     666                      .dwattr $C$DW$72, DW_AT_TI_begin_file("D:/BM1000/sw/drivers/drvic/ldc1612.c")
     667                      .dwattr $C$DW$72, DW_AT_TI_begin_line(0x3b0)
     668                      .dwattr $C$DW$72, DW_AT_TI_begin_column(0x06)
     669                      .dwattr $C$DW$72, DW_AT_TI_max_frame_size(-2)
     670                      .dwpsn  file "D:/BM1000/sw/drivers/drvic/ldc1612.c",line 945,column 1,is_stmt,address _LDC161x_getRco
     671              
     672                      .dwfde $C$DW$CIE, _LDC161x_getRcount
     673              $C$DW$73        .dwtag  DW_TAG_formal_parameter, DW_AT_name("handle")
     674                      .dwattr $C$DW$73, DW_AT_TI_symbol_name("_handle")
     675                      .dwattr $C$DW$73, DW_AT_type(*$C$DW$T$48)
     676                      .dwattr $C$DW$73, DW_AT_location[DW_OP_reg12]
     677              $C$DW$74        .dwtag  DW_TAG_formal_parameter, DW_AT_name("Channel")
     678                      .dwattr $C$DW$74, DW_AT_TI_symbol_name("_Channel")
     679                      .dwattr $C$DW$74, DW_AT_type(*$C$DW$T$138)
     680                      .dwattr $C$DW$74, DW_AT_location[DW_OP_reg0]
TMS320C2000 Assembler PC v6.2.5 Sat Sep 16 14:55:48 2017

Tools Copyright (c) 1996-2014 Texas Instruments Incorporated
C:\Users\wmj\AppData\Local\Temp\1116811                              PAGE   14

     681              $C$DW$75        .dwtag  DW_TAG_formal_parameter, DW_AT_name("drvDataGet")
     682                      .dwattr $C$DW$75, DW_AT_TI_symbol_name("_drvDataGet")
     683                      .dwattr $C$DW$75, DW_AT_type(*$C$DW$T$157)
     684                      .dwattr $C$DW$75, DW_AT_location[DW_OP_reg14]
     685              
     686              ;***************************************************************
     687              ;* FNAME: _LDC161x_getRcount            FR SIZE:   0           *
     688              ;*                                                             *
     689              ;* FUNCTION ENVIRONMENT                                        *
     690              ;*                                                             *
     691              ;* FUNCTION PROPERTIES                                         *
     692              ;*                            0 Parameter,  0 Auto,  0 SOE     *
     693              ;***************************************************************
     694              
     695              _LDC161x_getRcount:
     696              ;* AL    assigned to _drvData
     697              $C$DW$76        .dwtag  DW_TAG_variable, DW_AT_name("drvData")
     698                      .dwattr $C$DW$76, DW_AT_TI_symbol_name("_drvData")
     699                      .dwattr $C$DW$76, DW_AT_type(*$C$DW$T$21)
     700                      .dwattr $C$DW$76, DW_AT_location[DW_OP_reg0]
     701              ;* AR5   assigned to _drvDataGet
     702              $C$DW$77        .dwtag  DW_TAG_variable, DW_AT_name("drvDataGet")
     703                      .dwattr $C$DW$77, DW_AT_TI_symbol_name("_drvDataGet")
     704                      .dwattr $C$DW$77, DW_AT_type(*$C$DW$T$170)
     705                      .dwattr $C$DW$77, DW_AT_location[DW_OP_reg14]
     706              ;* AL    assigned to _Channel
     707              $C$DW$78        .dwtag  DW_TAG_variable, DW_AT_name("Channel")
     708                      .dwattr $C$DW$78, DW_AT_TI_symbol_name("_Channel")
     709                      .dwattr $C$DW$78, DW_AT_type(*$C$DW$T$138)
     710                      .dwattr $C$DW$78, DW_AT_location[DW_OP_reg0]
     711              ;* AR4   assigned to _handle
     712              $C$DW$79        .dwtag  DW_TAG_variable, DW_AT_name("handle")
     713                      .dwattr $C$DW$79, DW_AT_TI_symbol_name("_handle")
     714                      .dwattr $C$DW$79, DW_AT_type(*$C$DW$T$111)
     715                      .dwattr $C$DW$79, DW_AT_location[DW_OP_reg12]
     716                      .dwcfi  cfa_offset, -2
     717                      .dwcfi  save_reg_to_mem, 26, 0
     718                      .dwcfi  save_reg_to_reg, 78, 26
     719                      .dwpsn  file "D:/BM1000/sw/drivers/drvic/ldc1612.c",line 947,column 20,is_stmt
     720 0000009d 5200          CMPB      AL,#0                 ; [CPU_] |947| 
     721 0000009e EC03          BF        $C$L16,EQ             ; [CPU_] |947| 
     722                      ; branchcc occurs ; [] |947| 
     723 0000009f 9A00          MOVB      AL,#0                 ; [CPU_] |947| 
     724 000000a0 6F02          B         $C$L17,UNC            ; [CPU_] |947| 
     725                      ; branch occurs ; [] |947| 
     726 000000a1       $C$L16:    
     727 000000a1 92F4          MOV       AL,*+XAR4[6]          ; [CPU_] |947| 
     728 000000a2       $C$L17:    
     729                      .dwpsn  file "D:/BM1000/sw/drivers/drvic/ldc1612.c",line 963,column 3,is_stmt
     730 000000a2 96C5          MOV       *+XAR5[0],AL          ; [CPU_] |963| 
     731              $C$DW$80        .dwtag  DW_TAG_TI_branch
     732                      .dwattr $C$DW$80, DW_AT_low_pc(0x00)
     733                      .dwattr $C$DW$80, DW_AT_TI_return
     734 000000a3 0006          LRETR     ; [CPU_] 
     735                      ; return occurs ; [] 
TMS320C2000 Assembler PC v6.2.5 Sat Sep 16 14:55:48 2017

Tools Copyright (c) 1996-2014 Texas Instruments Incorporated
C:\Users\wmj\AppData\Local\Temp\1116811                              PAGE   15

     736                      .dwattr $C$DW$72, DW_AT_TI_end_file("D:/BM1000/sw/drivers/drvic/ldc1612.c")
     737                      .dwattr $C$DW$72, DW_AT_TI_end_line(0x3c6)
     738                      .dwattr $C$DW$72, DW_AT_TI_end_column(0x01)
     739                      .dwendentry
     740                      .dwendtag $C$DW$72
     741              
     742 000000a4               .sect   ".text"
     743                      .clink
     744                      .global _LDC161x_writeRcount
     745              
     746              $C$DW$81        .dwtag  DW_TAG_subprogram, DW_AT_name("LDC161x_writeRcount")
     747                      .dwattr $C$DW$81, DW_AT_low_pc(_LDC161x_writeRcount)
     748                      .dwattr $C$DW$81, DW_AT_high_pc(0x00)
     749                      .dwattr $C$DW$81, DW_AT_TI_symbol_name("_LDC161x_writeRcount")
     750                      .dwattr $C$DW$81, DW_AT_external
     751                      .dwattr $C$DW$81, DW_AT_TI_begin_file("D:/BM1000/sw/drivers/drvic/ldc1612.c")
     752                      .dwattr $C$DW$81, DW_AT_TI_begin_line(0x196)
     753                      .dwattr $C$DW$81, DW_AT_TI_begin_column(0x06)
     754                      .dwattr $C$DW$81, DW_AT_TI_max_frame_size(-4)
     755                      .dwpsn  file "D:/BM1000/sw/drivers/drvic/ldc1612.c",line 407,column 1,is_stmt,address _LDC161x_writeR
     756              
     757                      .dwfde $C$DW$CIE, _LDC161x_writeRcount
     758              $C$DW$82        .dwtag  DW_TAG_formal_parameter, DW_AT_name("handle")
     759                      .dwattr $C$DW$82, DW_AT_TI_symbol_name("_handle")
     760                      .dwattr $C$DW$82, DW_AT_type(*$C$DW$T$122)
     761                      .dwattr $C$DW$82, DW_AT_location[DW_OP_reg12]
     762              $C$DW$83        .dwtag  DW_TAG_formal_parameter, DW_AT_name("ChannelNum")
     763                      .dwattr $C$DW$83, DW_AT_TI_symbol_name("_ChannelNum")
     764                      .dwattr $C$DW$83, DW_AT_type(*$C$DW$T$98)
     765                      .dwattr $C$DW$83, DW_AT_location[DW_OP_reg0]
     766              
     767              ;***************************************************************
     768              ;* FNAME: _LDC161x_writeRcount          FR SIZE:   2           *
     769              ;*                                                             *
     770              ;* FUNCTION ENVIRONMENT                                        *
     771              ;*                                                             *
     772              ;* FUNCTION PROPERTIES                                         *
     773              ;*                            0 Parameter,  1 Auto,  0 SOE     *
     774              ;***************************************************************
     775              
     776              _LDC161x_writeRcount:
     777              ;* AL    assigned to _ChNum
     778              $C$DW$84        .dwtag  DW_TAG_variable, DW_AT_name("ChNum")
     779                      .dwattr $C$DW$84, DW_AT_TI_symbol_name("_ChNum")
     780                      .dwattr $C$DW$84, DW_AT_type(*$C$DW$T$21)
     781                      .dwattr $C$DW$84, DW_AT_location[DW_OP_reg0]
     782              ;* AH    assigned to _drvRegName
     783              $C$DW$85        .dwtag  DW_TAG_variable, DW_AT_name("drvRegName")
     784                      .dwattr $C$DW$85, DW_AT_TI_symbol_name("_drvRegName")
     785                      .dwattr $C$DW$85, DW_AT_type(*$C$DW$T$95)
     786                      .dwattr $C$DW$85, DW_AT_location[DW_OP_reg1]
     787              $C$DW$86        .dwtag  DW_TAG_variable, DW_AT_name("drvDataGet")
     788                      .dwattr $C$DW$86, DW_AT_TI_symbol_name("_drvDataGet")
     789                      .dwattr $C$DW$86, DW_AT_type(*$C$DW$T$21)
     790                      .dwattr $C$DW$86, DW_AT_location[DW_OP_breg20 -1]
TMS320C2000 Assembler PC v6.2.5 Sat Sep 16 14:55:48 2017

Tools Copyright (c) 1996-2014 Texas Instruments Incorporated
C:\Users\wmj\AppData\Local\Temp\1116811                              PAGE   16

     791              ;* AL    assigned to _ChannelNum
     792              $C$DW$87        .dwtag  DW_TAG_variable, DW_AT_name("ChannelNum")
     793                      .dwattr $C$DW$87, DW_AT_TI_symbol_name("_ChannelNum")
     794                      .dwattr $C$DW$87, DW_AT_type(*$C$DW$T$101)
     795                      .dwattr $C$DW$87, DW_AT_location[DW_OP_reg0]
     796              ;* AR6   assigned to _handle
     797              $C$DW$88        .dwtag  DW_TAG_variable, DW_AT_name("handle")
     798                      .dwattr $C$DW$88, DW_AT_TI_symbol_name("_handle")
     799                      .dwattr $C$DW$88, DW_AT_type(*$C$DW$T$123)
     800                      .dwattr $C$DW$88, DW_AT_location[DW_OP_reg16]
     801                      .dwcfi  cfa_offset, -2
     802                      .dwcfi  save_reg_to_mem, 26, 0
     803                      .dwcfi  save_reg_to_reg, 78, 26
     804 000000a4 FE02          ADDB      SP,#2                 ; [CPU_U] 
     805                      .dwcfi  cfa_offset, -4
     806                      .dwpsn  file "D:/BM1000/sw/drivers/drvic/ldc1612.c",line 413,column 3,is_stmt
     807 000000a5 5200          CMPB      AL,#0                 ; [CPU_] |413| 
     808                      .dwpsn  file "D:/BM1000/sw/drivers/drvic/ldc1612.c",line 407,column 1,is_stmt
     809 000000a6 C4A4          MOVL      XAR6,XAR4             ; [CPU_] |407| 
     810                      .dwpsn  file "D:/BM1000/sw/drivers/drvic/ldc1612.c",line 413,column 3,is_stmt
     811 000000a7 EC10          BF        $C$L20,EQ             ; [CPU_] |413| 
     812                      ; branchcc occurs ; [] |413| 
     813 000000a8 5201          CMPB      AL,#1                 ; [CPU_] |413| 
     814 000000a9 EC0B          BF        $C$L19,EQ             ; [CPU_] |413| 
     815                      ; branchcc occurs ; [] |413| 
     816 000000aa 5202          CMPB      AL,#2                 ; [CPU_] |413| 
     817 000000ab EC06          BF        $C$L18,EQ             ; [CPU_] |413| 
     818                      ; branchcc occurs ; [] |413| 
     819 000000ac 5203          CMPB      AL,#3                 ; [CPU_] |413| 
     820 000000ad ED0C          BF        $C$L21,NEQ            ; [CPU_] |413| 
     821                      ; branchcc occurs ; [] |413| 
     822                      .dwpsn  file "D:/BM1000/sw/drivers/drvic/ldc1612.c",line 424,column 29,is_stmt
     823 000000ae 9B0B          MOVB      AH,#11                ; [CPU_] |424| 
     824                      .dwpsn  file "D:/BM1000/sw/drivers/drvic/ldc1612.c",line 425,column 29,is_stmt
     825 000000af 9A03          MOVB      AL,#3                 ; [CPU_] |425| 
     826                      .dwpsn  file "D:/BM1000/sw/drivers/drvic/ldc1612.c",line 426,column 7,is_stmt
     827 000000b0 6F09          B         $C$L21,UNC            ; [CPU_] |426| 
     828                      ; branch occurs ; [] |426| 
     829 000000b1       $C$L18:    
     830                      .dwpsn  file "D:/BM1000/sw/drivers/drvic/ldc1612.c",line 421,column 29,is_stmt
     831 000000b1 9B0A          MOVB      AH,#10                ; [CPU_] |421| 
     832                      .dwpsn  file "D:/BM1000/sw/drivers/drvic/ldc1612.c",line 422,column 29,is_stmt
     833 000000b2 9A02          MOVB      AL,#2                 ; [CPU_] |422| 
     834                      .dwpsn  file "D:/BM1000/sw/drivers/drvic/ldc1612.c",line 423,column 7,is_stmt
     835 000000b3 6F06          B         $C$L21,UNC            ; [CPU_] |423| 
     836                      ; branch occurs ; [] |423| 
     837 000000b4       $C$L19:    
     838                      .dwpsn  file "D:/BM1000/sw/drivers/drvic/ldc1612.c",line 418,column 29,is_stmt
     839 000000b4 9B09          MOVB      AH,#9                 ; [CPU_] |418| 
     840                      .dwpsn  file "D:/BM1000/sw/drivers/drvic/ldc1612.c",line 419,column 29,is_stmt
     841 000000b5 9A01          MOVB      AL,#1                 ; [CPU_] |419| 
     842                      .dwpsn  file "D:/BM1000/sw/drivers/drvic/ldc1612.c",line 420,column 7,is_stmt
     843 000000b6 6F03          B         $C$L21,UNC            ; [CPU_] |420| 
     844                      ; branch occurs ; [] |420| 
     845 000000b7       $C$L20:    
TMS320C2000 Assembler PC v6.2.5 Sat Sep 16 14:55:48 2017

Tools Copyright (c) 1996-2014 Texas Instruments Incorporated
C:\Users\wmj\AppData\Local\Temp\1116811                              PAGE   17

     846                      .dwpsn  file "D:/BM1000/sw/drivers/drvic/ldc1612.c",line 415,column 29,is_stmt
     847 000000b7 9B08          MOVB      AH,#8                 ; [CPU_] |415| 
     848                      .dwpsn  file "D:/BM1000/sw/drivers/drvic/ldc1612.c",line 416,column 29,is_stmt
     849 000000b8 9A00          MOVB      AL,#0                 ; [CPU_] |416| 
     850 000000b9       $C$L21:    
     851                      .dwpsn  file "D:/BM1000/sw/drivers/drvic/ldc1612.c",line 430,column 3,is_stmt
     852 000000b9 5DAD          MOVZ      AR5,SP                ; [CPU_U] |430| 
     853 000000ba 8AE6          MOVL      XAR4,*+XAR6[4]        ; [CPU_] |430| 
     854 000000bb DD81          SUBB      XAR5,#1               ; [CPU_U] |430| 
     855              $C$DW$89        .dwtag  DW_TAG_TI_branch
     856                      .dwattr $C$DW$89, DW_AT_low_pc(0x00)
     857                      .dwattr $C$DW$89, DW_AT_name("_LDC161x_getRcount")
     858                      .dwattr $C$DW$89, DW_AT_TI_call
     859 000000bc 7640'         LCR       #_LDC161x_getRcount   ; [CPU_] |430| 
         000000bd 009D 
     860                      ; call occurs [#_LDC161x_getRcount] ; [] |430| 
     861                      .dwpsn  file "D:/BM1000/sw/drivers/drvic/ldc1612.c",line 431,column 3,is_stmt
     862 000000be 92A8          MOV       AL,AH                 ; [CPU_] |431| 
     863 000000bf 9341          MOV       AH,*-SP[1]            ; [CPU_] |431| 
     864 000000c0 8AA6          MOVL      XAR4,XAR6             ; [CPU_] |431| 
     865              $C$DW$90        .dwtag  DW_TAG_TI_branch
     866                      .dwattr $C$DW$90, DW_AT_low_pc(0x00)
     867                      .dwattr $C$DW$90, DW_AT_name("_LDC161x_writeI2c")
     868                      .dwattr $C$DW$90, DW_AT_TI_call
     869 000000c1 7640'         LCR       #_LDC161x_writeI2c    ; [CPU_] |431| 
         000000c2 0008 
     870                      ; call occurs [#_LDC161x_writeI2c] ; [] |431| 
     871 000000c3 FE82          SUBB      SP,#2                 ; [CPU_U] 
     872                      .dwcfi  cfa_offset, -2
     873              $C$DW$91        .dwtag  DW_TAG_TI_branch
     874                      .dwattr $C$DW$91, DW_AT_low_pc(0x00)
     875                      .dwattr $C$DW$91, DW_AT_TI_return
     876 000000c4 0006          LRETR     ; [CPU_] 
     877                      ; return occurs ; [] 
     878                      .dwattr $C$DW$81, DW_AT_TI_end_file("D:/BM1000/sw/drivers/drvic/ldc1612.c")
     879                      .dwattr $C$DW$81, DW_AT_TI_end_line(0x1b2)
     880                      .dwattr $C$DW$81, DW_AT_TI_end_column(0x01)
     881                      .dwendentry
     882                      .dwendtag $C$DW$81
     883              
     884 000000c5               .sect   ".text"
     885                      .clink
     886                      .global _LDC161x_getOffset
     887              
     888              $C$DW$92        .dwtag  DW_TAG_subprogram, DW_AT_name("LDC161x_getOffset")
     889                      .dwattr $C$DW$92, DW_AT_low_pc(_LDC161x_getOffset)
     890                      .dwattr $C$DW$92, DW_AT_high_pc(0x00)
     891                      .dwattr $C$DW$92, DW_AT_TI_symbol_name("_LDC161x_getOffset")
     892                      .dwattr $C$DW$92, DW_AT_external
     893                      .dwattr $C$DW$92, DW_AT_TI_begin_file("D:/BM1000/sw/drivers/drvic/ldc1612.c")
     894                      .dwattr $C$DW$92, DW_AT_TI_begin_line(0x3c8)
     895                      .dwattr $C$DW$92, DW_AT_TI_begin_column(0x06)
     896                      .dwattr $C$DW$92, DW_AT_TI_max_frame_size(-2)
     897                      .dwpsn  file "D:/BM1000/sw/drivers/drvic/ldc1612.c",line 969,column 1,is_stmt,address _LDC161x_getOff
     898              
TMS320C2000 Assembler PC v6.2.5 Sat Sep 16 14:55:48 2017

Tools Copyright (c) 1996-2014 Texas Instruments Incorporated
C:\Users\wmj\AppData\Local\Temp\1116811                              PAGE   18

     899                      .dwfde $C$DW$CIE, _LDC161x_getOffset
     900              $C$DW$93        .dwtag  DW_TAG_formal_parameter, DW_AT_name("handle")
     901                      .dwattr $C$DW$93, DW_AT_TI_symbol_name("_handle")
     902                      .dwattr $C$DW$93, DW_AT_type(*$C$DW$T$48)
     903                      .dwattr $C$DW$93, DW_AT_location[DW_OP_reg12]
     904              $C$DW$94        .dwtag  DW_TAG_formal_parameter, DW_AT_name("Channel")
     905                      .dwattr $C$DW$94, DW_AT_TI_symbol_name("_Channel")
     906                      .dwattr $C$DW$94, DW_AT_type(*$C$DW$T$138)
     907                      .dwattr $C$DW$94, DW_AT_location[DW_OP_reg0]
     908              $C$DW$95        .dwtag  DW_TAG_formal_parameter, DW_AT_name("drvDataGet")
     909                      .dwattr $C$DW$95, DW_AT_TI_symbol_name("_drvDataGet")
     910                      .dwattr $C$DW$95, DW_AT_type(*$C$DW$T$157)
     911                      .dwattr $C$DW$95, DW_AT_location[DW_OP_reg14]
     912              
     913              ;***************************************************************
     914              ;* FNAME: _LDC161x_getOffset            FR SIZE:   0           *
     915              ;*                                                             *
     916              ;* FUNCTION ENVIRONMENT                                        *
     917              ;*                                                             *
     918              ;* FUNCTION PROPERTIES                                         *
     919              ;*                            0 Parameter,  0 Auto,  0 SOE     *
     920              ;***************************************************************
     921              
     922              _LDC161x_getOffset:
     923              ;* AL    assigned to _drvData
     924              $C$DW$96        .dwtag  DW_TAG_variable, DW_AT_name("drvData")
     925                      .dwattr $C$DW$96, DW_AT_TI_symbol_name("_drvData")
     926                      .dwattr $C$DW$96, DW_AT_type(*$C$DW$T$21)
     927                      .dwattr $C$DW$96, DW_AT_location[DW_OP_reg0]
     928              ;* AR5   assigned to _drvDataGet
     929              $C$DW$97        .dwtag  DW_TAG_variable, DW_AT_name("drvDataGet")
     930                      .dwattr $C$DW$97, DW_AT_TI_symbol_name("_drvDataGet")
     931                      .dwattr $C$DW$97, DW_AT_type(*$C$DW$T$170)
     932                      .dwattr $C$DW$97, DW_AT_location[DW_OP_reg14]
     933              ;* AL    assigned to _Channel
     934              $C$DW$98        .dwtag  DW_TAG_variable, DW_AT_name("Channel")
     935                      .dwattr $C$DW$98, DW_AT_TI_symbol_name("_Channel")
     936                      .dwattr $C$DW$98, DW_AT_type(*$C$DW$T$138)
     937                      .dwattr $C$DW$98, DW_AT_location[DW_OP_reg0]
     938              ;* AR4   assigned to _handle
     939              $C$DW$99        .dwtag  DW_TAG_variable, DW_AT_name("handle")
     940                      .dwattr $C$DW$99, DW_AT_TI_symbol_name("_handle")
     941                      .dwattr $C$DW$99, DW_AT_type(*$C$DW$T$111)
     942                      .dwattr $C$DW$99, DW_AT_location[DW_OP_reg12]
     943                      .dwcfi  cfa_offset, -2
     944                      .dwcfi  save_reg_to_mem, 26, 0
     945                      .dwcfi  save_reg_to_reg, 78, 26
     946                      .dwpsn  file "D:/BM1000/sw/drivers/drvic/ldc1612.c",line 971,column 20,is_stmt
     947 000000c5 5200          CMPB      AL,#0                 ; [CPU_] |971| 
     948 000000c6 EC03          BF        $C$L22,EQ             ; [CPU_] |971| 
     949                      ; branchcc occurs ; [] |971| 
     950 000000c7 9A00          MOVB      AL,#0                 ; [CPU_] |971| 
     951 000000c8 6F02          B         $C$L23,UNC            ; [CPU_] |971| 
     952                      ; branch occurs ; [] |971| 
     953 000000c9       $C$L22:    
TMS320C2000 Assembler PC v6.2.5 Sat Sep 16 14:55:48 2017

Tools Copyright (c) 1996-2014 Texas Instruments Incorporated
C:\Users\wmj\AppData\Local\Temp\1116811                              PAGE   19

     954 000000c9 92FC          MOV       AL,*+XAR4[7]          ; [CPU_] |971| 
     955 000000ca       $C$L23:    
     956                      .dwpsn  file "D:/BM1000/sw/drivers/drvic/ldc1612.c",line 987,column 3,is_stmt
     957 000000ca 96C5          MOV       *+XAR5[0],AL          ; [CPU_] |987| 
     958              $C$DW$100       .dwtag  DW_TAG_TI_branch
     959                      .dwattr $C$DW$100, DW_AT_low_pc(0x00)
     960                      .dwattr $C$DW$100, DW_AT_TI_return
     961 000000cb 0006          LRETR     ; [CPU_] 
     962                      ; return occurs ; [] 
     963                      .dwattr $C$DW$92, DW_AT_TI_end_file("D:/BM1000/sw/drivers/drvic/ldc1612.c")
     964                      .dwattr $C$DW$92, DW_AT_TI_end_line(0x3de)
     965                      .dwattr $C$DW$92, DW_AT_TI_end_column(0x01)
     966                      .dwendentry
     967                      .dwendtag $C$DW$92
     968              
     969 000000cc               .sect   ".text"
     970                      .clink
     971                      .global _LDC161x_writeOffset
     972              
     973              $C$DW$101       .dwtag  DW_TAG_subprogram, DW_AT_name("LDC161x_writeOffset")
     974                      .dwattr $C$DW$101, DW_AT_low_pc(_LDC161x_writeOffset)
     975                      .dwattr $C$DW$101, DW_AT_high_pc(0x00)
     976                      .dwattr $C$DW$101, DW_AT_TI_symbol_name("_LDC161x_writeOffset")
     977                      .dwattr $C$DW$101, DW_AT_external
     978                      .dwattr $C$DW$101, DW_AT_TI_begin_file("D:/BM1000/sw/drivers/drvic/ldc1612.c")
     979                      .dwattr $C$DW$101, DW_AT_TI_begin_line(0x1b8)
     980                      .dwattr $C$DW$101, DW_AT_TI_begin_column(0x06)
     981                      .dwattr $C$DW$101, DW_AT_TI_max_frame_size(-4)
     982                      .dwpsn  file "D:/BM1000/sw/drivers/drvic/ldc1612.c",line 441,column 1,is_stmt,address _LDC161x_writeO
     983              
     984                      .dwfde $C$DW$CIE, _LDC161x_writeOffset
     985              $C$DW$102       .dwtag  DW_TAG_formal_parameter, DW_AT_name("handle")
     986                      .dwattr $C$DW$102, DW_AT_TI_symbol_name("_handle")
     987                      .dwattr $C$DW$102, DW_AT_type(*$C$DW$T$122)
     988                      .dwattr $C$DW$102, DW_AT_location[DW_OP_reg12]
     989              $C$DW$103       .dwtag  DW_TAG_formal_parameter, DW_AT_name("ChannelNum")
     990                      .dwattr $C$DW$103, DW_AT_TI_symbol_name("_ChannelNum")
     991                      .dwattr $C$DW$103, DW_AT_type(*$C$DW$T$98)
     992                      .dwattr $C$DW$103, DW_AT_location[DW_OP_reg0]
     993              
     994              ;***************************************************************
     995              ;* FNAME: _LDC161x_writeOffset          FR SIZE:   2           *
     996              ;*                                                             *
     997              ;* FUNCTION ENVIRONMENT                                        *
     998              ;*                                                             *
     999              ;* FUNCTION PROPERTIES                                         *
    1000              ;*                            0 Parameter,  1 Auto,  0 SOE     *
    1001              ;***************************************************************
    1002              
    1003              _LDC161x_writeOffset:
    1004              ;* AL    assigned to _ChNum
    1005              $C$DW$104       .dwtag  DW_TAG_variable, DW_AT_name("ChNum")
    1006                      .dwattr $C$DW$104, DW_AT_TI_symbol_name("_ChNum")
    1007                      .dwattr $C$DW$104, DW_AT_type(*$C$DW$T$21)
    1008                      .dwattr $C$DW$104, DW_AT_location[DW_OP_reg0]
TMS320C2000 Assembler PC v6.2.5 Sat Sep 16 14:55:48 2017

Tools Copyright (c) 1996-2014 Texas Instruments Incorporated
C:\Users\wmj\AppData\Local\Temp\1116811                              PAGE   20

    1009              ;* AH    assigned to _drvRegName
    1010              $C$DW$105       .dwtag  DW_TAG_variable, DW_AT_name("drvRegName")
    1011                      .dwattr $C$DW$105, DW_AT_TI_symbol_name("_drvRegName")
    1012                      .dwattr $C$DW$105, DW_AT_type(*$C$DW$T$95)
    1013                      .dwattr $C$DW$105, DW_AT_location[DW_OP_reg1]
    1014              $C$DW$106       .dwtag  DW_TAG_variable, DW_AT_name("drvDataGet")
    1015                      .dwattr $C$DW$106, DW_AT_TI_symbol_name("_drvDataGet")
    1016                      .dwattr $C$DW$106, DW_AT_type(*$C$DW$T$21)
    1017                      .dwattr $C$DW$106, DW_AT_location[DW_OP_breg20 -1]
    1018              ;* AL    assigned to _ChannelNum
    1019              $C$DW$107       .dwtag  DW_TAG_variable, DW_AT_name("ChannelNum")
    1020                      .dwattr $C$DW$107, DW_AT_TI_symbol_name("_ChannelNum")
    1021                      .dwattr $C$DW$107, DW_AT_type(*$C$DW$T$102)
    1022                      .dwattr $C$DW$107, DW_AT_location[DW_OP_reg0]
    1023              ;* AR6   assigned to _handle
    1024              $C$DW$108       .dwtag  DW_TAG_variable, DW_AT_name("handle")
    1025                      .dwattr $C$DW$108, DW_AT_TI_symbol_name("_handle")
    1026                      .dwattr $C$DW$108, DW_AT_type(*$C$DW$T$123)
    1027                      .dwattr $C$DW$108, DW_AT_location[DW_OP_reg16]
    1028                      .dwcfi  cfa_offset, -2
    1029                      .dwcfi  save_reg_to_mem, 26, 0
    1030                      .dwcfi  save_reg_to_reg, 78, 26
    1031 000000cc FE02          ADDB      SP,#2                 ; [CPU_U] 
    1032                      .dwcfi  cfa_offset, -4
    1033                      .dwpsn  file "D:/BM1000/sw/drivers/drvic/ldc1612.c",line 447,column 3,is_stmt
    1034 000000cd 5200          CMPB      AL,#0                 ; [CPU_] |447| 
    1035                      .dwpsn  file "D:/BM1000/sw/drivers/drvic/ldc1612.c",line 441,column 1,is_stmt
    1036 000000ce C4A4          MOVL      XAR6,XAR4             ; [CPU_] |441| 
    1037                      .dwpsn  file "D:/BM1000/sw/drivers/drvic/ldc1612.c",line 447,column 3,is_stmt
    1038 000000cf EC10          BF        $C$L26,EQ             ; [CPU_] |447| 
    1039                      ; branchcc occurs ; [] |447| 
    1040 000000d0 5201          CMPB      AL,#1                 ; [CPU_] |447| 
    1041 000000d1 EC0B          BF        $C$L25,EQ             ; [CPU_] |447| 
    1042                      ; branchcc occurs ; [] |447| 
    1043 000000d2 5202          CMPB      AL,#2                 ; [CPU_] |447| 
    1044 000000d3 EC06          BF        $C$L24,EQ             ; [CPU_] |447| 
    1045                      ; branchcc occurs ; [] |447| 
    1046 000000d4 5203          CMPB      AL,#3                 ; [CPU_] |447| 
    1047 000000d5 ED0C          BF        $C$L27,NEQ            ; [CPU_] |447| 
    1048                      ; branchcc occurs ; [] |447| 
    1049                      .dwpsn  file "D:/BM1000/sw/drivers/drvic/ldc1612.c",line 458,column 29,is_stmt
    1050 000000d6 9B0F          MOVB      AH,#15                ; [CPU_] |458| 
    1051                      .dwpsn  file "D:/BM1000/sw/drivers/drvic/ldc1612.c",line 459,column 29,is_stmt
    1052 000000d7 9A03          MOVB      AL,#3                 ; [CPU_] |459| 
    1053                      .dwpsn  file "D:/BM1000/sw/drivers/drvic/ldc1612.c",line 460,column 7,is_stmt
    1054 000000d8 6F09          B         $C$L27,UNC            ; [CPU_] |460| 
    1055                      ; branch occurs ; [] |460| 
    1056 000000d9       $C$L24:    
    1057                      .dwpsn  file "D:/BM1000/sw/drivers/drvic/ldc1612.c",line 455,column 29,is_stmt
    1058 000000d9 9B0E          MOVB      AH,#14                ; [CPU_] |455| 
    1059                      .dwpsn  file "D:/BM1000/sw/drivers/drvic/ldc1612.c",line 456,column 29,is_stmt
    1060 000000da 9A02          MOVB      AL,#2                 ; [CPU_] |456| 
    1061                      .dwpsn  file "D:/BM1000/sw/drivers/drvic/ldc1612.c",line 457,column 7,is_stmt
    1062 000000db 6F06          B         $C$L27,UNC            ; [CPU_] |457| 
    1063                      ; branch occurs ; [] |457| 
TMS320C2000 Assembler PC v6.2.5 Sat Sep 16 14:55:48 2017

Tools Copyright (c) 1996-2014 Texas Instruments Incorporated
C:\Users\wmj\AppData\Local\Temp\1116811                              PAGE   21

    1064 000000dc       $C$L25:    
    1065                      .dwpsn  file "D:/BM1000/sw/drivers/drvic/ldc1612.c",line 452,column 29,is_stmt
    1066 000000dc 9B0D          MOVB      AH,#13                ; [CPU_] |452| 
    1067                      .dwpsn  file "D:/BM1000/sw/drivers/drvic/ldc1612.c",line 453,column 29,is_stmt
    1068 000000dd 9A01          MOVB      AL,#1                 ; [CPU_] |453| 
    1069                      .dwpsn  file "D:/BM1000/sw/drivers/drvic/ldc1612.c",line 454,column 7,is_stmt
    1070 000000de 6F03          B         $C$L27,UNC            ; [CPU_] |454| 
    1071                      ; branch occurs ; [] |454| 
    1072 000000df       $C$L26:    
    1073                      .dwpsn  file "D:/BM1000/sw/drivers/drvic/ldc1612.c",line 449,column 29,is_stmt
    1074 000000df 9B0C          MOVB      AH,#12                ; [CPU_] |449| 
    1075                      .dwpsn  file "D:/BM1000/sw/drivers/drvic/ldc1612.c",line 450,column 29,is_stmt
    1076 000000e0 9A00          MOVB      AL,#0                 ; [CPU_] |450| 
    1077 000000e1       $C$L27:    
    1078                      .dwpsn  file "D:/BM1000/sw/drivers/drvic/ldc1612.c",line 464,column 3,is_stmt
    1079 000000e1 5DAD          MOVZ      AR5,SP                ; [CPU_U] |464| 
    1080 000000e2 8AE6          MOVL      XAR4,*+XAR6[4]        ; [CPU_] |464| 
    1081 000000e3 DD81          SUBB      XAR5,#1               ; [CPU_U] |464| 
    1082              $C$DW$109       .dwtag  DW_TAG_TI_branch
    1083                      .dwattr $C$DW$109, DW_AT_low_pc(0x00)
    1084                      .dwattr $C$DW$109, DW_AT_name("_LDC161x_getOffset")
    1085                      .dwattr $C$DW$109, DW_AT_TI_call
    1086 000000e4 7640'         LCR       #_LDC161x_getOffset   ; [CPU_] |464| 
         000000e5 00C5 
    1087                      ; call occurs [#_LDC161x_getOffset] ; [] |464| 
    1088                      .dwpsn  file "D:/BM1000/sw/drivers/drvic/ldc1612.c",line 465,column 3,is_stmt
    1089 000000e6 92A8          MOV       AL,AH                 ; [CPU_] |465| 
    1090 000000e7 9341          MOV       AH,*-SP[1]            ; [CPU_] |465| 
    1091 000000e8 8AA6          MOVL      XAR4,XAR6             ; [CPU_] |465| 
    1092              $C$DW$110       .dwtag  DW_TAG_TI_branch
    1093                      .dwattr $C$DW$110, DW_AT_low_pc(0x00)
    1094                      .dwattr $C$DW$110, DW_AT_name("_LDC161x_writeI2c")
    1095                      .dwattr $C$DW$110, DW_AT_TI_call
    1096 000000e9 7640'         LCR       #_LDC161x_writeI2c    ; [CPU_] |465| 
         000000ea 0008 
    1097                      ; call occurs [#_LDC161x_writeI2c] ; [] |465| 
    1098 000000eb FE82          SUBB      SP,#2                 ; [CPU_U] 
    1099                      .dwcfi  cfa_offset, -2
    1100              $C$DW$111       .dwtag  DW_TAG_TI_branch
    1101                      .dwattr $C$DW$111, DW_AT_low_pc(0x00)
    1102                      .dwattr $C$DW$111, DW_AT_TI_return
    1103 000000ec 0006          LRETR     ; [CPU_] 
    1104                      ; return occurs ; [] 
    1105                      .dwattr $C$DW$101, DW_AT_TI_end_file("D:/BM1000/sw/drivers/drvic/ldc1612.c")
    1106                      .dwattr $C$DW$101, DW_AT_TI_end_line(0x1d4)
    1107                      .dwattr $C$DW$101, DW_AT_TI_end_column(0x01)
    1108                      .dwendentry
    1109                      .dwendtag $C$DW$101
    1110              
    1111 000000ed               .sect   ".text"
    1112                      .clink
    1113                      .global _LDC161x_getConfig
    1114              
    1115              $C$DW$112       .dwtag  DW_TAG_subprogram, DW_AT_name("LDC161x_getConfig")
    1116                      .dwattr $C$DW$112, DW_AT_low_pc(_LDC161x_getConfig)
TMS320C2000 Assembler PC v6.2.5 Sat Sep 16 14:55:48 2017

Tools Copyright (c) 1996-2014 Texas Instruments Incorporated
C:\Users\wmj\AppData\Local\Temp\1116811                              PAGE   22

    1117                      .dwattr $C$DW$112, DW_AT_high_pc(0x00)
    1118                      .dwattr $C$DW$112, DW_AT_TI_symbol_name("_LDC161x_getConfig")
    1119                      .dwattr $C$DW$112, DW_AT_external
    1120                      .dwattr $C$DW$112, DW_AT_TI_begin_file("D:/BM1000/sw/drivers/drvic/ldc1612.c")
    1121                      .dwattr $C$DW$112, DW_AT_TI_begin_line(0x366)
    1122                      .dwattr $C$DW$112, DW_AT_TI_begin_column(0x06)
    1123                      .dwattr $C$DW$112, DW_AT_TI_max_frame_size(-2)
    1124                      .dwpsn  file "D:/BM1000/sw/drivers/drvic/ldc1612.c",line 871,column 1,is_stmt,address _LDC161x_getCon
    1125              
    1126                      .dwfde $C$DW$CIE, _LDC161x_getConfig
    1127              $C$DW$113       .dwtag  DW_TAG_formal_parameter, DW_AT_name("handle")
    1128                      .dwattr $C$DW$113, DW_AT_TI_symbol_name("_handle")
    1129                      .dwattr $C$DW$113, DW_AT_type(*$C$DW$T$48)
    1130                      .dwattr $C$DW$113, DW_AT_location[DW_OP_reg12]
    1131              $C$DW$114       .dwtag  DW_TAG_formal_parameter, DW_AT_name("drvDataGet")
    1132                      .dwattr $C$DW$114, DW_AT_TI_symbol_name("_drvDataGet")
    1133                      .dwattr $C$DW$114, DW_AT_type(*$C$DW$T$157)
    1134                      .dwattr $C$DW$114, DW_AT_location[DW_OP_reg14]
    1135              
    1136              ;***************************************************************
    1137              ;* FNAME: _LDC161x_getConfig            FR SIZE:   0           *
    1138              ;*                                                             *
    1139              ;* FUNCTION ENVIRONMENT                                        *
    1140              ;*                                                             *
    1141              ;* FUNCTION PROPERTIES                                         *
    1142              ;*                            0 Parameter,  0 Auto,  0 SOE     *
    1143              ;***************************************************************
    1144              
    1145              _LDC161x_getConfig:
    1146              ;* AL    assigned to _drvData
    1147              $C$DW$115       .dwtag  DW_TAG_variable, DW_AT_name("drvData")
    1148                      .dwattr $C$DW$115, DW_AT_TI_symbol_name("_drvData")
    1149                      .dwattr $C$DW$115, DW_AT_type(*$C$DW$T$21)
    1150                      .dwattr $C$DW$115, DW_AT_location[DW_OP_reg0]
    1151              ;* AR4   assigned to _obj
    1152              $C$DW$116       .dwtag  DW_TAG_variable, DW_AT_name("obj")
    1153                      .dwattr $C$DW$116, DW_AT_TI_symbol_name("_obj")
    1154                      .dwattr $C$DW$116, DW_AT_type(*$C$DW$T$127)
    1155                      .dwattr $C$DW$116, DW_AT_location[DW_OP_reg12]
    1156              ;* AR5   assigned to _drvDataGet
    1157              $C$DW$117       .dwtag  DW_TAG_variable, DW_AT_name("drvDataGet")
    1158                      .dwattr $C$DW$117, DW_AT_TI_symbol_name("_drvDataGet")
    1159                      .dwattr $C$DW$117, DW_AT_type(*$C$DW$T$170)
    1160                      .dwattr $C$DW$117, DW_AT_location[DW_OP_reg14]
    1161              ;* AR4   assigned to _handle
    1162              $C$DW$118       .dwtag  DW_TAG_variable, DW_AT_name("handle")
    1163                      .dwattr $C$DW$118, DW_AT_TI_symbol_name("_handle")
    1164                      .dwattr $C$DW$118, DW_AT_type(*$C$DW$T$111)
    1165                      .dwattr $C$DW$118, DW_AT_location[DW_OP_reg12]
    1166                      .dwcfi  cfa_offset, -2
    1167                      .dwcfi  save_reg_to_mem, 26, 0
    1168                      .dwcfi  save_reg_to_reg, 78, 26
    1169                      .dwpsn  file "D:/BM1000/sw/drivers/drvic/ldc1612.c",line 875,column 5,is_stmt
    1170 000000ed D024          MOVB      XAR0,#36              ; [CPU_] |875| 
    1171 000000ee 9294          MOV       AL,*+XAR4[AR0]        ; [CPU_] |875| 
TMS320C2000 Assembler PC v6.2.5 Sat Sep 16 14:55:48 2017

Tools Copyright (c) 1996-2014 Texas Instruments Incorporated
C:\Users\wmj\AppData\Local\Temp\1116811                              PAGE   23

    1172 000000ef EC04          BF        $C$L28,EQ             ; [CPU_] |875| 
    1173                      ; branchcc occurs ; [] |875| 
    1174 000000f0 28A9          MOV       AL,#16384             ; [CPU_] |875| 
         000000f1 4000 
    1175 000000f2 6F02          B         $C$L29,UNC            ; [CPU_] |875| 
    1176                      ; branch occurs ; [] |875| 
    1177 000000f3       $C$L28:    
    1178 000000f3 9A00          MOVB      AL,#0                 ; [CPU_] |875| 
    1179 000000f4       $C$L29:    
    1180                      .dwpsn  file "D:/BM1000/sw/drivers/drvic/ldc1612.c",line 876,column 3,is_stmt
    1181 000000f4 D025          MOVB      XAR0,#37              ; [CPU_] |876| 
    1182 000000f5 9394          MOV       AH,*+XAR4[AR0]        ; [CPU_] |876| 
    1183 000000f6 EC03          BF        $C$L30,EQ             ; [CPU_] |876| 
    1184                      ; branchcc occurs ; [] |876| 
    1185                      .dwpsn  file "D:/BM1000/sw/drivers/drvic/ldc1612.c",line 877,column 5,is_stmt
    1186 000000f7 1AA9          OR        AL,#0x8000            ; [CPU_] |877| 
         000000f8 8000 
    1187 000000f9       $C$L30:    
    1188                      .dwpsn  file "D:/BM1000/sw/drivers/drvic/ldc1612.c",line 878,column 3,is_stmt
    1189 000000f9 D026          MOVB      XAR0,#38              ; [CPU_] |878| 
    1190 000000fa 9394          MOV       AH,*+XAR4[AR0]        ; [CPU_] |878| 
    1191 000000fb EC03          BF        $C$L31,EQ             ; [CPU_] |878| 
    1192                      ; branchcc occurs ; [] |878| 
    1193                      .dwpsn  file "D:/BM1000/sw/drivers/drvic/ldc1612.c",line 879,column 5,is_stmt
    1194 000000fc 1AA9          OR        AL,#0x2000            ; [CPU_] |879| 
         000000fd 2000 
    1195 000000fe       $C$L31:    
    1196                      .dwpsn  file "D:/BM1000/sw/drivers/drvic/ldc1612.c",line 880,column 3,is_stmt
    1197 000000fe D027          MOVB      XAR0,#39              ; [CPU_] |880| 
    1198 000000ff 9394          MOV       AH,*+XAR4[AR0]        ; [CPU_] |880| 
    1199 00000100 EC03          BF        $C$L32,EQ             ; [CPU_] |880| 
    1200                      ; branchcc occurs ; [] |880| 
    1201                      .dwpsn  file "D:/BM1000/sw/drivers/drvic/ldc1612.c",line 881,column 5,is_stmt
    1202 00000101 1AA9          OR        AL,#0x1000            ; [CPU_] |881| 
         00000102 1000 
    1203 00000103       $C$L32:    
    1204                      .dwpsn  file "D:/BM1000/sw/drivers/drvic/ldc1612.c",line 882,column 3,is_stmt
    1205 00000103 D028          MOVB      XAR0,#40              ; [CPU_] |882| 
    1206 00000104 9394          MOV       AH,*+XAR4[AR0]        ; [CPU_] |882| 
    1207 00000105 EC03          BF        $C$L33,EQ             ; [CPU_] |882| 
    1208                      ; branchcc occurs ; [] |882| 
    1209                      .dwpsn  file "D:/BM1000/sw/drivers/drvic/ldc1612.c",line 883,column 5,is_stmt
    1210 00000106 1AA9          OR        AL,#0x0800            ; [CPU_] |883| 
         00000107 0800 
    1211 00000108       $C$L33:    
    1212                      .dwpsn  file "D:/BM1000/sw/drivers/drvic/ldc1612.c",line 884,column 3,is_stmt
    1213 00000108 D029          MOVB      XAR0,#41              ; [CPU_] |884| 
    1214 00000109 9394          MOV       AH,*+XAR4[AR0]        ; [CPU_] |884| 
    1215 0000010a EC03          BF        $C$L34,EQ             ; [CPU_] |884| 
    1216                      ; branchcc occurs ; [] |884| 
    1217                      .dwpsn  file "D:/BM1000/sw/drivers/drvic/ldc1612.c",line 885,column 5,is_stmt
    1218 0000010b 1AA9          OR        AL,#0x0400            ; [CPU_] |885| 
         0000010c 0400 
    1219 0000010d       $C$L34:    
    1220                      .dwpsn  file "D:/BM1000/sw/drivers/drvic/ldc1612.c",line 886,column 3,is_stmt
TMS320C2000 Assembler PC v6.2.5 Sat Sep 16 14:55:48 2017

Tools Copyright (c) 1996-2014 Texas Instruments Incorporated
C:\Users\wmj\AppData\Local\Temp\1116811                              PAGE   24

    1221 0000010d D02A          MOVB      XAR0,#42              ; [CPU_] |886| 
    1222 0000010e 9394          MOV       AH,*+XAR4[AR0]        ; [CPU_] |886| 
    1223 0000010f EC03          BF        $C$L35,EQ             ; [CPU_] |886| 
    1224                      ; branchcc occurs ; [] |886| 
    1225                      .dwpsn  file "D:/BM1000/sw/drivers/drvic/ldc1612.c",line 887,column 5,is_stmt
    1226 00000110 1AA9          OR        AL,#0x0200            ; [CPU_] |887| 
         00000111 0200 
    1227 00000112       $C$L35:    
    1228                      .dwpsn  file "D:/BM1000/sw/drivers/drvic/ldc1612.c",line 888,column 3,is_stmt
    1229 00000112 D02B          MOVB      XAR0,#43              ; [CPU_] |888| 
    1230 00000113 9394          MOV       AH,*+XAR4[AR0]        ; [CPU_] |888| 
    1231 00000114 EC02          BF        $C$L36,EQ             ; [CPU_] |888| 
    1232                      ; branchcc occurs ; [] |888| 
    1233                      .dwpsn  file "D:/BM1000/sw/drivers/drvic/ldc1612.c",line 889,column 5,is_stmt
    1234 00000115 5080          ORB       AL,#0x80              ; [CPU_] |889| 
    1235 00000116       $C$L36:    
    1236                      .dwpsn  file "D:/BM1000/sw/drivers/drvic/ldc1612.c",line 890,column 3,is_stmt
    1237 00000116 D02C          MOVB      XAR0,#44              ; [CPU_] |890| 
    1238 00000117 9394          MOV       AH,*+XAR4[AR0]        ; [CPU_] |890| 
    1239 00000118 EC02          BF        $C$L37,EQ             ; [CPU_] |890| 
    1240                      ; branchcc occurs ; [] |890| 
    1241                      .dwpsn  file "D:/BM1000/sw/drivers/drvic/ldc1612.c",line 891,column 5,is_stmt
    1242 00000119 5040          ORB       AL,#0x40              ; [CPU_] |891| 
    1243 0000011a       $C$L37:    
    1244                      .dwpsn  file "D:/BM1000/sw/drivers/drvic/ldc1612.c",line 893,column 3,is_stmt
    1245 0000011a 96C5          MOV       *+XAR5[0],AL          ; [CPU_] |893| 
    1246              $C$DW$119       .dwtag  DW_TAG_TI_branch
    1247                      .dwattr $C$DW$119, DW_AT_low_pc(0x00)
    1248                      .dwattr $C$DW$119, DW_AT_TI_return
    1249 0000011b 0006          LRETR     ; [CPU_] 
    1250                      ; return occurs ; [] 
    1251                      .dwattr $C$DW$112, DW_AT_TI_end_file("D:/BM1000/sw/drivers/drvic/ldc1612.c")
    1252                      .dwattr $C$DW$112, DW_AT_TI_end_line(0x380)
    1253                      .dwattr $C$DW$112, DW_AT_TI_end_column(0x01)
    1254                      .dwendentry
    1255                      .dwendtag $C$DW$112
    1256              
    1257 0000011c               .sect   ".text"
    1258                      .clink
    1259                      .global _LDC161x_writeMuxConfig
    1260              
    1261              $C$DW$120       .dwtag  DW_TAG_subprogram, DW_AT_name("LDC161x_writeMuxConfig")
    1262                      .dwattr $C$DW$120, DW_AT_low_pc(_LDC161x_writeMuxConfig)
    1263                      .dwattr $C$DW$120, DW_AT_high_pc(0x00)
    1264                      .dwattr $C$DW$120, DW_AT_TI_symbol_name("_LDC161x_writeMuxConfig")
    1265                      .dwattr $C$DW$120, DW_AT_external
    1266                      .dwattr $C$DW$120, DW_AT_TI_begin_file("D:/BM1000/sw/drivers/drvic/ldc1612.c")
    1267                      .dwattr $C$DW$120, DW_AT_TI_begin_line(0x230)
    1268                      .dwattr $C$DW$120, DW_AT_TI_begin_column(0x06)
    1269                      .dwattr $C$DW$120, DW_AT_TI_max_frame_size(-4)
    1270                      .dwpsn  file "D:/BM1000/sw/drivers/drvic/ldc1612.c",line 561,column 1,is_stmt,address _LDC161x_writeM
    1271              
    1272                      .dwfde $C$DW$CIE, _LDC161x_writeMuxConfig
    1273              $C$DW$121       .dwtag  DW_TAG_formal_parameter, DW_AT_name("handle")
    1274                      .dwattr $C$DW$121, DW_AT_TI_symbol_name("_handle")
TMS320C2000 Assembler PC v6.2.5 Sat Sep 16 14:55:48 2017

Tools Copyright (c) 1996-2014 Texas Instruments Incorporated
C:\Users\wmj\AppData\Local\Temp\1116811                              PAGE   25

    1275                      .dwattr $C$DW$121, DW_AT_type(*$C$DW$T$122)
    1276                      .dwattr $C$DW$121, DW_AT_location[DW_OP_reg12]
    1277              
    1278              ;***************************************************************
    1279              ;* FNAME: _LDC161x_writeMuxConfig       FR SIZE:   2           *
    1280              ;*                                                             *
    1281              ;* FUNCTION ENVIRONMENT                                        *
    1282              ;*                                                             *
    1283              ;* FUNCTION PROPERTIES                                         *
    1284              ;*                            0 Parameter,  1 Auto,  0 SOE     *
    1285              ;***************************************************************
    1286              
    1287              _LDC161x_writeMuxConfig:
    1288              ;* AR6   assigned to _handle
    1289              $C$DW$122       .dwtag  DW_TAG_variable, DW_AT_name("handle")
    1290                      .dwattr $C$DW$122, DW_AT_TI_symbol_name("_handle")
    1291                      .dwattr $C$DW$122, DW_AT_type(*$C$DW$T$123)
    1292                      .dwattr $C$DW$122, DW_AT_location[DW_OP_reg16]
    1293              $C$DW$123       .dwtag  DW_TAG_variable, DW_AT_name("drvDataGet")
    1294                      .dwattr $C$DW$123, DW_AT_TI_symbol_name("_drvDataGet")
    1295                      .dwattr $C$DW$123, DW_AT_type(*$C$DW$T$21)
    1296                      .dwattr $C$DW$123, DW_AT_location[DW_OP_breg20 -1]
    1297                      .dwcfi  cfa_offset, -2
    1298                      .dwcfi  save_reg_to_mem, 26, 0
    1299                      .dwcfi  save_reg_to_reg, 78, 26
    1300 0000011c FE02          ADDB      SP,#2                 ; [CPU_U] 
    1301                      .dwcfi  cfa_offset, -4
    1302 0000011d C4A4          MOVL      XAR6,XAR4             ; [CPU_] |561| 
    1303                      .dwpsn  file "D:/BM1000/sw/drivers/drvic/ldc1612.c",line 567,column 3,is_stmt
    1304 0000011e 5DAD          MOVZ      AR5,SP                ; [CPU_U] |567| 
    1305 0000011f 8AE6          MOVL      XAR4,*+XAR6[4]        ; [CPU_] |567| 
    1306 00000120 DD81          SUBB      XAR5,#1               ; [CPU_U] |567| 
    1307              $C$DW$124       .dwtag  DW_TAG_TI_branch
    1308                      .dwattr $C$DW$124, DW_AT_low_pc(0x00)
    1309                      .dwattr $C$DW$124, DW_AT_name("_LDC161x_getConfig")
    1310                      .dwattr $C$DW$124, DW_AT_TI_call
    1311 00000121 7640'         LCR       #_LDC161x_getConfig   ; [CPU_] |567| 
         00000122 00ED 
    1312                      ; call occurs [#_LDC161x_getConfig] ; [] |567| 
    1313                      .dwpsn  file "D:/BM1000/sw/drivers/drvic/ldc1612.c",line 568,column 3,is_stmt
    1314 00000123 1A41          OR        *-SP[1],#0x0208       ; [CPU_] |568| 
         00000124 0208 
    1315                      .dwpsn  file "D:/BM1000/sw/drivers/drvic/ldc1612.c",line 569,column 3,is_stmt
    1316 00000125 9341          MOV       AH,*-SP[1]            ; [CPU_] |569| 
    1317 00000126 9A1B          MOVB      AL,#27                ; [CPU_] |569| 
    1318 00000127 8AA6          MOVL      XAR4,XAR6             ; [CPU_] |569| 
    1319              $C$DW$125       .dwtag  DW_TAG_TI_branch
    1320                      .dwattr $C$DW$125, DW_AT_low_pc(0x00)
    1321                      .dwattr $C$DW$125, DW_AT_name("_LDC161x_writeI2c")
    1322                      .dwattr $C$DW$125, DW_AT_TI_call
    1323 00000128 7640'         LCR       #_LDC161x_writeI2c    ; [CPU_] |569| 
         00000129 0008 
    1324                      ; call occurs [#_LDC161x_writeI2c] ; [] |569| 
    1325 0000012a FE82          SUBB      SP,#2                 ; [CPU_U] 
    1326                      .dwcfi  cfa_offset, -2
TMS320C2000 Assembler PC v6.2.5 Sat Sep 16 14:55:48 2017

Tools Copyright (c) 1996-2014 Texas Instruments Incorporated
C:\Users\wmj\AppData\Local\Temp\1116811                              PAGE   26

    1327              $C$DW$126       .dwtag  DW_TAG_TI_branch
    1328                      .dwattr $C$DW$126, DW_AT_low_pc(0x00)
    1329                      .dwattr $C$DW$126, DW_AT_TI_return
    1330 0000012b 0006          LRETR     ; [CPU_] 
    1331                      ; return occurs ; [] 
    1332                      .dwattr $C$DW$120, DW_AT_TI_end_file("D:/BM1000/sw/drivers/drvic/ldc1612.c")
    1333                      .dwattr $C$DW$120, DW_AT_TI_end_line(0x23c)
    1334                      .dwattr $C$DW$120, DW_AT_TI_end_column(0x01)
    1335                      .dwendentry
    1336                      .dwendtag $C$DW$120
    1337              
    1338 0000012c               .sect   ".text"
    1339                      .clink
    1340                      .global _LDC161x_writeConfig
    1341              
    1342              $C$DW$127       .dwtag  DW_TAG_subprogram, DW_AT_name("LDC161x_writeConfig")
    1343                      .dwattr $C$DW$127, DW_AT_low_pc(_LDC161x_writeConfig)
    1344                      .dwattr $C$DW$127, DW_AT_high_pc(0x00)
    1345                      .dwattr $C$DW$127, DW_AT_TI_symbol_name("_LDC161x_writeConfig")
    1346                      .dwattr $C$DW$127, DW_AT_external
    1347                      .dwattr $C$DW$127, DW_AT_TI_begin_file("D:/BM1000/sw/drivers/drvic/ldc1612.c")
    1348                      .dwattr $C$DW$127, DW_AT_TI_begin_line(0x21e)
    1349                      .dwattr $C$DW$127, DW_AT_TI_begin_column(0x06)
    1350                      .dwattr $C$DW$127, DW_AT_TI_max_frame_size(-4)
    1351                      .dwpsn  file "D:/BM1000/sw/drivers/drvic/ldc1612.c",line 543,column 1,is_stmt,address _LDC161x_writeC
    1352              
    1353                      .dwfde $C$DW$CIE, _LDC161x_writeConfig
    1354              $C$DW$128       .dwtag  DW_TAG_formal_parameter, DW_AT_name("handle")
    1355                      .dwattr $C$DW$128, DW_AT_TI_symbol_name("_handle")
    1356                      .dwattr $C$DW$128, DW_AT_type(*$C$DW$T$122)
    1357                      .dwattr $C$DW$128, DW_AT_location[DW_OP_reg12]
    1358              
    1359              ;***************************************************************
    1360              ;* FNAME: _LDC161x_writeConfig          FR SIZE:   2           *
    1361              ;*                                                             *
    1362              ;* FUNCTION ENVIRONMENT                                        *
    1363              ;*                                                             *
    1364              ;* FUNCTION PROPERTIES                                         *
    1365              ;*                            0 Parameter,  1 Auto,  0 SOE     *
    1366              ;***************************************************************
    1367              
    1368              _LDC161x_writeConfig:
    1369              ;* AR6   assigned to _handle
    1370              $C$DW$129       .dwtag  DW_TAG_variable, DW_AT_name("handle")
    1371                      .dwattr $C$DW$129, DW_AT_TI_symbol_name("_handle")
    1372                      .dwattr $C$DW$129, DW_AT_type(*$C$DW$T$123)
    1373                      .dwattr $C$DW$129, DW_AT_location[DW_OP_reg16]
    1374              $C$DW$130       .dwtag  DW_TAG_variable, DW_AT_name("drvDataGet")
    1375                      .dwattr $C$DW$130, DW_AT_TI_symbol_name("_drvDataGet")
    1376                      .dwattr $C$DW$130, DW_AT_type(*$C$DW$T$21)
    1377                      .dwattr $C$DW$130, DW_AT_location[DW_OP_breg20 -1]
    1378                      .dwcfi  cfa_offset, -2
    1379                      .dwcfi  save_reg_to_mem, 26, 0
    1380                      .dwcfi  save_reg_to_reg, 78, 26
    1381 0000012c FE02          ADDB      SP,#2                 ; [CPU_U] 
TMS320C2000 Assembler PC v6.2.5 Sat Sep 16 14:55:48 2017

Tools Copyright (c) 1996-2014 Texas Instruments Incorporated
C:\Users\wmj\AppData\Local\Temp\1116811                              PAGE   27

    1382                      .dwcfi  cfa_offset, -4
    1383 0000012d C4A4          MOVL      XAR6,XAR4             ; [CPU_] |543| 
    1384                      .dwpsn  file "D:/BM1000/sw/drivers/drvic/ldc1612.c",line 549,column 3,is_stmt
    1385 0000012e 5DAD          MOVZ      AR5,SP                ; [CPU_U] |549| 
    1386 0000012f 8AE6          MOVL      XAR4,*+XAR6[4]        ; [CPU_] |549| 
    1387 00000130 DD81          SUBB      XAR5,#1               ; [CPU_U] |549| 
    1388              $C$DW$131       .dwtag  DW_TAG_TI_branch
    1389                      .dwattr $C$DW$131, DW_AT_low_pc(0x00)
    1390                      .dwattr $C$DW$131, DW_AT_name("_LDC161x_getConfig")
    1391                      .dwattr $C$DW$131, DW_AT_TI_call
    1392 00000131 7640'         LCR       #_LDC161x_getConfig   ; [CPU_] |549| 
         00000132 00ED 
    1393                      ; call occurs [#_LDC161x_getConfig] ; [] |549| 
    1394                      .dwpsn  file "D:/BM1000/sw/drivers/drvic/ldc1612.c",line 550,column 3,is_stmt
    1395 00000133 1A41          OR        *-SP[1],#0x0001       ; [CPU_] |550| 
         00000134 0001 
    1396                      .dwpsn  file "D:/BM1000/sw/drivers/drvic/ldc1612.c",line 551,column 3,is_stmt
    1397 00000135 9341          MOV       AH,*-SP[1]            ; [CPU_] |551| 
    1398 00000136 9A1A          MOVB      AL,#26                ; [CPU_] |551| 
    1399 00000137 8AA6          MOVL      XAR4,XAR6             ; [CPU_] |551| 
    1400              $C$DW$132       .dwtag  DW_TAG_TI_branch
    1401                      .dwattr $C$DW$132, DW_AT_low_pc(0x00)
    1402                      .dwattr $C$DW$132, DW_AT_name("_LDC161x_writeI2c")
    1403                      .dwattr $C$DW$132, DW_AT_TI_call
    1404 00000138 7640'         LCR       #_LDC161x_writeI2c    ; [CPU_] |551| 
         00000139 0008 
    1405                      ; call occurs [#_LDC161x_writeI2c] ; [] |551| 
    1406 0000013a FE82          SUBB      SP,#2                 ; [CPU_U] 
    1407                      .dwcfi  cfa_offset, -2
    1408              $C$DW$133       .dwtag  DW_TAG_TI_branch
    1409                      .dwattr $C$DW$133, DW_AT_low_pc(0x00)
    1410                      .dwattr $C$DW$133, DW_AT_TI_return
    1411 0000013b 0006          LRETR     ; [CPU_] 
    1412                      ; return occurs ; [] 
    1413                      .dwattr $C$DW$127, DW_AT_TI_end_file("D:/BM1000/sw/drivers/drvic/ldc1612.c")
    1414                      .dwattr $C$DW$127, DW_AT_TI_end_line(0x22a)
    1415                      .dwattr $C$DW$127, DW_AT_TI_end_column(0x01)
    1416                      .dwendentry
    1417                      .dwendtag $C$DW$127
    1418              
    1419 0000013c               .sect   ".text"
    1420                      .clink
    1421                      .global _LDC161x_getClkDivs
    1422              
    1423              $C$DW$134       .dwtag  DW_TAG_subprogram, DW_AT_name("LDC161x_getClkDivs")
    1424                      .dwattr $C$DW$134, DW_AT_low_pc(_LDC161x_getClkDivs)
    1425                      .dwattr $C$DW$134, DW_AT_high_pc(0x00)
    1426                      .dwattr $C$DW$134, DW_AT_TI_symbol_name("_LDC161x_getClkDivs")
    1427                      .dwattr $C$DW$134, DW_AT_external
    1428                      .dwattr $C$DW$134, DW_AT_TI_begin_file("D:/BM1000/sw/drivers/drvic/ldc1612.c")
    1429                      .dwattr $C$DW$134, DW_AT_TI_begin_line(0x3f8)
    1430                      .dwattr $C$DW$134, DW_AT_TI_begin_column(0x06)
    1431                      .dwattr $C$DW$134, DW_AT_TI_max_frame_size(-4)
    1432                      .dwpsn  file "D:/BM1000/sw/drivers/drvic/ldc1612.c",line 1017,column 1,is_stmt,address _LDC161x_getCl
    1433              
TMS320C2000 Assembler PC v6.2.5 Sat Sep 16 14:55:48 2017

Tools Copyright (c) 1996-2014 Texas Instruments Incorporated
C:\Users\wmj\AppData\Local\Temp\1116811                              PAGE   28

    1434                      .dwfde $C$DW$CIE, _LDC161x_getClkDivs
    1435              $C$DW$135       .dwtag  DW_TAG_formal_parameter, DW_AT_name("handle")
    1436                      .dwattr $C$DW$135, DW_AT_TI_symbol_name("_handle")
    1437                      .dwattr $C$DW$135, DW_AT_type(*$C$DW$T$48)
    1438                      .dwattr $C$DW$135, DW_AT_location[DW_OP_reg12]
    1439              $C$DW$136       .dwtag  DW_TAG_formal_parameter, DW_AT_name("Channel")
    1440                      .dwattr $C$DW$136, DW_AT_TI_symbol_name("_Channel")
    1441                      .dwattr $C$DW$136, DW_AT_type(*$C$DW$T$138)
    1442                      .dwattr $C$DW$136, DW_AT_location[DW_OP_reg0]
    1443              $C$DW$137       .dwtag  DW_TAG_formal_parameter, DW_AT_name("drvDataGet")
    1444                      .dwattr $C$DW$137, DW_AT_TI_symbol_name("_drvDataGet")
    1445                      .dwattr $C$DW$137, DW_AT_type(*$C$DW$T$157)
    1446                      .dwattr $C$DW$137, DW_AT_location[DW_OP_reg14]
    1447              
    1448              ;***************************************************************
    1449              ;* FNAME: _LDC161x_getClkDivs           FR SIZE:   2           *
    1450              ;*                                                             *
    1451              ;* FUNCTION ENVIRONMENT                                        *
    1452              ;*                                                             *
    1453              ;* FUNCTION PROPERTIES                                         *
    1454              ;*                            0 Parameter,  0 Auto,  2 SOE     *
    1455              ;***************************************************************
    1456              
    1457              _LDC161x_getClkDivs:
    1458              ;* AL    assigned to _drvData
    1459              $C$DW$138       .dwtag  DW_TAG_variable, DW_AT_name("drvData")
    1460                      .dwattr $C$DW$138, DW_AT_TI_symbol_name("_drvData")
    1461                      .dwattr $C$DW$138, DW_AT_type(*$C$DW$T$21)
    1462                      .dwattr $C$DW$138, DW_AT_location[DW_OP_reg0]
    1463              ;* AR5   assigned to _drvDataGet
    1464              $C$DW$139       .dwtag  DW_TAG_variable, DW_AT_name("drvDataGet")
    1465                      .dwattr $C$DW$139, DW_AT_TI_symbol_name("_drvDataGet")
    1466                      .dwattr $C$DW$139, DW_AT_type(*$C$DW$T$170)
    1467                      .dwattr $C$DW$139, DW_AT_location[DW_OP_reg14]
    1468              ;* AL    assigned to _Channel
    1469              $C$DW$140       .dwtag  DW_TAG_variable, DW_AT_name("Channel")
    1470                      .dwattr $C$DW$140, DW_AT_TI_symbol_name("_Channel")
    1471                      .dwattr $C$DW$140, DW_AT_type(*$C$DW$T$138)
    1472                      .dwattr $C$DW$140, DW_AT_location[DW_OP_reg0]
    1473              ;* AR4   assigned to _handle
    1474              $C$DW$141       .dwtag  DW_TAG_variable, DW_AT_name("handle")
    1475                      .dwattr $C$DW$141, DW_AT_TI_symbol_name("_handle")
    1476                      .dwattr $C$DW$141, DW_AT_type(*$C$DW$T$111)
    1477                      .dwattr $C$DW$141, DW_AT_location[DW_OP_reg12]
    1478                      .dwcfi  cfa_offset, -2
    1479                      .dwcfi  save_reg_to_mem, 26, 0
    1480                      .dwcfi  save_reg_to_reg, 78, 26
    1481                      .dwpsn  file "D:/BM1000/sw/drivers/drvic/ldc1612.c",line 1019,column 20,is_stmt
    1482 0000013c 5200          CMPB      AL,#0                 ; [CPU_] |1019| 
    1483 0000013d B2BD          MOVL      *SP++,XAR1            ; [CPU_] 
    1484                      .dwcfi  save_reg_to_mem, 7, 2
    1485                      .dwcfi  cfa_offset, -4
    1486 0000013e EC03          BF        $C$L38,EQ             ; [CPU_] |1019| 
    1487                      ; branchcc occurs ; [] |1019| 
    1488 0000013f 9A00          MOVB      AL,#0                 ; [CPU_] |1019| 
TMS320C2000 Assembler PC v6.2.5 Sat Sep 16 14:55:48 2017

Tools Copyright (c) 1996-2014 Texas Instruments Incorporated
C:\Users\wmj\AppData\Local\Temp\1116811                              PAGE   29

    1489 00000140 6F06          B         $C$L39,UNC            ; [CPU_] |1019| 
    1490                      ; branch occurs ; [] |1019| 
    1491 00000141       $C$L38:    
    1492 00000141 D10A          MOVB      XAR1,#10              ; [CPU_] |1019| 
    1493 00000142 D009          MOVB      XAR0,#9               ; [CPU_] |1019| 
    1494 00000143 5603          MOV       ACC,*+XAR4[AR1] << #12 ; [CPU_] |1019| 
         00000144 0C9C 
    1495 00000145 CA94          OR        AL,*+XAR4[AR0]        ; [CPU_] |1019| 
    1496 00000146       $C$L39:    
    1497                      .dwpsn  file "D:/BM1000/sw/drivers/drvic/ldc1612.c",line 1043,column 3,is_stmt
    1498 00000146 96C5          MOV       *+XAR5[0],AL          ; [CPU_] |1043| 
    1499 00000147 8BBE          MOVL      XAR1,*--SP            ; [CPU_] 
    1500                      .dwcfi  cfa_offset, -2
    1501                      .dwcfi  restore_reg, 7
    1502              $C$DW$142       .dwtag  DW_TAG_TI_branch
    1503                      .dwattr $C$DW$142, DW_AT_low_pc(0x00)
    1504                      .dwattr $C$DW$142, DW_AT_TI_return
    1505 00000148 0006          LRETR     ; [CPU_] 
    1506                      ; return occurs ; [] 
    1507                      .dwattr $C$DW$134, DW_AT_TI_end_file("D:/BM1000/sw/drivers/drvic/ldc1612.c")
    1508                      .dwattr $C$DW$134, DW_AT_TI_end_line(0x416)
    1509                      .dwattr $C$DW$134, DW_AT_TI_end_column(0x01)
    1510                      .dwendentry
    1511                      .dwendtag $C$DW$134
    1512              
    1513 00000149               .sect   ".text"
    1514                      .clink
    1515                      .global _LDC161x_writeClkDivs
    1516              
    1517              $C$DW$143       .dwtag  DW_TAG_subprogram, DW_AT_name("LDC161x_writeClkDivs")
    1518                      .dwattr $C$DW$143, DW_AT_low_pc(_LDC161x_writeClkDivs)
    1519                      .dwattr $C$DW$143, DW_AT_high_pc(0x00)
    1520                      .dwattr $C$DW$143, DW_AT_TI_symbol_name("_LDC161x_writeClkDivs")
    1521                      .dwattr $C$DW$143, DW_AT_external
    1522                      .dwattr $C$DW$143, DW_AT_TI_begin_file("D:/BM1000/sw/drivers/drvic/ldc1612.c")
    1523                      .dwattr $C$DW$143, DW_AT_TI_begin_line(0x1fc)
    1524                      .dwattr $C$DW$143, DW_AT_TI_begin_column(0x06)
    1525                      .dwattr $C$DW$143, DW_AT_TI_max_frame_size(-4)
    1526                      .dwpsn  file "D:/BM1000/sw/drivers/drvic/ldc1612.c",line 509,column 1,is_stmt,address _LDC161x_writeC
    1527              
    1528                      .dwfde $C$DW$CIE, _LDC161x_writeClkDivs
    1529              $C$DW$144       .dwtag  DW_TAG_formal_parameter, DW_AT_name("handle")
    1530                      .dwattr $C$DW$144, DW_AT_TI_symbol_name("_handle")
    1531                      .dwattr $C$DW$144, DW_AT_type(*$C$DW$T$122)
    1532                      .dwattr $C$DW$144, DW_AT_location[DW_OP_reg12]
    1533              $C$DW$145       .dwtag  DW_TAG_formal_parameter, DW_AT_name("ChannelNum")
    1534                      .dwattr $C$DW$145, DW_AT_TI_symbol_name("_ChannelNum")
    1535                      .dwattr $C$DW$145, DW_AT_type(*$C$DW$T$98)
    1536                      .dwattr $C$DW$145, DW_AT_location[DW_OP_reg0]
    1537              
    1538              ;***************************************************************
    1539              ;* FNAME: _LDC161x_writeClkDivs         FR SIZE:   2           *
    1540              ;*                                                             *
    1541              ;* FUNCTION ENVIRONMENT                                        *
    1542              ;*                                                             *
TMS320C2000 Assembler PC v6.2.5 Sat Sep 16 14:55:48 2017

Tools Copyright (c) 1996-2014 Texas Instruments Incorporated
C:\Users\wmj\AppData\Local\Temp\1116811                              PAGE   30

    1543              ;* FUNCTION PROPERTIES                                         *
    1544              ;*                            0 Parameter,  1 Auto,  0 SOE     *
    1545              ;***************************************************************
    1546              
    1547              _LDC161x_writeClkDivs:
    1548              ;* AL    assigned to _ChNum
    1549              $C$DW$146       .dwtag  DW_TAG_variable, DW_AT_name("ChNum")
    1550                      .dwattr $C$DW$146, DW_AT_TI_symbol_name("_ChNum")
    1551                      .dwattr $C$DW$146, DW_AT_type(*$C$DW$T$21)
    1552                      .dwattr $C$DW$146, DW_AT_location[DW_OP_reg0]
    1553              ;* AR7   assigned to _drvRegName
    1554              $C$DW$147       .dwtag  DW_TAG_variable, DW_AT_name("drvRegName")
    1555                      .dwattr $C$DW$147, DW_AT_TI_symbol_name("_drvRegName")
    1556                      .dwattr $C$DW$147, DW_AT_type(*$C$DW$T$95)
    1557                      .dwattr $C$DW$147, DW_AT_location[DW_OP_reg18]
    1558              $C$DW$148       .dwtag  DW_TAG_variable, DW_AT_name("drvDataGet")
    1559                      .dwattr $C$DW$148, DW_AT_TI_symbol_name("_drvDataGet")
    1560                      .dwattr $C$DW$148, DW_AT_type(*$C$DW$T$21)
    1561                      .dwattr $C$DW$148, DW_AT_location[DW_OP_breg20 -1]
    1562              ;* AL    assigned to _ChannelNum
    1563              $C$DW$149       .dwtag  DW_TAG_variable, DW_AT_name("ChannelNum")
    1564                      .dwattr $C$DW$149, DW_AT_TI_symbol_name("_ChannelNum")
    1565                      .dwattr $C$DW$149, DW_AT_type(*$C$DW$T$103)
    1566                      .dwattr $C$DW$149, DW_AT_location[DW_OP_reg0]
    1567              ;* AR6   assigned to _handle
    1568              $C$DW$150       .dwtag  DW_TAG_variable, DW_AT_name("handle")
    1569                      .dwattr $C$DW$150, DW_AT_TI_symbol_name("_handle")
    1570                      .dwattr $C$DW$150, DW_AT_type(*$C$DW$T$123)
    1571                      .dwattr $C$DW$150, DW_AT_location[DW_OP_reg16]
    1572                      .dwcfi  cfa_offset, -2
    1573                      .dwcfi  save_reg_to_mem, 26, 0
    1574                      .dwcfi  save_reg_to_reg, 78, 26
    1575 00000149 FE02          ADDB      SP,#2                 ; [CPU_U] 
    1576                      .dwcfi  cfa_offset, -4
    1577                      .dwpsn  file "D:/BM1000/sw/drivers/drvic/ldc1612.c",line 515,column 3,is_stmt
    1578 0000014a 5200          CMPB      AL,#0                 ; [CPU_] |515| 
    1579                      .dwpsn  file "D:/BM1000/sw/drivers/drvic/ldc1612.c",line 509,column 1,is_stmt
    1580 0000014b C4A4          MOVL      XAR6,XAR4             ; [CPU_] |509| 
    1581                      .dwpsn  file "D:/BM1000/sw/drivers/drvic/ldc1612.c",line 515,column 3,is_stmt
    1582 0000014c EC10          BF        $C$L42,EQ             ; [CPU_] |515| 
    1583                      ; branchcc occurs ; [] |515| 
    1584 0000014d 5201          CMPB      AL,#1                 ; [CPU_] |515| 
    1585 0000014e EC0B          BF        $C$L41,EQ             ; [CPU_] |515| 
    1586                      ; branchcc occurs ; [] |515| 
    1587 0000014f 5202          CMPB      AL,#2                 ; [CPU_] |515| 
    1588 00000150 EC06          BF        $C$L40,EQ             ; [CPU_] |515| 
    1589                      ; branchcc occurs ; [] |515| 
    1590 00000151 5203          CMPB      AL,#3                 ; [CPU_] |515| 
    1591 00000152 ED0C          BF        $C$L43,NEQ            ; [CPU_] |515| 
    1592                      ; branchcc occurs ; [] |515| 
    1593                      .dwpsn  file "D:/BM1000/sw/drivers/drvic/ldc1612.c",line 526,column 29,is_stmt
    1594 00000153 B617          MOVB      XAR7,#23              ; [CPU_] |526| 
    1595                      .dwpsn  file "D:/BM1000/sw/drivers/drvic/ldc1612.c",line 527,column 29,is_stmt
    1596 00000154 9A03          MOVB      AL,#3                 ; [CPU_] |527| 
    1597                      .dwpsn  file "D:/BM1000/sw/drivers/drvic/ldc1612.c",line 528,column 7,is_stmt
TMS320C2000 Assembler PC v6.2.5 Sat Sep 16 14:55:48 2017

Tools Copyright (c) 1996-2014 Texas Instruments Incorporated
C:\Users\wmj\AppData\Local\Temp\1116811                              PAGE   31

    1598 00000155 6F09          B         $C$L43,UNC            ; [CPU_] |528| 
    1599                      ; branch occurs ; [] |528| 
    1600 00000156       $C$L40:    
    1601                      .dwpsn  file "D:/BM1000/sw/drivers/drvic/ldc1612.c",line 523,column 29,is_stmt
    1602 00000156 B616          MOVB      XAR7,#22              ; [CPU_] |523| 
    1603                      .dwpsn  file "D:/BM1000/sw/drivers/drvic/ldc1612.c",line 524,column 29,is_stmt
    1604 00000157 9A02          MOVB      AL,#2                 ; [CPU_] |524| 
    1605                      .dwpsn  file "D:/BM1000/sw/drivers/drvic/ldc1612.c",line 525,column 7,is_stmt
    1606 00000158 6F06          B         $C$L43,UNC            ; [CPU_] |525| 
    1607                      ; branch occurs ; [] |525| 
    1608 00000159       $C$L41:    
    1609                      .dwpsn  file "D:/BM1000/sw/drivers/drvic/ldc1612.c",line 520,column 29,is_stmt
    1610 00000159 B615          MOVB      XAR7,#21              ; [CPU_] |520| 
    1611                      .dwpsn  file "D:/BM1000/sw/drivers/drvic/ldc1612.c",line 521,column 29,is_stmt
    1612 0000015a 9A01          MOVB      AL,#1                 ; [CPU_] |521| 
    1613                      .dwpsn  file "D:/BM1000/sw/drivers/drvic/ldc1612.c",line 522,column 7,is_stmt
    1614 0000015b 6F03          B         $C$L43,UNC            ; [CPU_] |522| 
    1615                      ; branch occurs ; [] |522| 
    1616 0000015c       $C$L42:    
    1617                      .dwpsn  file "D:/BM1000/sw/drivers/drvic/ldc1612.c",line 517,column 29,is_stmt
    1618 0000015c B614          MOVB      XAR7,#20              ; [CPU_] |517| 
    1619                      .dwpsn  file "D:/BM1000/sw/drivers/drvic/ldc1612.c",line 518,column 29,is_stmt
    1620 0000015d 9A00          MOVB      AL,#0                 ; [CPU_] |518| 
    1621 0000015e       $C$L43:    
    1622                      .dwpsn  file "D:/BM1000/sw/drivers/drvic/ldc1612.c",line 532,column 3,is_stmt
    1623 0000015e 5DAD          MOVZ      AR5,SP                ; [CPU_U] |532| 
    1624 0000015f 8AE6          MOVL      XAR4,*+XAR6[4]        ; [CPU_] |532| 
    1625 00000160 DD81          SUBB      XAR5,#1               ; [CPU_U] |532| 
    1626              $C$DW$151       .dwtag  DW_TAG_TI_branch
    1627                      .dwattr $C$DW$151, DW_AT_low_pc(0x00)
    1628                      .dwattr $C$DW$151, DW_AT_name("_LDC161x_getClkDivs")
    1629                      .dwattr $C$DW$151, DW_AT_TI_call
    1630 00000161 7640'         LCR       #_LDC161x_getClkDivs  ; [CPU_] |532| 
         00000162 013C 
    1631                      ; call occurs [#_LDC161x_getClkDivs] ; [] |532| 
    1632                      .dwpsn  file "D:/BM1000/sw/drivers/drvic/ldc1612.c",line 533,column 3,is_stmt
    1633 00000163 9341          MOV       AH,*-SP[1]            ; [CPU_] |533| 
    1634 00000164 92A7          MOV       AL,AR7                ; [CPU_] |533| 
    1635 00000165 8AA6          MOVL      XAR4,XAR6             ; [CPU_] |533| 
    1636              $C$DW$152       .dwtag  DW_TAG_TI_branch
    1637                      .dwattr $C$DW$152, DW_AT_low_pc(0x00)
    1638                      .dwattr $C$DW$152, DW_AT_name("_LDC161x_writeI2c")
    1639                      .dwattr $C$DW$152, DW_AT_TI_call
    1640 00000166 7640'         LCR       #_LDC161x_writeI2c    ; [CPU_] |533| 
         00000167 0008 
    1641                      ; call occurs [#_LDC161x_writeI2c] ; [] |533| 
    1642 00000168 FE82          SUBB      SP,#2                 ; [CPU_U] 
    1643                      .dwcfi  cfa_offset, -2
    1644              $C$DW$153       .dwtag  DW_TAG_TI_branch
    1645                      .dwattr $C$DW$153, DW_AT_low_pc(0x00)
    1646                      .dwattr $C$DW$153, DW_AT_TI_return
    1647 00000169 0006          LRETR     ; [CPU_] 
    1648                      ; return occurs ; [] 
    1649                      .dwattr $C$DW$143, DW_AT_TI_end_file("D:/BM1000/sw/drivers/drvic/ldc1612.c")
    1650                      .dwattr $C$DW$143, DW_AT_TI_end_line(0x218)
TMS320C2000 Assembler PC v6.2.5 Sat Sep 16 14:55:48 2017

Tools Copyright (c) 1996-2014 Texas Instruments Incorporated
C:\Users\wmj\AppData\Local\Temp\1116811                              PAGE   32

    1651                      .dwattr $C$DW$143, DW_AT_TI_end_column(0x01)
    1652                      .dwendentry
    1653                      .dwendtag $C$DW$143
    1654              
    1655 0000016a               .sect   ".text"
    1656                      .clink
    1657                      .global _LDC161x_setStatus
    1658              
    1659              $C$DW$154       .dwtag  DW_TAG_subprogram, DW_AT_name("LDC161x_setStatus")
    1660                      .dwattr $C$DW$154, DW_AT_low_pc(_LDC161x_setStatus)
    1661                      .dwattr $C$DW$154, DW_AT_high_pc(0x00)
    1662                      .dwattr $C$DW$154, DW_AT_TI_symbol_name("_LDC161x_setStatus")
    1663                      .dwattr $C$DW$154, DW_AT_external
    1664                      .dwattr $C$DW$154, DW_AT_TI_begin_file("D:/BM1000/sw/drivers/drvic/ldc1612.c")
    1665                      .dwattr $C$DW$154, DW_AT_TI_begin_line(0x308)
    1666                      .dwattr $C$DW$154, DW_AT_TI_begin_column(0x06)
    1667                      .dwattr $C$DW$154, DW_AT_TI_max_frame_size(-2)
    1668                      .dwpsn  file "D:/BM1000/sw/drivers/drvic/ldc1612.c",line 777,column 1,is_stmt,address _LDC161x_setSta
    1669              
    1670                      .dwfde $C$DW$CIE, _LDC161x_setStatus
    1671              $C$DW$155       .dwtag  DW_TAG_formal_parameter, DW_AT_name("handle")
    1672                      .dwattr $C$DW$155, DW_AT_TI_symbol_name("_handle")
    1673                      .dwattr $C$DW$155, DW_AT_type(*$C$DW$T$48)
    1674                      .dwattr $C$DW$155, DW_AT_location[DW_OP_reg12]
    1675              $C$DW$156       .dwtag  DW_TAG_formal_parameter, DW_AT_name("drvData")
    1676                      .dwattr $C$DW$156, DW_AT_TI_symbol_name("_drvData")
    1677                      .dwattr $C$DW$156, DW_AT_type(*$C$DW$T$21)
    1678                      .dwattr $C$DW$156, DW_AT_location[DW_OP_reg0]
    1679              
    1680              ;***************************************************************
    1681              ;* FNAME: _LDC161x_setStatus            FR SIZE:   0           *
    1682              ;*                                                             *
    1683              ;* FUNCTION ENVIRONMENT                                        *
    1684              ;*                                                             *
    1685              ;* FUNCTION PROPERTIES                                         *
    1686              ;*                            0 Parameter,  0 Auto,  0 SOE     *
    1687              ;***************************************************************
    1688              
    1689              _LDC161x_setStatus:
    1690              ;* AR4   assigned to _handle
    1691              $C$DW$157       .dwtag  DW_TAG_variable, DW_AT_name("handle")
    1692                      .dwattr $C$DW$157, DW_AT_TI_symbol_name("_handle")
    1693                      .dwattr $C$DW$157, DW_AT_type(*$C$DW$T$111)
    1694                      .dwattr $C$DW$157, DW_AT_location[DW_OP_reg12]
    1695              ;* AL    assigned to _drvData
    1696              $C$DW$158       .dwtag  DW_TAG_variable, DW_AT_name("drvData")
    1697                      .dwattr $C$DW$158, DW_AT_TI_symbol_name("_drvData")
    1698                      .dwattr $C$DW$158, DW_AT_type(*$C$DW$T$138)
    1699                      .dwattr $C$DW$158, DW_AT_location[DW_OP_reg0]
    1700                      .dwcfi  cfa_offset, -2
    1701                      .dwcfi  save_reg_to_mem, 26, 0
    1702                      .dwcfi  save_reg_to_reg, 78, 26
    1703                      .dwpsn  file "D:/BM1000/sw/drivers/drvic/ldc1612.c",line 780,column 3,is_stmt
    1704 0000016a D00B          MOVB      XAR0,#11              ; [CPU_] |780| 
    1705 0000016b CDA9          AND       AH,AL,#0x0001         ; [CPU_] |780| 
TMS320C2000 Assembler PC v6.2.5 Sat Sep 16 14:55:48 2017

Tools Copyright (c) 1996-2014 Texas Instruments Incorporated
C:\Users\wmj\AppData\Local\Temp\1116811                              PAGE   33

         0000016c 0001 
    1706 0000016d 9794          MOV       *+XAR4[AR0],AH        ; [CPU_] |780| 
    1707                      .dwpsn  file "D:/BM1000/sw/drivers/drvic/ldc1612.c",line 781,column 3,is_stmt
    1708 0000016e D00C          MOVB      XAR0,#12              ; [CPU_] |781| 
    1709 0000016f CDA9          AND       AH,AL,#0x0002         ; [CPU_] |781| 
         00000170 0002 
    1710 00000171 9794          MOV       *+XAR4[AR0],AH        ; [CPU_] |781| 
    1711                      .dwpsn  file "D:/BM1000/sw/drivers/drvic/ldc1612.c",line 782,column 3,is_stmt
    1712 00000172 D00D          MOVB      XAR0,#13              ; [CPU_] |782| 
    1713 00000173 CDA9          AND       AH,AL,#0x0004         ; [CPU_] |782| 
         00000174 0004 
    1714 00000175 9794          MOV       *+XAR4[AR0],AH        ; [CPU_] |782| 
    1715                      .dwpsn  file "D:/BM1000/sw/drivers/drvic/ldc1612.c",line 783,column 3,is_stmt
    1716 00000176 D00E          MOVB      XAR0,#14              ; [CPU_] |783| 
    1717 00000177 CDA9          AND       AH,AL,#0x0008         ; [CPU_] |783| 
         00000178 0008 
    1718 00000179 9794          MOV       *+XAR4[AR0],AH        ; [CPU_] |783| 
    1719                      .dwpsn  file "D:/BM1000/sw/drivers/drvic/ldc1612.c",line 784,column 3,is_stmt
    1720 0000017a D00F          MOVB      XAR0,#15              ; [CPU_] |784| 
    1721 0000017b CDA9          AND       AH,AL,#0x0040         ; [CPU_] |784| 
         0000017c 0040 
    1722 0000017d 9794          MOV       *+XAR4[AR0],AH        ; [CPU_] |784| 
    1723                      .dwpsn  file "D:/BM1000/sw/drivers/drvic/ldc1612.c",line 785,column 3,is_stmt
    1724 0000017e D010          MOVB      XAR0,#16              ; [CPU_] |785| 
    1725 0000017f CDA9          AND       AH,AL,#0x0100         ; [CPU_] |785| 
         00000180 0100 
    1726 00000181 9794          MOV       *+XAR4[AR0],AH        ; [CPU_] |785| 
    1727                      .dwpsn  file "D:/BM1000/sw/drivers/drvic/ldc1612.c",line 786,column 3,is_stmt
    1728 00000182 D011          MOVB      XAR0,#17              ; [CPU_] |786| 
    1729 00000183 CDA9          AND       AH,AL,#0x0200         ; [CPU_] |786| 
         00000184 0200 
    1730 00000185 9794          MOV       *+XAR4[AR0],AH        ; [CPU_] |786| 
    1731                      .dwpsn  file "D:/BM1000/sw/drivers/drvic/ldc1612.c",line 787,column 3,is_stmt
    1732 00000186 D012          MOVB      XAR0,#18              ; [CPU_] |787| 
    1733 00000187 CDA9          AND       AH,AL,#0x0400         ; [CPU_] |787| 
         00000188 0400 
    1734 00000189 9794          MOV       *+XAR4[AR0],AH        ; [CPU_] |787| 
    1735                      .dwpsn  file "D:/BM1000/sw/drivers/drvic/ldc1612.c",line 788,column 3,is_stmt
    1736 0000018a D013          MOVB      XAR0,#19              ; [CPU_] |788| 
    1737 0000018b CDA9          AND       AH,AL,#0x0800         ; [CPU_] |788| 
         0000018c 0800 
    1738 0000018d 9794          MOV       *+XAR4[AR0],AH        ; [CPU_] |788| 
    1739                      .dwpsn  file "D:/BM1000/sw/drivers/drvic/ldc1612.c",line 789,column 3,is_stmt
    1740 0000018e D014          MOVB      XAR0,#20              ; [CPU_] |789| 
    1741 0000018f CDA9          AND       AH,AL,#0x1000         ; [CPU_] |789| 
         00000190 1000 
    1742 00000191 9794          MOV       *+XAR4[AR0],AH        ; [CPU_] |789| 
    1743                      .dwpsn  file "D:/BM1000/sw/drivers/drvic/ldc1612.c",line 790,column 3,is_stmt
    1744 00000192 D015          MOVB      XAR0,#21              ; [CPU_] |790| 
    1745 00000193 CDA9          AND       AH,AL,#0x2000         ; [CPU_] |790| 
         00000194 2000 
    1746 00000195 9794          MOV       *+XAR4[AR0],AH        ; [CPU_] |790| 
    1747                      .dwpsn  file "D:/BM1000/sw/drivers/drvic/ldc1612.c",line 791,column 3,is_stmt
    1748 00000196 CDA9          AND       AH,AL,#0x4000         ; [CPU_] |791| 
         00000197 4000 
TMS320C2000 Assembler PC v6.2.5 Sat Sep 16 14:55:48 2017

Tools Copyright (c) 1996-2014 Texas Instruments Incorporated
C:\Users\wmj\AppData\Local\Temp\1116811                              PAGE   34

    1749 00000198 D016          MOVB      XAR0,#22              ; [CPU_] |791| 
    1750                      .dwpsn  file "D:/BM1000/sw/drivers/drvic/ldc1612.c",line 792,column 3,is_stmt
    1751 00000199 CCA9          AND       AL,AL,#0x8000         ; [CPU_] |792| 
         0000019a 8000 
    1752                      .dwpsn  file "D:/BM1000/sw/drivers/drvic/ldc1612.c",line 791,column 3,is_stmt
    1753 0000019b 9794          MOV       *+XAR4[AR0],AH        ; [CPU_] |791| 
    1754                      .dwpsn  file "D:/BM1000/sw/drivers/drvic/ldc1612.c",line 792,column 3,is_stmt
    1755 0000019c D017          MOVB      XAR0,#23              ; [CPU_] |792| 
    1756 0000019d 9694          MOV       *+XAR4[AR0],AL        ; [CPU_] |792| 
    1757              $C$DW$159       .dwtag  DW_TAG_TI_branch
    1758                      .dwattr $C$DW$159, DW_AT_low_pc(0x00)
    1759                      .dwattr $C$DW$159, DW_AT_TI_return
    1760 0000019e 0006          LRETR     ; [CPU_] 
    1761                      ; return occurs ; [] 
    1762                      .dwattr $C$DW$154, DW_AT_TI_end_file("D:/BM1000/sw/drivers/drvic/ldc1612.c")
    1763                      .dwattr $C$DW$154, DW_AT_TI_end_line(0x31b)
    1764                      .dwattr $C$DW$154, DW_AT_TI_end_column(0x01)
    1765                      .dwendentry
    1766                      .dwendtag $C$DW$154
    1767              
    1768 0000019f               .sect   ".text"
    1769                      .clink
    1770                      .global _LDC161x_setSettleCnt
    1771              
    1772              $C$DW$160       .dwtag  DW_TAG_subprogram, DW_AT_name("LDC161x_setSettleCnt")
    1773                      .dwattr $C$DW$160, DW_AT_low_pc(_LDC161x_setSettleCnt)
    1774                      .dwattr $C$DW$160, DW_AT_high_pc(0x00)
    1775                      .dwattr $C$DW$160, DW_AT_TI_symbol_name("_LDC161x_setSettleCnt")
    1776                      .dwattr $C$DW$160, DW_AT_external
    1777                      .dwattr $C$DW$160, DW_AT_TI_begin_file("D:/BM1000/sw/drivers/drvic/ldc1612.c")
    1778                      .dwattr $C$DW$160, DW_AT_TI_begin_line(0x2cf)
    1779                      .dwattr $C$DW$160, DW_AT_TI_begin_column(0x06)
    1780                      .dwattr $C$DW$160, DW_AT_TI_max_frame_size(-2)
    1781                      .dwpsn  file "D:/BM1000/sw/drivers/drvic/ldc1612.c",line 720,column 1,is_stmt,address _LDC161x_setSet
    1782              
    1783                      .dwfde $C$DW$CIE, _LDC161x_setSettleCnt
    1784              $C$DW$161       .dwtag  DW_TAG_formal_parameter, DW_AT_name("handle")
    1785                      .dwattr $C$DW$161, DW_AT_TI_symbol_name("_handle")
    1786                      .dwattr $C$DW$161, DW_AT_type(*$C$DW$T$48)
    1787                      .dwattr $C$DW$161, DW_AT_location[DW_OP_reg12]
    1788              $C$DW$162       .dwtag  DW_TAG_formal_parameter, DW_AT_name("Channel")
    1789                      .dwattr $C$DW$162, DW_AT_TI_symbol_name("_Channel")
    1790                      .dwattr $C$DW$162, DW_AT_type(*$C$DW$T$138)
    1791                      .dwattr $C$DW$162, DW_AT_location[DW_OP_reg0]
    1792              $C$DW$163       .dwtag  DW_TAG_formal_parameter, DW_AT_name("drvData")
    1793                      .dwattr $C$DW$163, DW_AT_TI_symbol_name("_drvData")
    1794                      .dwattr $C$DW$163, DW_AT_type(*$C$DW$T$21)
    1795                      .dwattr $C$DW$163, DW_AT_location[DW_OP_reg1]
    1796              
    1797              ;***************************************************************
    1798              ;* FNAME: _LDC161x_setSettleCnt         FR SIZE:   0           *
    1799              ;*                                                             *
    1800              ;* FUNCTION ENVIRONMENT                                        *
    1801              ;*                                                             *
    1802              ;* FUNCTION PROPERTIES                                         *
TMS320C2000 Assembler PC v6.2.5 Sat Sep 16 14:55:48 2017

Tools Copyright (c) 1996-2014 Texas Instruments Incorporated
C:\Users\wmj\AppData\Local\Temp\1116811                              PAGE   35

    1803              ;*                            0 Parameter,  0 Auto,  0 SOE     *
    1804              ;***************************************************************
    1805              
    1806              _LDC161x_setSettleCnt:
    1807              ;* AH    assigned to _drvData
    1808              $C$DW$164       .dwtag  DW_TAG_variable, DW_AT_name("drvData")
    1809                      .dwattr $C$DW$164, DW_AT_TI_symbol_name("_drvData")
    1810                      .dwattr $C$DW$164, DW_AT_type(*$C$DW$T$138)
    1811                      .dwattr $C$DW$164, DW_AT_location[DW_OP_reg1]
    1812              ;* AL    assigned to _Channel
    1813              $C$DW$165       .dwtag  DW_TAG_variable, DW_AT_name("Channel")
    1814                      .dwattr $C$DW$165, DW_AT_TI_symbol_name("_Channel")
    1815                      .dwattr $C$DW$165, DW_AT_type(*$C$DW$T$138)
    1816                      .dwattr $C$DW$165, DW_AT_location[DW_OP_reg0]
    1817              ;* AR4   assigned to _handle
    1818              $C$DW$166       .dwtag  DW_TAG_variable, DW_AT_name("handle")
    1819                      .dwattr $C$DW$166, DW_AT_TI_symbol_name("_handle")
    1820                      .dwattr $C$DW$166, DW_AT_type(*$C$DW$T$111)
    1821                      .dwattr $C$DW$166, DW_AT_location[DW_OP_reg12]
    1822                      .dwcfi  cfa_offset, -2
    1823                      .dwcfi  save_reg_to_mem, 26, 0
    1824                      .dwcfi  save_reg_to_reg, 78, 26
    1825                      .dwpsn  file "D:/BM1000/sw/drivers/drvic/ldc1612.c",line 723,column 3,is_stmt
    1826 0000019f 5200          CMPB      AL,#0                 ; [CPU_] |723| 
    1827                      .dwpsn  file "D:/BM1000/sw/drivers/drvic/ldc1612.c",line 726,column 14,is_stmt
    1828 000001a0 56B1          MOVB      XAR0,#8,EQ            ; [CPU_] |726| 
         000001a1 08A0 
    1829 000001a2 562B          MOV       *+XAR4[AR0],AH,EQ     ; [CPU_] |726| 
         000001a3 0194 
    1830              $C$DW$167       .dwtag  DW_TAG_TI_branch
    1831                      .dwattr $C$DW$167, DW_AT_low_pc(0x00)
    1832                      .dwattr $C$DW$167, DW_AT_TI_return
    1833 000001a4 0006          LRETR     ; [CPU_] 
    1834                      ; return occurs ; [] 
    1835                      .dwattr $C$DW$160, DW_AT_TI_end_file("D:/BM1000/sw/drivers/drvic/ldc1612.c")
    1836                      .dwattr $C$DW$160, DW_AT_TI_end_line(0x2e1)
    1837                      .dwattr $C$DW$160, DW_AT_TI_end_column(0x01)
    1838                      .dwendentry
    1839                      .dwendtag $C$DW$160
    1840              
    1841 000001a5               .sect   ".text"
    1842                      .clink
    1843                      .global _LDC161x_setRcount
    1844              
    1845              $C$DW$168       .dwtag  DW_TAG_subprogram, DW_AT_name("LDC161x_setRcount")
    1846                      .dwattr $C$DW$168, DW_AT_low_pc(_LDC161x_setRcount)
    1847                      .dwattr $C$DW$168, DW_AT_high_pc(0x00)
    1848                      .dwattr $C$DW$168, DW_AT_TI_symbol_name("_LDC161x_setRcount")
    1849                      .dwattr $C$DW$168, DW_AT_external
    1850                      .dwattr $C$DW$168, DW_AT_TI_begin_file("D:/BM1000/sw/drivers/drvic/ldc1612.c")
    1851                      .dwattr $C$DW$168, DW_AT_TI_begin_line(0x29d)
    1852                      .dwattr $C$DW$168, DW_AT_TI_begin_column(0x06)
    1853                      .dwattr $C$DW$168, DW_AT_TI_max_frame_size(-2)
    1854                      .dwpsn  file "D:/BM1000/sw/drivers/drvic/ldc1612.c",line 670,column 1,is_stmt,address _LDC161x_setRco
    1855              
TMS320C2000 Assembler PC v6.2.5 Sat Sep 16 14:55:48 2017

Tools Copyright (c) 1996-2014 Texas Instruments Incorporated
C:\Users\wmj\AppData\Local\Temp\1116811                              PAGE   36

    1856                      .dwfde $C$DW$CIE, _LDC161x_setRcount
    1857              $C$DW$169       .dwtag  DW_TAG_formal_parameter, DW_AT_name("handle")
    1858                      .dwattr $C$DW$169, DW_AT_TI_symbol_name("_handle")
    1859                      .dwattr $C$DW$169, DW_AT_type(*$C$DW$T$48)
    1860                      .dwattr $C$DW$169, DW_AT_location[DW_OP_reg12]
    1861              $C$DW$170       .dwtag  DW_TAG_formal_parameter, DW_AT_name("Channel")
    1862                      .dwattr $C$DW$170, DW_AT_TI_symbol_name("_Channel")
    1863                      .dwattr $C$DW$170, DW_AT_type(*$C$DW$T$138)
    1864                      .dwattr $C$DW$170, DW_AT_location[DW_OP_reg0]
    1865              $C$DW$171       .dwtag  DW_TAG_formal_parameter, DW_AT_name("drvData")
    1866                      .dwattr $C$DW$171, DW_AT_TI_symbol_name("_drvData")
    1867                      .dwattr $C$DW$171, DW_AT_type(*$C$DW$T$21)
    1868                      .dwattr $C$DW$171, DW_AT_location[DW_OP_reg1]
    1869              
    1870              ;***************************************************************
    1871              ;* FNAME: _LDC161x_setRcount            FR SIZE:   0           *
    1872              ;*                                                             *
    1873              ;* FUNCTION ENVIRONMENT                                        *
    1874              ;*                                                             *
    1875              ;* FUNCTION PROPERTIES                                         *
    1876              ;*                            0 Parameter,  0 Auto,  0 SOE     *
    1877              ;***************************************************************
    1878              
    1879              _LDC161x_setRcount:
    1880              ;* AH    assigned to _drvData
    1881              $C$DW$172       .dwtag  DW_TAG_variable, DW_AT_name("drvData")
    1882                      .dwattr $C$DW$172, DW_AT_TI_symbol_name("_drvData")
    1883                      .dwattr $C$DW$172, DW_AT_type(*$C$DW$T$138)
    1884                      .dwattr $C$DW$172, DW_AT_location[DW_OP_reg1]
    1885              ;* AL    assigned to _Channel
    1886              $C$DW$173       .dwtag  DW_TAG_variable, DW_AT_name("Channel")
    1887                      .dwattr $C$DW$173, DW_AT_TI_symbol_name("_Channel")
    1888                      .dwattr $C$DW$173, DW_AT_type(*$C$DW$T$138)
    1889                      .dwattr $C$DW$173, DW_AT_location[DW_OP_reg0]
    1890              ;* AR4   assigned to _handle
    1891              $C$DW$174       .dwtag  DW_TAG_variable, DW_AT_name("handle")
    1892                      .dwattr $C$DW$174, DW_AT_TI_symbol_name("_handle")
    1893                      .dwattr $C$DW$174, DW_AT_type(*$C$DW$T$111)
    1894                      .dwattr $C$DW$174, DW_AT_location[DW_OP_reg12]
    1895                      .dwcfi  cfa_offset, -2
    1896                      .dwcfi  save_reg_to_mem, 26, 0
    1897                      .dwcfi  save_reg_to_reg, 78, 26
    1898                      .dwpsn  file "D:/BM1000/sw/drivers/drvic/ldc1612.c",line 673,column 3,is_stmt
    1899 000001a5 5200          CMPB      AL,#0                 ; [CPU_] |673| 
    1900                      .dwpsn  file "D:/BM1000/sw/drivers/drvic/ldc1612.c",line 676,column 14,is_stmt
    1901 000001a6 562B          MOV       *+XAR4[6],AH,EQ       ; [CPU_] |676| 
         000001a7 01F4 
    1902              $C$DW$175       .dwtag  DW_TAG_TI_branch
    1903                      .dwattr $C$DW$175, DW_AT_low_pc(0x00)
    1904                      .dwattr $C$DW$175, DW_AT_TI_return
    1905 000001a8 0006          LRETR     ; [CPU_] 
    1906                      ; return occurs ; [] 
    1907                      .dwattr $C$DW$168, DW_AT_TI_end_file("D:/BM1000/sw/drivers/drvic/ldc1612.c")
    1908                      .dwattr $C$DW$168, DW_AT_TI_end_line(0x2af)
    1909                      .dwattr $C$DW$168, DW_AT_TI_end_column(0x01)
TMS320C2000 Assembler PC v6.2.5 Sat Sep 16 14:55:48 2017

Tools Copyright (c) 1996-2014 Texas Instruments Incorporated
C:\Users\wmj\AppData\Local\Temp\1116811                              PAGE   37

    1910                      .dwendentry
    1911                      .dwendtag $C$DW$168
    1912              
    1913 000001a9               .sect   ".text"
    1914                      .clink
    1915                      .global _LDC161x_setOffset
    1916              
    1917              $C$DW$176       .dwtag  DW_TAG_subprogram, DW_AT_name("LDC161x_setOffset")
    1918                      .dwattr $C$DW$176, DW_AT_low_pc(_LDC161x_setOffset)
    1919                      .dwattr $C$DW$176, DW_AT_high_pc(0x00)
    1920                      .dwattr $C$DW$176, DW_AT_TI_symbol_name("_LDC161x_setOffset")
    1921                      .dwattr $C$DW$176, DW_AT_external
    1922                      .dwattr $C$DW$176, DW_AT_TI_begin_file("D:/BM1000/sw/drivers/drvic/ldc1612.c")
    1923                      .dwattr $C$DW$176, DW_AT_TI_begin_line(0x2b6)
    1924                      .dwattr $C$DW$176, DW_AT_TI_begin_column(0x06)
    1925                      .dwattr $C$DW$176, DW_AT_TI_max_frame_size(-2)
    1926                      .dwpsn  file "D:/BM1000/sw/drivers/drvic/ldc1612.c",line 695,column 1,is_stmt,address _LDC161x_setOff
    1927              
    1928                      .dwfde $C$DW$CIE, _LDC161x_setOffset
    1929              $C$DW$177       .dwtag  DW_TAG_formal_parameter, DW_AT_name("handle")
    1930                      .dwattr $C$DW$177, DW_AT_TI_symbol_name("_handle")
    1931                      .dwattr $C$DW$177, DW_AT_type(*$C$DW$T$48)
    1932                      .dwattr $C$DW$177, DW_AT_location[DW_OP_reg12]
    1933              $C$DW$178       .dwtag  DW_TAG_formal_parameter, DW_AT_name("Channel")
    1934                      .dwattr $C$DW$178, DW_AT_TI_symbol_name("_Channel")
    1935                      .dwattr $C$DW$178, DW_AT_type(*$C$DW$T$138)
    1936                      .dwattr $C$DW$178, DW_AT_location[DW_OP_reg0]
    1937              $C$DW$179       .dwtag  DW_TAG_formal_parameter, DW_AT_name("drvData")
    1938                      .dwattr $C$DW$179, DW_AT_TI_symbol_name("_drvData")
    1939                      .dwattr $C$DW$179, DW_AT_type(*$C$DW$T$21)
    1940                      .dwattr $C$DW$179, DW_AT_location[DW_OP_reg1]
    1941              
    1942              ;***************************************************************
    1943              ;* FNAME: _LDC161x_setOffset            FR SIZE:   0           *
    1944              ;*                                                             *
    1945              ;* FUNCTION ENVIRONMENT                                        *
    1946              ;*                                                             *
    1947              ;* FUNCTION PROPERTIES                                         *
    1948              ;*                            0 Parameter,  0 Auto,  0 SOE     *
    1949              ;***************************************************************
    1950              
    1951              _LDC161x_setOffset:
    1952              ;* AH    assigned to _drvData
    1953              $C$DW$180       .dwtag  DW_TAG_variable, DW_AT_name("drvData")
    1954                      .dwattr $C$DW$180, DW_AT_TI_symbol_name("_drvData")
    1955                      .dwattr $C$DW$180, DW_AT_type(*$C$DW$T$138)
    1956                      .dwattr $C$DW$180, DW_AT_location[DW_OP_reg1]
    1957              ;* AL    assigned to _Channel
    1958              $C$DW$181       .dwtag  DW_TAG_variable, DW_AT_name("Channel")
    1959                      .dwattr $C$DW$181, DW_AT_TI_symbol_name("_Channel")
    1960                      .dwattr $C$DW$181, DW_AT_type(*$C$DW$T$138)
    1961                      .dwattr $C$DW$181, DW_AT_location[DW_OP_reg0]
    1962              ;* AR4   assigned to _handle
    1963              $C$DW$182       .dwtag  DW_TAG_variable, DW_AT_name("handle")
    1964                      .dwattr $C$DW$182, DW_AT_TI_symbol_name("_handle")
TMS320C2000 Assembler PC v6.2.5 Sat Sep 16 14:55:48 2017

Tools Copyright (c) 1996-2014 Texas Instruments Incorporated
C:\Users\wmj\AppData\Local\Temp\1116811                              PAGE   38

    1965                      .dwattr $C$DW$182, DW_AT_type(*$C$DW$T$111)
    1966                      .dwattr $C$DW$182, DW_AT_location[DW_OP_reg12]
    1967                      .dwcfi  cfa_offset, -2
    1968                      .dwcfi  save_reg_to_mem, 26, 0
    1969                      .dwcfi  save_reg_to_reg, 78, 26
    1970                      .dwpsn  file "D:/BM1000/sw/drivers/drvic/ldc1612.c",line 698,column 3,is_stmt
    1971 000001a9 5200          CMPB      AL,#0                 ; [CPU_] |698| 
    1972                      .dwpsn  file "D:/BM1000/sw/drivers/drvic/ldc1612.c",line 701,column 14,is_stmt
    1973 000001aa 562B          MOV       *+XAR4[7],AH,EQ       ; [CPU_] |701| 
         000001ab 01FC 
    1974              $C$DW$183       .dwtag  DW_TAG_TI_branch
    1975                      .dwattr $C$DW$183, DW_AT_low_pc(0x00)
    1976                      .dwattr $C$DW$183, DW_AT_TI_return
    1977 000001ac 0006          LRETR     ; [CPU_] 
    1978                      ; return occurs ; [] 
    1979                      .dwattr $C$DW$176, DW_AT_TI_end_file("D:/BM1000/sw/drivers/drvic/ldc1612.c")
    1980                      .dwattr $C$DW$176, DW_AT_TI_end_line(0x2c8)
    1981                      .dwattr $C$DW$176, DW_AT_TI_end_column(0x01)
    1982                      .dwendentry
    1983                      .dwendtag $C$DW$176
    1984              
    1985 000001ad               .sect   ".text"
    1986                      .clink
    1987                      .global _LDC161x_setMuxConfig
    1988              
    1989              $C$DW$184       .dwtag  DW_TAG_subprogram, DW_AT_name("LDC161x_setMuxConfig")
    1990                      .dwattr $C$DW$184, DW_AT_low_pc(_LDC161x_setMuxConfig)
    1991                      .dwattr $C$DW$184, DW_AT_high_pc(0x00)
    1992                      .dwattr $C$DW$184, DW_AT_TI_symbol_name("_LDC161x_setMuxConfig")
    1993                      .dwattr $C$DW$184, DW_AT_external
    1994                      .dwattr $C$DW$184, DW_AT_TI_begin_file("D:/BM1000/sw/drivers/drvic/ldc1612.c")
    1995                      .dwattr $C$DW$184, DW_AT_TI_begin_line(0x342)
    1996                      .dwattr $C$DW$184, DW_AT_TI_begin_column(0x06)
    1997                      .dwattr $C$DW$184, DW_AT_TI_max_frame_size(-2)
    1998                      .dwpsn  file "D:/BM1000/sw/drivers/drvic/ldc1612.c",line 835,column 1,is_stmt,address _LDC161x_setMux
    1999              
    2000                      .dwfde $C$DW$CIE, _LDC161x_setMuxConfig
    2001              $C$DW$185       .dwtag  DW_TAG_formal_parameter, DW_AT_name("handle")
    2002                      .dwattr $C$DW$185, DW_AT_TI_symbol_name("_handle")
    2003                      .dwattr $C$DW$185, DW_AT_type(*$C$DW$T$48)
    2004                      .dwattr $C$DW$185, DW_AT_location[DW_OP_reg12]
    2005              $C$DW$186       .dwtag  DW_TAG_formal_parameter, DW_AT_name("drvData")
    2006                      .dwattr $C$DW$186, DW_AT_TI_symbol_name("_drvData")
    2007                      .dwattr $C$DW$186, DW_AT_type(*$C$DW$T$21)
    2008                      .dwattr $C$DW$186, DW_AT_location[DW_OP_reg0]
    2009              
    2010              ;***************************************************************
    2011              ;* FNAME: _LDC161x_setMuxConfig         FR SIZE:   0           *
    2012              ;*                                                             *
    2013              ;* FUNCTION ENVIRONMENT                                        *
    2014              ;*                                                             *
    2015              ;* FUNCTION PROPERTIES                                         *
    2016              ;*                            0 Parameter,  0 Auto,  0 SOE     *
    2017              ;***************************************************************
    2018              
TMS320C2000 Assembler PC v6.2.5 Sat Sep 16 14:55:48 2017

Tools Copyright (c) 1996-2014 Texas Instruments Incorporated
C:\Users\wmj\AppData\Local\Temp\1116811                              PAGE   39

    2019              _LDC161x_setMuxConfig:
    2020              ;* AR4   assigned to _handle
    2021              $C$DW$187       .dwtag  DW_TAG_variable, DW_AT_name("handle")
    2022                      .dwattr $C$DW$187, DW_AT_TI_symbol_name("_handle")
    2023                      .dwattr $C$DW$187, DW_AT_type(*$C$DW$T$111)
    2024                      .dwattr $C$DW$187, DW_AT_location[DW_OP_reg12]
    2025              ;* AL    assigned to _drvData
    2026              $C$DW$188       .dwtag  DW_TAG_variable, DW_AT_name("drvData")
    2027                      .dwattr $C$DW$188, DW_AT_TI_symbol_name("_drvData")
    2028                      .dwattr $C$DW$188, DW_AT_type(*$C$DW$T$138)
    2029                      .dwattr $C$DW$188, DW_AT_location[DW_OP_reg0]
    2030                      .dwcfi  cfa_offset, -2
    2031                      .dwcfi  save_reg_to_mem, 26, 0
    2032                      .dwcfi  save_reg_to_reg, 78, 26
    2033                      .dwpsn  file "D:/BM1000/sw/drivers/drvic/ldc1612.c",line 838,column 3,is_stmt
    2034 000001ad D02D          MOVB      XAR0,#45              ; [CPU_] |838| 
    2035 000001ae CDA9          AND       AH,AL,#0x8000         ; [CPU_] |838| 
         000001af 8000 
    2036 000001b0 9794          MOV       *+XAR4[AR0],AH        ; [CPU_] |838| 
    2037                      .dwpsn  file "D:/BM1000/sw/drivers/drvic/ldc1612.c",line 839,column 3,is_stmt
    2038 000001b1 D02E          MOVB      XAR0,#46              ; [CPU_] |839| 
    2039 000001b2 CDA9          AND       AH,AL,#0x2000         ; [CPU_] |839| 
         000001b3 2000 
    2040 000001b4 9794          MOV       *+XAR4[AR0],AH        ; [CPU_] |839| 
    2041                      .dwpsn  file "D:/BM1000/sw/drivers/drvic/ldc1612.c",line 840,column 3,is_stmt
    2042 000001b5 D02F          MOVB      XAR0,#47              ; [CPU_] |840| 
    2043 000001b6 CDA9          AND       AH,AL,#0x4000         ; [CPU_] |840| 
         000001b7 4000 
    2044 000001b8 9794          MOV       *+XAR4[AR0],AH        ; [CPU_] |840| 
    2045                      .dwpsn  file "D:/BM1000/sw/drivers/drvic/ldc1612.c",line 841,column 3,is_stmt
    2046 000001b9 D030          MOVB      XAR0,#48              ; [CPU_] |841| 
    2047 000001ba CDA9          AND       AH,AL,#0x0001         ; [CPU_] |841| 
         000001bb 0001 
    2048 000001bc 9794          MOV       *+XAR4[AR0],AH        ; [CPU_] |841| 
    2049                      .dwpsn  file "D:/BM1000/sw/drivers/drvic/ldc1612.c",line 842,column 3,is_stmt
    2050 000001bd CDA9          AND       AH,AL,#0x0002         ; [CPU_] |842| 
         000001be 0002 
    2051 000001bf D031          MOVB      XAR0,#49              ; [CPU_] |842| 
    2052                      .dwpsn  file "D:/BM1000/sw/drivers/drvic/ldc1612.c",line 843,column 3,is_stmt
    2053 000001c0 9004          ANDB      AL,#4                 ; [CPU_] |843| 
    2054                      .dwpsn  file "D:/BM1000/sw/drivers/drvic/ldc1612.c",line 842,column 3,is_stmt
    2055 000001c1 9794          MOV       *+XAR4[AR0],AH        ; [CPU_] |842| 
    2056                      .dwpsn  file "D:/BM1000/sw/drivers/drvic/ldc1612.c",line 843,column 3,is_stmt
    2057 000001c2 D032          MOVB      XAR0,#50              ; [CPU_] |843| 
    2058 000001c3 9694          MOV       *+XAR4[AR0],AL        ; [CPU_] |843| 
    2059              $C$DW$189       .dwtag  DW_TAG_TI_branch
    2060                      .dwattr $C$DW$189, DW_AT_low_pc(0x00)
    2061                      .dwattr $C$DW$189, DW_AT_TI_return
    2062 000001c4 0006          LRETR     ; [CPU_] 
    2063                      ; return occurs ; [] 
    2064                      .dwattr $C$DW$184, DW_AT_TI_end_file("D:/BM1000/sw/drivers/drvic/ldc1612.c")
    2065                      .dwattr $C$DW$184, DW_AT_TI_end_line(0x34e)
    2066                      .dwattr $C$DW$184, DW_AT_TI_end_column(0x01)
    2067                      .dwendentry
    2068                      .dwendtag $C$DW$184
TMS320C2000 Assembler PC v6.2.5 Sat Sep 16 14:55:48 2017

Tools Copyright (c) 1996-2014 Texas Instruments Incorporated
C:\Users\wmj\AppData\Local\Temp\1116811                              PAGE   40

    2069              
    2070 000001c5               .sect   ".text"
    2071                      .clink
    2072                      .global _LDC161x_setI2cHandle
    2073              
    2074              $C$DW$190       .dwtag  DW_TAG_subprogram, DW_AT_name("LDC161x_setI2cHandle")
    2075                      .dwattr $C$DW$190, DW_AT_low_pc(_LDC161x_setI2cHandle)
    2076                      .dwattr $C$DW$190, DW_AT_high_pc(0x00)
    2077                      .dwattr $C$DW$190, DW_AT_TI_symbol_name("_LDC161x_setI2cHandle")
    2078                      .dwattr $C$DW$190, DW_AT_external
    2079                      .dwattr $C$DW$190, DW_AT_TI_begin_file("D:/BM1000/sw/drivers/drvic/ldc1612.c")
    2080                      .dwattr $C$DW$190, DW_AT_TI_begin_line(0x4ba)
    2081                      .dwattr $C$DW$190, DW_AT_TI_begin_column(0x06)
    2082                      .dwattr $C$DW$190, DW_AT_TI_max_frame_size(-2)
    2083                      .dwpsn  file "D:/BM1000/sw/drivers/drvic/ldc1612.c",line 1211,column 1,is_stmt,address _LDC161x_setI2
    2084              
    2085                      .dwfde $C$DW$CIE, _LDC161x_setI2cHandle
    2086              $C$DW$191       .dwtag  DW_TAG_formal_parameter, DW_AT_name("handle")
    2087                      .dwattr $C$DW$191, DW_AT_TI_symbol_name("_handle")
    2088                      .dwattr $C$DW$191, DW_AT_type(*$C$DW$T$122)
    2089                      .dwattr $C$DW$191, DW_AT_location[DW_OP_reg12]
    2090              $C$DW$192       .dwtag  DW_TAG_formal_parameter, DW_AT_name("i2cHandle")
    2091                      .dwattr $C$DW$192, DW_AT_TI_symbol_name("_i2cHandle")
    2092                      .dwattr $C$DW$192, DW_AT_type(*$C$DW$T$44)
    2093                      .dwattr $C$DW$192, DW_AT_location[DW_OP_reg14]
    2094              
    2095              ;***************************************************************
    2096              ;* FNAME: _LDC161x_setI2cHandle         FR SIZE:   0           *
    2097              ;*                                                             *
    2098              ;* FUNCTION ENVIRONMENT                                        *
    2099              ;*                                                             *
    2100              ;* FUNCTION PROPERTIES                                         *
    2101              ;*                            0 Parameter,  0 Auto,  0 SOE     *
    2102              ;***************************************************************
    2103              
    2104              _LDC161x_setI2cHandle:
    2105              ;* AR4   assigned to _handle
    2106              $C$DW$193       .dwtag  DW_TAG_variable, DW_AT_name("handle")
    2107                      .dwattr $C$DW$193, DW_AT_TI_symbol_name("_handle")
    2108                      .dwattr $C$DW$193, DW_AT_type(*$C$DW$T$123)
    2109                      .dwattr $C$DW$193, DW_AT_location[DW_OP_reg12]
    2110              ;* AR5   assigned to _i2cHandle
    2111              $C$DW$194       .dwtag  DW_TAG_variable, DW_AT_name("i2cHandle")
    2112                      .dwattr $C$DW$194, DW_AT_TI_symbol_name("_i2cHandle")
    2113                      .dwattr $C$DW$194, DW_AT_type(*$C$DW$T$109)
    2114                      .dwattr $C$DW$194, DW_AT_location[DW_OP_reg14]
    2115                      .dwcfi  cfa_offset, -2
    2116                      .dwcfi  save_reg_to_mem, 26, 0
    2117                      .dwcfi  save_reg_to_reg, 78, 26
    2118                      .dwpsn  file "D:/BM1000/sw/drivers/drvic/ldc1612.c",line 1214,column 3,is_stmt
    2119 000001c5 A0C4          MOVL      *+XAR4[0],XAR5        ; [CPU_] |1214| 
    2120              $C$DW$195       .dwtag  DW_TAG_TI_branch
    2121                      .dwattr $C$DW$195, DW_AT_low_pc(0x00)
    2122                      .dwattr $C$DW$195, DW_AT_TI_return
    2123 000001c6 0006          LRETR     ; [CPU_] 
TMS320C2000 Assembler PC v6.2.5 Sat Sep 16 14:55:48 2017

Tools Copyright (c) 1996-2014 Texas Instruments Incorporated
C:\Users\wmj\AppData\Local\Temp\1116811                              PAGE   41

    2124                      ; return occurs ; [] 
    2125                      .dwattr $C$DW$190, DW_AT_TI_end_file("D:/BM1000/sw/drivers/drvic/ldc1612.c")
    2126                      .dwattr $C$DW$190, DW_AT_TI_end_line(0x4c2)
    2127                      .dwattr $C$DW$190, DW_AT_TI_end_column(0x01)
    2128                      .dwendentry
    2129                      .dwendtag $C$DW$190
    2130              
    2131 000001c7               .sect   ".text"
    2132                      .clink
    2133                      .global _LDC161x_setGpioHandle
    2134              
    2135              $C$DW$196       .dwtag  DW_TAG_subprogram, DW_AT_name("LDC161x_setGpioHandle")
    2136                      .dwattr $C$DW$196, DW_AT_low_pc(_LDC161x_setGpioHandle)
    2137                      .dwattr $C$DW$196, DW_AT_high_pc(0x00)
    2138                      .dwattr $C$DW$196, DW_AT_TI_symbol_name("_LDC161x_setGpioHandle")
    2139                      .dwattr $C$DW$196, DW_AT_external
    2140                      .dwattr $C$DW$196, DW_AT_TI_begin_file("D:/BM1000/sw/drivers/drvic/ldc1612.c")
    2141                      .dwattr $C$DW$196, DW_AT_TI_begin_line(0x4c4)
    2142                      .dwattr $C$DW$196, DW_AT_TI_begin_column(0x06)
    2143                      .dwattr $C$DW$196, DW_AT_TI_max_frame_size(-2)
    2144                      .dwpsn  file "D:/BM1000/sw/drivers/drvic/ldc1612.c",line 1221,column 1,is_stmt,address _LDC161x_setGp
    2145              
    2146                      .dwfde $C$DW$CIE, _LDC161x_setGpioHandle
    2147              $C$DW$197       .dwtag  DW_TAG_formal_parameter, DW_AT_name("handle")
    2148                      .dwattr $C$DW$197, DW_AT_TI_symbol_name("_handle")
    2149                      .dwattr $C$DW$197, DW_AT_type(*$C$DW$T$122)
    2150                      .dwattr $C$DW$197, DW_AT_location[DW_OP_reg12]
    2151              $C$DW$198       .dwtag  DW_TAG_formal_parameter, DW_AT_name("gpioHandle")
    2152                      .dwattr $C$DW$198, DW_AT_TI_symbol_name("_gpioHandle")
    2153                      .dwattr $C$DW$198, DW_AT_type(*$C$DW$T$46)
    2154                      .dwattr $C$DW$198, DW_AT_location[DW_OP_reg14]
    2155              
    2156              ;***************************************************************
    2157              ;* FNAME: _LDC161x_setGpioHandle        FR SIZE:   0           *
    2158              ;*                                                             *
    2159              ;* FUNCTION ENVIRONMENT                                        *
    2160              ;*                                                             *
    2161              ;* FUNCTION PROPERTIES                                         *
    2162              ;*                            0 Parameter,  0 Auto,  0 SOE     *
    2163              ;***************************************************************
    2164              
    2165              _LDC161x_setGpioHandle:
    2166              ;* AR4   assigned to _handle
    2167              $C$DW$199       .dwtag  DW_TAG_variable, DW_AT_name("handle")
    2168                      .dwattr $C$DW$199, DW_AT_TI_symbol_name("_handle")
    2169                      .dwattr $C$DW$199, DW_AT_type(*$C$DW$T$123)
    2170                      .dwattr $C$DW$199, DW_AT_location[DW_OP_reg12]
    2171              ;* AR5   assigned to _gpioHandle
    2172              $C$DW$200       .dwtag  DW_TAG_variable, DW_AT_name("gpioHandle")
    2173                      .dwattr $C$DW$200, DW_AT_TI_symbol_name("_gpioHandle")
    2174                      .dwattr $C$DW$200, DW_AT_type(*$C$DW$T$118)
    2175                      .dwattr $C$DW$200, DW_AT_location[DW_OP_reg14]
    2176                      .dwcfi  cfa_offset, -2
    2177                      .dwcfi  save_reg_to_mem, 26, 0
    2178                      .dwcfi  save_reg_to_reg, 78, 26
TMS320C2000 Assembler PC v6.2.5 Sat Sep 16 14:55:48 2017

Tools Copyright (c) 1996-2014 Texas Instruments Incorporated
C:\Users\wmj\AppData\Local\Temp\1116811                              PAGE   42

    2179                      .dwpsn  file "D:/BM1000/sw/drivers/drvic/ldc1612.c",line 1224,column 3,is_stmt
    2180 000001c7 A0D4          MOVL      *+XAR4[2],XAR5        ; [CPU_] |1224| 
    2181              $C$DW$201       .dwtag  DW_TAG_TI_branch
    2182                      .dwattr $C$DW$201, DW_AT_low_pc(0x00)
    2183                      .dwattr $C$DW$201, DW_AT_TI_return
    2184 000001c8 0006          LRETR     ; [CPU_] 
    2185                      ; return occurs ; [] 
    2186                      .dwattr $C$DW$196, DW_AT_TI_end_file("D:/BM1000/sw/drivers/drvic/ldc1612.c")
    2187                      .dwattr $C$DW$196, DW_AT_TI_end_line(0x4cc)
    2188                      .dwattr $C$DW$196, DW_AT_TI_end_column(0x01)
    2189                      .dwendentry
    2190                      .dwendtag $C$DW$196
    2191              
    2192 000001c9               .sect   ".text"
    2193                      .clink
    2194                      .global _LDC161x_setErrors
    2195              
    2196              $C$DW$202       .dwtag  DW_TAG_subprogram, DW_AT_name("LDC161x_setErrors")
    2197                      .dwattr $C$DW$202, DW_AT_low_pc(_LDC161x_setErrors)
    2198                      .dwattr $C$DW$202, DW_AT_high_pc(0x00)
    2199                      .dwattr $C$DW$202, DW_AT_TI_symbol_name("_LDC161x_setErrors")
    2200                      .dwattr $C$DW$202, DW_AT_external
    2201                      .dwattr $C$DW$202, DW_AT_TI_begin_file("D:/BM1000/sw/drivers/drvic/ldc1612.c")
    2202                      .dwattr $C$DW$202, DW_AT_TI_begin_line(0x31d)
    2203                      .dwattr $C$DW$202, DW_AT_TI_begin_column(0x06)
    2204                      .dwattr $C$DW$202, DW_AT_TI_max_frame_size(-2)
    2205                      .dwpsn  file "D:/BM1000/sw/drivers/drvic/ldc1612.c",line 798,column 1,is_stmt,address _LDC161x_setErr
    2206              
    2207                      .dwfde $C$DW$CIE, _LDC161x_setErrors
    2208              $C$DW$203       .dwtag  DW_TAG_formal_parameter, DW_AT_name("handle")
    2209                      .dwattr $C$DW$203, DW_AT_TI_symbol_name("_handle")
    2210                      .dwattr $C$DW$203, DW_AT_type(*$C$DW$T$48)
    2211                      .dwattr $C$DW$203, DW_AT_location[DW_OP_reg12]
    2212              $C$DW$204       .dwtag  DW_TAG_formal_parameter, DW_AT_name("drvData")
    2213                      .dwattr $C$DW$204, DW_AT_TI_symbol_name("_drvData")
    2214                      .dwattr $C$DW$204, DW_AT_type(*$C$DW$T$21)
    2215                      .dwattr $C$DW$204, DW_AT_location[DW_OP_reg0]
    2216              
    2217              ;***************************************************************
    2218              ;* FNAME: _LDC161x_setErrors            FR SIZE:   0           *
    2219              ;*                                                             *
    2220              ;* FUNCTION ENVIRONMENT                                        *
    2221              ;*                                                             *
    2222              ;* FUNCTION PROPERTIES                                         *
    2223              ;*                            0 Parameter,  0 Auto,  0 SOE     *
    2224              ;***************************************************************
    2225              
    2226              _LDC161x_setErrors:
    2227              ;* AR4   assigned to _handle
    2228              $C$DW$205       .dwtag  DW_TAG_variable, DW_AT_name("handle")
    2229                      .dwattr $C$DW$205, DW_AT_TI_symbol_name("_handle")
    2230                      .dwattr $C$DW$205, DW_AT_type(*$C$DW$T$111)
    2231                      .dwattr $C$DW$205, DW_AT_location[DW_OP_reg12]
    2232              ;* AL    assigned to _drvData
    2233              $C$DW$206       .dwtag  DW_TAG_variable, DW_AT_name("drvData")
TMS320C2000 Assembler PC v6.2.5 Sat Sep 16 14:55:48 2017

Tools Copyright (c) 1996-2014 Texas Instruments Incorporated
C:\Users\wmj\AppData\Local\Temp\1116811                              PAGE   43

    2234                      .dwattr $C$DW$206, DW_AT_TI_symbol_name("_drvData")
    2235                      .dwattr $C$DW$206, DW_AT_type(*$C$DW$T$138)
    2236                      .dwattr $C$DW$206, DW_AT_location[DW_OP_reg0]
    2237                      .dwcfi  cfa_offset, -2
    2238                      .dwcfi  save_reg_to_mem, 26, 0
    2239                      .dwcfi  save_reg_to_reg, 78, 26
    2240                      .dwpsn  file "D:/BM1000/sw/drivers/drvic/ldc1612.c",line 801,column 3,is_stmt
    2241 000001c9 D018          MOVB      XAR0,#24              ; [CPU_] |801| 
    2242 000001ca CDA9          AND       AH,AL,#0x8000         ; [CPU_] |801| 
         000001cb 8000 
    2243 000001cc 9794          MOV       *+XAR4[AR0],AH        ; [CPU_] |801| 
    2244                      .dwpsn  file "D:/BM1000/sw/drivers/drvic/ldc1612.c",line 802,column 3,is_stmt
    2245 000001cd D019          MOVB      XAR0,#25              ; [CPU_] |802| 
    2246 000001ce CDA9          AND       AH,AL,#0x4000         ; [CPU_] |802| 
         000001cf 4000 
    2247 000001d0 9794          MOV       *+XAR4[AR0],AH        ; [CPU_] |802| 
    2248                      .dwpsn  file "D:/BM1000/sw/drivers/drvic/ldc1612.c",line 803,column 3,is_stmt
    2249 000001d1 D01A          MOVB      XAR0,#26              ; [CPU_] |803| 
    2250 000001d2 CDA9          AND       AH,AL,#0x2000         ; [CPU_] |803| 
         000001d3 2000 
    2251 000001d4 9794          MOV       *+XAR4[AR0],AH        ; [CPU_] |803| 
    2252                      .dwpsn  file "D:/BM1000/sw/drivers/drvic/ldc1612.c",line 804,column 3,is_stmt
    2253 000001d5 D01B          MOVB      XAR0,#27              ; [CPU_] |804| 
    2254 000001d6 CDA9          AND       AH,AL,#0x1000         ; [CPU_] |804| 
         000001d7 1000 
    2255 000001d8 9794          MOV       *+XAR4[AR0],AH        ; [CPU_] |804| 
    2256                      .dwpsn  file "D:/BM1000/sw/drivers/drvic/ldc1612.c",line 805,column 3,is_stmt
    2257 000001d9 D01C          MOVB      XAR0,#28              ; [CPU_] |805| 
    2258 000001da CDA9          AND       AH,AL,#0x0800         ; [CPU_] |805| 
         000001db 0800 
    2259 000001dc 9794          MOV       *+XAR4[AR0],AH        ; [CPU_] |805| 
    2260                      .dwpsn  file "D:/BM1000/sw/drivers/drvic/ldc1612.c",line 806,column 3,is_stmt
    2261 000001dd D01D          MOVB      XAR0,#29              ; [CPU_] |806| 
    2262 000001de CDA9          AND       AH,AL,#0x0080         ; [CPU_] |806| 
         000001df 0080 
    2263 000001e0 9794          MOV       *+XAR4[AR0],AH        ; [CPU_] |806| 
    2264                      .dwpsn  file "D:/BM1000/sw/drivers/drvic/ldc1612.c",line 807,column 3,is_stmt
    2265 000001e1 D01E          MOVB      XAR0,#30              ; [CPU_] |807| 
    2266 000001e2 CDA9          AND       AH,AL,#0x0040         ; [CPU_] |807| 
         000001e3 0040 
    2267 000001e4 9794          MOV       *+XAR4[AR0],AH        ; [CPU_] |807| 
    2268                      .dwpsn  file "D:/BM1000/sw/drivers/drvic/ldc1612.c",line 808,column 3,is_stmt
    2269 000001e5 D01F          MOVB      XAR0,#31              ; [CPU_] |808| 
    2270 000001e6 CDA9          AND       AH,AL,#0x0020         ; [CPU_] |808| 
         000001e7 0020 
    2271 000001e8 9794          MOV       *+XAR4[AR0],AH        ; [CPU_] |808| 
    2272                      .dwpsn  file "D:/BM1000/sw/drivers/drvic/ldc1612.c",line 809,column 3,is_stmt
    2273 000001e9 D020          MOVB      XAR0,#32              ; [CPU_] |809| 
    2274 000001ea CDA9          AND       AH,AL,#0x0010         ; [CPU_] |809| 
         000001eb 0010 
    2275 000001ec 9794          MOV       *+XAR4[AR0],AH        ; [CPU_] |809| 
    2276                      .dwpsn  file "D:/BM1000/sw/drivers/drvic/ldc1612.c",line 810,column 3,is_stmt
    2277 000001ed D021          MOVB      XAR0,#33              ; [CPU_] |810| 
    2278 000001ee CDA9          AND       AH,AL,#0x0008         ; [CPU_] |810| 
         000001ef 0008 
TMS320C2000 Assembler PC v6.2.5 Sat Sep 16 14:55:48 2017

Tools Copyright (c) 1996-2014 Texas Instruments Incorporated
C:\Users\wmj\AppData\Local\Temp\1116811                              PAGE   44

    2279 000001f0 9794          MOV       *+XAR4[AR0],AH        ; [CPU_] |810| 
    2280                      .dwpsn  file "D:/BM1000/sw/drivers/drvic/ldc1612.c",line 811,column 3,is_stmt
    2281 000001f1 CDA9          AND       AH,AL,#0x0004         ; [CPU_] |811| 
         000001f2 0004 
    2282 000001f3 D022          MOVB      XAR0,#34              ; [CPU_] |811| 
    2283                      .dwpsn  file "D:/BM1000/sw/drivers/drvic/ldc1612.c",line 812,column 3,is_stmt
    2284 000001f4 9001          ANDB      AL,#1                 ; [CPU_] |812| 
    2285                      .dwpsn  file "D:/BM1000/sw/drivers/drvic/ldc1612.c",line 811,column 3,is_stmt
    2286 000001f5 9794          MOV       *+XAR4[AR0],AH        ; [CPU_] |811| 
    2287                      .dwpsn  file "D:/BM1000/sw/drivers/drvic/ldc1612.c",line 812,column 3,is_stmt
    2288 000001f6 D023          MOVB      XAR0,#35              ; [CPU_] |812| 
    2289 000001f7 9694          MOV       *+XAR4[AR0],AL        ; [CPU_] |812| 
    2290              $C$DW$207       .dwtag  DW_TAG_TI_branch
    2291                      .dwattr $C$DW$207, DW_AT_low_pc(0x00)
    2292                      .dwattr $C$DW$207, DW_AT_TI_return
    2293 000001f8 0006          LRETR     ; [CPU_] 
    2294                      ; return occurs ; [] 
    2295                      .dwattr $C$DW$202, DW_AT_TI_end_file("D:/BM1000/sw/drivers/drvic/ldc1612.c")
    2296                      .dwattr $C$DW$202, DW_AT_TI_end_line(0x32f)
    2297                      .dwattr $C$DW$202, DW_AT_TI_end_column(0x01)
    2298                      .dwendentry
    2299                      .dwendtag $C$DW$202
    2300              
    2301 000001f9               .sect   ".text"
    2302                      .clink
    2303                      .global _LDC161x_setConfig
    2304              
    2305              $C$DW$208       .dwtag  DW_TAG_subprogram, DW_AT_name("LDC161x_setConfig")
    2306                      .dwattr $C$DW$208, DW_AT_low_pc(_LDC161x_setConfig)
    2307                      .dwattr $C$DW$208, DW_AT_high_pc(0x00)
    2308                      .dwattr $C$DW$208, DW_AT_TI_symbol_name("_LDC161x_setConfig")
    2309                      .dwattr $C$DW$208, DW_AT_external
    2310                      .dwattr $C$DW$208, DW_AT_TI_begin_file("D:/BM1000/sw/drivers/drvic/ldc1612.c")
    2311                      .dwattr $C$DW$208, DW_AT_TI_begin_line(0x331)
    2312                      .dwattr $C$DW$208, DW_AT_TI_begin_column(0x06)
    2313                      .dwattr $C$DW$208, DW_AT_TI_max_frame_size(-2)
    2314                      .dwpsn  file "D:/BM1000/sw/drivers/drvic/ldc1612.c",line 818,column 1,is_stmt,address _LDC161x_setCon
    2315              
    2316                      .dwfde $C$DW$CIE, _LDC161x_setConfig
    2317              $C$DW$209       .dwtag  DW_TAG_formal_parameter, DW_AT_name("handle")
    2318                      .dwattr $C$DW$209, DW_AT_TI_symbol_name("_handle")
    2319                      .dwattr $C$DW$209, DW_AT_type(*$C$DW$T$48)
    2320                      .dwattr $C$DW$209, DW_AT_location[DW_OP_reg12]
    2321              $C$DW$210       .dwtag  DW_TAG_formal_parameter, DW_AT_name("drvData")
    2322                      .dwattr $C$DW$210, DW_AT_TI_symbol_name("_drvData")
    2323                      .dwattr $C$DW$210, DW_AT_type(*$C$DW$T$21)
    2324                      .dwattr $C$DW$210, DW_AT_location[DW_OP_reg0]
    2325              
    2326              ;***************************************************************
    2327              ;* FNAME: _LDC161x_setConfig            FR SIZE:   0           *
    2328              ;*                                                             *
    2329              ;* FUNCTION ENVIRONMENT                                        *
    2330              ;*                                                             *
    2331              ;* FUNCTION PROPERTIES                                         *
    2332              ;*                            0 Parameter,  0 Auto,  0 SOE     *
TMS320C2000 Assembler PC v6.2.5 Sat Sep 16 14:55:48 2017

Tools Copyright (c) 1996-2014 Texas Instruments Incorporated
C:\Users\wmj\AppData\Local\Temp\1116811                              PAGE   45

    2333              ;***************************************************************
    2334              
    2335              _LDC161x_setConfig:
    2336              ;* AR4   assigned to _handle
    2337              $C$DW$211       .dwtag  DW_TAG_variable, DW_AT_name("handle")
    2338                      .dwattr $C$DW$211, DW_AT_TI_symbol_name("_handle")
    2339                      .dwattr $C$DW$211, DW_AT_type(*$C$DW$T$111)
    2340                      .dwattr $C$DW$211, DW_AT_location[DW_OP_reg12]
    2341              ;* AL    assigned to _drvData
    2342              $C$DW$212       .dwtag  DW_TAG_variable, DW_AT_name("drvData")
    2343                      .dwattr $C$DW$212, DW_AT_TI_symbol_name("_drvData")
    2344                      .dwattr $C$DW$212, DW_AT_type(*$C$DW$T$138)
    2345                      .dwattr $C$DW$212, DW_AT_location[DW_OP_reg0]
    2346                      .dwcfi  cfa_offset, -2
    2347                      .dwcfi  save_reg_to_mem, 26, 0
    2348                      .dwcfi  save_reg_to_reg, 78, 26
    2349                      .dwpsn  file "D:/BM1000/sw/drivers/drvic/ldc1612.c",line 821,column 3,is_stmt
    2350 000001f9 D024          MOVB      XAR0,#36              ; [CPU_] |821| 
    2351 000001fa CDA9          AND       AH,AL,#0x4000         ; [CPU_] |821| 
         000001fb 4000 
    2352 000001fc 9794          MOV       *+XAR4[AR0],AH        ; [CPU_] |821| 
    2353                      .dwpsn  file "D:/BM1000/sw/drivers/drvic/ldc1612.c",line 822,column 3,is_stmt
    2354 000001fd D025          MOVB      XAR0,#37              ; [CPU_] |822| 
    2355 000001fe CDA9          AND       AH,AL,#0x8000         ; [CPU_] |822| 
         000001ff 8000 
    2356 00000200 9794          MOV       *+XAR4[AR0],AH        ; [CPU_] |822| 
    2357                      .dwpsn  file "D:/BM1000/sw/drivers/drvic/ldc1612.c",line 823,column 3,is_stmt
    2358 00000201 D026          MOVB      XAR0,#38              ; [CPU_] |823| 
    2359 00000202 CDA9          AND       AH,AL,#0x2000         ; [CPU_] |823| 
         00000203 2000 
    2360 00000204 9794          MOV       *+XAR4[AR0],AH        ; [CPU_] |823| 
    2361                      .dwpsn  file "D:/BM1000/sw/drivers/drvic/ldc1612.c",line 824,column 3,is_stmt
    2362 00000205 D027          MOVB      XAR0,#39              ; [CPU_] |824| 
    2363 00000206 CDA9          AND       AH,AL,#0x1000         ; [CPU_] |824| 
         00000207 1000 
    2364 00000208 9794          MOV       *+XAR4[AR0],AH        ; [CPU_] |824| 
    2365                      .dwpsn  file "D:/BM1000/sw/drivers/drvic/ldc1612.c",line 825,column 3,is_stmt
    2366 00000209 D028          MOVB      XAR0,#40              ; [CPU_] |825| 
    2367 0000020a CDA9          AND       AH,AL,#0x0800         ; [CPU_] |825| 
         0000020b 0800 
    2368 0000020c 9794          MOV       *+XAR4[AR0],AH        ; [CPU_] |825| 
    2369                      .dwpsn  file "D:/BM1000/sw/drivers/drvic/ldc1612.c",line 826,column 3,is_stmt
    2370 0000020d D029          MOVB      XAR0,#41              ; [CPU_] |826| 
    2371 0000020e CDA9          AND       AH,AL,#0x0400         ; [CPU_] |826| 
         0000020f 0400 
    2372 00000210 9794          MOV       *+XAR4[AR0],AH        ; [CPU_] |826| 
    2373                      .dwpsn  file "D:/BM1000/sw/drivers/drvic/ldc1612.c",line 827,column 3,is_stmt
    2374 00000211 D02A          MOVB      XAR0,#42              ; [CPU_] |827| 
    2375 00000212 CDA9          AND       AH,AL,#0x0200         ; [CPU_] |827| 
         00000213 0200 
    2376 00000214 9794          MOV       *+XAR4[AR0],AH        ; [CPU_] |827| 
    2377                      .dwpsn  file "D:/BM1000/sw/drivers/drvic/ldc1612.c",line 828,column 3,is_stmt
    2378 00000215 CDA9          AND       AH,AL,#0x0080         ; [CPU_] |828| 
         00000216 0080 
    2379 00000217 D02B          MOVB      XAR0,#43              ; [CPU_] |828| 
TMS320C2000 Assembler PC v6.2.5 Sat Sep 16 14:55:48 2017

Tools Copyright (c) 1996-2014 Texas Instruments Incorporated
C:\Users\wmj\AppData\Local\Temp\1116811                              PAGE   46

    2380                      .dwpsn  file "D:/BM1000/sw/drivers/drvic/ldc1612.c",line 829,column 3,is_stmt
    2381 00000218 9040          ANDB      AL,#64                ; [CPU_] |829| 
    2382                      .dwpsn  file "D:/BM1000/sw/drivers/drvic/ldc1612.c",line 828,column 3,is_stmt
    2383 00000219 9794          MOV       *+XAR4[AR0],AH        ; [CPU_] |828| 
    2384                      .dwpsn  file "D:/BM1000/sw/drivers/drvic/ldc1612.c",line 829,column 3,is_stmt
    2385 0000021a D02C          MOVB      XAR0,#44              ; [CPU_] |829| 
    2386 0000021b 9694          MOV       *+XAR4[AR0],AL        ; [CPU_] |829| 
    2387              $C$DW$213       .dwtag  DW_TAG_TI_branch
    2388                      .dwattr $C$DW$213, DW_AT_low_pc(0x00)
    2389                      .dwattr $C$DW$213, DW_AT_TI_return
    2390 0000021c 0006          LRETR     ; [CPU_] 
    2391                      ; return occurs ; [] 
    2392                      .dwattr $C$DW$208, DW_AT_TI_end_file("D:/BM1000/sw/drivers/drvic/ldc1612.c")
    2393                      .dwattr $C$DW$208, DW_AT_TI_end_line(0x340)
    2394                      .dwattr $C$DW$208, DW_AT_TI_end_column(0x01)
    2395                      .dwendentry
    2396                      .dwendtag $C$DW$208
    2397              
    2398 0000021d               .sect   ".text"
    2399                      .clink
    2400                      .global _LDC161x_setClkDivs
    2401              
    2402              $C$DW$214       .dwtag  DW_TAG_subprogram, DW_AT_name("LDC161x_setClkDivs")
    2403                      .dwattr $C$DW$214, DW_AT_low_pc(_LDC161x_setClkDivs)
    2404                      .dwattr $C$DW$214, DW_AT_high_pc(0x00)
    2405                      .dwattr $C$DW$214, DW_AT_TI_symbol_name("_LDC161x_setClkDivs")
    2406                      .dwattr $C$DW$214, DW_AT_external
    2407                      .dwattr $C$DW$214, DW_AT_TI_begin_file("D:/BM1000/sw/drivers/drvic/ldc1612.c")
    2408                      .dwattr $C$DW$214, DW_AT_TI_begin_line(0x2e8)
    2409                      .dwattr $C$DW$214, DW_AT_TI_begin_column(0x06)
    2410                      .dwattr $C$DW$214, DW_AT_TI_max_frame_size(-2)
    2411                      .dwpsn  file "D:/BM1000/sw/drivers/drvic/ldc1612.c",line 745,column 1,is_stmt,address _LDC161x_setClk
    2412              
    2413                      .dwfde $C$DW$CIE, _LDC161x_setClkDivs
    2414              $C$DW$215       .dwtag  DW_TAG_formal_parameter, DW_AT_name("handle")
    2415                      .dwattr $C$DW$215, DW_AT_TI_symbol_name("_handle")
    2416                      .dwattr $C$DW$215, DW_AT_type(*$C$DW$T$48)
    2417                      .dwattr $C$DW$215, DW_AT_location[DW_OP_reg12]
    2418              $C$DW$216       .dwtag  DW_TAG_formal_parameter, DW_AT_name("Channel")
    2419                      .dwattr $C$DW$216, DW_AT_TI_symbol_name("_Channel")
    2420                      .dwattr $C$DW$216, DW_AT_type(*$C$DW$T$138)
    2421                      .dwattr $C$DW$216, DW_AT_location[DW_OP_reg0]
    2422              $C$DW$217       .dwtag  DW_TAG_formal_parameter, DW_AT_name("drvData")
    2423                      .dwattr $C$DW$217, DW_AT_TI_symbol_name("_drvData")
    2424                      .dwattr $C$DW$217, DW_AT_type(*$C$DW$T$21)
    2425                      .dwattr $C$DW$217, DW_AT_location[DW_OP_reg1]
    2426              
    2427              ;***************************************************************
    2428              ;* FNAME: _LDC161x_setClkDivs           FR SIZE:   0           *
    2429              ;*                                                             *
    2430              ;* FUNCTION ENVIRONMENT                                        *
    2431              ;*                                                             *
    2432              ;* FUNCTION PROPERTIES                                         *
    2433              ;*                            0 Parameter,  0 Auto,  0 SOE     *
    2434              ;***************************************************************
TMS320C2000 Assembler PC v6.2.5 Sat Sep 16 14:55:48 2017

Tools Copyright (c) 1996-2014 Texas Instruments Incorporated
C:\Users\wmj\AppData\Local\Temp\1116811                              PAGE   47

    2435              
    2436              _LDC161x_setClkDivs:
    2437              ;* AH    assigned to _drvData
    2438              $C$DW$218       .dwtag  DW_TAG_variable, DW_AT_name("drvData")
    2439                      .dwattr $C$DW$218, DW_AT_TI_symbol_name("_drvData")
    2440                      .dwattr $C$DW$218, DW_AT_type(*$C$DW$T$138)
    2441                      .dwattr $C$DW$218, DW_AT_location[DW_OP_reg1]
    2442              ;* AL    assigned to _Channel
    2443              $C$DW$219       .dwtag  DW_TAG_variable, DW_AT_name("Channel")
    2444                      .dwattr $C$DW$219, DW_AT_TI_symbol_name("_Channel")
    2445                      .dwattr $C$DW$219, DW_AT_type(*$C$DW$T$138)
    2446                      .dwattr $C$DW$219, DW_AT_location[DW_OP_reg0]
    2447              ;* AR4   assigned to _handle
    2448              $C$DW$220       .dwtag  DW_TAG_variable, DW_AT_name("handle")
    2449                      .dwattr $C$DW$220, DW_AT_TI_symbol_name("_handle")
    2450                      .dwattr $C$DW$220, DW_AT_type(*$C$DW$T$111)
    2451                      .dwattr $C$DW$220, DW_AT_location[DW_OP_reg12]
    2452                      .dwcfi  cfa_offset, -2
    2453                      .dwcfi  save_reg_to_mem, 26, 0
    2454                      .dwcfi  save_reg_to_reg, 78, 26
    2455                      .dwpsn  file "D:/BM1000/sw/drivers/drvic/ldc1612.c",line 748,column 3,is_stmt
    2456 0000021d 5200          CMPB      AL,#0                 ; [CPU_] |748| 
    2457 0000021e ED09          BF        $C$L44,NEQ            ; [CPU_] |748| 
    2458                      ; branchcc occurs ; [] |748| 
    2459                      .dwpsn  file "D:/BM1000/sw/drivers/drvic/ldc1612.c",line 752,column 10,is_stmt
    2460 0000021f D009          MOVB      XAR0,#9               ; [CPU_] |752| 
    2461 00000220 CCA8          AND       AL,AH,#0x03ff         ; [CPU_] |752| 
         00000221 03FF 
    2462 00000222 9694          MOV       *+XAR4[AR0],AL        ; [CPU_] |752| 
    2463                      .dwpsn  file "D:/BM1000/sw/drivers/drvic/ldc1612.c",line 753,column 10,is_stmt
    2464 00000223 92A8          MOV       AL,AH                 ; [CPU_] |753| 
    2465 00000224 FFCB          LSR       AL,12                 ; [CPU_] |753| 
    2466 00000225 D00A          MOVB      XAR0,#10              ; [CPU_] |753| 
    2467 00000226 9694          MOV       *+XAR4[AR0],AL        ; [CPU_] |753| 
    2468              $C$L44:    
    2469              $C$DW$221       .dwtag  DW_TAG_TI_branch
    2470                      .dwattr $C$DW$221, DW_AT_low_pc(0x00)
    2471                      .dwattr $C$DW$221, DW_AT_TI_return
    2472 00000227 0006          LRETR     ; [CPU_] 
    2473                      ; return occurs ; [] 
    2474                      .dwattr $C$DW$214, DW_AT_TI_end_file("D:/BM1000/sw/drivers/drvic/ldc1612.c")
    2475                      .dwattr $C$DW$214, DW_AT_TI_end_line(0x306)
    2476                      .dwattr $C$DW$214, DW_AT_TI_end_column(0x01)
    2477                      .dwendentry
    2478                      .dwendtag $C$DW$214
    2479              
    2480 00000228               .sect   ".text"
    2481                      .clink
    2482                      .global _LDC161x_setChData_MSB
    2483              
    2484              $C$DW$222       .dwtag  DW_TAG_subprogram, DW_AT_name("LDC161x_setChData_MSB")
    2485                      .dwattr $C$DW$222, DW_AT_low_pc(_LDC161x_setChData_MSB)
    2486                      .dwattr $C$DW$222, DW_AT_high_pc(0x00)
    2487                      .dwattr $C$DW$222, DW_AT_TI_symbol_name("_LDC161x_setChData_MSB")
    2488                      .dwattr $C$DW$222, DW_AT_external
TMS320C2000 Assembler PC v6.2.5 Sat Sep 16 14:55:48 2017

Tools Copyright (c) 1996-2014 Texas Instruments Incorporated
C:\Users\wmj\AppData\Local\Temp\1116811                              PAGE   48

    2489                      .dwattr $C$DW$222, DW_AT_TI_begin_file("D:/BM1000/sw/drivers/drvic/ldc1612.c")
    2490                      .dwattr $C$DW$222, DW_AT_TI_begin_line(0x253)
    2491                      .dwattr $C$DW$222, DW_AT_TI_begin_column(0x06)
    2492                      .dwattr $C$DW$222, DW_AT_TI_max_frame_size(-2)
    2493                      .dwpsn  file "D:/BM1000/sw/drivers/drvic/ldc1612.c",line 596,column 1,is_stmt,address _LDC161x_setChD
    2494              
    2495                      .dwfde $C$DW$CIE, _LDC161x_setChData_MSB
    2496              $C$DW$223       .dwtag  DW_TAG_formal_parameter, DW_AT_name("handle")
    2497                      .dwattr $C$DW$223, DW_AT_TI_symbol_name("_handle")
    2498                      .dwattr $C$DW$223, DW_AT_type(*$C$DW$T$48)
    2499                      .dwattr $C$DW$223, DW_AT_location[DW_OP_reg12]
    2500              $C$DW$224       .dwtag  DW_TAG_formal_parameter, DW_AT_name("Channel")
    2501                      .dwattr $C$DW$224, DW_AT_TI_symbol_name("_Channel")
    2502                      .dwattr $C$DW$224, DW_AT_type(*$C$DW$T$138)
    2503                      .dwattr $C$DW$224, DW_AT_location[DW_OP_reg0]
    2504              $C$DW$225       .dwtag  DW_TAG_formal_parameter, DW_AT_name("drvData")
    2505                      .dwattr $C$DW$225, DW_AT_TI_symbol_name("_drvData")
    2506                      .dwattr $C$DW$225, DW_AT_type(*$C$DW$T$21)
    2507                      .dwattr $C$DW$225, DW_AT_location[DW_OP_reg1]
    2508              
    2509              ;***************************************************************
    2510              ;* FNAME: _LDC161x_setChData_MSB        FR SIZE:   0           *
    2511              ;*                                                             *
    2512              ;* FUNCTION ENVIRONMENT                                        *
    2513              ;*                                                             *
    2514              ;* FUNCTION PROPERTIES                                         *
    2515              ;*                            0 Parameter,  0 Auto,  0 SOE     *
    2516              ;***************************************************************
    2517              
    2518              _LDC161x_setChData_MSB:
    2519              ;* AL    assigned to $O$C1
    2520              ;* AH    assigned to _drvData
    2521              $C$DW$226       .dwtag  DW_TAG_variable, DW_AT_name("drvData")
    2522                      .dwattr $C$DW$226, DW_AT_TI_symbol_name("_drvData")
    2523                      .dwattr $C$DW$226, DW_AT_type(*$C$DW$T$138)
    2524                      .dwattr $C$DW$226, DW_AT_location[DW_OP_reg1]
    2525              ;* AL    assigned to _Channel
    2526              $C$DW$227       .dwtag  DW_TAG_variable, DW_AT_name("Channel")
    2527                      .dwattr $C$DW$227, DW_AT_TI_symbol_name("_Channel")
    2528                      .dwattr $C$DW$227, DW_AT_type(*$C$DW$T$138)
    2529                      .dwattr $C$DW$227, DW_AT_location[DW_OP_reg0]
    2530              ;* AR4   assigned to _handle
    2531              $C$DW$228       .dwtag  DW_TAG_variable, DW_AT_name("handle")
    2532                      .dwattr $C$DW$228, DW_AT_TI_symbol_name("_handle")
    2533                      .dwattr $C$DW$228, DW_AT_type(*$C$DW$T$111)
    2534                      .dwattr $C$DW$228, DW_AT_location[DW_OP_reg12]
    2535                      .dwcfi  cfa_offset, -2
    2536                      .dwcfi  save_reg_to_mem, 26, 0
    2537                      .dwcfi  save_reg_to_reg, 78, 26
    2538                      .dwpsn  file "D:/BM1000/sw/drivers/drvic/ldc1612.c",line 598,column 3,is_stmt
    2539 00000228 5200          CMPB      AL,#0                 ; [CPU_] |598| 
    2540 00000229 ED0E          BF        $C$L45,NEQ            ; [CPU_] |598| 
    2541                      ; branchcc occurs ; [] |598| 
    2542                      .dwpsn  file "D:/BM1000/sw/drivers/drvic/ldc1612.c",line 602,column 7,is_stmt
    2543 0000022a CCA8          AND       AL,AH,#0x8000         ; [CPU_] |602| 
TMS320C2000 Assembler PC v6.2.5 Sat Sep 16 14:55:48 2017

Tools Copyright (c) 1996-2014 Texas Instruments Incorporated
C:\Users\wmj\AppData\Local\Temp\1116811                              PAGE   49

         0000022b 8000 
    2544 0000022c 96C4          MOV       *+XAR4[0],AL          ; [CPU_] |602| 
    2545                      .dwpsn  file "D:/BM1000/sw/drivers/drvic/ldc1612.c",line 603,column 7,is_stmt
    2546 0000022d CCA8          AND       AL,AH,#0x4000         ; [CPU_] |603| 
         0000022e 4000 
    2547 0000022f 96CC          MOV       *+XAR4[1],AL          ; [CPU_] |603| 
    2548                      .dwpsn  file "D:/BM1000/sw/drivers/drvic/ldc1612.c",line 604,column 7,is_stmt
    2549 00000230 CCA8          AND       AL,AH,#0x2000         ; [CPU_] |604| 
         00000231 2000 
    2550 00000232 96D4          MOV       *+XAR4[2],AL          ; [CPU_] |604| 
    2551                      .dwpsn  file "D:/BM1000/sw/drivers/drvic/ldc1612.c",line 605,column 7,is_stmt
    2552 00000233 96DC          MOV       *+XAR4[3],AL          ; [CPU_] |605| 
    2553                      .dwpsn  file "D:/BM1000/sw/drivers/drvic/ldc1612.c",line 606,column 7,is_stmt
    2554 00000234 CCA8          AND       AL,AH,#0x0fff         ; [CPU_] |606| 
         00000235 0FFF 
    2555 00000236 96E4          MOV       *+XAR4[4],AL          ; [CPU_] |606| 
    2556              $C$L45:    
    2557              $C$DW$229       .dwtag  DW_TAG_TI_branch
    2558                      .dwattr $C$DW$229, DW_AT_low_pc(0x00)
    2559                      .dwattr $C$DW$229, DW_AT_TI_return
    2560 00000237 0006          LRETR     ; [CPU_] 
    2561                      ; return occurs ; [] 
    2562                      .dwattr $C$DW$222, DW_AT_TI_end_file("D:/BM1000/sw/drivers/drvic/ldc1612.c")
    2563                      .dwattr $C$DW$222, DW_AT_TI_end_line(0x27e)
    2564                      .dwattr $C$DW$222, DW_AT_TI_end_column(0x01)
    2565                      .dwendentry
    2566                      .dwendtag $C$DW$222
    2567              
    2568 00000238               .sect   ".text"
    2569                      .clink
    2570                      .global _LDC161x_setChData_LSB
    2571              
    2572              $C$DW$230       .dwtag  DW_TAG_subprogram, DW_AT_name("LDC161x_setChData_LSB")
    2573                      .dwattr $C$DW$230, DW_AT_low_pc(_LDC161x_setChData_LSB)
    2574                      .dwattr $C$DW$230, DW_AT_high_pc(0x00)
    2575                      .dwattr $C$DW$230, DW_AT_TI_symbol_name("_LDC161x_setChData_LSB")
    2576                      .dwattr $C$DW$230, DW_AT_external
    2577                      .dwattr $C$DW$230, DW_AT_TI_begin_file("D:/BM1000/sw/drivers/drvic/ldc1612.c")
    2578                      .dwattr $C$DW$230, DW_AT_TI_begin_line(0x285)
    2579                      .dwattr $C$DW$230, DW_AT_TI_begin_column(0x06)
    2580                      .dwattr $C$DW$230, DW_AT_TI_max_frame_size(-2)
    2581                      .dwpsn  file "D:/BM1000/sw/drivers/drvic/ldc1612.c",line 646,column 1,is_stmt,address _LDC161x_setChD
    2582              
    2583                      .dwfde $C$DW$CIE, _LDC161x_setChData_LSB
    2584              $C$DW$231       .dwtag  DW_TAG_formal_parameter, DW_AT_name("handle")
    2585                      .dwattr $C$DW$231, DW_AT_TI_symbol_name("_handle")
    2586                      .dwattr $C$DW$231, DW_AT_type(*$C$DW$T$48)
    2587                      .dwattr $C$DW$231, DW_AT_location[DW_OP_reg12]
    2588              $C$DW$232       .dwtag  DW_TAG_formal_parameter, DW_AT_name("Channel")
    2589                      .dwattr $C$DW$232, DW_AT_TI_symbol_name("_Channel")
    2590                      .dwattr $C$DW$232, DW_AT_type(*$C$DW$T$138)
    2591                      .dwattr $C$DW$232, DW_AT_location[DW_OP_reg0]
    2592              $C$DW$233       .dwtag  DW_TAG_formal_parameter, DW_AT_name("drvData")
    2593                      .dwattr $C$DW$233, DW_AT_TI_symbol_name("_drvData")
    2594                      .dwattr $C$DW$233, DW_AT_type(*$C$DW$T$21)
TMS320C2000 Assembler PC v6.2.5 Sat Sep 16 14:55:48 2017

Tools Copyright (c) 1996-2014 Texas Instruments Incorporated
C:\Users\wmj\AppData\Local\Temp\1116811                              PAGE   50

    2595                      .dwattr $C$DW$233, DW_AT_location[DW_OP_reg1]
    2596              
    2597              ;***************************************************************
    2598              ;* FNAME: _LDC161x_setChData_LSB        FR SIZE:   0           *
    2599              ;*                                                             *
    2600              ;* FUNCTION ENVIRONMENT                                        *
    2601              ;*                                                             *
    2602              ;* FUNCTION PROPERTIES                                         *
    2603              ;*                            0 Parameter,  0 Auto,  0 SOE     *
    2604              ;***************************************************************
    2605              
    2606              _LDC161x_setChData_LSB:
    2607              ;* AH    assigned to _drvData
    2608              $C$DW$234       .dwtag  DW_TAG_variable, DW_AT_name("drvData")
    2609                      .dwattr $C$DW$234, DW_AT_TI_symbol_name("_drvData")
    2610                      .dwattr $C$DW$234, DW_AT_type(*$C$DW$T$138)
    2611                      .dwattr $C$DW$234, DW_AT_location[DW_OP_reg1]
    2612              ;* AL    assigned to _Channel
    2613              $C$DW$235       .dwtag  DW_TAG_variable, DW_AT_name("Channel")
    2614                      .dwattr $C$DW$235, DW_AT_TI_symbol_name("_Channel")
    2615                      .dwattr $C$DW$235, DW_AT_type(*$C$DW$T$138)
    2616                      .dwattr $C$DW$235, DW_AT_location[DW_OP_reg0]
    2617              ;* AR4   assigned to _handle
    2618              $C$DW$236       .dwtag  DW_TAG_variable, DW_AT_name("handle")
    2619                      .dwattr $C$DW$236, DW_AT_TI_symbol_name("_handle")
    2620                      .dwattr $C$DW$236, DW_AT_type(*$C$DW$T$111)
    2621                      .dwattr $C$DW$236, DW_AT_location[DW_OP_reg12]
    2622                      .dwcfi  cfa_offset, -2
    2623                      .dwcfi  save_reg_to_mem, 26, 0
    2624                      .dwcfi  save_reg_to_reg, 78, 26
    2625                      .dwpsn  file "D:/BM1000/sw/drivers/drvic/ldc1612.c",line 649,column 3,is_stmt
    2626 00000238 5200          CMPB      AL,#0                 ; [CPU_] |649| 
    2627                      .dwpsn  file "D:/BM1000/sw/drivers/drvic/ldc1612.c",line 652,column 14,is_stmt
    2628 00000239 562B          MOV       *+XAR4[5],AH,EQ       ; [CPU_] |652| 
         0000023a 01EC 
    2629              $C$DW$237       .dwtag  DW_TAG_TI_branch
    2630                      .dwattr $C$DW$237, DW_AT_low_pc(0x00)
    2631                      .dwattr $C$DW$237, DW_AT_TI_return
    2632 0000023b 0006          LRETR     ; [CPU_] 
    2633                      ; return occurs ; [] 
    2634                      .dwattr $C$DW$230, DW_AT_TI_end_file("D:/BM1000/sw/drivers/drvic/ldc1612.c")
    2635                      .dwattr $C$DW$230, DW_AT_TI_end_line(0x297)
    2636                      .dwattr $C$DW$230, DW_AT_TI_end_column(0x01)
    2637                      .dwendentry
    2638                      .dwendtag $C$DW$230
    2639              
    2640 0000023c               .sect   ".text"
    2641                      .clink
    2642                      .global _LDC161x_readI2c
    2643              
    2644              $C$DW$238       .dwtag  DW_TAG_subprogram, DW_AT_name("LDC161x_readI2c")
    2645                      .dwattr $C$DW$238, DW_AT_low_pc(_LDC161x_readI2c)
    2646                      .dwattr $C$DW$238, DW_AT_high_pc(0x00)
    2647                      .dwattr $C$DW$238, DW_AT_TI_symbol_name("_LDC161x_readI2c")
    2648                      .dwattr $C$DW$238, DW_AT_external
TMS320C2000 Assembler PC v6.2.5 Sat Sep 16 14:55:48 2017

Tools Copyright (c) 1996-2014 Texas Instruments Incorporated
C:\Users\wmj\AppData\Local\Temp\1116811                              PAGE   51

    2649                      .dwattr $C$DW$238, DW_AT_type(*$C$DW$T$21)
    2650                      .dwattr $C$DW$238, DW_AT_TI_begin_file("D:/BM1000/sw/drivers/drvic/ldc1612.c")
    2651                      .dwattr $C$DW$238, DW_AT_TI_begin_line(0x54)
    2652                      .dwattr $C$DW$238, DW_AT_TI_begin_column(0x0a)
    2653                      .dwattr $C$DW$238, DW_AT_TI_max_frame_size(-8)
    2654                      .dwpsn  file "D:/BM1000/sw/drivers/drvic/ldc1612.c",line 85,column 1,is_stmt,address _LDC161x_readI2c
    2655              
    2656                      .dwfde $C$DW$CIE, _LDC161x_readI2c
    2657              $C$DW$239       .dwtag  DW_TAG_variable, DW_AT_name("WaitTimeOut")
    2658                      .dwattr $C$DW$239, DW_AT_TI_symbol_name("_WaitTimeOut$2")
    2659                      .dwattr $C$DW$239, DW_AT_type(*$C$DW$T$27)
    2660                      .dwattr $C$DW$239, DW_AT_location[DW_OP_addr _WaitTimeOut$2]
    2661              $C$DW$240       .dwtag  DW_TAG_formal_parameter, DW_AT_name("handle")
    2662                      .dwattr $C$DW$240, DW_AT_TI_symbol_name("_handle")
    2663                      .dwattr $C$DW$240, DW_AT_type(*$C$DW$T$122)
    2664                      .dwattr $C$DW$240, DW_AT_location[DW_OP_reg12]
    2665              $C$DW$241       .dwtag  DW_TAG_formal_parameter, DW_AT_name("regName")
    2666                      .dwattr $C$DW$241, DW_AT_TI_symbol_name("_regName")
    2667                      .dwattr $C$DW$241, DW_AT_type(*$C$DW$T$96)
    2668                      .dwattr $C$DW$241, DW_AT_location[DW_OP_reg0]
    2669              
    2670              ;***************************************************************
    2671              ;* FNAME: _LDC161x_readI2c              FR SIZE:   6           *
    2672              ;*                                                             *
    2673              ;* FUNCTION ENVIRONMENT                                        *
    2674              ;*                                                             *
    2675              ;* FUNCTION PROPERTIES                                         *
    2676              ;*                            0 Parameter,  1 Auto,  4 SOE     *
    2677              ;***************************************************************
    2678              
    2679              _LDC161x_readI2c:
    2680              ;* AR1   assigned to _regName
    2681              $C$DW$242       .dwtag  DW_TAG_variable, DW_AT_name("regName")
    2682                      .dwattr $C$DW$242, DW_AT_TI_symbol_name("_regName")
    2683                      .dwattr $C$DW$242, DW_AT_type(*$C$DW$T$96)
    2684                      .dwattr $C$DW$242, DW_AT_location[DW_OP_reg6]
    2685              ;* AR2   assigned to _handle
    2686              $C$DW$243       .dwtag  DW_TAG_variable, DW_AT_name("handle")
    2687                      .dwattr $C$DW$243, DW_AT_TI_symbol_name("_handle")
    2688                      .dwattr $C$DW$243, DW_AT_type(*$C$DW$T$123)
    2689                      .dwattr $C$DW$243, DW_AT_location[DW_OP_reg8]
    2690              $C$DW$244       .dwtag  DW_TAG_variable, DW_AT_name("readWord")
    2691                      .dwattr $C$DW$244, DW_AT_TI_symbol_name("_readWord")
    2692                      .dwattr $C$DW$244, DW_AT_type(*$C$DW$T$27)
    2693                      .dwattr $C$DW$244, DW_AT_location[DW_OP_breg20 -1]
    2694                      .dwcfi  cfa_offset, -2
    2695                      .dwcfi  save_reg_to_mem, 26, 0
    2696                      .dwcfi  save_reg_to_reg, 78, 26
    2697 0000023c B2BD          MOVL      *SP++,XAR1            ; [CPU_] 
    2698                      .dwcfi  save_reg_to_mem, 7, 2
    2699                      .dwcfi  cfa_offset, -4
    2700 0000023d AABD          MOVL      *SP++,XAR2            ; [CPU_] 
    2701                      .dwcfi  save_reg_to_mem, 9, 4
    2702                      .dwcfi  cfa_offset, -6
    2703 0000023e FE02          ADDB      SP,#2                 ; [CPU_U] 
TMS320C2000 Assembler PC v6.2.5 Sat Sep 16 14:55:48 2017

Tools Copyright (c) 1996-2014 Texas Instruments Incorporated
C:\Users\wmj\AppData\Local\Temp\1116811                              PAGE   52

    2704                      .dwcfi  cfa_offset, -8
    2705 0000023f 59A9          MOVZ      AR1,AL                ; [CPU_] |85| 
    2706 00000240 86A4          MOVL      XAR2,XAR4             ; [CPU_] |85| 
    2707                      .dwpsn  file "D:/BM1000/sw/drivers/drvic/ldc1612.c",line 90,column 3,is_stmt
    2708 00000241 6F08          B         $C$L47,UNC            ; [CPU_] |90| 
    2709                      ; branch occurs ; [] |90| 
    2710 00000242       $C$L46:    
    2711                      .dwpsn  file "D:/BM1000/sw/drivers/drvic/ldc1612.c",line 91,column 5,is_stmt
    2712 00000242 8AC2          MOVL      XAR4,*+XAR2[0]        ; [CPU_] |91| 
    2713 00000243 9B00          MOVB      AH,#0                 ; [CPU_] |91| 
    2714 00000244 D501          MOVB      XAR5,#1               ; [CPU_] |91| 
    2715 00000245 28A9          MOV       AL,#3072              ; [CPU_] |91| 
         00000246 0C00 
    2716              $C$DW$245       .dwtag  DW_TAG_TI_branch
    2717                      .dwattr $C$DW$245, DW_AT_low_pc(0x00)
    2718                      .dwattr $C$DW$245, DW_AT_name("_I2C_MasterControl")
    2719                      .dwattr $C$DW$245, DW_AT_TI_call
    2720 00000247 7640!         LCR       #_I2C_MasterControl   ; [CPU_] |91| 
         00000248 0000 
    2721                      ; call occurs [#_I2C_MasterControl] ; [] |91| 
    2722 00000249       $C$L47:    
    2723 00000249 8AC2          MOVL      XAR4,*+XAR2[0]        ; [CPU_] |91| 
    2724              $C$DW$246       .dwtag  DW_TAG_TI_branch
    2725                      .dwattr $C$DW$246, DW_AT_low_pc(0x00)
    2726                      .dwattr $C$DW$246, DW_AT_name("_I2C_isMasterBusy")
    2727                      .dwattr $C$DW$246, DW_AT_TI_call
    2728 0000024a 7640!         LCR       #_I2C_isMasterBusy    ; [CPU_] |91| 
         0000024b 0000 
    2729                      ; call occurs [#_I2C_isMasterBusy] ; [] |91| 
    2730 0000024c 5200          CMPB      AL,#0                 ; [CPU_] |91| 
    2731 0000024d EDF5          BF        $C$L46,NEQ            ; [CPU_] |91| 
    2732                      ; branchcc occurs ; [] |91| 
    2733                      .dwpsn  file "D:/BM1000/sw/drivers/drvic/ldc1612.c",line 93,column 4,is_stmt
    2734 0000024e D048          MOVB      XAR0,#72              ; [CPU_] |93| 
    2735 0000024f 9292          MOV       AL,*+XAR2[AR0]        ; [CPU_] |93| 
    2736 00000250 5201          CMPB      AL,#1                 ; [CPU_] |93| 
    2737 00000251 56C1          BF        $C$L62,EQ             ; [CPU_] |93| 
         00000252 0093 
    2738                      ; branchcc occurs ; [] |93| 
    2739 00000253 D049          MOVB      XAR0,#73              ; [CPU_] |93| 
    2740 00000254 9292          MOV       AL,*+XAR2[AR0]        ; [CPU_] |93| 
    2741 00000255 5201          CMPB      AL,#1                 ; [CPU_] |93| 
    2742 00000256 56C1          BF        $C$L62,EQ             ; [CPU_] |93| 
         00000257 008E 
    2743                      ; branchcc occurs ; [] |93| 
    2744                      .dwpsn  file "D:/BM1000/sw/drivers/drvic/ldc1612.c",line 98,column 3,is_stmt
    2745 00000258 D047          MOVB      XAR0,#71              ; [CPU_] |98| 
    2746 00000259 8AC2          MOVL      XAR4,*+XAR2[0]        ; [CPU_] |98| 
    2747 0000025a 9292          MOV       AL,*+XAR2[AR0]        ; [CPU_] |98| 
    2748              $C$DW$247       .dwtag  DW_TAG_TI_branch
    2749                      .dwattr $C$DW$247, DW_AT_low_pc(0x00)
    2750                      .dwattr $C$DW$247, DW_AT_name("_I2C_setMasterSlaveAddr")
    2751                      .dwattr $C$DW$247, DW_AT_TI_call
    2752 0000025b 7640!         LCR       #_I2C_setMasterSlaveAddr ; [CPU_] |98| 
         0000025c 0000 
TMS320C2000 Assembler PC v6.2.5 Sat Sep 16 14:55:48 2017

Tools Copyright (c) 1996-2014 Texas Instruments Incorporated
C:\Users\wmj\AppData\Local\Temp\1116811                              PAGE   53

    2753                      ; call occurs [#_I2C_setMasterSlaveAddr] ; [] |98| 
    2754                      .dwpsn  file "D:/BM1000/sw/drivers/drvic/ldc1612.c",line 99,column 3,is_stmt
    2755 0000025d 9B00          MOVB      AH,#0                 ; [CPU_] |99| 
    2756 0000025e D501          MOVB      XAR5,#1               ; [CPU_] |99| 
    2757 0000025f 28A9          MOV       AL,#11776             ; [CPU_] |99| 
         00000260 2E00 
    2758 00000261 8AC2          MOVL      XAR4,*+XAR2[0]        ; [CPU_] |99| 
    2759              $C$DW$248       .dwtag  DW_TAG_TI_branch
    2760                      .dwattr $C$DW$248, DW_AT_low_pc(0x00)
    2761                      .dwattr $C$DW$248, DW_AT_name("_I2C_MasterControl")
    2762                      .dwattr $C$DW$248, DW_AT_TI_call
    2763 00000262 7640!         LCR       #_I2C_MasterControl   ; [CPU_] |99| 
         00000263 0000 
    2764                      ; call occurs [#_I2C_MasterControl] ; [] |99| 
    2765                      .dwpsn  file "D:/BM1000/sw/drivers/drvic/ldc1612.c",line 100,column 3,is_stmt
    2766 00000264 8AC2          MOVL      XAR4,*+XAR2[0]        ; [CPU_] |100| 
    2767              $C$DW$249       .dwtag  DW_TAG_TI_branch
    2768                      .dwattr $C$DW$249, DW_AT_low_pc(0x00)
    2769                      .dwattr $C$DW$249, DW_AT_name("_I2C_enable")
    2770                      .dwattr $C$DW$249, DW_AT_TI_call
    2771 00000265 7640!         LCR       #_I2C_enable          ; [CPU_] |100| 
         00000266 0000 
    2772                      ; call occurs [#_I2C_enable] ; [] |100| 
    2773                      .dwpsn  file "D:/BM1000/sw/drivers/drvic/ldc1612.c",line 101,column 3,is_stmt
    2774 00000267 92A1          MOV       AL,AR1                ; [CPU_] |101| 
    2775 00000268 8AC2          MOVL      XAR4,*+XAR2[0]        ; [CPU_] |101| 
    2776              $C$DW$250       .dwtag  DW_TAG_TI_branch
    2777                      .dwattr $C$DW$250, DW_AT_low_pc(0x00)
    2778                      .dwattr $C$DW$250, DW_AT_name("_I2C_putData")
    2779                      .dwattr $C$DW$250, DW_AT_TI_call
    2780 00000269 7640!         LCR       #_I2C_putData         ; [CPU_] |101| 
         0000026a 0000 
    2781                      ; call occurs [#_I2C_putData] ; [] |101| 
    2782 0000026b 761F-         MOVW      DP,#_WaitTimeOut$2    ; [CPU_U] 
         0000026c 0000 
    2783                      .dwpsn  file "D:/BM1000/sw/drivers/drvic/ldc1612.c",line 103,column 3,is_stmt
    2784 0000026d 2B00-         MOV       @_WaitTimeOut$2,#0    ; [CPU_] |103| 
    2785 0000026e       $C$L48:    
    2786                      .dwpsn  file "D:/BM1000/sw/drivers/drvic/ldc1612.c",line 104,column 9,is_stmt
    2787 0000026e 8AC2          MOVL      XAR4,*+XAR2[0]        ; [CPU_] |104| 
    2788              $C$DW$251       .dwtag  DW_TAG_TI_branch
    2789                      .dwattr $C$DW$251, DW_AT_low_pc(0x00)
    2790                      .dwattr $C$DW$251, DW_AT_name("_I2C_getStatus")
    2791                      .dwattr $C$DW$251, DW_AT_TI_call
    2792 0000026f 7640!         LCR       #_I2C_getStatus       ; [CPU_] |104| 
         00000270 0000 
    2793                      ; call occurs [#_I2C_getStatus] ; [] |104| 
    2794 00000271 44A9          TBIT      AL,#4                 ; [CPU_] |104| 
    2795 00000272 EE0B          BF        $C$L49,TC             ; [CPU_] |104| 
    2796                      ; branchcc occurs ; [] |104| 
    2797 00000273 761F-         MOVW      DP,#_WaitTimeOut$2    ; [CPU_U] 
         00000274 0000 
    2798 00000275 1B00-         CMP       @_WaitTimeOut$2,#8191 ; [CPU_] |104| 
         00000276 1FFF 
    2799 00000277 6706          B         $C$L49,HIS            ; [CPU_] |104| 
TMS320C2000 Assembler PC v6.2.5 Sat Sep 16 14:55:48 2017

Tools Copyright (c) 1996-2014 Texas Instruments Incorporated
C:\Users\wmj\AppData\Local\Temp\1116811                              PAGE   54

    2800                      ; branchcc occurs ; [] |104| 
    2801                      .dwpsn  file "D:/BM1000/sw/drivers/drvic/ldc1612.c",line 107,column 8,is_stmt
    2802 00000278 0A00-         INC       @_WaitTimeOut$2       ; [CPU_] |107| 
    2803 00000279 1B00-         CMP       @_WaitTimeOut$2,#8190 ; [CPU_] |107| 
         0000027a 1FFE 
    2804 0000027b 69F3          B         $C$L48,LOS            ; [CPU_] |107| 
    2805                      ; branchcc occurs ; [] |107| 
    2806 0000027c 6F12          B         $C$L51,UNC            ; [CPU_] |107| 
    2807                      ; branch occurs ; [] |107| 
    2808 0000027d       $C$L49:    
    2809 0000027d 761F-         MOVW      DP,#_WaitTimeOut$2    ; [CPU_U] 
         0000027e 0000 
    2810                      .dwpsn  file "D:/BM1000/sw/drivers/drvic/ldc1612.c",line 114,column 3,is_stmt
    2811 0000027f 2B00-         MOV       @_WaitTimeOut$2,#0    ; [CPU_] |114| 
    2812 00000280       $C$L50:    
    2813                      .dwpsn  file "D:/BM1000/sw/drivers/drvic/ldc1612.c",line 115,column 9,is_stmt
    2814 00000280 8AC2          MOVL      XAR4,*+XAR2[0]        ; [CPU_] |115| 
    2815              $C$DW$252       .dwtag  DW_TAG_TI_branch
    2816                      .dwattr $C$DW$252, DW_AT_low_pc(0x00)
    2817                      .dwattr $C$DW$252, DW_AT_name("_I2C_isMasterBusy")
    2818                      .dwattr $C$DW$252, DW_AT_TI_call
    2819 00000281 7640!         LCR       #_I2C_isMasterBusy    ; [CPU_] |115| 
         00000282 0000 
    2820                      ; call occurs [#_I2C_isMasterBusy] ; [] |115| 
    2821 00000283 5200          CMPB      AL,#0                 ; [CPU_] |115| 
    2822 00000284 EC0C          BF        $C$L52,EQ             ; [CPU_] |115| 
    2823                      ; branchcc occurs ; [] |115| 
    2824 00000285 761F-         MOVW      DP,#_WaitTimeOut$2    ; [CPU_U] 
         00000286 0000 
    2825 00000287 1B00-         CMP       @_WaitTimeOut$2,#8191 ; [CPU_] |115| 
         00000288 1FFF 
    2826 00000289 6707          B         $C$L52,HIS            ; [CPU_] |115| 
    2827                      ; branchcc occurs ; [] |115| 
    2828                      .dwpsn  file "D:/BM1000/sw/drivers/drvic/ldc1612.c",line 118,column 8,is_stmt
    2829 0000028a 0A00-         INC       @_WaitTimeOut$2       ; [CPU_] |118| 
    2830 0000028b 1B00-         CMP       @_WaitTimeOut$2,#8190 ; [CPU_] |118| 
         0000028c 1FFE 
    2831 0000028d 69F3          B         $C$L50,LOS            ; [CPU_] |118| 
    2832                      ; branchcc occurs ; [] |118| 
    2833 0000028e       $C$L51:    
    2834                      .dwpsn  file "D:/BM1000/sw/drivers/drvic/ldc1612.c",line 120,column 10,is_stmt
    2835 0000028e D049          MOVB      XAR0,#73              ; [CPU_] |120| 
    2836                      .dwpsn  file "D:/BM1000/sw/drivers/drvic/ldc1612.c",line 121,column 10,is_stmt
    2837 0000028f 6F53          B         $C$L61,UNC            ; [CPU_] |121| 
    2838                      ; branch occurs ; [] |121| 
    2839 00000290       $C$L52:    
    2840                      .dwpsn  file "D:/BM1000/sw/drivers/drvic/ldc1612.c",line 125,column 3,is_stmt
    2841 00000290 D047          MOVB      XAR0,#71              ; [CPU_] |125| 
    2842 00000291 8AC2          MOVL      XAR4,*+XAR2[0]        ; [CPU_] |125| 
    2843 00000292 9292          MOV       AL,*+XAR2[AR0]        ; [CPU_] |125| 
    2844              $C$DW$253       .dwtag  DW_TAG_TI_branch
    2845                      .dwattr $C$DW$253, DW_AT_low_pc(0x00)
    2846                      .dwattr $C$DW$253, DW_AT_name("_I2C_setMasterSlaveAddr")
    2847                      .dwattr $C$DW$253, DW_AT_TI_call
    2848 00000293 7640!         LCR       #_I2C_setMasterSlaveAddr ; [CPU_] |125| 
TMS320C2000 Assembler PC v6.2.5 Sat Sep 16 14:55:48 2017

Tools Copyright (c) 1996-2014 Texas Instruments Incorporated
C:\Users\wmj\AppData\Local\Temp\1116811                              PAGE   55

         00000294 0000 
    2849                      ; call occurs [#_I2C_setMasterSlaveAddr] ; [] |125| 
    2850                      .dwpsn  file "D:/BM1000/sw/drivers/drvic/ldc1612.c",line 126,column 3,is_stmt
    2851 00000295 9B00          MOVB      AH,#0                 ; [CPU_] |126| 
    2852 00000296 D502          MOVB      XAR5,#2               ; [CPU_] |126| 
    2853 00000297 28A9          MOV       AL,#11264             ; [CPU_] |126| 
         00000298 2C00 
    2854 00000299 8AC2          MOVL      XAR4,*+XAR2[0]        ; [CPU_] |126| 
    2855              $C$DW$254       .dwtag  DW_TAG_TI_branch
    2856                      .dwattr $C$DW$254, DW_AT_low_pc(0x00)
    2857                      .dwattr $C$DW$254, DW_AT_name("_I2C_MasterControl")
    2858                      .dwattr $C$DW$254, DW_AT_TI_call
    2859 0000029a 7640!         LCR       #_I2C_MasterControl   ; [CPU_] |126| 
         0000029b 0000 
    2860                      ; call occurs [#_I2C_MasterControl] ; [] |126| 
    2861                      .dwpsn  file "D:/BM1000/sw/drivers/drvic/ldc1612.c",line 127,column 3,is_stmt
    2862 0000029c 8AC2          MOVL      XAR4,*+XAR2[0]        ; [CPU_] |127| 
    2863              $C$DW$255       .dwtag  DW_TAG_TI_branch
    2864                      .dwattr $C$DW$255, DW_AT_low_pc(0x00)
    2865                      .dwattr $C$DW$255, DW_AT_name("_I2C_enable")
    2866                      .dwattr $C$DW$255, DW_AT_TI_call
    2867 0000029d 7640!         LCR       #_I2C_enable          ; [CPU_] |127| 
         0000029e 0000 
    2868                      ; call occurs [#_I2C_enable] ; [] |127| 
    2869 0000029f 761F-         MOVW      DP,#_WaitTimeOut$2    ; [CPU_U] 
         000002a0 0000 
    2870                      .dwpsn  file "D:/BM1000/sw/drivers/drvic/ldc1612.c",line 129,column 3,is_stmt
    2871 000002a1 2B00-         MOV       @_WaitTimeOut$2,#0    ; [CPU_] |129| 
    2872 000002a2       $C$L53:    
    2873                      .dwpsn  file "D:/BM1000/sw/drivers/drvic/ldc1612.c",line 130,column 9,is_stmt
    2874 000002a2 8AC2          MOVL      XAR4,*+XAR2[0]        ; [CPU_] |130| 
    2875              $C$DW$256       .dwtag  DW_TAG_TI_branch
    2876                      .dwattr $C$DW$256, DW_AT_low_pc(0x00)
    2877                      .dwattr $C$DW$256, DW_AT_name("_I2C_getStatus")
    2878                      .dwattr $C$DW$256, DW_AT_TI_call
    2879 000002a3 7640!         LCR       #_I2C_getStatus       ; [CPU_] |130| 
         000002a4 0000 
    2880                      ; call occurs [#_I2C_getStatus] ; [] |130| 
    2881 000002a5 43A9          TBIT      AL,#3                 ; [CPU_] |130| 
    2882 000002a6 EE0B          BF        $C$L54,TC             ; [CPU_] |130| 
    2883                      ; branchcc occurs ; [] |130| 
    2884 000002a7 761F-         MOVW      DP,#_WaitTimeOut$2    ; [CPU_U] 
         000002a8 0000 
    2885 000002a9 1B00-         CMP       @_WaitTimeOut$2,#8191 ; [CPU_] |130| 
         000002aa 1FFF 
    2886 000002ab 6706          B         $C$L54,HIS            ; [CPU_] |130| 
    2887                      ; branchcc occurs ; [] |130| 
    2888                      .dwpsn  file "D:/BM1000/sw/drivers/drvic/ldc1612.c",line 133,column 8,is_stmt
    2889 000002ac 0A00-         INC       @_WaitTimeOut$2       ; [CPU_] |133| 
    2890 000002ad 1B00-         CMP       @_WaitTimeOut$2,#8190 ; [CPU_] |133| 
         000002ae 1FFE 
    2891 000002af 69F3          B         $C$L53,LOS            ; [CPU_] |133| 
    2892                      ; branchcc occurs ; [] |133| 
    2893 000002b0 6F31          B         $C$L60,UNC            ; [CPU_] |133| 
    2894                      ; branch occurs ; [] |133| 
TMS320C2000 Assembler PC v6.2.5 Sat Sep 16 14:55:48 2017

Tools Copyright (c) 1996-2014 Texas Instruments Incorporated
C:\Users\wmj\AppData\Local\Temp\1116811                              PAGE   56

    2895 000002b1       $C$L54:    
    2896                      .dwpsn  file "D:/BM1000/sw/drivers/drvic/ldc1612.c",line 140,column 3,is_stmt
    2897 000002b1 8AC2          MOVL      XAR4,*+XAR2[0]        ; [CPU_] |140| 
    2898              $C$DW$257       .dwtag  DW_TAG_TI_branch
    2899                      .dwattr $C$DW$257, DW_AT_low_pc(0x00)
    2900                      .dwattr $C$DW$257, DW_AT_name("_I2C_getData")
    2901                      .dwattr $C$DW$257, DW_AT_TI_call
    2902 000002b2 7640!         LCR       #_I2C_getData         ; [CPU_] |140| 
         000002b3 0000 
    2903                      ; call occurs [#_I2C_getData] ; [] |140| 
    2904 000002b4 761F-         MOVW      DP,#_WaitTimeOut$2    ; [CPU_U] 
         000002b5 0000 
    2905 000002b6 9641          MOV       *-SP[1],AL            ; [CPU_] |140| 
    2906                      .dwpsn  file "D:/BM1000/sw/drivers/drvic/ldc1612.c",line 141,column 3,is_stmt
    2907 000002b7 5603          MOV       ACC,*-SP[1] << #8     ; [CPU_] |141| 
         000002b8 0841 
    2908 000002b9 9641          MOV       *-SP[1],AL            ; [CPU_] |141| 
    2909                      .dwpsn  file "D:/BM1000/sw/drivers/drvic/ldc1612.c",line 143,column 3,is_stmt
    2910 000002ba 2B00-         MOV       @_WaitTimeOut$2,#0    ; [CPU_] |143| 
    2911 000002bb       $C$L55:    
    2912                      .dwpsn  file "D:/BM1000/sw/drivers/drvic/ldc1612.c",line 144,column 9,is_stmt
    2913 000002bb 8AC2          MOVL      XAR4,*+XAR2[0]        ; [CPU_] |144| 
    2914              $C$DW$258       .dwtag  DW_TAG_TI_branch
    2915                      .dwattr $C$DW$258, DW_AT_low_pc(0x00)
    2916                      .dwattr $C$DW$258, DW_AT_name("_I2C_getStatus")
    2917                      .dwattr $C$DW$258, DW_AT_TI_call
    2918 000002bc 7640!         LCR       #_I2C_getStatus       ; [CPU_] |144| 
         000002bd 0000 
    2919                      ; call occurs [#_I2C_getStatus] ; [] |144| 
    2920 000002be 43A9          TBIT      AL,#3                 ; [CPU_] |144| 
    2921 000002bf EE0B          BF        $C$L56,TC             ; [CPU_] |144| 
    2922                      ; branchcc occurs ; [] |144| 
    2923 000002c0 761F-         MOVW      DP,#_WaitTimeOut$2    ; [CPU_U] 
         000002c1 0000 
    2924 000002c2 1B00-         CMP       @_WaitTimeOut$2,#8191 ; [CPU_] |144| 
         000002c3 1FFF 
    2925 000002c4 6706          B         $C$L56,HIS            ; [CPU_] |144| 
    2926                      ; branchcc occurs ; [] |144| 
    2927                      .dwpsn  file "D:/BM1000/sw/drivers/drvic/ldc1612.c",line 147,column 8,is_stmt
    2928 000002c5 0A00-         INC       @_WaitTimeOut$2       ; [CPU_] |147| 
    2929 000002c6 1B00-         CMP       @_WaitTimeOut$2,#8190 ; [CPU_] |147| 
         000002c7 1FFE 
    2930 000002c8 69F3          B         $C$L55,LOS            ; [CPU_] |147| 
    2931                      ; branchcc occurs ; [] |147| 
    2932 000002c9 6F18          B         $C$L60,UNC            ; [CPU_] |147| 
    2933                      ; branch occurs ; [] |147| 
    2934 000002ca       $C$L56:    
    2935                      .dwpsn  file "D:/BM1000/sw/drivers/drvic/ldc1612.c",line 154,column 3,is_stmt
    2936 000002ca 8AC2          MOVL      XAR4,*+XAR2[0]        ; [CPU_] |154| 
    2937              $C$DW$259       .dwtag  DW_TAG_TI_branch
    2938                      .dwattr $C$DW$259, DW_AT_low_pc(0x00)
    2939                      .dwattr $C$DW$259, DW_AT_name("_I2C_getData")
    2940                      .dwattr $C$DW$259, DW_AT_TI_call
    2941 000002cb 7640!         LCR       #_I2C_getData         ; [CPU_] |154| 
         000002cc 0000 
TMS320C2000 Assembler PC v6.2.5 Sat Sep 16 14:55:48 2017

Tools Copyright (c) 1996-2014 Texas Instruments Incorporated
C:\Users\wmj\AppData\Local\Temp\1116811                              PAGE   57

    2942                      ; call occurs [#_I2C_getData] ; [] |154| 
    2943 000002cd 761F-         MOVW      DP,#_WaitTimeOut$2    ; [CPU_U] 
         000002ce 0000 
    2944 000002cf 9841          OR        *-SP[1],AL            ; [CPU_] |154| 
    2945                      .dwpsn  file "D:/BM1000/sw/drivers/drvic/ldc1612.c",line 156,column 3,is_stmt
    2946 000002d0 2B00-         MOV       @_WaitTimeOut$2,#0    ; [CPU_] |156| 
    2947 000002d1       $C$L57:    
    2948                      .dwpsn  file "D:/BM1000/sw/drivers/drvic/ldc1612.c",line 157,column 9,is_stmt
    2949 000002d1 8AC2          MOVL      XAR4,*+XAR2[0]        ; [CPU_] |157| 
    2950              $C$DW$260       .dwtag  DW_TAG_TI_branch
    2951                      .dwattr $C$DW$260, DW_AT_low_pc(0x00)
    2952                      .dwattr $C$DW$260, DW_AT_name("_I2C_getStatus")
    2953                      .dwattr $C$DW$260, DW_AT_TI_call
    2954 000002d2 7640!         LCR       #_I2C_getStatus       ; [CPU_] |157| 
         000002d3 0000 
    2955                      ; call occurs [#_I2C_getStatus] ; [] |157| 
    2956 000002d4 45A9          TBIT      AL,#5                 ; [CPU_] |157| 
    2957 000002d5 EE06          BF        $C$L58,TC             ; [CPU_] |157| 
    2958                      ; branchcc occurs ; [] |157| 
    2959 000002d6 761F-         MOVW      DP,#_WaitTimeOut$2    ; [CPU_U] 
         000002d7 0000 
    2960 000002d8 1B00-         CMP       @_WaitTimeOut$2,#8191 ; [CPU_] |157| 
         000002d9 1FFF 
    2961 000002da 6803          B         $C$L59,LO             ; [CPU_] |157| 
    2962                      ; branchcc occurs ; [] |157| 
    2963 000002db       $C$L58:    
    2964                      .dwpsn  file "D:/BM1000/sw/drivers/drvic/ldc1612.c",line 167,column 3,is_stmt
    2965 000002db 9241          MOV       AL,*-SP[1]            ; [CPU_] |167| 
    2966 000002dc 6F09          B         $C$L63,UNC            ; [CPU_] |167| 
    2967                      ; branch occurs ; [] |167| 
    2968 000002dd       $C$L59:    
    2969                      .dwpsn  file "D:/BM1000/sw/drivers/drvic/ldc1612.c",line 160,column 8,is_stmt
    2970 000002dd 0A00-         INC       @_WaitTimeOut$2       ; [CPU_] |160| 
    2971 000002de 1B00-         CMP       @_WaitTimeOut$2,#8190 ; [CPU_] |160| 
         000002df 1FFE 
    2972 000002e0 69F1          B         $C$L57,LOS            ; [CPU_] |160| 
    2973                      ; branchcc occurs ; [] |160| 
    2974 000002e1       $C$L60:    
    2975                      .dwpsn  file "D:/BM1000/sw/drivers/drvic/ldc1612.c",line 162,column 10,is_stmt
    2976 000002e1 D048          MOVB      XAR0,#72              ; [CPU_] |162| 
    2977 000002e2       $C$L61:    
    2978 000002e2 56BF          MOVB      *+XAR2[AR0],#1,UNC    ; [CPU_] |162| 
         000002e3 0192 
    2979 000002e4       $C$L62:    
    2980                      .dwpsn  file "D:/BM1000/sw/drivers/drvic/ldc1612.c",line 163,column 10,is_stmt
    2981 000002e4 9A00          MOVB      AL,#0                 ; [CPU_] |163| 
    2982 000002e5       $C$L63:    
    2983 000002e5 FE82          SUBB      SP,#2                 ; [CPU_U] 
    2984                      .dwcfi  cfa_offset, -6
    2985 000002e6 86BE          MOVL      XAR2,*--SP            ; [CPU_] 
    2986                      .dwcfi  cfa_offset, -4
    2987                      .dwcfi  restore_reg, 9
    2988 000002e7 8BBE          MOVL      XAR1,*--SP            ; [CPU_] 
    2989                      .dwcfi  cfa_offset, -2
    2990                      .dwcfi  restore_reg, 7
TMS320C2000 Assembler PC v6.2.5 Sat Sep 16 14:55:48 2017

Tools Copyright (c) 1996-2014 Texas Instruments Incorporated
C:\Users\wmj\AppData\Local\Temp\1116811                              PAGE   58

    2991              $C$DW$261       .dwtag  DW_TAG_TI_branch
    2992                      .dwattr $C$DW$261, DW_AT_low_pc(0x00)
    2993                      .dwattr $C$DW$261, DW_AT_TI_return
    2994 000002e8 0006          LRETR     ; [CPU_] 
    2995                      ; return occurs ; [] 
    2996                      .dwattr $C$DW$238, DW_AT_TI_end_file("D:/BM1000/sw/drivers/drvic/ldc1612.c")
    2997                      .dwattr $C$DW$238, DW_AT_TI_end_line(0xa9)
    2998                      .dwattr $C$DW$238, DW_AT_TI_end_column(0x01)
    2999                      .dwendentry
    3000                      .dwendtag $C$DW$238
    3001              
    3002 000002e9               .sect   ".text"
    3003                      .clink
    3004                      .global _LDC161x_readStatus
    3005              
    3006              $C$DW$262       .dwtag  DW_TAG_subprogram, DW_AT_name("LDC161x_readStatus")
    3007                      .dwattr $C$DW$262, DW_AT_low_pc(_LDC161x_readStatus)
    3008                      .dwattr $C$DW$262, DW_AT_high_pc(0x00)
    3009                      .dwattr $C$DW$262, DW_AT_TI_symbol_name("_LDC161x_readStatus")
    3010                      .dwattr $C$DW$262, DW_AT_external
    3011                      .dwattr $C$DW$262, DW_AT_TI_begin_file("D:/BM1000/sw/drivers/drvic/ldc1612.c")
    3012                      .dwattr $C$DW$262, DW_AT_TI_begin_line(0x163)
    3013                      .dwattr $C$DW$262, DW_AT_TI_begin_column(0x06)
    3014                      .dwattr $C$DW$262, DW_AT_TI_max_frame_size(-4)
    3015                      .dwpsn  file "D:/BM1000/sw/drivers/drvic/ldc1612.c",line 356,column 1,is_stmt,address _LDC161x_readSt
    3016              
    3017                      .dwfde $C$DW$CIE, _LDC161x_readStatus
    3018              $C$DW$263       .dwtag  DW_TAG_formal_parameter, DW_AT_name("handle")
    3019                      .dwattr $C$DW$263, DW_AT_TI_symbol_name("_handle")
    3020                      .dwattr $C$DW$263, DW_AT_type(*$C$DW$T$122)
    3021                      .dwattr $C$DW$263, DW_AT_location[DW_OP_reg12]
    3022              
    3023              ;***************************************************************
    3024              ;* FNAME: _LDC161x_readStatus           FR SIZE:   2           *
    3025              ;*                                                             *
    3026              ;* FUNCTION ENVIRONMENT                                        *
    3027              ;*                                                             *
    3028              ;* FUNCTION PROPERTIES                                         *
    3029              ;*                            0 Parameter,  0 Auto,  2 SOE     *
    3030              ;***************************************************************
    3031              
    3032              _LDC161x_readStatus:
    3033              ;* AR1   assigned to _handle
    3034              $C$DW$264       .dwtag  DW_TAG_variable, DW_AT_name("handle")
    3035                      .dwattr $C$DW$264, DW_AT_TI_symbol_name("_handle")
    3036                      .dwattr $C$DW$264, DW_AT_type(*$C$DW$T$123)
    3037                      .dwattr $C$DW$264, DW_AT_location[DW_OP_reg6]
    3038              ;* AL    assigned to _drvDataNew
    3039              $C$DW$265       .dwtag  DW_TAG_variable, DW_AT_name("drvDataNew")
    3040                      .dwattr $C$DW$265, DW_AT_TI_symbol_name("_drvDataNew")
    3041                      .dwattr $C$DW$265, DW_AT_type(*$C$DW$T$21)
    3042                      .dwattr $C$DW$265, DW_AT_location[DW_OP_reg0]
    3043                      .dwcfi  cfa_offset, -2
    3044                      .dwcfi  save_reg_to_mem, 26, 0
    3045                      .dwcfi  save_reg_to_reg, 78, 26
TMS320C2000 Assembler PC v6.2.5 Sat Sep 16 14:55:48 2017

Tools Copyright (c) 1996-2014 Texas Instruments Incorporated
C:\Users\wmj\AppData\Local\Temp\1116811                              PAGE   59

    3046 000002e9 B2BD          MOVL      *SP++,XAR1            ; [CPU_] 
    3047                      .dwcfi  save_reg_to_mem, 7, 2
    3048                      .dwcfi  cfa_offset, -4
    3049                      .dwpsn  file "D:/BM1000/sw/drivers/drvic/ldc1612.c",line 362,column 3,is_stmt
    3050 000002ea 9A18          MOVB      AL,#24                ; [CPU_] |362| 
    3051                      .dwpsn  file "D:/BM1000/sw/drivers/drvic/ldc1612.c",line 356,column 1,is_stmt
    3052 000002eb 8BA4          MOVL      XAR1,XAR4             ; [CPU_] |356| 
    3053                      .dwpsn  file "D:/BM1000/sw/drivers/drvic/ldc1612.c",line 362,column 3,is_stmt
    3054              $C$DW$266       .dwtag  DW_TAG_TI_branch
    3055                      .dwattr $C$DW$266, DW_AT_low_pc(0x00)
    3056                      .dwattr $C$DW$266, DW_AT_name("_LDC161x_readI2c")
    3057                      .dwattr $C$DW$266, DW_AT_TI_call
    3058 000002ec 7640'         LCR       #_LDC161x_readI2c     ; [CPU_] |362| 
         000002ed 023C 
    3059                      ; call occurs [#_LDC161x_readI2c] ; [] |362| 
    3060                      .dwpsn  file "D:/BM1000/sw/drivers/drvic/ldc1612.c",line 363,column 3,is_stmt
    3061 000002ee 8AE1          MOVL      XAR4,*+XAR1[4]        ; [CPU_] |363| 
    3062              $C$DW$267       .dwtag  DW_TAG_TI_branch
    3063                      .dwattr $C$DW$267, DW_AT_low_pc(0x00)
    3064                      .dwattr $C$DW$267, DW_AT_name("_LDC161x_setStatus")
    3065                      .dwattr $C$DW$267, DW_AT_TI_call
    3066 000002ef 7640'         LCR       #_LDC161x_setStatus   ; [CPU_] |363| 
         000002f0 016A 
    3067                      ; call occurs [#_LDC161x_setStatus] ; [] |363| 
    3068 000002f1 8BBE          MOVL      XAR1,*--SP            ; [CPU_] 
    3069                      .dwcfi  cfa_offset, -2
    3070                      .dwcfi  restore_reg, 7
    3071              $C$DW$268       .dwtag  DW_TAG_TI_branch
    3072                      .dwattr $C$DW$268, DW_AT_low_pc(0x00)
    3073                      .dwattr $C$DW$268, DW_AT_TI_return
    3074 000002f2 0006          LRETR     ; [CPU_] 
    3075                      ; return occurs ; [] 
    3076                      .dwattr $C$DW$262, DW_AT_TI_end_file("D:/BM1000/sw/drivers/drvic/ldc1612.c")
    3077                      .dwattr $C$DW$262, DW_AT_TI_end_line(0x16e)
    3078                      .dwattr $C$DW$262, DW_AT_TI_end_column(0x01)
    3079                      .dwendentry
    3080                      .dwendtag $C$DW$262
    3081              
    3082 000002f3               .sect   ".text"
    3083                      .clink
    3084                      .global _LDC161x_readSettleCnt
    3085              
    3086              $C$DW$269       .dwtag  DW_TAG_subprogram, DW_AT_name("LDC161x_readSettleCnt")
    3087                      .dwattr $C$DW$269, DW_AT_low_pc(_LDC161x_readSettleCnt)
    3088                      .dwattr $C$DW$269, DW_AT_high_pc(0x00)
    3089                      .dwattr $C$DW$269, DW_AT_TI_symbol_name("_LDC161x_readSettleCnt")
    3090                      .dwattr $C$DW$269, DW_AT_external
    3091                      .dwattr $C$DW$269, DW_AT_TI_begin_file("D:/BM1000/sw/drivers/drvic/ldc1612.c")
    3092                      .dwattr $C$DW$269, DW_AT_TI_begin_line(0x11f)
    3093                      .dwattr $C$DW$269, DW_AT_TI_begin_column(0x06)
    3094                      .dwattr $C$DW$269, DW_AT_TI_max_frame_size(-6)
    3095                      .dwpsn  file "D:/BM1000/sw/drivers/drvic/ldc1612.c",line 288,column 1,is_stmt,address _LDC161x_readSe
    3096              
    3097                      .dwfde $C$DW$CIE, _LDC161x_readSettleCnt
    3098              $C$DW$270       .dwtag  DW_TAG_formal_parameter, DW_AT_name("handle")
TMS320C2000 Assembler PC v6.2.5 Sat Sep 16 14:55:48 2017

Tools Copyright (c) 1996-2014 Texas Instruments Incorporated
C:\Users\wmj\AppData\Local\Temp\1116811                              PAGE   60

    3099                      .dwattr $C$DW$270, DW_AT_TI_symbol_name("_handle")
    3100                      .dwattr $C$DW$270, DW_AT_type(*$C$DW$T$122)
    3101                      .dwattr $C$DW$270, DW_AT_location[DW_OP_reg12]
    3102              $C$DW$271       .dwtag  DW_TAG_formal_parameter, DW_AT_name("ChannelNum")
    3103                      .dwattr $C$DW$271, DW_AT_TI_symbol_name("_ChannelNum")
    3104                      .dwattr $C$DW$271, DW_AT_type(*$C$DW$T$98)
    3105                      .dwattr $C$DW$271, DW_AT_location[DW_OP_reg0]
    3106              
    3107              ;***************************************************************
    3108              ;* FNAME: _LDC161x_readSettleCnt        FR SIZE:   4           *
    3109              ;*                                                             *
    3110              ;* FUNCTION ENVIRONMENT                                        *
    3111              ;*                                                             *
    3112              ;* FUNCTION PROPERTIES                                         *
    3113              ;*                            0 Parameter,  0 Auto,  4 SOE     *
    3114              ;***************************************************************
    3115              
    3116              _LDC161x_readSettleCnt:
    3117              ;* AR2   assigned to _ChNum
    3118              $C$DW$272       .dwtag  DW_TAG_variable, DW_AT_name("ChNum")
    3119                      .dwattr $C$DW$272, DW_AT_TI_symbol_name("_ChNum")
    3120                      .dwattr $C$DW$272, DW_AT_type(*$C$DW$T$21)
    3121                      .dwattr $C$DW$272, DW_AT_location[DW_OP_reg8]
    3122              ;* AL    assigned to _drvRegName
    3123              $C$DW$273       .dwtag  DW_TAG_variable, DW_AT_name("drvRegName")
    3124                      .dwattr $C$DW$273, DW_AT_TI_symbol_name("_drvRegName")
    3125                      .dwattr $C$DW$273, DW_AT_type(*$C$DW$T$95)
    3126                      .dwattr $C$DW$273, DW_AT_location[DW_OP_reg0]
    3127              ;* AH    assigned to _drvDataNew
    3128              $C$DW$274       .dwtag  DW_TAG_variable, DW_AT_name("drvDataNew")
    3129                      .dwattr $C$DW$274, DW_AT_TI_symbol_name("_drvDataNew")
    3130                      .dwattr $C$DW$274, DW_AT_type(*$C$DW$T$21)
    3131                      .dwattr $C$DW$274, DW_AT_location[DW_OP_reg1]
    3132              ;* AL    assigned to _ChannelNum
    3133              $C$DW$275       .dwtag  DW_TAG_variable, DW_AT_name("ChannelNum")
    3134                      .dwattr $C$DW$275, DW_AT_TI_symbol_name("_ChannelNum")
    3135                      .dwattr $C$DW$275, DW_AT_type(*$C$DW$T$104)
    3136                      .dwattr $C$DW$275, DW_AT_location[DW_OP_reg0]
    3137              ;* AR1   assigned to _handle
