TMS320C2000 Assembler PC v15.12.3 Wed Nov 22 01:55:15 2017

Tools Copyright (c) 1996-2015 Texas Instruments Incorporated
C:\Users\wmj\AppData\Local\Temp\1239610                              PAGE    1

       1              ;***************************************************************
       2              ;* TMS320C2000 C/C++ Codegen                   PC v15.12.3.LTS *
       3              ;* Date/Time created: Wed Nov 22 01:55:15 2017                 *
       4              ;***************************************************************
       5                      .compiler_opts --abi=coffabi --float_support=softlib --hll_source=on --mem_model:code=flat --mem_mode
       6        0002  FP      .set    XAR2
       7              
       8              $C$DW$CU        .dwtag  DW_TAG_compile_unit
       9                      .dwattr $C$DW$CU, DW_AT_name("C:/Users/wmj/Desktop/BM1000_v1.1/sw/drivers/drvic/modbus/mb.c")
      10                      .dwattr $C$DW$CU, DW_AT_producer("TI TMS320C2000 C/C++ Codegen PC v15.12.3.LTS Copyright (c) 1996-201
      11                      .dwattr $C$DW$CU, DW_AT_TI_version(0x01)
      12                      .dwattr $C$DW$CU, DW_AT_comp_dir("C:\Users\wmj\Desktop\BM1000_v1.1\sw\solutions\instaspin_foc\boards\
      13              
      14              $C$DW$1 .dwtag  DW_TAG_subprogram
      15                      .dwattr $C$DW$1, DW_AT_name("FSM_clrOverCurrentReg")
      16                      .dwattr $C$DW$1, DW_AT_TI_symbol_name("_FSM_clrOverCurrentReg")
      17                      .dwattr $C$DW$1, DW_AT_declaration
      18                      .dwattr $C$DW$1, DW_AT_external
      19              $C$DW$2 .dwtag  DW_TAG_formal_parameter
      20                      .dwattr $C$DW$2, DW_AT_type(*$C$DW$T$121)
      21              
      22                      .dwendtag $C$DW$1
      23              
      24              
      25              $C$DW$3 .dwtag  DW_TAG_subprogram
      26                      .dwattr $C$DW$3, DW_AT_name("FSM_ShutDowm")
      27                      .dwattr $C$DW$3, DW_AT_TI_symbol_name("_FSM_ShutDowm")
      28                      .dwattr $C$DW$3, DW_AT_declaration
      29                      .dwattr $C$DW$3, DW_AT_external
      30              $C$DW$4 .dwtag  DW_TAG_formal_parameter
      31                      .dwattr $C$DW$4, DW_AT_type(*$C$DW$T$121)
      32              
      33                      .dwendtag $C$DW$3
      34              
      35              
      36              $C$DW$5 .dwtag  DW_TAG_subprogram
      37                      .dwattr $C$DW$5, DW_AT_name("FSM_485Edit_State_Box")
      38                      .dwattr $C$DW$5, DW_AT_TI_symbol_name("_FSM_485Edit_State_Box")
      39                      .dwattr $C$DW$5, DW_AT_declaration
      40                      .dwattr $C$DW$5, DW_AT_external
      41              $C$DW$6 .dwtag  DW_TAG_formal_parameter
      42                      .dwattr $C$DW$6, DW_AT_type(*$C$DW$T$121)
      43              
      44              $C$DW$7 .dwtag  DW_TAG_formal_parameter
      45                      .dwattr $C$DW$7, DW_AT_type(*$C$DW$T$221)
      46              
      47                      .dwendtag $C$DW$5
      48              
      49              
      50              $C$DW$8 .dwtag  DW_TAG_subprogram
      51                      .dwattr $C$DW$8, DW_AT_name("SCI_enableTx")
      52                      .dwattr $C$DW$8, DW_AT_TI_symbol_name("_SCI_enableTx")
      53                      .dwattr $C$DW$8, DW_AT_declaration
      54                      .dwattr $C$DW$8, DW_AT_external
      55              $C$DW$9 .dwtag  DW_TAG_formal_parameter
TMS320C2000 Assembler PC v15.12.3 Wed Nov 22 01:55:15 2017

Tools Copyright (c) 1996-2015 Texas Instruments Incorporated
C:\Users\wmj\AppData\Local\Temp\1239610                              PAGE    2

      56                      .dwattr $C$DW$9, DW_AT_type(*$C$DW$T$113)
      57              
      58                      .dwendtag $C$DW$8
      59              
      60              
      61              $C$DW$10        .dwtag  DW_TAG_subprogram
      62                      .dwattr $C$DW$10, DW_AT_name("SCI_disableTx")
      63                      .dwattr $C$DW$10, DW_AT_TI_symbol_name("_SCI_disableTx")
      64                      .dwattr $C$DW$10, DW_AT_declaration
      65                      .dwattr $C$DW$10, DW_AT_external
      66              $C$DW$11        .dwtag  DW_TAG_formal_parameter
      67                      .dwattr $C$DW$11, DW_AT_type(*$C$DW$T$113)
      68              
      69                      .dwendtag $C$DW$10
      70              
      71              
      72              $C$DW$12        .dwtag  DW_TAG_subprogram
      73                      .dwattr $C$DW$12, DW_AT_name("MOTOR_setMotorFlag")
      74                      .dwattr $C$DW$12, DW_AT_TI_symbol_name("_MOTOR_setMotorFlag")
      75                      .dwattr $C$DW$12, DW_AT_declaration
      76                      .dwattr $C$DW$12, DW_AT_external
      77              $C$DW$13        .dwtag  DW_TAG_formal_parameter
      78                      .dwattr $C$DW$13, DW_AT_type(*$C$DW$T$41)
      79              
      80              $C$DW$14        .dwtag  DW_TAG_formal_parameter
      81                      .dwattr $C$DW$14, DW_AT_type(*$C$DW$T$221)
      82              
      83                      .dwendtag $C$DW$12
      84              
      85              
      86              $C$DW$15        .dwtag  DW_TAG_subprogram
      87                      .dwattr $C$DW$15, DW_AT_name("GPIO_setHigh")
      88                      .dwattr $C$DW$15, DW_AT_TI_symbol_name("_GPIO_setHigh")
      89                      .dwattr $C$DW$15, DW_AT_declaration
      90                      .dwattr $C$DW$15, DW_AT_external
      91              $C$DW$16        .dwtag  DW_TAG_formal_parameter
      92                      .dwattr $C$DW$16, DW_AT_type(*$C$DW$T$88)
      93              
      94              $C$DW$17        .dwtag  DW_TAG_formal_parameter
      95                      .dwattr $C$DW$17, DW_AT_type(*$C$DW$T$192)
      96              
      97                      .dwendtag $C$DW$15
      98              
      99              
     100              $C$DW$18        .dwtag  DW_TAG_subprogram
     101                      .dwattr $C$DW$18, DW_AT_name("TIMER_clearFlag")
     102                      .dwattr $C$DW$18, DW_AT_TI_symbol_name("_TIMER_clearFlag")
     103                      .dwattr $C$DW$18, DW_AT_declaration
     104                      .dwattr $C$DW$18, DW_AT_external
     105              $C$DW$19        .dwtag  DW_TAG_formal_parameter
     106                      .dwattr $C$DW$19, DW_AT_type(*$C$DW$T$106)
     107              
     108                      .dwendtag $C$DW$18
     109              
     110              
TMS320C2000 Assembler PC v15.12.3 Wed Nov 22 01:55:15 2017

Tools Copyright (c) 1996-2015 Texas Instruments Incorporated
C:\Users\wmj\AppData\Local\Temp\1239610                              PAGE    3

     111              $C$DW$20        .dwtag  DW_TAG_subprogram
     112                      .dwattr $C$DW$20, DW_AT_name("SCI_enableRx")
     113                      .dwattr $C$DW$20, DW_AT_TI_symbol_name("_SCI_enableRx")
     114                      .dwattr $C$DW$20, DW_AT_declaration
     115                      .dwattr $C$DW$20, DW_AT_external
     116              $C$DW$21        .dwtag  DW_TAG_formal_parameter
     117                      .dwattr $C$DW$21, DW_AT_type(*$C$DW$T$113)
     118              
     119                      .dwendtag $C$DW$20
     120              
     121              
     122              $C$DW$22        .dwtag  DW_TAG_subprogram
     123                      .dwattr $C$DW$22, DW_AT_name("GPIO_setLow")
     124                      .dwattr $C$DW$22, DW_AT_TI_symbol_name("_GPIO_setLow")
     125                      .dwattr $C$DW$22, DW_AT_declaration
     126                      .dwattr $C$DW$22, DW_AT_external
     127              $C$DW$23        .dwtag  DW_TAG_formal_parameter
     128                      .dwattr $C$DW$23, DW_AT_type(*$C$DW$T$88)
     129              
     130              $C$DW$24        .dwtag  DW_TAG_formal_parameter
     131                      .dwattr $C$DW$24, DW_AT_type(*$C$DW$T$192)
     132              
     133                      .dwendtag $C$DW$22
     134              
     135              
     136              $C$DW$25        .dwtag  DW_TAG_subprogram
     137                      .dwattr $C$DW$25, DW_AT_name("SCI_disableRx")
     138                      .dwattr $C$DW$25, DW_AT_TI_symbol_name("_SCI_disableRx")
     139                      .dwattr $C$DW$25, DW_AT_declaration
     140                      .dwattr $C$DW$25, DW_AT_external
     141              $C$DW$26        .dwtag  DW_TAG_formal_parameter
     142                      .dwattr $C$DW$26, DW_AT_type(*$C$DW$T$113)
     143              
     144                      .dwendtag $C$DW$25
     145              
     146              
     147              $C$DW$27        .dwtag  DW_TAG_subprogram
     148                      .dwattr $C$DW$27, DW_AT_name("SCI_getDataNonBlocking")
     149                      .dwattr $C$DW$27, DW_AT_TI_symbol_name("_SCI_getDataNonBlocking")
     150                      .dwattr $C$DW$27, DW_AT_type(*$C$DW$T$21)
     151                      .dwattr $C$DW$27, DW_AT_declaration
     152                      .dwattr $C$DW$27, DW_AT_external
     153              $C$DW$28        .dwtag  DW_TAG_formal_parameter
     154                      .dwattr $C$DW$28, DW_AT_type(*$C$DW$T$113)
     155              
     156              $C$DW$29        .dwtag  DW_TAG_formal_parameter
     157                      .dwattr $C$DW$29, DW_AT_type(*$C$DW$T$264)
     158              
     159                      .dwendtag $C$DW$27
     160              
     161              
     162              $C$DW$30        .dwtag  DW_TAG_subprogram
     163                      .dwattr $C$DW$30, DW_AT_name("SCI_putDataNonBlocking")
     164                      .dwattr $C$DW$30, DW_AT_TI_symbol_name("_SCI_putDataNonBlocking")
     165                      .dwattr $C$DW$30, DW_AT_type(*$C$DW$T$21)
TMS320C2000 Assembler PC v15.12.3 Wed Nov 22 01:55:15 2017

Tools Copyright (c) 1996-2015 Texas Instruments Incorporated
C:\Users\wmj\AppData\Local\Temp\1239610                              PAGE    4

     166                      .dwattr $C$DW$30, DW_AT_declaration
     167                      .dwattr $C$DW$30, DW_AT_external
     168              $C$DW$31        .dwtag  DW_TAG_formal_parameter
     169                      .dwattr $C$DW$31, DW_AT_type(*$C$DW$T$113)
     170              
     171              $C$DW$32        .dwtag  DW_TAG_formal_parameter
     172                      .dwattr $C$DW$32, DW_AT_type(*$C$DW$T$21)
     173              
     174                      .dwendtag $C$DW$30
     175              
     176              
     177              $C$DW$33        .dwtag  DW_TAG_subprogram
     178                      .dwattr $C$DW$33, DW_AT_name("MOTOR_getMotorFlag")
     179                      .dwattr $C$DW$33, DW_AT_TI_symbol_name("_MOTOR_getMotorFlag")
     180                      .dwattr $C$DW$33, DW_AT_type(*$C$DW$T$21)
     181                      .dwattr $C$DW$33, DW_AT_declaration
     182                      .dwattr $C$DW$33, DW_AT_external
     183              $C$DW$34        .dwtag  DW_TAG_formal_parameter
     184                      .dwattr $C$DW$34, DW_AT_type(*$C$DW$T$41)
     185              
     186                      .dwendtag $C$DW$33
     187              
     188              
     189              $C$DW$35        .dwtag  DW_TAG_subprogram
     190                      .dwattr $C$DW$35, DW_AT_name("FSM_485Read_State_Box")
     191                      .dwattr $C$DW$35, DW_AT_TI_symbol_name("_FSM_485Read_State_Box")
     192                      .dwattr $C$DW$35, DW_AT_type(*$C$DW$T$21)
     193                      .dwattr $C$DW$35, DW_AT_declaration
     194                      .dwattr $C$DW$35, DW_AT_external
     195              $C$DW$36        .dwtag  DW_TAG_formal_parameter
     196                      .dwattr $C$DW$36, DW_AT_type(*$C$DW$T$121)
     197              
     198                      .dwendtag $C$DW$35
     199              
     200              
     201              $C$DW$37        .dwtag  DW_TAG_subprogram
     202                      .dwattr $C$DW$37, DW_AT_name("_IQ7int")
     203                      .dwattr $C$DW$37, DW_AT_TI_symbol_name("__IQ7int")
     204                      .dwattr $C$DW$37, DW_AT_type(*$C$DW$T$12)
     205                      .dwattr $C$DW$37, DW_AT_declaration
     206                      .dwattr $C$DW$37, DW_AT_external
     207              $C$DW$38        .dwtag  DW_TAG_formal_parameter
     208                      .dwattr $C$DW$38, DW_AT_type(*$C$DW$T$12)
     209              
     210                      .dwendtag $C$DW$37
     211              
     212              
     213              $C$DW$39        .dwtag  DW_TAG_subprogram
     214                      .dwattr $C$DW$39, DW_AT_name("__IQsat")
     215                      .dwattr $C$DW$39, DW_AT_TI_symbol_name("___IQsat")
     216                      .dwattr $C$DW$39, DW_AT_type(*$C$DW$T$12)
     217                      .dwattr $C$DW$39, DW_AT_declaration
     218                      .dwattr $C$DW$39, DW_AT_external
     219              $C$DW$40        .dwtag  DW_TAG_formal_parameter
     220                      .dwattr $C$DW$40, DW_AT_type(*$C$DW$T$12)
TMS320C2000 Assembler PC v15.12.3 Wed Nov 22 01:55:15 2017

Tools Copyright (c) 1996-2015 Texas Instruments Incorporated
C:\Users\wmj\AppData\Local\Temp\1239610                              PAGE    5

     221              
     222              $C$DW$41        .dwtag  DW_TAG_formal_parameter
     223                      .dwattr $C$DW$41, DW_AT_type(*$C$DW$T$12)
     224              
     225              $C$DW$42        .dwtag  DW_TAG_formal_parameter
     226                      .dwattr $C$DW$42, DW_AT_type(*$C$DW$T$12)
     227              
     228                      .dwendtag $C$DW$39
     229              
     230              
     231              $C$DW$43        .dwtag  DW_TAG_subprogram
     232                      .dwattr $C$DW$43, DW_AT_name("_IQ24frac")
     233                      .dwattr $C$DW$43, DW_AT_TI_symbol_name("__IQ24frac")
     234                      .dwattr $C$DW$43, DW_AT_type(*$C$DW$T$12)
     235                      .dwattr $C$DW$43, DW_AT_declaration
     236                      .dwattr $C$DW$43, DW_AT_external
     237              $C$DW$44        .dwtag  DW_TAG_formal_parameter
     238                      .dwattr $C$DW$44, DW_AT_type(*$C$DW$T$12)
     239              
     240                      .dwendtag $C$DW$43
     241              
     242              
     243              $C$DW$45        .dwtag  DW_TAG_subprogram
     244                      .dwattr $C$DW$45, DW_AT_name("_IQ7frac")
     245                      .dwattr $C$DW$45, DW_AT_TI_symbol_name("__IQ7frac")
     246                      .dwattr $C$DW$45, DW_AT_type(*$C$DW$T$12)
     247                      .dwattr $C$DW$45, DW_AT_declaration
     248                      .dwattr $C$DW$45, DW_AT_external
     249              $C$DW$46        .dwtag  DW_TAG_formal_parameter
     250                      .dwattr $C$DW$46, DW_AT_type(*$C$DW$T$12)
     251              
     252                      .dwendtag $C$DW$45
     253              
     254                      .global _aucCRCLo
     255 00000000               .sect   ".econst:.string:_aucCRCLo"
     256                      .clink
     257                      .align  1
     258 00000000       _aucCRCLo:
     259 00000000 0000          .bits   0,16                    ; _aucCRCLo[0] @ 0
     260 00000001 00C0          .bits   192,16                  ; _aucCRCLo[1] @ 16
     261 00000002 00C1          .bits   193,16                  ; _aucCRCLo[2] @ 32
     262 00000003 0001          .bits   1,16                    ; _aucCRCLo[3] @ 48
     263 00000004 00C3          .bits   195,16                  ; _aucCRCLo[4] @ 64
     264 00000005 0003          .bits   3,16                    ; _aucCRCLo[5] @ 80
     265 00000006 0002          .bits   2,16                    ; _aucCRCLo[6] @ 96
     266 00000007 00C2          .bits   194,16                  ; _aucCRCLo[7] @ 112
     267 00000008 00C6          .bits   198,16                  ; _aucCRCLo[8] @ 128
     268 00000009 0006          .bits   6,16                    ; _aucCRCLo[9] @ 144
     269 0000000a 0007          .bits   7,16                    ; _aucCRCLo[10] @ 160
     270 0000000b 00C7          .bits   199,16                  ; _aucCRCLo[11] @ 176
     271 0000000c 0005          .bits   5,16                    ; _aucCRCLo[12] @ 192
     272 0000000d 00C5          .bits   197,16                  ; _aucCRCLo[13] @ 208
     273 0000000e 00C4          .bits   196,16                  ; _aucCRCLo[14] @ 224
     274 0000000f 0004          .bits   4,16                    ; _aucCRCLo[15] @ 240
     275 00000010 00CC          .bits   204,16                  ; _aucCRCLo[16] @ 256
TMS320C2000 Assembler PC v15.12.3 Wed Nov 22 01:55:15 2017

Tools Copyright (c) 1996-2015 Texas Instruments Incorporated
C:\Users\wmj\AppData\Local\Temp\1239610                              PAGE    6

     276 00000011 000C          .bits   12,16                   ; _aucCRCLo[17] @ 272
     277 00000012 000D          .bits   13,16                   ; _aucCRCLo[18] @ 288
     278 00000013 00CD          .bits   205,16                  ; _aucCRCLo[19] @ 304
     279 00000014 000F          .bits   15,16                   ; _aucCRCLo[20] @ 320
     280 00000015 00CF          .bits   207,16                  ; _aucCRCLo[21] @ 336
     281 00000016 00CE          .bits   206,16                  ; _aucCRCLo[22] @ 352
     282 00000017 000E          .bits   14,16                   ; _aucCRCLo[23] @ 368
     283 00000018 000A          .bits   10,16                   ; _aucCRCLo[24] @ 384
     284 00000019 00CA          .bits   202,16                  ; _aucCRCLo[25] @ 400
     285 0000001a 00CB          .bits   203,16                  ; _aucCRCLo[26] @ 416
     286 0000001b 000B          .bits   11,16                   ; _aucCRCLo[27] @ 432
     287 0000001c 00C9          .bits   201,16                  ; _aucCRCLo[28] @ 448
     288 0000001d 0009          .bits   9,16                    ; _aucCRCLo[29] @ 464
     289 0000001e 0008          .bits   8,16                    ; _aucCRCLo[30] @ 480
     290 0000001f 00C8          .bits   200,16                  ; _aucCRCLo[31] @ 496
     291 00000020 00D8          .bits   216,16                  ; _aucCRCLo[32] @ 512
     292 00000021 0018          .bits   24,16                   ; _aucCRCLo[33] @ 528
     293 00000022 0019          .bits   25,16                   ; _aucCRCLo[34] @ 544
     294 00000023 00D9          .bits   217,16                  ; _aucCRCLo[35] @ 560
     295 00000024 001B          .bits   27,16                   ; _aucCRCLo[36] @ 576
     296 00000025 00DB          .bits   219,16                  ; _aucCRCLo[37] @ 592
     297 00000026 00DA          .bits   218,16                  ; _aucCRCLo[38] @ 608
     298 00000027 001A          .bits   26,16                   ; _aucCRCLo[39] @ 624
     299 00000028 001E          .bits   30,16                   ; _aucCRCLo[40] @ 640
     300 00000029 00DE          .bits   222,16                  ; _aucCRCLo[41] @ 656
     301 0000002a 00DF          .bits   223,16                  ; _aucCRCLo[42] @ 672
     302 0000002b 001F          .bits   31,16                   ; _aucCRCLo[43] @ 688
     303 0000002c 00DD          .bits   221,16                  ; _aucCRCLo[44] @ 704
     304 0000002d 001D          .bits   29,16                   ; _aucCRCLo[45] @ 720
     305 0000002e 001C          .bits   28,16                   ; _aucCRCLo[46] @ 736
     306 0000002f 00DC          .bits   220,16                  ; _aucCRCLo[47] @ 752
     307 00000030 0014          .bits   20,16                   ; _aucCRCLo[48] @ 768
     308 00000031 00D4          .bits   212,16                  ; _aucCRCLo[49] @ 784
     309 00000032 00D5          .bits   213,16                  ; _aucCRCLo[50] @ 800
     310 00000033 0015          .bits   21,16                   ; _aucCRCLo[51] @ 816
     311 00000034 00D7          .bits   215,16                  ; _aucCRCLo[52] @ 832
     312 00000035 0017          .bits   23,16                   ; _aucCRCLo[53] @ 848
     313 00000036 0016          .bits   22,16                   ; _aucCRCLo[54] @ 864
     314 00000037 00D6          .bits   214,16                  ; _aucCRCLo[55] @ 880
     315 00000038 00D2          .bits   210,16                  ; _aucCRCLo[56] @ 896
     316 00000039 0012          .bits   18,16                   ; _aucCRCLo[57] @ 912
     317 0000003a 0013          .bits   19,16                   ; _aucCRCLo[58] @ 928
     318 0000003b 00D3          .bits   211,16                  ; _aucCRCLo[59] @ 944
     319 0000003c 0011          .bits   17,16                   ; _aucCRCLo[60] @ 960
     320 0000003d 00D1          .bits   209,16                  ; _aucCRCLo[61] @ 976
     321 0000003e 00D0          .bits   208,16                  ; _aucCRCLo[62] @ 992
     322 0000003f 0010          .bits   16,16                   ; _aucCRCLo[63] @ 1008
     323 00000040 00F0          .bits   240,16                  ; _aucCRCLo[64] @ 1024
     324 00000041 0030          .bits   48,16                   ; _aucCRCLo[65] @ 1040
     325 00000042 0031          .bits   49,16                   ; _aucCRCLo[66] @ 1056
     326 00000043 00F1          .bits   241,16                  ; _aucCRCLo[67] @ 1072
     327 00000044 0033          .bits   51,16                   ; _aucCRCLo[68] @ 1088
     328 00000045 00F3          .bits   243,16                  ; _aucCRCLo[69] @ 1104
     329 00000046 00F2          .bits   242,16                  ; _aucCRCLo[70] @ 1120
     330 00000047 0032          .bits   50,16                   ; _aucCRCLo[71] @ 1136
TMS320C2000 Assembler PC v15.12.3 Wed Nov 22 01:55:15 2017

Tools Copyright (c) 1996-2015 Texas Instruments Incorporated
C:\Users\wmj\AppData\Local\Temp\1239610                              PAGE    7

     331 00000048 0036          .bits   54,16                   ; _aucCRCLo[72] @ 1152
     332 00000049 00F6          .bits   246,16                  ; _aucCRCLo[73] @ 1168
     333 0000004a 00F7          .bits   247,16                  ; _aucCRCLo[74] @ 1184
     334 0000004b 0037          .bits   55,16                   ; _aucCRCLo[75] @ 1200
     335 0000004c 00F5          .bits   245,16                  ; _aucCRCLo[76] @ 1216
     336 0000004d 0035          .bits   53,16                   ; _aucCRCLo[77] @ 1232
     337 0000004e 0034          .bits   52,16                   ; _aucCRCLo[78] @ 1248
     338 0000004f 00F4          .bits   244,16                  ; _aucCRCLo[79] @ 1264
     339 00000050 003C          .bits   60,16                   ; _aucCRCLo[80] @ 1280
     340 00000051 00FC          .bits   252,16                  ; _aucCRCLo[81] @ 1296
     341 00000052 00FD          .bits   253,16                  ; _aucCRCLo[82] @ 1312
     342 00000053 003D          .bits   61,16                   ; _aucCRCLo[83] @ 1328
     343 00000054 00FF          .bits   255,16                  ; _aucCRCLo[84] @ 1344
     344 00000055 003F          .bits   63,16                   ; _aucCRCLo[85] @ 1360
     345 00000056 003E          .bits   62,16                   ; _aucCRCLo[86] @ 1376
     346 00000057 00FE          .bits   254,16                  ; _aucCRCLo[87] @ 1392
     347 00000058 00FA          .bits   250,16                  ; _aucCRCLo[88] @ 1408
     348 00000059 003A          .bits   58,16                   ; _aucCRCLo[89] @ 1424
     349 0000005a 003B          .bits   59,16                   ; _aucCRCLo[90] @ 1440
     350 0000005b 00FB          .bits   251,16                  ; _aucCRCLo[91] @ 1456
     351 0000005c 0039          .bits   57,16                   ; _aucCRCLo[92] @ 1472
     352 0000005d 00F9          .bits   249,16                  ; _aucCRCLo[93] @ 1488
     353 0000005e 00F8          .bits   248,16                  ; _aucCRCLo[94] @ 1504
     354 0000005f 0038          .bits   56,16                   ; _aucCRCLo[95] @ 1520
     355 00000060 0028          .bits   40,16                   ; _aucCRCLo[96] @ 1536
     356 00000061 00E8          .bits   232,16                  ; _aucCRCLo[97] @ 1552
     357 00000062 00E9          .bits   233,16                  ; _aucCRCLo[98] @ 1568
     358 00000063 0029          .bits   41,16                   ; _aucCRCLo[99] @ 1584
     359 00000064 00EB          .bits   235,16                  ; _aucCRCLo[100] @ 1600
     360 00000065 002B          .bits   43,16                   ; _aucCRCLo[101] @ 1616
     361 00000066 002A          .bits   42,16                   ; _aucCRCLo[102] @ 1632
     362 00000067 00EA          .bits   234,16                  ; _aucCRCLo[103] @ 1648
     363 00000068 00EE          .bits   238,16                  ; _aucCRCLo[104] @ 1664
     364 00000069 002E          .bits   46,16                   ; _aucCRCLo[105] @ 1680
     365 0000006a 002F          .bits   47,16                   ; _aucCRCLo[106] @ 1696
     366 0000006b 00EF          .bits   239,16                  ; _aucCRCLo[107] @ 1712
     367 0000006c 002D          .bits   45,16                   ; _aucCRCLo[108] @ 1728
     368 0000006d 00ED          .bits   237,16                  ; _aucCRCLo[109] @ 1744
     369 0000006e 00EC          .bits   236,16                  ; _aucCRCLo[110] @ 1760
     370 0000006f 002C          .bits   44,16                   ; _aucCRCLo[111] @ 1776
     371 00000070 00E4          .bits   228,16                  ; _aucCRCLo[112] @ 1792
     372 00000071 0024          .bits   36,16                   ; _aucCRCLo[113] @ 1808
     373 00000072 0025          .bits   37,16                   ; _aucCRCLo[114] @ 1824
     374 00000073 00E5          .bits   229,16                  ; _aucCRCLo[115] @ 1840
     375 00000074 0027          .bits   39,16                   ; _aucCRCLo[116] @ 1856
     376 00000075 00E7          .bits   231,16                  ; _aucCRCLo[117] @ 1872
     377 00000076 00E6          .bits   230,16                  ; _aucCRCLo[118] @ 1888
     378 00000077 0026          .bits   38,16                   ; _aucCRCLo[119] @ 1904
     379 00000078 0022          .bits   34,16                   ; _aucCRCLo[120] @ 1920
     380 00000079 00E2          .bits   226,16                  ; _aucCRCLo[121] @ 1936
     381 0000007a 00E3          .bits   227,16                  ; _aucCRCLo[122] @ 1952
     382 0000007b 0023          .bits   35,16                   ; _aucCRCLo[123] @ 1968
     383 0000007c 00E1          .bits   225,16                  ; _aucCRCLo[124] @ 1984
     384 0000007d 0021          .bits   33,16                   ; _aucCRCLo[125] @ 2000
     385 0000007e 0020          .bits   32,16                   ; _aucCRCLo[126] @ 2016
TMS320C2000 Assembler PC v15.12.3 Wed Nov 22 01:55:15 2017

Tools Copyright (c) 1996-2015 Texas Instruments Incorporated
C:\Users\wmj\AppData\Local\Temp\1239610                              PAGE    8

     386 0000007f 00E0          .bits   224,16                  ; _aucCRCLo[127] @ 2032
     387 00000080 00A0          .bits   160,16                  ; _aucCRCLo[128] @ 2048
     388 00000081 0060          .bits   96,16                   ; _aucCRCLo[129] @ 2064
     389 00000082 0061          .bits   97,16                   ; _aucCRCLo[130] @ 2080
     390 00000083 00A1          .bits   161,16                  ; _aucCRCLo[131] @ 2096
     391 00000084 0063          .bits   99,16                   ; _aucCRCLo[132] @ 2112
     392 00000085 00A3          .bits   163,16                  ; _aucCRCLo[133] @ 2128
     393 00000086 00A2          .bits   162,16                  ; _aucCRCLo[134] @ 2144
     394 00000087 0062          .bits   98,16                   ; _aucCRCLo[135] @ 2160
     395 00000088 0066          .bits   102,16                  ; _aucCRCLo[136] @ 2176
     396 00000089 00A6          .bits   166,16                  ; _aucCRCLo[137] @ 2192
     397 0000008a 00A7          .bits   167,16                  ; _aucCRCLo[138] @ 2208
     398 0000008b 0067          .bits   103,16                  ; _aucCRCLo[139] @ 2224
     399 0000008c 00A5          .bits   165,16                  ; _aucCRCLo[140] @ 2240
     400 0000008d 0065          .bits   101,16                  ; _aucCRCLo[141] @ 2256
     401 0000008e 0064          .bits   100,16                  ; _aucCRCLo[142] @ 2272
     402 0000008f 00A4          .bits   164,16                  ; _aucCRCLo[143] @ 2288
     403 00000090 006C          .bits   108,16                  ; _aucCRCLo[144] @ 2304
     404 00000091 00AC          .bits   172,16                  ; _aucCRCLo[145] @ 2320
     405 00000092 00AD          .bits   173,16                  ; _aucCRCLo[146] @ 2336
     406 00000093 006D          .bits   109,16                  ; _aucCRCLo[147] @ 2352
     407 00000094 00AF          .bits   175,16                  ; _aucCRCLo[148] @ 2368
     408 00000095 006F          .bits   111,16                  ; _aucCRCLo[149] @ 2384
     409 00000096 006E          .bits   110,16                  ; _aucCRCLo[150] @ 2400
     410 00000097 00AE          .bits   174,16                  ; _aucCRCLo[151] @ 2416
     411 00000098 00AA          .bits   170,16                  ; _aucCRCLo[152] @ 2432
     412 00000099 006A          .bits   106,16                  ; _aucCRCLo[153] @ 2448
     413 0000009a 006B          .bits   107,16                  ; _aucCRCLo[154] @ 2464
     414 0000009b 00AB          .bits   171,16                  ; _aucCRCLo[155] @ 2480
     415 0000009c 0069          .bits   105,16                  ; _aucCRCLo[156] @ 2496
     416 0000009d 00A9          .bits   169,16                  ; _aucCRCLo[157] @ 2512
     417 0000009e 00A8          .bits   168,16                  ; _aucCRCLo[158] @ 2528
     418 0000009f 0068          .bits   104,16                  ; _aucCRCLo[159] @ 2544
     419 000000a0 0078          .bits   120,16                  ; _aucCRCLo[160] @ 2560
     420 000000a1 00B8          .bits   184,16                  ; _aucCRCLo[161] @ 2576
     421 000000a2 00B9          .bits   185,16                  ; _aucCRCLo[162] @ 2592
     422 000000a3 0079          .bits   121,16                  ; _aucCRCLo[163] @ 2608
     423 000000a4 00BB          .bits   187,16                  ; _aucCRCLo[164] @ 2624
     424 000000a5 007B          .bits   123,16                  ; _aucCRCLo[165] @ 2640
     425 000000a6 007A          .bits   122,16                  ; _aucCRCLo[166] @ 2656
     426 000000a7 00BA          .bits   186,16                  ; _aucCRCLo[167] @ 2672
     427 000000a8 00BE          .bits   190,16                  ; _aucCRCLo[168] @ 2688
     428 000000a9 007E          .bits   126,16                  ; _aucCRCLo[169] @ 2704
     429 000000aa 007F          .bits   127,16                  ; _aucCRCLo[170] @ 2720
     430 000000ab 00BF          .bits   191,16                  ; _aucCRCLo[171] @ 2736
     431 000000ac 007D          .bits   125,16                  ; _aucCRCLo[172] @ 2752
     432 000000ad 00BD          .bits   189,16                  ; _aucCRCLo[173] @ 2768
     433 000000ae 00BC          .bits   188,16                  ; _aucCRCLo[174] @ 2784
     434 000000af 007C          .bits   124,16                  ; _aucCRCLo[175] @ 2800
     435 000000b0 00B4          .bits   180,16                  ; _aucCRCLo[176] @ 2816
     436 000000b1 0074          .bits   116,16                  ; _aucCRCLo[177] @ 2832
     437 000000b2 0075          .bits   117,16                  ; _aucCRCLo[178] @ 2848
     438 000000b3 00B5          .bits   181,16                  ; _aucCRCLo[179] @ 2864
     439 000000b4 0077          .bits   119,16                  ; _aucCRCLo[180] @ 2880
     440 000000b5 00B7          .bits   183,16                  ; _aucCRCLo[181] @ 2896
TMS320C2000 Assembler PC v15.12.3 Wed Nov 22 01:55:15 2017

Tools Copyright (c) 1996-2015 Texas Instruments Incorporated
C:\Users\wmj\AppData\Local\Temp\1239610                              PAGE    9

     441 000000b6 00B6          .bits   182,16                  ; _aucCRCLo[182] @ 2912
     442 000000b7 0076          .bits   118,16                  ; _aucCRCLo[183] @ 2928
     443 000000b8 0072          .bits   114,16                  ; _aucCRCLo[184] @ 2944
     444 000000b9 00B2          .bits   178,16                  ; _aucCRCLo[185] @ 2960
     445 000000ba 00B3          .bits   179,16                  ; _aucCRCLo[186] @ 2976
     446 000000bb 0073          .bits   115,16                  ; _aucCRCLo[187] @ 2992
     447 000000bc 00B1          .bits   177,16                  ; _aucCRCLo[188] @ 3008
     448 000000bd 0071          .bits   113,16                  ; _aucCRCLo[189] @ 3024
     449 000000be 0070          .bits   112,16                  ; _aucCRCLo[190] @ 3040
     450 000000bf 00B0          .bits   176,16                  ; _aucCRCLo[191] @ 3056
     451 000000c0 0050          .bits   80,16                   ; _aucCRCLo[192] @ 3072
     452 000000c1 0090          .bits   144,16                  ; _aucCRCLo[193] @ 3088
     453 000000c2 0091          .bits   145,16                  ; _aucCRCLo[194] @ 3104
     454 000000c3 0051          .bits   81,16                   ; _aucCRCLo[195] @ 3120
     455 000000c4 0093          .bits   147,16                  ; _aucCRCLo[196] @ 3136
     456 000000c5 0053          .bits   83,16                   ; _aucCRCLo[197] @ 3152
     457 000000c6 0052          .bits   82,16                   ; _aucCRCLo[198] @ 3168
     458 000000c7 0092          .bits   146,16                  ; _aucCRCLo[199] @ 3184
     459 000000c8 0096          .bits   150,16                  ; _aucCRCLo[200] @ 3200
     460 000000c9 0056          .bits   86,16                   ; _aucCRCLo[201] @ 3216
     461 000000ca 0057          .bits   87,16                   ; _aucCRCLo[202] @ 3232
     462 000000cb 0097          .bits   151,16                  ; _aucCRCLo[203] @ 3248
     463 000000cc 0055          .bits   85,16                   ; _aucCRCLo[204] @ 3264
     464 000000cd 0095          .bits   149,16                  ; _aucCRCLo[205] @ 3280
     465 000000ce 0094          .bits   148,16                  ; _aucCRCLo[206] @ 3296
     466 000000cf 0054          .bits   84,16                   ; _aucCRCLo[207] @ 3312
     467 000000d0 009C          .bits   156,16                  ; _aucCRCLo[208] @ 3328
     468 000000d1 005C          .bits   92,16                   ; _aucCRCLo[209] @ 3344
     469 000000d2 005D          .bits   93,16                   ; _aucCRCLo[210] @ 3360
     470 000000d3 009D          .bits   157,16                  ; _aucCRCLo[211] @ 3376
     471 000000d4 005F          .bits   95,16                   ; _aucCRCLo[212] @ 3392
     472 000000d5 009F          .bits   159,16                  ; _aucCRCLo[213] @ 3408
     473 000000d6 009E          .bits   158,16                  ; _aucCRCLo[214] @ 3424
     474 000000d7 005E          .bits   94,16                   ; _aucCRCLo[215] @ 3440
     475 000000d8 005A          .bits   90,16                   ; _aucCRCLo[216] @ 3456
     476 000000d9 009A          .bits   154,16                  ; _aucCRCLo[217] @ 3472
     477 000000da 009B          .bits   155,16                  ; _aucCRCLo[218] @ 3488
     478 000000db 005B          .bits   91,16                   ; _aucCRCLo[219] @ 3504
     479 000000dc 0099          .bits   153,16                  ; _aucCRCLo[220] @ 3520
     480 000000dd 0059          .bits   89,16                   ; _aucCRCLo[221] @ 3536
     481 000000de 0058          .bits   88,16                   ; _aucCRCLo[222] @ 3552
     482 000000df 0098          .bits   152,16                  ; _aucCRCLo[223] @ 3568
     483 000000e0 0088          .bits   136,16                  ; _aucCRCLo[224] @ 3584
     484 000000e1 0048          .bits   72,16                   ; _aucCRCLo[225] @ 3600
     485 000000e2 0049          .bits   73,16                   ; _aucCRCLo[226] @ 3616
     486 000000e3 0089          .bits   137,16                  ; _aucCRCLo[227] @ 3632
     487 000000e4 004B          .bits   75,16                   ; _aucCRCLo[228] @ 3648
     488 000000e5 008B          .bits   139,16                  ; _aucCRCLo[229] @ 3664
     489 000000e6 008A          .bits   138,16                  ; _aucCRCLo[230] @ 3680
     490 000000e7 004A          .bits   74,16                   ; _aucCRCLo[231] @ 3696
     491 000000e8 004E          .bits   78,16                   ; _aucCRCLo[232] @ 3712
     492 000000e9 008E          .bits   142,16                  ; _aucCRCLo[233] @ 3728
     493 000000ea 008F          .bits   143,16                  ; _aucCRCLo[234] @ 3744
     494 000000eb 004F          .bits   79,16                   ; _aucCRCLo[235] @ 3760
     495 000000ec 008D          .bits   141,16                  ; _aucCRCLo[236] @ 3776
TMS320C2000 Assembler PC v15.12.3 Wed Nov 22 01:55:15 2017

Tools Copyright (c) 1996-2015 Texas Instruments Incorporated
C:\Users\wmj\AppData\Local\Temp\1239610                              PAGE   10

     496 000000ed 004D          .bits   77,16                   ; _aucCRCLo[237] @ 3792
     497 000000ee 004C          .bits   76,16                   ; _aucCRCLo[238] @ 3808
     498 000000ef 008C          .bits   140,16                  ; _aucCRCLo[239] @ 3824
     499 000000f0 0044          .bits   68,16                   ; _aucCRCLo[240] @ 3840
     500 000000f1 0084          .bits   132,16                  ; _aucCRCLo[241] @ 3856
     501 000000f2 0085          .bits   133,16                  ; _aucCRCLo[242] @ 3872
     502 000000f3 0045          .bits   69,16                   ; _aucCRCLo[243] @ 3888
     503 000000f4 0087          .bits   135,16                  ; _aucCRCLo[244] @ 3904
     504 000000f5 0047          .bits   71,16                   ; _aucCRCLo[245] @ 3920
     505 000000f6 0046          .bits   70,16                   ; _aucCRCLo[246] @ 3936
     506 000000f7 0086          .bits   134,16                  ; _aucCRCLo[247] @ 3952
     507 000000f8 0082          .bits   130,16                  ; _aucCRCLo[248] @ 3968
     508 000000f9 0042          .bits   66,16                   ; _aucCRCLo[249] @ 3984
     509 000000fa 0043          .bits   67,16                   ; _aucCRCLo[250] @ 4000
     510 000000fb 0083          .bits   131,16                  ; _aucCRCLo[251] @ 4016
     511 000000fc 0041          .bits   65,16                   ; _aucCRCLo[252] @ 4032
     512 000000fd 0081          .bits   129,16                  ; _aucCRCLo[253] @ 4048
     513 000000fe 0080          .bits   128,16                  ; _aucCRCLo[254] @ 4064
     514 000000ff 0040          .bits   64,16                   ; _aucCRCLo[255] @ 4080
     515              
     516              $C$DW$47        .dwtag  DW_TAG_variable
     517                      .dwattr $C$DW$47, DW_AT_name("aucCRCLo")
     518                      .dwattr $C$DW$47, DW_AT_TI_symbol_name("_aucCRCLo")
     519                      .dwattr $C$DW$47, DW_AT_location[DW_OP_addr _aucCRCLo]
     520                      .dwattr $C$DW$47, DW_AT_type(*$C$DW$T$252)
     521                      .dwattr $C$DW$47, DW_AT_external
     522              
     523                      .global _aucCRCHi
     524 00000000               .sect   ".econst:.string:_aucCRCHi"
     525                      .clink
     526                      .align  1
     527 00000000       _aucCRCHi:
     528 00000000 0000          .bits   0,16                    ; _aucCRCHi[0] @ 0
     529 00000001 00C1          .bits   193,16                  ; _aucCRCHi[1] @ 16
     530 00000002 0081          .bits   129,16                  ; _aucCRCHi[2] @ 32
     531 00000003 0040          .bits   64,16                   ; _aucCRCHi[3] @ 48
     532 00000004 0001          .bits   1,16                    ; _aucCRCHi[4] @ 64
     533 00000005 00C0          .bits   192,16                  ; _aucCRCHi[5] @ 80
     534 00000006 0080          .bits   128,16                  ; _aucCRCHi[6] @ 96
     535 00000007 0041          .bits   65,16                   ; _aucCRCHi[7] @ 112
     536 00000008 0001          .bits   1,16                    ; _aucCRCHi[8] @ 128
     537 00000009 00C0          .bits   192,16                  ; _aucCRCHi[9] @ 144
     538 0000000a 0080          .bits   128,16                  ; _aucCRCHi[10] @ 160
     539 0000000b 0041          .bits   65,16                   ; _aucCRCHi[11] @ 176
     540 0000000c 0000          .bits   0,16                    ; _aucCRCHi[12] @ 192
     541 0000000d 00C1          .bits   193,16                  ; _aucCRCHi[13] @ 208
     542 0000000e 0081          .bits   129,16                  ; _aucCRCHi[14] @ 224
     543 0000000f 0040          .bits   64,16                   ; _aucCRCHi[15] @ 240
     544 00000010 0001          .bits   1,16                    ; _aucCRCHi[16] @ 256
     545 00000011 00C0          .bits   192,16                  ; _aucCRCHi[17] @ 272
     546 00000012 0080          .bits   128,16                  ; _aucCRCHi[18] @ 288
     547 00000013 0041          .bits   65,16                   ; _aucCRCHi[19] @ 304
     548 00000014 0000          .bits   0,16                    ; _aucCRCHi[20] @ 320
     549 00000015 00C1          .bits   193,16                  ; _aucCRCHi[21] @ 336
     550 00000016 0081          .bits   129,16                  ; _aucCRCHi[22] @ 352
TMS320C2000 Assembler PC v15.12.3 Wed Nov 22 01:55:15 2017

Tools Copyright (c) 1996-2015 Texas Instruments Incorporated
C:\Users\wmj\AppData\Local\Temp\1239610                              PAGE   11

     551 00000017 0040          .bits   64,16                   ; _aucCRCHi[23] @ 368
     552 00000018 0000          .bits   0,16                    ; _aucCRCHi[24] @ 384
     553 00000019 00C1          .bits   193,16                  ; _aucCRCHi[25] @ 400
     554 0000001a 0081          .bits   129,16                  ; _aucCRCHi[26] @ 416
     555 0000001b 0040          .bits   64,16                   ; _aucCRCHi[27] @ 432
     556 0000001c 0001          .bits   1,16                    ; _aucCRCHi[28] @ 448
     557 0000001d 00C0          .bits   192,16                  ; _aucCRCHi[29] @ 464
     558 0000001e 0080          .bits   128,16                  ; _aucCRCHi[30] @ 480
     559 0000001f 0041          .bits   65,16                   ; _aucCRCHi[31] @ 496
     560 00000020 0001          .bits   1,16                    ; _aucCRCHi[32] @ 512
     561 00000021 00C0          .bits   192,16                  ; _aucCRCHi[33] @ 528
     562 00000022 0080          .bits   128,16                  ; _aucCRCHi[34] @ 544
     563 00000023 0041          .bits   65,16                   ; _aucCRCHi[35] @ 560
     564 00000024 0000          .bits   0,16                    ; _aucCRCHi[36] @ 576
     565 00000025 00C1          .bits   193,16                  ; _aucCRCHi[37] @ 592
     566 00000026 0081          .bits   129,16                  ; _aucCRCHi[38] @ 608
     567 00000027 0040          .bits   64,16                   ; _aucCRCHi[39] @ 624
     568 00000028 0000          .bits   0,16                    ; _aucCRCHi[40] @ 640
     569 00000029 00C1          .bits   193,16                  ; _aucCRCHi[41] @ 656
     570 0000002a 0081          .bits   129,16                  ; _aucCRCHi[42] @ 672
     571 0000002b 0040          .bits   64,16                   ; _aucCRCHi[43] @ 688
     572 0000002c 0001          .bits   1,16                    ; _aucCRCHi[44] @ 704
     573 0000002d 00C0          .bits   192,16                  ; _aucCRCHi[45] @ 720
     574 0000002e 0080          .bits   128,16                  ; _aucCRCHi[46] @ 736
     575 0000002f 0041          .bits   65,16                   ; _aucCRCHi[47] @ 752
     576 00000030 0000          .bits   0,16                    ; _aucCRCHi[48] @ 768
     577 00000031 00C1          .bits   193,16                  ; _aucCRCHi[49] @ 784
     578 00000032 0081          .bits   129,16                  ; _aucCRCHi[50] @ 800
     579 00000033 0040          .bits   64,16                   ; _aucCRCHi[51] @ 816
     580 00000034 0001          .bits   1,16                    ; _aucCRCHi[52] @ 832
     581 00000035 00C0          .bits   192,16                  ; _aucCRCHi[53] @ 848
     582 00000036 0080          .bits   128,16                  ; _aucCRCHi[54] @ 864
     583 00000037 0041          .bits   65,16                   ; _aucCRCHi[55] @ 880
     584 00000038 0001          .bits   1,16                    ; _aucCRCHi[56] @ 896
     585 00000039 00C0          .bits   192,16                  ; _aucCRCHi[57] @ 912
     586 0000003a 0080          .bits   128,16                  ; _aucCRCHi[58] @ 928
     587 0000003b 0041          .bits   65,16                   ; _aucCRCHi[59] @ 944
     588 0000003c 0000          .bits   0,16                    ; _aucCRCHi[60] @ 960
     589 0000003d 00C1          .bits   193,16                  ; _aucCRCHi[61] @ 976
     590 0000003e 0081          .bits   129,16                  ; _aucCRCHi[62] @ 992
     591 0000003f 0040          .bits   64,16                   ; _aucCRCHi[63] @ 1008
     592 00000040 0001          .bits   1,16                    ; _aucCRCHi[64] @ 1024
     593 00000041 00C0          .bits   192,16                  ; _aucCRCHi[65] @ 1040
     594 00000042 0080          .bits   128,16                  ; _aucCRCHi[66] @ 1056
     595 00000043 0041          .bits   65,16                   ; _aucCRCHi[67] @ 1072
     596 00000044 0000          .bits   0,16                    ; _aucCRCHi[68] @ 1088
     597 00000045 00C1          .bits   193,16                  ; _aucCRCHi[69] @ 1104
     598 00000046 0081          .bits   129,16                  ; _aucCRCHi[70] @ 1120
     599 00000047 0040          .bits   64,16                   ; _aucCRCHi[71] @ 1136
     600 00000048 0000          .bits   0,16                    ; _aucCRCHi[72] @ 1152
     601 00000049 00C1          .bits   193,16                  ; _aucCRCHi[73] @ 1168
     602 0000004a 0081          .bits   129,16                  ; _aucCRCHi[74] @ 1184
     603 0000004b 0040          .bits   64,16                   ; _aucCRCHi[75] @ 1200
     604 0000004c 0001          .bits   1,16                    ; _aucCRCHi[76] @ 1216
     605 0000004d 00C0          .bits   192,16                  ; _aucCRCHi[77] @ 1232
TMS320C2000 Assembler PC v15.12.3 Wed Nov 22 01:55:15 2017

Tools Copyright (c) 1996-2015 Texas Instruments Incorporated
C:\Users\wmj\AppData\Local\Temp\1239610                              PAGE   12

     606 0000004e 0080          .bits   128,16                  ; _aucCRCHi[78] @ 1248
     607 0000004f 0041          .bits   65,16                   ; _aucCRCHi[79] @ 1264
     608 00000050 0000          .bits   0,16                    ; _aucCRCHi[80] @ 1280
     609 00000051 00C1          .bits   193,16                  ; _aucCRCHi[81] @ 1296
     610 00000052 0081          .bits   129,16                  ; _aucCRCHi[82] @ 1312
     611 00000053 0040          .bits   64,16                   ; _aucCRCHi[83] @ 1328
     612 00000054 0001          .bits   1,16                    ; _aucCRCHi[84] @ 1344
     613 00000055 00C0          .bits   192,16                  ; _aucCRCHi[85] @ 1360
     614 00000056 0080          .bits   128,16                  ; _aucCRCHi[86] @ 1376
     615 00000057 0041          .bits   65,16                   ; _aucCRCHi[87] @ 1392
     616 00000058 0001          .bits   1,16                    ; _aucCRCHi[88] @ 1408
     617 00000059 00C0          .bits   192,16                  ; _aucCRCHi[89] @ 1424
     618 0000005a 0080          .bits   128,16                  ; _aucCRCHi[90] @ 1440
     619 0000005b 0041          .bits   65,16                   ; _aucCRCHi[91] @ 1456
     620 0000005c 0000          .bits   0,16                    ; _aucCRCHi[92] @ 1472
     621 0000005d 00C1          .bits   193,16                  ; _aucCRCHi[93] @ 1488
     622 0000005e 0081          .bits   129,16                  ; _aucCRCHi[94] @ 1504
     623 0000005f 0040          .bits   64,16                   ; _aucCRCHi[95] @ 1520
     624 00000060 0000          .bits   0,16                    ; _aucCRCHi[96] @ 1536
     625 00000061 00C1          .bits   193,16                  ; _aucCRCHi[97] @ 1552
     626 00000062 0081          .bits   129,16                  ; _aucCRCHi[98] @ 1568
     627 00000063 0040          .bits   64,16                   ; _aucCRCHi[99] @ 1584
     628 00000064 0001          .bits   1,16                    ; _aucCRCHi[100] @ 1600
     629 00000065 00C0          .bits   192,16                  ; _aucCRCHi[101] @ 1616
     630 00000066 0080          .bits   128,16                  ; _aucCRCHi[102] @ 1632
     631 00000067 0041          .bits   65,16                   ; _aucCRCHi[103] @ 1648
     632 00000068 0001          .bits   1,16                    ; _aucCRCHi[104] @ 1664
     633 00000069 00C0          .bits   192,16                  ; _aucCRCHi[105] @ 1680
     634 0000006a 0080          .bits   128,16                  ; _aucCRCHi[106] @ 1696
     635 0000006b 0041          .bits   65,16                   ; _aucCRCHi[107] @ 1712
     636 0000006c 0000          .bits   0,16                    ; _aucCRCHi[108] @ 1728
     637 0000006d 00C1          .bits   193,16                  ; _aucCRCHi[109] @ 1744
     638 0000006e 0081          .bits   129,16                  ; _aucCRCHi[110] @ 1760
     639 0000006f 0040          .bits   64,16                   ; _aucCRCHi[111] @ 1776
     640 00000070 0001          .bits   1,16                    ; _aucCRCHi[112] @ 1792
     641 00000071 00C0          .bits   192,16                  ; _aucCRCHi[113] @ 1808
     642 00000072 0080          .bits   128,16                  ; _aucCRCHi[114] @ 1824
     643 00000073 0041          .bits   65,16                   ; _aucCRCHi[115] @ 1840
     644 00000074 0000          .bits   0,16                    ; _aucCRCHi[116] @ 1856
     645 00000075 00C1          .bits   193,16                  ; _aucCRCHi[117] @ 1872
     646 00000076 0081          .bits   129,16                  ; _aucCRCHi[118] @ 1888
     647 00000077 0040          .bits   64,16                   ; _aucCRCHi[119] @ 1904
     648 00000078 0000          .bits   0,16                    ; _aucCRCHi[120] @ 1920
     649 00000079 00C1          .bits   193,16                  ; _aucCRCHi[121] @ 1936
     650 0000007a 0081          .bits   129,16                  ; _aucCRCHi[122] @ 1952
     651 0000007b 0040          .bits   64,16                   ; _aucCRCHi[123] @ 1968
     652 0000007c 0001          .bits   1,16                    ; _aucCRCHi[124] @ 1984
     653 0000007d 00C0          .bits   192,16                  ; _aucCRCHi[125] @ 2000
     654 0000007e 0080          .bits   128,16                  ; _aucCRCHi[126] @ 2016
     655 0000007f 0041          .bits   65,16                   ; _aucCRCHi[127] @ 2032
     656 00000080 0001          .bits   1,16                    ; _aucCRCHi[128] @ 2048
     657 00000081 00C0          .bits   192,16                  ; _aucCRCHi[129] @ 2064
     658 00000082 0080          .bits   128,16                  ; _aucCRCHi[130] @ 2080
     659 00000083 0041          .bits   65,16                   ; _aucCRCHi[131] @ 2096
     660 00000084 0000          .bits   0,16                    ; _aucCRCHi[132] @ 2112
TMS320C2000 Assembler PC v15.12.3 Wed Nov 22 01:55:15 2017

Tools Copyright (c) 1996-2015 Texas Instruments Incorporated
C:\Users\wmj\AppData\Local\Temp\1239610                              PAGE   13

     661 00000085 00C1          .bits   193,16                  ; _aucCRCHi[133] @ 2128
     662 00000086 0081          .bits   129,16                  ; _aucCRCHi[134] @ 2144
     663 00000087 0040          .bits   64,16                   ; _aucCRCHi[135] @ 2160
     664 00000088 0000          .bits   0,16                    ; _aucCRCHi[136] @ 2176
     665 00000089 00C1          .bits   193,16                  ; _aucCRCHi[137] @ 2192
     666 0000008a 0081          .bits   129,16                  ; _aucCRCHi[138] @ 2208
     667 0000008b 0040          .bits   64,16                   ; _aucCRCHi[139] @ 2224
     668 0000008c 0001          .bits   1,16                    ; _aucCRCHi[140] @ 2240
     669 0000008d 00C0          .bits   192,16                  ; _aucCRCHi[141] @ 2256
     670 0000008e 0080          .bits   128,16                  ; _aucCRCHi[142] @ 2272
     671 0000008f 0041          .bits   65,16                   ; _aucCRCHi[143] @ 2288
     672 00000090 0000          .bits   0,16                    ; _aucCRCHi[144] @ 2304
     673 00000091 00C1          .bits   193,16                  ; _aucCRCHi[145] @ 2320
     674 00000092 0081          .bits   129,16                  ; _aucCRCHi[146] @ 2336
     675 00000093 0040          .bits   64,16                   ; _aucCRCHi[147] @ 2352
     676 00000094 0001          .bits   1,16                    ; _aucCRCHi[148] @ 2368
     677 00000095 00C0          .bits   192,16                  ; _aucCRCHi[149] @ 2384
     678 00000096 0080          .bits   128,16                  ; _aucCRCHi[150] @ 2400
     679 00000097 0041          .bits   65,16                   ; _aucCRCHi[151] @ 2416
     680 00000098 0001          .bits   1,16                    ; _aucCRCHi[152] @ 2432
     681 00000099 00C0          .bits   192,16                  ; _aucCRCHi[153] @ 2448
     682 0000009a 0080          .bits   128,16                  ; _aucCRCHi[154] @ 2464
     683 0000009b 0041          .bits   65,16                   ; _aucCRCHi[155] @ 2480
     684 0000009c 0000          .bits   0,16                    ; _aucCRCHi[156] @ 2496
     685 0000009d 00C1          .bits   193,16                  ; _aucCRCHi[157] @ 2512
     686 0000009e 0081          .bits   129,16                  ; _aucCRCHi[158] @ 2528
     687 0000009f 0040          .bits   64,16                   ; _aucCRCHi[159] @ 2544
     688 000000a0 0000          .bits   0,16                    ; _aucCRCHi[160] @ 2560
     689 000000a1 00C1          .bits   193,16                  ; _aucCRCHi[161] @ 2576
     690 000000a2 0081          .bits   129,16                  ; _aucCRCHi[162] @ 2592
     691 000000a3 0040          .bits   64,16                   ; _aucCRCHi[163] @ 2608
     692 000000a4 0001          .bits   1,16                    ; _aucCRCHi[164] @ 2624
     693 000000a5 00C0          .bits   192,16                  ; _aucCRCHi[165] @ 2640
     694 000000a6 0080          .bits   128,16                  ; _aucCRCHi[166] @ 2656
     695 000000a7 0041          .bits   65,16                   ; _aucCRCHi[167] @ 2672
     696 000000a8 0001          .bits   1,16                    ; _aucCRCHi[168] @ 2688
     697 000000a9 00C0          .bits   192,16                  ; _aucCRCHi[169] @ 2704
     698 000000aa 0080          .bits   128,16                  ; _aucCRCHi[170] @ 2720
     699 000000ab 0041          .bits   65,16                   ; _aucCRCHi[171] @ 2736
     700 000000ac 0000          .bits   0,16                    ; _aucCRCHi[172] @ 2752
     701 000000ad 00C1          .bits   193,16                  ; _aucCRCHi[173] @ 2768
     702 000000ae 0081          .bits   129,16                  ; _aucCRCHi[174] @ 2784
     703 000000af 0040          .bits   64,16                   ; _aucCRCHi[175] @ 2800
     704 000000b0 0001          .bits   1,16                    ; _aucCRCHi[176] @ 2816
     705 000000b1 00C0          .bits   192,16                  ; _aucCRCHi[177] @ 2832
     706 000000b2 0080          .bits   128,16                  ; _aucCRCHi[178] @ 2848
     707 000000b3 0041          .bits   65,16                   ; _aucCRCHi[179] @ 2864
     708 000000b4 0000          .bits   0,16                    ; _aucCRCHi[180] @ 2880
     709 000000b5 00C1          .bits   193,16                  ; _aucCRCHi[181] @ 2896
     710 000000b6 0081          .bits   129,16                  ; _aucCRCHi[182] @ 2912
     711 000000b7 0040          .bits   64,16                   ; _aucCRCHi[183] @ 2928
     712 000000b8 0000          .bits   0,16                    ; _aucCRCHi[184] @ 2944
     713 000000b9 00C1          .bits   193,16                  ; _aucCRCHi[185] @ 2960
     714 000000ba 0081          .bits   129,16                  ; _aucCRCHi[186] @ 2976
     715 000000bb 0040          .bits   64,16                   ; _aucCRCHi[187] @ 2992
TMS320C2000 Assembler PC v15.12.3 Wed Nov 22 01:55:15 2017

Tools Copyright (c) 1996-2015 Texas Instruments Incorporated
C:\Users\wmj\AppData\Local\Temp\1239610                              PAGE   14

     716 000000bc 0001          .bits   1,16                    ; _aucCRCHi[188] @ 3008
     717 000000bd 00C0          .bits   192,16                  ; _aucCRCHi[189] @ 3024
     718 000000be 0080          .bits   128,16                  ; _aucCRCHi[190] @ 3040
     719 000000bf 0041          .bits   65,16                   ; _aucCRCHi[191] @ 3056
     720 000000c0 0000          .bits   0,16                    ; _aucCRCHi[192] @ 3072
     721 000000c1 00C1          .bits   193,16                  ; _aucCRCHi[193] @ 3088
     722 000000c2 0081          .bits   129,16                  ; _aucCRCHi[194] @ 3104
     723 000000c3 0040          .bits   64,16                   ; _aucCRCHi[195] @ 3120
     724 000000c4 0001          .bits   1,16                    ; _aucCRCHi[196] @ 3136
     725 000000c5 00C0          .bits   192,16                  ; _aucCRCHi[197] @ 3152
     726 000000c6 0080          .bits   128,16                  ; _aucCRCHi[198] @ 3168
     727 000000c7 0041          .bits   65,16                   ; _aucCRCHi[199] @ 3184
     728 000000c8 0001          .bits   1,16                    ; _aucCRCHi[200] @ 3200
     729 000000c9 00C0          .bits   192,16                  ; _aucCRCHi[201] @ 3216
     730 000000ca 0080          .bits   128,16                  ; _aucCRCHi[202] @ 3232
     731 000000cb 0041          .bits   65,16                   ; _aucCRCHi[203] @ 3248
     732 000000cc 0000          .bits   0,16                    ; _aucCRCHi[204] @ 3264
     733 000000cd 00C1          .bits   193,16                  ; _aucCRCHi[205] @ 3280
     734 000000ce 0081          .bits   129,16                  ; _aucCRCHi[206] @ 3296
     735 000000cf 0040          .bits   64,16                   ; _aucCRCHi[207] @ 3312
     736 000000d0 0001          .bits   1,16                    ; _aucCRCHi[208] @ 3328
     737 000000d1 00C0          .bits   192,16                  ; _aucCRCHi[209] @ 3344
     738 000000d2 0080          .bits   128,16                  ; _aucCRCHi[210] @ 3360
     739 000000d3 0041          .bits   65,16                   ; _aucCRCHi[211] @ 3376
     740 000000d4 0000          .bits   0,16                    ; _aucCRCHi[212] @ 3392
     741 000000d5 00C1          .bits   193,16                  ; _aucCRCHi[213] @ 3408
     742 000000d6 0081          .bits   129,16                  ; _aucCRCHi[214] @ 3424
     743 000000d7 0040          .bits   64,16                   ; _aucCRCHi[215] @ 3440
     744 000000d8 0000          .bits   0,16                    ; _aucCRCHi[216] @ 3456
     745 000000d9 00C1          .bits   193,16                  ; _aucCRCHi[217] @ 3472
     746 000000da 0081          .bits   129,16                  ; _aucCRCHi[218] @ 3488
     747 000000db 0040          .bits   64,16                   ; _aucCRCHi[219] @ 3504
     748 000000dc 0001          .bits   1,16                    ; _aucCRCHi[220] @ 3520
     749 000000dd 00C0          .bits   192,16                  ; _aucCRCHi[221] @ 3536
     750 000000de 0080          .bits   128,16                  ; _aucCRCHi[222] @ 3552
     751 000000df 0041          .bits   65,16                   ; _aucCRCHi[223] @ 3568
     752 000000e0 0001          .bits   1,16                    ; _aucCRCHi[224] @ 3584
     753 000000e1 00C0          .bits   192,16                  ; _aucCRCHi[225] @ 3600
     754 000000e2 0080          .bits   128,16                  ; _aucCRCHi[226] @ 3616
     755 000000e3 0041          .bits   65,16                   ; _aucCRCHi[227] @ 3632
     756 000000e4 0000          .bits   0,16                    ; _aucCRCHi[228] @ 3648
     757 000000e5 00C1          .bits   193,16                  ; _aucCRCHi[229] @ 3664
     758 000000e6 0081          .bits   129,16                  ; _aucCRCHi[230] @ 3680
     759 000000e7 0040          .bits   64,16                   ; _aucCRCHi[231] @ 3696
     760 000000e8 0000          .bits   0,16                    ; _aucCRCHi[232] @ 3712
     761 000000e9 00C1          .bits   193,16                  ; _aucCRCHi[233] @ 3728
     762 000000ea 0081          .bits   129,16                  ; _aucCRCHi[234] @ 3744
     763 000000eb 0040          .bits   64,16                   ; _aucCRCHi[235] @ 3760
     764 000000ec 0001          .bits   1,16                    ; _aucCRCHi[236] @ 3776
     765 000000ed 00C0          .bits   192,16                  ; _aucCRCHi[237] @ 3792
     766 000000ee 0080          .bits   128,16                  ; _aucCRCHi[238] @ 3808
     767 000000ef 0041          .bits   65,16                   ; _aucCRCHi[239] @ 3824
     768 000000f0 0000          .bits   0,16                    ; _aucCRCHi[240] @ 3840
     769 000000f1 00C1          .bits   193,16                  ; _aucCRCHi[241] @ 3856
     770 000000f2 0081          .bits   129,16                  ; _aucCRCHi[242] @ 3872
TMS320C2000 Assembler PC v15.12.3 Wed Nov 22 01:55:15 2017

Tools Copyright (c) 1996-2015 Texas Instruments Incorporated
C:\Users\wmj\AppData\Local\Temp\1239610                              PAGE   15

     771 000000f3 0040          .bits   64,16                   ; _aucCRCHi[243] @ 3888
     772 000000f4 0001          .bits   1,16                    ; _aucCRCHi[244] @ 3904
     773 000000f5 00C0          .bits   192,16                  ; _aucCRCHi[245] @ 3920
     774 000000f6 0080          .bits   128,16                  ; _aucCRCHi[246] @ 3936
     775 000000f7 0041          .bits   65,16                   ; _aucCRCHi[247] @ 3952
     776 000000f8 0001          .bits   1,16                    ; _aucCRCHi[248] @ 3968
     777 000000f9 00C0          .bits   192,16                  ; _aucCRCHi[249] @ 3984
     778 000000fa 0080          .bits   128,16                  ; _aucCRCHi[250] @ 4000
     779 000000fb 0041          .bits   65,16                   ; _aucCRCHi[251] @ 4016
     780 000000fc 0000          .bits   0,16                    ; _aucCRCHi[252] @ 4032
     781 000000fd 00C1          .bits   193,16                  ; _aucCRCHi[253] @ 4048
     782 000000fe 0081          .bits   129,16                  ; _aucCRCHi[254] @ 4064
     783 000000ff 0040          .bits   64,16                   ; _aucCRCHi[255] @ 4080
     784              
     785              $C$DW$48        .dwtag  DW_TAG_variable
     786                      .dwattr $C$DW$48, DW_AT_name("aucCRCHi")
     787                      .dwattr $C$DW$48, DW_AT_TI_symbol_name("_aucCRCHi")
     788                      .dwattr $C$DW$48, DW_AT_location[DW_OP_addr _aucCRCHi]
     789                      .dwattr $C$DW$48, DW_AT_type(*$C$DW$T$252)
     790                      .dwattr $C$DW$48, DW_AT_external
     791              
     792              ;       C:\ti\ccsv6\tools\compiler\c2000_15.12.3.LTS\bin\opt2000.exe C:\\Users\\wmj\\AppData\\Local\\Temp\\12
     793              ;       C:\ti\ccsv6\tools\compiler\c2000_15.12.3.LTS\bin\ac2000.exe -@C:\\Users\\wmj\\AppData\\Local\\Temp\\1
     794 00000000               .sect   ".text"
     795                      .clink
     796                      .global _MB_setTimHandle
     797              
     798              $C$DW$49        .dwtag  DW_TAG_subprogram
     799                      .dwattr $C$DW$49, DW_AT_name("MB_setTimHandle")
     800                      .dwattr $C$DW$49, DW_AT_low_pc(_MB_setTimHandle)
     801                      .dwattr $C$DW$49, DW_AT_high_pc(0x00)
     802                      .dwattr $C$DW$49, DW_AT_TI_symbol_name("_MB_setTimHandle")
     803                      .dwattr $C$DW$49, DW_AT_external
     804                      .dwattr $C$DW$49, DW_AT_TI_begin_file("C:/Users/wmj/Desktop/BM1000_v1.1/sw/drivers/drvic/modbus/mb.c"
     805                      .dwattr $C$DW$49, DW_AT_TI_begin_line(0x63)
     806                      .dwattr $C$DW$49, DW_AT_TI_begin_column(0x06)
     807                      .dwattr $C$DW$49, DW_AT_TI_max_frame_size(-2)
     808                      .dwpsn  file "C:/Users/wmj/Desktop/BM1000_v1.1/sw/drivers/drvic/modbus/mb.c",line 100,column 1,is_stm
     809              
     810                      .dwfde $C$DW$CIE, _MB_setTimHandle
     811              $C$DW$50        .dwtag  DW_TAG_formal_parameter
     812                      .dwattr $C$DW$50, DW_AT_name("handle")
     813                      .dwattr $C$DW$50, DW_AT_TI_symbol_name("_handle")
     814                      .dwattr $C$DW$50, DW_AT_type(*$C$DW$T$178)
     815                      .dwattr $C$DW$50, DW_AT_location[DW_OP_reg12]
     816              
     817              $C$DW$51        .dwtag  DW_TAG_formal_parameter
     818                      .dwattr $C$DW$51, DW_AT_name("timerHandle")
     819                      .dwattr $C$DW$51, DW_AT_TI_symbol_name("_timerHandle")
     820                      .dwattr $C$DW$51, DW_AT_type(*$C$DW$T$106)
     821                      .dwattr $C$DW$51, DW_AT_location[DW_OP_reg14]
     822              
     823              
     824              ;***************************************************************
     825              ;* FNAME: _MB_setTimHandle              FR SIZE:   0           *
TMS320C2000 Assembler PC v15.12.3 Wed Nov 22 01:55:15 2017

Tools Copyright (c) 1996-2015 Texas Instruments Incorporated
C:\Users\wmj\AppData\Local\Temp\1239610                              PAGE   16

     826              ;*                                                             *
     827              ;* FUNCTION ENVIRONMENT                                        *
     828              ;*                                                             *
     829              ;* FUNCTION PROPERTIES                                         *
     830              ;*                            0 Parameter,  0 Auto,  0 SOE     *
     831              ;***************************************************************
     832              
     833              _MB_setTimHandle:
     834              ;* AR4   assigned to _handle
     835              $C$DW$52        .dwtag  DW_TAG_variable
     836                      .dwattr $C$DW$52, DW_AT_name("handle")
     837                      .dwattr $C$DW$52, DW_AT_TI_symbol_name("_handle")
     838                      .dwattr $C$DW$52, DW_AT_type(*$C$DW$T$200)
     839                      .dwattr $C$DW$52, DW_AT_location[DW_OP_reg12]
     840              
     841              ;* AR5   assigned to _timerHandle
     842              $C$DW$53        .dwtag  DW_TAG_variable
     843                      .dwattr $C$DW$53, DW_AT_name("timerHandle")
     844                      .dwattr $C$DW$53, DW_AT_TI_symbol_name("_timerHandle")
     845                      .dwattr $C$DW$53, DW_AT_type(*$C$DW$T$212)
     846                      .dwattr $C$DW$53, DW_AT_location[DW_OP_reg14]
     847              
     848                      .dwcfi  cfa_offset, -2
     849                      .dwcfi  save_reg_to_mem, 26, 0
     850                      .dwpsn  file "C:/Users/wmj/Desktop/BM1000_v1.1/sw/drivers/drvic/modbus/mb.c",line 103,column 4,is_stm
     851 00000000 A0F4          MOVL      *+XAR4[6],XAR5        ; [CPU_] |103| 
     852              $C$DW$54        .dwtag  DW_TAG_TI_branch
     853                      .dwattr $C$DW$54, DW_AT_low_pc(0x00)
     854                      .dwattr $C$DW$54, DW_AT_TI_return
     855              
     856 00000001 0006          LRETR     ; [CPU_] 
     857                      ; return occurs ; [] 
     858                      .dwattr $C$DW$49, DW_AT_TI_end_file("C:/Users/wmj/Desktop/BM1000_v1.1/sw/drivers/drvic/modbus/mb.c")
     859                      .dwattr $C$DW$49, DW_AT_TI_end_line(0x6a)
     860                      .dwattr $C$DW$49, DW_AT_TI_end_column(0x01)
     861                      .dwendentry
     862                      .dwendtag $C$DW$49
     863              
     864 00000002               .sect   ".text"
     865                      .clink
     866                      .global _MB_setSciHandle
     867              
     868              $C$DW$55        .dwtag  DW_TAG_subprogram
     869                      .dwattr $C$DW$55, DW_AT_name("MB_setSciHandle")
     870                      .dwattr $C$DW$55, DW_AT_low_pc(_MB_setSciHandle)
     871                      .dwattr $C$DW$55, DW_AT_high_pc(0x00)
     872                      .dwattr $C$DW$55, DW_AT_TI_symbol_name("_MB_setSciHandle")
     873                      .dwattr $C$DW$55, DW_AT_external
     874                      .dwattr $C$DW$55, DW_AT_TI_begin_file("C:/Users/wmj/Desktop/BM1000_v1.1/sw/drivers/drvic/modbus/mb.c"
     875                      .dwattr $C$DW$55, DW_AT_TI_begin_line(0x5a)
     876                      .dwattr $C$DW$55, DW_AT_TI_begin_column(0x06)
     877                      .dwattr $C$DW$55, DW_AT_TI_max_frame_size(-2)
     878                      .dwpsn  file "C:/Users/wmj/Desktop/BM1000_v1.1/sw/drivers/drvic/modbus/mb.c",line 91,column 1,is_stmt
     879              
     880                      .dwfde $C$DW$CIE, _MB_setSciHandle
TMS320C2000 Assembler PC v15.12.3 Wed Nov 22 01:55:15 2017

Tools Copyright (c) 1996-2015 Texas Instruments Incorporated
C:\Users\wmj\AppData\Local\Temp\1239610                              PAGE   17

     881              $C$DW$56        .dwtag  DW_TAG_formal_parameter
     882                      .dwattr $C$DW$56, DW_AT_name("handle")
     883                      .dwattr $C$DW$56, DW_AT_TI_symbol_name("_handle")
     884                      .dwattr $C$DW$56, DW_AT_type(*$C$DW$T$178)
     885                      .dwattr $C$DW$56, DW_AT_location[DW_OP_reg12]
     886              
     887              $C$DW$57        .dwtag  DW_TAG_formal_parameter
     888                      .dwattr $C$DW$57, DW_AT_name("sciHandle")
     889                      .dwattr $C$DW$57, DW_AT_TI_symbol_name("_sciHandle")
     890                      .dwattr $C$DW$57, DW_AT_type(*$C$DW$T$113)
     891                      .dwattr $C$DW$57, DW_AT_location[DW_OP_reg14]
     892              
     893              
     894              ;***************************************************************
     895              ;* FNAME: _MB_setSciHandle              FR SIZE:   0           *
     896              ;*                                                             *
     897              ;* FUNCTION ENVIRONMENT                                        *
     898              ;*                                                             *
     899              ;* FUNCTION PROPERTIES                                         *
     900              ;*                            0 Parameter,  0 Auto,  0 SOE     *
     901              ;***************************************************************
     902              
     903              _MB_setSciHandle:
     904              ;* AR4   assigned to _handle
     905              $C$DW$58        .dwtag  DW_TAG_variable
     906                      .dwattr $C$DW$58, DW_AT_name("handle")
     907                      .dwattr $C$DW$58, DW_AT_TI_symbol_name("_handle")
     908                      .dwattr $C$DW$58, DW_AT_type(*$C$DW$T$200)
     909                      .dwattr $C$DW$58, DW_AT_location[DW_OP_reg12]
     910              
     911              ;* AR5   assigned to _sciHandle
     912              $C$DW$59        .dwtag  DW_TAG_variable
     913                      .dwattr $C$DW$59, DW_AT_name("sciHandle")
     914                      .dwattr $C$DW$59, DW_AT_TI_symbol_name("_sciHandle")
     915                      .dwattr $C$DW$59, DW_AT_type(*$C$DW$T$209)
     916                      .dwattr $C$DW$59, DW_AT_location[DW_OP_reg14]
     917              
     918                      .dwcfi  cfa_offset, -2
     919                      .dwcfi  save_reg_to_mem, 26, 0
     920                      .dwpsn  file "C:/Users/wmj/Desktop/BM1000_v1.1/sw/drivers/drvic/modbus/mb.c",line 94,column 4,is_stmt
     921 00000002 D008          MOVB      XAR0,#8               ; [CPU_] |94| 
     922 00000003 A094          MOVL      *+XAR4[AR0],XAR5      ; [CPU_] |94| 
     923              $C$DW$60        .dwtag  DW_TAG_TI_branch
     924                      .dwattr $C$DW$60, DW_AT_low_pc(0x00)
     925                      .dwattr $C$DW$60, DW_AT_TI_return
     926              
     927 00000004 0006          LRETR     ; [CPU_] 
     928                      ; return occurs ; [] 
     929                      .dwattr $C$DW$55, DW_AT_TI_end_file("C:/Users/wmj/Desktop/BM1000_v1.1/sw/drivers/drvic/modbus/mb.c")
     930                      .dwattr $C$DW$55, DW_AT_TI_end_line(0x61)
     931                      .dwattr $C$DW$55, DW_AT_TI_end_column(0x01)
     932                      .dwendentry
     933                      .dwendtag $C$DW$55
     934              
     935 00000005               .sect   ".text"
TMS320C2000 Assembler PC v15.12.3 Wed Nov 22 01:55:15 2017

Tools Copyright (c) 1996-2015 Texas Instruments Incorporated
C:\Users\wmj\AppData\Local\Temp\1239610                              PAGE   18

     936                      .clink
     937                      .global _MB_setMotorHandle
     938              
     939              $C$DW$61        .dwtag  DW_TAG_subprogram
     940                      .dwattr $C$DW$61, DW_AT_name("MB_setMotorHandle")
     941                      .dwattr $C$DW$61, DW_AT_low_pc(_MB_setMotorHandle)
     942                      .dwattr $C$DW$61, DW_AT_high_pc(0x00)
     943                      .dwattr $C$DW$61, DW_AT_TI_symbol_name("_MB_setMotorHandle")
     944                      .dwattr $C$DW$61, DW_AT_external
     945                      .dwattr $C$DW$61, DW_AT_TI_begin_file("C:/Users/wmj/Desktop/BM1000_v1.1/sw/drivers/drvic/modbus/mb.c"
     946                      .dwattr $C$DW$61, DW_AT_TI_begin_line(0x75)
     947                      .dwattr $C$DW$61, DW_AT_TI_begin_column(0x06)
     948                      .dwattr $C$DW$61, DW_AT_TI_max_frame_size(-2)
     949                      .dwpsn  file "C:/Users/wmj/Desktop/BM1000_v1.1/sw/drivers/drvic/modbus/mb.c",line 118,column 1,is_stm
     950              
     951                      .dwfde $C$DW$CIE, _MB_setMotorHandle
     952              $C$DW$62        .dwtag  DW_TAG_formal_parameter
     953                      .dwattr $C$DW$62, DW_AT_name("handle")
     954                      .dwattr $C$DW$62, DW_AT_TI_symbol_name("_handle")
     955                      .dwattr $C$DW$62, DW_AT_type(*$C$DW$T$178)
     956                      .dwattr $C$DW$62, DW_AT_location[DW_OP_reg12]
     957              
     958              $C$DW$63        .dwtag  DW_TAG_formal_parameter
     959                      .dwattr $C$DW$63, DW_AT_name("motorHandle")
     960                      .dwattr $C$DW$63, DW_AT_TI_symbol_name("_motorHandle")
     961                      .dwattr $C$DW$63, DW_AT_type(*$C$DW$T$41)
     962                      .dwattr $C$DW$63, DW_AT_location[DW_OP_reg14]
     963              
     964              
     965              ;***************************************************************
     966              ;* FNAME: _MB_setMotorHandle            FR SIZE:   0           *
     967              ;*                                                             *
     968              ;* FUNCTION ENVIRONMENT                                        *
     969              ;*                                                             *
     970              ;* FUNCTION PROPERTIES                                         *
     971              ;*                            0 Parameter,  0 Auto,  0 SOE     *
     972              ;***************************************************************
     973              
     974              _MB_setMotorHandle:
     975              ;* AR4   assigned to _handle
     976              $C$DW$64        .dwtag  DW_TAG_variable
     977                      .dwattr $C$DW$64, DW_AT_name("handle")
     978                      .dwattr $C$DW$64, DW_AT_TI_symbol_name("_handle")
     979                      .dwattr $C$DW$64, DW_AT_type(*$C$DW$T$200)
     980                      .dwattr $C$DW$64, DW_AT_location[DW_OP_reg12]
     981              
     982              ;* AR5   assigned to _motorHandle
     983              $C$DW$65        .dwtag  DW_TAG_variable
     984                      .dwattr $C$DW$65, DW_AT_name("motorHandle")
     985                      .dwattr $C$DW$65, DW_AT_TI_symbol_name("_motorHandle")
     986                      .dwattr $C$DW$65, DW_AT_type(*$C$DW$T$207)
     987                      .dwattr $C$DW$65, DW_AT_location[DW_OP_reg14]
     988              
     989                      .dwcfi  cfa_offset, -2
     990                      .dwcfi  save_reg_to_mem, 26, 0
TMS320C2000 Assembler PC v15.12.3 Wed Nov 22 01:55:15 2017

Tools Copyright (c) 1996-2015 Texas Instruments Incorporated
C:\Users\wmj\AppData\Local\Temp\1239610                              PAGE   19

     991                      .dwpsn  file "C:/Users/wmj/Desktop/BM1000_v1.1/sw/drivers/drvic/modbus/mb.c",line 121,column 3,is_stm
     992 00000005 A0C4          MOVL      *+XAR4[0],XAR5        ; [CPU_] |121| 
     993              $C$DW$66        .dwtag  DW_TAG_TI_branch
     994                      .dwattr $C$DW$66, DW_AT_low_pc(0x00)
     995                      .dwattr $C$DW$66, DW_AT_TI_return
     996              
     997 00000006 0006          LRETR     ; [CPU_] 
     998                      ; return occurs ; [] 
     999                      .dwattr $C$DW$61, DW_AT_TI_end_file("C:/Users/wmj/Desktop/BM1000_v1.1/sw/drivers/drvic/modbus/mb.c")
    1000                      .dwattr $C$DW$61, DW_AT_TI_end_line(0x7c)
    1001                      .dwattr $C$DW$61, DW_AT_TI_end_column(0x01)
    1002                      .dwendentry
    1003                      .dwendtag $C$DW$61
    1004              
    1005 00000007               .sect   ".text"
    1006                      .clink
    1007                      .global _MB_setGpioHandle
    1008              
    1009              $C$DW$67        .dwtag  DW_TAG_subprogram
    1010                      .dwattr $C$DW$67, DW_AT_name("MB_setGpioHandle")
    1011                      .dwattr $C$DW$67, DW_AT_low_pc(_MB_setGpioHandle)
    1012                      .dwattr $C$DW$67, DW_AT_high_pc(0x00)
    1013                      .dwattr $C$DW$67, DW_AT_TI_symbol_name("_MB_setGpioHandle")
    1014                      .dwattr $C$DW$67, DW_AT_external
    1015                      .dwattr $C$DW$67, DW_AT_TI_begin_file("C:/Users/wmj/Desktop/BM1000_v1.1/sw/drivers/drvic/modbus/mb.c"
    1016                      .dwattr $C$DW$67, DW_AT_TI_begin_line(0x6c)
    1017                      .dwattr $C$DW$67, DW_AT_TI_begin_column(0x06)
    1018                      .dwattr $C$DW$67, DW_AT_TI_max_frame_size(-2)
    1019                      .dwpsn  file "C:/Users/wmj/Desktop/BM1000_v1.1/sw/drivers/drvic/modbus/mb.c",line 109,column 1,is_stm
    1020              
    1021                      .dwfde $C$DW$CIE, _MB_setGpioHandle
    1022              $C$DW$68        .dwtag  DW_TAG_formal_parameter
    1023                      .dwattr $C$DW$68, DW_AT_name("handle")
    1024                      .dwattr $C$DW$68, DW_AT_TI_symbol_name("_handle")
    1025                      .dwattr $C$DW$68, DW_AT_type(*$C$DW$T$178)
    1026                      .dwattr $C$DW$68, DW_AT_location[DW_OP_reg12]
    1027              
    1028              $C$DW$69        .dwtag  DW_TAG_formal_parameter
    1029                      .dwattr $C$DW$69, DW_AT_name("gpioHandle")
    1030                      .dwattr $C$DW$69, DW_AT_TI_symbol_name("_gpioHandle")
    1031                      .dwattr $C$DW$69, DW_AT_type(*$C$DW$T$88)
    1032                      .dwattr $C$DW$69, DW_AT_location[DW_OP_reg14]
    1033              
    1034              
    1035              ;***************************************************************
    1036              ;* FNAME: _MB_setGpioHandle             FR SIZE:   0           *
    1037              ;*                                                             *
    1038              ;* FUNCTION ENVIRONMENT                                        *
    1039              ;*                                                             *
    1040              ;* FUNCTION PROPERTIES                                         *
    1041              ;*                            0 Parameter,  0 Auto,  0 SOE     *
    1042              ;***************************************************************
    1043              
    1044              _MB_setGpioHandle:
    1045              ;* AR4   assigned to _handle
TMS320C2000 Assembler PC v15.12.3 Wed Nov 22 01:55:15 2017

Tools Copyright (c) 1996-2015 Texas Instruments Incorporated
C:\Users\wmj\AppData\Local\Temp\1239610                              PAGE   20

    1046              $C$DW$70        .dwtag  DW_TAG_variable
    1047                      .dwattr $C$DW$70, DW_AT_name("handle")
    1048                      .dwattr $C$DW$70, DW_AT_TI_symbol_name("_handle")
    1049                      .dwattr $C$DW$70, DW_AT_type(*$C$DW$T$200)
    1050                      .dwattr $C$DW$70, DW_AT_location[DW_OP_reg12]
    1051              
    1052              ;* AR5   assigned to _gpioHandle
    1053              $C$DW$71        .dwtag  DW_TAG_variable
    1054                      .dwattr $C$DW$71, DW_AT_name("gpioHandle")
    1055                      .dwattr $C$DW$71, DW_AT_TI_symbol_name("_gpioHandle")
    1056                      .dwattr $C$DW$71, DW_AT_type(*$C$DW$T$197)
    1057                      .dwattr $C$DW$71, DW_AT_location[DW_OP_reg14]
    1058              
    1059                      .dwcfi  cfa_offset, -2
    1060                      .dwcfi  save_reg_to_mem, 26, 0
    1061                      .dwpsn  file "C:/Users/wmj/Desktop/BM1000_v1.1/sw/drivers/drvic/modbus/mb.c",line 112,column 4,is_stm
    1062 00000007 A0E4          MOVL      *+XAR4[4],XAR5        ; [CPU_] |112| 
    1063              $C$DW$72        .dwtag  DW_TAG_TI_branch
    1064                      .dwattr $C$DW$72, DW_AT_low_pc(0x00)
    1065                      .dwattr $C$DW$72, DW_AT_TI_return
    1066              
    1067 00000008 0006          LRETR     ; [CPU_] 
    1068                      ; return occurs ; [] 
    1069                      .dwattr $C$DW$67, DW_AT_TI_end_file("C:/Users/wmj/Desktop/BM1000_v1.1/sw/drivers/drvic/modbus/mb.c")
    1070                      .dwattr $C$DW$67, DW_AT_TI_end_line(0x73)
    1071                      .dwattr $C$DW$67, DW_AT_TI_end_column(0x01)
    1072                      .dwendentry
    1073                      .dwendtag $C$DW$67
    1074              
    1075 00000009               .sect   ".text"
    1076                      .clink
    1077                      .global _MB_setFsmHandle
    1078              
    1079              $C$DW$73        .dwtag  DW_TAG_subprogram
    1080                      .dwattr $C$DW$73, DW_AT_name("MB_setFsmHandle")
    1081                      .dwattr $C$DW$73, DW_AT_low_pc(_MB_setFsmHandle)
    1082                      .dwattr $C$DW$73, DW_AT_high_pc(0x00)
    1083                      .dwattr $C$DW$73, DW_AT_TI_symbol_name("_MB_setFsmHandle")
    1084                      .dwattr $C$DW$73, DW_AT_external
    1085                      .dwattr $C$DW$73, DW_AT_TI_begin_file("C:/Users/wmj/Desktop/BM1000_v1.1/sw/drivers/drvic/modbus/mb.c"
    1086                      .dwattr $C$DW$73, DW_AT_TI_begin_line(0x7e)
    1087                      .dwattr $C$DW$73, DW_AT_TI_begin_column(0x06)
    1088                      .dwattr $C$DW$73, DW_AT_TI_max_frame_size(-2)
    1089                      .dwpsn  file "C:/Users/wmj/Desktop/BM1000_v1.1/sw/drivers/drvic/modbus/mb.c",line 127,column 1,is_stm
    1090              
    1091                      .dwfde $C$DW$CIE, _MB_setFsmHandle
    1092              $C$DW$74        .dwtag  DW_TAG_formal_parameter
    1093                      .dwattr $C$DW$74, DW_AT_name("handle")
    1094                      .dwattr $C$DW$74, DW_AT_TI_symbol_name("_handle")
    1095                      .dwattr $C$DW$74, DW_AT_type(*$C$DW$T$178)
    1096                      .dwattr $C$DW$74, DW_AT_location[DW_OP_reg12]
    1097              
    1098              $C$DW$75        .dwtag  DW_TAG_formal_parameter
    1099                      .dwattr $C$DW$75, DW_AT_name("fsmHandle")
    1100                      .dwattr $C$DW$75, DW_AT_TI_symbol_name("_fsmHandle")
TMS320C2000 Assembler PC v15.12.3 Wed Nov 22 01:55:15 2017

Tools Copyright (c) 1996-2015 Texas Instruments Incorporated
C:\Users\wmj\AppData\Local\Temp\1239610                              PAGE   21

    1101                      .dwattr $C$DW$75, DW_AT_type(*$C$DW$T$121)
    1102                      .dwattr $C$DW$75, DW_AT_location[DW_OP_reg14]
    1103              
    1104              
    1105              ;***************************************************************
    1106              ;* FNAME: _MB_setFsmHandle              FR SIZE:   0           *
    1107              ;*                                                             *
    1108              ;* FUNCTION ENVIRONMENT                                        *
    1109              ;*                                                             *
    1110              ;* FUNCTION PROPERTIES                                         *
    1111              ;*                            0 Parameter,  0 Auto,  0 SOE     *
    1112              ;***************************************************************
    1113              
    1114              _MB_setFsmHandle:
    1115              ;* AR4   assigned to _handle
    1116              $C$DW$76        .dwtag  DW_TAG_variable
    1117                      .dwattr $C$DW$76, DW_AT_name("handle")
    1118                      .dwattr $C$DW$76, DW_AT_TI_symbol_name("_handle")
    1119                      .dwattr $C$DW$76, DW_AT_type(*$C$DW$T$200)
    1120                      .dwattr $C$DW$76, DW_AT_location[DW_OP_reg12]
    1121              
    1122              ;* AR5   assigned to _fsmHandle
    1123              $C$DW$77        .dwtag  DW_TAG_variable
    1124                      .dwattr $C$DW$77, DW_AT_name("fsmHandle")
    1125                      .dwattr $C$DW$77, DW_AT_TI_symbol_name("_fsmHandle")
    1126                      .dwattr $C$DW$77, DW_AT_type(*$C$DW$T$195)
    1127                      .dwattr $C$DW$77, DW_AT_location[DW_OP_reg14]
    1128              
    1129                      .dwcfi  cfa_offset, -2
    1130                      .dwcfi  save_reg_to_mem, 26, 0
    1131                      .dwpsn  file "C:/Users/wmj/Desktop/BM1000_v1.1/sw/drivers/drvic/modbus/mb.c",line 130,column 3,is_stm
    1132 00000009 A0D4          MOVL      *+XAR4[2],XAR5        ; [CPU_] |130| 
    1133              $C$DW$78        .dwtag  DW_TAG_TI_branch
    1134                      .dwattr $C$DW$78, DW_AT_low_pc(0x00)
    1135                      .dwattr $C$DW$78, DW_AT_TI_return
    1136              
    1137 0000000a 0006          LRETR     ; [CPU_] 
    1138                      ; return occurs ; [] 
    1139                      .dwattr $C$DW$73, DW_AT_TI_end_file("C:/Users/wmj/Desktop/BM1000_v1.1/sw/drivers/drvic/modbus/mb.c")
    1140                      .dwattr $C$DW$73, DW_AT_TI_end_line(0x85)
    1141                      .dwattr $C$DW$73, DW_AT_TI_end_column(0x01)
    1142                      .dwendentry
    1143                      .dwendtag $C$DW$73
    1144              
    1145 0000000b               .sect   ".text"
    1146                      .clink
    1147                      .global _MB_init
    1148              
    1149              $C$DW$79        .dwtag  DW_TAG_subprogram
    1150                      .dwattr $C$DW$79, DW_AT_name("MB_init")
    1151                      .dwattr $C$DW$79, DW_AT_low_pc(_MB_init)
    1152                      .dwattr $C$DW$79, DW_AT_high_pc(0x00)
    1153                      .dwattr $C$DW$79, DW_AT_TI_symbol_name("_MB_init")
    1154                      .dwattr $C$DW$79, DW_AT_external
    1155                      .dwattr $C$DW$79, DW_AT_type(*$C$DW$T$178)
TMS320C2000 Assembler PC v15.12.3 Wed Nov 22 01:55:15 2017

Tools Copyright (c) 1996-2015 Texas Instruments Incorporated
C:\Users\wmj\AppData\Local\Temp\1239610                              PAGE   22

    1156                      .dwattr $C$DW$79, DW_AT_TI_begin_file("C:/Users/wmj/Desktop/BM1000_v1.1/sw/drivers/drvic/modbus/mb.c"
    1157                      .dwattr $C$DW$79, DW_AT_TI_begin_line(0x4a)
    1158                      .dwattr $C$DW$79, DW_AT_TI_begin_column(0x0b)
    1159                      .dwattr $C$DW$79, DW_AT_TI_max_frame_size(-2)
    1160                      .dwpsn  file "C:/Users/wmj/Desktop/BM1000_v1.1/sw/drivers/drvic/modbus/mb.c",line 75,column 1,is_stmt
    1161              
    1162                      .dwfde $C$DW$CIE, _MB_init
    1163              $C$DW$80        .dwtag  DW_TAG_formal_parameter
    1164                      .dwattr $C$DW$80, DW_AT_name("pMemory")
    1165                      .dwattr $C$DW$80, DW_AT_TI_symbol_name("_pMemory")
    1166                      .dwattr $C$DW$80, DW_AT_type(*$C$DW$T$3)
    1167                      .dwattr $C$DW$80, DW_AT_location[DW_OP_reg12]
    1168              
    1169              $C$DW$81        .dwtag  DW_TAG_formal_parameter
    1170                      .dwattr $C$DW$81, DW_AT_name("numBytes")
    1171                      .dwattr $C$DW$81, DW_AT_TI_symbol_name("_numBytes")
    1172                      .dwattr $C$DW$81, DW_AT_type(*$C$DW$T$202)
    1173                      .dwattr $C$DW$81, DW_AT_location[DW_OP_reg0]
    1174              
    1175              
    1176              ;***************************************************************
    1177              ;* FNAME: _MB_init                      FR SIZE:   0           *
    1178              ;*                                                             *
    1179              ;* FUNCTION ENVIRONMENT                                        *
    1180              ;*                                                             *
    1181              ;* FUNCTION PROPERTIES                                         *
    1182              ;*                            0 Parameter,  0 Auto,  0 SOE     *
    1183              ;***************************************************************
    1184              
    1185              _MB_init:
    1186              ;* AR6   assigned to _numBytes
    1187              $C$DW$82        .dwtag  DW_TAG_variable
    1188                      .dwattr $C$DW$82, DW_AT_name("numBytes")
    1189                      .dwattr $C$DW$82, DW_AT_TI_symbol_name("_numBytes")
    1190                      .dwattr $C$DW$82, DW_AT_type(*$C$DW$T$202)
    1191                      .dwattr $C$DW$82, DW_AT_location[DW_OP_reg16]
    1192              
    1193                      .dwcfi  cfa_offset, -2
    1194                      .dwcfi  save_reg_to_mem, 26, 0
    1195 0000000b 1EA6          MOVL      XAR6,ACC              ; [CPU_] |75| 
    1196                      .dwpsn  file "C:/Users/wmj/Desktop/BM1000_v1.1/sw/drivers/drvic/modbus/mb.c",line 80,column 6,is_stmt
    1197 0000000c 0220          MOVB      ACC,#32               ; [CPU_] |80| 
    1198 0000000d 0FA6          CMPL      ACC,XAR6              ; [CPU_] |80| 
    1199 0000000e 6902          B         $C$L1,LOS             ; [CPU_] |80| 
    1200                      ; branchcc occurs ; [] |80| 
    1201 0000000f D400          MOVB      XAR4,#0               ; [CPU_] |80| 
    1202              $C$L1:    
    1203              $C$DW$83        .dwtag  DW_TAG_TI_branch
    1204                      .dwattr $C$DW$83, DW_AT_low_pc(0x00)
    1205                      .dwattr $C$DW$83, DW_AT_TI_return
    1206              
    1207 00000010 0006          LRETR     ; [CPU_] 
    1208                      ; return occurs ; [] 
    1209                      .dwattr $C$DW$79, DW_AT_TI_end_file("C:/Users/wmj/Desktop/BM1000_v1.1/sw/drivers/drvic/modbus/mb.c")
    1210                      .dwattr $C$DW$79, DW_AT_TI_end_line(0x57)
TMS320C2000 Assembler PC v15.12.3 Wed Nov 22 01:55:15 2017

Tools Copyright (c) 1996-2015 Texas Instruments Incorporated
C:\Users\wmj\AppData\Local\Temp\1239610                              PAGE   23

    1211                      .dwattr $C$DW$79, DW_AT_TI_end_column(0x01)
    1212                      .dwendentry
    1213                      .dwendtag $C$DW$79
    1214              
    1215 00000011               .sect   ".text"
    1216                      .clink
    1217                      .global _MB_PortEventPost
    1218              
    1219              $C$DW$84        .dwtag  DW_TAG_subprogram
    1220                      .dwattr $C$DW$84, DW_AT_name("MB_PortEventPost")
    1221                      .dwattr $C$DW$84, DW_AT_low_pc(_MB_PortEventPost)
    1222                      .dwattr $C$DW$84, DW_AT_high_pc(0x00)
    1223                      .dwattr $C$DW$84, DW_AT_TI_symbol_name("_MB_PortEventPost")
    1224                      .dwattr $C$DW$84, DW_AT_external
    1225                      .dwattr $C$DW$84, DW_AT_TI_begin_file("C:/Users/wmj/Desktop/BM1000_v1.1/sw/drivers/drvic/modbus/mb.c"
    1226                      .dwattr $C$DW$84, DW_AT_TI_begin_line(0xd7)
    1227                      .dwattr $C$DW$84, DW_AT_TI_begin_column(0x06)
    1228                      .dwattr $C$DW$84, DW_AT_TI_max_frame_size(-2)
    1229                      .dwpsn  file "C:/Users/wmj/Desktop/BM1000_v1.1/sw/drivers/drvic/modbus/mb.c",line 216,column 1,is_stm
    1230              
    1231                      .dwfde $C$DW$CIE, _MB_PortEventPost
    1232              $C$DW$85        .dwtag  DW_TAG_formal_parameter
    1233                      .dwattr $C$DW$85, DW_AT_name("handle")
    1234                      .dwattr $C$DW$85, DW_AT_TI_symbol_name("_handle")
    1235                      .dwattr $C$DW$85, DW_AT_type(*$C$DW$T$178)
    1236                      .dwattr $C$DW$85, DW_AT_location[DW_OP_reg12]
    1237              
    1238              $C$DW$86        .dwtag  DW_TAG_formal_parameter
    1239                      .dwattr $C$DW$86, DW_AT_name("eEvent")
    1240                      .dwattr $C$DW$86, DW_AT_TI_symbol_name("_eEvent")
    1241                      .dwattr $C$DW$86, DW_AT_type(*$C$DW$T$135)
    1242                      .dwattr $C$DW$86, DW_AT_location[DW_OP_reg0]
    1243              
    1244              
    1245              ;***************************************************************
    1246              ;* FNAME: _MB_PortEventPost             FR SIZE:   0           *
    1247              ;*                                                             *
    1248              ;* FUNCTION ENVIRONMENT                                        *
    1249              ;*                                                             *
    1250              ;* FUNCTION PROPERTIES                                         *
    1251              ;*                            0 Parameter,  0 Auto,  0 SOE     *
    1252              ;***************************************************************
    1253              
    1254              _MB_PortEventPost:
    1255              ;* AR4   assigned to _handle
    1256              $C$DW$87        .dwtag  DW_TAG_variable
    1257                      .dwattr $C$DW$87, DW_AT_name("handle")
    1258                      .dwattr $C$DW$87, DW_AT_TI_symbol_name("_handle")
    1259                      .dwattr $C$DW$87, DW_AT_type(*$C$DW$T$200)
    1260                      .dwattr $C$DW$87, DW_AT_location[DW_OP_reg12]
    1261              
    1262              ;* AL    assigned to _eEvent
    1263              $C$DW$88        .dwtag  DW_TAG_variable
    1264                      .dwattr $C$DW$88, DW_AT_name("eEvent")
    1265                      .dwattr $C$DW$88, DW_AT_TI_symbol_name("_eEvent")
TMS320C2000 Assembler PC v15.12.3 Wed Nov 22 01:55:15 2017

Tools Copyright (c) 1996-2015 Texas Instruments Incorporated
C:\Users\wmj\AppData\Local\Temp\1239610                              PAGE   24

    1266                      .dwattr $C$DW$88, DW_AT_type(*$C$DW$T$186)
    1267                      .dwattr $C$DW$88, DW_AT_location[DW_OP_reg0]
    1268              
    1269                      .dwcfi  cfa_offset, -2
    1270                      .dwcfi  save_reg_to_mem, 26, 0
    1271                      .dwpsn  file "C:/Users/wmj/Desktop/BM1000_v1.1/sw/drivers/drvic/modbus/mb.c",line 218,column 5,is_stm
    1272 00000011 D01D          MOVB      XAR0,#29              ; [CPU_] |218| 
    1273 00000012 56BF          MOVB      *+XAR4[AR0],#1,UNC    ; [CPU_] |218| 
         00000013 0194 
    1274                      .dwpsn  file "C:/Users/wmj/Desktop/BM1000_v1.1/sw/drivers/drvic/modbus/mb.c",line 219,column 5,is_stm
    1275 00000014 D01E          MOVB      XAR0,#30              ; [CPU_] |219| 
    1276 00000015 9694          MOV       *+XAR4[AR0],AL        ; [CPU_] |219| 
    1277              $C$DW$89        .dwtag  DW_TAG_TI_branch
    1278                      .dwattr $C$DW$89, DW_AT_low_pc(0x00)
    1279                      .dwattr $C$DW$89, DW_AT_TI_return
    1280              
    1281 00000016 0006          LRETR     ; [CPU_] 
    1282                      ; return occurs ; [] 
    1283                      .dwattr $C$DW$84, DW_AT_TI_end_file("C:/Users/wmj/Desktop/BM1000_v1.1/sw/drivers/drvic/modbus/mb.c")
    1284                      .dwattr $C$DW$84, DW_AT_TI_end_line(0xdd)
    1285                      .dwattr $C$DW$84, DW_AT_TI_end_column(0x01)
    1286                      .dwendentry
    1287                      .dwendtag $C$DW$84
    1288              
    1289 00000017               .sect   ".text"
    1290                      .clink
    1291                      .global _MB_PortSerialEnable
    1292              
    1293              $C$DW$90        .dwtag  DW_TAG_subprogram
    1294                      .dwattr $C$DW$90, DW_AT_name("MB_PortSerialEnable")
    1295                      .dwattr $C$DW$90, DW_AT_low_pc(_MB_PortSerialEnable)
    1296                      .dwattr $C$DW$90, DW_AT_high_pc(0x00)
    1297                      .dwattr $C$DW$90, DW_AT_TI_symbol_name("_MB_PortSerialEnable")
    1298                      .dwattr $C$DW$90, DW_AT_external
    1299                      .dwattr $C$DW$90, DW_AT_TI_begin_file("C:/Users/wmj/Desktop/BM1000_v1.1/sw/drivers/drvic/modbus/mb.c"
    1300                      .dwattr $C$DW$90, DW_AT_TI_begin_line(0x9d)
    1301                      .dwattr $C$DW$90, DW_AT_TI_begin_column(0x06)
    1302                      .dwattr $C$DW$90, DW_AT_TI_max_frame_size(-6)
    1303                      .dwpsn  file "C:/Users/wmj/Desktop/BM1000_v1.1/sw/drivers/drvic/modbus/mb.c",line 158,column 1,is_stm
    1304              
    1305                      .dwfde $C$DW$CIE, _MB_PortSerialEnable
    1306              $C$DW$91        .dwtag  DW_TAG_formal_parameter
    1307                      .dwattr $C$DW$91, DW_AT_name("handle")
    1308                      .dwattr $C$DW$91, DW_AT_TI_symbol_name("_handle")
    1309                      .dwattr $C$DW$91, DW_AT_type(*$C$DW$T$178)
    1310                      .dwattr $C$DW$91, DW_AT_location[DW_OP_reg12]
    1311              
    1312              $C$DW$92        .dwtag  DW_TAG_formal_parameter
    1313                      .dwattr $C$DW$92, DW_AT_name("xRxEnable")
    1314                      .dwattr $C$DW$92, DW_AT_TI_symbol_name("_xRxEnable")
    1315                      .dwattr $C$DW$92, DW_AT_type(*$C$DW$T$59)
    1316                      .dwattr $C$DW$92, DW_AT_location[DW_OP_reg0]
    1317              
    1318              $C$DW$93        .dwtag  DW_TAG_formal_parameter
    1319                      .dwattr $C$DW$93, DW_AT_name("xTxEnable")
TMS320C2000 Assembler PC v15.12.3 Wed Nov 22 01:55:15 2017

Tools Copyright (c) 1996-2015 Texas Instruments Incorporated
C:\Users\wmj\AppData\Local\Temp\1239610                              PAGE   25

    1320                      .dwattr $C$DW$93, DW_AT_TI_symbol_name("_xTxEnable")
    1321                      .dwattr $C$DW$93, DW_AT_type(*$C$DW$T$59)
    1322                      .dwattr $C$DW$93, DW_AT_location[DW_OP_reg1]
    1323              
    1324              
    1325              ;***************************************************************
    1326              ;* FNAME: _MB_PortSerialEnable          FR SIZE:   4           *
    1327              ;*                                                             *
    1328              ;* FUNCTION ENVIRONMENT                                        *
    1329              ;*                                                             *
    1330              ;* FUNCTION PROPERTIES                                         *
    1331              ;*                            0 Parameter,  0 Auto,  4 SOE     *
    1332              ;***************************************************************
    1333              
    1334              _MB_PortSerialEnable:
    1335              ;* AR1   assigned to _xTxEnable
    1336              $C$DW$94        .dwtag  DW_TAG_variable
    1337                      .dwattr $C$DW$94, DW_AT_name("xTxEnable")
    1338                      .dwattr $C$DW$94, DW_AT_TI_symbol_name("_xTxEnable")
    1339                      .dwattr $C$DW$94, DW_AT_type(*$C$DW$T$309)
    1340                      .dwattr $C$DW$94, DW_AT_location[DW_OP_reg6]
    1341              
    1342              ;* AL    assigned to _xRxEnable
    1343              $C$DW$95        .dwtag  DW_TAG_variable
    1344                      .dwattr $C$DW$95, DW_AT_name("xRxEnable")
    1345                      .dwattr $C$DW$95, DW_AT_TI_symbol_name("_xRxEnable")
    1346                      .dwattr $C$DW$95, DW_AT_type(*$C$DW$T$309)
    1347                      .dwattr $C$DW$95, DW_AT_location[DW_OP_reg0]
    1348              
    1349              ;* AR2   assigned to _handle
    1350              $C$DW$96        .dwtag  DW_TAG_variable
    1351                      .dwattr $C$DW$96, DW_AT_name("handle")
    1352                      .dwattr $C$DW$96, DW_AT_TI_symbol_name("_handle")
    1353                      .dwattr $C$DW$96, DW_AT_type(*$C$DW$T$200)
    1354                      .dwattr $C$DW$96, DW_AT_location[DW_OP_reg8]
    1355              
    1356                      .dwcfi  cfa_offset, -2
    1357                      .dwcfi  save_reg_to_mem, 26, 0
    1358 00000017 B2BD          MOVL      *SP++,XAR1            ; [CPU_] 
    1359                      .dwcfi  save_reg_to_mem, 7, 2
    1360                      .dwcfi  cfa_offset, -4
    1361                      .dwpsn  file "C:/Users/wmj/Desktop/BM1000_v1.1/sw/drivers/drvic/modbus/mb.c",line 161,column 3,is_stm
    1362 00000018 5201          CMPB      AL,#1                 ; [CPU_] |161| 
    1363                      .dwpsn  file "C:/Users/wmj/Desktop/BM1000_v1.1/sw/drivers/drvic/modbus/mb.c",line 158,column 1,is_stm
    1364 00000019 59A8          MOVZ      AR1,AH                ; [CPU_] |158| 
    1365 0000001a AABD          MOVL      *SP++,XAR2            ; [CPU_] 
    1366                      .dwcfi  save_reg_to_mem, 9, 4
    1367                      .dwcfi  cfa_offset, -6
    1368 0000001b 86A4          MOVL      XAR2,XAR4             ; [CPU_] |158| 
    1369                      .dwpsn  file "C:/Users/wmj/Desktop/BM1000_v1.1/sw/drivers/drvic/modbus/mb.c",line 161,column 3,is_stm
    1370 0000001c 610A          B         $C$L2,EQ              ; [CPU_] |161| 
    1371                      ; branchcc occurs ; [] |161| 
    1372                      .dwpsn  file "C:/Users/wmj/Desktop/BM1000_v1.1/sw/drivers/drvic/modbus/mb.c",line 168,column 3,is_stm
    1373 0000001d D008          MOVB      XAR0,#8               ; [CPU_] |168| 
    1374 0000001e 8A92          MOVL      XAR4,*+XAR2[AR0]      ; [CPU_] |168| 
TMS320C2000 Assembler PC v15.12.3 Wed Nov 22 01:55:15 2017

Tools Copyright (c) 1996-2015 Texas Instruments Incorporated
C:\Users\wmj\AppData\Local\Temp\1239610                              PAGE   26

    1375              $C$DW$97        .dwtag  DW_TAG_TI_branch
    1376                      .dwattr $C$DW$97, DW_AT_low_pc(0x00)
    1377                      .dwattr $C$DW$97, DW_AT_name("_SCI_disableRx")
    1378                      .dwattr $C$DW$97, DW_AT_TI_call
    1379              
    1380 0000001f 7640!         LCR       #_SCI_disableRx       ; [CPU_] |168| 
         00000020 0000 
    1381                      ; call occurs [#_SCI_disableRx] ; [] |168| 
    1382                      .dwpsn  file "C:/Users/wmj/Desktop/BM1000_v1.1/sw/drivers/drvic/modbus/mb.c",line 169,column 6,is_stm
    1383 00000021 9A0C          MOVB      AL,#12                ; [CPU_] |169| 
    1384 00000022 8AE2          MOVL      XAR4,*+XAR2[4]        ; [CPU_] |169| 
    1385              $C$DW$98        .dwtag  DW_TAG_TI_branch
    1386                      .dwattr $C$DW$98, DW_AT_low_pc(0x00)
    1387                      .dwattr $C$DW$98, DW_AT_name("_GPIO_setHigh")
    1388                      .dwattr $C$DW$98, DW_AT_TI_call
    1389              
    1390 00000023 7640!         LCR       #_GPIO_setHigh        ; [CPU_] |169| 
         00000024 0000 
    1391                      ; call occurs [#_GPIO_setHigh] ; [] |169| 
    1392 00000025 6F09          B         $C$L3,UNC             ; [CPU_] |169| 
    1393                      ; branch occurs ; [] |169| 
    1394 00000026       $C$L2:    
    1395                      .dwpsn  file "C:/Users/wmj/Desktop/BM1000_v1.1/sw/drivers/drvic/modbus/mb.c",line 163,column 3,is_stm
    1396 00000026 D008          MOVB      XAR0,#8               ; [CPU_] |163| 
    1397 00000027 8A92          MOVL      XAR4,*+XAR2[AR0]      ; [CPU_] |163| 
    1398              $C$DW$99        .dwtag  DW_TAG_TI_branch
    1399                      .dwattr $C$DW$99, DW_AT_low_pc(0x00)
    1400                      .dwattr $C$DW$99, DW_AT_name("_SCI_enableRx")
    1401                      .dwattr $C$DW$99, DW_AT_TI_call
    1402              
    1403 00000028 7640!         LCR       #_SCI_enableRx        ; [CPU_] |163| 
         00000029 0000 
    1404                      ; call occurs [#_SCI_enableRx] ; [] |163| 
    1405                      .dwpsn  file "C:/Users/wmj/Desktop/BM1000_v1.1/sw/drivers/drvic/modbus/mb.c",line 164,column 6,is_stm
    1406 0000002a 9A0C          MOVB      AL,#12                ; [CPU_] |164| 
    1407 0000002b 8AE2          MOVL      XAR4,*+XAR2[4]        ; [CPU_] |164| 
    1408              $C$DW$100       .dwtag  DW_TAG_TI_branch
    1409                      .dwattr $C$DW$100, DW_AT_low_pc(0x00)
    1410                      .dwattr $C$DW$100, DW_AT_name("_GPIO_setLow")
    1411                      .dwattr $C$DW$100, DW_AT_TI_call
    1412              
    1413 0000002c 7640!         LCR       #_GPIO_setLow         ; [CPU_] |164| 
         0000002d 0000 
    1414                      ; call occurs [#_GPIO_setLow] ; [] |164| 
    1415 0000002e       $C$L3:    
    1416 0000002e 92A1          MOV       AL,AR1                ; [CPU_] 
    1417                      .dwpsn  file "C:/Users/wmj/Desktop/BM1000_v1.1/sw/drivers/drvic/modbus/mb.c",line 172,column 3,is_stm
    1418 0000002f 5201          CMPB      AL,#1                 ; [CPU_] |172| 
    1419 00000030 610A          B         $C$L4,EQ              ; [CPU_] |172| 
    1420                      ; branchcc occurs ; [] |172| 
    1421                      .dwpsn  file "C:/Users/wmj/Desktop/BM1000_v1.1/sw/drivers/drvic/modbus/mb.c",line 179,column 2,is_stm
    1422 00000031 D008          MOVB      XAR0,#8               ; [CPU_] |179| 
    1423 00000032 8A92          MOVL      XAR4,*+XAR2[AR0]      ; [CPU_] |179| 
    1424              $C$DW$101       .dwtag  DW_TAG_TI_branch
    1425                      .dwattr $C$DW$101, DW_AT_low_pc(0x00)
TMS320C2000 Assembler PC v15.12.3 Wed Nov 22 01:55:15 2017

Tools Copyright (c) 1996-2015 Texas Instruments Incorporated
C:\Users\wmj\AppData\Local\Temp\1239610                              PAGE   27

    1426                      .dwattr $C$DW$101, DW_AT_name("_SCI_disableTx")
    1427                      .dwattr $C$DW$101, DW_AT_TI_call
    1428              
    1429 00000033 7640!         LCR       #_SCI_disableTx       ; [CPU_] |179| 
         00000034 0000 
    1430                      ; call occurs [#_SCI_disableTx] ; [] |179| 
    1431                      .dwpsn  file "C:/Users/wmj/Desktop/BM1000_v1.1/sw/drivers/drvic/modbus/mb.c",line 180,column 5,is_stm
    1432 00000035 9A22          MOVB      AL,#34                ; [CPU_] |180| 
    1433 00000036 8AE2          MOVL      XAR4,*+XAR2[4]        ; [CPU_] |180| 
    1434              $C$DW$102       .dwtag  DW_TAG_TI_branch
    1435                      .dwattr $C$DW$102, DW_AT_low_pc(0x00)
    1436                      .dwattr $C$DW$102, DW_AT_name("_GPIO_setLow")
    1437                      .dwattr $C$DW$102, DW_AT_TI_call
    1438              
    1439 00000037 7640!         LCR       #_GPIO_setLow         ; [CPU_] |180| 
         00000038 0000 
    1440                      ; call occurs [#_GPIO_setLow] ; [] |180| 
    1441 00000039 6F09          B         $C$L5,UNC             ; [CPU_] |180| 
    1442                      ; branch occurs ; [] |180| 
    1443 0000003a       $C$L4:    
    1444                      .dwpsn  file "C:/Users/wmj/Desktop/BM1000_v1.1/sw/drivers/drvic/modbus/mb.c",line 174,column 2,is_stm
    1445 0000003a D008          MOVB      XAR0,#8               ; [CPU_] |174| 
    1446 0000003b 8A92          MOVL      XAR4,*+XAR2[AR0]      ; [CPU_] |174| 
    1447              $C$DW$103       .dwtag  DW_TAG_TI_branch
    1448                      .dwattr $C$DW$103, DW_AT_low_pc(0x00)
    1449                      .dwattr $C$DW$103, DW_AT_name("_SCI_enableTx")
    1450                      .dwattr $C$DW$103, DW_AT_TI_call
    1451              
    1452 0000003c 7640!         LCR       #_SCI_enableTx        ; [CPU_] |174| 
         0000003d 0000 
    1453                      ; call occurs [#_SCI_enableTx] ; [] |174| 
    1454                      .dwpsn  file "C:/Users/wmj/Desktop/BM1000_v1.1/sw/drivers/drvic/modbus/mb.c",line 175,column 2,is_stm
    1455 0000003e 9A22          MOVB      AL,#34                ; [CPU_] |175| 
    1456 0000003f 8AE2          MOVL      XAR4,*+XAR2[4]        ; [CPU_] |175| 
    1457              $C$DW$104       .dwtag  DW_TAG_TI_branch
    1458                      .dwattr $C$DW$104, DW_AT_low_pc(0x00)
    1459                      .dwattr $C$DW$104, DW_AT_name("_GPIO_setHigh")
    1460                      .dwattr $C$DW$104, DW_AT_TI_call
    1461              
    1462 00000040 7640!         LCR       #_GPIO_setHigh        ; [CPU_] |175| 
         00000041 0000 
    1463                      ; call occurs [#_GPIO_setHigh] ; [] |175| 
    1464 00000042       $C$L5:    
    1465 00000042 86BE          MOVL      XAR2,*--SP            ; [CPU_] 
    1466                      .dwcfi  cfa_offset, -4
    1467                      .dwcfi  restore_reg, 9
    1468 00000043 8BBE          MOVL      XAR1,*--SP            ; [CPU_] 
    1469                      .dwcfi  cfa_offset, -2
    1470                      .dwcfi  restore_reg, 7
    1471              $C$DW$105       .dwtag  DW_TAG_TI_branch
    1472                      .dwattr $C$DW$105, DW_AT_low_pc(0x00)
    1473                      .dwattr $C$DW$105, DW_AT_TI_return
    1474              
    1475 00000044 0006          LRETR     ; [CPU_] 
    1476                      ; return occurs ; [] 
TMS320C2000 Assembler PC v15.12.3 Wed Nov 22 01:55:15 2017

Tools Copyright (c) 1996-2015 Texas Instruments Incorporated
C:\Users\wmj\AppData\Local\Temp\1239610                              PAGE   28

    1477                      .dwattr $C$DW$90, DW_AT_TI_end_file("C:/Users/wmj/Desktop/BM1000_v1.1/sw/drivers/drvic/modbus/mb.c")
    1478                      .dwattr $C$DW$90, DW_AT_TI_end_line(0xb7)
    1479                      .dwattr $C$DW$90, DW_AT_TI_end_column(0x01)
    1480                      .dwendentry
    1481                      .dwendtag $C$DW$90
    1482              
    1483 00000045               .sect   ".text"
    1484                      .clink
    1485                      .global _MB_PortSerialPutByte
    1486              
    1487              $C$DW$106       .dwtag  DW_TAG_subprogram
    1488                      .dwattr $C$DW$106, DW_AT_name("MB_PortSerialPutByte")
    1489                      .dwattr $C$DW$106, DW_AT_low_pc(_MB_PortSerialPutByte)
    1490                      .dwattr $C$DW$106, DW_AT_high_pc(0x00)
    1491                      .dwattr $C$DW$106, DW_AT_TI_symbol_name("_MB_PortSerialPutByte")
    1492                      .dwattr $C$DW$106, DW_AT_external
    1493                      .dwattr $C$DW$106, DW_AT_type(*$C$DW$T$59)
    1494                      .dwattr $C$DW$106, DW_AT_TI_begin_file("C:/Users/wmj/Desktop/BM1000_v1.1/sw/drivers/drvic/modbus/mb.c
    1495                      .dwattr $C$DW$106, DW_AT_TI_begin_line(0xba)
    1496                      .dwattr $C$DW$106, DW_AT_TI_begin_column(0x06)
    1497                      .dwattr $C$DW$106, DW_AT_TI_max_frame_size(-2)
    1498                      .dwpsn  file "C:/Users/wmj/Desktop/BM1000_v1.1/sw/drivers/drvic/modbus/mb.c",line 187,column 1,is_stm
    1499              
    1500                      .dwfde $C$DW$CIE, _MB_PortSerialPutByte
    1501              $C$DW$107       .dwtag  DW_TAG_formal_parameter
    1502                      .dwattr $C$DW$107, DW_AT_name("handle")
    1503                      .dwattr $C$DW$107, DW_AT_TI_symbol_name("_handle")
    1504                      .dwattr $C$DW$107, DW_AT_type(*$C$DW$T$178)
    1505                      .dwattr $C$DW$107, DW_AT_location[DW_OP_reg12]
    1506              
    1507              $C$DW$108       .dwtag  DW_TAG_formal_parameter
    1508                      .dwattr $C$DW$108, DW_AT_name("putByte")
    1509                      .dwattr $C$DW$108, DW_AT_TI_symbol_name("_putByte")
    1510                      .dwattr $C$DW$108, DW_AT_type(*$C$DW$T$276)
    1511                      .dwattr $C$DW$108, DW_AT_location[DW_OP_reg0]
    1512              
    1513              
    1514              ;***************************************************************
    1515              ;* FNAME: _MB_PortSerialPutByte         FR SIZE:   0           *
    1516              ;*                                                             *
    1517              ;* FUNCTION ENVIRONMENT                                        *
    1518              ;*                                                             *
    1519              ;* FUNCTION PROPERTIES                                         *
    1520              ;*                            0 Parameter,  0 Auto,  0 SOE     *
    1521              ;***************************************************************
    1522              
    1523              _MB_PortSerialPutByte:
    1524              ;* AR4   assigned to _handle
    1525              $C$DW$109       .dwtag  DW_TAG_variable
    1526                      .dwattr $C$DW$109, DW_AT_name("handle")
    1527                      .dwattr $C$DW$109, DW_AT_TI_symbol_name("_handle")
    1528                      .dwattr $C$DW$109, DW_AT_type(*$C$DW$T$200)
    1529                      .dwattr $C$DW$109, DW_AT_location[DW_OP_reg12]
    1530              
    1531              ;* AL    assigned to _putData_state
TMS320C2000 Assembler PC v15.12.3 Wed Nov 22 01:55:15 2017

Tools Copyright (c) 1996-2015 Texas Instruments Incorporated
C:\Users\wmj\AppData\Local\Temp\1239610                              PAGE   29

    1532              $C$DW$110       .dwtag  DW_TAG_variable
    1533                      .dwattr $C$DW$110, DW_AT_name("putData_state")
    1534                      .dwattr $C$DW$110, DW_AT_TI_symbol_name("_putData_state")
    1535                      .dwattr $C$DW$110, DW_AT_type(*$C$DW$T$21)
    1536                      .dwattr $C$DW$110, DW_AT_location[DW_OP_reg0]
    1537              
    1538                      .dwcfi  cfa_offset, -2
    1539                      .dwcfi  save_reg_to_mem, 26, 0
    1540                      .dwpsn  file "C:/Users/wmj/Desktop/BM1000_v1.1/sw/drivers/drvic/modbus/mb.c",line 191,column 5,is_stm
    1541 00000045 D008          MOVB      XAR0,#8               ; [CPU_] |191| 
    1542 00000046 8A94          MOVL      XAR4,*+XAR4[AR0]      ; [CPU_] |191| 
    1543              $C$DW$111       .dwtag  DW_TAG_TI_branch
    1544                      .dwattr $C$DW$111, DW_AT_low_pc(0x00)
    1545                      .dwattr $C$DW$111, DW_AT_name("_SCI_putDataNonBlocking")
    1546                      .dwattr $C$DW$111, DW_AT_TI_call
    1547              
    1548 00000047 7640!         LCR       #_SCI_putDataNonBlocking ; [CPU_] |191| 
         00000048 0000 
    1549                      ; call occurs [#_SCI_putDataNonBlocking] ; [] |191| 
    1550                      .dwpsn  file "C:/Users/wmj/Desktop/BM1000_v1.1/sw/drivers/drvic/modbus/mb.c",line 193,column 5,is_stm
    1551 00000049 9B00          MOVB      AH,#0                 ; [CPU_] |193| 
    1552 0000004a 5200          CMPB      AL,#0                 ; [CPU_] |193| 
    1553 0000004b 56B0          MOVB      AH,#1,NEQ             ; [CPU_] |193| 
         0000004c 01A8 
    1554 0000004d 92A8          MOV       AL,AH                 ; [CPU_] |193| 
    1555              $C$DW$112       .dwtag  DW_TAG_TI_branch
    1556                      .dwattr $C$DW$112, DW_AT_low_pc(0x00)
    1557                      .dwattr $C$DW$112, DW_AT_TI_return
    1558              
    1559 0000004e 0006          LRETR     ; [CPU_] 
    1560                      ; return occurs ; [] 
    1561                      .dwattr $C$DW$106, DW_AT_TI_end_file("C:/Users/wmj/Desktop/BM1000_v1.1/sw/drivers/drvic/modbus/mb.c")
    1562                      .dwattr $C$DW$106, DW_AT_TI_end_line(0xc2)
    1563                      .dwattr $C$DW$106, DW_AT_TI_end_column(0x01)
    1564                      .dwendentry
    1565                      .dwendtag $C$DW$106
    1566              
    1567 0000004f               .sect   ".text"
    1568                      .clink
    1569                      .global _MB_RTUTransmitFSM
    1570              
    1571              $C$DW$113       .dwtag  DW_TAG_subprogram
    1572                      .dwattr $C$DW$113, DW_AT_name("MB_RTUTransmitFSM")
    1573                      .dwattr $C$DW$113, DW_AT_low_pc(_MB_RTUTransmitFSM)
    1574                      .dwattr $C$DW$113, DW_AT_high_pc(0x00)
    1575                      .dwattr $C$DW$113, DW_AT_TI_symbol_name("_MB_RTUTransmitFSM")
    1576                      .dwattr $C$DW$113, DW_AT_external
    1577                      .dwattr $C$DW$113, DW_AT_TI_begin_file("C:/Users/wmj/Desktop/BM1000_v1.1/sw/drivers/drvic/modbus/mb.c
    1578                      .dwattr $C$DW$113, DW_AT_TI_begin_line(0x101)
    1579                      .dwattr $C$DW$113, DW_AT_TI_begin_column(0x06)
    1580                      .dwattr $C$DW$113, DW_AT_TI_max_frame_size(-4)
    1581                      .dwpsn  file "C:/Users/wmj/Desktop/BM1000_v1.1/sw/drivers/drvic/modbus/mb.c",line 258,column 1,is_stm
    1582              
    1583                      .dwfde $C$DW$CIE, _MB_RTUTransmitFSM
    1584              $C$DW$114       .dwtag  DW_TAG_formal_parameter
TMS320C2000 Assembler PC v15.12.3 Wed Nov 22 01:55:15 2017

Tools Copyright (c) 1996-2015 Texas Instruments Incorporated
C:\Users\wmj\AppData\Local\Temp\1239610                              PAGE   30

    1585                      .dwattr $C$DW$114, DW_AT_name("handle")
    1586                      .dwattr $C$DW$114, DW_AT_TI_symbol_name("_handle")
    1587                      .dwattr $C$DW$114, DW_AT_type(*$C$DW$T$178)
    1588                      .dwattr $C$DW$114, DW_AT_location[DW_OP_reg12]
    1589              
    1590              
    1591              ;***************************************************************
    1592              ;* FNAME: _MB_RTUTransmitFSM            FR SIZE:   2           *
    1593              ;*                                                             *
    1594              ;* FUNCTION ENVIRONMENT                                        *
    1595              ;*                                                             *
    1596              ;* FUNCTION PROPERTIES                                         *
    1597              ;*                            0 Parameter,  0 Auto,  2 SOE     *
    1598              ;***************************************************************
    1599              
    1600              _MB_RTUTransmitFSM:
    1601              ;* AR1   assigned to _handle
    1602              $C$DW$115       .dwtag  DW_TAG_variable
    1603                      .dwattr $C$DW$115, DW_AT_name("handle")
    1604                      .dwattr $C$DW$115, DW_AT_TI_symbol_name("_handle")
    1605                      .dwattr $C$DW$115, DW_AT_type(*$C$DW$T$200)
    1606                      .dwattr $C$DW$115, DW_AT_location[DW_OP_reg6]
    1607              
    1608                      .dwcfi  cfa_offset, -2
    1609                      .dwcfi  save_reg_to_mem, 26, 0
    1610 0000004f B2BD          MOVL      *SP++,XAR1            ; [CPU_] 
    1611                      .dwcfi  save_reg_to_mem, 7, 2
    1612                      .dwcfi  cfa_offset, -4
    1613 00000050 8BA4          MOVL      XAR1,XAR4             ; [CPU_] |258| 
    1614                      .dwpsn  file "C:/Users/wmj/Desktop/BM1000_v1.1/sw/drivers/drvic/modbus/mb.c",line 263,column 5,is_stm
    1615 00000051 D01B          MOVB      XAR0,#27              ; [CPU_] |263| 
    1616 00000052 9291          MOV       AL,*+XAR1[AR0]        ; [CPU_] |263| 
    1617 00000053 611D          B         $C$L7,EQ              ; [CPU_] |263| 
    1618                      ; branchcc occurs ; [] |263| 
    1619 00000054 5201          CMPB      AL,#1                 ; [CPU_] |263| 
    1620 00000055 601F          B         $C$L8,NEQ             ; [CPU_] |263| 
    1621                      ; branchcc occurs ; [] |263| 
    1622                      .dwpsn  file "C:/Users/wmj/Desktop/BM1000_v1.1/sw/drivers/drvic/modbus/mb.c",line 271,column 9,is_stm
    1623 00000056 D018          MOVB      XAR0,#24              ; [CPU_] |271| 
    1624 00000057 9291          MOV       AL,*+XAR1[AR0]        ; [CPU_] |271| 
    1625 00000058 600B          B         $C$L6,NEQ             ; [CPU_] |271| 
    1626                      ; branchcc occurs ; [] |271| 
    1627                      .dwpsn  file "C:/Users/wmj/Desktop/BM1000_v1.1/sw/drivers/drvic/modbus/mb.c",line 279,column 11,is_st
    1628 00000059 9A03          MOVB      AL,#3                 ; [CPU_] |279| 
    1629              $C$DW$116       .dwtag  DW_TAG_TI_branch
    1630                      .dwattr $C$DW$116, DW_AT_low_pc(0x00)
    1631                      .dwattr $C$DW$116, DW_AT_name("_MB_PortEventPost")
    1632                      .dwattr $C$DW$116, DW_AT_TI_call
    1633              
    1634 0000005a 7640'         LCR       #_MB_PortEventPost    ; [CPU_] |279| 
         0000005b 0011 
    1635                      ; call occurs [#_MB_PortEventPost] ; [] |279| 
    1636                      .dwpsn  file "C:/Users/wmj/Desktop/BM1000_v1.1/sw/drivers/drvic/modbus/mb.c",line 282,column 11,is_st
    1637 0000005c 9B00          MOVB      AH,#0                 ; [CPU_] |282| 
    1638 0000005d 9A01          MOVB      AL,#1                 ; [CPU_] |282| 
TMS320C2000 Assembler PC v15.12.3 Wed Nov 22 01:55:15 2017

Tools Copyright (c) 1996-2015 Texas Instruments Incorporated
C:\Users\wmj\AppData\Local\Temp\1239610                              PAGE   31

    1639              $C$DW$117       .dwtag  DW_TAG_TI_branch
    1640                      .dwattr $C$DW$117, DW_AT_low_pc(0x00)
    1641                      .dwattr $C$DW$117, DW_AT_name("_MB_PortSerialEnable")
    1642                      .dwattr $C$DW$117, DW_AT_TI_call
    1643              
    1644 0000005e 7640'         LCR       #_MB_PortSerialEnable ; [CPU_] |282| 
         0000005f 0017 
    1645                      ; call occurs [#_MB_PortSerialEnable] ; [] |282| 
    1646                      .dwpsn  file "C:/Users/wmj/Desktop/BM1000_v1.1/sw/drivers/drvic/modbus/mb.c",line 284,column 11,is_st
    1647 00000060 D01B          MOVB      XAR0,#27              ; [CPU_] |284| 
    1648 00000061 2B91          MOV       *+XAR1[AR0],#0        ; [CPU_] |284| 
    1649 00000062 6F12          B         $C$L8,UNC             ; [CPU_] |284| 
    1650                      ; branch occurs ; [] |284| 
    1651 00000063       $C$L6:    
    1652                      .dwpsn  file "C:/Users/wmj/Desktop/BM1000_v1.1/sw/drivers/drvic/modbus/mb.c",line 273,column 12,is_st
    1653 00000063 DC16          ADDB      XAR4,#22              ; [CPU_] |273| 
    1654 00000064 0201          MOVB      ACC,#1                ; [CPU_] |273| 
    1655                      .dwpsn  file "C:/Users/wmj/Desktop/BM1000_v1.1/sw/drivers/drvic/modbus/mb.c",line 274,column 12,is_st
    1656 00000065 D016          MOVB      XAR0,#22              ; [CPU_] |274| 
    1657                      .dwpsn  file "C:/Users/wmj/Desktop/BM1000_v1.1/sw/drivers/drvic/modbus/mb.c",line 273,column 12,is_st
    1658 00000066 5601          ADDL      *+XAR4[0],ACC         ; [CPU_] |273| 
         00000067 00C4 
    1659                      .dwpsn  file "C:/Users/wmj/Desktop/BM1000_v1.1/sw/drivers/drvic/modbus/mb.c",line 274,column 12,is_st
    1660 00000068 8A91          MOVL      XAR4,*+XAR1[AR0]      ; [CPU_] |274| 
    1661 00000069 92C4          MOV       AL,*+XAR4[0]          ; [CPU_] |274| 
    1662 0000006a 8AA1          MOVL      XAR4,XAR1             ; [CPU_] |274| 
    1663              $C$DW$118       .dwtag  DW_TAG_TI_branch
    1664                      .dwattr $C$DW$118, DW_AT_low_pc(0x00)
    1665                      .dwattr $C$DW$118, DW_AT_name("_MB_PortSerialPutByte")
    1666                      .dwattr $C$DW$118, DW_AT_TI_call
    1667              
    1668 0000006b 7640'         LCR       #_MB_PortSerialPutByte ; [CPU_] |274| 
         0000006c 0045 
    1669                      ; call occurs [#_MB_PortSerialPutByte] ; [] |274| 
    1670                      .dwpsn  file "C:/Users/wmj/Desktop/BM1000_v1.1/sw/drivers/drvic/modbus/mb.c",line 275,column 12,is_st
    1671 0000006d D918          ADDB      XAR1,#24              ; [CPU_] |275| 
    1672 0000006e 0BC1          DEC       *+XAR1[0]             ; [CPU_] |275| 
    1673                      .dwpsn  file "C:/Users/wmj/Desktop/BM1000_v1.1/sw/drivers/drvic/modbus/mb.c",line 276,column 10,is_st
    1674 0000006f 6F05          B         $C$L8,UNC             ; [CPU_] |276| 
    1675                      ; branch occurs ; [] |276| 
    1676 00000070       $C$L7:    
    1677                      .dwpsn  file "C:/Users/wmj/Desktop/BM1000_v1.1/sw/drivers/drvic/modbus/mb.c",line 267,column 9,is_stm
    1678 00000070 9A01          MOVB      AL,#1                 ; [CPU_] |267| 
    1679 00000071 9B00          MOVB      AH,#0                 ; [CPU_] |267| 
    1680              $C$DW$119       .dwtag  DW_TAG_TI_branch
    1681                      .dwattr $C$DW$119, DW_AT_low_pc(0x00)
    1682                      .dwattr $C$DW$119, DW_AT_name("_MB_PortSerialEnable")
    1683                      .dwattr $C$DW$119, DW_AT_TI_call
    1684              
    1685 00000072 7640'         LCR       #_MB_PortSerialEnable ; [CPU_] |267| 
         00000073 0017 
    1686                      ; call occurs [#_MB_PortSerialEnable] ; [] |267| 
    1687 00000074       $C$L8:    
    1688 00000074 8BBE          MOVL      XAR1,*--SP            ; [CPU_] 
    1689                      .dwcfi  cfa_offset, -2
TMS320C2000 Assembler PC v15.12.3 Wed Nov 22 01:55:15 2017

Tools Copyright (c) 1996-2015 Texas Instruments Incorporated
C:\Users\wmj\AppData\Local\Temp\1239610                              PAGE   32

    1690                      .dwcfi  restore_reg, 7
    1691              $C$DW$120       .dwtag  DW_TAG_TI_branch
    1692                      .dwattr $C$DW$120, DW_AT_low_pc(0x00)
    1693                      .dwattr $C$DW$120, DW_AT_TI_return
    1694              
    1695 00000075 0006          LRETR     ; [CPU_] 
    1696                      ; return occurs ; [] 
    1697                      .dwattr $C$DW$113, DW_AT_TI_end_file("C:/Users/wmj/Desktop/BM1000_v1.1/sw/drivers/drvic/modbus/mb.c")
    1698                      .dwattr $C$DW$113, DW_AT_TI_end_line(0x122)
    1699                      .dwattr $C$DW$113, DW_AT_TI_end_column(0x01)
    1700                      .dwendentry
    1701                      .dwendtag $C$DW$113
    1702              
    1703 00000076               .sect   ".text"
    1704                      .clink
    1705                      .global _MB_PortTimersDisable
    1706              
    1707              $C$DW$121       .dwtag  DW_TAG_subprogram
    1708                      .dwattr $C$DW$121, DW_AT_name("MB_PortTimersDisable")
    1709                      .dwattr $C$DW$121, DW_AT_low_pc(_MB_PortTimersDisable)
    1710                      .dwattr $C$DW$121, DW_AT_high_pc(0x00)
    1711                      .dwattr $C$DW$121, DW_AT_TI_symbol_name("_MB_PortTimersDisable")
    1712                      .dwattr $C$DW$121, DW_AT_external
    1713                      .dwattr $C$DW$121, DW_AT_TI_begin_file("C:/Users/wmj/Desktop/BM1000_v1.1/sw/drivers/drvic/modbus/mb.c
    1714                      .dwattr $C$DW$121, DW_AT_TI_begin_line(0x93)
    1715                      .dwattr $C$DW$121, DW_AT_TI_begin_column(0x06)
    1716                      .dwattr $C$DW$121, DW_AT_TI_max_frame_size(-2)
    1717                      .dwpsn  file "C:/Users/wmj/Desktop/BM1000_v1.1/sw/drivers/drvic/modbus/mb.c",line 148,column 1,is_stm
    1718              
    1719                      .dwfde $C$DW$CIE, _MB_PortTimersDisable
    1720              $C$DW$122       .dwtag  DW_TAG_formal_parameter
    1721                      .dwattr $C$DW$122, DW_AT_name("handle")
    1722                      .dwattr $C$DW$122, DW_AT_TI_symbol_name("_handle")
    1723                      .dwattr $C$DW$122, DW_AT_type(*$C$DW$T$178)
    1724                      .dwattr $C$DW$122, DW_AT_location[DW_OP_reg12]
    1725              
    1726              
    1727              ;***************************************************************
    1728              ;* FNAME: _MB_PortTimersDisable         FR SIZE:   0           *
    1729              ;*                                                             *
    1730              ;* FUNCTION ENVIRONMENT                                        *
    1731              ;*                                                             *
    1732              ;* FUNCTION PROPERTIES                                         *
    1733              ;*                            0 Parameter,  0 Auto,  0 SOE     *
    1734              ;***************************************************************
    1735              
    1736              _MB_PortTimersDisable:
    1737              ;* AR4   assigned to _handle
    1738              $C$DW$123       .dwtag  DW_TAG_variable
    1739                      .dwattr $C$DW$123, DW_AT_name("handle")
    1740                      .dwattr $C$DW$123, DW_AT_TI_symbol_name("_handle")
    1741                      .dwattr $C$DW$123, DW_AT_type(*$C$DW$T$200)
    1742                      .dwattr $C$DW$123, DW_AT_location[DW_OP_reg12]
    1743              
    1744                      .dwcfi  cfa_offset, -2
TMS320C2000 Assembler PC v15.12.3 Wed Nov 22 01:55:15 2017

Tools Copyright (c) 1996-2015 Texas Instruments Incorporated
C:\Users\wmj\AppData\Local\Temp\1239610                              PAGE   33

    1745                      .dwcfi  save_reg_to_mem, 26, 0
    1746                      .dwpsn  file "C:/Users/wmj/Desktop/BM1000_v1.1/sw/drivers/timer/src/32b/f28x/f2802x/timer.h",line 276
    1747 00000076 8AF4          MOVL      XAR4,*+XAR4[6]        ; [CPU_] |276| 
    1748 00000077 1AE4          OR        *+XAR4[4],#0x0010     ; [CPU_] |276| 
         00000078 0010 
    1749              $C$DW$124       .dwtag  DW_TAG_TI_branch
    1750                      .dwattr $C$DW$124, DW_AT_low_pc(0x00)
    1751                      .dwattr $C$DW$124, DW_AT_TI_return
    1752              
    1753 00000079 0006          LRETR     ; [CPU_] 
    1754                      ; return occurs ; [] 
    1755                      .dwattr $C$DW$121, DW_AT_TI_end_file("C:/Users/wmj/Desktop/BM1000_v1.1/sw/drivers/drvic/modbus/mb.c")
    1756                      .dwattr $C$DW$121, DW_AT_TI_end_line(0x9a)
    1757                      .dwattr $C$DW$121, DW_AT_TI_end_column(0x01)
    1758                      .dwendentry
    1759                      .dwendtag $C$DW$121
    1760              
    1761 0000007a               .sect   ".text"
    1762                      .clink
    1763                      .global _MB_RTUTimerFSM
    1764              
    1765              $C$DW$125       .dwtag  DW_TAG_subprogram
    1766                      .dwattr $C$DW$125, DW_AT_name("MB_RTUTimerFSM")
    1767                      .dwattr $C$DW$125, DW_AT_low_pc(_MB_RTUTimerFSM)
    1768                      .dwattr $C$DW$125, DW_AT_high_pc(0x00)
    1769                      .dwattr $C$DW$125, DW_AT_TI_symbol_name("_MB_RTUTimerFSM")
    1770                      .dwattr $C$DW$125, DW_AT_external
    1771                      .dwattr $C$DW$125, DW_AT_TI_begin_file("C:/Users/wmj/Desktop/BM1000_v1.1/sw/drivers/drvic/modbus/mb.c
    1772                      .dwattr $C$DW$125, DW_AT_TI_begin_line(0xee)
    1773                      .dwattr $C$DW$125, DW_AT_TI_begin_column(0x06)
    1774                      .dwattr $C$DW$125, DW_AT_TI_max_frame_size(-2)
    1775                      .dwpsn  file "C:/Users/wmj/Desktop/BM1000_v1.1/sw/drivers/drvic/modbus/mb.c",line 239,column 1,is_stm
    1776              
    1777                      .dwfde $C$DW$CIE, _MB_RTUTimerFSM
    1778              $C$DW$126       .dwtag  DW_TAG_formal_parameter
    1779                      .dwattr $C$DW$126, DW_AT_name("handle")
    1780                      .dwattr $C$DW$126, DW_AT_TI_symbol_name("_handle")
    1781                      .dwattr $C$DW$126, DW_AT_type(*$C$DW$T$178)
    1782                      .dwattr $C$DW$126, DW_AT_location[DW_OP_reg12]
    1783              
    1784              
    1785              ;***************************************************************
    1786              ;* FNAME: _MB_RTUTimerFSM               FR SIZE:   0           *
    1787              ;*                                                             *
    1788              ;* FUNCTION ENVIRONMENT                                        *
    1789              ;*                                                             *
    1790              ;* FUNCTION PROPERTIES                                         *
    1791              ;*                            0 Parameter,  0 Auto,  0 SOE     *
    1792              ;***************************************************************
    1793              
    1794              _MB_RTUTimerFSM:
    1795              ;* AR5   assigned to _handle
    1796              $C$DW$127       .dwtag  DW_TAG_variable
    1797                      .dwattr $C$DW$127, DW_AT_name("handle")
    1798                      .dwattr $C$DW$127, DW_AT_TI_symbol_name("_handle")
TMS320C2000 Assembler PC v15.12.3 Wed Nov 22 01:55:15 2017

Tools Copyright (c) 1996-2015 Texas Instruments Incorporated
C:\Users\wmj\AppData\Local\Temp\1239610                              PAGE   34

    1799                      .dwattr $C$DW$127, DW_AT_type(*$C$DW$T$200)
    1800                      .dwattr $C$DW$127, DW_AT_location[DW_OP_reg14]
    1801              
    1802                      .dwcfi  cfa_offset, -2
    1803                      .dwcfi  save_reg_to_mem, 26, 0
    1804 0000007a 83A4          MOVL      XAR5,XAR4             ; [CPU_] |239| 
    1805                      .dwpsn  file "C:/Users/wmj/Desktop/BM1000_v1.1/sw/drivers/drvic/modbus/mb.c",line 242,column 5,is_stm
    1806 0000007b D01C          MOVB      XAR0,#28              ; [CPU_] |242| 
    1807 0000007c 9295          MOV       AL,*+XAR5[AR0]        ; [CPU_] |242| 
    1808 0000007d 6105          B         $C$L9,EQ              ; [CPU_] |242| 
    1809                      ; branchcc occurs ; [] |242| 
    1810 0000007e 5202          CMPB      AL,#2                 ; [CPU_] |242| 
    1811 0000007f 6006          B         $C$L11,NEQ            ; [CPU_] |242| 
    1812                      ; branchcc occurs ; [] |242| 
    1813                      .dwpsn  file "C:/Users/wmj/Desktop/BM1000_v1.1/sw/drivers/drvic/modbus/mb.c",line 246,column 25,is_st
    1814 00000080 9A01          MOVB      AL,#1                 ; [CPU_] |246| 
    1815                      .dwpsn  file "C:/Users/wmj/Desktop/BM1000_v1.1/sw/drivers/drvic/modbus/mb.c",line 246,column 70,is_st
    1816 00000081 6F02          B         $C$L10,UNC            ; [CPU_] |246| 
    1817                      ; branch occurs ; [] |246| 
    1818 00000082       $C$L9:    
    1819                      .dwpsn  file "C:/Users/wmj/Desktop/BM1000_v1.1/sw/drivers/drvic/modbus/mb.c",line 245,column 25,is_st
    1820 00000082 9A00          MOVB      AL,#0                 ; [CPU_] |245| 
    1821              $C$L10:    
    1822              $C$DW$128       .dwtag  DW_TAG_TI_branch
    1823                      .dwattr $C$DW$128, DW_AT_low_pc(0x00)
    1824                      .dwattr $C$DW$128, DW_AT_name("_MB_PortEventPost")
    1825                      .dwattr $C$DW$128, DW_AT_TI_call
    1826              
    1827 00000083 7640'         LCR       #_MB_PortEventPost    ; [CPU_] |245| 
         00000084 0011 
    1828                      ; call occurs [#_MB_PortEventPost] ; [] |245| 
    1829 00000085       $C$L11:    
    1830                      .dwpsn  file "C:/Users/wmj/Desktop/BM1000_v1.1/sw/drivers/drvic/modbus/mb.c",line 251,column 5,is_stm
    1831              $C$DW$129       .dwtag  DW_TAG_TI_branch
    1832                      .dwattr $C$DW$129, DW_AT_low_pc(0x00)
    1833                      .dwattr $C$DW$129, DW_AT_name("_MB_PortTimersDisable")
    1834                      .dwattr $C$DW$129, DW_AT_TI_call
    1835              
    1836 00000085 7640'         LCR       #_MB_PortTimersDisable ; [CPU_] |251| 
         00000086 0076 
    1837                      ; call occurs [#_MB_PortTimersDisable] ; [] |251| 
    1838                      .dwpsn  file "C:/Users/wmj/Desktop/BM1000_v1.1/sw/drivers/drvic/modbus/mb.c",line 252,column 5,is_stm
    1839 00000087 D01C          MOVB      XAR0,#28              ; [CPU_] |252| 
    1840 00000088 56BF          MOVB      *+XAR5[AR0],#1,UNC    ; [CPU_] |252| 
         00000089 0195 
    1841              $C$DW$130       .dwtag  DW_TAG_TI_branch
    1842                      .dwattr $C$DW$130, DW_AT_low_pc(0x00)
    1843                      .dwattr $C$DW$130, DW_AT_TI_return
    1844              
    1845 0000008a 0006          LRETR     ; [CPU_] 
    1846                      ; return occurs ; [] 
    1847                      .dwattr $C$DW$125, DW_AT_TI_end_file("C:/Users/wmj/Desktop/BM1000_v1.1/sw/drivers/drvic/modbus/mb.c")
    1848                      .dwattr $C$DW$125, DW_AT_TI_end_line(0xff)
    1849                      .dwattr $C$DW$125, DW_AT_TI_end_column(0x01)
    1850                      .dwendentry
TMS320C2000 Assembler PC v15.12.3 Wed Nov 22 01:55:15 2017

Tools Copyright (c) 1996-2015 Texas Instruments Incorporated
C:\Users\wmj\AppData\Local\Temp\1239610                              PAGE   35

    1851                      .dwendtag $C$DW$125
    1852              
    1853 0000008b               .sect   ".text"
    1854                      .clink
    1855                      .global _MB_CRC16
    1856              
    1857              $C$DW$131       .dwtag  DW_TAG_subprogram
    1858                      .dwattr $C$DW$131, DW_AT_name("MB_CRC16")
    1859                      .dwattr $C$DW$131, DW_AT_low_pc(_MB_CRC16)
    1860                      .dwattr $C$DW$131, DW_AT_high_pc(0x00)
    1861                      .dwattr $C$DW$131, DW_AT_TI_symbol_name("_MB_CRC16")
    1862                      .dwattr $C$DW$131, DW_AT_external
    1863                      .dwattr $C$DW$131, DW_AT_type(*$C$DW$T$21)
    1864                      .dwattr $C$DW$131, DW_AT_TI_begin_file("C:/Users/wmj/Desktop/BM1000_v1.1/sw/drivers/drvic/modbus/mb.c
    1865                      .dwattr $C$DW$131, DW_AT_TI_begin_line(0x3b)
    1866                      .dwattr $C$DW$131, DW_AT_TI_begin_column(0x0a)
    1867                      .dwattr $C$DW$131, DW_AT_TI_max_frame_size(-2)
    1868                      .dwpsn  file "C:/Users/wmj/Desktop/BM1000_v1.1/sw/drivers/drvic/modbus/mb.c",line 60,column 1,is_stmt
    1869              
    1870                      .dwfde $C$DW$CIE, _MB_CRC16
    1871              $C$DW$132       .dwtag  DW_TAG_formal_parameter
    1872                      .dwattr $C$DW$132, DW_AT_name("PDU_Frame")
    1873                      .dwattr $C$DW$132, DW_AT_TI_symbol_name("_PDU_Frame")
    1874                      .dwattr $C$DW$132, DW_AT_type(*$C$DW$T$250)
    1875                      .dwattr $C$DW$132, DW_AT_location[DW_OP_reg12]
    1876              
    1877              $C$DW$133       .dwtag  DW_TAG_formal_parameter
    1878                      .dwattr $C$DW$133, DW_AT_name("Length")
    1879                      .dwattr $C$DW$133, DW_AT_TI_symbol_name("_Length")
    1880                      .dwattr $C$DW$133, DW_AT_type(*$C$DW$T$21)
    1881                      .dwattr $C$DW$133, DW_AT_location[DW_OP_reg0]
    1882              
    1883              
    1884              ;***************************************************************
    1885              ;* FNAME: _MB_CRC16                     FR SIZE:   0           *
    1886              ;*                                                             *
    1887              ;* FUNCTION ENVIRONMENT                                        *
    1888              ;*                                                             *
    1889              ;* FUNCTION PROPERTIES                                         *
    1890              ;*                            0 Parameter,  0 Auto,  0 SOE     *
    1891              ;***************************************************************
    1892              
    1893              _MB_CRC16:
    1894              ;* AR7   assigned to _iIndex
    1895              $C$DW$134       .dwtag  DW_TAG_variable
    1896                      .dwattr $C$DW$134, DW_AT_name("iIndex")
    1897                      .dwattr $C$DW$134, DW_AT_TI_symbol_name("_iIndex")
    1898                      .dwattr $C$DW$134, DW_AT_type(*$C$DW$T$10)
    1899                      .dwattr $C$DW$134, DW_AT_location[DW_OP_reg18]
    1900              
    1901              ;* PH    assigned to _ucCRCLo
    1902              $C$DW$135       .dwtag  DW_TAG_variable
    1903                      .dwattr $C$DW$135, DW_AT_name("ucCRCLo")
    1904                      .dwattr $C$DW$135, DW_AT_TI_symbol_name("_ucCRCLo")
    1905                      .dwattr $C$DW$135, DW_AT_type(*$C$DW$T$6)
TMS320C2000 Assembler PC v15.12.3 Wed Nov 22 01:55:15 2017

Tools Copyright (c) 1996-2015 Texas Instruments Incorporated
C:\Users\wmj\AppData\Local\Temp\1239610                              PAGE   36

    1906                      .dwattr $C$DW$135, DW_AT_location[DW_OP_reg3]
    1907              
    1908              ;* PL    assigned to _ucCRCHi
    1909              $C$DW$136       .dwtag  DW_TAG_variable
    1910                      .dwattr $C$DW$136, DW_AT_name("ucCRCHi")
    1911                      .dwattr $C$DW$136, DW_AT_TI_symbol_name("_ucCRCHi")
    1912                      .dwattr $C$DW$136, DW_AT_type(*$C$DW$T$6)
    1913                      .dwattr $C$DW$136, DW_AT_location[DW_OP_reg2]
    1914              
    1915              ;* AL    assigned to _Length
    1916              $C$DW$137       .dwtag  DW_TAG_variable
    1917                      .dwattr $C$DW$137, DW_AT_name("Length")
    1918                      .dwattr $C$DW$137, DW_AT_TI_symbol_name("_Length")
    1919                      .dwattr $C$DW$137, DW_AT_type(*$C$DW$T$21)
    1920                      .dwattr $C$DW$137, DW_AT_location[DW_OP_reg0]
    1921              
    1922              ;* AR4   assigned to _PDU_Frame
    1923              $C$DW$138       .dwtag  DW_TAG_variable
    1924                      .dwattr $C$DW$138, DW_AT_name("PDU_Frame")
    1925                      .dwattr $C$DW$138, DW_AT_TI_symbol_name("_PDU_Frame")
    1926                      .dwattr $C$DW$138, DW_AT_type(*$C$DW$T$250)
    1927                      .dwattr $C$DW$138, DW_AT_location[DW_OP_reg12]
    1928              
    1929                      .dwcfi  cfa_offset, -2
    1930                      .dwcfi  save_reg_to_mem, 26, 0
    1931                      .dwpsn  file "C:/Users/wmj/Desktop/BM1000_v1.1/sw/drivers/drvic/modbus/mb.c",line 65,column 5,is_stmt
    1932 0000008b 5200          CMPB      AL,#0                 ; [CPU_] |65| 
    1933                      .dwpsn  file "C:/Users/wmj/Desktop/BM1000_v1.1/sw/drivers/drvic/modbus/mb.c",line 61,column 29,is_stm
    1934 0000008c 28AB          MOV       PL,#255               ; [CPU_] |61| 
         0000008d 00FF 
    1935                      .dwpsn  file "C:/Users/wmj/Desktop/BM1000_v1.1/sw/drivers/drvic/modbus/mb.c",line 62,column 29,is_stm
    1936 0000008e 28AA          MOV       PH,#255               ; [CPU_] |62| 
         0000008f 00FF 
    1937                      .dwpsn  file "C:/Users/wmj/Desktop/BM1000_v1.1/sw/drivers/drvic/modbus/mb.c",line 65,column 5,is_stmt
    1938 00000090 6117          B         $C$L13,EQ             ; [CPU_] |65| 
    1939                      ; branchcc occurs ; [] |65| 
    1940 00000091 88A9          MOVZ      AR6,AL                ; [CPU_] 
    1941 00000092 3B01          SETC      SXM                   ; [CPU_] 
    1942 00000093 DE81          SUBB      XAR6,#1               ; [CPU_U] 
    1943 00000094       $C$L12:    
    1944                      .dwpsn  file "C:/Users/wmj/Desktop/BM1000_v1.1/sw/drivers/drvic/modbus/mb.c",line 67,column 9,is_stmt
    1945 00000094 92AA          MOV       AL,PH                 ; [CPU_] |67| 
    1946 00000095 7084          XOR       AL,*XAR4++            ; [CPU_] |67| 
    1947 00000096 80A9          MOVZ      AR7,AL                ; [CPU_] |67| 
    1948                      .dwpsn  file "C:/Users/wmj/Desktop/BM1000_v1.1/sw/drivers/drvic/modbus/mb.c",line 68,column 9,is_stmt
    1949 00000097 8F40+         MOVL      XAR5,#_aucCRCHi       ; [CPU_U] |68| 
         00000098 0000 
    1950 00000099 A0A9          MOVL      ACC,XAR5              ; [CPU_] |68| 
    1951 0000009a 81A7          ADD       ACC,AR7               ; [CPU_] |68| 
    1952 0000009b 83A9          MOVL      XAR5,ACC              ; [CPU_] |68| 
    1953 0000009c 92AB          MOV       AL,PL                 ; [CPU_] |68| 
    1954 0000009d 70C5          XOR       AL,*+XAR5[0]          ; [CPU_] |68| 
    1955 0000009e 2FA9          MOV       PH,AL                 ; [CPU_] |68| 
    1956                      .dwpsn  file "C:/Users/wmj/Desktop/BM1000_v1.1/sw/drivers/drvic/modbus/mb.c",line 69,column 9,is_stmt
    1957 0000009f 8F40+         MOVL      XAR5,#_aucCRCLo       ; [CPU_U] |69| 
TMS320C2000 Assembler PC v15.12.3 Wed Nov 22 01:55:15 2017

Tools Copyright (c) 1996-2015 Texas Instruments Incorporated
C:\Users\wmj\AppData\Local\Temp\1239610                              PAGE   37

         000000a0 0000 
    1958 000000a1 A0A9          MOVL      ACC,XAR5              ; [CPU_] |69| 
    1959 000000a2 81A7          ADD       ACC,AR7               ; [CPU_] |69| 
    1960 000000a3 83A9          MOVL      XAR5,ACC              ; [CPU_] |69| 
    1961 000000a4 27C5          MOV       PL,*+XAR5[0]          ; [CPU_] |69| 
    1962                      .dwpsn  file "C:/Users/wmj/Desktop/BM1000_v1.1/sw/drivers/drvic/modbus/mb.c",line 65,column 5,is_stmt
    1963 000000a5 000E          BANZ      $C$L12,AR6--          ; [CPU_] |65| 
         000000a6 FFEF 
    1964                      ; branchcc occurs ; [] |65| 
    1965 000000a7       $C$L13:    
    1966                      .dwpsn  file "C:/Users/wmj/Desktop/BM1000_v1.1/sw/drivers/drvic/modbus/mb.c",line 71,column 5,is_stmt
    1967 000000a7 5603          MOV       ACC,PL << #8          ; [CPU_] |71| 
         000000a8 08AB 
    1968 000000a9 CAAA          OR        AL,PH                 ; [CPU_] |71| 
    1969              $C$DW$139       .dwtag  DW_TAG_TI_branch
    1970                      .dwattr $C$DW$139, DW_AT_low_pc(0x00)
    1971                      .dwattr $C$DW$139, DW_AT_TI_return
    1972              
    1973 000000aa 0006          LRETR     ; [CPU_] 
    1974                      ; return occurs ; [] 
    1975                      .dwattr $C$DW$131, DW_AT_TI_end_file("C:/Users/wmj/Desktop/BM1000_v1.1/sw/drivers/drvic/modbus/mb.c")
    1976                      .dwattr $C$DW$131, DW_AT_TI_end_line(0x48)
    1977                      .dwattr $C$DW$131, DW_AT_TI_end_column(0x01)
    1978                      .dwendentry
    1979                      .dwendtag $C$DW$131
    1980              
    1981 000000ab               .sect   ".text"
    1982                      .clink
    1983                      .global _MB_RTUSend
    1984              
    1985              $C$DW$140       .dwtag  DW_TAG_subprogram
    1986                      .dwattr $C$DW$140, DW_AT_name("MB_RTUSend")
    1987                      .dwattr $C$DW$140, DW_AT_low_pc(_MB_RTUSend)
    1988                      .dwattr $C$DW$140, DW_AT_high_pc(0x00)
    1989                      .dwattr $C$DW$140, DW_AT_TI_symbol_name("_MB_RTUSend")
    1990                      .dwattr $C$DW$140, DW_AT_external
    1991                      .dwattr $C$DW$140, DW_AT_type(*$C$DW$T$129)
    1992                      .dwattr $C$DW$140, DW_AT_TI_begin_file("C:/Users/wmj/Desktop/BM1000_v1.1/sw/drivers/drvic/modbus/mb.c
    1993                      .dwattr $C$DW$140, DW_AT_TI_begin_line(0x15e)
    1994                      .dwattr $C$DW$140, DW_AT_TI_begin_column(0x0e)
    1995                      .dwattr $C$DW$140, DW_AT_TI_max_frame_size(-4)
    1996                      .dwpsn  file "C:/Users/wmj/Desktop/BM1000_v1.1/sw/drivers/drvic/modbus/mb.c",line 351,column 1,is_stm
    1997              
    1998                      .dwfde $C$DW$CIE, _MB_RTUSend
    1999              $C$DW$141       .dwtag  DW_TAG_formal_parameter
    2000                      .dwattr $C$DW$141, DW_AT_name("handle")
    2001                      .dwattr $C$DW$141, DW_AT_TI_symbol_name("_handle")
    2002                      .dwattr $C$DW$141, DW_AT_type(*$C$DW$T$178)
    2003                      .dwattr $C$DW$141, DW_AT_location[DW_OP_reg12]
    2004              
    2005              
    2006              ;***************************************************************
    2007              ;* FNAME: _MB_RTUSend                   FR SIZE:   2           *
    2008              ;*                                                             *
    2009              ;* FUNCTION ENVIRONMENT                                        *
TMS320C2000 Assembler PC v15.12.3 Wed Nov 22 01:55:15 2017

Tools Copyright (c) 1996-2015 Texas Instruments Incorporated
C:\Users\wmj\AppData\Local\Temp\1239610                              PAGE   38

    2010              ;*                                                             *
    2011              ;* FUNCTION PROPERTIES                                         *
    2012              ;*                            0 Parameter,  0 Auto,  2 SOE     *
    2013              ;***************************************************************
    2014              
    2015              _MB_RTUSend:
    2016              ;* T     assigned to $O$C3
    2017              ;* AR6   assigned to _usCRC16
    2018              $C$DW$142       .dwtag  DW_TAG_variable
    2019                      .dwattr $C$DW$142, DW_AT_name("usCRC16")
    2020                      .dwattr $C$DW$142, DW_AT_TI_symbol_name("_usCRC16")
    2021                      .dwattr $C$DW$142, DW_AT_type(*$C$DW$T$127)
    2022                      .dwattr $C$DW$142, DW_AT_location[DW_OP_reg16]
    2023              
    2024              ;* AR1   assigned to _handle
    2025              $C$DW$143       .dwtag  DW_TAG_variable
    2026                      .dwattr $C$DW$143, DW_AT_name("handle")
    2027                      .dwattr $C$DW$143, DW_AT_TI_symbol_name("_handle")
    2028                      .dwattr $C$DW$143, DW_AT_type(*$C$DW$T$200)
    2029                      .dwattr $C$DW$143, DW_AT_location[DW_OP_reg6]
    2030              
    2031              ;* T     assigned to $O$T2
    2032              ;* AR7   assigned to $O$T1
    2033                      .dwcfi  cfa_offset, -2
    2034                      .dwcfi  save_reg_to_mem, 26, 0
    2035 000000ab B2BD          MOVL      *SP++,XAR1            ; [CPU_] 
    2036                      .dwcfi  save_reg_to_mem, 7, 2
    2037                      .dwcfi  cfa_offset, -4
    2038 000000ac 8BA4          MOVL      XAR1,XAR4             ; [CPU_] |351| 
    2039                      .dwpsn  file "C:/Users/wmj/Desktop/BM1000_v1.1/sw/drivers/drvic/modbus/mb.c",line 357,column 5,is_stm
    2040 000000ad D01C          MOVB      XAR0,#28              ; [CPU_] |357| 
    2041 000000ae 9291          MOV       AL,*+XAR1[AR0]        ; [CPU_] |357| 
    2042 000000af 5201          CMPB      AL,#1                 ; [CPU_] |357| 
    2043 000000b0 6103          B         $C$L14,EQ             ; [CPU_] |357| 
    2044                      ; branchcc occurs ; [] |357| 
    2045                      .dwpsn  file "C:/Users/wmj/Desktop/BM1000_v1.1/sw/drivers/drvic/modbus/mb.c",line 383,column 9,is_stm
    2046 000000b1 9A05          MOVB      AL,#5                 ; [CPU_] |383| 
    2047 000000b2 6F41          B         $C$L15,UNC            ; [CPU_] |383| 
    2048                      ; branch occurs ; [] |383| 
    2049 000000b3       $C$L14:    
    2050                      .dwpsn  file "C:/Users/wmj/Desktop/BM1000_v1.1/sw/drivers/drvic/modbus/mb.c",line 360,column 6,is_stm
    2051 000000b3 B2A9          MOVL      ACC,XAR1              ; [CPU_] |360| 
    2052 000000b4 D016          MOVB      XAR0,#22              ; [CPU_] |360| 
    2053                      .dwpsn  file "C:/Users/wmj/Desktop/BM1000_v1.1/sw/drivers/drvic/modbus/mb.c",line 363,column 6,is_stm
    2054 000000b5 C5A1          MOVL      XAR7,XAR1             ; [CPU_] |363| 
    2055                      .dwpsn  file "C:/Users/wmj/Desktop/BM1000_v1.1/sw/drivers/drvic/modbus/mb.c",line 367,column 6,is_stm
    2056 000000b6 DC18          ADDB      XAR4,#24              ; [CPU_] |367| 
    2057                      .dwpsn  file "C:/Users/wmj/Desktop/BM1000_v1.1/sw/drivers/drvic/modbus/mb.c",line 360,column 6,is_stm
    2058 000000b7 090C          ADDB      ACC,#12               ; [CPU_] |360| 
    2059 000000b8 1E91          MOVL      *+XAR1[AR0],ACC       ; [CPU_] |360| 
    2060                      .dwpsn  file "C:/Users/wmj/Desktop/BM1000_v1.1/sw/drivers/drvic/modbus/mb.c",line 363,column 6,is_stm
    2061 000000b9 D00C          MOVB      XAR0,#12              ; [CPU_] |363| 
    2062 000000ba DF19          ADDB      XAR7,#25              ; [CPU_] |363| 
    2063 000000bb 92C7          MOV       AL,*XAR7              ; [CPU_] |363| 
    2064 000000bc 9691          MOV       *+XAR1[AR0],AL        ; [CPU_] |363| 
TMS320C2000 Assembler PC v15.12.3 Wed Nov 22 01:55:15 2017

Tools Copyright (c) 1996-2015 Texas Instruments Incorporated
C:\Users\wmj\AppData\Local\Temp\1239610                              PAGE   39

    2065                      .dwpsn  file "C:/Users/wmj/Desktop/BM1000_v1.1/sw/drivers/drvic/modbus/mb.c",line 364,column 6,is_stm
    2066 000000bd D018          MOVB      XAR0,#24              ; [CPU_] |364| 
    2067 000000be 56BF          MOVB      *+XAR1[AR0],#1,UNC    ; [CPU_] |364| 
         000000bf 0191 
    2068                      .dwpsn  file "C:/Users/wmj/Desktop/BM1000_v1.1/sw/drivers/drvic/modbus/mb.c",line 367,column 6,is_stm
    2069 000000c0 0AC4          INC       *+XAR4[0]             ; [CPU_] |367| 
    2070                      .dwpsn  file "C:/Users/wmj/Desktop/BM1000_v1.1/sw/drivers/drvic/modbus/mb.c",line 368,column 6,is_stm
    2071 000000c1 8AA1          MOVL      XAR4,XAR1             ; [CPU_] |368| 
    2072                      .dwpsn  file "C:/Users/wmj/Desktop/BM1000_v1.1/sw/drivers/drvic/modbus/mb.c",line 371,column 9,is_stm
    2073 000000c2 D018          MOVB      XAR0,#24              ; [CPU_] |371| 
    2074                      .dwpsn  file "C:/Users/wmj/Desktop/BM1000_v1.1/sw/drivers/drvic/modbus/mb.c",line 368,column 6,is_stm
    2075 000000c3 DC18          ADDB      XAR4,#24              ; [CPU_] |368| 
    2076 000000c4 08C4          ADD       *+XAR4[0],#4          ; [CPU_] |368| 
         000000c5 0004 
    2077                      .dwpsn  file "C:/Users/wmj/Desktop/BM1000_v1.1/sw/drivers/drvic/modbus/mb.c",line 371,column 9,is_stm
    2078 000000c6 2D91          MOV       T,*+XAR1[AR0]         ; [CPU_] |371| 
    2079 000000c7 D016          MOVB      XAR0,#22              ; [CPU_] |371| 
    2080 000000c8 92AC          MOV       AL,T                  ; [CPU_] |371| 
    2081 000000c9 8A91          MOVL      XAR4,*+XAR1[AR0]      ; [CPU_] |371| 
    2082              $C$DW$144       .dwtag  DW_TAG_TI_branch
    2083                      .dwattr $C$DW$144, DW_AT_low_pc(0x00)
    2084                      .dwattr $C$DW$144, DW_AT_name("_MB_CRC16")
    2085                      .dwattr $C$DW$144, DW_AT_TI_call
    2086              
    2087 000000ca 7640'         LCR       #_MB_CRC16            ; [CPU_] |371| 
         000000cb 008B 
    2088                      ; call occurs [#_MB_CRC16] ; [] |371| 
    2089                      .dwpsn  file "C:/Users/wmj/Desktop/BM1000_v1.1/sw/drivers/drvic/modbus/mb.c",line 372,column 9,is_stm
    2090 000000cc D018          MOVB      XAR0,#24              ; [CPU_] |372| 
    2091 000000cd 9B01          MOVB      AH,#1                 ; [CPU_] |372| 
    2092                      .dwpsn  file "C:/Users/wmj/Desktop/BM1000_v1.1/sw/drivers/drvic/modbus/mb.c",line 371,column 9,is_stm
    2093 000000ce 88A9          MOVZ      AR6,AL                ; [CPU_] |371| 
    2094                      .dwpsn  file "C:/Users/wmj/Desktop/BM1000_v1.1/sw/drivers/drvic/modbus/mb.c",line 372,column 9,is_stm
    2095 000000cf 95AC          ADD       AH,T                  ; [CPU_] |372| 
    2096 000000d0 9791          MOV       *+XAR1[AR0],AH        ; [CPU_] |372| 
    2097 000000d1 B2A9          MOVL      ACC,XAR1              ; [CPU_] |372| 
    2098 000000d2 0DAC          ADDU      ACC,T                 ; [CPU_] |372| 
    2099 000000d3 8AA9          MOVL      XAR4,ACC              ; [CPU_] |372| 
    2100 000000d4 D00C          MOVB      XAR0,#12              ; [CPU_] |372| 
    2101 000000d5 CCA6          AND       AL,AR6,#0x00ff        ; [CPU_] |372| 
         000000d6 00FF 
    2102 000000d7 9694          MOV       *+XAR4[AR0],AL        ; [CPU_] |372| 
    2103                      .dwpsn  file "C:/Users/wmj/Desktop/BM1000_v1.1/sw/drivers/drvic/modbus/mb.c",line 373,column 9,is_stm
    2104 000000d8 D018          MOVB      XAR0,#24              ; [CPU_] |373| 
    2105 000000d9 8091          MOVZ      AR7,*+XAR1[AR0]       ; [CPU_] |373| 
    2106 000000da 9B01          MOVB      AH,#1                 ; [CPU_] |373| 
    2107 000000db D018          MOVB      XAR0,#24              ; [CPU_] |373| 
    2108 000000dc 95A7          ADD       AH,AR7                ; [CPU_] |373| 
    2109 000000dd 9791          MOV       *+XAR1[AR0],AH        ; [CPU_] |373| 
    2110 000000de B2A9          MOVL      ACC,XAR1              ; [CPU_] |373| 
    2111 000000df D00C          MOVB      XAR0,#12              ; [CPU_] |373| 
    2112 000000e0 0DA7          ADDU      ACC,AR7               ; [CPU_] |373| 
    2113 000000e1 8AA9          MOVL      XAR4,ACC              ; [CPU_] |373| 
    2114 000000e2 92A6          MOV       AL,AR6                ; [CPU_] |373| 
    2115                      .dwpsn  file "C:/Users/wmj/Desktop/BM1000_v1.1/sw/drivers/drvic/modbus/mb.c",line 377,column 9,is_stm
TMS320C2000 Assembler PC v15.12.3 Wed Nov 22 01:55:15 2017

Tools Copyright (c) 1996-2015 Texas Instruments Incorporated
C:\Users\wmj\AppData\Local\Temp\1239610                              PAGE   40

    2116 000000e3 9B01          MOVB      AH,#1                 ; [CPU_] |377| 
    2117                      .dwpsn  file "C:/Users/wmj/Desktop/BM1000_v1.1/sw/drivers/drvic/modbus/mb.c",line 373,column 9,is_stm
    2118 000000e4 FFC7          LSR       AL,8                  ; [CPU_] |373| 
    2119 000000e5 9694          MOV       *+XAR4[AR0],AL        ; [CPU_] |373| 
    2120                      .dwpsn  file "C:/Users/wmj/Desktop/BM1000_v1.1/sw/drivers/drvic/modbus/mb.c",line 376,column 9,is_stm
    2121 000000e6 D01B          MOVB      XAR0,#27              ; [CPU_] |376| 
    2122                      .dwpsn  file "C:/Users/wmj/Desktop/BM1000_v1.1/sw/drivers/drvic/modbus/mb.c",line 377,column 9,is_stm
    2123 000000e7 9A00          MOVB      AL,#0                 ; [CPU_] |377| 
    2124 000000e8 8AA1          MOVL      XAR4,XAR1             ; [CPU_] |377| 
    2125                      .dwpsn  file "C:/Users/wmj/Desktop/BM1000_v1.1/sw/drivers/drvic/modbus/mb.c",line 376,column 9,is_stm
    2126 000000e9 56BF          MOVB      *+XAR1[AR0],#1,UNC    ; [CPU_] |376| 
         000000ea 0191 
    2127                      .dwpsn  file "C:/Users/wmj/Desktop/BM1000_v1.1/sw/drivers/drvic/modbus/mb.c",line 377,column 9,is_stm
    2128              $C$DW$145       .dwtag  DW_TAG_TI_branch
    2129                      .dwattr $C$DW$145, DW_AT_low_pc(0x00)
    2130                      .dwattr $C$DW$145, DW_AT_name("_MB_PortSerialEnable")
    2131                      .dwattr $C$DW$145, DW_AT_TI_call
    2132              
    2133 000000eb 7640'         LCR       #_MB_PortSerialEnable ; [CPU_] |377| 
         000000ec 0017 
    2134                      ; call occurs [#_MB_PortSerialEnable] ; [] |377| 
    2135                      .dwpsn  file "C:/Users/wmj/Desktop/BM1000_v1.1/sw/drivers/drvic/modbus/mb.c",line 378,column 9,is_stm
    2136 000000ed D00C          MOVB      XAR0,#12              ; [CPU_] |378| 
    2137 000000ee 8AA1          MOVL      XAR4,XAR1             ; [CPU_] |378| 
    2138 000000ef 9291          MOV       AL,*+XAR1[AR0]        ; [CPU_] |378| 
    2139              $C$DW$146       .dwtag  DW_TAG_TI_branch
    2140                      .dwattr $C$DW$146, DW_AT_low_pc(0x00)
    2141                      .dwattr $C$DW$146, DW_AT_name("_MB_PortSerialPutByte")
    2142                      .dwattr $C$DW$146, DW_AT_TI_call
    2143              
    2144 000000f0 7640'         LCR       #_MB_PortSerialPutByte ; [CPU_] |378| 
         000000f1 0045 
    2145                      ; call occurs [#_MB_PortSerialPutByte] ; [] |378| 
    2146                      .dwpsn  file "C:/Users/wmj/Desktop/BM1000_v1.1/sw/drivers/drvic/modbus/mb.c",line 354,column 29,is_st
    2147 000000f2 9A00          MOVB      AL,#0                 ; [CPU_] |354| 
    2148 000000f3       $C$L15:    
    2149 000000f3 8BBE          MOVL      XAR1,*--SP            ; [CPU_] 
    2150                      .dwcfi  cfa_offset, -2
    2151                      .dwcfi  restore_reg, 7
    2152              $C$DW$147       .dwtag  DW_TAG_TI_branch
    2153                      .dwattr $C$DW$147, DW_AT_low_pc(0x00)
    2154                      .dwattr $C$DW$147, DW_AT_TI_return
    2155              
    2156 000000f4 0006          LRETR     ; [CPU_] 
    2157                      ; return occurs ; [] 
    2158                      .dwattr $C$DW$140, DW_AT_TI_end_file("C:/Users/wmj/Desktop/BM1000_v1.1/sw/drivers/drvic/modbus/mb.c")
    2159                      .dwattr $C$DW$140, DW_AT_TI_end_line(0x182)
    2160                      .dwattr $C$DW$140, DW_AT_TI_end_column(0x01)
    2161                      .dwendentry
    2162                      .dwendtag $C$DW$140
    2163              
    2164 000000f5               .sect   ".text"
    2165                      .clink
    2166                      .global _MB_PortSerialGetByte
    2167              
TMS320C2000 Assembler PC v15.12.3 Wed Nov 22 01:55:15 2017

Tools Copyright (c) 1996-2015 Texas Instruments Incorporated
C:\Users\wmj\AppData\Local\Temp\1239610                              PAGE   41

    2168              $C$DW$148       .dwtag  DW_TAG_subprogram
    2169                      .dwattr $C$DW$148, DW_AT_name("MB_PortSerialGetByte")
    2170                      .dwattr $C$DW$148, DW_AT_low_pc(_MB_PortSerialGetByte)
    2171                      .dwattr $C$DW$148, DW_AT_high_pc(0x00)
    2172                      .dwattr $C$DW$148, DW_AT_TI_symbol_name("_MB_PortSerialGetByte")
    2173                      .dwattr $C$DW$148, DW_AT_external
    2174                      .dwattr $C$DW$148, DW_AT_type(*$C$DW$T$59)
    2175                      .dwattr $C$DW$148, DW_AT_TI_begin_file("C:/Users/wmj/Desktop/BM1000_v1.1/sw/drivers/drvic/modbus/mb.c
    2176                      .dwattr $C$DW$148, DW_AT_TI_begin_line(0xc4)
    2177                      .dwattr $C$DW$148, DW_AT_TI_begin_column(0x06)
    2178                      .dwattr $C$DW$148, DW_AT_TI_max_frame_size(-6)
    2179                      .dwpsn  file "C:/Users/wmj/Desktop/BM1000_v1.1/sw/drivers/drvic/modbus/mb.c",line 197,column 1,is_stm
    2180              
    2181                      .dwfde $C$DW$CIE, _MB_PortSerialGetByte
    2182              $C$DW$149       .dwtag  DW_TAG_formal_parameter
    2183                      .dwattr $C$DW$149, DW_AT_name("handle")
    2184                      .dwattr $C$DW$149, DW_AT_TI_symbol_name("_handle")
    2185                      .dwattr $C$DW$149, DW_AT_type(*$C$DW$T$178)
    2186                      .dwattr $C$DW$149, DW_AT_location[DW_OP_reg12]
    2187              
    2188              $C$DW$150       .dwtag  DW_TAG_formal_parameter
    2189                      .dwattr $C$DW$150, DW_AT_name("getByte")
    2190                      .dwattr $C$DW$150, DW_AT_TI_symbol_name("_getByte")
    2191                      .dwattr $C$DW$150, DW_AT_type(*$C$DW$T$279)
    2192                      .dwattr $C$DW$150, DW_AT_location[DW_OP_reg14]
    2193              
    2194              
    2195              ;***************************************************************
    2196              ;* FNAME: _MB_PortSerialGetByte         FR SIZE:   4           *
    2197              ;*                                                             *
    2198              ;* FUNCTION ENVIRONMENT                                        *
    2199              ;*                                                             *
    2200              ;* FUNCTION PROPERTIES                                         *
    2201              ;*                            0 Parameter,  1 Auto,  2 SOE     *
    2202              ;***************************************************************
    2203              
    2204              _MB_PortSerialGetByte:
    2205              ;* AR4   assigned to _handle
    2206              $C$DW$151       .dwtag  DW_TAG_variable
    2207                      .dwattr $C$DW$151, DW_AT_name("handle")
    2208                      .dwattr $C$DW$151, DW_AT_TI_symbol_name("_handle")
    2209                      .dwattr $C$DW$151, DW_AT_type(*$C$DW$T$200)
    2210                      .dwattr $C$DW$151, DW_AT_location[DW_OP_reg12]
    2211              
    2212              ;* AR1   assigned to _getByte
    2213              $C$DW$152       .dwtag  DW_TAG_variable
    2214                      .dwattr $C$DW$152, DW_AT_name("getByte")
    2215                      .dwattr $C$DW$152, DW_AT_TI_symbol_name("_getByte")
    2216                      .dwattr $C$DW$152, DW_AT_type(*$C$DW$T$311)
    2217                      .dwattr $C$DW$152, DW_AT_location[DW_OP_reg6]
    2218              
    2219              $C$DW$153       .dwtag  DW_TAG_variable
    2220                      .dwattr $C$DW$153, DW_AT_name("getData_state")
    2221                      .dwattr $C$DW$153, DW_AT_TI_symbol_name("_getData_state")
    2222                      .dwattr $C$DW$153, DW_AT_type(*$C$DW$T$21)
TMS320C2000 Assembler PC v15.12.3 Wed Nov 22 01:55:15 2017

Tools Copyright (c) 1996-2015 Texas Instruments Incorporated
C:\Users\wmj\AppData\Local\Temp\1239610                              PAGE   42

    2223                      .dwattr $C$DW$153, DW_AT_location[DW_OP_breg20 -1]
    2224              
    2225                      .dwcfi  cfa_offset, -2
    2226                      .dwcfi  save_reg_to_mem, 26, 0
    2227 000000f5 B2BD          MOVL      *SP++,XAR1            ; [CPU_] 
    2228                      .dwcfi  save_reg_to_mem, 7, 2
    2229                      .dwcfi  cfa_offset, -4
    2230 000000f6 FE02          ADDB      SP,#2                 ; [CPU_U] 
    2231                      .dwcfi  cfa_offset, -6
    2232 000000f7 8BA5          MOVL      XAR1,XAR5             ; [CPU_] |197| 
    2233                      .dwpsn  file "C:/Users/wmj/Desktop/BM1000_v1.1/sw/drivers/drvic/modbus/mb.c",line 201,column 5,is_stm
    2234 000000f8 5DAD          MOVZ      AR5,SP                ; [CPU_] |201| 
    2235 000000f9 D008          MOVB      XAR0,#8               ; [CPU_] |201| 
    2236 000000fa 8A94          MOVL      XAR4,*+XAR4[AR0]      ; [CPU_] |201| 
    2237 000000fb DD81          SUBB      XAR5,#1               ; [CPU_U] |201| 
    2238 000000fc 5DA5          MOVZ      AR5,AR5               ; [CPU_] |201| 
    2239              $C$DW$154       .dwtag  DW_TAG_TI_branch
    2240                      .dwattr $C$DW$154, DW_AT_low_pc(0x00)
    2241                      .dwattr $C$DW$154, DW_AT_name("_SCI_getDataNonBlocking")
    2242                      .dwattr $C$DW$154, DW_AT_TI_call
    2243              
    2244 000000fd 7640!         LCR       #_SCI_getDataNonBlocking ; [CPU_] |201| 
         000000fe 0000 
    2245                      ; call occurs [#_SCI_getDataNonBlocking] ; [] |201| 
    2246 000000ff 96C1          MOV       *+XAR1[0],AL          ; [CPU_] |201| 
    2247                      .dwpsn  file "C:/Users/wmj/Desktop/BM1000_v1.1/sw/drivers/drvic/modbus/mb.c",line 203,column 5,is_stm
    2248 00000100 9A00          MOVB      AL,#0                 ; [CPU_] |203| 
    2249 00000101 9341          MOV       AH,*-SP[1]            ; [CPU_] |203| 
    2250 00000102 56B0          MOVB      AL,#1,NEQ             ; [CPU_] |203| 
         00000103 01A9 
    2251 00000104 FE82          SUBB      SP,#2                 ; [CPU_U] 
    2252                      .dwcfi  cfa_offset, -4
    2253 00000105 8BBE          MOVL      XAR1,*--SP            ; [CPU_] 
    2254                      .dwcfi  cfa_offset, -2
    2255                      .dwcfi  restore_reg, 7
    2256              $C$DW$155       .dwtag  DW_TAG_TI_branch
    2257                      .dwattr $C$DW$155, DW_AT_low_pc(0x00)
    2258                      .dwattr $C$DW$155, DW_AT_TI_return
    2259              
    2260 00000106 0006          LRETR     ; [CPU_] 
    2261                      ; return occurs ; [] 
    2262                      .dwattr $C$DW$148, DW_AT_TI_end_file("C:/Users/wmj/Desktop/BM1000_v1.1/sw/drivers/drvic/modbus/mb.c")
    2263                      .dwattr $C$DW$148, DW_AT_TI_end_line(0xcc)
    2264                      .dwattr $C$DW$148, DW_AT_TI_end_column(0x01)
    2265                      .dwendentry
    2266                      .dwendtag $C$DW$148
    2267              
    2268 00000107               .sect   ".text"
    2269                      .clink
    2270                      .global _MB_PortTimersEnable
    2271              
    2272              $C$DW$156       .dwtag  DW_TAG_subprogram
    2273                      .dwattr $C$DW$156, DW_AT_name("MB_PortTimersEnable")
    2274                      .dwattr $C$DW$156, DW_AT_low_pc(_MB_PortTimersEnable)
    2275                      .dwattr $C$DW$156, DW_AT_high_pc(0x00)
TMS320C2000 Assembler PC v15.12.3 Wed Nov 22 01:55:15 2017

Tools Copyright (c) 1996-2015 Texas Instruments Incorporated
C:\Users\wmj\AppData\Local\Temp\1239610                              PAGE   43

    2276                      .dwattr $C$DW$156, DW_AT_TI_symbol_name("_MB_PortTimersEnable")
    2277                      .dwattr $C$DW$156, DW_AT_external
    2278                      .dwattr $C$DW$156, DW_AT_TI_begin_file("C:/Users/wmj/Desktop/BM1000_v1.1/sw/drivers/drvic/modbus/mb.c
    2279                      .dwattr $C$DW$156, DW_AT_TI_begin_line(0x88)
    2280                      .dwattr $C$DW$156, DW_AT_TI_begin_column(0x06)
    2281                      .dwattr $C$DW$156, DW_AT_TI_max_frame_size(-4)
    2282                      .dwpsn  file "C:/Users/wmj/Desktop/BM1000_v1.1/sw/drivers/drvic/modbus/mb.c",line 137,column 1,is_stm
    2283              
    2284                      .dwfde $C$DW$CIE, _MB_PortTimersEnable
    2285              $C$DW$157       .dwtag  DW_TAG_formal_parameter
    2286                      .dwattr $C$DW$157, DW_AT_name("handle")
    2287                      .dwattr $C$DW$157, DW_AT_TI_symbol_name("_handle")
    2288                      .dwattr $C$DW$157, DW_AT_type(*$C$DW$T$178)
    2289                      .dwattr $C$DW$157, DW_AT_location[DW_OP_reg12]
    2290              
    2291              
    2292              ;***************************************************************
    2293              ;* FNAME: _MB_PortTimersEnable          FR SIZE:   2           *
    2294              ;*                                                             *
    2295              ;* FUNCTION ENVIRONMENT                                        *
    2296              ;*                                                             *
    2297              ;* FUNCTION PROPERTIES                                         *
    2298              ;*                            0 Parameter,  0 Auto,  2 SOE     *
    2299              ;***************************************************************
    2300              
    2301              _MB_PortTimersEnable:
    2302              ;* AR1   assigned to _handle
    2303              $C$DW$158       .dwtag  DW_TAG_variable
    2304                      .dwattr $C$DW$158, DW_AT_name("handle")
    2305                      .dwattr $C$DW$158, DW_AT_TI_symbol_name("_handle")
    2306                      .dwattr $C$DW$158, DW_AT_type(*$C$DW$T$200)
    2307                      .dwattr $C$DW$158, DW_AT_location[DW_OP_reg6]
    2308              
    2309                      .dwcfi  cfa_offset, -2
    2310                      .dwcfi  save_reg_to_mem, 26, 0
    2311 00000107 B2BD          MOVL      *SP++,XAR1            ; [CPU_] 
    2312                      .dwcfi  save_reg_to_mem, 7, 2
    2313                      .dwcfi  cfa_offset, -4
    2314 00000108 8BA4          MOVL      XAR1,XAR4             ; [CPU_] |137| 
    2315                      .dwpsn  file "C:/Users/wmj/Desktop/BM1000_v1.1/sw/drivers/drvic/modbus/mb.c",line 140,column 3,is_stm
    2316 00000109 8AF1          MOVL      XAR4,*+XAR1[6]        ; [CPU_] |140| 
    2317              $C$DW$159       .dwtag  DW_TAG_TI_branch
    2318                      .dwattr $C$DW$159, DW_AT_low_pc(0x00)
    2319                      .dwattr $C$DW$159, DW_AT_name("_TIMER_clearFlag")
    2320                      .dwattr $C$DW$159, DW_AT_TI_call
    2321              
    2322 0000010a 7640!         LCR       #_TIMER_clearFlag     ; [CPU_] |140| 
         0000010b 0000 
    2323                      ; call occurs [#_TIMER_clearFlag] ; [] |140| 
    2324                      .dwpsn  file "C:/Users/wmj/Desktop/BM1000_v1.1/sw/drivers/timer/src/32b/f28x/f2802x/timer.h",line 196
    2325 0000010c 8AF1          MOVL      XAR4,*+XAR1[6]        ; [CPU_] |196| 
    2326 0000010d 1AE4          OR        *+XAR4[4],#0x0020     ; [CPU_] |196| 
         0000010e 0020 
    2327                      .dwpsn  file "C:/Users/wmj/Desktop/BM1000_v1.1/sw/drivers/timer/src/32b/f28x/f2802x/timer.h",line 262
    2328 0000010f 8AF1          MOVL      XAR4,*+XAR1[6]        ; [CPU_] |262| 
TMS320C2000 Assembler PC v15.12.3 Wed Nov 22 01:55:15 2017

Tools Copyright (c) 1996-2015 Texas Instruments Incorporated
C:\Users\wmj\AppData\Local\Temp\1239610                              PAGE   44

    2329 00000110 18E4          AND       *+XAR4[4],#0xffef     ; [CPU_] |262| 
         00000111 FFEF 
    2330 00000112 8BBE          MOVL      XAR1,*--SP            ; [CPU_] 
    2331                      .dwcfi  cfa_offset, -2
    2332                      .dwcfi  restore_reg, 7
    2333              $C$DW$160       .dwtag  DW_TAG_TI_branch
    2334                      .dwattr $C$DW$160, DW_AT_low_pc(0x00)
    2335                      .dwattr $C$DW$160, DW_AT_TI_return
    2336              
    2337 00000113 0006          LRETR     ; [CPU_] 
    2338                      ; return occurs ; [] 
    2339                      .dwattr $C$DW$156, DW_AT_TI_end_file("C:/Users/wmj/Desktop/BM1000_v1.1/sw/drivers/drvic/modbus/mb.c")
    2340                      .dwattr $C$DW$156, DW_AT_TI_end_line(0x91)
    2341                      .dwattr $C$DW$156, DW_AT_TI_end_column(0x01)
    2342                      .dwendentry
    2343                      .dwendtag $C$DW$156
    2344              
    2345 00000114               .sect   ".text"
    2346                      .clink
    2347                      .global _MB_RTUReceiveFSM
    2348              
    2349              $C$DW$161       .dwtag  DW_TAG_subprogram
    2350                      .dwattr $C$DW$161, DW_AT_name("MB_RTUReceiveFSM")
    2351                      .dwattr $C$DW$161, DW_AT_low_pc(_MB_RTUReceiveFSM)
    2352                      .dwattr $C$DW$161, DW_AT_high_pc(0x00)
    2353                      .dwattr $C$DW$161, DW_AT_TI_symbol_name("_MB_RTUReceiveFSM")
    2354                      .dwattr $C$DW$161, DW_AT_external
    2355                      .dwattr $C$DW$161, DW_AT_TI_begin_file("C:/Users/wmj/Desktop/BM1000_v1.1/sw/drivers/drvic/modbus/mb.c
    2356                      .dwattr $C$DW$161, DW_AT_TI_begin_line(0x124)
    2357                      .dwattr $C$DW$161, DW_AT_TI_begin_column(0x06)
    2358                      .dwattr $C$DW$161, DW_AT_TI_max_frame_size(-6)
    2359                      .dwpsn  file "C:/Users/wmj/Desktop/BM1000_v1.1/sw/drivers/drvic/modbus/mb.c",line 293,column 1,is_stm
    2360              
    2361                      .dwfde $C$DW$CIE, _MB_RTUReceiveFSM
    2362              $C$DW$162       .dwtag  DW_TAG_formal_parameter
    2363                      .dwattr $C$DW$162, DW_AT_name("handle")
    2364                      .dwattr $C$DW$162, DW_AT_TI_symbol_name("_handle")
    2365                      .dwattr $C$DW$162, DW_AT_type(*$C$DW$T$178)
    2366                      .dwattr $C$DW$162, DW_AT_location[DW_OP_reg12]
    2367              
    2368              
    2369              ;***************************************************************
    2370              ;* FNAME: _MB_RTUReceiveFSM             FR SIZE:   4           *
    2371              ;*                                                             *
    2372              ;* FUNCTION ENVIRONMENT                                        *
    2373              ;*                                                             *
    2374              ;* FUNCTION PROPERTIES                                         *
    2375              ;*                            0 Parameter,  1 Auto,  2 SOE     *
    2376              ;***************************************************************
    2377              
    2378              _MB_RTUReceiveFSM:
    2379              $C$DW$163       .dwtag  DW_TAG_variable
    2380                      .dwattr $C$DW$163, DW_AT_name("ucByte")
    2381                      .dwattr $C$DW$163, DW_AT_TI_symbol_name("_ucByte")
    2382                      .dwattr $C$DW$163, DW_AT_type(*$C$DW$T$124)
TMS320C2000 Assembler PC v15.12.3 Wed Nov 22 01:55:15 2017

Tools Copyright (c) 1996-2015 Texas Instruments Incorporated
C:\Users\wmj\AppData\Local\Temp\1239610                              PAGE   45

    2383                      .dwattr $C$DW$163, DW_AT_location[DW_OP_breg20 -1]
    2384              
    2385              ;* AR1   assigned to _handle
    2386              $C$DW$164       .dwtag  DW_TAG_variable
    2387                      .dwattr $C$DW$164, DW_AT_name("handle")
    2388                      .dwattr $C$DW$164, DW_AT_TI_symbol_name("_handle")
    2389                      .dwattr $C$DW$164, DW_AT_type(*$C$DW$T$200)
    2390                      .dwattr $C$DW$164, DW_AT_location[DW_OP_reg6]
    2391              
    2392              ;* AR6   assigned to $O$U6
    2393                      .dwcfi  cfa_offset, -2
    2394                      .dwcfi  save_reg_to_mem, 26, 0
    2395 00000114 B2BD          MOVL      *SP++,XAR1            ; [CPU_] 
    2396                      .dwcfi  save_reg_to_mem, 7, 2
    2397                      .dwcfi  cfa_offset, -4
    2398 00000115 FE02          ADDB      SP,#2                 ; [CPU_U] 
    2399                      .dwcfi  cfa_offset, -6
    2400                      .dwpsn  file "C:/Users/wmj/Desktop/BM1000_v1.1/sw/drivers/drvic/modbus/mb.c",line 299,column 5,is_stm
    2401 00000116 5DAD          MOVZ      AR5,SP                ; [CPU_] |299| 
    2402                      .dwpsn  file "C:/Users/wmj/Desktop/BM1000_v1.1/sw/drivers/drvic/modbus/mb.c",line 293,column 1,is_stm
    2403 00000117 8BA4          MOVL      XAR1,XAR4             ; [CPU_] |293| 
    2404                      .dwpsn  file "C:/Users/wmj/Desktop/BM1000_v1.1/sw/drivers/drvic/modbus/mb.c",line 299,column 5,is_stm
    2405 00000118 DD81          SUBB      XAR5,#1               ; [CPU_U] |299| 
    2406 00000119 5DA5          MOVZ      AR5,AR5               ; [CPU_] |299| 
    2407              $C$DW$165       .dwtag  DW_TAG_TI_branch
    2408                      .dwattr $C$DW$165, DW_AT_low_pc(0x00)
    2409                      .dwattr $C$DW$165, DW_AT_name("_MB_PortSerialGetByte")
    2410                      .dwattr $C$DW$165, DW_AT_TI_call
    2411              
    2412 0000011a 7640'         LCR       #_MB_PortSerialGetByte ; [CPU_] |299| 
         0000011b 00F5 
    2413                      ; call occurs [#_MB_PortSerialGetByte] ; [] |299| 
    2414                      .dwpsn  file "C:/Users/wmj/Desktop/BM1000_v1.1/sw/drivers/drvic/modbus/mb.c",line 301,column 5,is_stm
    2415 0000011c D01C          MOVB      XAR0,#28              ; [CPU_] |301| 
    2416 0000011d 9291          MOV       AL,*+XAR1[AR0]        ; [CPU_] |301| 
    2417 0000011e 6124          B         $C$L18,EQ             ; [CPU_] |301| 
    2418                      ; branchcc occurs ; [] |301| 
    2419 0000011f 5201          CMPB      AL,#1                 ; [CPU_] |301| 
    2420 00000120 6119          B         $C$L17,EQ             ; [CPU_] |301| 
    2421                      ; branchcc occurs ; [] |301| 
    2422 00000121 5202          CMPB      AL,#2                 ; [CPU_] |301| 
    2423 00000122 6104          B         $C$L16,EQ             ; [CPU_] |301| 
    2424                      ; branchcc occurs ; [] |301| 
    2425 00000123 5203          CMPB      AL,#3                 ; [CPU_] |301| 
    2426 00000124 611E          B         $C$L18,EQ             ; [CPU_] |301| 
    2427                      ; branchcc occurs ; [] |301| 
    2428 00000125 6F20          B         $C$L19,UNC            ; [CPU_] |301| 
    2429                      ; branch occurs ; [] |301| 
    2430 00000126       $C$L16:    
    2431                      .dwpsn  file "C:/Users/wmj/Desktop/BM1000_v1.1/sw/drivers/drvic/modbus/mb.c",line 315,column 9,is_stm
    2432 00000126 D014          MOVB      XAR0,#20              ; [CPU_] |315| 
    2433 00000127 8891          MOVZ      AR6,*+XAR1[AR0]       ; [CPU_] |315| 
    2434 00000128 92A6          MOV       AL,AR6                ; [CPU_] |315| 
    2435 00000129 5208          CMPB      AL,#8                 ; [CPU_] |315| 
    2436                      .dwpsn  file "C:/Users/wmj/Desktop/BM1000_v1.1/sw/drivers/drvic/modbus/mb.c",line 321,column 11,is_st
TMS320C2000 Assembler PC v15.12.3 Wed Nov 22 01:55:15 2017

Tools Copyright (c) 1996-2015 Texas Instruments Incorporated
C:\Users\wmj\AppData\Local\Temp\1239610                              PAGE   46

    2437 0000012a 56B7          MOVB      XAR0,#28,HIS          ; [CPU_] |321| 
         0000012b 1CA0 
    2438 0000012c 56B7          MOVB      *+XAR1[AR0],#3,HIS    ; [CPU_] |321| 
         0000012d 0391 
    2439 0000012e 6714          B         $C$L18,HIS            ; [CPU_] |321| 
    2440                      ; branchcc occurs ; [] |321| 
    2441                      .dwpsn  file "C:/Users/wmj/Desktop/BM1000_v1.1/sw/drivers/drvic/modbus/mb.c",line 317,column 11,is_st
    2442 0000012f 8AA1          MOVL      XAR4,XAR1             ; [CPU_] |317| 
    2443 00000130 B2A9          MOVL      ACC,XAR1              ; [CPU_] |317| 
    2444 00000131 0DA6          ADDU      ACC,AR6               ; [CPU_] |317| 
    2445 00000132 DC14          ADDB      XAR4,#20              ; [CPU_] |317| 
    2446 00000133 0AC4          INC       *+XAR4[0]             ; [CPU_] |317| 
    2447 00000134 8841          MOVZ      AR6,*-SP[1]           ; [CPU_] |317| 
    2448 00000135 8AA9          MOVL      XAR4,ACC              ; [CPU_] |317| 
    2449 00000136 D00C          MOVB      XAR0,#12              ; [CPU_] |317| 
    2450 00000137 7E94          MOV       *+XAR4[AR0],AR6       ; [CPU_] |317| 
    2451                      .dwpsn  file "C:/Users/wmj/Desktop/BM1000_v1.1/sw/drivers/drvic/modbus/mb.c",line 303,column 56,is_st
    2452 00000138 6F0A          B         $C$L18,UNC            ; [CPU_] |303| 
    2453                      ; branch occurs ; [] |303| 
    2454 00000139       $C$L17:    
    2455                      .dwpsn  file "C:/Users/wmj/Desktop/BM1000_v1.1/sw/drivers/drvic/modbus/mb.c",line 308,column 6,is_stm
    2456 00000139 D014          MOVB      XAR0,#20              ; [CPU_] |308| 
    2457 0000013a 56BF          MOVB      *+XAR1[AR0],#1,UNC    ; [CPU_] |308| 
         0000013b 0191 
    2458 0000013c 9241          MOV       AL,*-SP[1]            ; [CPU_] |308| 
    2459 0000013d D00C          MOVB      XAR0,#12              ; [CPU_] |308| 
    2460 0000013e 9691          MOV       *+XAR1[AR0],AL        ; [CPU_] |308| 
    2461                      .dwpsn  file "C:/Users/wmj/Desktop/BM1000_v1.1/sw/drivers/drvic/modbus/mb.c",line 309,column 9,is_stm
    2462 0000013f D01C          MOVB      XAR0,#28              ; [CPU_] |309| 
    2463 00000140 56BF          MOVB      *+XAR1[AR0],#2,UNC    ; [CPU_] |309| 
         00000141 0291 
    2464 00000142       $C$L18:    
    2465                      .dwpsn  file "C:/Users/wmj/Desktop/BM1000_v1.1/sw/drivers/drvic/modbus/mb.c",line 311,column 9,is_stm
    2466 00000142 8AA1          MOVL      XAR4,XAR1             ; [CPU_] |311| 
    2467              $C$DW$166       .dwtag  DW_TAG_TI_branch
    2468                      .dwattr $C$DW$166, DW_AT_low_pc(0x00)
    2469                      .dwattr $C$DW$166, DW_AT_name("_MB_PortTimersEnable")
    2470                      .dwattr $C$DW$166, DW_AT_TI_call
    2471              
    2472 00000143 7640'         LCR       #_MB_PortTimersEnable ; [CPU_] |311| 
         00000144 0107 
    2473                      ; call occurs [#_MB_PortTimersEnable] ; [] |311| 
    2474 00000145       $C$L19:    
    2475 00000145 FE82          SUBB      SP,#2                 ; [CPU_U] 
    2476                      .dwcfi  cfa_offset, -4
    2477 00000146 8BBE          MOVL      XAR1,*--SP            ; [CPU_] 
    2478                      .dwcfi  cfa_offset, -2
    2479                      .dwcfi  restore_reg, 7
    2480              $C$DW$167       .dwtag  DW_TAG_TI_branch
    2481                      .dwattr $C$DW$167, DW_AT_low_pc(0x00)
    2482                      .dwattr $C$DW$167, DW_AT_TI_return
    2483              
    2484 00000147 0006          LRETR     ; [CPU_] 
    2485                      ; return occurs ; [] 
    2486                      .dwattr $C$DW$161, DW_AT_TI_end_file("C:/Users/wmj/Desktop/BM1000_v1.1/sw/drivers/drvic/modbus/mb.c")
TMS320C2000 Assembler PC v15.12.3 Wed Nov 22 01:55:15 2017

Tools Copyright (c) 1996-2015 Texas Instruments Incorporated
C:\Users\wmj\AppData\Local\Temp\1239610                              PAGE   47

    2487                      .dwattr $C$DW$161, DW_AT_TI_end_line(0x148)
    2488                      .dwattr $C$DW$161, DW_AT_TI_end_column(0x01)
    2489                      .dwendentry
    2490                      .dwendtag $C$DW$161
    2491              
    2492 00000148               .sect   ".text"
    2493                      .clink
    2494                      .global _MB_RTUReceive
    2495              
    2496              $C$DW$168       .dwtag  DW_TAG_subprogram
    2497                      .dwattr $C$DW$168, DW_AT_name("MB_RTUReceive")
    2498                      .dwattr $C$DW$168, DW_AT_low_pc(_MB_RTUReceive)
    2499                      .dwattr $C$DW$168, DW_AT_high_pc(0x00)
    2500                      .dwattr $C$DW$168, DW_AT_TI_symbol_name("_MB_RTUReceive")
    2501                      .dwattr $C$DW$168, DW_AT_external
    2502                      .dwattr $C$DW$168, DW_AT_type(*$C$DW$T$129)
    2503                      .dwattr $C$DW$168, DW_AT_TI_begin_file("C:/Users/wmj/Desktop/BM1000_v1.1/sw/drivers/drvic/modbus/mb.c
    2504                      .dwattr $C$DW$168, DW_AT_TI_begin_line(0x14a)
    2505                      .dwattr $C$DW$168, DW_AT_TI_begin_column(0x0e)
    2506                      .dwattr $C$DW$168, DW_AT_TI_max_frame_size(-4)
    2507                      .dwpsn  file "C:/Users/wmj/Desktop/BM1000_v1.1/sw/drivers/drvic/modbus/mb.c",line 331,column 1,is_stm
    2508              
    2509                      .dwfde $C$DW$CIE, _MB_RTUReceive
    2510              $C$DW$169       .dwtag  DW_TAG_formal_parameter
    2511                      .dwattr $C$DW$169, DW_AT_name("handle")
    2512                      .dwattr $C$DW$169, DW_AT_TI_symbol_name("_handle")
    2513                      .dwattr $C$DW$169, DW_AT_type(*$C$DW$T$178)
    2514                      .dwattr $C$DW$169, DW_AT_location[DW_OP_reg12]
    2515              
    2516              
    2517              ;***************************************************************
    2518              ;* FNAME: _MB_RTUReceive                FR SIZE:   2           *
    2519              ;*                                                             *
    2520              ;* FUNCTION ENVIRONMENT                                        *
    2521              ;*                                                             *
    2522              ;* FUNCTION PROPERTIES                                         *
    2523              ;*                            0 Parameter,  0 Auto,  2 SOE     *
    2524              ;***************************************************************
    2525              
    2526              _MB_RTUReceive:
    2527              ;* AL    assigned to $O$C1
    2528              ;* AR1   assigned to _handle
    2529              $C$DW$170       .dwtag  DW_TAG_variable
    2530                      .dwattr $C$DW$170, DW_AT_name("handle")
    2531                      .dwattr $C$DW$170, DW_AT_TI_symbol_name("_handle")
    2532                      .dwattr $C$DW$170, DW_AT_type(*$C$DW$T$200)
    2533                      .dwattr $C$DW$170, DW_AT_location[DW_OP_reg6]
    2534              
    2535                      .dwcfi  cfa_offset, -2
    2536                      .dwcfi  save_reg_to_mem, 26, 0
    2537 00000148 B2BD          MOVL      *SP++,XAR1            ; [CPU_] 
    2538                      .dwcfi  save_reg_to_mem, 7, 2
    2539                      .dwcfi  cfa_offset, -4
    2540 00000149 8BA4          MOVL      XAR1,XAR4             ; [CPU_] |331| 
    2541                      .dwpsn  file "C:/Users/wmj/Desktop/BM1000_v1.1/sw/drivers/drvic/modbus/mb.c",line 337,column 5,is_stm
TMS320C2000 Assembler PC v15.12.3 Wed Nov 22 01:55:15 2017

Tools Copyright (c) 1996-2015 Texas Instruments Incorporated
C:\Users\wmj\AppData\Local\Temp\1239610                              PAGE   48

    2542 0000014a D014          MOVB      XAR0,#20              ; [CPU_] |337| 
    2543 0000014b 9291          MOV       AL,*+XAR1[AR0]        ; [CPU_] |337| 
    2544 0000014c 5208          CMPB      AL,#8                 ; [CPU_] |337| 
    2545 0000014d 600C          B         $C$L20,NEQ            ; [CPU_] |337| 
    2546                      ; branchcc occurs ; [] |337| 
    2547 0000014e DC0C          ADDB      XAR4,#12              ; [CPU_] |337| 
    2548              $C$DW$171       .dwtag  DW_TAG_TI_branch
    2549                      .dwattr $C$DW$171, DW_AT_low_pc(0x00)
    2550                      .dwattr $C$DW$171, DW_AT_name("_MB_CRC16")
    2551                      .dwattr $C$DW$171, DW_AT_TI_call
    2552              
    2553 0000014f 7640'         LCR       #_MB_CRC16            ; [CPU_] |337| 
         00000150 008B 
    2554                      ; call occurs [#_MB_CRC16] ; [] |337| 
    2555 00000151 5200          CMPB      AL,#0                 ; [CPU_] |337| 
    2556 00000152 6007          B         $C$L20,NEQ            ; [CPU_] |337| 
    2557                      ; branchcc occurs ; [] |337| 
    2558                      .dwpsn  file "C:/Users/wmj/Desktop/BM1000_v1.1/sw/drivers/drvic/modbus/mb.c",line 340,column 9,is_stm
    2559 00000153 B2A9          MOVL      ACC,XAR1              ; [CPU_] |340| 
    2560 00000154 D00A          MOVB      XAR0,#10              ; [CPU_] |340| 
    2561 00000155 090C          ADDB      ACC,#12               ; [CPU_] |340| 
    2562 00000156 1E91          MOVL      *+XAR1[AR0],ACC       ; [CPU_] |340| 
    2563                      .dwpsn  file "C:/Users/wmj/Desktop/BM1000_v1.1/sw/drivers/drvic/modbus/mb.c",line 334,column 28,is_st
    2564 00000157 9A00          MOVB      AL,#0                 ; [CPU_] |334| 
    2565                      .dwpsn  file "C:/Users/wmj/Desktop/BM1000_v1.1/sw/drivers/drvic/modbus/mb.c",line 341,column 5,is_stm
    2566 00000158 6F02          B         $C$L21,UNC            ; [CPU_] |341| 
    2567                      ; branch occurs ; [] |341| 
    2568 00000159       $C$L20:    
    2569                      .dwpsn  file "C:/Users/wmj/Desktop/BM1000_v1.1/sw/drivers/drvic/modbus/mb.c",line 344,column 9,is_stm
    2570 00000159 9A05          MOVB      AL,#5                 ; [CPU_] |344| 
    2571 0000015a       $C$L21:    
    2572 0000015a 8BBE          MOVL      XAR1,*--SP            ; [CPU_] 
    2573                      .dwcfi  cfa_offset, -2
    2574                      .dwcfi  restore_reg, 7
    2575              $C$DW$172       .dwtag  DW_TAG_TI_branch
    2576                      .dwattr $C$DW$172, DW_AT_low_pc(0x00)
    2577                      .dwattr $C$DW$172, DW_AT_TI_return
    2578              
    2579 0000015b 0006          LRETR     ; [CPU_] 
    2580                      ; return occurs ; [] 
    2581                      .dwattr $C$DW$168, DW_AT_TI_end_file("C:/Users/wmj/Desktop/BM1000_v1.1/sw/drivers/drvic/modbus/mb.c")
    2582                      .dwattr $C$DW$168, DW_AT_TI_end_line(0x15c)
    2583                      .dwattr $C$DW$168, DW_AT_TI_end_column(0x01)
    2584                      .dwendentry
    2585                      .dwendtag $C$DW$168
    2586              
    2587 0000015c               .sect   ".text"
    2588                      .clink
    2589                      .global _MB_PortEventInit
    2590              
    2591              $C$DW$173       .dwtag  DW_TAG_subprogram
    2592                      .dwattr $C$DW$173, DW_AT_name("MB_PortEventInit")
    2593                      .dwattr $C$DW$173, DW_AT_low_pc(_MB_PortEventInit)
    2594                      .dwattr $C$DW$173, DW_AT_high_pc(0x00)
    2595                      .dwattr $C$DW$173, DW_AT_TI_symbol_name("_MB_PortEventInit")
TMS320C2000 Assembler PC v15.12.3 Wed Nov 22 01:55:15 2017

Tools Copyright (c) 1996-2015 Texas Instruments Incorporated
C:\Users\wmj\AppData\Local\Temp\1239610                              PAGE   49

    2596                      .dwattr $C$DW$173, DW_AT_external
    2597                      .dwattr $C$DW$173, DW_AT_TI_begin_file("C:/Users/wmj/Desktop/BM1000_v1.1/sw/drivers/drvic/modbus/mb.c
    2598                      .dwattr $C$DW$173, DW_AT_TI_begin_line(0xce)
    2599                      .dwattr $C$DW$173, DW_AT_TI_begin_column(0x06)
    2600                      .dwattr $C$DW$173, DW_AT_TI_max_frame_size(-2)
    2601                      .dwpsn  file "C:/Users/wmj/Desktop/BM1000_v1.1/sw/drivers/drvic/modbus/mb.c",line 207,column 1,is_stm
    2602              
    2603                      .dwfde $C$DW$CIE, _MB_PortEventInit
    2604              $C$DW$174       .dwtag  DW_TAG_formal_parameter
    2605                      .dwattr $C$DW$174, DW_AT_name("handle")
    2606                      .dwattr $C$DW$174, DW_AT_TI_symbol_name("_handle")
    2607                      .dwattr $C$DW$174, DW_AT_type(*$C$DW$T$178)
    2608                      .dwattr $C$DW$174, DW_AT_location[DW_OP_reg12]
    2609              
    2610              
    2611              ;***************************************************************
    2612              ;* FNAME: _MB_PortEventInit             FR SIZE:   0           *
    2613              ;*                                                             *
    2614              ;* FUNCTION ENVIRONMENT                                        *
    2615              ;*                                                             *
    2616              ;* FUNCTION PROPERTIES                                         *
    2617              ;*                            0 Parameter,  0 Auto,  0 SOE     *
    2618              ;***************************************************************
    2619              
    2620              _MB_PortEventInit:
    2621              ;* AR4   assigned to _handle
    2622              $C$DW$175       .dwtag  DW_TAG_variable
    2623                      .dwattr $C$DW$175, DW_AT_name("handle")
    2624                      .dwattr $C$DW$175, DW_AT_TI_symbol_name("_handle")
    2625                      .dwattr $C$DW$175, DW_AT_type(*$C$DW$T$200)
    2626                      .dwattr $C$DW$175, DW_AT_location[DW_OP_reg12]
    2627              
    2628                      .dwcfi  cfa_offset, -2
    2629                      .dwcfi  save_reg_to_mem, 26, 0
    2630                      .dwpsn  file "C:/Users/wmj/Desktop/BM1000_v1.1/sw/drivers/drvic/modbus/mb.c",line 210,column 5,is_stm
    2631 0000015c D01D          MOVB      XAR0,#29              ; [CPU_] |210| 
    2632 0000015d 2B94          MOV       *+XAR4[AR0],#0        ; [CPU_] |210| 
    2633              $C$DW$176       .dwtag  DW_TAG_TI_branch
    2634                      .dwattr $C$DW$176, DW_AT_low_pc(0x00)
    2635                      .dwattr $C$DW$176, DW_AT_TI_return
    2636              
    2637 0000015e 0006          LRETR     ; [CPU_] 
    2638                      ; return occurs ; [] 
    2639                      .dwattr $C$DW$173, DW_AT_TI_end_file("C:/Users/wmj/Desktop/BM1000_v1.1/sw/drivers/drvic/modbus/mb.c")
    2640                      .dwattr $C$DW$173, DW_AT_TI_end_line(0xd5)
    2641                      .dwattr $C$DW$173, DW_AT_TI_end_column(0x01)
    2642                      .dwendentry
    2643                      .dwendtag $C$DW$173
    2644              
    2645 0000015f               .sect   ".text"
    2646                      .clink
    2647                      .global _MB_PortEventGet
    2648              
    2649              $C$DW$177       .dwtag  DW_TAG_subprogram
    2650                      .dwattr $C$DW$177, DW_AT_name("MB_PortEventGet")
TMS320C2000 Assembler PC v15.12.3 Wed Nov 22 01:55:15 2017

Tools Copyright (c) 1996-2015 Texas Instruments Incorporated
C:\Users\wmj\AppData\Local\Temp\1239610                              PAGE   50

    2651                      .dwattr $C$DW$177, DW_AT_low_pc(_MB_PortEventGet)
    2652                      .dwattr $C$DW$177, DW_AT_high_pc(0x00)
    2653                      .dwattr $C$DW$177, DW_AT_TI_symbol_name("_MB_PortEventGet")
    2654                      .dwattr $C$DW$177, DW_AT_external
    2655                      .dwattr $C$DW$177, DW_AT_type(*$C$DW$T$59)
    2656                      .dwattr $C$DW$177, DW_AT_TI_begin_file("C:/Users/wmj/Desktop/BM1000_v1.1/sw/drivers/drvic/modbus/mb.c
    2657                      .dwattr $C$DW$177, DW_AT_TI_begin_line(0xdf)
    2658                      .dwattr $C$DW$177, DW_AT_TI_begin_column(0x06)
    2659                      .dwattr $C$DW$177, DW_AT_TI_max_frame_size(-2)
    2660                      .dwpsn  file "C:/Users/wmj/Desktop/BM1000_v1.1/sw/drivers/drvic/modbus/mb.c",line 224,column 1,is_stm
    2661              
    2662                      .dwfde $C$DW$CIE, _MB_PortEventGet
    2663              $C$DW$178       .dwtag  DW_TAG_formal_parameter
    2664                      .dwattr $C$DW$178, DW_AT_name("handle")
    2665                      .dwattr $C$DW$178, DW_AT_TI_symbol_name("_handle")
    2666                      .dwattr $C$DW$178, DW_AT_type(*$C$DW$T$178)
    2667                      .dwattr $C$DW$178, DW_AT_location[DW_OP_reg12]
    2668              
    2669              $C$DW$179       .dwtag  DW_TAG_formal_parameter
    2670                      .dwattr $C$DW$179, DW_AT_name("eEvent")
    2671                      .dwattr $C$DW$179, DW_AT_TI_symbol_name("_eEvent")
    2672                      .dwattr $C$DW$179, DW_AT_type(*$C$DW$T$184)
    2673                      .dwattr $C$DW$179, DW_AT_location[DW_OP_reg14]
    2674              
    2675              
    2676              ;***************************************************************
    2677              ;* FNAME: _MB_PortEventGet              FR SIZE:   0           *
    2678              ;*                                                             *
    2679              ;* FUNCTION ENVIRONMENT                                        *
    2680              ;*                                                             *
    2681              ;* FUNCTION PROPERTIES                                         *
    2682              ;*                            0 Parameter,  0 Auto,  0 SOE     *
    2683              ;***************************************************************
    2684              
    2685              _MB_PortEventGet:
    2686              ;* AR5   assigned to _eEvent
    2687              $C$DW$180       .dwtag  DW_TAG_variable
    2688                      .dwattr $C$DW$180, DW_AT_name("eEvent")
    2689                      .dwattr $C$DW$180, DW_AT_TI_symbol_name("_eEvent")
    2690                      .dwattr $C$DW$180, DW_AT_type(*$C$DW$T$185)
    2691                      .dwattr $C$DW$180, DW_AT_location[DW_OP_reg14]
    2692              
    2693              ;* AR4   assigned to _handle
    2694              $C$DW$181       .dwtag  DW_TAG_variable
    2695                      .dwattr $C$DW$181, DW_AT_name("handle")
    2696                      .dwattr $C$DW$181, DW_AT_TI_symbol_name("_handle")
    2697                      .dwattr $C$DW$181, DW_AT_type(*$C$DW$T$200)
    2698                      .dwattr $C$DW$181, DW_AT_location[DW_OP_reg12]
    2699              
    2700                      .dwcfi  cfa_offset, -2
    2701                      .dwcfi  save_reg_to_mem, 26, 0
    2702                      .dwpsn  file "C:/Users/wmj/Desktop/BM1000_v1.1/sw/drivers/drvic/modbus/mb.c",line 228,column 5,is_stm
    2703 0000015f D01D          MOVB      XAR0,#29              ; [CPU_] |228| 
    2704 00000160 9294          MOV       AL,*+XAR4[AR0]        ; [CPU_] |228| 
    2705 00000161 6003          B         $C$L22,NEQ            ; [CPU_] |228| 
TMS320C2000 Assembler PC v15.12.3 Wed Nov 22 01:55:15 2017

Tools Copyright (c) 1996-2015 Texas Instruments Incorporated
C:\Users\wmj\AppData\Local\Temp\1239610                              PAGE   51

    2706                      ; branchcc occurs ; [] |228| 
    2707                      .dwcfi  remember_state
    2708                      .dwpsn  file "C:/Users/wmj/Desktop/BM1000_v1.1/sw/drivers/drvic/modbus/mb.c",line 226,column 26,is_st
    2709 00000162 9A00          MOVB      AL,#0                 ; [CPU_] |226| 
    2710              $C$DW$182       .dwtag  DW_TAG_TI_branch
    2711                      .dwattr $C$DW$182, DW_AT_low_pc(0x00)
    2712                      .dwattr $C$DW$182, DW_AT_TI_return
    2713              
    2714 00000163 0006          LRETR     ; [CPU_] 
    2715                      ; return occurs ; [] 
    2716                      .dwcfi  restore_state
    2717 00000164       $C$L22:    
    2718                      .dwpsn  file "C:/Users/wmj/Desktop/BM1000_v1.1/sw/drivers/drvic/modbus/mb.c",line 230,column 9,is_stm
    2719 00000164 C5A4          MOVL      XAR7,XAR4             ; [CPU_] |230| 
    2720 00000165 DF1E          ADDB      XAR7,#30              ; [CPU_] |230| 
    2721 00000166 92C7          MOV       AL,*XAR7              ; [CPU_] |230| 
    2722 00000167 96C5          MOV       *+XAR5[0],AL          ; [CPU_] |230| 
    2723                      .dwpsn  file "C:/Users/wmj/Desktop/BM1000_v1.1/sw/drivers/drvic/modbus/mb.c",line 232,column 9,is_stm
    2724 00000168 9A01          MOVB      AL,#1                 ; [CPU_] |232| 
    2725                      .dwpsn  file "C:/Users/wmj/Desktop/BM1000_v1.1/sw/drivers/drvic/modbus/mb.c",line 231,column 9,is_stm
    2726 00000169 D01D          MOVB      XAR0,#29              ; [CPU_] |231| 
    2727 0000016a 2B94          MOV       *+XAR4[AR0],#0        ; [CPU_] |231| 
    2728              $C$DW$183       .dwtag  DW_TAG_TI_branch
    2729                      .dwattr $C$DW$183, DW_AT_low_pc(0x00)
    2730                      .dwattr $C$DW$183, DW_AT_TI_return
    2731              
    2732 0000016b 0006          LRETR     ; [CPU_] 
    2733                      ; return occurs ; [] 
    2734                      .dwattr $C$DW$177, DW_AT_TI_end_file("C:/Users/wmj/Desktop/BM1000_v1.1/sw/drivers/drvic/modbus/mb.c")
    2735                      .dwattr $C$DW$177, DW_AT_TI_end_line(0xec)
    2736                      .dwattr $C$DW$177, DW_AT_TI_end_column(0x01)
    2737                      .dwendentry
    2738                      .dwendtag $C$DW$177
    2739              
    2740 0000016c               .sect   ".text"
    2741                      .clink
    2742                      .global _MB_FuncWriteHoldingRegister
    2743              
    2744              $C$DW$184       .dwtag  DW_TAG_subprogram
    2745                      .dwattr $C$DW$184, DW_AT_name("MB_FuncWriteHoldingRegister")
    2746                      .dwattr $C$DW$184, DW_AT_low_pc(_MB_FuncWriteHoldingRegister)
    2747                      .dwattr $C$DW$184, DW_AT_high_pc(0x00)
    2748                      .dwattr $C$DW$184, DW_AT_TI_symbol_name("_MB_FuncWriteHoldingRegister")
    2749                      .dwattr $C$DW$184, DW_AT_external
    2750                      .dwattr $C$DW$184, DW_AT_TI_begin_file("C:/Users/wmj/Desktop/BM1000_v1.1/sw/drivers/drvic/modbus/mb.c
    2751                      .dwattr $C$DW$184, DW_AT_TI_begin_line(0x279)
    2752                      .dwattr $C$DW$184, DW_AT_TI_begin_column(0x06)
    2753                      .dwattr $C$DW$184, DW_AT_TI_max_frame_size(-6)
    2754                      .dwpsn  file "C:/Users/wmj/Desktop/BM1000_v1.1/sw/drivers/drvic/modbus/mb.c",line 634,column 1,is_stm
    2755              
    2756                      .dwfde $C$DW$CIE, _MB_FuncWriteHoldingRegister
    2757              $C$DW$185       .dwtag  DW_TAG_formal_parameter
    2758                      .dwattr $C$DW$185, DW_AT_name("handle")
    2759                      .dwattr $C$DW$185, DW_AT_TI_symbol_name("_handle")
    2760                      .dwattr $C$DW$185, DW_AT_type(*$C$DW$T$178)
TMS320C2000 Assembler PC v15.12.3 Wed Nov 22 01:55:15 2017

Tools Copyright (c) 1996-2015 Texas Instruments Incorporated
C:\Users\wmj\AppData\Local\Temp\1239610                              PAGE   52

    2761                      .dwattr $C$DW$185, DW_AT_location[DW_OP_reg12]
    2762              
    2763              
    2764              ;***************************************************************
    2765              ;* FNAME: _MB_FuncWriteHoldingRegister  FR SIZE:   4           *
    2766              ;*                                                             *
    2767              ;* FUNCTION ENVIRONMENT                                        *
    2768              ;*                                                             *
    2769              ;* FUNCTION PROPERTIES                                         *
    2770              ;*                            0 Parameter,  0 Auto,  4 SOE     *
    2771              ;***************************************************************
    2772              
    2773              _MB_FuncWriteHoldingRegister:
    2774              ;* AR6   assigned to $O$C12
    2775              ;* AR5   assigned to $O$C13
    2776              ;* AR2   assigned to _obj
    2777              $C$DW$186       .dwtag  DW_TAG_variable
    2778                      .dwattr $C$DW$186, DW_AT_name("obj")
    2779                      .dwattr $C$DW$186, DW_AT_TI_symbol_name("_obj")
    2780                      .dwattr $C$DW$186, DW_AT_type(*$C$DW$T$194)
    2781                      .dwattr $C$DW$186, DW_AT_location[DW_OP_reg8]
    2782              
    2783              ;* AR2   assigned to _obj
    2784              $C$DW$187       .dwtag  DW_TAG_variable
    2785                      .dwattr $C$DW$187, DW_AT_name("obj")
    2786                      .dwattr $C$DW$187, DW_AT_TI_symbol_name("_obj")
    2787                      .dwattr $C$DW$187, DW_AT_type(*$C$DW$T$194)
    2788                      .dwattr $C$DW$187, DW_AT_location[DW_OP_reg8]
    2789              
    2790              ;* AR1   assigned to _Temp_Frac
    2791              $C$DW$188       .dwtag  DW_TAG_variable
    2792                      .dwattr $C$DW$188, DW_AT_name("Temp_Frac")
    2793                      .dwattr $C$DW$188, DW_AT_TI_symbol_name("_Temp_Frac")
    2794                      .dwattr $C$DW$188, DW_AT_type(*$C$DW$T$10)
    2795                      .dwattr $C$DW$188, DW_AT_location[DW_OP_reg6]
    2796              
    2797              ;* AR6   assigned to _RegData
    2798              $C$DW$189       .dwtag  DW_TAG_variable
    2799                      .dwattr $C$DW$189, DW_AT_name("RegData")
    2800                      .dwattr $C$DW$189, DW_AT_TI_symbol_name("_RegData")
    2801                      .dwattr $C$DW$189, DW_AT_type(*$C$DW$T$21)
    2802                      .dwattr $C$DW$189, DW_AT_location[DW_OP_reg16]
    2803              
    2804              ;* AR4   assigned to _handle
    2805              $C$DW$190       .dwtag  DW_TAG_variable
    2806                      .dwattr $C$DW$190, DW_AT_name("handle")
    2807                      .dwattr $C$DW$190, DW_AT_TI_symbol_name("_handle")
    2808                      .dwattr $C$DW$190, DW_AT_type(*$C$DW$T$200)
    2809                      .dwattr $C$DW$190, DW_AT_location[DW_OP_reg12]
    2810              
    2811                      .dwcfi  cfa_offset, -2
    2812                      .dwcfi  save_reg_to_mem, 26, 0
    2813 0000016c B2BD          MOVL      *SP++,XAR1            ; [CPU_] 
    2814                      .dwcfi  save_reg_to_mem, 7, 2
    2815                      .dwcfi  cfa_offset, -4
TMS320C2000 Assembler PC v15.12.3 Wed Nov 22 01:55:15 2017

Tools Copyright (c) 1996-2015 Texas Instruments Incorporated
C:\Users\wmj\AppData\Local\Temp\1239610                              PAGE   53

    2816                      .dwpsn  file "C:/Users/wmj/Desktop/BM1000_v1.1/sw/drivers/drvic/modbus/mb.c",line 647,column 3,is_stm
    2817 0000016d D00A          MOVB      XAR0,#10              ; [CPU_] |647| 
    2818 0000016e AABD          MOVL      *SP++,XAR2            ; [CPU_] 
    2819                      .dwcfi  save_reg_to_mem, 9, 4
    2820                      .dwcfi  cfa_offset, -6
    2821 0000016f 8394          MOVL      XAR5,*+XAR4[AR0]      ; [CPU_] |647| 
    2822 00000170 5603          MOV       ACC,*+XAR5[4] << #8   ; [CPU_] |647| 
         00000171 08E5 
    2823 00000172 CAED          OR        AL,*+XAR5[5]          ; [CPU_] |647| 
    2824 00000173 88A9          MOVZ      AR6,AL                ; [CPU_] |647| 
    2825                      .dwpsn  file "C:/Users/wmj/Desktop/BM1000_v1.1/sw/drivers/drvic/modbus/mb.c",line 650,column 3,is_stm
    2826 00000174 5603          MOV       ACC,*+XAR5[2] << #8   ; [CPU_] |650| 
         00000175 08D5 
    2827 00000176 CADD          OR        AL,*+XAR5[3]          ; [CPU_] |650| 
    2828 00000177 80A9          MOVZ      AR7,AL                ; [CPU_] |650| 
    2829 00000178 93A7          MOV       AH,AR7                ; [CPU_] |650| 
    2830 00000179 5342          CMPB      AH,#66                ; [CPU_] |650| 
    2831 0000017a 6221          B         $C$L24,GT             ; [CPU_] |650| 
    2832                      ; branchcc occurs ; [] |650| 
    2833 0000017b 5342          CMPB      AH,#66                ; [CPU_] |650| 
    2834 0000017c 617E          B         $C$L35,EQ             ; [CPU_] |650| 
    2835                      ; branchcc occurs ; [] |650| 
    2836 0000017d 5333          CMPB      AH,#51                ; [CPU_] |650| 
    2837 0000017e 6212          B         $C$L23,GT             ; [CPU_] |650| 
    2838                      ; branchcc occurs ; [] |650| 
    2839 0000017f 5333          CMPB      AH,#51                ; [CPU_] |650| 
    2840 00000180 FFE1          B         $C$L41,EQ             ; [CPU_] |650| 
         00000181 00A6 
    2841                      ; branchcc occurs ; [] |650| 
    2842 00000182 5304          CMPB      AH,#4                 ; [CPU_] |650| 
    2843 00000183 FFE1          B         $C$L47,EQ             ; [CPU_] |650| 
         00000184 00BB 
    2844                      ; branchcc occurs ; [] |650| 
    2845 00000185 5330          CMPB      AH,#48                ; [CPU_] |650| 
    2846 00000186 FFE1          B         $C$L46,EQ             ; [CPU_] |650| 
         00000187 00B6 
    2847                      ; branchcc occurs ; [] |650| 
    2848 00000188 5331          CMPB      AH,#49                ; [CPU_] |650| 
    2849 00000189 FFE1          B         $C$L43,EQ             ; [CPU_] |650| 
         0000018a 00A9 
    2850                      ; branchcc occurs ; [] |650| 
    2851 0000018b 5332          CMPB      AH,#50                ; [CPU_] |650| 
    2852 0000018c FFE1          B         $C$L42,EQ             ; [CPU_] |650| 
         0000018d 00A4 
    2853                      ; branchcc occurs ; [] |650| 
    2854 0000018e FFEF          B         $C$L48,UNC            ; [CPU_] |650| 
         0000018f 00B4 
    2855                      ; branch occurs ; [] |650| 
    2856 00000190       $C$L23:    
    2857 00000190 5334          CMPB      AH,#52                ; [CPU_] |650| 
    2858 00000191 FFE1          B         $C$L40,EQ             ; [CPU_] |650| 
         00000192 0085 
    2859                      ; branchcc occurs ; [] |650| 
    2860 00000193 5335          CMPB      AH,#53                ; [CPU_] |650| 
    2861 00000194 616C          B         $C$L38,EQ             ; [CPU_] |650| 
TMS320C2000 Assembler PC v15.12.3 Wed Nov 22 01:55:15 2017

Tools Copyright (c) 1996-2015 Texas Instruments Incorporated
C:\Users\wmj\AppData\Local\Temp\1239610                              PAGE   54

    2862                      ; branchcc occurs ; [] |650| 
    2863 00000195 5340          CMPB      AH,#64                ; [CPU_] |650| 
    2864 00000196 6168          B         $C$L37,EQ             ; [CPU_] |650| 
    2865                      ; branchcc occurs ; [] |650| 
    2866 00000197 5341          CMPB      AH,#65                ; [CPU_] |650| 
    2867 00000198 6164          B         $C$L36,EQ             ; [CPU_] |650| 
    2868                      ; branchcc occurs ; [] |650| 
    2869 00000199 FFEF          B         $C$L48,UNC            ; [CPU_] |650| 
         0000019a 00A9 
    2870                      ; branch occurs ; [] |650| 
    2871 0000019b       $C$L24:    
    2872 0000019b 1BA7          CMP       AR7,#261              ; [CPU_] |650| 
         0000019c 0105 
    2873 0000019d 621A          B         $C$L25,GT             ; [CPU_] |650| 
    2874                      ; branchcc occurs ; [] |650| 
    2875 0000019e 1BA7          CMP       AR7,#261              ; [CPU_] |650| 
         0000019f 0105 
    2876 000001a0 614A          B         $C$L29,EQ             ; [CPU_] |650| 
    2877                      ; branchcc occurs ; [] |650| 
    2878 000001a1 5343          CMPB      AH,#67                ; [CPU_] |650| 
    2879 000001a2 6156          B         $C$L34,EQ             ; [CPU_] |650| 
    2880                      ; branchcc occurs ; [] |650| 
    2881 000001a3 8F40          MOVL      XAR5,#258             ; [CPU_U] |650| 
         000001a4 0102 
    2882 000001a5 27A7          MOV       PL,AR7                ; [CPU_] |650| 
    2883 000001a6 2BAA          MOV       PH,#0                 ; [CPU_] |650| 
    2884 000001a7 A0A9          MOVL      ACC,XAR5              ; [CPU_] |650| 
    2885 000001a8 0FAB          CMPL      ACC,P                 ; [CPU_] |650| 
    2886 000001a9 614D          B         $C$L33,EQ             ; [CPU_] |650| 
    2887                      ; branchcc occurs ; [] |650| 
    2888 000001aa 8F40          MOVL      XAR5,#259             ; [CPU_U] |650| 
         000001ab 0103 
    2889 000001ac A0A9          MOVL      ACC,XAR5              ; [CPU_] |650| 
    2890 000001ad 0FAB          CMPL      ACC,P                 ; [CPU_] |650| 
    2891 000001ae 6146          B         $C$L32,EQ             ; [CPU_] |650| 
    2892                      ; branchcc occurs ; [] |650| 
    2893 000001af 80A7          MOVZ      AR7,AR7               ; [CPU_] |650| 
    2894 000001b0 8F40          MOVL      XAR5,#260             ; [CPU_U] |650| 
         000001b1 0104 
    2895 000001b2 A0A9          MOVL      ACC,XAR5              ; [CPU_] |650| 
    2896 000001b3 0FA7          CMPL      ACC,XAR7              ; [CPU_] |650| 
    2897 000001b4 613B          B         $C$L31,EQ             ; [CPU_] |650| 
    2898                      ; branchcc occurs ; [] |650| 
    2899 000001b5 FFEF          B         $C$L48,UNC            ; [CPU_] |650| 
         000001b6 008D 
    2900                      ; branch occurs ; [] |650| 
    2901 000001b7       $C$L25:    
    2902 000001b7 8F40          MOVL      XAR5,#512             ; [CPU_U] |650| 
         000001b8 0200 
    2903 000001b9 27A7          MOV       PL,AR7                ; [CPU_] |650| 
    2904 000001ba 2BAA          MOV       PH,#0                 ; [CPU_] |650| 
    2905 000001bb A0A9          MOVL      ACC,XAR5              ; [CPU_] |650| 
    2906 000001bc 0FAB          CMPL      ACC,P                 ; [CPU_] |650| 
    2907 000001bd 6127          B         $C$L28,EQ             ; [CPU_] |650| 
    2908                      ; branchcc occurs ; [] |650| 
TMS320C2000 Assembler PC v15.12.3 Wed Nov 22 01:55:15 2017

Tools Copyright (c) 1996-2015 Texas Instruments Incorporated
C:\Users\wmj\AppData\Local\Temp\1239610                              PAGE   55

    2909 000001be 8F40          MOVL      XAR5,#513             ; [CPU_U] |650| 
         000001bf 0201 
    2910 000001c0 A0A9          MOVL      ACC,XAR5              ; [CPU_] |650| 
    2911 000001c1 0FAB          CMPL      ACC,P                 ; [CPU_] |650| 
    2912 000001c2 6119          B         $C$L27,EQ             ; [CPU_] |650| 
    2913                      ; branchcc occurs ; [] |650| 
    2914 000001c3 80A7          MOVZ      AR7,AR7               ; [CPU_] |650| 
    2915 000001c4 8F40          MOVL      XAR5,#514             ; [CPU_U] |650| 
         000001c5 0202 
    2916 000001c6 A0A9          MOVL      ACC,XAR5              ; [CPU_] |650| 
    2917 000001c7 0FA7          CMPL      ACC,XAR7              ; [CPU_] |650| 
    2918 000001c8 607A          B         $C$L48,NEQ            ; [CPU_] |650| 
    2919                      ; branchcc occurs ; [] |650| 
    2920 000001c9 3B01          SETC      SXM                   ; [CPU_] 
    2921                      .dwpsn  file "C:/Users/wmj/Desktop/BM1000_v1.1/sw/drivers/drvic/fsm.h",line 601,column 16,is_stmt,isa
    2922 000001ca 86D4          MOVL      XAR2,*+XAR4[2]        ; [CPU_] |601| 
    2923                      .dwpsn  file "C:/Users/wmj/Desktop/BM1000_v1.1/sw/drivers/drvic/fsm.h",line 604,column 3,is_stmt,isa 
    2924 000001cb 59A6          MOVZ      AR1,AR6               ; [CPU_] |604| 
    2925                      .dwpsn  file "C:/Users/wmj/Desktop/BM1000_v1.1/sw/drivers/drvic/fsm.h",line 606,column 3,is_stmt,isa 
    2926 000001cc 85A6          MOV       ACC,AR6               ; [CPU_] |606| 
    2927              $C$DW$191       .dwtag  DW_TAG_TI_branch
    2928                      .dwattr $C$DW$191, DW_AT_low_pc(0x00)
    2929                      .dwattr $C$DW$191, DW_AT_name("__IQ7int")
    2930                      .dwattr $C$DW$191, DW_AT_TI_call
    2931              
    2932 000001cd 7640!         LCR       #__IQ7int             ; [CPU_] |606| 
         000001ce 0000 
    2933                      ; call occurs [#__IQ7int] ; [] |606| 
    2934 000001cf D01A          MOVB      XAR0,#26              ; [CPU_] |606| 
    2935 000001d0 3B01          SETC      SXM                   ; [CPU_] 
    2936 000001d1 1E92          MOVL      *+XAR2[AR0],ACC       ; [CPU_] |606| 
    2937                      .dwpsn  file "C:/Users/wmj/Desktop/BM1000_v1.1/sw/drivers/drvic/fsm.h",line 607,column 3,is_stmt,isa 
    2938 000001d2 85A1          MOV       ACC,AR1               ; [CPU_] |607| 
    2939              $C$DW$192       .dwtag  DW_TAG_TI_branch
    2940                      .dwattr $C$DW$192, DW_AT_low_pc(0x00)
    2941                      .dwattr $C$DW$192, DW_AT_name("__IQ7frac")
    2942                      .dwattr $C$DW$192, DW_AT_TI_call
    2943              
    2944 000001d3 7640!         LCR       #__IQ7frac            ; [CPU_] |607| 
         000001d4 0000 
    2945                      ; call occurs [#__IQ7frac] ; [] |607| 
    2946 000001d5 28AC          MOV       T,#17                 ; [CPU_] |607| 
         000001d6 0011 
    2947 000001d7 563B          LSLL      ACC,T                 ; [CPU_] |607| 
    2948 000001d8       $C$L26:    
    2949 000001d8 D01C          MOVB      XAR0,#28              ; [CPU_] |607| 
    2950 000001d9 1E92          MOVL      *+XAR2[AR0],ACC       ; [CPU_] |607| 
    2951                      .dwpsn  file "C:/Users/wmj/Desktop/BM1000_v1.1/sw/drivers/drvic/fsm.h",line 609,column 3,is_stmt,isa 
    2952 000001da 6F68          B         $C$L48,UNC            ; [CPU_] |609| 
    2953                      ; branch occurs ; [] |609| 
    2954 000001db       $C$L27:    
    2955 000001db 3B01          SETC      SXM                   ; [CPU_] 
    2956                      .dwpsn  file "C:/Users/wmj/Desktop/BM1000_v1.1/sw/drivers/drvic/fsm.h",line 594,column 3,is_stmt,isa 
    2957 000001dc 28AC          MOV       T,#17                 ; [CPU_] |594| 
         000001dd 0011 
TMS320C2000 Assembler PC v15.12.3 Wed Nov 22 01:55:15 2017

Tools Copyright (c) 1996-2015 Texas Instruments Incorporated
C:\Users\wmj\AppData\Local\Temp\1239610                              PAGE   56

    2958                      .dwpsn  file "C:/Users/wmj/Desktop/BM1000_v1.1/sw/drivers/drvic/fsm.h",line 592,column 16,is_stmt,isa
    2959 000001de 86D4          MOVL      XAR2,*+XAR4[2]        ; [CPU_] |592| 
    2960                      .dwpsn  file "C:/Users/wmj/Desktop/BM1000_v1.1/sw/drivers/drvic/fsm.h",line 594,column 3,is_stmt,isa 
    2961 000001df 85A6          MOV       ACC,AR6               ; [CPU_] |594| 
    2962 000001e0 563B          LSLL      ACC,T                 ; [CPU_] |594| 
    2963              $C$DW$193       .dwtag  DW_TAG_TI_branch
    2964                      .dwattr $C$DW$193, DW_AT_low_pc(0x00)
    2965                      .dwattr $C$DW$193, DW_AT_name("__IQ24frac")
    2966                      .dwattr $C$DW$193, DW_AT_TI_call
    2967              
    2968 000001e1 7640!         LCR       #__IQ24frac           ; [CPU_] |594| 
         000001e2 0000 
    2969                      ; call occurs [#__IQ24frac] ; [] |594| 
    2970                      .dwpsn  file "C:/Users/wmj/Desktop/BM1000_v1.1/sw/drivers/drvic/fsm.h",line 596,column 3,is_stmt,isa 
    2971 000001e3 6FF5          B         $C$L26,UNC            ; [CPU_] |596| 
    2972                      ; branch occurs ; [] |596| 
    2973 000001e4       $C$L28:    
    2974                      .dwpsn  file "C:/Users/wmj/Desktop/BM1000_v1.1/sw/drivers/drvic/fsm.h",line 585,column 3,is_stmt,isa 
    2975 000001e4 021A          MOVB      ACC,#26               ; [CPU_] |585| 
    2976 000001e5 07D4          ADDL      ACC,*+XAR4[2]         ; [CPU_] |585| 
    2977 000001e6 8AA9          MOVL      XAR4,ACC              ; [CPU_] |585| 
    2978 000001e7 3B01          SETC      SXM                   ; [CPU_] 
    2979 000001e8 85A6          MOV       ACC,AR6               ; [CPU_] |585| 
    2980                      .dwpsn  file "C:/Users/wmj/Desktop/BM1000_v1.1/sw/drivers/drvic/fsm.h",line 587,column 3,is_stmt,isa 
    2981 000001e9 6F51          B         $C$L45,UNC            ; [CPU_] |587| 
    2982                      ; branch occurs ; [] |587| 
    2983 000001ea       $C$L29:    
    2984                      .dwpsn  file "C:/Users/wmj/Desktop/BM1000_v1.1/sw/drivers/drvic/fsm.h",line 536,column 3,is_stmt,isa 
    2985 000001ea 0211          MOVB      ACC,#17               ; [CPU_] |536| 
    2986 000001eb       $C$L30:    
    2987 000001eb 07D4          ADDL      ACC,*+XAR4[2]         ; [CPU_] |536| 
    2988 000001ec 8AA9          MOVL      XAR4,ACC              ; [CPU_] |536| 
    2989 000001ed 7EC4          MOV       *+XAR4[0],AR6         ; [CPU_] |536| 
    2990                      .dwpsn  file "C:/Users/wmj/Desktop/BM1000_v1.1/sw/drivers/drvic/fsm.h",line 538,column 3,is_stmt,isa 
    2991 000001ee 6F54          B         $C$L48,UNC            ; [CPU_] |538| 
    2992                      ; branch occurs ; [] |538| 
    2993 000001ef       $C$L31:    
    2994                      .dwpsn  file "C:/Users/wmj/Desktop/BM1000_v1.1/sw/drivers/drvic/modbus/mb.c",line 686,column 34,is_st
    2995 000001ef 8AD4          MOVL      XAR4,*+XAR4[2]        ; [CPU_] |686| 
    2996 000001f0 92A6          MOV       AL,AR6                ; [CPU_] |686| 
    2997              $C$DW$194       .dwtag  DW_TAG_TI_branch
    2998                      .dwattr $C$DW$194, DW_AT_low_pc(0x00)
    2999                      .dwattr $C$DW$194, DW_AT_name("_FSM_485Edit_State_Box")
    3000                      .dwattr $C$DW$194, DW_AT_TI_call
    3001              
    3002 000001f1 7640!         LCR       #_FSM_485Edit_State_Box ; [CPU_] |686| 
         000001f2 0000 
    3003                      ; call occurs [#_FSM_485Edit_State_Box] ; [] |686| 
    3004                      .dwpsn  file "C:/Users/wmj/Desktop/BM1000_v1.1/sw/drivers/drvic/modbus/mb.c",line 686,column 83,is_st
    3005 000001f3 6F4F          B         $C$L48,UNC            ; [CPU_] |686| 
    3006                      ; branch occurs ; [] |686| 
    3007 000001f4       $C$L32:    
    3008                      .dwpsn  file "C:/Users/wmj/Desktop/BM1000_v1.1/sw/drivers/drvic/fsm.h",line 520,column 3,is_stmt,isa 
    3009 000001f4 0210          MOVB      ACC,#16               ; [CPU_] |520| 
    3010                      .dwpsn  file "C:/Users/wmj/Desktop/BM1000_v1.1/sw/drivers/drvic/fsm.h",line 522,column 3,is_stmt,isa 
TMS320C2000 Assembler PC v15.12.3 Wed Nov 22 01:55:15 2017

Tools Copyright (c) 1996-2015 Texas Instruments Incorporated
C:\Users\wmj\AppData\Local\Temp\1239610                              PAGE   57

    3011 000001f5 6FF6          B         $C$L30,UNC            ; [CPU_] |522| 
    3012                      ; branch occurs ; [] |522| 
    3013 000001f6       $C$L33:    
    3014                      .dwpsn  file "C:/Users/wmj/Desktop/BM1000_v1.1/sw/drivers/drvic/fsm.h",line 553,column 3,is_stmt,isa 
    3015 000001f6 020F          MOVB      ACC,#15               ; [CPU_] |553| 
    3016                      .dwpsn  file "C:/Users/wmj/Desktop/BM1000_v1.1/sw/drivers/drvic/fsm.h",line 555,column 3,is_stmt,isa 
    3017 000001f7 6FF4          B         $C$L30,UNC            ; [CPU_] |555| 
    3018                      ; branch occurs ; [] |555| 
    3019 000001f8       $C$L34:    
    3020                      .dwpsn  file "C:/Users/wmj/Desktop/BM1000_v1.1/sw/drivers/drvic/motor.h",line 616,column 3,is_stmt,is
    3021 000001f8 0244          MOVB      ACC,#68               ; [CPU_] |616| 
    3022                      .dwpsn  file "C:/Users/wmj/Desktop/BM1000_v1.1/sw/drivers/drvic/motor.h",line 618,column 3,is_stmt,is
    3023 000001f9 6F3A          B         $C$L44,UNC            ; [CPU_] |618| 
    3024                      ; branch occurs ; [] |618| 
    3025 000001fa       $C$L35:    
    3026                      .dwpsn  file "C:/Users/wmj/Desktop/BM1000_v1.1/sw/drivers/drvic/motor.h",line 607,column 3,is_stmt,is
    3027 000001fa 0242          MOVB      ACC,#66               ; [CPU_] |607| 
    3028                      .dwpsn  file "C:/Users/wmj/Desktop/BM1000_v1.1/sw/drivers/drvic/motor.h",line 609,column 3,is_stmt,is
    3029 000001fb 6F38          B         $C$L44,UNC            ; [CPU_] |609| 
    3030                      ; branch occurs ; [] |609| 
    3031 000001fc       $C$L36:    
    3032                      .dwpsn  file "C:/Users/wmj/Desktop/BM1000_v1.1/sw/drivers/drvic/motor.h",line 634,column 3,is_stmt,is
    3033 000001fc 0240          MOVB      ACC,#64               ; [CPU_] |634| 
    3034                      .dwpsn  file "C:/Users/wmj/Desktop/BM1000_v1.1/sw/drivers/drvic/motor.h",line 636,column 3,is_stmt,is
    3035 000001fd 6F36          B         $C$L44,UNC            ; [CPU_] |636| 
    3036                      ; branch occurs ; [] |636| 
    3037 000001fe       $C$L37:    
    3038                      .dwpsn  file "C:/Users/wmj/Desktop/BM1000_v1.1/sw/drivers/drvic/motor.h",line 625,column 3,is_stmt,is
    3039 000001fe 023E          MOVB      ACC,#62               ; [CPU_] |625| 
    3040                      .dwpsn  file "C:/Users/wmj/Desktop/BM1000_v1.1/sw/drivers/drvic/motor.h",line 627,column 3,is_stmt,is
    3041 000001ff 6F34          B         $C$L44,UNC            ; [CPU_] |627| 
    3042                      ; branch occurs ; [] |627| 
    3043 00000200       $C$L38:    
    3044 00000200 3B01          SETC      SXM                   ; [CPU_] 
    3045                      .dwpsn  file "C:/Users/wmj/Desktop/BM1000_v1.1/sw/drivers/drvic/motor.h",line 682,column 3,is_stmt,is
    3046 00000201 2BAB          MOV       PL,#0                 ; [CPU_] |682| 
    3047 00000202 28AA          MOV       PH,#384               ; [CPU_] |682| 
         00000203 0180 
    3048 00000204 85A6          MOV       ACC,AR6               ; [CPU_] |682| 
    3049 00000205 28AC          MOV       T,#17                 ; [CPU_] |682| 
         00000206 0011 
    3050 00000207 A9A6          MOVL      XAR6,P                ; [CPU_] |682| 
    3051 00000208 2BAB          MOV       PL,#0                 ; [CPU_] |682| 
    3052 00000209 28AA          MOV       PH,#65152             ; [CPU_] |682| 
         0000020a FE80 
    3053 0000020b 563B          LSLL      ACC,T                 ; [CPU_] |682| 
    3054 0000020c 5650          MINL      ACC,XAR6              ; [CPU_] |682| 
         0000020d 00A6 
    3055 0000020e 5661          MAXL      ACC,P                 ; [CPU_] |682| 
         0000020f 00AB 
    3056 00000210 1EA6          MOVL      XAR6,ACC              ; [CPU_] |682| 
    3057 00000211 0256          MOVB      ACC,#86               ; [CPU_] |682| 
    3058 00000212       $C$L39:    
    3059 00000212 07C4          ADDL      ACC,*+XAR4[0]         ; [CPU_] |682| 
    3060 00000213 8AA9          MOVL      XAR4,ACC              ; [CPU_] |682| 
TMS320C2000 Assembler PC v15.12.3 Wed Nov 22 01:55:15 2017

Tools Copyright (c) 1996-2015 Texas Instruments Incorporated
C:\Users\wmj\AppData\Local\Temp\1239610                              PAGE   58

    3061 00000214 C2C4          MOVL      *+XAR4[0],XAR6        ; [CPU_] |682| 
    3062                      .dwpsn  file "C:/Users/wmj/Desktop/BM1000_v1.1/sw/drivers/drvic/motor.h",line 684,column 3,is_stmt,is
    3063 00000215 6F2D          B         $C$L48,UNC            ; [CPU_] |684| 
    3064                      ; branch occurs ; [] |684| 
    3065 00000216       $C$L40:    
    3066 00000216 3B01          SETC      SXM                   ; [CPU_] 
    3067                      .dwpsn  file "C:/Users/wmj/Desktop/BM1000_v1.1/sw/drivers/drvic/motor.h",line 700,column 3,is_stmt,is
    3068 00000217 85A6          MOV       ACC,AR6               ; [CPU_] |700| 
    3069 00000218 28AC          MOV       T,#17                 ; [CPU_] |700| 
         00000219 0011 
    3070 0000021a 2BAB          MOV       PL,#0                 ; [CPU_] |700| 
    3071 0000021b BE00          MOVB      XAR6,#0               ; [CPU_] |700| 
    3072 0000021c 28AA          MOV       PH,#896               ; [CPU_] |700| 
         0000021d 0380 
    3073 0000021e 563B          LSLL      ACC,T                 ; [CPU_] |700| 
    3074 0000021f 5650          MINL      ACC,P                 ; [CPU_] |700| 
         00000220 00AB 
    3075 00000221 5661          MAXL      ACC,XAR6              ; [CPU_] |700| 
         00000222 00A6 
    3076 00000223 1EA6          MOVL      XAR6,ACC              ; [CPU_] |700| 
    3077 00000224 0222          MOVB      ACC,#34               ; [CPU_] |700| 
    3078                      .dwpsn  file "C:/Users/wmj/Desktop/BM1000_v1.1/sw/drivers/drvic/motor.h",line 702,column 3,is_stmt,is
    3079 00000225 6FED          B         $C$L39,UNC            ; [CPU_] |702| 
    3080                      ; branch occurs ; [] |702| 
    3081 00000226       $C$L41:    
    3082                      .dwpsn  file "C:/Users/wmj/Desktop/BM1000_v1.1/sw/drivers/drvic/motor.h",line 597,column 3,is_stmt,is
    3083 00000226 0220          MOVB      ACC,#32               ; [CPU_] |597| 
    3084 00000227 3B01          SETC      SXM                   ; [CPU_] 
    3085 00000228 28AC          MOV       T,#17                 ; [CPU_] |597| 
         00000229 0011 
    3086 0000022a 07C4          ADDL      ACC,*+XAR4[0]         ; [CPU_] |597| 
    3087 0000022b 8AA9          MOVL      XAR4,ACC              ; [CPU_] |597| 
    3088 0000022c 85A6          MOV       ACC,AR6               ; [CPU_] |597| 
    3089 0000022d 563B          LSLL      ACC,T                 ; [CPU_] |597| 
    3090 0000022e FF43          SFR       ACC,4                 ; [CPU_] |597| 
    3091                      .dwpsn  file "C:/Users/wmj/Desktop/BM1000_v1.1/sw/drivers/drvic/motor.h",line 599,column 3,is_stmt,is
    3092 0000022f 6F0B          B         $C$L45,UNC            ; [CPU_] |599| 
    3093                      ; branch occurs ; [] |599| 
    3094 00000230       $C$L42:    
    3095                      .dwpsn  file "C:/Users/wmj/Desktop/BM1000_v1.1/sw/drivers/drvic/motor.h",line 588,column 3,is_stmt,is
    3096 00000230 021E          MOVB      ACC,#30               ; [CPU_] |588| 
    3097                      .dwpsn  file "C:/Users/wmj/Desktop/BM1000_v1.1/sw/drivers/drvic/motor.h",line 590,column 3,is_stmt,is
    3098 00000231 6F02          B         $C$L44,UNC            ; [CPU_] |590| 
    3099                      ; branch occurs ; [] |590| 
    3100 00000232       $C$L43:    
    3101                      .dwpsn  file "C:/Users/wmj/Desktop/BM1000_v1.1/sw/drivers/drvic/motor.h",line 579,column 3,is_stmt,is
    3102 00000232 021C          MOVB      ACC,#28               ; [CPU_] |579| 
    3103 00000233       $C$L44:    
    3104 00000233 07C4          ADDL      ACC,*+XAR4[0]         ; [CPU_] |579| 
    3105 00000234 3B01          SETC      SXM                   ; [CPU_] 
    3106 00000235 8AA9          MOVL      XAR4,ACC              ; [CPU_] |579| 
    3107 00000236 28AC          MOV       T,#17                 ; [CPU_] |579| 
         00000237 0011 
    3108 00000238 85A6          MOV       ACC,AR6               ; [CPU_] |579| 
    3109 00000239 563B          LSLL      ACC,T                 ; [CPU_] |579| 
TMS320C2000 Assembler PC v15.12.3 Wed Nov 22 01:55:15 2017

Tools Copyright (c) 1996-2015 Texas Instruments Incorporated
C:\Users\wmj\AppData\Local\Temp\1239610                              PAGE   59

    3110 0000023a       $C$L45:    
    3111 0000023a 1EC4          MOVL      *+XAR4[0],ACC         ; [CPU_] |579| 
    3112                      .dwpsn  file "C:/Users/wmj/Desktop/BM1000_v1.1/sw/drivers/drvic/motor.h",line 581,column 3,is_stmt,is
    3113 0000023b 6F07          B         $C$L48,UNC            ; [CPU_] |581| 
    3114                      ; branch occurs ; [] |581| 
    3115 0000023c       $C$L46:    
    3116                      .dwpsn  file "C:/Users/wmj/Desktop/BM1000_v1.1/sw/drivers/drvic/motor.h",line 539,column 4,is_stmt,is
    3117 0000023c 021A          MOVB      ACC,#26               ; [CPU_] |539| 
    3118                      .dwpsn  file "C:/Users/wmj/Desktop/BM1000_v1.1/sw/drivers/drvic/motor.h",line 541,column 4,is_stmt,is
    3119 0000023d 6FF6          B         $C$L44,UNC            ; [CPU_] |541| 
    3120                      ; branch occurs ; [] |541| 
    3121 0000023e       $C$L47:    
    3122                      .dwpsn  file "C:/Users/wmj/Desktop/BM1000_v1.1/sw/drivers/drvic/modbus/mb.c",line 654,column 30,is_st
    3123 0000023e 8AC4          MOVL      XAR4,*+XAR4[0]        ; [CPU_] |654| 
    3124 0000023f 92A6          MOV       AL,AR6                ; [CPU_] |654| 
    3125              $C$DW$195       .dwtag  DW_TAG_TI_branch
    3126                      .dwattr $C$DW$195, DW_AT_low_pc(0x00)
    3127                      .dwattr $C$DW$195, DW_AT_name("_MOTOR_setMotorFlag")
    3128                      .dwattr $C$DW$195, DW_AT_TI_call
    3129              
    3130 00000240 7640!         LCR       #_MOTOR_setMotorFlag  ; [CPU_] |654| 
         00000241 0000 
    3131                      ; call occurs [#_MOTOR_setMotorFlag] ; [] |654| 
    3132 00000242       $C$L48:    
    3133 00000242 86BE          MOVL      XAR2,*--SP            ; [CPU_] 
    3134                      .dwcfi  cfa_offset, -4
    3135                      .dwcfi  restore_reg, 9
    3136 00000243 8BBE          MOVL      XAR1,*--SP            ; [CPU_] 
    3137                      .dwcfi  cfa_offset, -2
    3138                      .dwcfi  restore_reg, 7
    3139              $C$DW$196       .dwtag  DW_TAG_TI_branch
    3140                      .dwattr $C$DW$196, DW_AT_low_pc(0x00)
    3141                      .dwattr $C$DW$196, DW_AT_TI_return
    3142              
    3143 00000244 0006          LRETR     ; [CPU_] 
    3144                      ; return occurs ; [] 
    3145                      .dwattr $C$DW$184, DW_AT_TI_end_file("C:/Users/wmj/Desktop/BM1000_v1.1/sw/drivers/drvic/modbus/mb.c")
    3146                      .dwattr $C$DW$184, DW_AT_TI_end_line(0x2c4)
    3147                      .dwattr $C$DW$184, DW_AT_TI_end_column(0x01)
    3148                      .dwendentry
    3149                      .dwendtag $C$DW$184
    3150              
    3151 00000245               .sect   ".text"
    3152                      .clink
    3153                      .global _MB_FuncWriteCoilsRegister
    3154              
    3155              $C$DW$197       .dwtag  DW_TAG_subprogram
    3156                      .dwattr $C$DW$197, DW_AT_name("MB_FuncWriteCoilsRegister")
    3157                      .dwattr $C$DW$197, DW_AT_low_pc(_MB_FuncWriteCoilsRegister)
    3158                      .dwattr $C$DW$197, DW_AT_high_pc(0x00)
    3159                      .dwattr $C$DW$197, DW_AT_TI_symbol_name("_MB_FuncWriteCoilsRegister")
    3160                      .dwattr $C$DW$197, DW_AT_external
    3161                      .dwattr $C$DW$197, DW_AT_TI_begin_file("C:/Users/wmj/Desktop/BM1000_v1.1/sw/drivers/drvic/modbus/mb.c
    3162                      .dwattr $C$DW$197, DW_AT_TI_begin_line(0x2c7)
    3163                      .dwattr $C$DW$197, DW_AT_TI_begin_column(0x06)
TMS320C2000 Assembler PC v15.12.3 Wed Nov 22 01:55:15 2017

Tools Copyright (c) 1996-2015 Texas Instruments Incorporated
C:\Users\wmj\AppData\Local\Temp\1239610                              PAGE   60

    3164                      .dwattr $C$DW$197, DW_AT_TI_max_frame_size(-2)
    3165                      .dwpsn  file "C:/Users/wmj/Desktop/BM1000_v1.1/sw/drivers/drvic/modbus/mb.c",line 712,column 1,is_stm
    3166              
    3167                      .dwfde $C$DW$CIE, _MB_FuncWriteCoilsRegister
    3168              $C$DW$198       .dwtag  DW_TAG_formal_parameter
    3169                      .dwattr $C$DW$198, DW_AT_name("handle")
    3170                      .dwattr $C$DW$198, DW_AT_TI_symbol_name("_handle")
    3171                      .dwattr $C$DW$198, DW_AT_type(*$C$DW$T$178)
    3172                      .dwattr $C$DW$198, DW_AT_location[DW_OP_reg12]
    3173              
    3174              
    3175              ;***************************************************************
    3176              ;* FNAME: _MB_FuncWriteCoilsRegister    FR SIZE:   0           *
    3177              ;*                                                             *
    3178              ;* FUNCTION ENVIRONMENT                                        *
    3179              ;*                                                             *
    3180              ;* FUNCTION PROPERTIES                                         *
    3181              ;*                            0 Parameter,  0 Auto,  0 SOE     *
    3182              ;***************************************************************
    3183              
    3184              _MB_FuncWriteCoilsRegister:
    3185              ;* AR4   assigned to $O$C1
    3186              ;* AR4   assigned to $O$C2
    3187              ;* AR5   assigned to $O$C3
    3188              ;* AR4   assigned to _handle
    3189              $C$DW$199       .dwtag  DW_TAG_variable
    3190                      .dwattr $C$DW$199, DW_AT_name("handle")
    3191                      .dwattr $C$DW$199, DW_AT_TI_symbol_name("_handle")
    3192                      .dwattr $C$DW$199, DW_AT_type(*$C$DW$T$200)
    3193                      .dwattr $C$DW$199, DW_AT_location[DW_OP_reg12]
    3194              
    3195                      .dwcfi  cfa_offset, -2
    3196                      .dwcfi  save_reg_to_mem, 26, 0
    3197                      .dwpsn  file "C:/Users/wmj/Desktop/BM1000_v1.1/sw/drivers/drvic/modbus/mb.c",line 728,column 3,is_stm
