TMS320C2000 Assembler PC v6.2.5 Wed Nov 22 14:48:16 2017

Tools Copyright (c) 1996-2014 Texas Instruments Incorporated
C:\Users\wmj\AppData\Local\Temp\0222411                              PAGE    1

       1              ;***************************************************************
       2              ;* TMS320C2000 C/C++ Codegen                         PC v6.2.5 *
       3              ;* Date/Time created: Wed Nov 22 14:48:16 2017                 *
       4              ;***************************************************************
       5                      .compiler_opts --float_support=softlib --hll_source=on --mem_model:code=flat --mem_model:data=large -
       6        0002  FP      .set    XAR2
       7              
       8              $C$DW$CU        .dwtag  DW_TAG_compile_unit
       9                      .dwattr $C$DW$CU, DW_AT_name("D:/BM1000_v1.1/sw/drivers/drvic/modbus/mb.c")
      10                      .dwattr $C$DW$CU, DW_AT_producer("TMS320C2000 C/C++ Codegen PC v6.2.5 Copyright (c) 1996-2014 Texas I
      11                      .dwattr $C$DW$CU, DW_AT_TI_version(0x01)
      12                      .dwattr $C$DW$CU, DW_AT_comp_dir("D:\BM1000_v1.1\sw\solutions\instaspin_foc\boards\hvkit_rev1p1\f28x\
      13              
      14              $C$DW$1 .dwtag  DW_TAG_subprogram, DW_AT_name("FSM_ShutDowm")
      15                      .dwattr $C$DW$1, DW_AT_TI_symbol_name("_FSM_ShutDowm")
      16                      .dwattr $C$DW$1, DW_AT_declaration
      17                      .dwattr $C$DW$1, DW_AT_external
      18              $C$DW$2 .dwtag  DW_TAG_formal_parameter
      19                      .dwattr $C$DW$2, DW_AT_type(*$C$DW$T$121)
      20                      .dwendtag $C$DW$1
      21              
      22              
      23              $C$DW$3 .dwtag  DW_TAG_subprogram, DW_AT_name("FSM_clrOverCurrentReg")
      24                      .dwattr $C$DW$3, DW_AT_TI_symbol_name("_FSM_clrOverCurrentReg")
      25                      .dwattr $C$DW$3, DW_AT_declaration
      26                      .dwattr $C$DW$3, DW_AT_external
      27              $C$DW$4 .dwtag  DW_TAG_formal_parameter
      28                      .dwattr $C$DW$4, DW_AT_type(*$C$DW$T$121)
      29                      .dwendtag $C$DW$3
      30              
      31              
      32              $C$DW$5 .dwtag  DW_TAG_subprogram, DW_AT_name("FSM_485Edit_State_Box")
      33                      .dwattr $C$DW$5, DW_AT_TI_symbol_name("_FSM_485Edit_State_Box")
      34                      .dwattr $C$DW$5, DW_AT_declaration
      35                      .dwattr $C$DW$5, DW_AT_external
      36              $C$DW$6 .dwtag  DW_TAG_formal_parameter
      37                      .dwattr $C$DW$6, DW_AT_type(*$C$DW$T$121)
      38              $C$DW$7 .dwtag  DW_TAG_formal_parameter
      39                      .dwattr $C$DW$7, DW_AT_type(*$C$DW$T$221)
      40                      .dwendtag $C$DW$5
      41              
      42              
      43              $C$DW$8 .dwtag  DW_TAG_subprogram, DW_AT_name("TIMER_clearFlag")
      44                      .dwattr $C$DW$8, DW_AT_TI_symbol_name("_TIMER_clearFlag")
      45                      .dwattr $C$DW$8, DW_AT_declaration
      46                      .dwattr $C$DW$8, DW_AT_external
      47              $C$DW$9 .dwtag  DW_TAG_formal_parameter
      48                      .dwattr $C$DW$9, DW_AT_type(*$C$DW$T$106)
      49                      .dwendtag $C$DW$8
      50              
      51              
      52              $C$DW$10        .dwtag  DW_TAG_subprogram, DW_AT_name("MOTOR_setMotorFlag")
      53                      .dwattr $C$DW$10, DW_AT_TI_symbol_name("_MOTOR_setMotorFlag")
      54                      .dwattr $C$DW$10, DW_AT_declaration
      55                      .dwattr $C$DW$10, DW_AT_external
TMS320C2000 Assembler PC v6.2.5 Wed Nov 22 14:48:16 2017

Tools Copyright (c) 1996-2014 Texas Instruments Incorporated
C:\Users\wmj\AppData\Local\Temp\0222411                              PAGE    2

      56              $C$DW$11        .dwtag  DW_TAG_formal_parameter
      57                      .dwattr $C$DW$11, DW_AT_type(*$C$DW$T$41)
      58              $C$DW$12        .dwtag  DW_TAG_formal_parameter
      59                      .dwattr $C$DW$12, DW_AT_type(*$C$DW$T$221)
      60                      .dwendtag $C$DW$10
      61              
      62              
      63              $C$DW$13        .dwtag  DW_TAG_subprogram, DW_AT_name("SCI_enableTx")
      64                      .dwattr $C$DW$13, DW_AT_TI_symbol_name("_SCI_enableTx")
      65                      .dwattr $C$DW$13, DW_AT_declaration
      66                      .dwattr $C$DW$13, DW_AT_external
      67              $C$DW$14        .dwtag  DW_TAG_formal_parameter
      68                      .dwattr $C$DW$14, DW_AT_type(*$C$DW$T$113)
      69                      .dwendtag $C$DW$13
      70              
      71              
      72              $C$DW$15        .dwtag  DW_TAG_subprogram, DW_AT_name("GPIO_setLow")
      73                      .dwattr $C$DW$15, DW_AT_TI_symbol_name("_GPIO_setLow")
      74                      .dwattr $C$DW$15, DW_AT_declaration
      75                      .dwattr $C$DW$15, DW_AT_external
      76              $C$DW$16        .dwtag  DW_TAG_formal_parameter
      77                      .dwattr $C$DW$16, DW_AT_type(*$C$DW$T$88)
      78              $C$DW$17        .dwtag  DW_TAG_formal_parameter
      79                      .dwattr $C$DW$17, DW_AT_type(*$C$DW$T$192)
      80                      .dwendtag $C$DW$15
      81              
      82              
      83              $C$DW$18        .dwtag  DW_TAG_subprogram, DW_AT_name("GPIO_setHigh")
      84                      .dwattr $C$DW$18, DW_AT_TI_symbol_name("_GPIO_setHigh")
      85                      .dwattr $C$DW$18, DW_AT_declaration
      86                      .dwattr $C$DW$18, DW_AT_external
      87              $C$DW$19        .dwtag  DW_TAG_formal_parameter
      88                      .dwattr $C$DW$19, DW_AT_type(*$C$DW$T$88)
      89              $C$DW$20        .dwtag  DW_TAG_formal_parameter
      90                      .dwattr $C$DW$20, DW_AT_type(*$C$DW$T$192)
      91                      .dwendtag $C$DW$18
      92              
      93              
      94              $C$DW$21        .dwtag  DW_TAG_subprogram, DW_AT_name("SCI_enableRx")
      95                      .dwattr $C$DW$21, DW_AT_TI_symbol_name("_SCI_enableRx")
      96                      .dwattr $C$DW$21, DW_AT_declaration
      97                      .dwattr $C$DW$21, DW_AT_external
      98              $C$DW$22        .dwtag  DW_TAG_formal_parameter
      99                      .dwattr $C$DW$22, DW_AT_type(*$C$DW$T$113)
     100                      .dwendtag $C$DW$21
     101              
     102              
     103              $C$DW$23        .dwtag  DW_TAG_subprogram, DW_AT_name("SCI_disableRx")
     104                      .dwattr $C$DW$23, DW_AT_TI_symbol_name("_SCI_disableRx")
     105                      .dwattr $C$DW$23, DW_AT_declaration
     106                      .dwattr $C$DW$23, DW_AT_external
     107              $C$DW$24        .dwtag  DW_TAG_formal_parameter
     108                      .dwattr $C$DW$24, DW_AT_type(*$C$DW$T$113)
     109                      .dwendtag $C$DW$23
     110              
TMS320C2000 Assembler PC v6.2.5 Wed Nov 22 14:48:16 2017

Tools Copyright (c) 1996-2014 Texas Instruments Incorporated
C:\Users\wmj\AppData\Local\Temp\0222411                              PAGE    3

     111              
     112              $C$DW$25        .dwtag  DW_TAG_subprogram, DW_AT_name("SCI_disableTx")
     113                      .dwattr $C$DW$25, DW_AT_TI_symbol_name("_SCI_disableTx")
     114                      .dwattr $C$DW$25, DW_AT_declaration
     115                      .dwattr $C$DW$25, DW_AT_external
     116              $C$DW$26        .dwtag  DW_TAG_formal_parameter
     117                      .dwattr $C$DW$26, DW_AT_type(*$C$DW$T$113)
     118                      .dwendtag $C$DW$25
     119              
     120              
     121              $C$DW$27        .dwtag  DW_TAG_subprogram, DW_AT_name("SCI_getDataNonBlocking")
     122                      .dwattr $C$DW$27, DW_AT_TI_symbol_name("_SCI_getDataNonBlocking")
     123                      .dwattr $C$DW$27, DW_AT_type(*$C$DW$T$21)
     124                      .dwattr $C$DW$27, DW_AT_declaration
     125                      .dwattr $C$DW$27, DW_AT_external
     126              $C$DW$28        .dwtag  DW_TAG_formal_parameter
     127                      .dwattr $C$DW$28, DW_AT_type(*$C$DW$T$113)
     128              $C$DW$29        .dwtag  DW_TAG_formal_parameter
     129                      .dwattr $C$DW$29, DW_AT_type(*$C$DW$T$265)
     130                      .dwendtag $C$DW$27
     131              
     132              
     133              $C$DW$30        .dwtag  DW_TAG_subprogram, DW_AT_name("SCI_putDataNonBlocking")
     134                      .dwattr $C$DW$30, DW_AT_TI_symbol_name("_SCI_putDataNonBlocking")
     135                      .dwattr $C$DW$30, DW_AT_type(*$C$DW$T$21)
     136                      .dwattr $C$DW$30, DW_AT_declaration
     137                      .dwattr $C$DW$30, DW_AT_external
     138              $C$DW$31        .dwtag  DW_TAG_formal_parameter
     139                      .dwattr $C$DW$31, DW_AT_type(*$C$DW$T$113)
     140              $C$DW$32        .dwtag  DW_TAG_formal_parameter
     141                      .dwattr $C$DW$32, DW_AT_type(*$C$DW$T$21)
     142                      .dwendtag $C$DW$30
     143              
     144              
     145              $C$DW$33        .dwtag  DW_TAG_subprogram, DW_AT_name("MOTOR_getMotorFlag")
     146                      .dwattr $C$DW$33, DW_AT_TI_symbol_name("_MOTOR_getMotorFlag")
     147                      .dwattr $C$DW$33, DW_AT_type(*$C$DW$T$21)
     148                      .dwattr $C$DW$33, DW_AT_declaration
     149                      .dwattr $C$DW$33, DW_AT_external
     150              $C$DW$34        .dwtag  DW_TAG_formal_parameter
     151                      .dwattr $C$DW$34, DW_AT_type(*$C$DW$T$41)
     152                      .dwendtag $C$DW$33
     153              
     154              
     155              $C$DW$35        .dwtag  DW_TAG_subprogram, DW_AT_name("FSM_485Read_State_Box")
     156                      .dwattr $C$DW$35, DW_AT_TI_symbol_name("_FSM_485Read_State_Box")
     157                      .dwattr $C$DW$35, DW_AT_type(*$C$DW$T$21)
     158                      .dwattr $C$DW$35, DW_AT_declaration
     159                      .dwattr $C$DW$35, DW_AT_external
     160              $C$DW$36        .dwtag  DW_TAG_formal_parameter
     161                      .dwattr $C$DW$36, DW_AT_type(*$C$DW$T$121)
     162                      .dwendtag $C$DW$35
     163              
     164              
     165              $C$DW$37        .dwtag  DW_TAG_subprogram, DW_AT_name("_IQ7int")
TMS320C2000 Assembler PC v6.2.5 Wed Nov 22 14:48:16 2017

Tools Copyright (c) 1996-2014 Texas Instruments Incorporated
C:\Users\wmj\AppData\Local\Temp\0222411                              PAGE    4

     166                      .dwattr $C$DW$37, DW_AT_TI_symbol_name("__IQ7int")
     167                      .dwattr $C$DW$37, DW_AT_type(*$C$DW$T$12)
     168                      .dwattr $C$DW$37, DW_AT_declaration
     169                      .dwattr $C$DW$37, DW_AT_external
     170              $C$DW$38        .dwtag  DW_TAG_formal_parameter
     171                      .dwattr $C$DW$38, DW_AT_type(*$C$DW$T$12)
     172                      .dwendtag $C$DW$37
     173              
     174              
     175              $C$DW$39        .dwtag  DW_TAG_subprogram, DW_AT_name("__IQsat")
     176                      .dwattr $C$DW$39, DW_AT_TI_symbol_name("___IQsat")
     177                      .dwattr $C$DW$39, DW_AT_type(*$C$DW$T$12)
     178                      .dwattr $C$DW$39, DW_AT_declaration
     179                      .dwattr $C$DW$39, DW_AT_external
     180              $C$DW$40        .dwtag  DW_TAG_formal_parameter
     181                      .dwattr $C$DW$40, DW_AT_type(*$C$DW$T$12)
     182              $C$DW$41        .dwtag  DW_TAG_formal_parameter
     183                      .dwattr $C$DW$41, DW_AT_type(*$C$DW$T$12)
     184              $C$DW$42        .dwtag  DW_TAG_formal_parameter
     185                      .dwattr $C$DW$42, DW_AT_type(*$C$DW$T$12)
     186                      .dwendtag $C$DW$39
     187              
     188              
     189              $C$DW$43        .dwtag  DW_TAG_subprogram, DW_AT_name("_IQ24frac")
     190                      .dwattr $C$DW$43, DW_AT_TI_symbol_name("__IQ24frac")
     191                      .dwattr $C$DW$43, DW_AT_type(*$C$DW$T$12)
     192                      .dwattr $C$DW$43, DW_AT_declaration
     193                      .dwattr $C$DW$43, DW_AT_external
     194              $C$DW$44        .dwtag  DW_TAG_formal_parameter
     195                      .dwattr $C$DW$44, DW_AT_type(*$C$DW$T$12)
     196                      .dwendtag $C$DW$43
     197              
     198              
     199              $C$DW$45        .dwtag  DW_TAG_subprogram, DW_AT_name("_IQ7frac")
     200                      .dwattr $C$DW$45, DW_AT_TI_symbol_name("__IQ7frac")
     201                      .dwattr $C$DW$45, DW_AT_type(*$C$DW$T$12)
     202                      .dwattr $C$DW$45, DW_AT_declaration
     203                      .dwattr $C$DW$45, DW_AT_external
     204              $C$DW$46        .dwtag  DW_TAG_formal_parameter
     205                      .dwattr $C$DW$46, DW_AT_type(*$C$DW$T$12)
     206                      .dwendtag $C$DW$45
     207              
     208                      .global _aucCRCLo
     209 00000000               .sect   ".econst:.string:_aucCRCLo"
     210                      .clink
     211                      .align  1
     212 00000000       _aucCRCLo:
     213 00000000 0000          .bits   0,16                    ; _aucCRCLo[0] @ 0
     214 00000001 00C0          .bits   192,16                  ; _aucCRCLo[1] @ 16
     215 00000002 00C1          .bits   193,16                  ; _aucCRCLo[2] @ 32
     216 00000003 0001          .bits   1,16                    ; _aucCRCLo[3] @ 48
     217 00000004 00C3          .bits   195,16                  ; _aucCRCLo[4] @ 64
     218 00000005 0003          .bits   3,16                    ; _aucCRCLo[5] @ 80
     219 00000006 0002          .bits   2,16                    ; _aucCRCLo[6] @ 96
     220 00000007 00C2          .bits   194,16                  ; _aucCRCLo[7] @ 112
TMS320C2000 Assembler PC v6.2.5 Wed Nov 22 14:48:16 2017

Tools Copyright (c) 1996-2014 Texas Instruments Incorporated
C:\Users\wmj\AppData\Local\Temp\0222411                              PAGE    5

     221 00000008 00C6          .bits   198,16                  ; _aucCRCLo[8] @ 128
     222 00000009 0006          .bits   6,16                    ; _aucCRCLo[9] @ 144
     223 0000000a 0007          .bits   7,16                    ; _aucCRCLo[10] @ 160
     224 0000000b 00C7          .bits   199,16                  ; _aucCRCLo[11] @ 176
     225 0000000c 0005          .bits   5,16                    ; _aucCRCLo[12] @ 192
     226 0000000d 00C5          .bits   197,16                  ; _aucCRCLo[13] @ 208
     227 0000000e 00C4          .bits   196,16                  ; _aucCRCLo[14] @ 224
     228 0000000f 0004          .bits   4,16                    ; _aucCRCLo[15] @ 240
     229 00000010 00CC          .bits   204,16                  ; _aucCRCLo[16] @ 256
     230 00000011 000C          .bits   12,16                   ; _aucCRCLo[17] @ 272
     231 00000012 000D          .bits   13,16                   ; _aucCRCLo[18] @ 288
     232 00000013 00CD          .bits   205,16                  ; _aucCRCLo[19] @ 304
     233 00000014 000F          .bits   15,16                   ; _aucCRCLo[20] @ 320
     234 00000015 00CF          .bits   207,16                  ; _aucCRCLo[21] @ 336
     235 00000016 00CE          .bits   206,16                  ; _aucCRCLo[22] @ 352
     236 00000017 000E          .bits   14,16                   ; _aucCRCLo[23] @ 368
     237 00000018 000A          .bits   10,16                   ; _aucCRCLo[24] @ 384
     238 00000019 00CA          .bits   202,16                  ; _aucCRCLo[25] @ 400
     239 0000001a 00CB          .bits   203,16                  ; _aucCRCLo[26] @ 416
     240 0000001b 000B          .bits   11,16                   ; _aucCRCLo[27] @ 432
     241 0000001c 00C9          .bits   201,16                  ; _aucCRCLo[28] @ 448
     242 0000001d 0009          .bits   9,16                    ; _aucCRCLo[29] @ 464
     243 0000001e 0008          .bits   8,16                    ; _aucCRCLo[30] @ 480
     244 0000001f 00C8          .bits   200,16                  ; _aucCRCLo[31] @ 496
     245 00000020 00D8          .bits   216,16                  ; _aucCRCLo[32] @ 512
     246 00000021 0018          .bits   24,16                   ; _aucCRCLo[33] @ 528
     247 00000022 0019          .bits   25,16                   ; _aucCRCLo[34] @ 544
     248 00000023 00D9          .bits   217,16                  ; _aucCRCLo[35] @ 560
     249 00000024 001B          .bits   27,16                   ; _aucCRCLo[36] @ 576
     250 00000025 00DB          .bits   219,16                  ; _aucCRCLo[37] @ 592
     251 00000026 00DA          .bits   218,16                  ; _aucCRCLo[38] @ 608
     252 00000027 001A          .bits   26,16                   ; _aucCRCLo[39] @ 624
     253 00000028 001E          .bits   30,16                   ; _aucCRCLo[40] @ 640
     254 00000029 00DE          .bits   222,16                  ; _aucCRCLo[41] @ 656
     255 0000002a 00DF          .bits   223,16                  ; _aucCRCLo[42] @ 672
     256 0000002b 001F          .bits   31,16                   ; _aucCRCLo[43] @ 688
     257 0000002c 00DD          .bits   221,16                  ; _aucCRCLo[44] @ 704
     258 0000002d 001D          .bits   29,16                   ; _aucCRCLo[45] @ 720
     259 0000002e 001C          .bits   28,16                   ; _aucCRCLo[46] @ 736
     260 0000002f 00DC          .bits   220,16                  ; _aucCRCLo[47] @ 752
     261 00000030 0014          .bits   20,16                   ; _aucCRCLo[48] @ 768
     262 00000031 00D4          .bits   212,16                  ; _aucCRCLo[49] @ 784
     263 00000032 00D5          .bits   213,16                  ; _aucCRCLo[50] @ 800
     264 00000033 0015          .bits   21,16                   ; _aucCRCLo[51] @ 816
     265 00000034 00D7          .bits   215,16                  ; _aucCRCLo[52] @ 832
     266 00000035 0017          .bits   23,16                   ; _aucCRCLo[53] @ 848
     267 00000036 0016          .bits   22,16                   ; _aucCRCLo[54] @ 864
     268 00000037 00D6          .bits   214,16                  ; _aucCRCLo[55] @ 880
     269 00000038 00D2          .bits   210,16                  ; _aucCRCLo[56] @ 896
     270 00000039 0012          .bits   18,16                   ; _aucCRCLo[57] @ 912
     271 0000003a 0013          .bits   19,16                   ; _aucCRCLo[58] @ 928
     272 0000003b 00D3          .bits   211,16                  ; _aucCRCLo[59] @ 944
     273 0000003c 0011          .bits   17,16                   ; _aucCRCLo[60] @ 960
     274 0000003d 00D1          .bits   209,16                  ; _aucCRCLo[61] @ 976
     275 0000003e 00D0          .bits   208,16                  ; _aucCRCLo[62] @ 992
TMS320C2000 Assembler PC v6.2.5 Wed Nov 22 14:48:16 2017

Tools Copyright (c) 1996-2014 Texas Instruments Incorporated
C:\Users\wmj\AppData\Local\Temp\0222411                              PAGE    6

     276 0000003f 0010          .bits   16,16                   ; _aucCRCLo[63] @ 1008
     277 00000040 00F0          .bits   240,16                  ; _aucCRCLo[64] @ 1024
     278 00000041 0030          .bits   48,16                   ; _aucCRCLo[65] @ 1040
     279 00000042 0031          .bits   49,16                   ; _aucCRCLo[66] @ 1056
     280 00000043 00F1          .bits   241,16                  ; _aucCRCLo[67] @ 1072
     281 00000044 0033          .bits   51,16                   ; _aucCRCLo[68] @ 1088
     282 00000045 00F3          .bits   243,16                  ; _aucCRCLo[69] @ 1104
     283 00000046 00F2          .bits   242,16                  ; _aucCRCLo[70] @ 1120
     284 00000047 0032          .bits   50,16                   ; _aucCRCLo[71] @ 1136
     285 00000048 0036          .bits   54,16                   ; _aucCRCLo[72] @ 1152
     286 00000049 00F6          .bits   246,16                  ; _aucCRCLo[73] @ 1168
     287 0000004a 00F7          .bits   247,16                  ; _aucCRCLo[74] @ 1184
     288 0000004b 0037          .bits   55,16                   ; _aucCRCLo[75] @ 1200
     289 0000004c 00F5          .bits   245,16                  ; _aucCRCLo[76] @ 1216
     290 0000004d 0035          .bits   53,16                   ; _aucCRCLo[77] @ 1232
     291 0000004e 0034          .bits   52,16                   ; _aucCRCLo[78] @ 1248
     292 0000004f 00F4          .bits   244,16                  ; _aucCRCLo[79] @ 1264
     293 00000050 003C          .bits   60,16                   ; _aucCRCLo[80] @ 1280
     294 00000051 00FC          .bits   252,16                  ; _aucCRCLo[81] @ 1296
     295 00000052 00FD          .bits   253,16                  ; _aucCRCLo[82] @ 1312
     296 00000053 003D          .bits   61,16                   ; _aucCRCLo[83] @ 1328
     297 00000054 00FF          .bits   255,16                  ; _aucCRCLo[84] @ 1344
     298 00000055 003F          .bits   63,16                   ; _aucCRCLo[85] @ 1360
     299 00000056 003E          .bits   62,16                   ; _aucCRCLo[86] @ 1376
     300 00000057 00FE          .bits   254,16                  ; _aucCRCLo[87] @ 1392
     301 00000058 00FA          .bits   250,16                  ; _aucCRCLo[88] @ 1408
     302 00000059 003A          .bits   58,16                   ; _aucCRCLo[89] @ 1424
     303 0000005a 003B          .bits   59,16                   ; _aucCRCLo[90] @ 1440
     304 0000005b 00FB          .bits   251,16                  ; _aucCRCLo[91] @ 1456
     305 0000005c 0039          .bits   57,16                   ; _aucCRCLo[92] @ 1472
     306 0000005d 00F9          .bits   249,16                  ; _aucCRCLo[93] @ 1488
     307 0000005e 00F8          .bits   248,16                  ; _aucCRCLo[94] @ 1504
     308 0000005f 0038          .bits   56,16                   ; _aucCRCLo[95] @ 1520
     309 00000060 0028          .bits   40,16                   ; _aucCRCLo[96] @ 1536
     310 00000061 00E8          .bits   232,16                  ; _aucCRCLo[97] @ 1552
     311 00000062 00E9          .bits   233,16                  ; _aucCRCLo[98] @ 1568
     312 00000063 0029          .bits   41,16                   ; _aucCRCLo[99] @ 1584
     313 00000064 00EB          .bits   235,16                  ; _aucCRCLo[100] @ 1600
     314 00000065 002B          .bits   43,16                   ; _aucCRCLo[101] @ 1616
     315 00000066 002A          .bits   42,16                   ; _aucCRCLo[102] @ 1632
     316 00000067 00EA          .bits   234,16                  ; _aucCRCLo[103] @ 1648
     317 00000068 00EE          .bits   238,16                  ; _aucCRCLo[104] @ 1664
     318 00000069 002E          .bits   46,16                   ; _aucCRCLo[105] @ 1680
     319 0000006a 002F          .bits   47,16                   ; _aucCRCLo[106] @ 1696
     320 0000006b 00EF          .bits   239,16                  ; _aucCRCLo[107] @ 1712
     321 0000006c 002D          .bits   45,16                   ; _aucCRCLo[108] @ 1728
     322 0000006d 00ED          .bits   237,16                  ; _aucCRCLo[109] @ 1744
     323 0000006e 00EC          .bits   236,16                  ; _aucCRCLo[110] @ 1760
     324 0000006f 002C          .bits   44,16                   ; _aucCRCLo[111] @ 1776
     325 00000070 00E4          .bits   228,16                  ; _aucCRCLo[112] @ 1792
     326 00000071 0024          .bits   36,16                   ; _aucCRCLo[113] @ 1808
     327 00000072 0025          .bits   37,16                   ; _aucCRCLo[114] @ 1824
     328 00000073 00E5          .bits   229,16                  ; _aucCRCLo[115] @ 1840
     329 00000074 0027          .bits   39,16                   ; _aucCRCLo[116] @ 1856
     330 00000075 00E7          .bits   231,16                  ; _aucCRCLo[117] @ 1872
TMS320C2000 Assembler PC v6.2.5 Wed Nov 22 14:48:16 2017

Tools Copyright (c) 1996-2014 Texas Instruments Incorporated
C:\Users\wmj\AppData\Local\Temp\0222411                              PAGE    7

     331 00000076 00E6          .bits   230,16                  ; _aucCRCLo[118] @ 1888
     332 00000077 0026          .bits   38,16                   ; _aucCRCLo[119] @ 1904
     333 00000078 0022          .bits   34,16                   ; _aucCRCLo[120] @ 1920
     334 00000079 00E2          .bits   226,16                  ; _aucCRCLo[121] @ 1936
     335 0000007a 00E3          .bits   227,16                  ; _aucCRCLo[122] @ 1952
     336 0000007b 0023          .bits   35,16                   ; _aucCRCLo[123] @ 1968
     337 0000007c 00E1          .bits   225,16                  ; _aucCRCLo[124] @ 1984
     338 0000007d 0021          .bits   33,16                   ; _aucCRCLo[125] @ 2000
     339 0000007e 0020          .bits   32,16                   ; _aucCRCLo[126] @ 2016
     340 0000007f 00E0          .bits   224,16                  ; _aucCRCLo[127] @ 2032
     341 00000080 00A0          .bits   160,16                  ; _aucCRCLo[128] @ 2048
     342 00000081 0060          .bits   96,16                   ; _aucCRCLo[129] @ 2064
     343 00000082 0061          .bits   97,16                   ; _aucCRCLo[130] @ 2080
     344 00000083 00A1          .bits   161,16                  ; _aucCRCLo[131] @ 2096
     345 00000084 0063          .bits   99,16                   ; _aucCRCLo[132] @ 2112
     346 00000085 00A3          .bits   163,16                  ; _aucCRCLo[133] @ 2128
     347 00000086 00A2          .bits   162,16                  ; _aucCRCLo[134] @ 2144
     348 00000087 0062          .bits   98,16                   ; _aucCRCLo[135] @ 2160
     349 00000088 0066          .bits   102,16                  ; _aucCRCLo[136] @ 2176
     350 00000089 00A6          .bits   166,16                  ; _aucCRCLo[137] @ 2192
     351 0000008a 00A7          .bits   167,16                  ; _aucCRCLo[138] @ 2208
     352 0000008b 0067          .bits   103,16                  ; _aucCRCLo[139] @ 2224
     353 0000008c 00A5          .bits   165,16                  ; _aucCRCLo[140] @ 2240
     354 0000008d 0065          .bits   101,16                  ; _aucCRCLo[141] @ 2256
     355 0000008e 0064          .bits   100,16                  ; _aucCRCLo[142] @ 2272
     356 0000008f 00A4          .bits   164,16                  ; _aucCRCLo[143] @ 2288
     357 00000090 006C          .bits   108,16                  ; _aucCRCLo[144] @ 2304
     358 00000091 00AC          .bits   172,16                  ; _aucCRCLo[145] @ 2320
     359 00000092 00AD          .bits   173,16                  ; _aucCRCLo[146] @ 2336
     360 00000093 006D          .bits   109,16                  ; _aucCRCLo[147] @ 2352
     361 00000094 00AF          .bits   175,16                  ; _aucCRCLo[148] @ 2368
     362 00000095 006F          .bits   111,16                  ; _aucCRCLo[149] @ 2384
     363 00000096 006E          .bits   110,16                  ; _aucCRCLo[150] @ 2400
     364 00000097 00AE          .bits   174,16                  ; _aucCRCLo[151] @ 2416
     365 00000098 00AA          .bits   170,16                  ; _aucCRCLo[152] @ 2432
     366 00000099 006A          .bits   106,16                  ; _aucCRCLo[153] @ 2448
     367 0000009a 006B          .bits   107,16                  ; _aucCRCLo[154] @ 2464
     368 0000009b 00AB          .bits   171,16                  ; _aucCRCLo[155] @ 2480
     369 0000009c 0069          .bits   105,16                  ; _aucCRCLo[156] @ 2496
     370 0000009d 00A9          .bits   169,16                  ; _aucCRCLo[157] @ 2512
     371 0000009e 00A8          .bits   168,16                  ; _aucCRCLo[158] @ 2528
     372 0000009f 0068          .bits   104,16                  ; _aucCRCLo[159] @ 2544
     373 000000a0 0078          .bits   120,16                  ; _aucCRCLo[160] @ 2560
     374 000000a1 00B8          .bits   184,16                  ; _aucCRCLo[161] @ 2576
     375 000000a2 00B9          .bits   185,16                  ; _aucCRCLo[162] @ 2592
     376 000000a3 0079          .bits   121,16                  ; _aucCRCLo[163] @ 2608
     377 000000a4 00BB          .bits   187,16                  ; _aucCRCLo[164] @ 2624
     378 000000a5 007B          .bits   123,16                  ; _aucCRCLo[165] @ 2640
     379 000000a6 007A          .bits   122,16                  ; _aucCRCLo[166] @ 2656
     380 000000a7 00BA          .bits   186,16                  ; _aucCRCLo[167] @ 2672
     381 000000a8 00BE          .bits   190,16                  ; _aucCRCLo[168] @ 2688
     382 000000a9 007E          .bits   126,16                  ; _aucCRCLo[169] @ 2704
     383 000000aa 007F          .bits   127,16                  ; _aucCRCLo[170] @ 2720
     384 000000ab 00BF          .bits   191,16                  ; _aucCRCLo[171] @ 2736
     385 000000ac 007D          .bits   125,16                  ; _aucCRCLo[172] @ 2752
TMS320C2000 Assembler PC v6.2.5 Wed Nov 22 14:48:16 2017

Tools Copyright (c) 1996-2014 Texas Instruments Incorporated
C:\Users\wmj\AppData\Local\Temp\0222411                              PAGE    8

     386 000000ad 00BD          .bits   189,16                  ; _aucCRCLo[173] @ 2768
     387 000000ae 00BC          .bits   188,16                  ; _aucCRCLo[174] @ 2784
     388 000000af 007C          .bits   124,16                  ; _aucCRCLo[175] @ 2800
     389 000000b0 00B4          .bits   180,16                  ; _aucCRCLo[176] @ 2816
     390 000000b1 0074          .bits   116,16                  ; _aucCRCLo[177] @ 2832
     391 000000b2 0075          .bits   117,16                  ; _aucCRCLo[178] @ 2848
     392 000000b3 00B5          .bits   181,16                  ; _aucCRCLo[179] @ 2864
     393 000000b4 0077          .bits   119,16                  ; _aucCRCLo[180] @ 2880
     394 000000b5 00B7          .bits   183,16                  ; _aucCRCLo[181] @ 2896
     395 000000b6 00B6          .bits   182,16                  ; _aucCRCLo[182] @ 2912
     396 000000b7 0076          .bits   118,16                  ; _aucCRCLo[183] @ 2928
     397 000000b8 0072          .bits   114,16                  ; _aucCRCLo[184] @ 2944
     398 000000b9 00B2          .bits   178,16                  ; _aucCRCLo[185] @ 2960
     399 000000ba 00B3          .bits   179,16                  ; _aucCRCLo[186] @ 2976
     400 000000bb 0073          .bits   115,16                  ; _aucCRCLo[187] @ 2992
     401 000000bc 00B1          .bits   177,16                  ; _aucCRCLo[188] @ 3008
     402 000000bd 0071          .bits   113,16                  ; _aucCRCLo[189] @ 3024
     403 000000be 0070          .bits   112,16                  ; _aucCRCLo[190] @ 3040
     404 000000bf 00B0          .bits   176,16                  ; _aucCRCLo[191] @ 3056
     405 000000c0 0050          .bits   80,16                   ; _aucCRCLo[192] @ 3072
     406 000000c1 0090          .bits   144,16                  ; _aucCRCLo[193] @ 3088
     407 000000c2 0091          .bits   145,16                  ; _aucCRCLo[194] @ 3104
     408 000000c3 0051          .bits   81,16                   ; _aucCRCLo[195] @ 3120
     409 000000c4 0093          .bits   147,16                  ; _aucCRCLo[196] @ 3136
     410 000000c5 0053          .bits   83,16                   ; _aucCRCLo[197] @ 3152
     411 000000c6 0052          .bits   82,16                   ; _aucCRCLo[198] @ 3168
     412 000000c7 0092          .bits   146,16                  ; _aucCRCLo[199] @ 3184
     413 000000c8 0096          .bits   150,16                  ; _aucCRCLo[200] @ 3200
     414 000000c9 0056          .bits   86,16                   ; _aucCRCLo[201] @ 3216
     415 000000ca 0057          .bits   87,16                   ; _aucCRCLo[202] @ 3232
     416 000000cb 0097          .bits   151,16                  ; _aucCRCLo[203] @ 3248
     417 000000cc 0055          .bits   85,16                   ; _aucCRCLo[204] @ 3264
     418 000000cd 0095          .bits   149,16                  ; _aucCRCLo[205] @ 3280
     419 000000ce 0094          .bits   148,16                  ; _aucCRCLo[206] @ 3296
     420 000000cf 0054          .bits   84,16                   ; _aucCRCLo[207] @ 3312
     421 000000d0 009C          .bits   156,16                  ; _aucCRCLo[208] @ 3328
     422 000000d1 005C          .bits   92,16                   ; _aucCRCLo[209] @ 3344
     423 000000d2 005D          .bits   93,16                   ; _aucCRCLo[210] @ 3360
     424 000000d3 009D          .bits   157,16                  ; _aucCRCLo[211] @ 3376
     425 000000d4 005F          .bits   95,16                   ; _aucCRCLo[212] @ 3392
     426 000000d5 009F          .bits   159,16                  ; _aucCRCLo[213] @ 3408
     427 000000d6 009E          .bits   158,16                  ; _aucCRCLo[214] @ 3424
     428 000000d7 005E          .bits   94,16                   ; _aucCRCLo[215] @ 3440
     429 000000d8 005A          .bits   90,16                   ; _aucCRCLo[216] @ 3456
     430 000000d9 009A          .bits   154,16                  ; _aucCRCLo[217] @ 3472
     431 000000da 009B          .bits   155,16                  ; _aucCRCLo[218] @ 3488
     432 000000db 005B          .bits   91,16                   ; _aucCRCLo[219] @ 3504
     433 000000dc 0099          .bits   153,16                  ; _aucCRCLo[220] @ 3520
     434 000000dd 0059          .bits   89,16                   ; _aucCRCLo[221] @ 3536
     435 000000de 0058          .bits   88,16                   ; _aucCRCLo[222] @ 3552
     436 000000df 0098          .bits   152,16                  ; _aucCRCLo[223] @ 3568
     437 000000e0 0088          .bits   136,16                  ; _aucCRCLo[224] @ 3584
     438 000000e1 0048          .bits   72,16                   ; _aucCRCLo[225] @ 3600
     439 000000e2 0049          .bits   73,16                   ; _aucCRCLo[226] @ 3616
     440 000000e3 0089          .bits   137,16                  ; _aucCRCLo[227] @ 3632
TMS320C2000 Assembler PC v6.2.5 Wed Nov 22 14:48:16 2017

Tools Copyright (c) 1996-2014 Texas Instruments Incorporated
C:\Users\wmj\AppData\Local\Temp\0222411                              PAGE    9

     441 000000e4 004B          .bits   75,16                   ; _aucCRCLo[228] @ 3648
     442 000000e5 008B          .bits   139,16                  ; _aucCRCLo[229] @ 3664
     443 000000e6 008A          .bits   138,16                  ; _aucCRCLo[230] @ 3680
     444 000000e7 004A          .bits   74,16                   ; _aucCRCLo[231] @ 3696
     445 000000e8 004E          .bits   78,16                   ; _aucCRCLo[232] @ 3712
     446 000000e9 008E          .bits   142,16                  ; _aucCRCLo[233] @ 3728
     447 000000ea 008F          .bits   143,16                  ; _aucCRCLo[234] @ 3744
     448 000000eb 004F          .bits   79,16                   ; _aucCRCLo[235] @ 3760
     449 000000ec 008D          .bits   141,16                  ; _aucCRCLo[236] @ 3776
     450 000000ed 004D          .bits   77,16                   ; _aucCRCLo[237] @ 3792
     451 000000ee 004C          .bits   76,16                   ; _aucCRCLo[238] @ 3808
     452 000000ef 008C          .bits   140,16                  ; _aucCRCLo[239] @ 3824
     453 000000f0 0044          .bits   68,16                   ; _aucCRCLo[240] @ 3840
     454 000000f1 0084          .bits   132,16                  ; _aucCRCLo[241] @ 3856
     455 000000f2 0085          .bits   133,16                  ; _aucCRCLo[242] @ 3872
     456 000000f3 0045          .bits   69,16                   ; _aucCRCLo[243] @ 3888
     457 000000f4 0087          .bits   135,16                  ; _aucCRCLo[244] @ 3904
     458 000000f5 0047          .bits   71,16                   ; _aucCRCLo[245] @ 3920
     459 000000f6 0046          .bits   70,16                   ; _aucCRCLo[246] @ 3936
     460 000000f7 0086          .bits   134,16                  ; _aucCRCLo[247] @ 3952
     461 000000f8 0082          .bits   130,16                  ; _aucCRCLo[248] @ 3968
     462 000000f9 0042          .bits   66,16                   ; _aucCRCLo[249] @ 3984
     463 000000fa 0043          .bits   67,16                   ; _aucCRCLo[250] @ 4000
     464 000000fb 0083          .bits   131,16                  ; _aucCRCLo[251] @ 4016
     465 000000fc 0041          .bits   65,16                   ; _aucCRCLo[252] @ 4032
     466 000000fd 0081          .bits   129,16                  ; _aucCRCLo[253] @ 4048
     467 000000fe 0080          .bits   128,16                  ; _aucCRCLo[254] @ 4064
     468 000000ff 0040          .bits   64,16                   ; _aucCRCLo[255] @ 4080
     469              
     470              $C$DW$47        .dwtag  DW_TAG_variable, DW_AT_name("aucCRCLo")
     471                      .dwattr $C$DW$47, DW_AT_TI_symbol_name("_aucCRCLo")
     472                      .dwattr $C$DW$47, DW_AT_location[DW_OP_addr _aucCRCLo]
     473                      .dwattr $C$DW$47, DW_AT_type(*$C$DW$T$260)
     474                      .dwattr $C$DW$47, DW_AT_external
     475                      .global _aucCRCHi
     476 00000000               .sect   ".econst:.string:_aucCRCHi"
     477                      .clink
     478                      .align  1
     479 00000000       _aucCRCHi:
     480 00000000 0000          .bits   0,16                    ; _aucCRCHi[0] @ 0
     481 00000001 00C1          .bits   193,16                  ; _aucCRCHi[1] @ 16
     482 00000002 0081          .bits   129,16                  ; _aucCRCHi[2] @ 32
     483 00000003 0040          .bits   64,16                   ; _aucCRCHi[3] @ 48
     484 00000004 0001          .bits   1,16                    ; _aucCRCHi[4] @ 64
     485 00000005 00C0          .bits   192,16                  ; _aucCRCHi[5] @ 80
     486 00000006 0080          .bits   128,16                  ; _aucCRCHi[6] @ 96
     487 00000007 0041          .bits   65,16                   ; _aucCRCHi[7] @ 112
     488 00000008 0001          .bits   1,16                    ; _aucCRCHi[8] @ 128
     489 00000009 00C0          .bits   192,16                  ; _aucCRCHi[9] @ 144
     490 0000000a 0080          .bits   128,16                  ; _aucCRCHi[10] @ 160
     491 0000000b 0041          .bits   65,16                   ; _aucCRCHi[11] @ 176
     492 0000000c 0000          .bits   0,16                    ; _aucCRCHi[12] @ 192
     493 0000000d 00C1          .bits   193,16                  ; _aucCRCHi[13] @ 208
     494 0000000e 0081          .bits   129,16                  ; _aucCRCHi[14] @ 224
     495 0000000f 0040          .bits   64,16                   ; _aucCRCHi[15] @ 240
TMS320C2000 Assembler PC v6.2.5 Wed Nov 22 14:48:16 2017

Tools Copyright (c) 1996-2014 Texas Instruments Incorporated
C:\Users\wmj\AppData\Local\Temp\0222411                              PAGE   10

     496 00000010 0001          .bits   1,16                    ; _aucCRCHi[16] @ 256
     497 00000011 00C0          .bits   192,16                  ; _aucCRCHi[17] @ 272
     498 00000012 0080          .bits   128,16                  ; _aucCRCHi[18] @ 288
     499 00000013 0041          .bits   65,16                   ; _aucCRCHi[19] @ 304
     500 00000014 0000          .bits   0,16                    ; _aucCRCHi[20] @ 320
     501 00000015 00C1          .bits   193,16                  ; _aucCRCHi[21] @ 336
     502 00000016 0081          .bits   129,16                  ; _aucCRCHi[22] @ 352
     503 00000017 0040          .bits   64,16                   ; _aucCRCHi[23] @ 368
     504 00000018 0000          .bits   0,16                    ; _aucCRCHi[24] @ 384
     505 00000019 00C1          .bits   193,16                  ; _aucCRCHi[25] @ 400
     506 0000001a 0081          .bits   129,16                  ; _aucCRCHi[26] @ 416
     507 0000001b 0040          .bits   64,16                   ; _aucCRCHi[27] @ 432
     508 0000001c 0001          .bits   1,16                    ; _aucCRCHi[28] @ 448
     509 0000001d 00C0          .bits   192,16                  ; _aucCRCHi[29] @ 464
     510 0000001e 0080          .bits   128,16                  ; _aucCRCHi[30] @ 480
     511 0000001f 0041          .bits   65,16                   ; _aucCRCHi[31] @ 496
     512 00000020 0001          .bits   1,16                    ; _aucCRCHi[32] @ 512
     513 00000021 00C0          .bits   192,16                  ; _aucCRCHi[33] @ 528
     514 00000022 0080          .bits   128,16                  ; _aucCRCHi[34] @ 544
     515 00000023 0041          .bits   65,16                   ; _aucCRCHi[35] @ 560
     516 00000024 0000          .bits   0,16                    ; _aucCRCHi[36] @ 576
     517 00000025 00C1          .bits   193,16                  ; _aucCRCHi[37] @ 592
     518 00000026 0081          .bits   129,16                  ; _aucCRCHi[38] @ 608
     519 00000027 0040          .bits   64,16                   ; _aucCRCHi[39] @ 624
     520 00000028 0000          .bits   0,16                    ; _aucCRCHi[40] @ 640
     521 00000029 00C1          .bits   193,16                  ; _aucCRCHi[41] @ 656
     522 0000002a 0081          .bits   129,16                  ; _aucCRCHi[42] @ 672
     523 0000002b 0040          .bits   64,16                   ; _aucCRCHi[43] @ 688
     524 0000002c 0001          .bits   1,16                    ; _aucCRCHi[44] @ 704
     525 0000002d 00C0          .bits   192,16                  ; _aucCRCHi[45] @ 720
     526 0000002e 0080          .bits   128,16                  ; _aucCRCHi[46] @ 736
     527 0000002f 0041          .bits   65,16                   ; _aucCRCHi[47] @ 752
     528 00000030 0000          .bits   0,16                    ; _aucCRCHi[48] @ 768
     529 00000031 00C1          .bits   193,16                  ; _aucCRCHi[49] @ 784
     530 00000032 0081          .bits   129,16                  ; _aucCRCHi[50] @ 800
     531 00000033 0040          .bits   64,16                   ; _aucCRCHi[51] @ 816
     532 00000034 0001          .bits   1,16                    ; _aucCRCHi[52] @ 832
     533 00000035 00C0          .bits   192,16                  ; _aucCRCHi[53] @ 848
     534 00000036 0080          .bits   128,16                  ; _aucCRCHi[54] @ 864
     535 00000037 0041          .bits   65,16                   ; _aucCRCHi[55] @ 880
     536 00000038 0001          .bits   1,16                    ; _aucCRCHi[56] @ 896
     537 00000039 00C0          .bits   192,16                  ; _aucCRCHi[57] @ 912
     538 0000003a 0080          .bits   128,16                  ; _aucCRCHi[58] @ 928
     539 0000003b 0041          .bits   65,16                   ; _aucCRCHi[59] @ 944
     540 0000003c 0000          .bits   0,16                    ; _aucCRCHi[60] @ 960
     541 0000003d 00C1          .bits   193,16                  ; _aucCRCHi[61] @ 976
     542 0000003e 0081          .bits   129,16                  ; _aucCRCHi[62] @ 992
     543 0000003f 0040          .bits   64,16                   ; _aucCRCHi[63] @ 1008
     544 00000040 0001          .bits   1,16                    ; _aucCRCHi[64] @ 1024
     545 00000041 00C0          .bits   192,16                  ; _aucCRCHi[65] @ 1040
     546 00000042 0080          .bits   128,16                  ; _aucCRCHi[66] @ 1056
     547 00000043 0041          .bits   65,16                   ; _aucCRCHi[67] @ 1072
     548 00000044 0000          .bits   0,16                    ; _aucCRCHi[68] @ 1088
     549 00000045 00C1          .bits   193,16                  ; _aucCRCHi[69] @ 1104
     550 00000046 0081          .bits   129,16                  ; _aucCRCHi[70] @ 1120
TMS320C2000 Assembler PC v6.2.5 Wed Nov 22 14:48:16 2017

Tools Copyright (c) 1996-2014 Texas Instruments Incorporated
C:\Users\wmj\AppData\Local\Temp\0222411                              PAGE   11

     551 00000047 0040          .bits   64,16                   ; _aucCRCHi[71] @ 1136
     552 00000048 0000          .bits   0,16                    ; _aucCRCHi[72] @ 1152
     553 00000049 00C1          .bits   193,16                  ; _aucCRCHi[73] @ 1168
     554 0000004a 0081          .bits   129,16                  ; _aucCRCHi[74] @ 1184
     555 0000004b 0040          .bits   64,16                   ; _aucCRCHi[75] @ 1200
     556 0000004c 0001          .bits   1,16                    ; _aucCRCHi[76] @ 1216
     557 0000004d 00C0          .bits   192,16                  ; _aucCRCHi[77] @ 1232
     558 0000004e 0080          .bits   128,16                  ; _aucCRCHi[78] @ 1248
     559 0000004f 0041          .bits   65,16                   ; _aucCRCHi[79] @ 1264
     560 00000050 0000          .bits   0,16                    ; _aucCRCHi[80] @ 1280
     561 00000051 00C1          .bits   193,16                  ; _aucCRCHi[81] @ 1296
     562 00000052 0081          .bits   129,16                  ; _aucCRCHi[82] @ 1312
     563 00000053 0040          .bits   64,16                   ; _aucCRCHi[83] @ 1328
     564 00000054 0001          .bits   1,16                    ; _aucCRCHi[84] @ 1344
     565 00000055 00C0          .bits   192,16                  ; _aucCRCHi[85] @ 1360
     566 00000056 0080          .bits   128,16                  ; _aucCRCHi[86] @ 1376
     567 00000057 0041          .bits   65,16                   ; _aucCRCHi[87] @ 1392
     568 00000058 0001          .bits   1,16                    ; _aucCRCHi[88] @ 1408
     569 00000059 00C0          .bits   192,16                  ; _aucCRCHi[89] @ 1424
     570 0000005a 0080          .bits   128,16                  ; _aucCRCHi[90] @ 1440
     571 0000005b 0041          .bits   65,16                   ; _aucCRCHi[91] @ 1456
     572 0000005c 0000          .bits   0,16                    ; _aucCRCHi[92] @ 1472
     573 0000005d 00C1          .bits   193,16                  ; _aucCRCHi[93] @ 1488
     574 0000005e 0081          .bits   129,16                  ; _aucCRCHi[94] @ 1504
     575 0000005f 0040          .bits   64,16                   ; _aucCRCHi[95] @ 1520
     576 00000060 0000          .bits   0,16                    ; _aucCRCHi[96] @ 1536
     577 00000061 00C1          .bits   193,16                  ; _aucCRCHi[97] @ 1552
     578 00000062 0081          .bits   129,16                  ; _aucCRCHi[98] @ 1568
     579 00000063 0040          .bits   64,16                   ; _aucCRCHi[99] @ 1584
     580 00000064 0001          .bits   1,16                    ; _aucCRCHi[100] @ 1600
     581 00000065 00C0          .bits   192,16                  ; _aucCRCHi[101] @ 1616
     582 00000066 0080          .bits   128,16                  ; _aucCRCHi[102] @ 1632
     583 00000067 0041          .bits   65,16                   ; _aucCRCHi[103] @ 1648
     584 00000068 0001          .bits   1,16                    ; _aucCRCHi[104] @ 1664
     585 00000069 00C0          .bits   192,16                  ; _aucCRCHi[105] @ 1680
     586 0000006a 0080          .bits   128,16                  ; _aucCRCHi[106] @ 1696
     587 0000006b 0041          .bits   65,16                   ; _aucCRCHi[107] @ 1712
     588 0000006c 0000          .bits   0,16                    ; _aucCRCHi[108] @ 1728
     589 0000006d 00C1          .bits   193,16                  ; _aucCRCHi[109] @ 1744
     590 0000006e 0081          .bits   129,16                  ; _aucCRCHi[110] @ 1760
     591 0000006f 0040          .bits   64,16                   ; _aucCRCHi[111] @ 1776
     592 00000070 0001          .bits   1,16                    ; _aucCRCHi[112] @ 1792
     593 00000071 00C0          .bits   192,16                  ; _aucCRCHi[113] @ 1808
     594 00000072 0080          .bits   128,16                  ; _aucCRCHi[114] @ 1824
     595 00000073 0041          .bits   65,16                   ; _aucCRCHi[115] @ 1840
     596 00000074 0000          .bits   0,16                    ; _aucCRCHi[116] @ 1856
     597 00000075 00C1          .bits   193,16                  ; _aucCRCHi[117] @ 1872
     598 00000076 0081          .bits   129,16                  ; _aucCRCHi[118] @ 1888
     599 00000077 0040          .bits   64,16                   ; _aucCRCHi[119] @ 1904
     600 00000078 0000          .bits   0,16                    ; _aucCRCHi[120] @ 1920
     601 00000079 00C1          .bits   193,16                  ; _aucCRCHi[121] @ 1936
     602 0000007a 0081          .bits   129,16                  ; _aucCRCHi[122] @ 1952
     603 0000007b 0040          .bits   64,16                   ; _aucCRCHi[123] @ 1968
     604 0000007c 0001          .bits   1,16                    ; _aucCRCHi[124] @ 1984
     605 0000007d 00C0          .bits   192,16                  ; _aucCRCHi[125] @ 2000
TMS320C2000 Assembler PC v6.2.5 Wed Nov 22 14:48:16 2017

Tools Copyright (c) 1996-2014 Texas Instruments Incorporated
C:\Users\wmj\AppData\Local\Temp\0222411                              PAGE   12

     606 0000007e 0080          .bits   128,16                  ; _aucCRCHi[126] @ 2016
     607 0000007f 0041          .bits   65,16                   ; _aucCRCHi[127] @ 2032
     608 00000080 0001          .bits   1,16                    ; _aucCRCHi[128] @ 2048
     609 00000081 00C0          .bits   192,16                  ; _aucCRCHi[129] @ 2064
     610 00000082 0080          .bits   128,16                  ; _aucCRCHi[130] @ 2080
     611 00000083 0041          .bits   65,16                   ; _aucCRCHi[131] @ 2096
     612 00000084 0000          .bits   0,16                    ; _aucCRCHi[132] @ 2112
     613 00000085 00C1          .bits   193,16                  ; _aucCRCHi[133] @ 2128
     614 00000086 0081          .bits   129,16                  ; _aucCRCHi[134] @ 2144
     615 00000087 0040          .bits   64,16                   ; _aucCRCHi[135] @ 2160
     616 00000088 0000          .bits   0,16                    ; _aucCRCHi[136] @ 2176
     617 00000089 00C1          .bits   193,16                  ; _aucCRCHi[137] @ 2192
     618 0000008a 0081          .bits   129,16                  ; _aucCRCHi[138] @ 2208
     619 0000008b 0040          .bits   64,16                   ; _aucCRCHi[139] @ 2224
     620 0000008c 0001          .bits   1,16                    ; _aucCRCHi[140] @ 2240
     621 0000008d 00C0          .bits   192,16                  ; _aucCRCHi[141] @ 2256
     622 0000008e 0080          .bits   128,16                  ; _aucCRCHi[142] @ 2272
     623 0000008f 0041          .bits   65,16                   ; _aucCRCHi[143] @ 2288
     624 00000090 0000          .bits   0,16                    ; _aucCRCHi[144] @ 2304
     625 00000091 00C1          .bits   193,16                  ; _aucCRCHi[145] @ 2320
     626 00000092 0081          .bits   129,16                  ; _aucCRCHi[146] @ 2336
     627 00000093 0040          .bits   64,16                   ; _aucCRCHi[147] @ 2352
     628 00000094 0001          .bits   1,16                    ; _aucCRCHi[148] @ 2368
     629 00000095 00C0          .bits   192,16                  ; _aucCRCHi[149] @ 2384
     630 00000096 0080          .bits   128,16                  ; _aucCRCHi[150] @ 2400
     631 00000097 0041          .bits   65,16                   ; _aucCRCHi[151] @ 2416
     632 00000098 0001          .bits   1,16                    ; _aucCRCHi[152] @ 2432
     633 00000099 00C0          .bits   192,16                  ; _aucCRCHi[153] @ 2448
     634 0000009a 0080          .bits   128,16                  ; _aucCRCHi[154] @ 2464
     635 0000009b 0041          .bits   65,16                   ; _aucCRCHi[155] @ 2480
     636 0000009c 0000          .bits   0,16                    ; _aucCRCHi[156] @ 2496
     637 0000009d 00C1          .bits   193,16                  ; _aucCRCHi[157] @ 2512
     638 0000009e 0081          .bits   129,16                  ; _aucCRCHi[158] @ 2528
     639 0000009f 0040          .bits   64,16                   ; _aucCRCHi[159] @ 2544
     640 000000a0 0000          .bits   0,16                    ; _aucCRCHi[160] @ 2560
     641 000000a1 00C1          .bits   193,16                  ; _aucCRCHi[161] @ 2576
     642 000000a2 0081          .bits   129,16                  ; _aucCRCHi[162] @ 2592
     643 000000a3 0040          .bits   64,16                   ; _aucCRCHi[163] @ 2608
     644 000000a4 0001          .bits   1,16                    ; _aucCRCHi[164] @ 2624
     645 000000a5 00C0          .bits   192,16                  ; _aucCRCHi[165] @ 2640
     646 000000a6 0080          .bits   128,16                  ; _aucCRCHi[166] @ 2656
     647 000000a7 0041          .bits   65,16                   ; _aucCRCHi[167] @ 2672
     648 000000a8 0001          .bits   1,16                    ; _aucCRCHi[168] @ 2688
     649 000000a9 00C0          .bits   192,16                  ; _aucCRCHi[169] @ 2704
     650 000000aa 0080          .bits   128,16                  ; _aucCRCHi[170] @ 2720
     651 000000ab 0041          .bits   65,16                   ; _aucCRCHi[171] @ 2736
     652 000000ac 0000          .bits   0,16                    ; _aucCRCHi[172] @ 2752
     653 000000ad 00C1          .bits   193,16                  ; _aucCRCHi[173] @ 2768
     654 000000ae 0081          .bits   129,16                  ; _aucCRCHi[174] @ 2784
     655 000000af 0040          .bits   64,16                   ; _aucCRCHi[175] @ 2800
     656 000000b0 0001          .bits   1,16                    ; _aucCRCHi[176] @ 2816
     657 000000b1 00C0          .bits   192,16                  ; _aucCRCHi[177] @ 2832
     658 000000b2 0080          .bits   128,16                  ; _aucCRCHi[178] @ 2848
     659 000000b3 0041          .bits   65,16                   ; _aucCRCHi[179] @ 2864
     660 000000b4 0000          .bits   0,16                    ; _aucCRCHi[180] @ 2880
TMS320C2000 Assembler PC v6.2.5 Wed Nov 22 14:48:16 2017

Tools Copyright (c) 1996-2014 Texas Instruments Incorporated
C:\Users\wmj\AppData\Local\Temp\0222411                              PAGE   13

     661 000000b5 00C1          .bits   193,16                  ; _aucCRCHi[181] @ 2896
     662 000000b6 0081          .bits   129,16                  ; _aucCRCHi[182] @ 2912
     663 000000b7 0040          .bits   64,16                   ; _aucCRCHi[183] @ 2928
     664 000000b8 0000          .bits   0,16                    ; _aucCRCHi[184] @ 2944
     665 000000b9 00C1          .bits   193,16                  ; _aucCRCHi[185] @ 2960
     666 000000ba 0081          .bits   129,16                  ; _aucCRCHi[186] @ 2976
     667 000000bb 0040          .bits   64,16                   ; _aucCRCHi[187] @ 2992
     668 000000bc 0001          .bits   1,16                    ; _aucCRCHi[188] @ 3008
     669 000000bd 00C0          .bits   192,16                  ; _aucCRCHi[189] @ 3024
     670 000000be 0080          .bits   128,16                  ; _aucCRCHi[190] @ 3040
     671 000000bf 0041          .bits   65,16                   ; _aucCRCHi[191] @ 3056
     672 000000c0 0000          .bits   0,16                    ; _aucCRCHi[192] @ 3072
     673 000000c1 00C1          .bits   193,16                  ; _aucCRCHi[193] @ 3088
     674 000000c2 0081          .bits   129,16                  ; _aucCRCHi[194] @ 3104
     675 000000c3 0040          .bits   64,16                   ; _aucCRCHi[195] @ 3120
     676 000000c4 0001          .bits   1,16                    ; _aucCRCHi[196] @ 3136
     677 000000c5 00C0          .bits   192,16                  ; _aucCRCHi[197] @ 3152
     678 000000c6 0080          .bits   128,16                  ; _aucCRCHi[198] @ 3168
     679 000000c7 0041          .bits   65,16                   ; _aucCRCHi[199] @ 3184
     680 000000c8 0001          .bits   1,16                    ; _aucCRCHi[200] @ 3200
     681 000000c9 00C0          .bits   192,16                  ; _aucCRCHi[201] @ 3216
     682 000000ca 0080          .bits   128,16                  ; _aucCRCHi[202] @ 3232
     683 000000cb 0041          .bits   65,16                   ; _aucCRCHi[203] @ 3248
     684 000000cc 0000          .bits   0,16                    ; _aucCRCHi[204] @ 3264
     685 000000cd 00C1          .bits   193,16                  ; _aucCRCHi[205] @ 3280
     686 000000ce 0081          .bits   129,16                  ; _aucCRCHi[206] @ 3296
     687 000000cf 0040          .bits   64,16                   ; _aucCRCHi[207] @ 3312
     688 000000d0 0001          .bits   1,16                    ; _aucCRCHi[208] @ 3328
     689 000000d1 00C0          .bits   192,16                  ; _aucCRCHi[209] @ 3344
     690 000000d2 0080          .bits   128,16                  ; _aucCRCHi[210] @ 3360
     691 000000d3 0041          .bits   65,16                   ; _aucCRCHi[211] @ 3376
     692 000000d4 0000          .bits   0,16                    ; _aucCRCHi[212] @ 3392
     693 000000d5 00C1          .bits   193,16                  ; _aucCRCHi[213] @ 3408
     694 000000d6 0081          .bits   129,16                  ; _aucCRCHi[214] @ 3424
     695 000000d7 0040          .bits   64,16                   ; _aucCRCHi[215] @ 3440
     696 000000d8 0000          .bits   0,16                    ; _aucCRCHi[216] @ 3456
     697 000000d9 00C1          .bits   193,16                  ; _aucCRCHi[217] @ 3472
     698 000000da 0081          .bits   129,16                  ; _aucCRCHi[218] @ 3488
     699 000000db 0040          .bits   64,16                   ; _aucCRCHi[219] @ 3504
     700 000000dc 0001          .bits   1,16                    ; _aucCRCHi[220] @ 3520
     701 000000dd 00C0          .bits   192,16                  ; _aucCRCHi[221] @ 3536
     702 000000de 0080          .bits   128,16                  ; _aucCRCHi[222] @ 3552
     703 000000df 0041          .bits   65,16                   ; _aucCRCHi[223] @ 3568
     704 000000e0 0001          .bits   1,16                    ; _aucCRCHi[224] @ 3584
     705 000000e1 00C0          .bits   192,16                  ; _aucCRCHi[225] @ 3600
     706 000000e2 0080          .bits   128,16                  ; _aucCRCHi[226] @ 3616
     707 000000e3 0041          .bits   65,16                   ; _aucCRCHi[227] @ 3632
     708 000000e4 0000          .bits   0,16                    ; _aucCRCHi[228] @ 3648
     709 000000e5 00C1          .bits   193,16                  ; _aucCRCHi[229] @ 3664
     710 000000e6 0081          .bits   129,16                  ; _aucCRCHi[230] @ 3680
     711 000000e7 0040          .bits   64,16                   ; _aucCRCHi[231] @ 3696
     712 000000e8 0000          .bits   0,16                    ; _aucCRCHi[232] @ 3712
     713 000000e9 00C1          .bits   193,16                  ; _aucCRCHi[233] @ 3728
     714 000000ea 0081          .bits   129,16                  ; _aucCRCHi[234] @ 3744
     715 000000eb 0040          .bits   64,16                   ; _aucCRCHi[235] @ 3760
TMS320C2000 Assembler PC v6.2.5 Wed Nov 22 14:48:16 2017

Tools Copyright (c) 1996-2014 Texas Instruments Incorporated
C:\Users\wmj\AppData\Local\Temp\0222411                              PAGE   14

     716 000000ec 0001          .bits   1,16                    ; _aucCRCHi[236] @ 3776
     717 000000ed 00C0          .bits   192,16                  ; _aucCRCHi[237] @ 3792
     718 000000ee 0080          .bits   128,16                  ; _aucCRCHi[238] @ 3808
     719 000000ef 0041          .bits   65,16                   ; _aucCRCHi[239] @ 3824
     720 000000f0 0000          .bits   0,16                    ; _aucCRCHi[240] @ 3840
     721 000000f1 00C1          .bits   193,16                  ; _aucCRCHi[241] @ 3856
     722 000000f2 0081          .bits   129,16                  ; _aucCRCHi[242] @ 3872
     723 000000f3 0040          .bits   64,16                   ; _aucCRCHi[243] @ 3888
     724 000000f4 0001          .bits   1,16                    ; _aucCRCHi[244] @ 3904
     725 000000f5 00C0          .bits   192,16                  ; _aucCRCHi[245] @ 3920
     726 000000f6 0080          .bits   128,16                  ; _aucCRCHi[246] @ 3936
     727 000000f7 0041          .bits   65,16                   ; _aucCRCHi[247] @ 3952
     728 000000f8 0001          .bits   1,16                    ; _aucCRCHi[248] @ 3968
     729 000000f9 00C0          .bits   192,16                  ; _aucCRCHi[249] @ 3984
     730 000000fa 0080          .bits   128,16                  ; _aucCRCHi[250] @ 4000
     731 000000fb 0041          .bits   65,16                   ; _aucCRCHi[251] @ 4016
     732 000000fc 0000          .bits   0,16                    ; _aucCRCHi[252] @ 4032
     733 000000fd 00C1          .bits   193,16                  ; _aucCRCHi[253] @ 4048
     734 000000fe 0081          .bits   129,16                  ; _aucCRCHi[254] @ 4064
     735 000000ff 0040          .bits   64,16                   ; _aucCRCHi[255] @ 4080
     736              
     737              $C$DW$48        .dwtag  DW_TAG_variable, DW_AT_name("aucCRCHi")
     738                      .dwattr $C$DW$48, DW_AT_TI_symbol_name("_aucCRCHi")
     739                      .dwattr $C$DW$48, DW_AT_location[DW_OP_addr _aucCRCHi]
     740                      .dwattr $C$DW$48, DW_AT_type(*$C$DW$T$260)
     741                      .dwattr $C$DW$48, DW_AT_external
     742              ;       C:\ti\ccsv6\tools\compiler\c2000_6.2.5\bin\opt2000.exe C:\\Users\\wmj\\AppData\\Local\\Temp\\022243 C
     743              ;       C:\ti\ccsv6\tools\compiler\c2000_6.2.5\bin\ac2000.exe -@C:\\Users\\wmj\\AppData\\Local\\Temp\\0222417
     744 00000000               .sect   ".text"
     745                      .clink
     746                      .global _MB_setTimHandle
     747              
     748              $C$DW$49        .dwtag  DW_TAG_subprogram, DW_AT_name("MB_setTimHandle")
     749                      .dwattr $C$DW$49, DW_AT_low_pc(_MB_setTimHandle)
     750                      .dwattr $C$DW$49, DW_AT_high_pc(0x00)
     751                      .dwattr $C$DW$49, DW_AT_TI_symbol_name("_MB_setTimHandle")
     752                      .dwattr $C$DW$49, DW_AT_external
     753                      .dwattr $C$DW$49, DW_AT_TI_begin_file("D:/BM1000_v1.1/sw/drivers/drvic/modbus/mb.c")
     754                      .dwattr $C$DW$49, DW_AT_TI_begin_line(0x63)
     755                      .dwattr $C$DW$49, DW_AT_TI_begin_column(0x06)
     756                      .dwattr $C$DW$49, DW_AT_TI_max_frame_size(-2)
     757                      .dwpsn  file "D:/BM1000_v1.1/sw/drivers/drvic/modbus/mb.c",line 100,column 1,is_stmt,address _MB_setT
     758              
     759                      .dwfde $C$DW$CIE, _MB_setTimHandle
     760              $C$DW$50        .dwtag  DW_TAG_formal_parameter, DW_AT_name("handle")
     761                      .dwattr $C$DW$50, DW_AT_TI_symbol_name("_handle")
     762                      .dwattr $C$DW$50, DW_AT_type(*$C$DW$T$178)
     763                      .dwattr $C$DW$50, DW_AT_location[DW_OP_reg12]
     764              $C$DW$51        .dwtag  DW_TAG_formal_parameter, DW_AT_name("timerHandle")
     765                      .dwattr $C$DW$51, DW_AT_TI_symbol_name("_timerHandle")
     766                      .dwattr $C$DW$51, DW_AT_type(*$C$DW$T$106)
     767                      .dwattr $C$DW$51, DW_AT_location[DW_OP_reg14]
     768              
     769              ;***************************************************************
     770              ;* FNAME: _MB_setTimHandle              FR SIZE:   0           *
TMS320C2000 Assembler PC v6.2.5 Wed Nov 22 14:48:16 2017

Tools Copyright (c) 1996-2014 Texas Instruments Incorporated
C:\Users\wmj\AppData\Local\Temp\0222411                              PAGE   15

     771              ;*                                                             *
     772              ;* FUNCTION ENVIRONMENT                                        *
     773              ;*                                                             *
     774              ;* FUNCTION PROPERTIES                                         *
     775              ;*                            0 Parameter,  0 Auto,  0 SOE     *
     776              ;***************************************************************
     777              
     778              _MB_setTimHandle:
     779              ;* AR4   assigned to _handle
     780              $C$DW$52        .dwtag  DW_TAG_variable, DW_AT_name("handle")
     781                      .dwattr $C$DW$52, DW_AT_TI_symbol_name("_handle")
     782                      .dwattr $C$DW$52, DW_AT_type(*$C$DW$T$200)
     783                      .dwattr $C$DW$52, DW_AT_location[DW_OP_reg12]
     784              ;* AR5   assigned to _timerHandle
     785              $C$DW$53        .dwtag  DW_TAG_variable, DW_AT_name("timerHandle")
     786                      .dwattr $C$DW$53, DW_AT_TI_symbol_name("_timerHandle")
     787                      .dwattr $C$DW$53, DW_AT_type(*$C$DW$T$212)
     788                      .dwattr $C$DW$53, DW_AT_location[DW_OP_reg14]
     789                      .dwcfi  cfa_offset, -2
     790                      .dwcfi  save_reg_to_mem, 26, 0
     791                      .dwcfi  save_reg_to_reg, 78, 26
     792                      .dwpsn  file "D:/BM1000_v1.1/sw/drivers/drvic/modbus/mb.c",line 103,column 4,is_stmt
     793 00000000 A0F4          MOVL      *+XAR4[6],XAR5        ; [CPU_] |103| 
     794              $C$DW$54        .dwtag  DW_TAG_TI_branch
     795                      .dwattr $C$DW$54, DW_AT_low_pc(0x00)
     796                      .dwattr $C$DW$54, DW_AT_TI_return
     797 00000001 0006          LRETR     ; [CPU_] 
     798                      ; return occurs ; [] 
     799                      .dwattr $C$DW$49, DW_AT_TI_end_file("D:/BM1000_v1.1/sw/drivers/drvic/modbus/mb.c")
     800                      .dwattr $C$DW$49, DW_AT_TI_end_line(0x6a)
     801                      .dwattr $C$DW$49, DW_AT_TI_end_column(0x01)
     802                      .dwendentry
     803                      .dwendtag $C$DW$49
     804              
     805 00000002               .sect   ".text"
     806                      .clink
     807                      .global _MB_setSciHandle
     808              
     809              $C$DW$55        .dwtag  DW_TAG_subprogram, DW_AT_name("MB_setSciHandle")
     810                      .dwattr $C$DW$55, DW_AT_low_pc(_MB_setSciHandle)
     811                      .dwattr $C$DW$55, DW_AT_high_pc(0x00)
     812                      .dwattr $C$DW$55, DW_AT_TI_symbol_name("_MB_setSciHandle")
     813                      .dwattr $C$DW$55, DW_AT_external
     814                      .dwattr $C$DW$55, DW_AT_TI_begin_file("D:/BM1000_v1.1/sw/drivers/drvic/modbus/mb.c")
     815                      .dwattr $C$DW$55, DW_AT_TI_begin_line(0x5a)
     816                      .dwattr $C$DW$55, DW_AT_TI_begin_column(0x06)
     817                      .dwattr $C$DW$55, DW_AT_TI_max_frame_size(-2)
     818                      .dwpsn  file "D:/BM1000_v1.1/sw/drivers/drvic/modbus/mb.c",line 91,column 1,is_stmt,address _MB_setSc
     819              
     820                      .dwfde $C$DW$CIE, _MB_setSciHandle
     821              $C$DW$56        .dwtag  DW_TAG_formal_parameter, DW_AT_name("handle")
     822                      .dwattr $C$DW$56, DW_AT_TI_symbol_name("_handle")
     823                      .dwattr $C$DW$56, DW_AT_type(*$C$DW$T$178)
     824                      .dwattr $C$DW$56, DW_AT_location[DW_OP_reg12]
     825              $C$DW$57        .dwtag  DW_TAG_formal_parameter, DW_AT_name("sciHandle")
TMS320C2000 Assembler PC v6.2.5 Wed Nov 22 14:48:16 2017

Tools Copyright (c) 1996-2014 Texas Instruments Incorporated
C:\Users\wmj\AppData\Local\Temp\0222411                              PAGE   16

     826                      .dwattr $C$DW$57, DW_AT_TI_symbol_name("_sciHandle")
     827                      .dwattr $C$DW$57, DW_AT_type(*$C$DW$T$113)
     828                      .dwattr $C$DW$57, DW_AT_location[DW_OP_reg14]
     829              
     830              ;***************************************************************
     831              ;* FNAME: _MB_setSciHandle              FR SIZE:   0           *
     832              ;*                                                             *
     833              ;* FUNCTION ENVIRONMENT                                        *
     834              ;*                                                             *
     835              ;* FUNCTION PROPERTIES                                         *
     836              ;*                            0 Parameter,  0 Auto,  0 SOE     *
     837              ;***************************************************************
     838              
     839              _MB_setSciHandle:
     840              ;* AR4   assigned to _handle
     841              $C$DW$58        .dwtag  DW_TAG_variable, DW_AT_name("handle")
     842                      .dwattr $C$DW$58, DW_AT_TI_symbol_name("_handle")
     843                      .dwattr $C$DW$58, DW_AT_type(*$C$DW$T$200)
     844                      .dwattr $C$DW$58, DW_AT_location[DW_OP_reg12]
     845              ;* AR5   assigned to _sciHandle
     846              $C$DW$59        .dwtag  DW_TAG_variable, DW_AT_name("sciHandle")
     847                      .dwattr $C$DW$59, DW_AT_TI_symbol_name("_sciHandle")
     848                      .dwattr $C$DW$59, DW_AT_type(*$C$DW$T$209)
     849                      .dwattr $C$DW$59, DW_AT_location[DW_OP_reg14]
     850                      .dwcfi  cfa_offset, -2
     851                      .dwcfi  save_reg_to_mem, 26, 0
     852                      .dwcfi  save_reg_to_reg, 78, 26
     853                      .dwpsn  file "D:/BM1000_v1.1/sw/drivers/drvic/modbus/mb.c",line 94,column 4,is_stmt
     854 00000002 D008          MOVB      XAR0,#8               ; [CPU_] |94| 
     855 00000003 A094          MOVL      *+XAR4[AR0],XAR5      ; [CPU_] |94| 
     856              $C$DW$60        .dwtag  DW_TAG_TI_branch
     857                      .dwattr $C$DW$60, DW_AT_low_pc(0x00)
     858                      .dwattr $C$DW$60, DW_AT_TI_return
     859 00000004 0006          LRETR     ; [CPU_] 
     860                      ; return occurs ; [] 
     861                      .dwattr $C$DW$55, DW_AT_TI_end_file("D:/BM1000_v1.1/sw/drivers/drvic/modbus/mb.c")
     862                      .dwattr $C$DW$55, DW_AT_TI_end_line(0x61)
     863                      .dwattr $C$DW$55, DW_AT_TI_end_column(0x01)
     864                      .dwendentry
     865                      .dwendtag $C$DW$55
     866              
     867 00000005               .sect   ".text"
     868                      .clink
     869                      .global _MB_setMotorHandle
     870              
     871              $C$DW$61        .dwtag  DW_TAG_subprogram, DW_AT_name("MB_setMotorHandle")
     872                      .dwattr $C$DW$61, DW_AT_low_pc(_MB_setMotorHandle)
     873                      .dwattr $C$DW$61, DW_AT_high_pc(0x00)
     874                      .dwattr $C$DW$61, DW_AT_TI_symbol_name("_MB_setMotorHandle")
     875                      .dwattr $C$DW$61, DW_AT_external
     876                      .dwattr $C$DW$61, DW_AT_TI_begin_file("D:/BM1000_v1.1/sw/drivers/drvic/modbus/mb.c")
     877                      .dwattr $C$DW$61, DW_AT_TI_begin_line(0x75)
     878                      .dwattr $C$DW$61, DW_AT_TI_begin_column(0x06)
     879                      .dwattr $C$DW$61, DW_AT_TI_max_frame_size(-2)
     880                      .dwpsn  file "D:/BM1000_v1.1/sw/drivers/drvic/modbus/mb.c",line 118,column 1,is_stmt,address _MB_setM
TMS320C2000 Assembler PC v6.2.5 Wed Nov 22 14:48:16 2017

Tools Copyright (c) 1996-2014 Texas Instruments Incorporated
C:\Users\wmj\AppData\Local\Temp\0222411                              PAGE   17

     881              
     882                      .dwfde $C$DW$CIE, _MB_setMotorHandle
     883              $C$DW$62        .dwtag  DW_TAG_formal_parameter, DW_AT_name("handle")
     884                      .dwattr $C$DW$62, DW_AT_TI_symbol_name("_handle")
     885                      .dwattr $C$DW$62, DW_AT_type(*$C$DW$T$178)
     886                      .dwattr $C$DW$62, DW_AT_location[DW_OP_reg12]
     887              $C$DW$63        .dwtag  DW_TAG_formal_parameter, DW_AT_name("motorHandle")
     888                      .dwattr $C$DW$63, DW_AT_TI_symbol_name("_motorHandle")
     889                      .dwattr $C$DW$63, DW_AT_type(*$C$DW$T$41)
     890                      .dwattr $C$DW$63, DW_AT_location[DW_OP_reg14]
     891              
     892              ;***************************************************************
     893              ;* FNAME: _MB_setMotorHandle            FR SIZE:   0           *
     894              ;*                                                             *
     895              ;* FUNCTION ENVIRONMENT                                        *
     896              ;*                                                             *
     897              ;* FUNCTION PROPERTIES                                         *
     898              ;*                            0 Parameter,  0 Auto,  0 SOE     *
     899              ;***************************************************************
     900              
     901              _MB_setMotorHandle:
     902              ;* AR4   assigned to _handle
     903              $C$DW$64        .dwtag  DW_TAG_variable, DW_AT_name("handle")
     904                      .dwattr $C$DW$64, DW_AT_TI_symbol_name("_handle")
     905                      .dwattr $C$DW$64, DW_AT_type(*$C$DW$T$200)
     906                      .dwattr $C$DW$64, DW_AT_location[DW_OP_reg12]
     907              ;* AR5   assigned to _motorHandle
     908              $C$DW$65        .dwtag  DW_TAG_variable, DW_AT_name("motorHandle")
     909                      .dwattr $C$DW$65, DW_AT_TI_symbol_name("_motorHandle")
     910                      .dwattr $C$DW$65, DW_AT_type(*$C$DW$T$207)
     911                      .dwattr $C$DW$65, DW_AT_location[DW_OP_reg14]
     912                      .dwcfi  cfa_offset, -2
     913                      .dwcfi  save_reg_to_mem, 26, 0
     914                      .dwcfi  save_reg_to_reg, 78, 26
     915                      .dwpsn  file "D:/BM1000_v1.1/sw/drivers/drvic/modbus/mb.c",line 121,column 3,is_stmt
     916 00000005 A0C4          MOVL      *+XAR4[0],XAR5        ; [CPU_] |121| 
     917              $C$DW$66        .dwtag  DW_TAG_TI_branch
     918                      .dwattr $C$DW$66, DW_AT_low_pc(0x00)
     919                      .dwattr $C$DW$66, DW_AT_TI_return
     920 00000006 0006          LRETR     ; [CPU_] 
     921                      ; return occurs ; [] 
     922                      .dwattr $C$DW$61, DW_AT_TI_end_file("D:/BM1000_v1.1/sw/drivers/drvic/modbus/mb.c")
     923                      .dwattr $C$DW$61, DW_AT_TI_end_line(0x7c)
     924                      .dwattr $C$DW$61, DW_AT_TI_end_column(0x01)
     925                      .dwendentry
     926                      .dwendtag $C$DW$61
     927              
     928 00000007               .sect   ".text"
     929                      .clink
     930                      .global _MB_setGpioHandle
     931              
     932              $C$DW$67        .dwtag  DW_TAG_subprogram, DW_AT_name("MB_setGpioHandle")
     933                      .dwattr $C$DW$67, DW_AT_low_pc(_MB_setGpioHandle)
     934                      .dwattr $C$DW$67, DW_AT_high_pc(0x00)
     935                      .dwattr $C$DW$67, DW_AT_TI_symbol_name("_MB_setGpioHandle")
TMS320C2000 Assembler PC v6.2.5 Wed Nov 22 14:48:16 2017

Tools Copyright (c) 1996-2014 Texas Instruments Incorporated
C:\Users\wmj\AppData\Local\Temp\0222411                              PAGE   18

     936                      .dwattr $C$DW$67, DW_AT_external
     937                      .dwattr $C$DW$67, DW_AT_TI_begin_file("D:/BM1000_v1.1/sw/drivers/drvic/modbus/mb.c")
     938                      .dwattr $C$DW$67, DW_AT_TI_begin_line(0x6c)
     939                      .dwattr $C$DW$67, DW_AT_TI_begin_column(0x06)
     940                      .dwattr $C$DW$67, DW_AT_TI_max_frame_size(-2)
     941                      .dwpsn  file "D:/BM1000_v1.1/sw/drivers/drvic/modbus/mb.c",line 109,column 1,is_stmt,address _MB_setG
     942              
     943                      .dwfde $C$DW$CIE, _MB_setGpioHandle
     944              $C$DW$68        .dwtag  DW_TAG_formal_parameter, DW_AT_name("handle")
     945                      .dwattr $C$DW$68, DW_AT_TI_symbol_name("_handle")
     946                      .dwattr $C$DW$68, DW_AT_type(*$C$DW$T$178)
     947                      .dwattr $C$DW$68, DW_AT_location[DW_OP_reg12]
     948              $C$DW$69        .dwtag  DW_TAG_formal_parameter, DW_AT_name("gpioHandle")
     949                      .dwattr $C$DW$69, DW_AT_TI_symbol_name("_gpioHandle")
     950                      .dwattr $C$DW$69, DW_AT_type(*$C$DW$T$88)
     951                      .dwattr $C$DW$69, DW_AT_location[DW_OP_reg14]
     952              
     953              ;***************************************************************
     954              ;* FNAME: _MB_setGpioHandle             FR SIZE:   0           *
     955              ;*                                                             *
     956              ;* FUNCTION ENVIRONMENT                                        *
     957              ;*                                                             *
     958              ;* FUNCTION PROPERTIES                                         *
     959              ;*                            0 Parameter,  0 Auto,  0 SOE     *
     960              ;***************************************************************
     961              
     962              _MB_setGpioHandle:
     963              ;* AR4   assigned to _handle
     964              $C$DW$70        .dwtag  DW_TAG_variable, DW_AT_name("handle")
     965                      .dwattr $C$DW$70, DW_AT_TI_symbol_name("_handle")
     966                      .dwattr $C$DW$70, DW_AT_type(*$C$DW$T$200)
     967                      .dwattr $C$DW$70, DW_AT_location[DW_OP_reg12]
     968              ;* AR5   assigned to _gpioHandle
     969              $C$DW$71        .dwtag  DW_TAG_variable, DW_AT_name("gpioHandle")
     970                      .dwattr $C$DW$71, DW_AT_TI_symbol_name("_gpioHandle")
     971                      .dwattr $C$DW$71, DW_AT_type(*$C$DW$T$197)
     972                      .dwattr $C$DW$71, DW_AT_location[DW_OP_reg14]
     973                      .dwcfi  cfa_offset, -2
     974                      .dwcfi  save_reg_to_mem, 26, 0
     975                      .dwcfi  save_reg_to_reg, 78, 26
     976                      .dwpsn  file "D:/BM1000_v1.1/sw/drivers/drvic/modbus/mb.c",line 112,column 4,is_stmt
     977 00000007 A0E4          MOVL      *+XAR4[4],XAR5        ; [CPU_] |112| 
     978              $C$DW$72        .dwtag  DW_TAG_TI_branch
     979                      .dwattr $C$DW$72, DW_AT_low_pc(0x00)
     980                      .dwattr $C$DW$72, DW_AT_TI_return
     981 00000008 0006          LRETR     ; [CPU_] 
     982                      ; return occurs ; [] 
     983                      .dwattr $C$DW$67, DW_AT_TI_end_file("D:/BM1000_v1.1/sw/drivers/drvic/modbus/mb.c")
     984                      .dwattr $C$DW$67, DW_AT_TI_end_line(0x73)
     985                      .dwattr $C$DW$67, DW_AT_TI_end_column(0x01)
     986                      .dwendentry
     987                      .dwendtag $C$DW$67
     988              
     989 00000009               .sect   ".text"
     990                      .clink
TMS320C2000 Assembler PC v6.2.5 Wed Nov 22 14:48:16 2017

Tools Copyright (c) 1996-2014 Texas Instruments Incorporated
C:\Users\wmj\AppData\Local\Temp\0222411                              PAGE   19

     991                      .global _MB_setFsmHandle
     992              
     993              $C$DW$73        .dwtag  DW_TAG_subprogram, DW_AT_name("MB_setFsmHandle")
     994                      .dwattr $C$DW$73, DW_AT_low_pc(_MB_setFsmHandle)
     995                      .dwattr $C$DW$73, DW_AT_high_pc(0x00)
     996                      .dwattr $C$DW$73, DW_AT_TI_symbol_name("_MB_setFsmHandle")
     997                      .dwattr $C$DW$73, DW_AT_external
     998                      .dwattr $C$DW$73, DW_AT_TI_begin_file("D:/BM1000_v1.1/sw/drivers/drvic/modbus/mb.c")
     999                      .dwattr $C$DW$73, DW_AT_TI_begin_line(0x7e)
    1000                      .dwattr $C$DW$73, DW_AT_TI_begin_column(0x06)
    1001                      .dwattr $C$DW$73, DW_AT_TI_max_frame_size(-2)
    1002                      .dwpsn  file "D:/BM1000_v1.1/sw/drivers/drvic/modbus/mb.c",line 127,column 1,is_stmt,address _MB_setF
    1003              
    1004                      .dwfde $C$DW$CIE, _MB_setFsmHandle
    1005              $C$DW$74        .dwtag  DW_TAG_formal_parameter, DW_AT_name("handle")
    1006                      .dwattr $C$DW$74, DW_AT_TI_symbol_name("_handle")
    1007                      .dwattr $C$DW$74, DW_AT_type(*$C$DW$T$178)
    1008                      .dwattr $C$DW$74, DW_AT_location[DW_OP_reg12]
    1009              $C$DW$75        .dwtag  DW_TAG_formal_parameter, DW_AT_name("fsmHandle")
    1010                      .dwattr $C$DW$75, DW_AT_TI_symbol_name("_fsmHandle")
    1011                      .dwattr $C$DW$75, DW_AT_type(*$C$DW$T$121)
    1012                      .dwattr $C$DW$75, DW_AT_location[DW_OP_reg14]
    1013              
    1014              ;***************************************************************
    1015              ;* FNAME: _MB_setFsmHandle              FR SIZE:   0           *
    1016              ;*                                                             *
    1017              ;* FUNCTION ENVIRONMENT                                        *
    1018              ;*                                                             *
    1019              ;* FUNCTION PROPERTIES                                         *
    1020              ;*                            0 Parameter,  0 Auto,  0 SOE     *
    1021              ;***************************************************************
    1022              
    1023              _MB_setFsmHandle:
    1024              ;* AR4   assigned to _handle
    1025              $C$DW$76        .dwtag  DW_TAG_variable, DW_AT_name("handle")
    1026                      .dwattr $C$DW$76, DW_AT_TI_symbol_name("_handle")
    1027                      .dwattr $C$DW$76, DW_AT_type(*$C$DW$T$200)
    1028                      .dwattr $C$DW$76, DW_AT_location[DW_OP_reg12]
    1029              ;* AR5   assigned to _fsmHandle
    1030              $C$DW$77        .dwtag  DW_TAG_variable, DW_AT_name("fsmHandle")
    1031                      .dwattr $C$DW$77, DW_AT_TI_symbol_name("_fsmHandle")
    1032                      .dwattr $C$DW$77, DW_AT_type(*$C$DW$T$195)
    1033                      .dwattr $C$DW$77, DW_AT_location[DW_OP_reg14]
    1034                      .dwcfi  cfa_offset, -2
    1035                      .dwcfi  save_reg_to_mem, 26, 0
    1036                      .dwcfi  save_reg_to_reg, 78, 26
    1037                      .dwpsn  file "D:/BM1000_v1.1/sw/drivers/drvic/modbus/mb.c",line 130,column 3,is_stmt
    1038 00000009 A0D4          MOVL      *+XAR4[2],XAR5        ; [CPU_] |130| 
    1039              $C$DW$78        .dwtag  DW_TAG_TI_branch
    1040                      .dwattr $C$DW$78, DW_AT_low_pc(0x00)
    1041                      .dwattr $C$DW$78, DW_AT_TI_return
    1042 0000000a 0006          LRETR     ; [CPU_] 
    1043                      ; return occurs ; [] 
    1044                      .dwattr $C$DW$73, DW_AT_TI_end_file("D:/BM1000_v1.1/sw/drivers/drvic/modbus/mb.c")
    1045                      .dwattr $C$DW$73, DW_AT_TI_end_line(0x85)
TMS320C2000 Assembler PC v6.2.5 Wed Nov 22 14:48:16 2017

Tools Copyright (c) 1996-2014 Texas Instruments Incorporated
C:\Users\wmj\AppData\Local\Temp\0222411                              PAGE   20

    1046                      .dwattr $C$DW$73, DW_AT_TI_end_column(0x01)
    1047                      .dwendentry
    1048                      .dwendtag $C$DW$73
    1049              
    1050 0000000b               .sect   ".text"
    1051                      .clink
    1052                      .global _MB_init
    1053              
    1054              $C$DW$79        .dwtag  DW_TAG_subprogram, DW_AT_name("MB_init")
    1055                      .dwattr $C$DW$79, DW_AT_low_pc(_MB_init)
    1056                      .dwattr $C$DW$79, DW_AT_high_pc(0x00)
    1057                      .dwattr $C$DW$79, DW_AT_TI_symbol_name("_MB_init")
    1058                      .dwattr $C$DW$79, DW_AT_external
    1059                      .dwattr $C$DW$79, DW_AT_type(*$C$DW$T$178)
    1060                      .dwattr $C$DW$79, DW_AT_TI_begin_file("D:/BM1000_v1.1/sw/drivers/drvic/modbus/mb.c")
    1061                      .dwattr $C$DW$79, DW_AT_TI_begin_line(0x4a)
    1062                      .dwattr $C$DW$79, DW_AT_TI_begin_column(0x0b)
    1063                      .dwattr $C$DW$79, DW_AT_TI_max_frame_size(-2)
    1064                      .dwpsn  file "D:/BM1000_v1.1/sw/drivers/drvic/modbus/mb.c",line 75,column 1,is_stmt,address _MB_init
    1065              
    1066                      .dwfde $C$DW$CIE, _MB_init
    1067              $C$DW$80        .dwtag  DW_TAG_formal_parameter, DW_AT_name("pMemory")
    1068                      .dwattr $C$DW$80, DW_AT_TI_symbol_name("_pMemory")
    1069                      .dwattr $C$DW$80, DW_AT_type(*$C$DW$T$3)
    1070                      .dwattr $C$DW$80, DW_AT_location[DW_OP_reg12]
    1071              $C$DW$81        .dwtag  DW_TAG_formal_parameter, DW_AT_name("numBytes")
    1072                      .dwattr $C$DW$81, DW_AT_TI_symbol_name("_numBytes")
    1073                      .dwattr $C$DW$81, DW_AT_type(*$C$DW$T$202)
    1074                      .dwattr $C$DW$81, DW_AT_location[DW_OP_reg0]
    1075              
    1076              ;***************************************************************
    1077              ;* FNAME: _MB_init                      FR SIZE:   0           *
    1078              ;*                                                             *
    1079              ;* FUNCTION ENVIRONMENT                                        *
    1080              ;*                                                             *
    1081              ;* FUNCTION PROPERTIES                                         *
    1082              ;*                            0 Parameter,  0 Auto,  0 SOE     *
    1083              ;***************************************************************
    1084              
    1085              _MB_init:
    1086              ;* AR6   assigned to _numBytes
    1087              $C$DW$82        .dwtag  DW_TAG_variable, DW_AT_name("numBytes")
    1088                      .dwattr $C$DW$82, DW_AT_TI_symbol_name("_numBytes")
    1089                      .dwattr $C$DW$82, DW_AT_type(*$C$DW$T$202)
    1090                      .dwattr $C$DW$82, DW_AT_location[DW_OP_reg16]
    1091              ;* AR4   assigned to _pMemory
    1092              $C$DW$83        .dwtag  DW_TAG_variable, DW_AT_name("pMemory")
    1093                      .dwattr $C$DW$83, DW_AT_TI_symbol_name("_pMemory")
    1094                      .dwattr $C$DW$83, DW_AT_type(*$C$DW$T$214)
    1095                      .dwattr $C$DW$83, DW_AT_location[DW_OP_reg12]
    1096                      .dwcfi  cfa_offset, -2
    1097                      .dwcfi  save_reg_to_mem, 26, 0
    1098                      .dwcfi  save_reg_to_reg, 78, 26
    1099 0000000b 1EA6          MOVL      XAR6,ACC              ; [CPU_] |75| 
    1100                      .dwpsn  file "D:/BM1000_v1.1/sw/drivers/drvic/modbus/mb.c",line 80,column 6,is_stmt
TMS320C2000 Assembler PC v6.2.5 Wed Nov 22 14:48:16 2017

Tools Copyright (c) 1996-2014 Texas Instruments Incorporated
C:\Users\wmj\AppData\Local\Temp\0222411                              PAGE   21

    1101 0000000c 0220          MOVB      ACC,#32               ; [CPU_] |80| 
    1102 0000000d 0FA6          CMPL      ACC,XAR6              ; [CPU_] |80| 
    1103 0000000e 6902          B         $C$L1,LOS             ; [CPU_] |80| 
    1104                      ; branchcc occurs ; [] |80| 
    1105 0000000f D400          MOVB      XAR4,#0               ; [CPU_] |80| 
    1106              $C$L1:    
    1107              $C$DW$84        .dwtag  DW_TAG_TI_branch
    1108                      .dwattr $C$DW$84, DW_AT_low_pc(0x00)
    1109                      .dwattr $C$DW$84, DW_AT_TI_return
    1110 00000010 0006          LRETR     ; [CPU_] 
    1111                      ; return occurs ; [] 
    1112                      .dwattr $C$DW$79, DW_AT_TI_end_file("D:/BM1000_v1.1/sw/drivers/drvic/modbus/mb.c")
    1113                      .dwattr $C$DW$79, DW_AT_TI_end_line(0x57)
    1114                      .dwattr $C$DW$79, DW_AT_TI_end_column(0x01)
    1115                      .dwendentry
    1116                      .dwendtag $C$DW$79
    1117              
    1118 00000011               .sect   ".text"
    1119                      .clink
    1120                      .global _MB_PortEventPost
    1121              
    1122              $C$DW$85        .dwtag  DW_TAG_subprogram, DW_AT_name("MB_PortEventPost")
    1123                      .dwattr $C$DW$85, DW_AT_low_pc(_MB_PortEventPost)
    1124                      .dwattr $C$DW$85, DW_AT_high_pc(0x00)
    1125                      .dwattr $C$DW$85, DW_AT_TI_symbol_name("_MB_PortEventPost")
    1126                      .dwattr $C$DW$85, DW_AT_external
    1127                      .dwattr $C$DW$85, DW_AT_TI_begin_file("D:/BM1000_v1.1/sw/drivers/drvic/modbus/mb.c")
    1128                      .dwattr $C$DW$85, DW_AT_TI_begin_line(0xd7)
    1129                      .dwattr $C$DW$85, DW_AT_TI_begin_column(0x06)
    1130                      .dwattr $C$DW$85, DW_AT_TI_max_frame_size(-2)
    1131                      .dwpsn  file "D:/BM1000_v1.1/sw/drivers/drvic/modbus/mb.c",line 216,column 1,is_stmt,address _MB_Port
    1132              
    1133                      .dwfde $C$DW$CIE, _MB_PortEventPost
    1134              $C$DW$86        .dwtag  DW_TAG_formal_parameter, DW_AT_name("handle")
    1135                      .dwattr $C$DW$86, DW_AT_TI_symbol_name("_handle")
    1136                      .dwattr $C$DW$86, DW_AT_type(*$C$DW$T$178)
    1137                      .dwattr $C$DW$86, DW_AT_location[DW_OP_reg12]
    1138              $C$DW$87        .dwtag  DW_TAG_formal_parameter, DW_AT_name("eEvent")
    1139                      .dwattr $C$DW$87, DW_AT_TI_symbol_name("_eEvent")
    1140                      .dwattr $C$DW$87, DW_AT_type(*$C$DW$T$135)
    1141                      .dwattr $C$DW$87, DW_AT_location[DW_OP_reg0]
    1142              
    1143              ;***************************************************************
    1144              ;* FNAME: _MB_PortEventPost             FR SIZE:   0           *
    1145              ;*                                                             *
    1146              ;* FUNCTION ENVIRONMENT                                        *
    1147              ;*                                                             *
    1148              ;* FUNCTION PROPERTIES                                         *
    1149              ;*                            0 Parameter,  0 Auto,  0 SOE     *
    1150              ;***************************************************************
    1151              
    1152              _MB_PortEventPost:
    1153              ;* AR4   assigned to _handle
    1154              $C$DW$88        .dwtag  DW_TAG_variable, DW_AT_name("handle")
    1155                      .dwattr $C$DW$88, DW_AT_TI_symbol_name("_handle")
TMS320C2000 Assembler PC v6.2.5 Wed Nov 22 14:48:16 2017

Tools Copyright (c) 1996-2014 Texas Instruments Incorporated
C:\Users\wmj\AppData\Local\Temp\0222411                              PAGE   22

    1156                      .dwattr $C$DW$88, DW_AT_type(*$C$DW$T$200)
    1157                      .dwattr $C$DW$88, DW_AT_location[DW_OP_reg12]
    1158              ;* AL    assigned to _eEvent
    1159              $C$DW$89        .dwtag  DW_TAG_variable, DW_AT_name("eEvent")
    1160                      .dwattr $C$DW$89, DW_AT_TI_symbol_name("_eEvent")
    1161                      .dwattr $C$DW$89, DW_AT_type(*$C$DW$T$186)
    1162                      .dwattr $C$DW$89, DW_AT_location[DW_OP_reg0]
    1163                      .dwcfi  cfa_offset, -2
    1164                      .dwcfi  save_reg_to_mem, 26, 0
    1165                      .dwcfi  save_reg_to_reg, 78, 26
    1166                      .dwpsn  file "D:/BM1000_v1.1/sw/drivers/drvic/modbus/mb.c",line 218,column 5,is_stmt
    1167 00000011 D01D          MOVB      XAR0,#29              ; [CPU_] |218| 
    1168 00000012 56BF          MOVB      *+XAR4[AR0],#1,UNC    ; [CPU_] |218| 
         00000013 0194 
    1169                      .dwpsn  file "D:/BM1000_v1.1/sw/drivers/drvic/modbus/mb.c",line 219,column 5,is_stmt
    1170 00000014 D01E          MOVB      XAR0,#30              ; [CPU_] |219| 
    1171 00000015 9694          MOV       *+XAR4[AR0],AL        ; [CPU_] |219| 
    1172              $C$DW$90        .dwtag  DW_TAG_TI_branch
    1173                      .dwattr $C$DW$90, DW_AT_low_pc(0x00)
    1174                      .dwattr $C$DW$90, DW_AT_TI_return
    1175 00000016 0006          LRETR     ; [CPU_] 
    1176                      ; return occurs ; [] 
    1177                      .dwattr $C$DW$85, DW_AT_TI_end_file("D:/BM1000_v1.1/sw/drivers/drvic/modbus/mb.c")
    1178                      .dwattr $C$DW$85, DW_AT_TI_end_line(0xdd)
    1179                      .dwattr $C$DW$85, DW_AT_TI_end_column(0x01)
    1180                      .dwendentry
    1181                      .dwendtag $C$DW$85
    1182              
    1183 00000017               .sect   ".text"
    1184                      .clink
    1185                      .global _MB_PortSerialEnable
    1186              
    1187              $C$DW$91        .dwtag  DW_TAG_subprogram, DW_AT_name("MB_PortSerialEnable")
    1188                      .dwattr $C$DW$91, DW_AT_low_pc(_MB_PortSerialEnable)
    1189                      .dwattr $C$DW$91, DW_AT_high_pc(0x00)
    1190                      .dwattr $C$DW$91, DW_AT_TI_symbol_name("_MB_PortSerialEnable")
    1191                      .dwattr $C$DW$91, DW_AT_external
    1192                      .dwattr $C$DW$91, DW_AT_TI_begin_file("D:/BM1000_v1.1/sw/drivers/drvic/modbus/mb.c")
    1193                      .dwattr $C$DW$91, DW_AT_TI_begin_line(0x9d)
    1194                      .dwattr $C$DW$91, DW_AT_TI_begin_column(0x06)
    1195                      .dwattr $C$DW$91, DW_AT_TI_max_frame_size(-6)
    1196                      .dwpsn  file "D:/BM1000_v1.1/sw/drivers/drvic/modbus/mb.c",line 158,column 1,is_stmt,address _MB_Port
    1197              
    1198                      .dwfde $C$DW$CIE, _MB_PortSerialEnable
    1199              $C$DW$92        .dwtag  DW_TAG_formal_parameter, DW_AT_name("handle")
    1200                      .dwattr $C$DW$92, DW_AT_TI_symbol_name("_handle")
    1201                      .dwattr $C$DW$92, DW_AT_type(*$C$DW$T$178)
    1202                      .dwattr $C$DW$92, DW_AT_location[DW_OP_reg12]
    1203              $C$DW$93        .dwtag  DW_TAG_formal_parameter, DW_AT_name("xRxEnable")
    1204                      .dwattr $C$DW$93, DW_AT_TI_symbol_name("_xRxEnable")
    1205                      .dwattr $C$DW$93, DW_AT_type(*$C$DW$T$59)
    1206                      .dwattr $C$DW$93, DW_AT_location[DW_OP_reg0]
    1207              $C$DW$94        .dwtag  DW_TAG_formal_parameter, DW_AT_name("xTxEnable")
    1208                      .dwattr $C$DW$94, DW_AT_TI_symbol_name("_xTxEnable")
    1209                      .dwattr $C$DW$94, DW_AT_type(*$C$DW$T$59)
TMS320C2000 Assembler PC v6.2.5 Wed Nov 22 14:48:16 2017

Tools Copyright (c) 1996-2014 Texas Instruments Incorporated
C:\Users\wmj\AppData\Local\Temp\0222411                              PAGE   23

    1210                      .dwattr $C$DW$94, DW_AT_location[DW_OP_reg1]
    1211              
    1212              ;***************************************************************
    1213              ;* FNAME: _MB_PortSerialEnable          FR SIZE:   4           *
    1214              ;*                                                             *
    1215              ;* FUNCTION ENVIRONMENT                                        *
    1216              ;*                                                             *
    1217              ;* FUNCTION PROPERTIES                                         *
    1218              ;*                            0 Parameter,  0 Auto,  4 SOE     *
    1219              ;***************************************************************
    1220              
    1221              _MB_PortSerialEnable:
    1222              ;* AR1   assigned to _xTxEnable
    1223              $C$DW$95        .dwtag  DW_TAG_variable, DW_AT_name("xTxEnable")
    1224                      .dwattr $C$DW$95, DW_AT_TI_symbol_name("_xTxEnable")
    1225                      .dwattr $C$DW$95, DW_AT_type(*$C$DW$T$250)
    1226                      .dwattr $C$DW$95, DW_AT_location[DW_OP_reg6]
    1227              ;* AL    assigned to _xRxEnable
    1228              $C$DW$96        .dwtag  DW_TAG_variable, DW_AT_name("xRxEnable")
    1229                      .dwattr $C$DW$96, DW_AT_TI_symbol_name("_xRxEnable")
    1230                      .dwattr $C$DW$96, DW_AT_type(*$C$DW$T$250)
    1231                      .dwattr $C$DW$96, DW_AT_location[DW_OP_reg0]
    1232              ;* AR2   assigned to _handle
    1233              $C$DW$97        .dwtag  DW_TAG_variable, DW_AT_name("handle")
    1234                      .dwattr $C$DW$97, DW_AT_TI_symbol_name("_handle")
    1235                      .dwattr $C$DW$97, DW_AT_type(*$C$DW$T$200)
    1236                      .dwattr $C$DW$97, DW_AT_location[DW_OP_reg8]
    1237                      .dwcfi  cfa_offset, -2
    1238                      .dwcfi  save_reg_to_mem, 26, 0
    1239                      .dwcfi  save_reg_to_reg, 78, 26
    1240 00000017 B2BD          MOVL      *SP++,XAR1            ; [CPU_] 
    1241                      .dwcfi  save_reg_to_mem, 7, 2
    1242                      .dwcfi  cfa_offset, -4
    1243                      .dwpsn  file "D:/BM1000_v1.1/sw/drivers/drvic/modbus/mb.c",line 161,column 3,is_stmt
    1244 00000018 5200          CMPB      AL,#0                 ; [CPU_] |161| 
    1245                      .dwpsn  file "D:/BM1000_v1.1/sw/drivers/drvic/modbus/mb.c",line 158,column 1,is_stmt
    1246 00000019 59A8          MOVZ      AR1,AH                ; [CPU_] |158| 
    1247 0000001a AABD          MOVL      *SP++,XAR2            ; [CPU_] 
    1248                      .dwcfi  save_reg_to_mem, 9, 4
    1249                      .dwcfi  cfa_offset, -6
    1250 0000001b 86A4          MOVL      XAR2,XAR4             ; [CPU_] |158| 
    1251                      .dwpsn  file "D:/BM1000_v1.1/sw/drivers/drvic/modbus/mb.c",line 161,column 3,is_stmt
    1252 0000001c ED0A          BF        $C$L2,NEQ             ; [CPU_] |161| 
    1253                      ; branchcc occurs ; [] |161| 
    1254                      .dwpsn  file "D:/BM1000_v1.1/sw/drivers/drvic/modbus/mb.c",line 168,column 3,is_stmt
    1255 0000001d D008          MOVB      XAR0,#8               ; [CPU_] |168| 
    1256 0000001e 8A92          MOVL      XAR4,*+XAR2[AR0]      ; [CPU_] |168| 
    1257              $C$DW$98        .dwtag  DW_TAG_TI_branch
    1258                      .dwattr $C$DW$98, DW_AT_low_pc(0x00)
    1259                      .dwattr $C$DW$98, DW_AT_name("_SCI_disableRx")
    1260                      .dwattr $C$DW$98, DW_AT_TI_call
    1261 0000001f 7640!         LCR       #_SCI_disableRx       ; [CPU_] |168| 
         00000020 0000 
    1262                      ; call occurs [#_SCI_disableRx] ; [] |168| 
    1263                      .dwpsn  file "D:/BM1000_v1.1/sw/drivers/drvic/modbus/mb.c",line 169,column 6,is_stmt
TMS320C2000 Assembler PC v6.2.5 Wed Nov 22 14:48:16 2017

Tools Copyright (c) 1996-2014 Texas Instruments Incorporated
C:\Users\wmj\AppData\Local\Temp\0222411                              PAGE   24

    1264 00000021 9A0C          MOVB      AL,#12                ; [CPU_] |169| 
    1265 00000022 8AE2          MOVL      XAR4,*+XAR2[4]        ; [CPU_] |169| 
    1266              $C$DW$99        .dwtag  DW_TAG_TI_branch
    1267                      .dwattr $C$DW$99, DW_AT_low_pc(0x00)
    1268                      .dwattr $C$DW$99, DW_AT_name("_GPIO_setHigh")
    1269                      .dwattr $C$DW$99, DW_AT_TI_call
    1270 00000023 7640!         LCR       #_GPIO_setHigh        ; [CPU_] |169| 
         00000024 0000 
    1271                      ; call occurs [#_GPIO_setHigh] ; [] |169| 
    1272 00000025 6F09          B         $C$L3,UNC             ; [CPU_] |169| 
    1273                      ; branch occurs ; [] |169| 
    1274 00000026       $C$L2:    
    1275                      .dwpsn  file "D:/BM1000_v1.1/sw/drivers/drvic/modbus/mb.c",line 163,column 3,is_stmt
    1276 00000026 D008          MOVB      XAR0,#8               ; [CPU_] |163| 
    1277 00000027 8A92          MOVL      XAR4,*+XAR2[AR0]      ; [CPU_] |163| 
    1278              $C$DW$100       .dwtag  DW_TAG_TI_branch
    1279                      .dwattr $C$DW$100, DW_AT_low_pc(0x00)
    1280                      .dwattr $C$DW$100, DW_AT_name("_SCI_enableRx")
    1281                      .dwattr $C$DW$100, DW_AT_TI_call
    1282 00000028 7640!         LCR       #_SCI_enableRx        ; [CPU_] |163| 
         00000029 0000 
    1283                      ; call occurs [#_SCI_enableRx] ; [] |163| 
    1284                      .dwpsn  file "D:/BM1000_v1.1/sw/drivers/drvic/modbus/mb.c",line 164,column 6,is_stmt
    1285 0000002a 9A0C          MOVB      AL,#12                ; [CPU_] |164| 
    1286 0000002b 8AE2          MOVL      XAR4,*+XAR2[4]        ; [CPU_] |164| 
    1287              $C$DW$101       .dwtag  DW_TAG_TI_branch
    1288                      .dwattr $C$DW$101, DW_AT_low_pc(0x00)
    1289                      .dwattr $C$DW$101, DW_AT_name("_GPIO_setLow")
    1290                      .dwattr $C$DW$101, DW_AT_TI_call
    1291 0000002c 7640!         LCR       #_GPIO_setLow         ; [CPU_] |164| 
         0000002d 0000 
    1292                      ; call occurs [#_GPIO_setLow] ; [] |164| 
    1293 0000002e       $C$L3:    
    1294 0000002e 92A1          MOV       AL,AR1                ; [CPU_] 
    1295                      .dwpsn  file "D:/BM1000_v1.1/sw/drivers/drvic/modbus/mb.c",line 172,column 3,is_stmt
    1296 0000002f ED0A          BF        $C$L4,NEQ             ; [CPU_] |172| 
    1297                      ; branchcc occurs ; [] |172| 
    1298                      .dwpsn  file "D:/BM1000_v1.1/sw/drivers/drvic/modbus/mb.c",line 179,column 2,is_stmt
    1299 00000030 D008          MOVB      XAR0,#8               ; [CPU_] |179| 
    1300 00000031 8A92          MOVL      XAR4,*+XAR2[AR0]      ; [CPU_] |179| 
    1301              $C$DW$102       .dwtag  DW_TAG_TI_branch
    1302                      .dwattr $C$DW$102, DW_AT_low_pc(0x00)
    1303                      .dwattr $C$DW$102, DW_AT_name("_SCI_disableTx")
    1304                      .dwattr $C$DW$102, DW_AT_TI_call
    1305 00000032 7640!         LCR       #_SCI_disableTx       ; [CPU_] |179| 
         00000033 0000 
    1306                      ; call occurs [#_SCI_disableTx] ; [] |179| 
    1307                      .dwpsn  file "D:/BM1000_v1.1/sw/drivers/drvic/modbus/mb.c",line 180,column 5,is_stmt
    1308 00000034 9A22          MOVB      AL,#34                ; [CPU_] |180| 
    1309 00000035 8AE2          MOVL      XAR4,*+XAR2[4]        ; [CPU_] |180| 
    1310              $C$DW$103       .dwtag  DW_TAG_TI_branch
    1311                      .dwattr $C$DW$103, DW_AT_low_pc(0x00)
    1312                      .dwattr $C$DW$103, DW_AT_name("_GPIO_setLow")
    1313                      .dwattr $C$DW$103, DW_AT_TI_call
    1314 00000036 7640!         LCR       #_GPIO_setLow         ; [CPU_] |180| 
TMS320C2000 Assembler PC v6.2.5 Wed Nov 22 14:48:16 2017

Tools Copyright (c) 1996-2014 Texas Instruments Incorporated
C:\Users\wmj\AppData\Local\Temp\0222411                              PAGE   25

         00000037 0000 
    1315                      ; call occurs [#_GPIO_setLow] ; [] |180| 
    1316 00000038 6F09          B         $C$L5,UNC             ; [CPU_] |180| 
    1317                      ; branch occurs ; [] |180| 
    1318 00000039       $C$L4:    
    1319                      .dwpsn  file "D:/BM1000_v1.1/sw/drivers/drvic/modbus/mb.c",line 174,column 2,is_stmt
    1320 00000039 D008          MOVB      XAR0,#8               ; [CPU_] |174| 
    1321 0000003a 8A92          MOVL      XAR4,*+XAR2[AR0]      ; [CPU_] |174| 
    1322              $C$DW$104       .dwtag  DW_TAG_TI_branch
    1323                      .dwattr $C$DW$104, DW_AT_low_pc(0x00)
    1324                      .dwattr $C$DW$104, DW_AT_name("_SCI_enableTx")
    1325                      .dwattr $C$DW$104, DW_AT_TI_call
    1326 0000003b 7640!         LCR       #_SCI_enableTx        ; [CPU_] |174| 
         0000003c 0000 
    1327                      ; call occurs [#_SCI_enableTx] ; [] |174| 
    1328                      .dwpsn  file "D:/BM1000_v1.1/sw/drivers/drvic/modbus/mb.c",line 175,column 2,is_stmt
    1329 0000003d 9A22          MOVB      AL,#34                ; [CPU_] |175| 
    1330 0000003e 8AE2          MOVL      XAR4,*+XAR2[4]        ; [CPU_] |175| 
    1331              $C$DW$105       .dwtag  DW_TAG_TI_branch
    1332                      .dwattr $C$DW$105, DW_AT_low_pc(0x00)
    1333                      .dwattr $C$DW$105, DW_AT_name("_GPIO_setHigh")
    1334                      .dwattr $C$DW$105, DW_AT_TI_call
    1335 0000003f 7640!         LCR       #_GPIO_setHigh        ; [CPU_] |175| 
         00000040 0000 
    1336                      ; call occurs [#_GPIO_setHigh] ; [] |175| 
    1337 00000041       $C$L5:    
    1338 00000041 86BE          MOVL      XAR2,*--SP            ; [CPU_] 
    1339                      .dwcfi  cfa_offset, -4
    1340                      .dwcfi  restore_reg, 9
    1341 00000042 8BBE          MOVL      XAR1,*--SP            ; [CPU_] 
    1342                      .dwcfi  cfa_offset, -2
    1343                      .dwcfi  restore_reg, 7
    1344              $C$DW$106       .dwtag  DW_TAG_TI_branch
    1345                      .dwattr $C$DW$106, DW_AT_low_pc(0x00)
    1346                      .dwattr $C$DW$106, DW_AT_TI_return
    1347 00000043 0006          LRETR     ; [CPU_] 
    1348                      ; return occurs ; [] 
    1349                      .dwattr $C$DW$91, DW_AT_TI_end_file("D:/BM1000_v1.1/sw/drivers/drvic/modbus/mb.c")
    1350                      .dwattr $C$DW$91, DW_AT_TI_end_line(0xb7)
    1351                      .dwattr $C$DW$91, DW_AT_TI_end_column(0x01)
    1352                      .dwendentry
    1353                      .dwendtag $C$DW$91
    1354              
    1355 00000044               .sect   ".text"
    1356                      .clink
    1357                      .global _MB_PortSerialPutByte
    1358              
    1359              $C$DW$107       .dwtag  DW_TAG_subprogram, DW_AT_name("MB_PortSerialPutByte")
    1360                      .dwattr $C$DW$107, DW_AT_low_pc(_MB_PortSerialPutByte)
    1361                      .dwattr $C$DW$107, DW_AT_high_pc(0x00)
    1362                      .dwattr $C$DW$107, DW_AT_TI_symbol_name("_MB_PortSerialPutByte")
    1363                      .dwattr $C$DW$107, DW_AT_external
    1364                      .dwattr $C$DW$107, DW_AT_type(*$C$DW$T$59)
    1365                      .dwattr $C$DW$107, DW_AT_TI_begin_file("D:/BM1000_v1.1/sw/drivers/drvic/modbus/mb.c")
    1366                      .dwattr $C$DW$107, DW_AT_TI_begin_line(0xba)
TMS320C2000 Assembler PC v6.2.5 Wed Nov 22 14:48:16 2017

Tools Copyright (c) 1996-2014 Texas Instruments Incorporated
C:\Users\wmj\AppData\Local\Temp\0222411                              PAGE   26

    1367                      .dwattr $C$DW$107, DW_AT_TI_begin_column(0x06)
    1368                      .dwattr $C$DW$107, DW_AT_TI_max_frame_size(-2)
    1369                      .dwpsn  file "D:/BM1000_v1.1/sw/drivers/drvic/modbus/mb.c",line 187,column 1,is_stmt,address _MB_Port
    1370              
    1371                      .dwfde $C$DW$CIE, _MB_PortSerialPutByte
    1372              $C$DW$108       .dwtag  DW_TAG_formal_parameter, DW_AT_name("handle")
    1373                      .dwattr $C$DW$108, DW_AT_TI_symbol_name("_handle")
    1374                      .dwattr $C$DW$108, DW_AT_type(*$C$DW$T$178)
    1375                      .dwattr $C$DW$108, DW_AT_location[DW_OP_reg12]
    1376              $C$DW$109       .dwtag  DW_TAG_formal_parameter, DW_AT_name("putByte")
    1377                      .dwattr $C$DW$109, DW_AT_TI_symbol_name("_putByte")
    1378                      .dwattr $C$DW$109, DW_AT_type(*$C$DW$T$253)
    1379                      .dwattr $C$DW$109, DW_AT_location[DW_OP_reg0]
    1380              
    1381              ;***************************************************************
    1382              ;* FNAME: _MB_PortSerialPutByte         FR SIZE:   0           *
    1383              ;*                                                             *
    1384              ;* FUNCTION ENVIRONMENT                                        *
    1385              ;*                                                             *
    1386              ;* FUNCTION PROPERTIES                                         *
    1387              ;*                            0 Parameter,  0 Auto,  0 SOE     *
    1388              ;***************************************************************
    1389              
    1390              _MB_PortSerialPutByte:
    1391              ;* AR4   assigned to _handle
    1392              $C$DW$110       .dwtag  DW_TAG_variable, DW_AT_name("handle")
    1393                      .dwattr $C$DW$110, DW_AT_TI_symbol_name("_handle")
    1394                      .dwattr $C$DW$110, DW_AT_type(*$C$DW$T$200)
    1395                      .dwattr $C$DW$110, DW_AT_location[DW_OP_reg12]
    1396              ;* AL    assigned to _putByte
    1397              $C$DW$111       .dwtag  DW_TAG_variable, DW_AT_name("putByte")
    1398                      .dwattr $C$DW$111, DW_AT_TI_symbol_name("_putByte")
    1399                      .dwattr $C$DW$111, DW_AT_type(*$C$DW$T$309)
    1400                      .dwattr $C$DW$111, DW_AT_location[DW_OP_reg0]
    1401              ;* AL    assigned to _putData_state
    1402              $C$DW$112       .dwtag  DW_TAG_variable, DW_AT_name("putData_state")
    1403                      .dwattr $C$DW$112, DW_AT_TI_symbol_name("_putData_state")
    1404                      .dwattr $C$DW$112, DW_AT_type(*$C$DW$T$21)
    1405                      .dwattr $C$DW$112, DW_AT_location[DW_OP_reg0]
    1406                      .dwcfi  cfa_offset, -2
    1407                      .dwcfi  save_reg_to_mem, 26, 0
    1408                      .dwcfi  save_reg_to_reg, 78, 26
    1409                      .dwpsn  file "D:/BM1000_v1.1/sw/drivers/drvic/modbus/mb.c",line 191,column 5,is_stmt
    1410 00000044 D008          MOVB      XAR0,#8               ; [CPU_] |191| 
    1411 00000045 8A94          MOVL      XAR4,*+XAR4[AR0]      ; [CPU_] |191| 
    1412              $C$DW$113       .dwtag  DW_TAG_TI_branch
    1413                      .dwattr $C$DW$113, DW_AT_low_pc(0x00)
    1414                      .dwattr $C$DW$113, DW_AT_name("_SCI_putDataNonBlocking")
    1415                      .dwattr $C$DW$113, DW_AT_TI_call
    1416 00000046 7640!         LCR       #_SCI_putDataNonBlocking ; [CPU_] |191| 
         00000047 0000 
    1417                      ; call occurs [#_SCI_putDataNonBlocking] ; [] |191| 
    1418              $C$DW$114       .dwtag  DW_TAG_TI_branch
    1419                      .dwattr $C$DW$114, DW_AT_low_pc(0x00)
    1420                      .dwattr $C$DW$114, DW_AT_TI_return
TMS320C2000 Assembler PC v6.2.5 Wed Nov 22 14:48:16 2017

Tools Copyright (c) 1996-2014 Texas Instruments Incorporated
C:\Users\wmj\AppData\Local\Temp\0222411                              PAGE   27

    1421 00000048 0006          LRETR     ; [CPU_] 
    1422                      ; return occurs ; [] 
    1423                      .dwattr $C$DW$107, DW_AT_TI_end_file("D:/BM1000_v1.1/sw/drivers/drvic/modbus/mb.c")
    1424                      .dwattr $C$DW$107, DW_AT_TI_end_line(0xc2)
    1425                      .dwattr $C$DW$107, DW_AT_TI_end_column(0x01)
    1426                      .dwendentry
    1427                      .dwendtag $C$DW$107
    1428              
    1429 00000049               .sect   ".text"
    1430                      .clink
    1431                      .global _MB_RTUTransmitFSM
    1432              
    1433              $C$DW$115       .dwtag  DW_TAG_subprogram, DW_AT_name("MB_RTUTransmitFSM")
    1434                      .dwattr $C$DW$115, DW_AT_low_pc(_MB_RTUTransmitFSM)
    1435                      .dwattr $C$DW$115, DW_AT_high_pc(0x00)
    1436                      .dwattr $C$DW$115, DW_AT_TI_symbol_name("_MB_RTUTransmitFSM")
    1437                      .dwattr $C$DW$115, DW_AT_external
    1438                      .dwattr $C$DW$115, DW_AT_TI_begin_file("D:/BM1000_v1.1/sw/drivers/drvic/modbus/mb.c")
    1439                      .dwattr $C$DW$115, DW_AT_TI_begin_line(0x101)
    1440                      .dwattr $C$DW$115, DW_AT_TI_begin_column(0x06)
    1441                      .dwattr $C$DW$115, DW_AT_TI_max_frame_size(-4)
    1442                      .dwpsn  file "D:/BM1000_v1.1/sw/drivers/drvic/modbus/mb.c",line 258,column 1,is_stmt,address _MB_RTUT
    1443              
    1444                      .dwfde $C$DW$CIE, _MB_RTUTransmitFSM
    1445              $C$DW$116       .dwtag  DW_TAG_formal_parameter, DW_AT_name("handle")
    1446                      .dwattr $C$DW$116, DW_AT_TI_symbol_name("_handle")
    1447                      .dwattr $C$DW$116, DW_AT_type(*$C$DW$T$178)
    1448                      .dwattr $C$DW$116, DW_AT_location[DW_OP_reg12]
    1449              
    1450              ;***************************************************************
    1451              ;* FNAME: _MB_RTUTransmitFSM            FR SIZE:   2           *
    1452              ;*                                                             *
    1453              ;* FUNCTION ENVIRONMENT                                        *
    1454              ;*                                                             *
    1455              ;* FUNCTION PROPERTIES                                         *
    1456              ;*                            0 Parameter,  0 Auto,  2 SOE     *
    1457              ;***************************************************************
    1458              
    1459              _MB_RTUTransmitFSM:
    1460              ;* AR1   assigned to _handle
    1461              $C$DW$117       .dwtag  DW_TAG_variable, DW_AT_name("handle")
    1462                      .dwattr $C$DW$117, DW_AT_TI_symbol_name("_handle")
    1463                      .dwattr $C$DW$117, DW_AT_type(*$C$DW$T$200)
    1464                      .dwattr $C$DW$117, DW_AT_location[DW_OP_reg6]
    1465                      .dwcfi  cfa_offset, -2
    1466                      .dwcfi  save_reg_to_mem, 26, 0
    1467                      .dwcfi  save_reg_to_reg, 78, 26
    1468 00000049 B2BD          MOVL      *SP++,XAR1            ; [CPU_] 
    1469                      .dwcfi  save_reg_to_mem, 7, 2
    1470                      .dwcfi  cfa_offset, -4
    1471                      .dwpsn  file "D:/BM1000_v1.1/sw/drivers/drvic/modbus/mb.c",line 263,column 5,is_stmt
    1472 0000004a D01B          MOVB      XAR0,#27              ; [CPU_] |263| 
    1473                      .dwpsn  file "D:/BM1000_v1.1/sw/drivers/drvic/modbus/mb.c",line 258,column 1,is_stmt
    1474 0000004b 8BA4          MOVL      XAR1,XAR4             ; [CPU_] |258| 
    1475                      .dwpsn  file "D:/BM1000_v1.1/sw/drivers/drvic/modbus/mb.c",line 263,column 5,is_stmt
TMS320C2000 Assembler PC v6.2.5 Wed Nov 22 14:48:16 2017

Tools Copyright (c) 1996-2014 Texas Instruments Incorporated
C:\Users\wmj\AppData\Local\Temp\0222411                              PAGE   28

    1476 0000004c 9291          MOV       AL,*+XAR1[AR0]        ; [CPU_] |263| 
    1477 0000004d EC1D          BF        $C$L7,EQ              ; [CPU_] |263| 
    1478                      ; branchcc occurs ; [] |263| 
    1479 0000004e 5201          CMPB      AL,#1                 ; [CPU_] |263| 
    1480 0000004f ED1F          BF        $C$L8,NEQ             ; [CPU_] |263| 
    1481                      ; branchcc occurs ; [] |263| 
    1482                      .dwpsn  file "D:/BM1000_v1.1/sw/drivers/drvic/modbus/mb.c",line 271,column 9,is_stmt
    1483 00000050 D018          MOVB      XAR0,#24              ; [CPU_] |271| 
    1484 00000051 9291          MOV       AL,*+XAR1[AR0]        ; [CPU_] |271| 
    1485 00000052 ED0B          BF        $C$L6,NEQ             ; [CPU_] |271| 
    1486                      ; branchcc occurs ; [] |271| 
    1487                      .dwpsn  file "D:/BM1000_v1.1/sw/drivers/drvic/modbus/mb.c",line 279,column 11,is_stmt
    1488 00000053 9A03          MOVB      AL,#3                 ; [CPU_] |279| 
    1489              $C$DW$118       .dwtag  DW_TAG_TI_branch
    1490                      .dwattr $C$DW$118, DW_AT_low_pc(0x00)
    1491                      .dwattr $C$DW$118, DW_AT_name("_MB_PortEventPost")
    1492                      .dwattr $C$DW$118, DW_AT_TI_call
    1493 00000054 7640'         LCR       #_MB_PortEventPost    ; [CPU_] |279| 
         00000055 0011 
    1494                      ; call occurs [#_MB_PortEventPost] ; [] |279| 
    1495                      .dwpsn  file "D:/BM1000_v1.1/sw/drivers/drvic/modbus/mb.c",line 282,column 11,is_stmt
    1496 00000056 9B00          MOVB      AH,#0                 ; [CPU_] |282| 
    1497 00000057 9A01          MOVB      AL,#1                 ; [CPU_] |282| 
    1498              $C$DW$119       .dwtag  DW_TAG_TI_branch
    1499                      .dwattr $C$DW$119, DW_AT_low_pc(0x00)
    1500                      .dwattr $C$DW$119, DW_AT_name("_MB_PortSerialEnable")
    1501                      .dwattr $C$DW$119, DW_AT_TI_call
    1502 00000058 7640'         LCR       #_MB_PortSerialEnable ; [CPU_] |282| 
         00000059 0017 
    1503                      ; call occurs [#_MB_PortSerialEnable] ; [] |282| 
    1504                      .dwpsn  file "D:/BM1000_v1.1/sw/drivers/drvic/modbus/mb.c",line 284,column 11,is_stmt
    1505 0000005a D01B          MOVB      XAR0,#27              ; [CPU_] |284| 
    1506 0000005b 2B91          MOV       *+XAR1[AR0],#0        ; [CPU_] |284| 
    1507 0000005c 6F12          B         $C$L8,UNC             ; [CPU_] |284| 
    1508                      ; branch occurs ; [] |284| 
    1509 0000005d       $C$L6:    
    1510                      .dwpsn  file "D:/BM1000_v1.1/sw/drivers/drvic/modbus/mb.c",line 273,column 12,is_stmt
    1511 0000005d DC16          ADDB      XAR4,#22              ; [CPU_] |273| 
    1512 0000005e 0201          MOVB      ACC,#1                ; [CPU_] |273| 
    1513                      .dwpsn  file "D:/BM1000_v1.1/sw/drivers/drvic/modbus/mb.c",line 274,column 12,is_stmt
    1514 0000005f D016          MOVB      XAR0,#22              ; [CPU_] |274| 
    1515                      .dwpsn  file "D:/BM1000_v1.1/sw/drivers/drvic/modbus/mb.c",line 273,column 12,is_stmt
    1516 00000060 5601          ADDL      *+XAR4[0],ACC         ; [CPU_] |273| 
         00000061 00C4 
    1517                      .dwpsn  file "D:/BM1000_v1.1/sw/drivers/drvic/modbus/mb.c",line 274,column 12,is_stmt
    1518 00000062 8A91          MOVL      XAR4,*+XAR1[AR0]      ; [CPU_] |274| 
    1519 00000063 92C4          MOV       AL,*+XAR4[0]          ; [CPU_] |274| 
    1520 00000064 8AA1          MOVL      XAR4,XAR1             ; [CPU_] |274| 
    1521              $C$DW$120       .dwtag  DW_TAG_TI_branch
    1522                      .dwattr $C$DW$120, DW_AT_low_pc(0x00)
    1523                      .dwattr $C$DW$120, DW_AT_name("_MB_PortSerialPutByte")
    1524                      .dwattr $C$DW$120, DW_AT_TI_call
    1525 00000065 7640'         LCR       #_MB_PortSerialPutByte ; [CPU_] |274| 
         00000066 0044 
    1526                      ; call occurs [#_MB_PortSerialPutByte] ; [] |274| 
TMS320C2000 Assembler PC v6.2.5 Wed Nov 22 14:48:16 2017

Tools Copyright (c) 1996-2014 Texas Instruments Incorporated
C:\Users\wmj\AppData\Local\Temp\0222411                              PAGE   29

    1527                      .dwpsn  file "D:/BM1000_v1.1/sw/drivers/drvic/modbus/mb.c",line 275,column 12,is_stmt
    1528 00000067 D918          ADDB      XAR1,#24              ; [CPU_] |275| 
    1529 00000068 0BC1          DEC       *+XAR1[0]             ; [CPU_] |275| 
    1530                      .dwpsn  file "D:/BM1000_v1.1/sw/drivers/drvic/modbus/mb.c",line 276,column 10,is_stmt
    1531 00000069 6F05          B         $C$L8,UNC             ; [CPU_] |276| 
    1532                      ; branch occurs ; [] |276| 
    1533 0000006a       $C$L7:    
    1534                      .dwpsn  file "D:/BM1000_v1.1/sw/drivers/drvic/modbus/mb.c",line 267,column 9,is_stmt
    1535 0000006a 9A01          MOVB      AL,#1                 ; [CPU_] |267| 
    1536 0000006b 9B00          MOVB      AH,#0                 ; [CPU_] |267| 
    1537              $C$DW$121       .dwtag  DW_TAG_TI_branch
    1538                      .dwattr $C$DW$121, DW_AT_low_pc(0x00)
    1539                      .dwattr $C$DW$121, DW_AT_name("_MB_PortSerialEnable")
    1540                      .dwattr $C$DW$121, DW_AT_TI_call
    1541 0000006c 7640'         LCR       #_MB_PortSerialEnable ; [CPU_] |267| 
         0000006d 0017 
    1542                      ; call occurs [#_MB_PortSerialEnable] ; [] |267| 
    1543 0000006e       $C$L8:    
    1544 0000006e 8BBE          MOVL      XAR1,*--SP            ; [CPU_] 
    1545                      .dwcfi  cfa_offset, -2
    1546                      .dwcfi  restore_reg, 7
    1547              $C$DW$122       .dwtag  DW_TAG_TI_branch
    1548                      .dwattr $C$DW$122, DW_AT_low_pc(0x00)
    1549                      .dwattr $C$DW$122, DW_AT_TI_return
    1550 0000006f 0006          LRETR     ; [CPU_] 
    1551                      ; return occurs ; [] 
    1552                      .dwattr $C$DW$115, DW_AT_TI_end_file("D:/BM1000_v1.1/sw/drivers/drvic/modbus/mb.c")
    1553                      .dwattr $C$DW$115, DW_AT_TI_end_line(0x122)
    1554                      .dwattr $C$DW$115, DW_AT_TI_end_column(0x01)
    1555                      .dwendentry
    1556                      .dwendtag $C$DW$115
    1557              
    1558 00000070               .sect   ".text"
    1559                      .clink
    1560                      .global _MB_PortTimersDisable
    1561              
    1562              $C$DW$123       .dwtag  DW_TAG_subprogram, DW_AT_name("MB_PortTimersDisable")
    1563                      .dwattr $C$DW$123, DW_AT_low_pc(_MB_PortTimersDisable)
    1564                      .dwattr $C$DW$123, DW_AT_high_pc(0x00)
    1565                      .dwattr $C$DW$123, DW_AT_TI_symbol_name("_MB_PortTimersDisable")
    1566                      .dwattr $C$DW$123, DW_AT_external
    1567                      .dwattr $C$DW$123, DW_AT_TI_begin_file("D:/BM1000_v1.1/sw/drivers/drvic/modbus/mb.c")
    1568                      .dwattr $C$DW$123, DW_AT_TI_begin_line(0x93)
    1569                      .dwattr $C$DW$123, DW_AT_TI_begin_column(0x06)
    1570                      .dwattr $C$DW$123, DW_AT_TI_max_frame_size(-2)
    1571                      .dwpsn  file "D:/BM1000_v1.1/sw/drivers/drvic/modbus/mb.c",line 148,column 1,is_stmt,address _MB_Port
    1572              
    1573                      .dwfde $C$DW$CIE, _MB_PortTimersDisable
    1574              $C$DW$124       .dwtag  DW_TAG_formal_parameter, DW_AT_name("handle")
    1575                      .dwattr $C$DW$124, DW_AT_TI_symbol_name("_handle")
    1576                      .dwattr $C$DW$124, DW_AT_type(*$C$DW$T$178)
    1577                      .dwattr $C$DW$124, DW_AT_location[DW_OP_reg12]
    1578              
    1579              ;***************************************************************
    1580              ;* FNAME: _MB_PortTimersDisable         FR SIZE:   0           *
TMS320C2000 Assembler PC v6.2.5 Wed Nov 22 14:48:16 2017

Tools Copyright (c) 1996-2014 Texas Instruments Incorporated
C:\Users\wmj\AppData\Local\Temp\0222411                              PAGE   30

    1581              ;*                                                             *
    1582              ;* FUNCTION ENVIRONMENT                                        *
    1583              ;*                                                             *
    1584              ;* FUNCTION PROPERTIES                                         *
    1585              ;*                            0 Parameter,  0 Auto,  0 SOE     *
    1586              ;***************************************************************
    1587              
    1588              _MB_PortTimersDisable:
    1589              ;* AR4   assigned to _handle
    1590              $C$DW$125       .dwtag  DW_TAG_variable, DW_AT_name("handle")
    1591                      .dwattr $C$DW$125, DW_AT_TI_symbol_name("_handle")
    1592                      .dwattr $C$DW$125, DW_AT_type(*$C$DW$T$200)
    1593                      .dwattr $C$DW$125, DW_AT_location[DW_OP_reg12]
    1594                      .dwcfi  cfa_offset, -2
    1595                      .dwcfi  save_reg_to_mem, 26, 0
    1596                      .dwcfi  save_reg_to_reg, 78, 26
    1597                      .dwpsn  file "D:/BM1000_v1.1/sw/drivers/timer/src/32b/f28x/f2802x/timer.h",line 276,column 5,is_stmt
    1598 00000070 8AF4          MOVL      XAR4,*+XAR4[6]        ; [CPU_] |276| 
    1599 00000071 1AE4          OR        *+XAR4[4],#0x0010     ; [CPU_] |276| 
         00000072 0010 
    1600              $C$DW$126       .dwtag  DW_TAG_TI_branch
    1601                      .dwattr $C$DW$126, DW_AT_low_pc(0x00)
    1602                      .dwattr $C$DW$126, DW_AT_TI_return
    1603 00000073 0006          LRETR     ; [CPU_] 
    1604                      ; return occurs ; [] 
    1605                      .dwattr $C$DW$123, DW_AT_TI_end_file("D:/BM1000_v1.1/sw/drivers/drvic/modbus/mb.c")
    1606                      .dwattr $C$DW$123, DW_AT_TI_end_line(0x9a)
    1607                      .dwattr $C$DW$123, DW_AT_TI_end_column(0x01)
    1608                      .dwendentry
    1609                      .dwendtag $C$DW$123
    1610              
    1611 00000074               .sect   ".text"
    1612                      .clink
    1613                      .global _MB_RTUTimerFSM
    1614              
    1615              $C$DW$127       .dwtag  DW_TAG_subprogram, DW_AT_name("MB_RTUTimerFSM")
    1616                      .dwattr $C$DW$127, DW_AT_low_pc(_MB_RTUTimerFSM)
    1617                      .dwattr $C$DW$127, DW_AT_high_pc(0x00)
    1618                      .dwattr $C$DW$127, DW_AT_TI_symbol_name("_MB_RTUTimerFSM")
    1619                      .dwattr $C$DW$127, DW_AT_external
    1620                      .dwattr $C$DW$127, DW_AT_TI_begin_file("D:/BM1000_v1.1/sw/drivers/drvic/modbus/mb.c")
    1621                      .dwattr $C$DW$127, DW_AT_TI_begin_line(0xee)
    1622                      .dwattr $C$DW$127, DW_AT_TI_begin_column(0x06)
    1623                      .dwattr $C$DW$127, DW_AT_TI_max_frame_size(-2)
    1624                      .dwpsn  file "D:/BM1000_v1.1/sw/drivers/drvic/modbus/mb.c",line 239,column 1,is_stmt,address _MB_RTUT
    1625              
    1626                      .dwfde $C$DW$CIE, _MB_RTUTimerFSM
    1627              $C$DW$128       .dwtag  DW_TAG_formal_parameter, DW_AT_name("handle")
    1628                      .dwattr $C$DW$128, DW_AT_TI_symbol_name("_handle")
    1629                      .dwattr $C$DW$128, DW_AT_type(*$C$DW$T$178)
    1630                      .dwattr $C$DW$128, DW_AT_location[DW_OP_reg12]
    1631              
    1632              ;***************************************************************
    1633              ;* FNAME: _MB_RTUTimerFSM               FR SIZE:   0           *
    1634              ;*                                                             *
TMS320C2000 Assembler PC v6.2.5 Wed Nov 22 14:48:16 2017

Tools Copyright (c) 1996-2014 Texas Instruments Incorporated
C:\Users\wmj\AppData\Local\Temp\0222411                              PAGE   31

    1635              ;* FUNCTION ENVIRONMENT                                        *
    1636              ;*                                                             *
    1637              ;* FUNCTION PROPERTIES                                         *
    1638              ;*                            0 Parameter,  0 Auto,  0 SOE     *
    1639              ;***************************************************************
    1640              
    1641              _MB_RTUTimerFSM:
    1642              ;* AR5   assigned to _handle
    1643              $C$DW$129       .dwtag  DW_TAG_variable, DW_AT_name("handle")
    1644                      .dwattr $C$DW$129, DW_AT_TI_symbol_name("_handle")
    1645                      .dwattr $C$DW$129, DW_AT_type(*$C$DW$T$200)
    1646                      .dwattr $C$DW$129, DW_AT_location[DW_OP_reg14]
    1647                      .dwcfi  cfa_offset, -2
    1648                      .dwcfi  save_reg_to_mem, 26, 0
    1649                      .dwcfi  save_reg_to_reg, 78, 26
    1650 00000074 83A4          MOVL      XAR5,XAR4             ; [CPU_] |239| 
    1651                      .dwpsn  file "D:/BM1000_v1.1/sw/drivers/drvic/modbus/mb.c",line 242,column 5,is_stmt
    1652 00000075 D01C          MOVB      XAR0,#28              ; [CPU_] |242| 
    1653 00000076 9295          MOV       AL,*+XAR5[AR0]        ; [CPU_] |242| 
    1654 00000077 EC05          BF        $C$L9,EQ              ; [CPU_] |242| 
    1655                      ; branchcc occurs ; [] |242| 
    1656 00000078 5202          CMPB      AL,#2                 ; [CPU_] |242| 
    1657 00000079 ED06          BF        $C$L11,NEQ            ; [CPU_] |242| 
    1658                      ; branchcc occurs ; [] |242| 
    1659                      .dwpsn  file "D:/BM1000_v1.1/sw/drivers/drvic/modbus/mb.c",line 246,column 25,is_stmt
    1660 0000007a 9A01          MOVB      AL,#1                 ; [CPU_] |246| 
    1661                      .dwpsn  file "D:/BM1000_v1.1/sw/drivers/drvic/modbus/mb.c",line 246,column 70,is_stmt
    1662 0000007b 6F02          B         $C$L10,UNC            ; [CPU_] |246| 
    1663                      ; branch occurs ; [] |246| 
    1664 0000007c       $C$L9:    
    1665                      .dwpsn  file "D:/BM1000_v1.1/sw/drivers/drvic/modbus/mb.c",line 245,column 25,is_stmt
    1666 0000007c 9A00          MOVB      AL,#0                 ; [CPU_] |245| 
    1667              $C$L10:    
    1668              $C$DW$130       .dwtag  DW_TAG_TI_branch
    1669                      .dwattr $C$DW$130, DW_AT_low_pc(0x00)
    1670                      .dwattr $C$DW$130, DW_AT_name("_MB_PortEventPost")
    1671                      .dwattr $C$DW$130, DW_AT_TI_call
    1672 0000007d 7640'         LCR       #_MB_PortEventPost    ; [CPU_] |245| 
         0000007e 0011 
    1673                      ; call occurs [#_MB_PortEventPost] ; [] |245| 
    1674 0000007f       $C$L11:    
    1675                      .dwpsn  file "D:/BM1000_v1.1/sw/drivers/drvic/modbus/mb.c",line 251,column 5,is_stmt
    1676              $C$DW$131       .dwtag  DW_TAG_TI_branch
    1677                      .dwattr $C$DW$131, DW_AT_low_pc(0x00)
    1678                      .dwattr $C$DW$131, DW_AT_name("_MB_PortTimersDisable")
    1679                      .dwattr $C$DW$131, DW_AT_TI_call
    1680 0000007f 7640'         LCR       #_MB_PortTimersDisable ; [CPU_] |251| 
         00000080 0070 
    1681                      ; call occurs [#_MB_PortTimersDisable] ; [] |251| 
    1682                      .dwpsn  file "D:/BM1000_v1.1/sw/drivers/drvic/modbus/mb.c",line 252,column 5,is_stmt
    1683 00000081 D01C          MOVB      XAR0,#28              ; [CPU_] |252| 
    1684 00000082 56BF          MOVB      *+XAR5[AR0],#1,UNC    ; [CPU_] |252| 
         00000083 0195 
    1685              $C$DW$132       .dwtag  DW_TAG_TI_branch
    1686                      .dwattr $C$DW$132, DW_AT_low_pc(0x00)
TMS320C2000 Assembler PC v6.2.5 Wed Nov 22 14:48:16 2017

Tools Copyright (c) 1996-2014 Texas Instruments Incorporated
C:\Users\wmj\AppData\Local\Temp\0222411                              PAGE   32

    1687                      .dwattr $C$DW$132, DW_AT_TI_return
    1688 00000084 0006          LRETR     ; [CPU_] 
    1689                      ; return occurs ; [] 
    1690                      .dwattr $C$DW$127, DW_AT_TI_end_file("D:/BM1000_v1.1/sw/drivers/drvic/modbus/mb.c")
    1691                      .dwattr $C$DW$127, DW_AT_TI_end_line(0xff)
    1692                      .dwattr $C$DW$127, DW_AT_TI_end_column(0x01)
    1693                      .dwendentry
    1694                      .dwendtag $C$DW$127
    1695              
    1696 00000085               .sect   ".text"
    1697                      .clink
    1698                      .global _MB_CRC16
    1699              
    1700              $C$DW$133       .dwtag  DW_TAG_subprogram, DW_AT_name("MB_CRC16")
    1701                      .dwattr $C$DW$133, DW_AT_low_pc(_MB_CRC16)
    1702                      .dwattr $C$DW$133, DW_AT_high_pc(0x00)
    1703                      .dwattr $C$DW$133, DW_AT_TI_symbol_name("_MB_CRC16")
    1704                      .dwattr $C$DW$133, DW_AT_external
    1705                      .dwattr $C$DW$133, DW_AT_type(*$C$DW$T$21)
    1706                      .dwattr $C$DW$133, DW_AT_TI_begin_file("D:/BM1000_v1.1/sw/drivers/drvic/modbus/mb.c")
    1707                      .dwattr $C$DW$133, DW_AT_TI_begin_line(0x3b)
    1708                      .dwattr $C$DW$133, DW_AT_TI_begin_column(0x0a)
    1709                      .dwattr $C$DW$133, DW_AT_TI_max_frame_size(-2)
    1710                      .dwpsn  file "D:/BM1000_v1.1/sw/drivers/drvic/modbus/mb.c",line 60,column 1,is_stmt,address _MB_CRC16
    1711              
    1712                      .dwfde $C$DW$CIE, _MB_CRC16
    1713              $C$DW$134       .dwtag  DW_TAG_formal_parameter, DW_AT_name("PDU_Frame")
    1714                      .dwattr $C$DW$134, DW_AT_TI_symbol_name("_PDU_Frame")
    1715                      .dwattr $C$DW$134, DW_AT_type(*$C$DW$T$258)
    1716                      .dwattr $C$DW$134, DW_AT_location[DW_OP_reg12]
    1717              $C$DW$135       .dwtag  DW_TAG_formal_parameter, DW_AT_name("Length")
    1718                      .dwattr $C$DW$135, DW_AT_TI_symbol_name("_Length")
    1719                      .dwattr $C$DW$135, DW_AT_type(*$C$DW$T$21)
    1720                      .dwattr $C$DW$135, DW_AT_location[DW_OP_reg0]
    1721              
    1722              ;***************************************************************
    1723              ;* FNAME: _MB_CRC16                     FR SIZE:   0           *
    1724              ;*                                                             *
    1725              ;* FUNCTION ENVIRONMENT                                        *
    1726              ;*                                                             *
    1727              ;* FUNCTION PROPERTIES                                         *
    1728              ;*                            0 Parameter,  0 Auto,  0 SOE     *
    1729              ;***************************************************************
    1730              
    1731              _MB_CRC16:
    1732              ;* AL    assigned to _iIndex
    1733              $C$DW$136       .dwtag  DW_TAG_variable, DW_AT_name("iIndex")
    1734                      .dwattr $C$DW$136, DW_AT_TI_symbol_name("_iIndex")
    1735                      .dwattr $C$DW$136, DW_AT_type(*$C$DW$T$10)
    1736                      .dwattr $C$DW$136, DW_AT_location[DW_OP_reg0]
    1737              ;* PL    assigned to _ucCRCLo
    1738              $C$DW$137       .dwtag  DW_TAG_variable, DW_AT_name("ucCRCLo")
    1739                      .dwattr $C$DW$137, DW_AT_TI_symbol_name("_ucCRCLo")
    1740                      .dwattr $C$DW$137, DW_AT_type(*$C$DW$T$6)
    1741                      .dwattr $C$DW$137, DW_AT_location[DW_OP_reg2]
TMS320C2000 Assembler PC v6.2.5 Wed Nov 22 14:48:16 2017

Tools Copyright (c) 1996-2014 Texas Instruments Incorporated
C:\Users\wmj\AppData\Local\Temp\0222411                              PAGE   33

    1742              ;* AR7   assigned to _ucCRCHi
    1743              $C$DW$138       .dwtag  DW_TAG_variable, DW_AT_name("ucCRCHi")
    1744                      .dwattr $C$DW$138, DW_AT_TI_symbol_name("_ucCRCHi")
    1745                      .dwattr $C$DW$138, DW_AT_type(*$C$DW$T$6)
    1746                      .dwattr $C$DW$138, DW_AT_location[DW_OP_reg18]
    1747              ;* AR6   assigned to _Length
    1748              $C$DW$139       .dwtag  DW_TAG_variable, DW_AT_name("Length")
    1749                      .dwattr $C$DW$139, DW_AT_TI_symbol_name("_Length")
    1750                      .dwattr $C$DW$139, DW_AT_type(*$C$DW$T$21)
    1751                      .dwattr $C$DW$139, DW_AT_location[DW_OP_reg16]
    1752              ;* AR4   assigned to _PDU_Frame
    1753              $C$DW$140       .dwtag  DW_TAG_variable, DW_AT_name("PDU_Frame")
    1754                      .dwattr $C$DW$140, DW_AT_TI_symbol_name("_PDU_Frame")
    1755                      .dwattr $C$DW$140, DW_AT_type(*$C$DW$T$258)
    1756                      .dwattr $C$DW$140, DW_AT_location[DW_OP_reg12]
    1757              ;* AR6   assigned to $O$L1
    1758                      .dwcfi  cfa_offset, -2
    1759                      .dwcfi  save_reg_to_mem, 26, 0
    1760                      .dwcfi  save_reg_to_reg, 78, 26
    1761 00000085 88A9          MOVZ      AR6,AL                ; [CPU_] |60| 
    1762 00000086 2901          CLRC      SXM                   ; [CPU_] 
    1763                      .dwpsn  file "D:/BM1000_v1.1/sw/drivers/drvic/modbus/mb.c",line 61,column 29,is_stmt
    1764 00000087 B6FF          MOVB      XAR7,#255             ; [CPU_] |61| 
    1765                      .dwpsn  file "D:/BM1000_v1.1/sw/drivers/drvic/modbus/mb.c",line 62,column 29,is_stmt
    1766 00000088 28AB          MOV       PL,#255               ; [CPU_] |62| 
         00000089 00FF 
    1767                      .dwpsn  file "D:/BM1000_v1.1/sw/drivers/drvic/modbus/mb.c",line 70,column 5,is_stmt
    1768 0000008a DE81          SUBB      XAR6,#1               ; [CPU_U] |70| 
    1769 0000008b FF20          MOV       ACC,#65535            ; [CPU_] |70| 
         0000008c FFFF 
    1770 0000008d 58A6          MOVZ      AR0,AR6               ; [CPU_] |70| 
    1771 0000008e 0FA0          CMPL      ACC,XAR0              ; [CPU_] |70| 
    1772 0000008f EC14          BF        $C$L13,EQ             ; [CPU_] |70| 
    1773                      ; branchcc occurs ; [] |70| 
    1774 00000090       $C$L12:    
    1775                      .dwpsn  file "D:/BM1000_v1.1/sw/drivers/drvic/modbus/mb.c",line 67,column 9,is_stmt
    1776 00000090 92AB          MOV       AL,PL                 ; [CPU_] |67| 
    1777 00000091 3B01          SETC      SXM                   ; [CPU_] 
    1778                      .dwpsn  file "D:/BM1000_v1.1/sw/drivers/drvic/modbus/mb.c",line 68,column 9,is_stmt
    1779 00000092 8F40+         MOVL      XAR5,#_aucCRCHi       ; [CPU_U] |68| 
         00000093 0000 
    1780                      .dwpsn  file "D:/BM1000_v1.1/sw/drivers/drvic/modbus/mb.c",line 67,column 9,is_stmt
    1781 00000094 7084          XOR       AL,*XAR4++            ; [CPU_] |67| 
    1782                      .dwpsn  file "D:/BM1000_v1.1/sw/drivers/drvic/modbus/mb.c",line 68,column 9,is_stmt
    1783 00000095 85A9          MOV       ACC,AL                ; [CPU_] |68| 
    1784 00000096 5601          ADDL      XAR5,ACC              ; [CPU_] |68| 
         00000097 00A5 
    1785 00000098 93A7          MOV       AH,AR7                ; [CPU_] |68| 
    1786 00000099 71C5          XOR       AH,*+XAR5[0]          ; [CPU_] |68| 
    1787 0000009a 27A8          MOV       PL,AH                 ; [CPU_] |68| 
    1788                      .dwpsn  file "D:/BM1000_v1.1/sw/drivers/drvic/modbus/mb.c",line 69,column 9,is_stmt
    1789 0000009b 8F40+         MOVL      XAR5,#_aucCRCLo       ; [CPU_U] |69| 
         0000009c 0000 
    1790 0000009d 85A9          MOV       ACC,AL                ; [CPU_] |69| 
    1791 0000009e 5601          ADDL      XAR5,ACC              ; [CPU_] |69| 
TMS320C2000 Assembler PC v6.2.5 Wed Nov 22 14:48:16 2017

Tools Copyright (c) 1996-2014 Texas Instruments Incorporated
C:\Users\wmj\AppData\Local\Temp\0222411                              PAGE   34

         0000009f 00A5 
    1792 000000a0 80C5          MOVZ      AR7,*+XAR5[0]         ; [CPU_] |69| 
    1793 000000a1 000E          BANZ      $C$L12,AR6--          ; [CPU_] |69| 
         000000a2 FFEF 
    1794                      ; branchcc occurs ; [] |69| 
    1795 000000a3       $C$L13:    
    1796                      .dwpsn  file "D:/BM1000_v1.1/sw/drivers/drvic/modbus/mb.c",line 71,column 5,is_stmt
    1797 000000a3 5603          MOV       ACC,AR7 << #8         ; [CPU_] |71| 
         000000a4 08A7 
    1798 000000a5 CAAB          OR        AL,PL                 ; [CPU_] |71| 
    1799              $C$DW$141       .dwtag  DW_TAG_TI_branch
    1800                      .dwattr $C$DW$141, DW_AT_low_pc(0x00)
    1801                      .dwattr $C$DW$141, DW_AT_TI_return
    1802 000000a6 0006          LRETR     ; [CPU_] 
    1803                      ; return occurs ; [] 
    1804                      .dwattr $C$DW$133, DW_AT_TI_end_file("D:/BM1000_v1.1/sw/drivers/drvic/modbus/mb.c")
    1805                      .dwattr $C$DW$133, DW_AT_TI_end_line(0x48)
    1806                      .dwattr $C$DW$133, DW_AT_TI_end_column(0x01)
    1807                      .dwendentry
    1808                      .dwendtag $C$DW$133
    1809              
    1810 000000a7               .sect   ".text"
    1811                      .clink
    1812                      .global _MB_RTUSend
    1813              
    1814              $C$DW$142       .dwtag  DW_TAG_subprogram, DW_AT_name("MB_RTUSend")
    1815                      .dwattr $C$DW$142, DW_AT_low_pc(_MB_RTUSend)
    1816                      .dwattr $C$DW$142, DW_AT_high_pc(0x00)
    1817                      .dwattr $C$DW$142, DW_AT_TI_symbol_name("_MB_RTUSend")
    1818                      .dwattr $C$DW$142, DW_AT_external
    1819                      .dwattr $C$DW$142, DW_AT_type(*$C$DW$T$129)
    1820                      .dwattr $C$DW$142, DW_AT_TI_begin_file("D:/BM1000_v1.1/sw/drivers/drvic/modbus/mb.c")
    1821                      .dwattr $C$DW$142, DW_AT_TI_begin_line(0x15e)
    1822                      .dwattr $C$DW$142, DW_AT_TI_begin_column(0x0e)
    1823                      .dwattr $C$DW$142, DW_AT_TI_max_frame_size(-6)
    1824                      .dwpsn  file "D:/BM1000_v1.1/sw/drivers/drvic/modbus/mb.c",line 351,column 1,is_stmt,address _MB_RTUS
    1825              
    1826                      .dwfde $C$DW$CIE, _MB_RTUSend
    1827              $C$DW$143       .dwtag  DW_TAG_formal_parameter, DW_AT_name("handle")
    1828                      .dwattr $C$DW$143, DW_AT_TI_symbol_name("_handle")
    1829                      .dwattr $C$DW$143, DW_AT_type(*$C$DW$T$178)
    1830                      .dwattr $C$DW$143, DW_AT_location[DW_OP_reg12]
    1831              
    1832              ;***************************************************************
    1833              ;* FNAME: _MB_RTUSend                   FR SIZE:   4           *
    1834              ;*                                                             *
    1835              ;* FUNCTION ENVIRONMENT                                        *
    1836              ;*                                                             *
    1837              ;* FUNCTION PROPERTIES                                         *
    1838              ;*                            0 Parameter,  0 Auto,  4 SOE     *
    1839              ;***************************************************************
    1840              
    1841              _MB_RTUSend:
    1842              ;* PH    assigned to $O$C3
    1843              ;* AL    assigned to _usCRC16
TMS320C2000 Assembler PC v6.2.5 Wed Nov 22 14:48:16 2017

Tools Copyright (c) 1996-2014 Texas Instruments Incorporated
C:\Users\wmj\AppData\Local\Temp\0222411                              PAGE   35

    1844              $C$DW$144       .dwtag  DW_TAG_variable, DW_AT_name("usCRC16")
    1845                      .dwattr $C$DW$144, DW_AT_TI_symbol_name("_usCRC16")
    1846                      .dwattr $C$DW$144, DW_AT_type(*$C$DW$T$127)
    1847                      .dwattr $C$DW$144, DW_AT_location[DW_OP_reg0]
    1848              ;* AL    assigned to _eStatus
    1849              $C$DW$145       .dwtag  DW_TAG_variable, DW_AT_name("eStatus")
    1850                      .dwattr $C$DW$145, DW_AT_TI_symbol_name("_eStatus")
    1851                      .dwattr $C$DW$145, DW_AT_type(*$C$DW$T$129)
    1852                      .dwattr $C$DW$145, DW_AT_location[DW_OP_reg0]
    1853              ;* AR2   assigned to _handle
    1854              $C$DW$146       .dwtag  DW_TAG_variable, DW_AT_name("handle")
    1855                      .dwattr $C$DW$146, DW_AT_TI_symbol_name("_handle")
    1856                      .dwattr $C$DW$146, DW_AT_type(*$C$DW$T$200)
    1857                      .dwattr $C$DW$146, DW_AT_location[DW_OP_reg8]
    1858              ;* AR0   assigned to $O$T2
    1859              ;* AR0   assigned to $O$T1
    1860                      .dwcfi  cfa_offset, -2
    1861                      .dwcfi  save_reg_to_mem, 26, 0
    1862                      .dwcfi  save_reg_to_reg, 78, 26
    1863 000000a7 B2BD          MOVL      *SP++,XAR1            ; [CPU_] 
    1864                      .dwcfi  save_reg_to_mem, 7, 2
    1865                      .dwcfi  cfa_offset, -4
    1866                      .dwpsn  file "D:/BM1000_v1.1/sw/drivers/drvic/modbus/mb.c",line 357,column 5,is_stmt
    1867 000000a8 D01C          MOVB      XAR0,#28              ; [CPU_] |357| 
    1868 000000a9 AABD          MOVL      *SP++,XAR2            ; [CPU_] 
    1869                      .dwcfi  save_reg_to_mem, 9, 4
    1870                      .dwcfi  cfa_offset, -6
    1871                      .dwpsn  file "D:/BM1000_v1.1/sw/drivers/drvic/modbus/mb.c",line 351,column 1,is_stmt
    1872 000000aa 86A4          MOVL      XAR2,XAR4             ; [CPU_] |351| 
    1873                      .dwpsn  file "D:/BM1000_v1.1/sw/drivers/drvic/modbus/mb.c",line 357,column 5,is_stmt
    1874 000000ab 9292          MOV       AL,*+XAR2[AR0]        ; [CPU_] |357| 
    1875 000000ac 5201          CMPB      AL,#1                 ; [CPU_] |357| 
    1876 000000ad EC03          BF        $C$L14,EQ             ; [CPU_] |357| 
    1877                      ; branchcc occurs ; [] |357| 
    1878                      .dwpsn  file "D:/BM1000_v1.1/sw/drivers/drvic/modbus/mb.c",line 383,column 9,is_stmt
    1879 000000ae 9A05          MOVB      AL,#5                 ; [CPU_] |383| 
    1880 000000af 6F3F          B         $C$L15,UNC            ; [CPU_] |383| 
    1881                      ; branch occurs ; [] |383| 
    1882 000000b0       $C$L14:    
    1883                      .dwpsn  file "D:/BM1000_v1.1/sw/drivers/drvic/modbus/mb.c",line 360,column 6,is_stmt
    1884 000000b0 AAA9          MOVL      ACC,XAR2              ; [CPU_] |360| 
    1885 000000b1 D016          MOVB      XAR0,#22              ; [CPU_] |360| 
    1886                      .dwpsn  file "D:/BM1000_v1.1/sw/drivers/drvic/modbus/mb.c",line 363,column 6,is_stmt
    1887 000000b2 C5A2          MOVL      XAR7,XAR2             ; [CPU_] |363| 
    1888                      .dwpsn  file "D:/BM1000_v1.1/sw/drivers/drvic/modbus/mb.c",line 360,column 6,is_stmt
    1889 000000b3 090C          ADDB      ACC,#12               ; [CPU_] |360| 
    1890 000000b4 1E92          MOVL      *+XAR2[AR0],ACC       ; [CPU_] |360| 
    1891                      .dwpsn  file "D:/BM1000_v1.1/sw/drivers/drvic/modbus/mb.c",line 363,column 6,is_stmt
    1892 000000b5 D016          MOVB      XAR0,#22              ; [CPU_] |363| 
    1893 000000b6 8A92          MOVL      XAR4,*+XAR2[AR0]      ; [CPU_] |363| 
    1894 000000b7 DF19          ADDB      XAR7,#25              ; [CPU_] |363| 
    1895 000000b8 92C7          MOV       AL,*XAR7              ; [CPU_] |363| 
    1896 000000b9 96C4          MOV       *+XAR4[0],AL          ; [CPU_] |363| 
    1897                      .dwpsn  file "D:/BM1000_v1.1/sw/drivers/drvic/modbus/mb.c",line 367,column 6,is_stmt
    1898 000000ba 8AA2          MOVL      XAR4,XAR2             ; [CPU_] |367| 
TMS320C2000 Assembler PC v6.2.5 Wed Nov 22 14:48:16 2017

Tools Copyright (c) 1996-2014 Texas Instruments Incorporated
C:\Users\wmj\AppData\Local\Temp\0222411                              PAGE   36

    1899                      .dwpsn  file "D:/BM1000_v1.1/sw/drivers/drvic/modbus/mb.c",line 364,column 6,is_stmt
    1900 000000bb D018          MOVB      XAR0,#24              ; [CPU_] |364| 
    1901 000000bc 56BF          MOVB      *+XAR2[AR0],#1,UNC    ; [CPU_] |364| 
         000000bd 0192 
    1902                      .dwpsn  file "D:/BM1000_v1.1/sw/drivers/drvic/modbus/mb.c",line 367,column 6,is_stmt
    1903 000000be DC18          ADDB      XAR4,#24              ; [CPU_] |367| 
    1904 000000bf 0AC4          INC       *+XAR4[0]             ; [CPU_] |367| 
    1905                      .dwpsn  file "D:/BM1000_v1.1/sw/drivers/drvic/modbus/mb.c",line 368,column 6,is_stmt
    1906 000000c0 8AA2          MOVL      XAR4,XAR2             ; [CPU_] |368| 
    1907                      .dwpsn  file "D:/BM1000_v1.1/sw/drivers/drvic/modbus/mb.c",line 371,column 9,is_stmt
    1908 000000c1 D018          MOVB      XAR0,#24              ; [CPU_] |371| 
    1909                      .dwpsn  file "D:/BM1000_v1.1/sw/drivers/drvic/modbus/mb.c",line 368,column 6,is_stmt
    1910 000000c2 DC18          ADDB      XAR4,#24              ; [CPU_] |368| 
    1911 000000c3 08C4          ADD       *+XAR4[0],#4          ; [CPU_] |368| 
         000000c4 0004 
    1912                      .dwpsn  file "D:/BM1000_v1.1/sw/drivers/drvic/modbus/mb.c",line 371,column 9,is_stmt
    1913 000000c5 2F92          MOV       PH,*+XAR2[AR0]        ; [CPU_] |371| 
    1914 000000c6 D016          MOVB      XAR0,#22              ; [CPU_] |371| 
    1915 000000c7 92AA          MOV       AL,PH                 ; [CPU_] |371| 
    1916 000000c8 8A92          MOVL      XAR4,*+XAR2[AR0]      ; [CPU_] |371| 
    1917              $C$DW$147       .dwtag  DW_TAG_TI_branch
    1918                      .dwattr $C$DW$147, DW_AT_low_pc(0x00)
    1919                      .dwattr $C$DW$147, DW_AT_name("_MB_CRC16")
    1920                      .dwattr $C$DW$147, DW_AT_TI_call
    1921 000000c9 7640'         LCR       #_MB_CRC16            ; [CPU_] |371| 
         000000ca 0085 
    1922                      ; call occurs [#_MB_CRC16] ; [] |371| 
    1923                      .dwpsn  file "D:/BM1000_v1.1/sw/drivers/drvic/modbus/mb.c",line 372,column 9,is_stmt
    1924 000000cb D118          MOVB      XAR1,#24              ; [CPU_] |372| 
    1925 000000cc 9B01          MOVB      AH,#1                 ; [CPU_] |372| 
    1926 000000cd 58AA          MOVZ      AR0,PH                ; [CPU_] |372| 
    1927 000000ce 95A0          ADD       AH,AR0                ; [CPU_] |372| 
    1928 000000cf 979A          MOV       *+XAR2[AR1],AH        ; [CPU_] |372| 
    1929 000000d0 D116          MOVB      XAR1,#22              ; [CPU_] |372| 
    1930 000000d1 8A9A          MOVL      XAR4,*+XAR2[AR1]      ; [CPU_] |372| 
    1931 000000d2 CDA9          AND       AH,AL,#0x00ff         ; [CPU_] |372| 
         000000d3 00FF 
    1932 000000d4 9794          MOV       *+XAR4[AR0],AH        ; [CPU_] |372| 
    1933                      .dwpsn  file "D:/BM1000_v1.1/sw/drivers/drvic/modbus/mb.c",line 373,column 9,is_stmt
    1934 000000d5 D018          MOVB      XAR0,#24              ; [CPU_] |373| 
    1935 000000d6 5892          MOVZ      AR0,*+XAR2[AR0]       ; [CPU_] |373| 
    1936 000000d7 9B01          MOVB      AH,#1                 ; [CPU_] |373| 
    1937 000000d8 D118          MOVB      XAR1,#24              ; [CPU_] |373| 
    1938 000000d9 95A0          ADD       AH,AR0                ; [CPU_] |373| 
    1939 000000da 979A          MOV       *+XAR2[AR1],AH        ; [CPU_] |373| 
    1940 000000db D116          MOVB      XAR1,#22              ; [CPU_] |373| 
    1941 000000dc 8A9A          MOVL      XAR4,*+XAR2[AR1]      ; [CPU_] |373| 
    1942 000000dd FFC7          LSR       AL,8                  ; [CPU_] |373| 
    1943                      .dwpsn  file "D:/BM1000_v1.1/sw/drivers/drvic/modbus/mb.c",line 377,column 9,is_stmt
    1944 000000de 9B01          MOVB      AH,#1                 ; [CPU_] |377| 
    1945                      .dwpsn  file "D:/BM1000_v1.1/sw/drivers/drvic/modbus/mb.c",line 373,column 9,is_stmt
    1946 000000df 9694          MOV       *+XAR4[AR0],AL        ; [CPU_] |373| 
    1947                      .dwpsn  file "D:/BM1000_v1.1/sw/drivers/drvic/modbus/mb.c",line 377,column 9,is_stmt
    1948 000000e0 9A00          MOVB      AL,#0                 ; [CPU_] |377| 
    1949                      .dwpsn  file "D:/BM1000_v1.1/sw/drivers/drvic/modbus/mb.c",line 376,column 9,is_stmt
TMS320C2000 Assembler PC v6.2.5 Wed Nov 22 14:48:16 2017

Tools Copyright (c) 1996-2014 Texas Instruments Incorporated
C:\Users\wmj\AppData\Local\Temp\0222411                              PAGE   37

    1950 000000e1 D01B          MOVB      XAR0,#27              ; [CPU_] |376| 
    1951                      .dwpsn  file "D:/BM1000_v1.1/sw/drivers/drvic/modbus/mb.c",line 377,column 9,is_stmt
    1952 000000e2 8AA2          MOVL      XAR4,XAR2             ; [CPU_] |377| 
    1953                      .dwpsn  file "D:/BM1000_v1.1/sw/drivers/drvic/modbus/mb.c",line 376,column 9,is_stmt
    1954 000000e3 56BF          MOVB      *+XAR2[AR0],#1,UNC    ; [CPU_] |376| 
         000000e4 0192 
    1955                      .dwpsn  file "D:/BM1000_v1.1/sw/drivers/drvic/modbus/mb.c",line 377,column 9,is_stmt
    1956              $C$DW$148       .dwtag  DW_TAG_TI_branch
    1957                      .dwattr $C$DW$148, DW_AT_low_pc(0x00)
    1958                      .dwattr $C$DW$148, DW_AT_name("_MB_PortSerialEnable")
    1959                      .dwattr $C$DW$148, DW_AT_TI_call
    1960 000000e5 7640'         LCR       #_MB_PortSerialEnable ; [CPU_] |377| 
         000000e6 0017 
    1961                      ; call occurs [#_MB_PortSerialEnable] ; [] |377| 
    1962                      .dwpsn  file "D:/BM1000_v1.1/sw/drivers/drvic/modbus/mb.c",line 378,column 9,is_stmt
    1963 000000e7 D016          MOVB      XAR0,#22              ; [CPU_] |378| 
    1964 000000e8 8A92          MOVL      XAR4,*+XAR2[AR0]      ; [CPU_] |378| 
    1965 000000e9 92C4          MOV       AL,*+XAR4[0]          ; [CPU_] |378| 
    1966 000000ea 8AA2          MOVL      XAR4,XAR2             ; [CPU_] |378| 
    1967              $C$DW$149       .dwtag  DW_TAG_TI_branch
    1968                      .dwattr $C$DW$149, DW_AT_low_pc(0x00)
    1969                      .dwattr $C$DW$149, DW_AT_name("_MB_PortSerialPutByte")
    1970                      .dwattr $C$DW$149, DW_AT_TI_call
    1971 000000eb 7640'         LCR       #_MB_PortSerialPutByte ; [CPU_] |378| 
         000000ec 0044 
    1972                      ; call occurs [#_MB_PortSerialPutByte] ; [] |378| 
    1973                      .dwpsn  file "D:/BM1000_v1.1/sw/drivers/drvic/modbus/mb.c",line 354,column 29,is_stmt
    1974 000000ed 9A00          MOVB      AL,#0                 ; [CPU_] |354| 
    1975 000000ee       $C$L15:    
    1976 000000ee 86BE          MOVL      XAR2,*--SP            ; [CPU_] 
    1977                      .dwcfi  cfa_offset, -4
    1978                      .dwcfi  restore_reg, 9
    1979 000000ef 8BBE          MOVL      XAR1,*--SP            ; [CPU_] 
    1980                      .dwcfi  cfa_offset, -2
    1981                      .dwcfi  restore_reg, 7
    1982              $C$DW$150       .dwtag  DW_TAG_TI_branch
    1983                      .dwattr $C$DW$150, DW_AT_low_pc(0x00)
    1984                      .dwattr $C$DW$150, DW_AT_TI_return
    1985 000000f0 0006          LRETR     ; [CPU_] 
    1986                      ; return occurs ; [] 
    1987                      .dwattr $C$DW$142, DW_AT_TI_end_file("D:/BM1000_v1.1/sw/drivers/drvic/modbus/mb.c")
    1988                      .dwattr $C$DW$142, DW_AT_TI_end_line(0x182)
    1989                      .dwattr $C$DW$142, DW_AT_TI_end_column(0x01)
    1990                      .dwendentry
    1991                      .dwendtag $C$DW$142
    1992              
    1993 000000f1               .sect   ".text"
    1994                      .clink
    1995                      .global _MB_PortSerialGetByte
    1996              
    1997              $C$DW$151       .dwtag  DW_TAG_subprogram, DW_AT_name("MB_PortSerialGetByte")
    1998                      .dwattr $C$DW$151, DW_AT_low_pc(_MB_PortSerialGetByte)
    1999                      .dwattr $C$DW$151, DW_AT_high_pc(0x00)
    2000                      .dwattr $C$DW$151, DW_AT_TI_symbol_name("_MB_PortSerialGetByte")
    2001                      .dwattr $C$DW$151, DW_AT_external
TMS320C2000 Assembler PC v6.2.5 Wed Nov 22 14:48:16 2017

Tools Copyright (c) 1996-2014 Texas Instruments Incorporated
C:\Users\wmj\AppData\Local\Temp\0222411                              PAGE   38

    2002                      .dwattr $C$DW$151, DW_AT_type(*$C$DW$T$59)
    2003                      .dwattr $C$DW$151, DW_AT_TI_begin_file("D:/BM1000_v1.1/sw/drivers/drvic/modbus/mb.c")
    2004                      .dwattr $C$DW$151, DW_AT_TI_begin_line(0xc4)
    2005                      .dwattr $C$DW$151, DW_AT_TI_begin_column(0x06)
    2006                      .dwattr $C$DW$151, DW_AT_TI_max_frame_size(-6)
    2007                      .dwpsn  file "D:/BM1000_v1.1/sw/drivers/drvic/modbus/mb.c",line 197,column 1,is_stmt,address _MB_Port
    2008              
    2009                      .dwfde $C$DW$CIE, _MB_PortSerialGetByte
    2010              $C$DW$152       .dwtag  DW_TAG_formal_parameter, DW_AT_name("handle")
    2011                      .dwattr $C$DW$152, DW_AT_TI_symbol_name("_handle")
    2012                      .dwattr $C$DW$152, DW_AT_type(*$C$DW$T$178)
    2013                      .dwattr $C$DW$152, DW_AT_location[DW_OP_reg12]
    2014              $C$DW$153       .dwtag  DW_TAG_formal_parameter, DW_AT_name("getByte")
    2015                      .dwattr $C$DW$153, DW_AT_TI_symbol_name("_getByte")
    2016                      .dwattr $C$DW$153, DW_AT_type(*$C$DW$T$255)
    2017                      .dwattr $C$DW$153, DW_AT_location[DW_OP_reg14]
    2018              
    2019              ;***************************************************************
    2020              ;* FNAME: _MB_PortSerialGetByte         FR SIZE:   4           *
    2021              ;*                                                             *
    2022              ;* FUNCTION ENVIRONMENT                                        *
    2023              ;*                                                             *
    2024              ;* FUNCTION PROPERTIES                                         *
    2025              ;*                            0 Parameter,  1 Auto,  2 SOE     *
    2026              ;***************************************************************
    2027              
    2028              _MB_PortSerialGetByte:
    2029              ;* AR4   assigned to _handle
    2030              $C$DW$154       .dwtag  DW_TAG_variable, DW_AT_name("handle")
    2031                      .dwattr $C$DW$154, DW_AT_TI_symbol_name("_handle")
    2032                      .dwattr $C$DW$154, DW_AT_type(*$C$DW$T$200)
    2033                      .dwattr $C$DW$154, DW_AT_location[DW_OP_reg12]
    2034              ;* AR1   assigned to _getByte
    2035              $C$DW$155       .dwtag  DW_TAG_variable, DW_AT_name("getByte")
    2036                      .dwattr $C$DW$155, DW_AT_TI_symbol_name("_getByte")
    2037                      .dwattr $C$DW$155, DW_AT_type(*$C$DW$T$310)
    2038                      .dwattr $C$DW$155, DW_AT_location[DW_OP_reg6]
    2039              $C$DW$156       .dwtag  DW_TAG_variable, DW_AT_name("getData_state")
    2040                      .dwattr $C$DW$156, DW_AT_TI_symbol_name("_getData_state")
    2041                      .dwattr $C$DW$156, DW_AT_type(*$C$DW$T$21)
    2042                      .dwattr $C$DW$156, DW_AT_location[DW_OP_breg20 -1]
    2043                      .dwcfi  cfa_offset, -2
    2044                      .dwcfi  save_reg_to_mem, 26, 0
    2045                      .dwcfi  save_reg_to_reg, 78, 26
    2046 000000f1 B2BD          MOVL      *SP++,XAR1            ; [CPU_] 
    2047                      .dwcfi  save_reg_to_mem, 7, 2
    2048                      .dwcfi  cfa_offset, -4
    2049 000000f2 FE02          ADDB      SP,#2                 ; [CPU_U] 
    2050                      .dwcfi  cfa_offset, -6
    2051                      .dwpsn  file "D:/BM1000_v1.1/sw/drivers/drvic/modbus/mb.c",line 201,column 5,is_stmt
    2052 000000f3 D008          MOVB      XAR0,#8               ; [CPU_] |201| 
    2053                      .dwpsn  file "D:/BM1000_v1.1/sw/drivers/drvic/modbus/mb.c",line 197,column 1,is_stmt
    2054 000000f4 8BA5          MOVL      XAR1,XAR5             ; [CPU_] |197| 
    2055                      .dwpsn  file "D:/BM1000_v1.1/sw/drivers/drvic/modbus/mb.c",line 201,column 5,is_stmt
    2056 000000f5 8A94          MOVL      XAR4,*+XAR4[AR0]      ; [CPU_] |201| 
TMS320C2000 Assembler PC v6.2.5 Wed Nov 22 14:48:16 2017

Tools Copyright (c) 1996-2014 Texas Instruments Incorporated
C:\Users\wmj\AppData\Local\Temp\0222411                              PAGE   39

    2057 000000f6 5DAD          MOVZ      AR5,SP                ; [CPU_U] |201| 
    2058 000000f7 DD81          SUBB      XAR5,#1               ; [CPU_U] |201| 
    2059              $C$DW$157       .dwtag  DW_TAG_TI_branch
    2060                      .dwattr $C$DW$157, DW_AT_low_pc(0x00)
    2061                      .dwattr $C$DW$157, DW_AT_name("_SCI_getDataNonBlocking")
    2062                      .dwattr $C$DW$157, DW_AT_TI_call
    2063 000000f8 7640!         LCR       #_SCI_getDataNonBlocking ; [CPU_] |201| 
         000000f9 0000 
    2064                      ; call occurs [#_SCI_getDataNonBlocking] ; [] |201| 
    2065 000000fa 96C1          MOV       *+XAR1[0],AL          ; [CPU_] |201| 
    2066                      .dwpsn  file "D:/BM1000_v1.1/sw/drivers/drvic/modbus/mb.c",line 203,column 5,is_stmt
    2067 000000fb 9241          MOV       AL,*-SP[1]            ; [CPU_] |203| 
    2068 000000fc FE82          SUBB      SP,#2                 ; [CPU_U] 
    2069                      .dwcfi  cfa_offset, -4
    2070 000000fd 8BBE          MOVL      XAR1,*--SP            ; [CPU_] 
    2071                      .dwcfi  cfa_offset, -2
    2072                      .dwcfi  restore_reg, 7
    2073              $C$DW$158       .dwtag  DW_TAG_TI_branch
    2074                      .dwattr $C$DW$158, DW_AT_low_pc(0x00)
    2075                      .dwattr $C$DW$158, DW_AT_TI_return
    2076 000000fe 0006          LRETR     ; [CPU_] 
    2077                      ; return occurs ; [] 
    2078                      .dwattr $C$DW$151, DW_AT_TI_end_file("D:/BM1000_v1.1/sw/drivers/drvic/modbus/mb.c")
    2079                      .dwattr $C$DW$151, DW_AT_TI_end_line(0xcc)
    2080                      .dwattr $C$DW$151, DW_AT_TI_end_column(0x01)
    2081                      .dwendentry
    2082                      .dwendtag $C$DW$151
    2083              
    2084 000000ff               .sect   ".text"
    2085                      .clink
    2086                      .global _MB_PortTimersEnable
    2087              
    2088              $C$DW$159       .dwtag  DW_TAG_subprogram, DW_AT_name("MB_PortTimersEnable")
    2089                      .dwattr $C$DW$159, DW_AT_low_pc(_MB_PortTimersEnable)
    2090                      .dwattr $C$DW$159, DW_AT_high_pc(0x00)
    2091                      .dwattr $C$DW$159, DW_AT_TI_symbol_name("_MB_PortTimersEnable")
    2092                      .dwattr $C$DW$159, DW_AT_external
    2093                      .dwattr $C$DW$159, DW_AT_TI_begin_file("D:/BM1000_v1.1/sw/drivers/drvic/modbus/mb.c")
    2094                      .dwattr $C$DW$159, DW_AT_TI_begin_line(0x88)
    2095                      .dwattr $C$DW$159, DW_AT_TI_begin_column(0x06)
    2096                      .dwattr $C$DW$159, DW_AT_TI_max_frame_size(-4)
    2097                      .dwpsn  file "D:/BM1000_v1.1/sw/drivers/drvic/modbus/mb.c",line 137,column 1,is_stmt,address _MB_Port
    2098              
    2099                      .dwfde $C$DW$CIE, _MB_PortTimersEnable
    2100              $C$DW$160       .dwtag  DW_TAG_formal_parameter, DW_AT_name("handle")
    2101                      .dwattr $C$DW$160, DW_AT_TI_symbol_name("_handle")
    2102                      .dwattr $C$DW$160, DW_AT_type(*$C$DW$T$178)
    2103                      .dwattr $C$DW$160, DW_AT_location[DW_OP_reg12]
    2104              
    2105              ;***************************************************************
    2106              ;* FNAME: _MB_PortTimersEnable          FR SIZE:   2           *
    2107              ;*                                                             *
    2108              ;* FUNCTION ENVIRONMENT                                        *
    2109              ;*                                                             *
    2110              ;* FUNCTION PROPERTIES                                         *
TMS320C2000 Assembler PC v6.2.5 Wed Nov 22 14:48:16 2017

Tools Copyright (c) 1996-2014 Texas Instruments Incorporated
C:\Users\wmj\AppData\Local\Temp\0222411                              PAGE   40

    2111              ;*                            0 Parameter,  0 Auto,  2 SOE     *
    2112              ;***************************************************************
    2113              
    2114              _MB_PortTimersEnable:
    2115              ;* AR1   assigned to _handle
    2116              $C$DW$161       .dwtag  DW_TAG_variable, DW_AT_name("handle")
    2117                      .dwattr $C$DW$161, DW_AT_TI_symbol_name("_handle")
    2118                      .dwattr $C$DW$161, DW_AT_type(*$C$DW$T$200)
    2119                      .dwattr $C$DW$161, DW_AT_location[DW_OP_reg6]
    2120                      .dwcfi  cfa_offset, -2
    2121                      .dwcfi  save_reg_to_mem, 26, 0
    2122                      .dwcfi  save_reg_to_reg, 78, 26
    2123 000000ff B2BD          MOVL      *SP++,XAR1            ; [CPU_] 
    2124                      .dwcfi  save_reg_to_mem, 7, 2
    2125                      .dwcfi  cfa_offset, -4
    2126 00000100 8BA4          MOVL      XAR1,XAR4             ; [CPU_] |137| 
    2127                      .dwpsn  file "D:/BM1000_v1.1/sw/drivers/drvic/modbus/mb.c",line 140,column 3,is_stmt
    2128 00000101 8AF1          MOVL      XAR4,*+XAR1[6]        ; [CPU_] |140| 
    2129              $C$DW$162       .dwtag  DW_TAG_TI_branch
    2130                      .dwattr $C$DW$162, DW_AT_low_pc(0x00)
    2131                      .dwattr $C$DW$162, DW_AT_name("_TIMER_clearFlag")
    2132                      .dwattr $C$DW$162, DW_AT_TI_call
    2133 00000102 7640!         LCR       #_TIMER_clearFlag     ; [CPU_] |140| 
         00000103 0000 
    2134                      ; call occurs [#_TIMER_clearFlag] ; [] |140| 
    2135                      .dwpsn  file "D:/BM1000_v1.1/sw/drivers/timer/src/32b/f28x/f2802x/timer.h",line 196,column 5,is_stmt
    2136 00000104 8AF1          MOVL      XAR4,*+XAR1[6]        ; [CPU_] |196| 
    2137 00000105 1AE4          OR        *+XAR4[4],#0x0020     ; [CPU_] |196| 
         00000106 0020 
    2138                      .dwpsn  file "D:/BM1000_v1.1/sw/drivers/timer/src/32b/f28x/f2802x/timer.h",line 262,column 5,is_stmt
    2139 00000107 8AF1          MOVL      XAR4,*+XAR1[6]        ; [CPU_] |262| 
    2140 00000108 18E4          AND       *+XAR4[4],#0xffef     ; [CPU_] |262| 
         00000109 FFEF 
    2141 0000010a 8BBE          MOVL      XAR1,*--SP            ; [CPU_] 
    2142                      .dwcfi  cfa_offset, -2
    2143                      .dwcfi  restore_reg, 7
    2144              $C$DW$163       .dwtag  DW_TAG_TI_branch
    2145                      .dwattr $C$DW$163, DW_AT_low_pc(0x00)
    2146                      .dwattr $C$DW$163, DW_AT_TI_return
    2147 0000010b 0006          LRETR     ; [CPU_] 
    2148                      ; return occurs ; [] 
    2149                      .dwattr $C$DW$159, DW_AT_TI_end_file("D:/BM1000_v1.1/sw/drivers/drvic/modbus/mb.c")
    2150                      .dwattr $C$DW$159, DW_AT_TI_end_line(0x91)
    2151                      .dwattr $C$DW$159, DW_AT_TI_end_column(0x01)
    2152                      .dwendentry
    2153                      .dwendtag $C$DW$159
    2154              
    2155 0000010c               .sect   ".text"
    2156                      .clink
    2157                      .global _MB_RTUReceiveFSM
    2158              
    2159              $C$DW$164       .dwtag  DW_TAG_subprogram, DW_AT_name("MB_RTUReceiveFSM")
    2160                      .dwattr $C$DW$164, DW_AT_low_pc(_MB_RTUReceiveFSM)
    2161                      .dwattr $C$DW$164, DW_AT_high_pc(0x00)
    2162                      .dwattr $C$DW$164, DW_AT_TI_symbol_name("_MB_RTUReceiveFSM")
TMS320C2000 Assembler PC v6.2.5 Wed Nov 22 14:48:16 2017

Tools Copyright (c) 1996-2014 Texas Instruments Incorporated
C:\Users\wmj\AppData\Local\Temp\0222411                              PAGE   41

    2163                      .dwattr $C$DW$164, DW_AT_external
    2164                      .dwattr $C$DW$164, DW_AT_TI_begin_file("D:/BM1000_v1.1/sw/drivers/drvic/modbus/mb.c")
    2165                      .dwattr $C$DW$164, DW_AT_TI_begin_line(0x124)
    2166                      .dwattr $C$DW$164, DW_AT_TI_begin_column(0x06)
    2167                      .dwattr $C$DW$164, DW_AT_TI_max_frame_size(-6)
    2168                      .dwpsn  file "D:/BM1000_v1.1/sw/drivers/drvic/modbus/mb.c",line 293,column 1,is_stmt,address _MB_RTUR
    2169              
    2170                      .dwfde $C$DW$CIE, _MB_RTUReceiveFSM
    2171              $C$DW$165       .dwtag  DW_TAG_formal_parameter, DW_AT_name("handle")
    2172                      .dwattr $C$DW$165, DW_AT_TI_symbol_name("_handle")
    2173                      .dwattr $C$DW$165, DW_AT_type(*$C$DW$T$178)
    2174                      .dwattr $C$DW$165, DW_AT_location[DW_OP_reg12]
    2175              
    2176              ;***************************************************************
    2177              ;* FNAME: _MB_RTUReceiveFSM             FR SIZE:   4           *
    2178              ;*                                                             *
    2179              ;* FUNCTION ENVIRONMENT                                        *
    2180              ;*                                                             *
    2181              ;* FUNCTION PROPERTIES                                         *
    2182              ;*                            0 Parameter,  1 Auto,  2 SOE     *
    2183              ;***************************************************************
    2184              
    2185              _MB_RTUReceiveFSM:
    2186              $C$DW$166       .dwtag  DW_TAG_variable, DW_AT_name("ucByte")
    2187                      .dwattr $C$DW$166, DW_AT_TI_symbol_name("_ucByte")
    2188                      .dwattr $C$DW$166, DW_AT_type(*$C$DW$T$124)
    2189                      .dwattr $C$DW$166, DW_AT_location[DW_OP_breg20 -1]
    2190              ;* AR1   assigned to _handle
    2191              $C$DW$167       .dwtag  DW_TAG_variable, DW_AT_name("handle")
    2192                      .dwattr $C$DW$167, DW_AT_TI_symbol_name("_handle")
    2193                      .dwattr $C$DW$167, DW_AT_type(*$C$DW$T$200)
    2194                      .dwattr $C$DW$167, DW_AT_location[DW_OP_reg6]
    2195              ;* AR6   assigned to $O$U6
    2196                      .dwcfi  cfa_offset, -2
    2197                      .dwcfi  save_reg_to_mem, 26, 0
    2198                      .dwcfi  save_reg_to_reg, 78, 26
    2199 0000010c B2BD          MOVL      *SP++,XAR1            ; [CPU_] 
    2200                      .dwcfi  save_reg_to_mem, 7, 2
    2201                      .dwcfi  cfa_offset, -4
    2202 0000010d FE02          ADDB      SP,#2                 ; [CPU_U] 
    2203                      .dwcfi  cfa_offset, -6
    2204                      .dwpsn  file "D:/BM1000_v1.1/sw/drivers/drvic/modbus/mb.c",line 299,column 5,is_stmt
    2205 0000010e 5DAD          MOVZ      AR5,SP                ; [CPU_U] |299| 
    2206                      .dwpsn  file "D:/BM1000_v1.1/sw/drivers/drvic/modbus/mb.c",line 293,column 1,is_stmt
    2207 0000010f 8BA4          MOVL      XAR1,XAR4             ; [CPU_] |293| 
    2208                      .dwpsn  file "D:/BM1000_v1.1/sw/drivers/drvic/modbus/mb.c",line 299,column 5,is_stmt
    2209 00000110 DD81          SUBB      XAR5,#1               ; [CPU_U] |299| 
    2210              $C$DW$168       .dwtag  DW_TAG_TI_branch
    2211                      .dwattr $C$DW$168, DW_AT_low_pc(0x00)
    2212                      .dwattr $C$DW$168, DW_AT_name("_MB_PortSerialGetByte")
    2213                      .dwattr $C$DW$168, DW_AT_TI_call
    2214 00000111 7640'         LCR       #_MB_PortSerialGetByte ; [CPU_] |299| 
         00000112 00F1 
    2215                      ; call occurs [#_MB_PortSerialGetByte] ; [] |299| 
    2216                      .dwpsn  file "D:/BM1000_v1.1/sw/drivers/drvic/modbus/mb.c",line 301,column 5,is_stmt
TMS320C2000 Assembler PC v6.2.5 Wed Nov 22 14:48:16 2017

Tools Copyright (c) 1996-2014 Texas Instruments Incorporated
C:\Users\wmj\AppData\Local\Temp\0222411                              PAGE   42

    2217 00000113 D01C          MOVB      XAR0,#28              ; [CPU_] |301| 
    2218 00000114 9291          MOV       AL,*+XAR1[AR0]        ; [CPU_] |301| 
    2219 00000115 EC24          BF        $C$L18,EQ             ; [CPU_] |301| 
    2220                      ; branchcc occurs ; [] |301| 
    2221 00000116 5201          CMPB      AL,#1                 ; [CPU_] |301| 
    2222 00000117 EC19          BF        $C$L17,EQ             ; [CPU_] |301| 
    2223                      ; branchcc occurs ; [] |301| 
    2224 00000118 5202          CMPB      AL,#2                 ; [CPU_] |301| 
    2225 00000119 EC04          BF        $C$L16,EQ             ; [CPU_] |301| 
    2226                      ; branchcc occurs ; [] |301| 
    2227 0000011a 5203          CMPB      AL,#3                 ; [CPU_] |301| 
    2228 0000011b EC1E          BF        $C$L18,EQ             ; [CPU_] |301| 
    2229                      ; branchcc occurs ; [] |301| 
    2230 0000011c 6F20          B         $C$L19,UNC            ; [CPU_] |301| 
    2231                      ; branch occurs ; [] |301| 
    2232 0000011d       $C$L16:    
    2233                      .dwpsn  file "D:/BM1000_v1.1/sw/drivers/drvic/modbus/mb.c",line 315,column 9,is_stmt
    2234 0000011d D014          MOVB      XAR0,#20              ; [CPU_] |315| 
    2235 0000011e 8891          MOVZ      AR6,*+XAR1[AR0]       ; [CPU_] |315| 
    2236 0000011f 92A6          MOV       AL,AR6                ; [CPU_] |315| 
    2237 00000120 5208          CMPB      AL,#8                 ; [CPU_] |315| 
    2238                      .dwpsn  file "D:/BM1000_v1.1/sw/drivers/drvic/modbus/mb.c",line 321,column 11,is_stmt
    2239 00000121 56B7          MOVB      XAR0,#28,HIS          ; [CPU_] |321| 
         00000122 1CA0 
    2240 00000123 56B7          MOVB      *+XAR1[AR0],#3,HIS    ; [CPU_] |321| 
         00000124 0391 
    2241 00000125 6714          B         $C$L18,HIS            ; [CPU_] |321| 
    2242                      ; branchcc occurs ; [] |321| 
    2243                      .dwpsn  file "D:/BM1000_v1.1/sw/drivers/drvic/modbus/mb.c",line 317,column 11,is_stmt
    2244 00000126 8AA1          MOVL      XAR4,XAR1             ; [CPU_] |317| 
    2245 00000127 B2A9          MOVL      ACC,XAR1              ; [CPU_] |317| 
    2246 00000128 0DA6          ADDU      ACC,AR6               ; [CPU_] |317| 
    2247 00000129 DC14          ADDB      XAR4,#20              ; [CPU_] |317| 
    2248 0000012a 0AC4          INC       *+XAR4[0]             ; [CPU_] |317| 
    2249 0000012b 8841          MOVZ      AR6,*-SP[1]           ; [CPU_] |317| 
    2250 0000012c D00C          MOVB      XAR0,#12              ; [CPU_] |317| 
    2251 0000012d 8AA9          MOVL      XAR4,ACC              ; [CPU_] |317| 
    2252 0000012e 7E94          MOV       *+XAR4[AR0],AR6       ; [CPU_] |317| 
    2253                      .dwpsn  file "D:/BM1000_v1.1/sw/drivers/drvic/modbus/mb.c",line 303,column 56,is_stmt
    2254 0000012f 6F0A          B         $C$L18,UNC            ; [CPU_] |303| 
    2255                      ; branch occurs ; [] |303| 
    2256 00000130       $C$L17:    
    2257                      .dwpsn  file "D:/BM1000_v1.1/sw/drivers/drvic/modbus/mb.c",line 308,column 6,is_stmt
    2258 00000130 D014          MOVB      XAR0,#20              ; [CPU_] |308| 
    2259 00000131 56BF          MOVB      *+XAR1[AR0],#1,UNC    ; [CPU_] |308| 
         00000132 0191 
    2260 00000133 9241          MOV       AL,*-SP[1]            ; [CPU_] |308| 
    2261 00000134 D00C          MOVB      XAR0,#12              ; [CPU_] |308| 
    2262 00000135 9691          MOV       *+XAR1[AR0],AL        ; [CPU_] |308| 
    2263                      .dwpsn  file "D:/BM1000_v1.1/sw/drivers/drvic/modbus/mb.c",line 309,column 9,is_stmt
    2264 00000136 D01C          MOVB      XAR0,#28              ; [CPU_] |309| 
    2265 00000137 56BF          MOVB      *+XAR1[AR0],#2,UNC    ; [CPU_] |309| 
         00000138 0291 
    2266 00000139       $C$L18:    
    2267                      .dwpsn  file "D:/BM1000_v1.1/sw/drivers/drvic/modbus/mb.c",line 311,column 9,is_stmt
TMS320C2000 Assembler PC v6.2.5 Wed Nov 22 14:48:16 2017

Tools Copyright (c) 1996-2014 Texas Instruments Incorporated
C:\Users\wmj\AppData\Local\Temp\0222411                              PAGE   43

    2268 00000139 8AA1          MOVL      XAR4,XAR1             ; [CPU_] |311| 
    2269              $C$DW$169       .dwtag  DW_TAG_TI_branch
    2270                      .dwattr $C$DW$169, DW_AT_low_pc(0x00)
    2271                      .dwattr $C$DW$169, DW_AT_name("_MB_PortTimersEnable")
    2272                      .dwattr $C$DW$169, DW_AT_TI_call
    2273 0000013a 7640'         LCR       #_MB_PortTimersEnable ; [CPU_] |311| 
         0000013b 00FF 
    2274                      ; call occurs [#_MB_PortTimersEnable] ; [] |311| 
    2275 0000013c       $C$L19:    
    2276 0000013c FE82          SUBB      SP,#2                 ; [CPU_U] 
    2277                      .dwcfi  cfa_offset, -4
    2278 0000013d 8BBE          MOVL      XAR1,*--SP            ; [CPU_] 
    2279                      .dwcfi  cfa_offset, -2
    2280                      .dwcfi  restore_reg, 7
    2281              $C$DW$170       .dwtag  DW_TAG_TI_branch
    2282                      .dwattr $C$DW$170, DW_AT_low_pc(0x00)
    2283                      .dwattr $C$DW$170, DW_AT_TI_return
    2284 0000013e 0006          LRETR     ; [CPU_] 
    2285                      ; return occurs ; [] 
    2286                      .dwattr $C$DW$164, DW_AT_TI_end_file("D:/BM1000_v1.1/sw/drivers/drvic/modbus/mb.c")
    2287                      .dwattr $C$DW$164, DW_AT_TI_end_line(0x148)
    2288                      .dwattr $C$DW$164, DW_AT_TI_end_column(0x01)
    2289                      .dwendentry
    2290                      .dwendtag $C$DW$164
    2291              
    2292 0000013f               .sect   ".text"
    2293                      .clink
    2294                      .global _MB_RTUReceive
    2295              
    2296              $C$DW$171       .dwtag  DW_TAG_subprogram, DW_AT_name("MB_RTUReceive")
    2297                      .dwattr $C$DW$171, DW_AT_low_pc(_MB_RTUReceive)
    2298                      .dwattr $C$DW$171, DW_AT_high_pc(0x00)
    2299                      .dwattr $C$DW$171, DW_AT_TI_symbol_name("_MB_RTUReceive")
    2300                      .dwattr $C$DW$171, DW_AT_external
    2301                      .dwattr $C$DW$171, DW_AT_type(*$C$DW$T$129)
    2302                      .dwattr $C$DW$171, DW_AT_TI_begin_file("D:/BM1000_v1.1/sw/drivers/drvic/modbus/mb.c")
    2303                      .dwattr $C$DW$171, DW_AT_TI_begin_line(0x14a)
    2304                      .dwattr $C$DW$171, DW_AT_TI_begin_column(0x0e)
    2305                      .dwattr $C$DW$171, DW_AT_TI_max_frame_size(-4)
    2306                      .dwpsn  file "D:/BM1000_v1.1/sw/drivers/drvic/modbus/mb.c",line 331,column 1,is_stmt,address _MB_RTUR
    2307              
    2308                      .dwfde $C$DW$CIE, _MB_RTUReceive
    2309              $C$DW$172       .dwtag  DW_TAG_formal_parameter, DW_AT_name("handle")
    2310                      .dwattr $C$DW$172, DW_AT_TI_symbol_name("_handle")
    2311                      .dwattr $C$DW$172, DW_AT_type(*$C$DW$T$178)
    2312                      .dwattr $C$DW$172, DW_AT_location[DW_OP_reg12]
    2313              
    2314              ;***************************************************************
    2315              ;* FNAME: _MB_RTUReceive                FR SIZE:   2           *
    2316              ;*                                                             *
    2317              ;* FUNCTION ENVIRONMENT                                        *
    2318              ;*                                                             *
    2319              ;* FUNCTION PROPERTIES                                         *
    2320              ;*                            0 Parameter,  0 Auto,  2 SOE     *
    2321              ;***************************************************************
TMS320C2000 Assembler PC v6.2.5 Wed Nov 22 14:48:16 2017

Tools Copyright (c) 1996-2014 Texas Instruments Incorporated
C:\Users\wmj\AppData\Local\Temp\0222411                              PAGE   44

    2322              
    2323              _MB_RTUReceive:
    2324              ;* AL    assigned to $O$C1
    2325              ;* AL    assigned to _eStatus
    2326              $C$DW$173       .dwtag  DW_TAG_variable, DW_AT_name("eStatus")
    2327                      .dwattr $C$DW$173, DW_AT_TI_symbol_name("_eStatus")
    2328                      .dwattr $C$DW$173, DW_AT_type(*$C$DW$T$129)
    2329                      .dwattr $C$DW$173, DW_AT_location[DW_OP_reg0]
    2330              ;* AR1   assigned to _handle
    2331              $C$DW$174       .dwtag  DW_TAG_variable, DW_AT_name("handle")
    2332                      .dwattr $C$DW$174, DW_AT_TI_symbol_name("_handle")
    2333                      .dwattr $C$DW$174, DW_AT_type(*$C$DW$T$200)
    2334                      .dwattr $C$DW$174, DW_AT_location[DW_OP_reg6]
    2335              ;* XT    assigned to $O$K7
    2336                      .dwcfi  cfa_offset, -2
    2337                      .dwcfi  save_reg_to_mem, 26, 0
    2338                      .dwcfi  save_reg_to_reg, 78, 26
    2339 0000013f B2BD          MOVL      *SP++,XAR1            ; [CPU_] 
    2340                      .dwcfi  save_reg_to_mem, 7, 2
    2341                      .dwcfi  cfa_offset, -4
    2342                      .dwpsn  file "D:/BM1000_v1.1/sw/drivers/drvic/modbus/mb.c",line 337,column 5,is_stmt
    2343 00000140 D014          MOVB      XAR0,#20              ; [CPU_] |337| 
    2344                      .dwpsn  file "D:/BM1000_v1.1/sw/drivers/drvic/modbus/mb.c",line 331,column 1,is_stmt
    2345 00000141 8BA4          MOVL      XAR1,XAR4             ; [CPU_] |331| 
    2346                      .dwpsn  file "D:/BM1000_v1.1/sw/drivers/drvic/modbus/mb.c",line 337,column 5,is_stmt
    2347 00000142 9291          MOV       AL,*+XAR1[AR0]        ; [CPU_] |337| 
    2348 00000143 5208          CMPB      AL,#8                 ; [CPU_] |337| 
    2349 00000144 ED0B          BF        $C$L20,NEQ            ; [CPU_] |337| 
    2350                      ; branchcc occurs ; [] |337| 
    2351 00000145 DC0C          ADDB      XAR4,#12              ; [CPU_] |337| 
    2352 00000146 A8AC          MOVL      XT,XAR4               ; [CPU_] |337| 
    2353              $C$DW$175       .dwtag  DW_TAG_TI_branch
    2354                      .dwattr $C$DW$175, DW_AT_low_pc(0x00)
    2355                      .dwattr $C$DW$175, DW_AT_name("_MB_CRC16")
    2356                      .dwattr $C$DW$175, DW_AT_TI_call
    2357 00000147 7640'         LCR       #_MB_CRC16            ; [CPU_] |337| 
         00000148 0085 
    2358                      ; call occurs [#_MB_CRC16] ; [] |337| 
    2359 00000149 5200          CMPB      AL,#0                 ; [CPU_] |337| 
    2360 0000014a ED05          BF        $C$L20,NEQ            ; [CPU_] |337| 
    2361                      ; branchcc occurs ; [] |337| 
    2362                      .dwpsn  file "D:/BM1000_v1.1/sw/drivers/drvic/modbus/mb.c",line 340,column 9,is_stmt
    2363 0000014b D00A          MOVB      XAR0,#10              ; [CPU_] |340| 
    2364                      .dwpsn  file "D:/BM1000_v1.1/sw/drivers/drvic/modbus/mb.c",line 334,column 28,is_stmt
    2365 0000014c 9A00          MOVB      AL,#0                 ; [CPU_] |334| 
    2366                      .dwpsn  file "D:/BM1000_v1.1/sw/drivers/drvic/modbus/mb.c",line 340,column 9,is_stmt
    2367 0000014d AB91          MOVL      *+XAR1[AR0],XT        ; [CPU_] |340| 
    2368                      .dwpsn  file "D:/BM1000_v1.1/sw/drivers/drvic/modbus/mb.c",line 341,column 5,is_stmt
    2369 0000014e 6F02          B         $C$L21,UNC            ; [CPU_] |341| 
    2370                      ; branch occurs ; [] |341| 
    2371 0000014f       $C$L20:    
    2372                      .dwpsn  file "D:/BM1000_v1.1/sw/drivers/drvic/modbus/mb.c",line 344,column 9,is_stmt
    2373 0000014f 9A05          MOVB      AL,#5                 ; [CPU_] |344| 
    2374 00000150       $C$L21:    
    2375 00000150 8BBE          MOVL      XAR1,*--SP            ; [CPU_] 
TMS320C2000 Assembler PC v6.2.5 Wed Nov 22 14:48:16 2017

Tools Copyright (c) 1996-2014 Texas Instruments Incorporated
C:\Users\wmj\AppData\Local\Temp\0222411                              PAGE   45

    2376                      .dwcfi  cfa_offset, -2
    2377                      .dwcfi  restore_reg, 7
    2378              $C$DW$176       .dwtag  DW_TAG_TI_branch
    2379                      .dwattr $C$DW$176, DW_AT_low_pc(0x00)
    2380                      .dwattr $C$DW$176, DW_AT_TI_return
    2381 00000151 0006          LRETR     ; [CPU_] 
    2382                      ; return occurs ; [] 
    2383                      .dwattr $C$DW$171, DW_AT_TI_end_file("D:/BM1000_v1.1/sw/drivers/drvic/modbus/mb.c")
    2384                      .dwattr $C$DW$171, DW_AT_TI_end_line(0x15c)
    2385                      .dwattr $C$DW$171, DW_AT_TI_end_column(0x01)
    2386                      .dwendentry
    2387                      .dwendtag $C$DW$171
    2388              
    2389 00000152               .sect   ".text"
    2390                      .clink
    2391                      .global _MB_PortEventInit
    2392              
    2393              $C$DW$177       .dwtag  DW_TAG_subprogram, DW_AT_name("MB_PortEventInit")
    2394                      .dwattr $C$DW$177, DW_AT_low_pc(_MB_PortEventInit)
    2395                      .dwattr $C$DW$177, DW_AT_high_pc(0x00)
    2396                      .dwattr $C$DW$177, DW_AT_TI_symbol_name("_MB_PortEventInit")
    2397                      .dwattr $C$DW$177, DW_AT_external
    2398                      .dwattr $C$DW$177, DW_AT_TI_begin_file("D:/BM1000_v1.1/sw/drivers/drvic/modbus/mb.c")
    2399                      .dwattr $C$DW$177, DW_AT_TI_begin_line(0xce)
    2400                      .dwattr $C$DW$177, DW_AT_TI_begin_column(0x06)
    2401                      .dwattr $C$DW$177, DW_AT_TI_max_frame_size(-2)
    2402                      .dwpsn  file "D:/BM1000_v1.1/sw/drivers/drvic/modbus/mb.c",line 207,column 1,is_stmt,address _MB_Port
    2403              
    2404                      .dwfde $C$DW$CIE, _MB_PortEventInit
    2405              $C$DW$178       .dwtag  DW_TAG_formal_parameter, DW_AT_name("handle")
    2406                      .dwattr $C$DW$178, DW_AT_TI_symbol_name("_handle")
    2407                      .dwattr $C$DW$178, DW_AT_type(*$C$DW$T$178)
    2408                      .dwattr $C$DW$178, DW_AT_location[DW_OP_reg12]
    2409              
    2410              ;***************************************************************
    2411              ;* FNAME: _MB_PortEventInit             FR SIZE:   0           *
    2412              ;*                                                             *
    2413              ;* FUNCTION ENVIRONMENT                                        *
    2414              ;*                                                             *
    2415              ;* FUNCTION PROPERTIES                                         *
    2416              ;*                            0 Parameter,  0 Auto,  0 SOE     *
    2417              ;***************************************************************
    2418              
    2419              _MB_PortEventInit:
    2420              ;* AR4   assigned to _handle
    2421              $C$DW$179       .dwtag  DW_TAG_variable, DW_AT_name("handle")
    2422                      .dwattr $C$DW$179, DW_AT_TI_symbol_name("_handle")
    2423                      .dwattr $C$DW$179, DW_AT_type(*$C$DW$T$200)
    2424                      .dwattr $C$DW$179, DW_AT_location[DW_OP_reg12]
    2425                      .dwcfi  cfa_offset, -2
    2426                      .dwcfi  save_reg_to_mem, 26, 0
    2427                      .dwcfi  save_reg_to_reg, 78, 26
    2428                      .dwpsn  file "D:/BM1000_v1.1/sw/drivers/drvic/modbus/mb.c",line 210,column 5,is_stmt
    2429 00000152 D01D          MOVB      XAR0,#29              ; [CPU_] |210| 
    2430 00000153 2B94          MOV       *+XAR4[AR0],#0        ; [CPU_] |210| 
TMS320C2000 Assembler PC v6.2.5 Wed Nov 22 14:48:16 2017

Tools Copyright (c) 1996-2014 Texas Instruments Incorporated
C:\Users\wmj\AppData\Local\Temp\0222411                              PAGE   46

    2431              $C$DW$180       .dwtag  DW_TAG_TI_branch
    2432                      .dwattr $C$DW$180, DW_AT_low_pc(0x00)
    2433                      .dwattr $C$DW$180, DW_AT_TI_return
    2434 00000154 0006          LRETR     ; [CPU_] 
    2435                      ; return occurs ; [] 
    2436                      .dwattr $C$DW$177, DW_AT_TI_end_file("D:/BM1000_v1.1/sw/drivers/drvic/modbus/mb.c")
    2437                      .dwattr $C$DW$177, DW_AT_TI_end_line(0xd5)
    2438                      .dwattr $C$DW$177, DW_AT_TI_end_column(0x01)
    2439                      .dwendentry
    2440                      .dwendtag $C$DW$177
    2441              
    2442 00000155               .sect   ".text"
    2443                      .clink
    2444                      .global _MB_PortEventGet
    2445              
    2446              $C$DW$181       .dwtag  DW_TAG_subprogram, DW_AT_name("MB_PortEventGet")
    2447                      .dwattr $C$DW$181, DW_AT_low_pc(_MB_PortEventGet)
    2448                      .dwattr $C$DW$181, DW_AT_high_pc(0x00)
    2449                      .dwattr $C$DW$181, DW_AT_TI_symbol_name("_MB_PortEventGet")
    2450                      .dwattr $C$DW$181, DW_AT_external
    2451                      .dwattr $C$DW$181, DW_AT_type(*$C$DW$T$59)
    2452                      .dwattr $C$DW$181, DW_AT_TI_begin_file("D:/BM1000_v1.1/sw/drivers/drvic/modbus/mb.c")
    2453                      .dwattr $C$DW$181, DW_AT_TI_begin_line(0xdf)
    2454                      .dwattr $C$DW$181, DW_AT_TI_begin_column(0x06)
    2455                      .dwattr $C$DW$181, DW_AT_TI_max_frame_size(-2)
    2456                      .dwpsn  file "D:/BM1000_v1.1/sw/drivers/drvic/modbus/mb.c",line 224,column 1,is_stmt,address _MB_Port
    2457              
    2458                      .dwfde $C$DW$CIE, _MB_PortEventGet
    2459              $C$DW$182       .dwtag  DW_TAG_formal_parameter, DW_AT_name("handle")
    2460                      .dwattr $C$DW$182, DW_AT_TI_symbol_name("_handle")
    2461                      .dwattr $C$DW$182, DW_AT_type(*$C$DW$T$178)
    2462                      .dwattr $C$DW$182, DW_AT_location[DW_OP_reg12]
    2463              $C$DW$183       .dwtag  DW_TAG_formal_parameter, DW_AT_name("eEvent")
    2464                      .dwattr $C$DW$183, DW_AT_TI_symbol_name("_eEvent")
    2465                      .dwattr $C$DW$183, DW_AT_type(*$C$DW$T$184)
    2466                      .dwattr $C$DW$183, DW_AT_location[DW_OP_reg14]
    2467              
    2468              ;***************************************************************
    2469              ;* FNAME: _MB_PortEventGet              FR SIZE:   0           *
    2470              ;*                                                             *
    2471              ;* FUNCTION ENVIRONMENT                                        *
    2472              ;*                                                             *
    2473              ;* FUNCTION PROPERTIES                                         *
    2474              ;*                            0 Parameter,  0 Auto,  0 SOE     *
    2475              ;***************************************************************
    2476              
    2477              _MB_PortEventGet:
    2478              ;* AL    assigned to _xEventHappened
    2479              $C$DW$184       .dwtag  DW_TAG_variable, DW_AT_name("xEventHappened")
    2480                      .dwattr $C$DW$184, DW_AT_TI_symbol_name("_xEventHappened")
    2481                      .dwattr $C$DW$184, DW_AT_type(*$C$DW$T$59)
    2482                      .dwattr $C$DW$184, DW_AT_location[DW_OP_reg0]
    2483              ;* AR5   assigned to _eEvent
    2484              $C$DW$185       .dwtag  DW_TAG_variable, DW_AT_name("eEvent")
    2485                      .dwattr $C$DW$185, DW_AT_TI_symbol_name("_eEvent")
TMS320C2000 Assembler PC v6.2.5 Wed Nov 22 14:48:16 2017

Tools Copyright (c) 1996-2014 Texas Instruments Incorporated
C:\Users\wmj\AppData\Local\Temp\0222411                              PAGE   47

    2486                      .dwattr $C$DW$185, DW_AT_type(*$C$DW$T$185)
    2487                      .dwattr $C$DW$185, DW_AT_location[DW_OP_reg14]
    2488              ;* AR4   assigned to _handle
    2489              $C$DW$186       .dwtag  DW_TAG_variable, DW_AT_name("handle")
    2490                      .dwattr $C$DW$186, DW_AT_TI_symbol_name("_handle")
    2491                      .dwattr $C$DW$186, DW_AT_type(*$C$DW$T$200)
    2492                      .dwattr $C$DW$186, DW_AT_location[DW_OP_reg12]
    2493                      .dwcfi  cfa_offset, -2
    2494                      .dwcfi  save_reg_to_mem, 26, 0
    2495                      .dwcfi  save_reg_to_reg, 78, 26
    2496                      .dwpsn  file "D:/BM1000_v1.1/sw/drivers/drvic/modbus/mb.c",line 228,column 5,is_stmt
    2497 00000155 D01D          MOVB      XAR0,#29              ; [CPU_] |228| 
    2498 00000156 9294          MOV       AL,*+XAR4[AR0]        ; [CPU_] |228| 
    2499 00000157 ED03          BF        $C$L22,NEQ            ; [CPU_] |228| 
    2500                      ; branchcc occurs ; [] |228| 
    2501                      .dwpsn  file "D:/BM1000_v1.1/sw/drivers/drvic/modbus/mb.c",line 226,column 26,is_stmt
    2502 00000158 9A00          MOVB      AL,#0                 ; [CPU_] |226| 
    2503              $C$DW$187       .dwtag  DW_TAG_TI_branch
    2504                      .dwattr $C$DW$187, DW_AT_low_pc(0x00)
    2505                      .dwattr $C$DW$187, DW_AT_TI_return
    2506 00000159 0006          LRETR     ; [CPU_] 
    2507                      ; return occurs ; [] 
    2508 0000015a       $C$L22:    
    2509                      .dwpsn  file "D:/BM1000_v1.1/sw/drivers/drvic/modbus/mb.c",line 230,column 9,is_stmt
    2510 0000015a C5A4          MOVL      XAR7,XAR4             ; [CPU_] |230| 
    2511 0000015b DF1E          ADDB      XAR7,#30              ; [CPU_] |230| 
    2512 0000015c 92C7          MOV       AL,*XAR7              ; [CPU_] |230| 
    2513 0000015d 96C5          MOV       *+XAR5[0],AL          ; [CPU_] |230| 
    2514                      .dwpsn  file "D:/BM1000_v1.1/sw/drivers/drvic/modbus/mb.c",line 232,column 9,is_stmt
    2515 0000015e 9A01          MOVB      AL,#1                 ; [CPU_] |232| 
    2516                      .dwpsn  file "D:/BM1000_v1.1/sw/drivers/drvic/modbus/mb.c",line 231,column 9,is_stmt
    2517 0000015f D01D          MOVB      XAR0,#29              ; [CPU_] |231| 
    2518 00000160 2B94          MOV       *+XAR4[AR0],#0        ; [CPU_] |231| 
    2519              $C$DW$188       .dwtag  DW_TAG_TI_branch
    2520                      .dwattr $C$DW$188, DW_AT_low_pc(0x00)
    2521                      .dwattr $C$DW$188, DW_AT_TI_return
    2522 00000161 0006          LRETR     ; [CPU_] 
    2523                      ; return occurs ; [] 
    2524                      .dwattr $C$DW$181, DW_AT_TI_end_file("D:/BM1000_v1.1/sw/drivers/drvic/modbus/mb.c")
    2525                      .dwattr $C$DW$181, DW_AT_TI_end_line(0xec)
    2526                      .dwattr $C$DW$181, DW_AT_TI_end_column(0x01)
    2527                      .dwendentry
    2528                      .dwendtag $C$DW$181
    2529              
    2530 00000162               .sect   ".text"
    2531                      .clink
    2532                      .global _MB_FuncWriteHoldingRegister
    2533              
    2534              $C$DW$189       .dwtag  DW_TAG_subprogram, DW_AT_name("MB_FuncWriteHoldingRegister")
    2535                      .dwattr $C$DW$189, DW_AT_low_pc(_MB_FuncWriteHoldingRegister)
    2536                      .dwattr $C$DW$189, DW_AT_high_pc(0x00)
    2537                      .dwattr $C$DW$189, DW_AT_TI_symbol_name("_MB_FuncWriteHoldingRegister")
    2538                      .dwattr $C$DW$189, DW_AT_external
    2539                      .dwattr $C$DW$189, DW_AT_TI_begin_file("D:/BM1000_v1.1/sw/drivers/drvic/modbus/mb.c")
    2540                      .dwattr $C$DW$189, DW_AT_TI_begin_line(0x28e)
TMS320C2000 Assembler PC v6.2.5 Wed Nov 22 14:48:16 2017

Tools Copyright (c) 1996-2014 Texas Instruments Incorporated
C:\Users\wmj\AppData\Local\Temp\0222411                              PAGE   48

    2541                      .dwattr $C$DW$189, DW_AT_TI_begin_column(0x06)
    2542                      .dwattr $C$DW$189, DW_AT_TI_max_frame_size(-6)
    2543                      .dwpsn  file "D:/BM1000_v1.1/sw/drivers/drvic/modbus/mb.c",line 655,column 1,is_stmt,address _MB_Func
    2544              
    2545                      .dwfde $C$DW$CIE, _MB_FuncWriteHoldingRegister
    2546              $C$DW$190       .dwtag  DW_TAG_formal_parameter, DW_AT_name("handle")
    2547                      .dwattr $C$DW$190, DW_AT_TI_symbol_name("_handle")
    2548                      .dwattr $C$DW$190, DW_AT_type(*$C$DW$T$178)
    2549                      .dwattr $C$DW$190, DW_AT_location[DW_OP_reg12]
    2550              
    2551              ;***************************************************************
    2552              ;* FNAME: _MB_FuncWriteHoldingRegister  FR SIZE:   4           *
    2553              ;*                                                             *
    2554              ;* FUNCTION ENVIRONMENT                                        *
    2555              ;*                                                             *
    2556              ;* FUNCTION PROPERTIES                                         *
    2557              ;*                            0 Parameter,  0 Auto,  4 SOE     *
    2558              ;***************************************************************
    2559              
    2560              _MB_FuncWriteHoldingRegister:
    2561              ;* AR1   assigned to $O$C12
    2562              ;* AR5   assigned to $O$C13
    2563              ;* AR7   assigned to $O$C14
    2564              ;* AR5   assigned to $O$C15
    2565              ;* AR2   assigned to _obj
    2566              $C$DW$191       .dwtag  DW_TAG_variable, DW_AT_name("obj")
    2567                      .dwattr $C$DW$191, DW_AT_TI_symbol_name("_obj")
    2568                      .dwattr $C$DW$191, DW_AT_type(*$C$DW$T$194)
    2569                      .dwattr $C$DW$191, DW_AT_location[DW_OP_reg8]
    2570              ;* AR2   assigned to _obj
    2571              $C$DW$192       .dwtag  DW_TAG_variable, DW_AT_name("obj")
    2572                      .dwattr $C$DW$192, DW_AT_TI_symbol_name("_obj")
    2573                      .dwattr $C$DW$192, DW_AT_type(*$C$DW$T$194)
    2574                      .dwattr $C$DW$192, DW_AT_location[DW_OP_reg8]
    2575              ;* AR1   assigned to _RegData
    2576              $C$DW$193       .dwtag  DW_TAG_variable, DW_AT_name("RegData")
    2577                      .dwattr $C$DW$193, DW_AT_TI_symbol_name("_RegData")
    2578                      .dwattr $C$DW$193, DW_AT_type(*$C$DW$T$21)
    2579                      .dwattr $C$DW$193, DW_AT_location[DW_OP_reg6]
    2580              ;* AR6   assigned to _RegAddress
    2581              $C$DW$194       .dwtag  DW_TAG_variable, DW_AT_name("RegAddress")
    2582                      .dwattr $C$DW$194, DW_AT_TI_symbol_name("_RegAddress")
    2583                      .dwattr $C$DW$194, DW_AT_type(*$C$DW$T$21)
    2584                      .dwattr $C$DW$194, DW_AT_location[DW_OP_reg16]
    2585              ;* AR4   assigned to _handle
    2586              $C$DW$195       .dwtag  DW_TAG_variable, DW_AT_name("handle")
    2587                      .dwattr $C$DW$195, DW_AT_TI_symbol_name("_handle")
    2588                      .dwattr $C$DW$195, DW_AT_type(*$C$DW$T$200)
    2589                      .dwattr $C$DW$195, DW_AT_location[DW_OP_reg12]
    2590                      .dwcfi  cfa_offset, -2
    2591                      .dwcfi  save_reg_to_mem, 26, 0
    2592                      .dwcfi  save_reg_to_reg, 78, 26
    2593 00000162 B2BD          MOVL      *SP++,XAR1            ; [CPU_] 
    2594                      .dwcfi  save_reg_to_mem, 7, 2
    2595                      .dwcfi  cfa_offset, -4
TMS320C2000 Assembler PC v6.2.5 Wed Nov 22 14:48:16 2017

Tools Copyright (c) 1996-2014 Texas Instruments Incorporated
C:\Users\wmj\AppData\Local\Temp\0222411                              PAGE   49

    2596                      .dwpsn  file "D:/BM1000_v1.1/sw/drivers/drvic/modbus/mb.c",line 662,column 3,is_stmt
    2597 00000163 D00A          MOVB      XAR0,#10              ; [CPU_] |662| 
    2598 00000164 AABD          MOVL      *SP++,XAR2            ; [CPU_] 
    2599                      .dwcfi  save_reg_to_mem, 9, 4
    2600                      .dwcfi  cfa_offset, -6
    2601 00000165 C594          MOVL      XAR7,*+XAR4[AR0]      ; [CPU_] |662| 
    2602 00000166 83A7          MOVL      XAR5,XAR7             ; [CPU_] |662| 
    2603 00000167 DD02          ADDB      XAR5,#2               ; [CPU_] |662| 
    2604 00000168 88C5          MOVZ      AR6,*+XAR5[0]         ; [CPU_] |662| 
    2605                      .dwpsn  file "D:/BM1000_v1.1/sw/drivers/drvic/modbus/mb.c",line 663,column 3,is_stmt
    2606 00000169 5603          MOV       ACC,AR6 << #8         ; [CPU_] |663| 
         0000016a 08A6 
    2607 0000016b CACD          OR        AL,*+XAR5[1]          ; [CPU_] |663| 
    2608                      .dwpsn  file "D:/BM1000_v1.1/sw/drivers/drvic/modbus/mb.c",line 667,column 3,is_stmt
    2609 0000016c 83A7          MOVL      XAR5,XAR7             ; [CPU_] |667| 
    2610 0000016d DD04          ADDB      XAR5,#4               ; [CPU_] |667| 
    2611 0000016e 59C5          MOVZ      AR1,*+XAR5[0]         ; [CPU_] |667| 
    2612                      .dwpsn  file "D:/BM1000_v1.1/sw/drivers/drvic/modbus/mb.c",line 663,column 3,is_stmt
    2613 0000016f 88A9          MOVZ      AR6,AL                ; [CPU_] |663| 
    2614                      .dwpsn  file "D:/BM1000_v1.1/sw/drivers/drvic/modbus/mb.c",line 668,column 3,is_stmt
    2615 00000170 5603          MOV       ACC,AR1 << #8         ; [CPU_] |668| 
         00000171 08A1 
    2616                      .dwpsn  file "D:/BM1000_v1.1/sw/drivers/drvic/modbus/mb.c",line 671,column 3,is_stmt
    2617 00000172 93A6          MOV       AH,AR6                ; [CPU_] |671| 
    2618                      .dwpsn  file "D:/BM1000_v1.1/sw/drivers/drvic/modbus/mb.c",line 668,column 3,is_stmt
    2619 00000173 CACD          OR        AL,*+XAR5[1]          ; [CPU_] |668| 
    2620 00000174 59A9          MOVZ      AR1,AL                ; [CPU_] |668| 
    2621                      .dwpsn  file "D:/BM1000_v1.1/sw/drivers/drvic/modbus/mb.c",line 671,column 3,is_stmt
    2622 00000175 5342          CMPB      AH,#66                ; [CPU_] |671| 
    2623 00000176 6220          B         $C$L24,GT             ; [CPU_] |671| 
    2624                      ; branchcc occurs ; [] |671| 
    2625 00000177 5342          CMPB      AH,#66                ; [CPU_] |671| 
    2626 00000178 EC73          BF        $C$L35,EQ             ; [CPU_] |671| 
    2627                      ; branchcc occurs ; [] |671| 
    2628 00000179 5333          CMPB      AH,#51                ; [CPU_] |671| 
    2629 0000017a 6212          B         $C$L23,GT             ; [CPU_] |671| 
    2630                      ; branchcc occurs ; [] |671| 
    2631 0000017b 5333          CMPB      AH,#51                ; [CPU_] |671| 
    2632 0000017c 56C1          BF        $C$L40,EQ             ; [CPU_] |671| 
         0000017d 0096 
    2633                      ; branchcc occurs ; [] |671| 
    2634 0000017e 5304          CMPB      AH,#4                 ; [CPU_] |671| 
    2635 0000017f 56C1          BF        $C$L47,EQ             ; [CPU_] |671| 
         00000180 00A8 
    2636                      ; branchcc occurs ; [] |671| 
    2637 00000181 5330          CMPB      AH,#48                ; [CPU_] |671| 
    2638 00000182 56C1          BF        $C$L45,EQ             ; [CPU_] |671| 
         00000183 009E 
    2639                      ; branchcc occurs ; [] |671| 
    2640 00000184 5331          CMPB      AH,#49                ; [CPU_] |671| 
    2641 00000185 56C1          BF        $C$L44,EQ             ; [CPU_] |671| 
         00000186 0099 
    2642                      ; branchcc occurs ; [] |671| 
    2643 00000187 5332          CMPB      AH,#50                ; [CPU_] |671| 
    2644 00000188 56C1          BF        $C$L43,EQ             ; [CPU_] |671| 
TMS320C2000 Assembler PC v6.2.5 Wed Nov 22 14:48:16 2017

Tools Copyright (c) 1996-2014 Texas Instruments Incorporated
C:\Users\wmj\AppData\Local\Temp\0222411                              PAGE   50

         00000189 0094 
    2645                      ; branchcc occurs ; [] |671| 
    2646 0000018a FFEF          B         $C$L48,UNC            ; [CPU_] |671| 
         0000018b 00A0 
    2647                      ; branch occurs ; [] |671| 
    2648 0000018c       $C$L23:    
    2649 0000018c 5334          CMPB      AH,#52                ; [CPU_] |671| 
    2650 0000018d EC76          BF        $C$L39,EQ             ; [CPU_] |671| 
    2651                      ; branchcc occurs ; [] |671| 
    2652 0000018e 5335          CMPB      AH,#53                ; [CPU_] |671| 
    2653 0000018f EC62          BF        $C$L38,EQ             ; [CPU_] |671| 
    2654                      ; branchcc occurs ; [] |671| 
    2655 00000190 5340          CMPB      AH,#64                ; [CPU_] |671| 
    2656 00000191 EC5E          BF        $C$L37,EQ             ; [CPU_] |671| 
    2657                      ; branchcc occurs ; [] |671| 
    2658 00000192 5341          CMPB      AH,#65                ; [CPU_] |671| 
    2659 00000193 EC5A          BF        $C$L36,EQ             ; [CPU_] |671| 
    2660                      ; branchcc occurs ; [] |671| 
    2661 00000194 FFEF          B         $C$L48,UNC            ; [CPU_] |671| 
         00000195 0096 
    2662                      ; branch occurs ; [] |671| 
    2663 00000196       $C$L24:    
    2664 00000196 1BA6          CMP       AR6,#261              ; [CPU_] |671| 
         00000197 0105 
    2665 00000198 6216          B         $C$L25,GT             ; [CPU_] |671| 
    2666                      ; branchcc occurs ; [] |671| 
    2667 00000199 1BA6          CMP       AR6,#261              ; [CPU_] |671| 
         0000019a 0105 
    2668 0000019b EC41          BF        $C$L29,EQ             ; [CPU_] |671| 
    2669                      ; branchcc occurs ; [] |671| 
    2670 0000019c 5343          CMPB      AH,#67                ; [CPU_] |671| 
    2671 0000019d EC4C          BF        $C$L34,EQ             ; [CPU_] |671| 
    2672                      ; branchcc occurs ; [] |671| 
    2673 0000019e FF20          MOV       ACC,#258              ; [CPU_] |671| 
         0000019f 0102 
    2674 000001a0 80A6          MOVZ      AR7,AR6               ; [CPU_] |671| 
    2675 000001a1 0FA7          CMPL      ACC,XAR7              ; [CPU_] |671| 
    2676 000001a2 EC45          BF        $C$L33,EQ             ; [CPU_] |671| 
    2677                      ; branchcc occurs ; [] |671| 
    2678 000001a3 FF20          MOV       ACC,#259              ; [CPU_] |671| 
         000001a4 0103 
    2679 000001a5 80A6          MOVZ      AR7,AR6               ; [CPU_] |671| 
    2680 000001a6 0FA7          CMPL      ACC,XAR7              ; [CPU_] |671| 
    2681 000001a7 EC3E          BF        $C$L32,EQ             ; [CPU_] |671| 
    2682                      ; branchcc occurs ; [] |671| 
    2683 000001a8 FF20          MOV       ACC,#260              ; [CPU_] |671| 
         000001a9 0104 
    2684 000001aa 88A6          MOVZ      AR6,AR6               ; [CPU_] |671| 
    2685 000001ab 0FA6          CMPL      ACC,XAR6              ; [CPU_] |671| 
    2686 000001ac EC34          BF        $C$L31,EQ             ; [CPU_] |671| 
    2687                      ; branchcc occurs ; [] |671| 
    2688 000001ad 6F7D          B         $C$L48,UNC            ; [CPU_] |671| 
    2689                      ; branch occurs ; [] |671| 
    2690 000001ae       $C$L25:    
    2691 000001ae FF20          MOV       ACC,#512              ; [CPU_] |671| 
TMS320C2000 Assembler PC v6.2.5 Wed Nov 22 14:48:16 2017

Tools Copyright (c) 1996-2014 Texas Instruments Incorporated
C:\Users\wmj\AppData\Local\Temp\0222411                              PAGE   51

         000001af 0200 
    2692 000001b0 80A6          MOVZ      AR7,AR6               ; [CPU_] |671| 
    2693 000001b1 0FA7          CMPL      ACC,XAR7              ; [CPU_] |671| 
    2694 000001b2 EC25          BF        $C$L28,EQ             ; [CPU_] |671| 
    2695                      ; branchcc occurs ; [] |671| 
    2696 000001b3 FF20          MOV       ACC,#513              ; [CPU_] |671| 
         000001b4 0201 
    2697 000001b5 80A6          MOVZ      AR7,AR6               ; [CPU_] |671| 
    2698 000001b6 0FA7          CMPL      ACC,XAR7              ; [CPU_] |671| 
    2699 000001b7 EC17          BF        $C$L27,EQ             ; [CPU_] |671| 
    2700                      ; branchcc occurs ; [] |671| 
    2701 000001b8 FF20          MOV       ACC,#514              ; [CPU_] |671| 
         000001b9 0202 
    2702 000001ba 88A6          MOVZ      AR6,AR6               ; [CPU_] |671| 
    2703 000001bb 0FA6          CMPL      ACC,XAR6              ; [CPU_] |671| 
    2704 000001bc ED6E          BF        $C$L48,NEQ            ; [CPU_] |671| 
    2705                      ; branchcc occurs ; [] |671| 
    2706 000001bd 3B01          SETC      SXM                   ; [CPU_] 
    2707                      .dwpsn  file "D:/BM1000_v1.1/sw/drivers/drvic/fsm.h",line 596,column 16,is_stmt
    2708 000001be 86D4          MOVL      XAR2,*+XAR4[2]        ; [CPU_] |596| 
    2709                      .dwpsn  file "D:/BM1000_v1.1/sw/drivers/drvic/fsm.h",line 601,column 3,is_stmt
    2710 000001bf 85A1          MOV       ACC,AR1               ; [CPU_] |601| 
    2711 000001c0 8BA9          MOVL      XAR1,ACC              ; [CPU_] |601| 
    2712              $C$DW$196       .dwtag  DW_TAG_TI_branch
    2713                      .dwattr $C$DW$196, DW_AT_low_pc(0x00)
    2714                      .dwattr $C$DW$196, DW_AT_name("__IQ7int")
    2715                      .dwattr $C$DW$196, DW_AT_TI_call
    2716 000001c1 7640!         LCR       #__IQ7int             ; [CPU_] |601| 
         000001c2 0000 
    2717                      ; call occurs [#__IQ7int] ; [] |601| 
    2718 000001c3 D01A          MOVB      XAR0,#26              ; [CPU_] |601| 
    2719 000001c4 1E92          MOVL      *+XAR2[AR0],ACC       ; [CPU_] |601| 
    2720 000001c5 B2A9          MOVL      ACC,XAR1              ; [CPU_] |601| 
    2721                      .dwpsn  file "D:/BM1000_v1.1/sw/drivers/drvic/fsm.h",line 602,column 3,is_stmt
    2722              $C$DW$197       .dwtag  DW_TAG_TI_branch
    2723                      .dwattr $C$DW$197, DW_AT_low_pc(0x00)
    2724                      .dwattr $C$DW$197, DW_AT_name("__IQ7frac")
    2725                      .dwattr $C$DW$197, DW_AT_TI_call
    2726 000001c6 7640!         LCR       #__IQ7frac            ; [CPU_] |602| 
         000001c7 0000 
    2727                      ; call occurs [#__IQ7frac] ; [] |602| 
    2728 000001c8 28AC          MOV       T,#17                 ; [CPU_] |602| 
         000001c9 0011 
    2729 000001ca 563B          LSLL      ACC,T                 ; [CPU_] |602| 
    2730 000001cb       $C$L26:    
    2731 000001cb D01C          MOVB      XAR0,#28              ; [CPU_] |602| 
    2732 000001cc 1E92          MOVL      *+XAR2[AR0],ACC       ; [CPU_] |602| 
    2733                      .dwpsn  file "D:/BM1000_v1.1/sw/drivers/drvic/fsm.h",line 604,column 3,is_stmt
    2734 000001cd 6F5D          B         $C$L48,UNC            ; [CPU_] |604| 
    2735                      ; branch occurs ; [] |604| 
    2736 000001ce       $C$L27:    
    2737 000001ce 3B01          SETC      SXM                   ; [CPU_] 
    2738                      .dwpsn  file "D:/BM1000_v1.1/sw/drivers/drvic/fsm.h",line 589,column 3,is_stmt
    2739 000001cf 28AC          MOV       T,#17                 ; [CPU_] |589| 
         000001d0 0011 
TMS320C2000 Assembler PC v6.2.5 Wed Nov 22 14:48:16 2017

Tools Copyright (c) 1996-2014 Texas Instruments Incorporated
C:\Users\wmj\AppData\Local\Temp\0222411                              PAGE   52

    2740                      .dwpsn  file "D:/BM1000_v1.1/sw/drivers/drvic/fsm.h",line 587,column 16,is_stmt
    2741 000001d1 86D4          MOVL      XAR2,*+XAR4[2]        ; [CPU_] |587| 
    2742                      .dwpsn  file "D:/BM1000_v1.1/sw/drivers/drvic/fsm.h",line 589,column 3,is_stmt
    2743 000001d2 85A1          MOV       ACC,AR1               ; [CPU_] |589| 
    2744 000001d3 563B          LSLL      ACC,T                 ; [CPU_] |589| 
    2745              $C$DW$198       .dwtag  DW_TAG_TI_branch
    2746                      .dwattr $C$DW$198, DW_AT_low_pc(0x00)
    2747                      .dwattr $C$DW$198, DW_AT_name("__IQ24frac")
    2748                      .dwattr $C$DW$198, DW_AT_TI_call
    2749 000001d4 7640!         LCR       #__IQ24frac           ; [CPU_] |589| 
         000001d5 0000 
    2750                      ; call occurs [#__IQ24frac] ; [] |589| 
    2751                      .dwpsn  file "D:/BM1000_v1.1/sw/drivers/drvic/fsm.h",line 591,column 3,is_stmt
    2752 000001d6 6FF5          B         $C$L26,UNC            ; [CPU_] |591| 
    2753                      ; branch occurs ; [] |591| 
    2754 000001d7       $C$L28:    
    2755 000001d7 3B01          SETC      SXM                   ; [CPU_] 
    2756                      .dwpsn  file "D:/BM1000_v1.1/sw/drivers/drvic/fsm.h",line 580,column 3,is_stmt
    2757 000001d8 8AD4          MOVL      XAR4,*+XAR4[2]        ; [CPU_] |580| 
    2758 000001d9 D01A          MOVB      XAR0,#26              ; [CPU_] |580| 
    2759 000001da 85A1          MOV       ACC,AR1               ; [CPU_] |580| 
    2760                      .dwpsn  file "D:/BM1000_v1.1/sw/drivers/drvic/fsm.h",line 582,column 3,is_stmt
    2761 000001db 6F3F          B         $C$L42,UNC            ; [CPU_] |582| 
    2762                      ; branch occurs ; [] |582| 
    2763 000001dc       $C$L29:    
    2764                      .dwpsn  file "D:/BM1000_v1.1/sw/drivers/drvic/fsm.h",line 531,column 3,is_stmt
    2765 000001dc D011          MOVB      XAR0,#17              ; [CPU_] |531| 
    2766 000001dd       $C$L30:    
    2767 000001dd 8AD4          MOVL      XAR4,*+XAR4[2]        ; [CPU_] |531| 
    2768 000001de 7994          MOV       *+XAR4[AR0],AR1       ; [CPU_] |531| 
    2769                      .dwpsn  file "D:/BM1000_v1.1/sw/drivers/drvic/fsm.h",line 533,column 3,is_stmt
    2770 000001df 6F4B          B         $C$L48,UNC            ; [CPU_] |533| 
    2771                      ; branch occurs ; [] |533| 
    2772 000001e0       $C$L31:    
    2773                      .dwpsn  file "D:/BM1000_v1.1/sw/drivers/drvic/modbus/mb.c",line 707,column 34,is_stmt
    2774 000001e0 8AD4          MOVL      XAR4,*+XAR4[2]        ; [CPU_] |707| 
    2775 000001e1 92A1          MOV       AL,AR1                ; [CPU_] |707| 
    2776              $C$DW$199       .dwtag  DW_TAG_TI_branch
    2777                      .dwattr $C$DW$199, DW_AT_low_pc(0x00)
    2778                      .dwattr $C$DW$199, DW_AT_name("_FSM_485Edit_State_Box")
    2779                      .dwattr $C$DW$199, DW_AT_TI_call
    2780 000001e2 7640!         LCR       #_FSM_485Edit_State_Box ; [CPU_] |707| 
         000001e3 0000 
    2781                      ; call occurs [#_FSM_485Edit_State_Box] ; [] |707| 
    2782                      .dwpsn  file "D:/BM1000_v1.1/sw/drivers/drvic/modbus/mb.c",line 707,column 83,is_stmt
    2783 000001e4 6F46          B         $C$L48,UNC            ; [CPU_] |707| 
    2784                      ; branch occurs ; [] |707| 
    2785 000001e5       $C$L32:    
    2786                      .dwpsn  file "D:/BM1000_v1.1/sw/drivers/drvic/fsm.h",line 515,column 3,is_stmt
    2787 000001e5 D010          MOVB      XAR0,#16              ; [CPU_] |515| 
    2788                      .dwpsn  file "D:/BM1000_v1.1/sw/drivers/drvic/fsm.h",line 517,column 3,is_stmt
    2789 000001e6 6FF7          B         $C$L30,UNC            ; [CPU_] |517| 
    2790                      ; branch occurs ; [] |517| 
    2791 000001e7       $C$L33:    
    2792                      .dwpsn  file "D:/BM1000_v1.1/sw/drivers/drvic/fsm.h",line 548,column 3,is_stmt
TMS320C2000 Assembler PC v6.2.5 Wed Nov 22 14:48:16 2017

Tools Copyright (c) 1996-2014 Texas Instruments Incorporated
C:\Users\wmj\AppData\Local\Temp\0222411                              PAGE   53

    2793 000001e7 D00F          MOVB      XAR0,#15              ; [CPU_] |548| 
    2794                      .dwpsn  file "D:/BM1000_v1.1/sw/drivers/drvic/fsm.h",line 550,column 3,is_stmt
    2795 000001e8 6FF5          B         $C$L30,UNC            ; [CPU_] |550| 
    2796                      ; branch occurs ; [] |550| 
    2797 000001e9       $C$L34:    
    2798                      .dwpsn  file "D:/BM1000_v1.1/sw/drivers/drvic/motor.h",line 632,column 3,is_stmt
    2799 000001e9 D044          MOVB      XAR0,#68              ; [CPU_] |632| 
    2800                      .dwpsn  file "D:/BM1000_v1.1/sw/drivers/drvic/motor.h",line 634,column 3,is_stmt
    2801 000001ea 6F37          B         $C$L46,UNC            ; [CPU_] |634| 
    2802                      ; branch occurs ; [] |634| 
    2803 000001eb       $C$L35:    
    2804                      .dwpsn  file "D:/BM1000_v1.1/sw/drivers/drvic/motor.h",line 623,column 3,is_stmt
    2805 000001eb D042          MOVB      XAR0,#66              ; [CPU_] |623| 
    2806                      .dwpsn  file "D:/BM1000_v1.1/sw/drivers/drvic/motor.h",line 625,column 3,is_stmt
    2807 000001ec 6F35          B         $C$L46,UNC            ; [CPU_] |625| 
    2808                      ; branch occurs ; [] |625| 
    2809 000001ed       $C$L36:    
    2810                      .dwpsn  file "D:/BM1000_v1.1/sw/drivers/drvic/motor.h",line 650,column 3,is_stmt
    2811 000001ed D040          MOVB      XAR0,#64              ; [CPU_] |650| 
    2812                      .dwpsn  file "D:/BM1000_v1.1/sw/drivers/drvic/motor.h",line 652,column 3,is_stmt
    2813 000001ee 6F33          B         $C$L46,UNC            ; [CPU_] |652| 
    2814                      ; branch occurs ; [] |652| 
    2815 000001ef       $C$L37:    
    2816                      .dwpsn  file "D:/BM1000_v1.1/sw/drivers/drvic/motor.h",line 641,column 3,is_stmt
    2817 000001ef D03E          MOVB      XAR0,#62              ; [CPU_] |641| 
    2818                      .dwpsn  file "D:/BM1000_v1.1/sw/drivers/drvic/motor.h",line 643,column 3,is_stmt
    2819 000001f0 6F31          B         $C$L46,UNC            ; [CPU_] |643| 
    2820                      ; branch occurs ; [] |643| 
    2821 000001f1       $C$L38:    
    2822 000001f1 3B01          SETC      SXM                   ; [CPU_] 
    2823                      .dwpsn  file "D:/BM1000_v1.1/sw/drivers/drvic/motor.h",line 698,column 3,is_stmt
    2824 000001f2 2BAB          MOV       PL,#0                 ; [CPU_] |698| 
    2825 000001f3 28AA          MOV       PH,#384               ; [CPU_] |698| 
         000001f4 0180 
    2826 000001f5 28AC          MOV       T,#17                 ; [CPU_] |698| 
         000001f6 0011 
    2827 000001f7 85A1          MOV       ACC,AR1               ; [CPU_] |698| 
    2828 000001f8 A9A6          MOVL      XAR6,P                ; [CPU_] |698| 
    2829 000001f9 D056          MOVB      XAR0,#86              ; [CPU_] |698| 
    2830 000001fa 2BAB          MOV       PL,#0                 ; [CPU_] |698| 
    2831 000001fb 28AA          MOV       PH,#65152             ; [CPU_] |698| 
         000001fc FE80 
    2832 000001fd 563B          LSLL      ACC,T                 ; [CPU_] |698| 
    2833 000001fe 5650          MINL      ACC,XAR6              ; [CPU_] |698| 
         000001ff 00A6 
    2834 00000200 5661          MAXL      ACC,P                 ; [CPU_] |698| 
         00000201 00AB 
    2835                      .dwpsn  file "D:/BM1000_v1.1/sw/drivers/drvic/motor.h",line 700,column 3,is_stmt
    2836 00000202 6F17          B         $C$L41,UNC            ; [CPU_] |700| 
    2837                      ; branch occurs ; [] |700| 
    2838 00000203       $C$L39:    
    2839 00000203 3B01          SETC      SXM                   ; [CPU_] 
    2840                      .dwpsn  file "D:/BM1000_v1.1/sw/drivers/drvic/motor.h",line 716,column 3,is_stmt
    2841 00000204 28AC          MOV       T,#17                 ; [CPU_] |716| 
         00000205 0011 
TMS320C2000 Assembler PC v6.2.5 Wed Nov 22 14:48:16 2017

Tools Copyright (c) 1996-2014 Texas Instruments Incorporated
C:\Users\wmj\AppData\Local\Temp\0222411                              PAGE   54

    2842 00000206 2BAB          MOV       PL,#0                 ; [CPU_] |716| 
    2843 00000207 28AA          MOV       PH,#896               ; [CPU_] |716| 
         00000208 0380 
    2844 00000209 85A1          MOV       ACC,AR1               ; [CPU_] |716| 
    2845 0000020a BE00          MOVB      XAR6,#0               ; [CPU_] |716| 
    2846 0000020b D022          MOVB      XAR0,#34              ; [CPU_] |716| 
    2847 0000020c 563B          LSLL      ACC,T                 ; [CPU_] |716| 
    2848 0000020d 5650          MINL      ACC,P                 ; [CPU_] |716| 
         0000020e 00AB 
    2849 0000020f 5661          MAXL      ACC,XAR6              ; [CPU_] |716| 
         00000210 00A6 
    2850                      .dwpsn  file "D:/BM1000_v1.1/sw/drivers/drvic/motor.h",line 718,column 3,is_stmt
    2851 00000211 6F08          B         $C$L41,UNC            ; [CPU_] |718| 
    2852                      ; branch occurs ; [] |718| 
    2853 00000212       $C$L40:    
    2854 00000212 3B01          SETC      SXM                   ; [CPU_] 
    2855                      .dwpsn  file "D:/BM1000_v1.1/sw/drivers/drvic/motor.h",line 613,column 3,is_stmt
    2856 00000213 28AC          MOV       T,#17                 ; [CPU_] |613| 
         00000214 0011 
    2857 00000215 85A1          MOV       ACC,AR1               ; [CPU_] |613| 
    2858 00000216 D020          MOVB      XAR0,#32              ; [CPU_] |613| 
    2859 00000217 563B          LSLL      ACC,T                 ; [CPU_] |613| 
    2860 00000218 FF43          SFR       ACC,4                 ; [CPU_] |613| 
    2861 00000219       $C$L41:    
    2862 00000219 8AC4          MOVL      XAR4,*+XAR4[0]        ; [CPU_] |613| 
    2863 0000021a       $C$L42:    
    2864 0000021a 1E94          MOVL      *+XAR4[AR0],ACC       ; [CPU_] |613| 
    2865                      .dwpsn  file "D:/BM1000_v1.1/sw/drivers/drvic/motor.h",line 615,column 3,is_stmt
    2866 0000021b 6F0F          B         $C$L48,UNC            ; [CPU_] |615| 
    2867                      ; branch occurs ; [] |615| 
    2868 0000021c       $C$L43:    
    2869                      .dwpsn  file "D:/BM1000_v1.1/sw/drivers/drvic/motor.h",line 604,column 3,is_stmt
    2870 0000021c D01E          MOVB      XAR0,#30              ; [CPU_] |604| 
    2871                      .dwpsn  file "D:/BM1000_v1.1/sw/drivers/drvic/motor.h",line 606,column 3,is_stmt
    2872 0000021d 6F04          B         $C$L46,UNC            ; [CPU_] |606| 
    2873                      ; branch occurs ; [] |606| 
    2874 0000021e       $C$L44:    
    2875                      .dwpsn  file "D:/BM1000_v1.1/sw/drivers/drvic/motor.h",line 595,column 3,is_stmt
    2876 0000021e D01C          MOVB      XAR0,#28              ; [CPU_] |595| 
    2877                      .dwpsn  file "D:/BM1000_v1.1/sw/drivers/drvic/motor.h",line 597,column 3,is_stmt
    2878 0000021f 6F02          B         $C$L46,UNC            ; [CPU_] |597| 
    2879                      ; branch occurs ; [] |597| 
    2880 00000220       $C$L45:    
    2881                      .dwpsn  file "D:/BM1000_v1.1/sw/drivers/drvic/motor.h",line 555,column 4,is_stmt
    2882 00000220 D01A          MOVB      XAR0,#26              ; [CPU_] |555| 
    2883 00000221       $C$L46:    
    2884 00000221 3B01          SETC      SXM                   ; [CPU_] 
    2885 00000222 28AC          MOV       T,#17                 ; [CPU_] |555| 
         00000223 0011 
    2886 00000224 85A1          MOV       ACC,AR1               ; [CPU_] |555| 
    2887 00000225 563B          LSLL      ACC,T                 ; [CPU_] |555| 
    2888                      .dwpsn  file "D:/BM1000_v1.1/sw/drivers/drvic/motor.h",line 557,column 4,is_stmt
    2889 00000226 6FF3          B         $C$L41,UNC            ; [CPU_] |557| 
    2890                      ; branch occurs ; [] |557| 
    2891 00000227       $C$L47:    
TMS320C2000 Assembler PC v6.2.5 Wed Nov 22 14:48:16 2017

Tools Copyright (c) 1996-2014 Texas Instruments Incorporated
C:\Users\wmj\AppData\Local\Temp\0222411                              PAGE   55

    2892                      .dwpsn  file "D:/BM1000_v1.1/sw/drivers/drvic/modbus/mb.c",line 675,column 30,is_stmt
    2893 00000227 8AC4          MOVL      XAR4,*+XAR4[0]        ; [CPU_] |675| 
    2894              $C$DW$200       .dwtag  DW_TAG_TI_branch
    2895                      .dwattr $C$DW$200, DW_AT_low_pc(0x00)
    2896                      .dwattr $C$DW$200, DW_AT_name("_MOTOR_setMotorFlag")
    2897                      .dwattr $C$DW$200, DW_AT_TI_call
    2898 00000228 7640!         LCR       #_MOTOR_setMotorFlag  ; [CPU_] |675| 
         00000229 0000 
    2899                      ; call occurs [#_MOTOR_setMotorFlag] ; [] |675| 
    2900 0000022a       $C$L48:    
    2901 0000022a 86BE          MOVL      XAR2,*--SP            ; [CPU_] 
    2902                      .dwcfi  cfa_offset, -4
    2903                      .dwcfi  restore_reg, 9
    2904 0000022b 8BBE          MOVL      XAR1,*--SP            ; [CPU_] 
    2905                      .dwcfi  cfa_offset, -2
    2906                      .dwcfi  restore_reg, 7
    2907              $C$DW$201       .dwtag  DW_TAG_TI_branch
    2908                      .dwattr $C$DW$201, DW_AT_low_pc(0x00)
    2909                      .dwattr $C$DW$201, DW_AT_TI_return
    2910 0000022c 0006          LRETR     ; [CPU_] 
    2911                      ; return occurs ; [] 
    2912                      .dwattr $C$DW$189, DW_AT_TI_end_file("D:/BM1000_v1.1/sw/drivers/drvic/modbus/mb.c")
    2913                      .dwattr $C$DW$189, DW_AT_TI_end_line(0x2d9)
    2914                      .dwattr $C$DW$189, DW_AT_TI_end_column(0x01)
    2915                      .dwendentry
    2916                      .dwendtag $C$DW$189
    2917              
    2918 0000022d               .sect   ".text"
    2919                      .clink
    2920                      .global _MB_FuncWriteCoilsRegister
    2921              
    2922              $C$DW$202       .dwtag  DW_TAG_subprogram, DW_AT_name("MB_FuncWriteCoilsRegister")
    2923                      .dwattr $C$DW$202, DW_AT_low_pc(_MB_FuncWriteCoilsRegister)
    2924                      .dwattr $C$DW$202, DW_AT_high_pc(0x00)
    2925                      .dwattr $C$DW$202, DW_AT_TI_symbol_name("_MB_FuncWriteCoilsRegister")
    2926                      .dwattr $C$DW$202, DW_AT_external
    2927                      .dwattr $C$DW$202, DW_AT_TI_begin_file("D:/BM1000_v1.1/sw/drivers/drvic/modbus/mb.c")
    2928                      .dwattr $C$DW$202, DW_AT_TI_begin_line(0x2dc)
    2929                      .dwattr $C$DW$202, DW_AT_TI_begin_column(0x06)
    2930                      .dwattr $C$DW$202, DW_AT_TI_max_frame_size(-2)
    2931                      .dwpsn  file "D:/BM1000_v1.1/sw/drivers/drvic/modbus/mb.c",line 733,column 1,is_stmt,address _MB_Func
    2932              
    2933                      .dwfde $C$DW$CIE, _MB_FuncWriteCoilsRegister
    2934              $C$DW$203       .dwtag  DW_TAG_formal_parameter, DW_AT_name("handle")
    2935                      .dwattr $C$DW$203, DW_AT_TI_symbol_name("_handle")
    2936                      .dwattr $C$DW$203, DW_AT_type(*$C$DW$T$178)
    2937                      .dwattr $C$DW$203, DW_AT_location[DW_OP_reg12]
    2938              
    2939              ;***************************************************************
    2940              ;* FNAME: _MB_FuncWriteCoilsRegister    FR SIZE:   0           *
    2941              ;*                                                             *
    2942              ;* FUNCTION ENVIRONMENT                                        *
    2943              ;*                                                             *
    2944              ;* FUNCTION PROPERTIES                                         *
    2945              ;*                            0 Parameter,  0 Auto,  0 SOE     *
TMS320C2000 Assembler PC v6.2.5 Wed Nov 22 14:48:16 2017

Tools Copyright (c) 1996-2014 Texas Instruments Incorporated
C:\Users\wmj\AppData\Local\Temp\0222411                              PAGE   56

    2946              ;***************************************************************
    2947              
    2948              _MB_FuncWriteCoilsRegister:
    2949              ;* AR4   assigned to $O$C1
    2950              ;* AR4   assigned to $O$C2
    2951              ;* AR5   assigned to $O$C3
    2952              ;* AR4   assigned to _handle
    2953              $C$DW$204       .dwtag  DW_TAG_variable, DW_AT_name("handle")
    2954                      .dwattr $C$DW$204, DW_AT_TI_symbol_name("_handle")
    2955                      .dwattr $C$DW$204, DW_AT_type(*$C$DW$T$200)
    2956                      .dwattr $C$DW$204, DW_AT_location[DW_OP_reg12]
    2957              ;* AL    assigned to _CmdWord
    2958              $C$DW$205       .dwtag  DW_TAG_variable, DW_AT_name("CmdWord")
    2959                      .dwattr $C$DW$205, DW_AT_TI_symbol_name("_CmdWord")
    2960                      .dwattr $C$DW$205, DW_AT_type(*$C$DW$T$21)
    2961                      .dwattr $C$DW$205, DW_AT_location[DW_OP_reg0]
    2962                      .dwcfi  cfa_offset, -2
    2963                      .dwcfi  save_reg_to_mem, 26, 0
    2964                      .dwcfi  save_reg_to_reg, 78, 26
    2965                      .dwpsn  file "D:/BM1000_v1.1/sw/drivers/drvic/modbus/mb.c",line 740,column 3,is_stmt
    2966 0000022d D00A          MOVB      XAR0,#10              ; [CPU_] |740| 
    2967 0000022e 8394          MOVL      XAR5,*+XAR4[AR0]      ; [CPU_] |740| 
    2968 0000022f DD02          ADDB      XAR5,#2               ; [CPU_] |740| 
    2969 00000230 92C5          MOV       AL,*+XAR5[0]          ; [CPU_] |740| 
    2970                      .dwpsn  file "D:/BM1000_v1.1/sw/drivers/drvic/modbus/mb.c",line 741,column 3,is_stmt
    2971 00000231 5603          MOV       ACC,AL << #8          ; [CPU_] |741| 
         00000232 08A9 
    2972 00000233 CACD          OR        AL,*+XAR5[1]          ; [CPU_] |741| 
    2973                      .dwpsn  file "D:/BM1000_v1.1/sw/drivers/drvic/modbus/mb.c",line 749,column 3,is_stmt
    2974 00000234 88A9          MOVZ      AR6,AL                ; [CPU_] |749| 
    2975 00000235 1BA6          CMP       AR6,#8210             ; [CPU_] |749| 
         00000236 2012 
    2976 00000237 622A          B         $C$L50,GT             ; [CPU_] |749| 
    2977                      ; branchcc occurs ; [] |749| 
    2978 00000238 1BA6          CMP       AR6,#8210             ; [CPU_] |749| 
         00000239 2012 
    2979 0000023a EC53          BF        $C$L54,EQ             ; [CPU_] |749| 
    2980                      ; branchcc occurs ; [] |749| 
    2981 0000023b 1BA6          CMP       AR6,#8195             ; [CPU_] |749| 
         0000023c 2003 
    2982 0000023d 6214          B         $C$L49,GT             ; [CPU_] |749| 
    2983                      ; branchcc occurs ; [] |749| 
    2984 0000023e 1BA6          CMP       AR6,#8195             ; [CPU_] |749| 
         0000023f 2003 
    2985 00000240 EC70          BF        $C$L66,EQ             ; [CPU_] |749| 
    2986                      ; branchcc occurs ; [] |749| 
    2987 00000241 FF20          MOV       ACC,#8192             ; [CPU_] |749| 
         00000242 2000 
    2988 00000243 80A6          MOVZ      AR7,AR6               ; [CPU_] |749| 
    2989 00000244 0FA7          CMPL      ACC,XAR7              ; [CPU_] |749| 
    2990 00000245 EC74          BF        $C$L70,EQ             ; [CPU_] |749| 
    2991                      ; branchcc occurs ; [] |749| 
    2992 00000246 FF20          MOV       ACC,#8193             ; [CPU_] |749| 
         00000247 2001 
    2993 00000248 80A6          MOVZ      AR7,AR6               ; [CPU_] |749| 
TMS320C2000 Assembler PC v6.2.5 Wed Nov 22 14:48:16 2017

Tools Copyright (c) 1996-2014 Texas Instruments Incorporated
C:\Users\wmj\AppData\Local\Temp\0222411                              PAGE   57

    2994 00000249 0FA7          CMPL      ACC,XAR7              ; [CPU_] |749| 
    2995 0000024a EC6C          BF        $C$L68,EQ             ; [CPU_] |749| 
    2996                      ; branchcc occurs ; [] |749| 
    2997 0000024b FF20          MOV       ACC,#8194             ; [CPU_] |749| 
         0000024c 2002 
    2998 0000024d 88A6          MOVZ      AR6,AR6               ; [CPU_] |749| 
    2999 0000024e 0FA6          CMPL      ACC,XAR6              ; [CPU_] |749| 
    3000 0000024f EC65          BF        $C$L67,EQ             ; [CPU_] |749| 
    3001                      ; branchcc occurs ; [] |749| 
    3002              $C$DW$206       .dwtag  DW_TAG_TI_branch
    3003                      .dwattr $C$DW$206, DW_AT_low_pc(0x00)
    3004                      .dwattr $C$DW$206, DW_AT_TI_return
    3005 00000250 0006          LRETR     ; [CPU_] 
    3006                      ; return occurs ; [] 
    3007 00000251       $C$L49:    
    3008 00000251 FF20          MOV       ACC,#8196             ; [CPU_] |749| 
         00000252 2004 
    3009 00000253 80A6          MOVZ      AR7,AR6               ; [CPU_] |749| 
    3010 00000254 0FA7          CMPL      ACC,XAR7              ; [CPU_] |749| 
    3011 00000255 EC57          BF        $C$L65,EQ             ; [CPU_] |749| 
    3012                      ; branchcc occurs ; [] |749| 
    3013 00000256 FF20          MOV       ACC,#8208             ; [CPU_] |749| 
         00000257 2010 
    3014 00000258 80A6          MOVZ      AR7,AR6               ; [CPU_] |749| 
    3015 00000259 0FA7          CMPL      ACC,XAR7              ; [CPU_] |749| 
    3016 0000025a EC4E          BF        $C$L64,EQ             ; [CPU_] |749| 
    3017                      ; branchcc occurs ; [] |749| 
    3018 0000025b FF20          MOV       ACC,#8209             ; [CPU_] |749| 
         0000025c 2011 
    3019 0000025d 88A6          MOVZ      AR6,AR6               ; [CPU_] |749| 
    3020 0000025e 0FA6          CMPL      ACC,XAR6              ; [CPU_] |749| 
    3021 0000025f EC45          BF        $C$L63,EQ             ; [CPU_] |749| 
    3022                      ; branchcc occurs ; [] |749| 
    3023              $C$DW$207       .dwtag  DW_TAG_TI_branch
    3024                      .dwattr $C$DW$207, DW_AT_low_pc(0x00)
    3025                      .dwattr $C$DW$207, DW_AT_TI_return
    3026 00000260 0006          LRETR     ; [CPU_] 
    3027                      ; return occurs ; [] 
    3028 00000261       $C$L50:    
    3029 00000261 1BA6          CMP       AR6,#8225             ; [CPU_] |749| 
         00000262 2021 
    3030 00000263 6214          B         $C$L51,GT             ; [CPU_] |749| 
    3031                      ; branchcc occurs ; [] |749| 
    3032 00000264 1BA6          CMP       AR6,#8225             ; [CPU_] |749| 
         00000265 2021 
    3033 00000266 EC33          BF        $C$L58,EQ             ; [CPU_] |749| 
    3034                      ; branchcc occurs ; [] |749| 
    3035 00000267 FF20          MOV       ACC,#8217             ; [CPU_] |749| 
         00000268 2019 
    3036 00000269 80A6          MOVZ      AR7,AR6               ; [CPU_] |749| 
    3037 0000026a 0FA7          CMPL      ACC,XAR7              ; [CPU_] |749| 
    3038 0000026b EC36          BF        $C$L61,EQ             ; [CPU_] |749| 
    3039                      ; branchcc occurs ; [] |749| 
    3040 0000026c FF20          MOV       ACC,#8220             ; [CPU_] |749| 
         0000026d 201C 
TMS320C2000 Assembler PC v6.2.5 Wed Nov 22 14:48:16 2017

Tools Copyright (c) 1996-2014 Texas Instruments Incorporated
C:\Users\wmj\AppData\Local\Temp\0222411                              PAGE   58

    3041 0000026e 80A6          MOVZ      AR7,AR6               ; [CPU_] |749| 
    3042 0000026f 0FA7          CMPL      ACC,XAR7              ; [CPU_] |749| 
    3043 00000270 EC2F          BF        $C$L60,EQ             ; [CPU_] |749| 
    3044                      ; branchcc occurs ; [] |749| 
    3045 00000271 FF20          MOV       ACC,#8224             ; [CPU_] |749| 
         00000272 2020 
    3046 00000273 88A6          MOVZ      AR6,AR6               ; [CPU_] |749| 
    3047 00000274 0FA6          CMPL      ACC,XAR6              ; [CPU_] |749| 
    3048 00000275 EC27          BF        $C$L59,EQ             ; [CPU_] |749| 
    3049                      ; branchcc occurs ; [] |749| 
    3050              $C$DW$208       .dwtag  DW_TAG_TI_branch
    3051                      .dwattr $C$DW$208, DW_AT_low_pc(0x00)
    3052                      .dwattr $C$DW$208, DW_AT_TI_return
    3053 00000276 0006          LRETR     ; [CPU_] 
    3054                      ; return occurs ; [] 
    3055 00000277       $C$L51:    
    3056 00000277 FF20          MOV       ACC,#8226             ; [CPU_] |749| 
         00000278 2022 
    3057 00000279 80A6          MOVZ      AR7,AR6               ; [CPU_] |749| 
    3058 0000027a 0FA7          CMPL      ACC,XAR7              ; [CPU_] |749| 
    3059 0000027b EC0C          BF        $C$L52,EQ             ; [CPU_] |749| 
    3060                      ; branchcc occurs ; [] |749| 
    3061 0000027c FF20          MOV       ACC,#8233             ; [CPU_] |749| 
         0000027d 2029 
    3062 0000027e 80A6          MOVZ      AR7,AR6               ; [CPU_] |749| 
    3063 0000027f 0FA7          CMPL      ACC,XAR7              ; [CPU_] |749| 
    3064 00000280 EC16          BF        $C$L56,EQ             ; [CPU_] |749| 
    3065                      ; branchcc occurs ; [] |749| 
    3066 00000281 FF20          MOV       ACC,#8236             ; [CPU_] |749| 
         00000282 202C 
    3067 00000283 88A6          MOVZ      AR6,AR6               ; [CPU_] |749| 
    3068 00000284 0FA6          CMPL      ACC,XAR6              ; [CPU_] |749| 
    3069 00000285 EC0F          BF        $C$L55,EQ             ; [CPU_] |749| 
    3070                      ; branchcc occurs ; [] |749| 
    3071              $C$DW$209       .dwtag  DW_TAG_TI_branch
    3072                      .dwattr $C$DW$209, DW_AT_low_pc(0x00)
    3073                      .dwattr $C$DW$209, DW_AT_TI_return
    3074 00000286 0006          LRETR     ; [CPU_] 
    3075                      ; return occurs ; [] 
    3076 00000287       $C$L52:    
    3077                      .dwpsn  file "D:/BM1000_v1.1/sw/drivers/drvic/motor.h",line 548,column 3,is_stmt
    3078 00000287 8AC4          MOVL      XAR4,*+XAR4[0]        ; [CPU_] |548| 
    3079 00000288 92C4          MOV       AL,*+XAR4[0]          ; [CPU_] |548| 
    3080 00000289 ED34          BF        $C$L72,NEQ            ; [CPU_] |548| 
    3081                      ; branchcc occurs ; [] |548| 
    3082                      .dwpsn  file "D:/BM1000_v1.1/sw/drivers/drvic/motor.h",line 522,column 3,is_stmt
    3083 0000028a D011          MOVB      XAR0,#17              ; [CPU_] |522| 
    3084 0000028b       $C$L53:    
    3085 0000028b 2B94          MOV       *+XAR4[AR0],#0        ; [CPU_] |522| 
    3086              $C$DW$210       .dwtag  DW_TAG_TI_branch
    3087                      .dwattr $C$DW$210, DW_AT_low_pc(0x00)
    3088                      .dwattr $C$DW$210, DW_AT_TI_return
    3089 0000028c 0006          LRETR     ; [CPU_] 
    3090                      ; return occurs ; [] 
    3091 0000028d       $C$L54:    
TMS320C2000 Assembler PC v6.2.5 Wed Nov 22 14:48:16 2017

Tools Copyright (c) 1996-2014 Texas Instruments Incorporated
C:\Users\wmj\AppData\Local\Temp\0222411                              PAGE   59

    3092                      .dwpsn  file "D:/BM1000_v1.1/sw/drivers/drvic/motor.h",line 548,column 3,is_stmt
    3093 0000028d 8AC4          MOVL      XAR4,*+XAR4[0]        ; [CPU_] |548| 
    3094 0000028e 92C4          MOV       AL,*+XAR4[0]          ; [CPU_] |548| 
    3095                      .dwpsn  file "D:/BM1000_v1.1/sw/drivers/drvic/motor.h",line 513,column 3,is_stmt
    3096 0000028f 56B1          MOVB      XAR0,#17,EQ           ; [CPU_] |513| 
         00000290 11A0 
    3097 00000291 56B1          MOVB      *+XAR4[AR0],#1,EQ     ; [CPU_] |513| 
         00000292 0194 
    3098              $C$DW$211       .dwtag  DW_TAG_TI_branch
    3099                      .dwattr $C$DW$211, DW_AT_low_pc(0x00)
    3100                      .dwattr $C$DW$211, DW_AT_TI_return
    3101 00000293 0006          LRETR     ; [CPU_] 
    3102                      ; return occurs ; [] 
    3103 00000294       $C$L55:    
    3104                      .dwpsn  file "D:/BM1000_v1.1/sw/drivers/drvic/motor.h",line 485,column 3,is_stmt
    3105 00000294 D00C          MOVB      XAR0,#12              ; [CPU_] |485| 
    3106                      .dwpsn  file "D:/BM1000_v1.1/sw/drivers/drvic/motor.h",line 487,column 3,is_stmt
    3107 00000295 6F02          B         $C$L57,UNC            ; [CPU_] |487| 
    3108                      ; branch occurs ; [] |487| 
    3109 00000296       $C$L56:    
    3110                      .dwpsn  file "D:/BM1000_v1.1/sw/drivers/drvic/motor.h",line 466,column 3,is_stmt
    3111 00000296 D008          MOVB      XAR0,#8               ; [CPU_] |466| 
    3112 00000297       $C$L57:    
    3113 00000297 8AC4          MOVL      XAR4,*+XAR4[0]        ; [CPU_] |466| 
    3114                      .dwpsn  file "D:/BM1000_v1.1/sw/drivers/drvic/motor.h",line 468,column 3,is_stmt
    3115 00000298 6FF3          B         $C$L53,UNC            ; [CPU_] |468| 
    3116                      ; branch occurs ; [] |468| 
    3117 00000299       $C$L58:    
    3118                      .dwpsn  file "D:/BM1000_v1.1/sw/drivers/drvic/motor.h",line 446,column 3,is_stmt
    3119 00000299 8AC4          MOVL      XAR4,*+XAR4[0]        ; [CPU_] |446| 
    3120 0000029a 2BCC          MOV       *+XAR4[1],#0          ; [CPU_] |446| 
    3121              $C$DW$212       .dwtag  DW_TAG_TI_branch
    3122                      .dwattr $C$DW$212, DW_AT_low_pc(0x00)
    3123                      .dwattr $C$DW$212, DW_AT_TI_return
    3124 0000029b 0006          LRETR     ; [CPU_] 
    3125                      ; return occurs ; [] 
    3126 0000029c       $C$L59:    
    3127                      .dwpsn  file "D:/BM1000_v1.1/sw/drivers/drvic/motor.h",line 428,column 3,is_stmt
    3128 0000029c 8AC4          MOVL      XAR4,*+XAR4[0]        ; [CPU_] |428| 
    3129 0000029d 2BC4          MOV       *+XAR4[0],#0          ; [CPU_] |428| 
    3130              $C$DW$213       .dwtag  DW_TAG_TI_branch
    3131                      .dwattr $C$DW$213, DW_AT_low_pc(0x00)
    3132                      .dwattr $C$DW$213, DW_AT_TI_return
    3133 0000029e 0006          LRETR     ; [CPU_] 
    3134                      ; return occurs ; [] 
    3135 0000029f       $C$L60:    
    3136                      .dwpsn  file "D:/BM1000_v1.1/sw/drivers/drvic/motor.h",line 476,column 3,is_stmt
    3137 0000029f D00C          MOVB      XAR0,#12              ; [CPU_] |476| 
    3138                      .dwpsn  file "D:/BM1000_v1.1/sw/drivers/drvic/motor.h",line 478,column 3,is_stmt
    3139 000002a0 6F02          B         $C$L62,UNC            ; [CPU_] |478| 
    3140                      ; branch occurs ; [] |478| 
    3141 000002a1       $C$L61:    
    3142                      .dwpsn  file "D:/BM1000_v1.1/sw/drivers/drvic/motor.h",line 456,column 3,is_stmt
    3143 000002a1 D008          MOVB      XAR0,#8               ; [CPU_] |456| 
    3144 000002a2       $C$L62:    
TMS320C2000 Assembler PC v6.2.5 Wed Nov 22 14:48:16 2017

Tools Copyright (c) 1996-2014 Texas Instruments Incorporated
C:\Users\wmj\AppData\Local\Temp\0222411                              PAGE   60

    3145 000002a2 8AC4          MOVL      XAR4,*+XAR4[0]        ; [CPU_] |456| 
    3146                      .dwpsn  file "D:/BM1000_v1.1/sw/drivers/drvic/motor.h",line 458,column 3,is_stmt
    3147 000002a3 6F18          B         $C$L71,UNC            ; [CPU_] |458| 
    3148                      ; branch occurs ; [] |458| 
    3149 000002a4       $C$L63:    
    3150                      .dwpsn  file "D:/BM1000_v1.1/sw/drivers/drvic/motor.h",line 437,column 3,is_stmt
    3151 000002a4 8AC4          MOVL      XAR4,*+XAR4[0]        ; [CPU_] |437| 
    3152 000002a5 56BF          MOVB      *+XAR4[1],#1,UNC      ; [CPU_] |437| 
         000002a6 01CC 
    3153              $C$DW$214       .dwtag  DW_TAG_TI_branch
    3154                      .dwattr $C$DW$214, DW_AT_low_pc(0x00)
    3155                      .dwattr $C$DW$214, DW_AT_TI_return
    3156 000002a7 0006          LRETR     ; [CPU_] 
    3157                      ; return occurs ; [] 
    3158 000002a8       $C$L64:    
    3159                      .dwpsn  file "D:/BM1000_v1.1/sw/drivers/drvic/motor.h",line 419,column 3,is_stmt
    3160 000002a8 8AC4          MOVL      XAR4,*+XAR4[0]        ; [CPU_] |419| 
    3161 000002a9 56BF          MOVB      *+XAR4[0],#1,UNC      ; [CPU_] |419| 
         000002aa 01C4 
    3162              $C$DW$215       .dwtag  DW_TAG_TI_branch
    3163                      .dwattr $C$DW$215, DW_AT_low_pc(0x00)
    3164                      .dwattr $C$DW$215, DW_AT_TI_return
    3165 000002ab 0006          LRETR     ; [CPU_] 
    3166                      ; return occurs ; [] 
    3167 000002ac       $C$L65:    
    3168                      .dwpsn  file "D:/BM1000_v1.1/sw/drivers/drvic/modbus/mb.c",line 757,column 32,is_stmt
    3169 000002ac 8AD4          MOVL      XAR4,*+XAR4[2]        ; [CPU_] |757| 
    3170              $C$DW$216       .dwtag  DW_TAG_TI_branch
    3171                      .dwattr $C$DW$216, DW_AT_low_pc(0x00)
    3172                      .dwattr $C$DW$216, DW_AT_name("_FSM_ShutDowm")
    3173                      .dwattr $C$DW$216, DW_AT_TI_call
    3174 000002ad 7640!         LCR       #_FSM_ShutDowm        ; [CPU_] |757| 
         000002ae 0000 
    3175                      ; call occurs [#_FSM_ShutDowm] ; [] |757| 
    3176              $C$DW$217       .dwtag  DW_TAG_TI_branch
    3177                      .dwattr $C$DW$217, DW_AT_low_pc(0x00)
    3178                      .dwattr $C$DW$217, DW_AT_TI_return
    3179 000002af 0006          LRETR     ; [CPU_] 
    3180                      ; return occurs ; [] 
    3181 000002b0       $C$L66:    
    3182                      .dwpsn  file "D:/BM1000_v1.1/sw/drivers/drvic/modbus/mb.c",line 756,column 38,is_stmt
    3183 000002b0 8AD4          MOVL      XAR4,*+XAR4[2]        ; [CPU_] |756| 
    3184              $C$DW$218       .dwtag  DW_TAG_TI_branch
    3185                      .dwattr $C$DW$218, DW_AT_low_pc(0x00)
    3186                      .dwattr $C$DW$218, DW_AT_name("_FSM_clrOverCurrentReg")
    3187                      .dwattr $C$DW$218, DW_AT_TI_call
    3188 000002b1 7640!         LCR       #_FSM_clrOverCurrentReg ; [CPU_] |756| 
         000002b2 0000 
    3189                      ; call occurs [#_FSM_clrOverCurrentReg] ; [] |756| 
    3190              $C$DW$219       .dwtag  DW_TAG_TI_branch
    3191                      .dwattr $C$DW$219, DW_AT_low_pc(0x00)
    3192                      .dwattr $C$DW$219, DW_AT_TI_return
    3193 000002b3 0006          LRETR     ; [CPU_] 
    3194                      ; return occurs ; [] 
    3195 000002b4       $C$L67:    
TMS320C2000 Assembler PC v6.2.5 Wed Nov 22 14:48:16 2017

Tools Copyright (c) 1996-2014 Texas Instruments Incorporated
C:\Users\wmj\AppData\Local\Temp\0222411                              PAGE   61

    3196                      .dwpsn  file "D:/BM1000_v1.1/sw/drivers/drvic/fsm.h",line 499,column 3,is_stmt
    3197 000002b4 D00B          MOVB      XAR0,#11              ; [CPU_] |499| 
    3198                      .dwpsn  file "D:/BM1000_v1.1/sw/drivers/drvic/fsm.h",line 501,column 3,is_stmt
    3199 000002b5 6F02          B         $C$L69,UNC            ; [CPU_] |501| 
    3200                      ; branch occurs ; [] |501| 
    3201 000002b6       $C$L68:    
    3202                      .dwpsn  file "D:/BM1000_v1.1/sw/drivers/drvic/fsm.h",line 481,column 3,is_stmt
    3203 000002b6 D01E          MOVB      XAR0,#30              ; [CPU_] |481| 
    3204 000002b7       $C$L69:    
    3205 000002b7 8AD4          MOVL      XAR4,*+XAR4[2]        ; [CPU_] |481| 
    3206                      .dwpsn  file "D:/BM1000_v1.1/sw/drivers/drvic/fsm.h",line 483,column 3,is_stmt
    3207 000002b8 6FD3          B         $C$L53,UNC            ; [CPU_] |483| 
    3208                      ; branch occurs ; [] |483| 
    3209 000002b9       $C$L70:    
    3210                      .dwpsn  file "D:/BM1000_v1.1/sw/drivers/drvic/fsm.h",line 472,column 3,is_stmt
    3211 000002b9 8AD4          MOVL      XAR4,*+XAR4[2]        ; [CPU_] |472| 
    3212 000002ba D01E          MOVB      XAR0,#30              ; [CPU_] |472| 
    3213 000002bb       $C$L71:    
    3214 000002bb 56BF          MOVB      *+XAR4[AR0],#1,UNC    ; [CPU_] |472| 
         000002bc 0194 
    3215              $C$L72:    
    3216              $C$DW$220       .dwtag  DW_TAG_TI_branch
    3217                      .dwattr $C$DW$220, DW_AT_low_pc(0x00)
    3218                      .dwattr $C$DW$220, DW_AT_TI_return
    3219 000002bd 0006          LRETR     ; [CPU_] 
    3220                      ; return occurs ; [] 
    3221                      .dwattr $C$DW$202, DW_AT_TI_end_file("D:/BM1000_v1.1/sw/drivers/drvic/modbus/mb.c")
    3222                      .dwattr $C$DW$202, DW_AT_TI_end_line(0x329)
    3223                      .dwattr $C$DW$202, DW_AT_TI_end_column(0x01)
    3224                      .dwendentry
    3225                      .dwendtag $C$DW$202
    3226              
    3227 000002be               .sect   ".text"
    3228                      .clink
    3229                      .global _MB_FloatTransToIQ8
    3230              
    3231              $C$DW$221       .dwtag  DW_TAG_subprogram, DW_AT_name("MB_FloatTransToIQ8")
    3232                      .dwattr $C$DW$221, DW_AT_low_pc(_MB_FloatTransToIQ8)
    3233                      .dwattr $C$DW$221, DW_AT_high_pc(0x00)
    3234                      .dwattr $C$DW$221, DW_AT_TI_symbol_name("_MB_FloatTransToIQ8")
    3235                      .dwattr $C$DW$221, DW_AT_external
    3236                      .dwattr $C$DW$221, DW_AT_type(*$C$DW$T$63)
    3237                      .dwattr $C$DW$221, DW_AT_TI_begin_file("D:/BM1000_v1.1/sw/drivers/drvic/modbus/mb.c")
    3238                      .dwattr $C$DW$221, DW_AT_TI_begin_line(0x21a)
    3239                      .dwattr $C$DW$221, DW_AT_TI_begin_column(0x09)
    3240                      .dwattr $C$DW$221, DW_AT_TI_max_frame_size(-10)
    3241                      .dwpsn  file "D:/BM1000_v1.1/sw/drivers/drvic/modbus/mb.c",line 539,column 1,is_stmt,address _MB_Floa
    3242              
    3243                      .dwfde $C$DW$CIE, _MB_FloatTransToIQ8
    3244              $C$DW$222       .dwtag  DW_TAG_formal_parameter, DW_AT_name("Data")
    3245                      .dwattr $C$DW$222, DW_AT_TI_symbol_name("_Data")
    3246                      .dwattr $C$DW$222, DW_AT_type(*$C$DW$T$16)
    3247                      .dwattr $C$DW$222, DW_AT_location[DW_OP_reg0]
    3248              
    3249              ;***************************************************************
TMS320C2000 Assembler PC v6.2.5 Wed Nov 22 14:48:16 2017

Tools Copyright (c) 1996-2014 Texas Instruments Incorporated
C:\Users\wmj\AppData\Local\Temp\0222411                              PAGE   62

    3250              ;* FNAME: _MB_FloatTransToIQ8           FR SIZE:   8           *
    3251              ;*                                                             *
    3252              ;* FUNCTION ENVIRONMENT                                        *
    3253              ;*                                                             *
    3254              ;* FUNCTION PROPERTIES                                         *
    3255              ;*                            0 Parameter,  8 Auto,  0 SOE     *
    3256              ;***************************************************************
    3257              
    3258              _MB_FloatTransToIQ8:
    3259              ;* AL    assigned to _Data
    3260              $C$DW$223       .dwtag  DW_TAG_variable, DW_AT_name("Data")
    3261                      .dwattr $C$DW$223, DW_AT_TI_symbol_name("_Data")
    3262                      .dwattr $C$DW$223, DW_AT_type(*$C$DW$T$308)
    3263                      .dwattr $C$DW$223, DW_AT_location[DW_OP_reg0]
    3264                      .dwcfi  cfa_offset, -2
    3265                      .dwcfi  save_reg_to_mem, 26, 0
    3266                      .dwcfi  save_reg_to_reg, 78, 26
    3267 000002be FE08          ADDB      SP,#8                 ; [CPU_U] 
    3268                      .dwcfi  cfa_offset, -10
    3269                      .dwpsn  file "D:/BM1000_v1.1/sw/drivers/drvic/modbus/mb.c",line 544,column 4,is_stmt
    3270 000002bf 88AD          MOVZ      AR6,SP                ; [CPU_U] |544| 
    3271 000002c0 DE88          SUBB      XAR6,#8               ; [CPU_U] |544| 
    3272              $C$DW$224       .dwtag  DW_TAG_TI_branch
    3273                      .dwattr $C$DW$224, DW_AT_low_pc(0x00)
    3274                      .dwattr $C$DW$224, DW_AT_name("FS$$TOFD")
    3275                      .dwattr $C$DW$224, DW_AT_TI_call
    3276 000002c1 7640!         LCR       #FS$$TOFD             ; [CPU_] |544| 
         000002c2 0000 
    3277                      ; call occurs [#FS$$TOFD] ; [] |544| 
    3278 000002c3 5CAD          MOVZ      AR4,SP                ; [CPU_U] |544| 
    3279 000002c4 88AD          MOVZ      AR6,SP                ; [CPU_U] |544| 
    3280 000002c5 8F40+         MOVL      XAR5,#$C$FL1          ; [CPU_U] |544| 
         000002c6 0000 
    3281 000002c7 DC88          SUBB      XAR4,#8               ; [CPU_U] |544| 
    3282 000002c8 DE84          SUBB      XAR6,#4               ; [CPU_U] |544| 
    3283              $C$DW$225       .dwtag  DW_TAG_TI_branch
    3284                      .dwattr $C$DW$225, DW_AT_low_pc(0x00)
    3285                      .dwattr $C$DW$225, DW_AT_name("FD$$MPY")
    3286                      .dwattr $C$DW$225, DW_AT_TI_call
    3287 000002c9 7640!         LCR       #FD$$MPY              ; [CPU_] |544| 
         000002ca 0000 
    3288                      ; call occurs [#FD$$MPY] ; [] |544| 
    3289 000002cb 5CAD          MOVZ      AR4,SP                ; [CPU_U] |544| 
    3290 000002cc DC84          SUBB      XAR4,#4               ; [CPU_U] |544| 
    3291              $C$DW$226       .dwtag  DW_TAG_TI_branch
    3292                      .dwattr $C$DW$226, DW_AT_low_pc(0x00)
    3293                      .dwattr $C$DW$226, DW_AT_name("FD$$TOL")
    3294                      .dwattr $C$DW$226, DW_AT_TI_call
    3295 000002cd 7640!         LCR       #FD$$TOL              ; [CPU_] |544| 
         000002ce 0000 
    3296                      ; call occurs [#FD$$TOL] ; [] |544| 
    3297 000002cf 0EA8          MOVU      ACC,AH                ; [CPU_] |544| 
    3298 000002d0 FE88          SUBB      SP,#8                 ; [CPU_U] 
    3299                      .dwcfi  cfa_offset, -2
    3300              $C$DW$227       .dwtag  DW_TAG_TI_branch
TMS320C2000 Assembler PC v6.2.5 Wed Nov 22 14:48:16 2017

Tools Copyright (c) 1996-2014 Texas Instruments Incorporated
C:\Users\wmj\AppData\Local\Temp\0222411                              PAGE   63

    3301                      .dwattr $C$DW$227, DW_AT_low_pc(0x00)
    3302                      .dwattr $C$DW$227, DW_AT_TI_return
    3303 000002d1 0006          LRETR     ; [CPU_] 
    3304                      ; return occurs ; [] 
    3305                      .dwattr $C$DW$221, DW_AT_TI_end_file("D:/BM1000_v1.1/sw/drivers/drvic/modbus/mb.c")
    3306                      .dwattr $C$DW$221, DW_AT_TI_end_line(0x221)
    3307                      .dwattr $C$DW$221, DW_AT_TI_end_column(0x01)
    3308                      .dwendentry
    3309                      .dwendtag $C$DW$221
    3310              
    3311 000002d2               .sect   ".text"
    3312                      .clink
    3313                      .global _MB_FloatTransToIQ7X1000
    3314              
    3315              $C$DW$228       .dwtag  DW_TAG_subprogram, DW_AT_name("MB_FloatTransToIQ7X1000")
    3316                      .dwattr $C$DW$228, DW_AT_low_pc(_MB_FloatTransToIQ7X1000)
    3317                      .dwattr $C$DW$228, DW_AT_high_pc(0x00)
    3318                      .dwattr $C$DW$228, DW_AT_TI_symbol_name("_MB_FloatTransToIQ7X1000")
    3319                      .dwattr $C$DW$228, DW_AT_external
    3320                      .dwattr $C$DW$228, DW_AT_type(*$C$DW$T$63)
    3321                      .dwattr $C$DW$228, DW_AT_TI_begin_file("D:/BM1000_v1.1/sw/drivers/drvic/modbus/mb.c")
    3322                      .dwattr $C$DW$228, DW_AT_TI_begin_line(0x224)
    3323                      .dwattr $C$DW$228, DW_AT_TI_begin_column(0x09)
    3324                      .dwattr $C$DW$228, DW_AT_TI_max_frame_size(-10)
    3325                      .dwpsn  file "D:/BM1000_v1.1/sw/drivers/drvic/modbus/mb.c",line 549,column 1,is_stmt,address _MB_Floa
    3326              
    3327                      .dwfde $C$DW$CIE, _MB_FloatTransToIQ7X1000
    3328              $C$DW$229       .dwtag  DW_TAG_formal_parameter, DW_AT_name("Data")
    3329                      .dwattr $C$DW$229, DW_AT_TI_symbol_name("_Data")
    3330                      .dwattr $C$DW$229, DW_AT_type(*$C$DW$T$16)
    3331                      .dwattr $C$DW$229, DW_AT_location[DW_OP_reg0]
    3332              
    3333              ;***************************************************************
    3334              ;* FNAME: _MB_FloatTransToIQ7X1000      FR SIZE:   8           *
    3335              ;*                                                             *
    3336              ;* FUNCTION ENVIRONMENT                                        *
    3337              ;*                                                             *
    3338              ;* FUNCTION PROPERTIES                                         *
    3339              ;*                            0 Parameter,  8 Auto,  0 SOE     *
    3340              ;***************************************************************
    3341              
    3342              _MB_FloatTransToIQ7X1000:
    3343              ;* AL    assigned to _Data
    3344              $C$DW$230       .dwtag  DW_TAG_variable, DW_AT_name("Data")
    3345                      .dwattr $C$DW$230, DW_AT_TI_symbol_name("_Data")
    3346                      .dwattr $C$DW$230, DW_AT_type(*$C$DW$T$308)
    3347                      .dwattr $C$DW$230, DW_AT_location[DW_OP_reg0]
    3348                      .dwcfi  cfa_offset, -2
    3349                      .dwcfi  save_reg_to_mem, 26, 0
    3350                      .dwcfi  save_reg_to_reg, 78, 26
    3351 000002d2 FE08          ADDB      SP,#8                 ; [CPU_U] 
    3352                      .dwcfi  cfa_offset, -10
    3353                      .dwpsn  file "D:/BM1000_v1.1/sw/drivers/drvic/modbus/mb.c",line 554,column 4,is_stmt
    3354 000002d3 88AD          MOVZ      AR6,SP                ; [CPU_U] |554| 
    3355 000002d4 DE88          SUBB      XAR6,#8               ; [CPU_U] |554| 
TMS320C2000 Assembler PC v6.2.5 Wed Nov 22 14:48:16 2017

Tools Copyright (c) 1996-2014 Texas Instruments Incorporated
C:\Users\wmj\AppData\Local\Temp\0222411                              PAGE   64

    3356              $C$DW$231       .dwtag  DW_TAG_TI_branch
    3357                      .dwattr $C$DW$231, DW_AT_low_pc(0x00)
    3358                      .dwattr $C$DW$231, DW_AT_name("FS$$TOFD")
    3359                      .dwattr $C$DW$231, DW_AT_TI_call
    3360 000002d5 7640!         LCR       #FS$$TOFD             ; [CPU_] |554| 
         000002d6 0000 
    3361                      ; call occurs [#FS$$TOFD] ; [] |554| 
    3362 000002d7 5CAD          MOVZ      AR4,SP                ; [CPU_U] |554| 
    3363 000002d8 88AD          MOVZ      AR6,SP                ; [CPU_U] |554| 
    3364 000002d9 8F40+         MOVL      XAR5,#$C$FL1          ; [CPU_U] |554| 
         000002da 0000 
    3365 000002db DC88          SUBB      XAR4,#8               ; [CPU_U] |554| 
    3366 000002dc DE84          SUBB      XAR6,#4               ; [CPU_U] |554| 
    3367              $C$DW$232       .dwtag  DW_TAG_TI_branch
    3368                      .dwattr $C$DW$232, DW_AT_low_pc(0x00)
    3369                      .dwattr $C$DW$232, DW_AT_name("FD$$MPY")
    3370                      .dwattr $C$DW$232, DW_AT_TI_call
    3371 000002dd 7640!         LCR       #FD$$MPY              ; [CPU_] |554| 
         000002de 0000 
    3372                      ; call occurs [#FD$$MPY] ; [] |554| 
    3373 000002df 5CAD          MOVZ      AR4,SP                ; [CPU_U] |554| 
    3374 000002e0 DC84          SUBB      XAR4,#4               ; [CPU_U] |554| 
    3375              $C$DW$233       .dwtag  DW_TAG_TI_branch
    3376                      .dwattr $C$DW$233, DW_AT_low_pc(0x00)
    3377                      .dwattr $C$DW$233, DW_AT_name("FD$$TOL")
    3378                      .dwattr $C$DW$233, DW_AT_TI_call
    3379 000002e1 7640!         LCR       #FD$$TOL              ; [CPU_] |554| 
         000002e2 0000 
    3380                      ; call occurs [#FD$$TOL] ; [] |554| 
    3381 000002e3 3B01          SETC      SXM                   ; [CPU_] 
    3382 000002e4 1EA6          MOVL      XAR6,ACC              ; [CPU_] |554| 
    3383 000002e5 027D          MOVB      ACC,#125              ; [CPU_] |554| 
    3384 000002e6 1EAC          MOVL      XT,ACC                ; [CPU_] |554| 
    3385 000002e7 5644          IMPYL     ACC,XT,XAR6           ; [CPU_] |554| 
         000002e8 00A6 
    3386 000002e9 FF4D          SFR       ACC,14                ; [CPU_] |554| 
    3387 000002ea FE88          SUBB      SP,#8                 ; [CPU_U] 
    3388                      .dwcfi  cfa_offset, -2
    3389              $C$DW$234       .dwtag  DW_TAG_TI_branch
    3390                      .dwattr $C$DW$234, DW_AT_low_pc(0x00)
    3391                      .dwattr $C$DW$234, DW_AT_TI_return
    3392 000002eb 0006          LRETR     ; [CPU_] 
    3393                      ; return occurs ; [] 
    3394                      .dwattr $C$DW$228, DW_AT_TI_end_file("D:/BM1000_v1.1/sw/drivers/drvic/modbus/mb.c")
    3395                      .dwattr $C$DW$228, DW_AT_TI_end_line(0x22b)
    3396                      .dwattr $C$DW$228, DW_AT_TI_end_column(0x01)
    3397                      .dwendentry
    3398                      .dwendtag $C$DW$228
    3399              
    3400 000002ec               .sect   ".text"
    3401                      .clink
    3402                      .global _MB_FloatTransToIQ7
    3403              
    3404              $C$DW$235       .dwtag  DW_TAG_subprogram, DW_AT_name("MB_FloatTransToIQ7")
    3405                      .dwattr $C$DW$235, DW_AT_low_pc(_MB_FloatTransToIQ7)
TMS320C2000 Assembler PC v6.2.5 Wed Nov 22 14:48:16 2017

Tools Copyright (c) 1996-2014 Texas Instruments Incorporated
C:\Users\wmj\AppData\Local\Temp\0222411                              PAGE   65

    3406                      .dwattr $C$DW$235, DW_AT_high_pc(0x00)
    3407                      .dwattr $C$DW$235, DW_AT_TI_symbol_name("_MB_FloatTransToIQ7")
    3408                      .dwattr $C$DW$235, DW_AT_external
    3409                      .dwattr $C$DW$235, DW_AT_type(*$C$DW$T$63)
    3410                      .dwattr $C$DW$235, DW_AT_TI_begin_file("D:/BM1000_v1.1/sw/drivers/drvic/modbus/mb.c")
    3411                      .dwattr $C$DW$235, DW_AT_TI_begin_line(0x211)
    3412                      .dwattr $C$DW$235, DW_AT_TI_begin_column(0x09)
    3413                      .dwattr $C$DW$235, DW_AT_TI_max_frame_size(-10)
    3414                      .dwpsn  file "D:/BM1000_v1.1/sw/drivers/drvic/modbus/mb.c",line 530,column 1,is_stmt,address _MB_Floa
    3415              
    3416                      .dwfde $C$DW$CIE, _MB_FloatTransToIQ7
    3417              $C$DW$236       .dwtag  DW_TAG_formal_parameter, DW_AT_name("Data")
    3418                      .dwattr $C$DW$236, DW_AT_TI_symbol_name("_Data")
    3419                      .dwattr $C$DW$236, DW_AT_type(*$C$DW$T$16)
    3420                      .dwattr $C$DW$236, DW_AT_location[DW_OP_reg0]
    3421              
    3422              ;***************************************************************
    3423              ;* FNAME: _MB_FloatTransToIQ7           FR SIZE:   8           *
    3424              ;*                                                             *
    3425              ;* FUNCTION ENVIRONMENT                                        *
    3426              ;*                                                             *
    3427              ;* FUNCTION PROPERTIES                                         *
    3428              ;*                            0 Parameter,  8 Auto,  0 SOE     *
    3429              ;***************************************************************
    3430              
    3431              _MB_FloatTransToIQ7:
    3432              ;* AL    assigned to _Data
    3433              $C$DW$237       .dwtag  DW_TAG_variable, DW_AT_name("Data")
    3434                      .dwattr $C$DW$237, DW_AT_TI_symbol_name("_Data")
    3435                      .dwattr $C$DW$237, DW_AT_type(*$C$DW$T$308)
    3436                      .dwattr $C$DW$237, DW_AT_location[DW_OP_reg0]
    3437                      .dwcfi  cfa_offset, -2
    3438                      .dwcfi  save_reg_to_mem, 26, 0
    3439                      .dwcfi  save_reg_to_reg, 78, 26
    3440 000002ec FE08          ADDB      SP,#8                 ; [CPU_U] 
    3441                      .dwcfi  cfa_offset, -10
    3442                      .dwpsn  file "D:/BM1000_v1.1/sw/drivers/drvic/modbus/mb.c",line 535,column 4,is_stmt
    3443 000002ed 88AD          MOVZ      AR6,SP                ; [CPU_U] |535| 
    3444 000002ee DE88          SUBB      XAR6,#8               ; [CPU_U] |535| 
    3445              $C$DW$238       .dwtag  DW_TAG_TI_branch
    3446                      .dwattr $C$DW$238, DW_AT_low_pc(0x00)
    3447                      .dwattr $C$DW$238, DW_AT_name("FS$$TOFD")
    3448                      .dwattr $C$DW$238, DW_AT_TI_call
    3449 000002ef 7640!         LCR       #FS$$TOFD             ; [CPU_] |535| 
         000002f0 0000 
    3450                      ; call occurs [#FS$$TOFD] ; [] |535| 
    3451 000002f1 5CAD          MOVZ      AR4,SP                ; [CPU_U] |535| 
    3452 000002f2 88AD          MOVZ      AR6,SP                ; [CPU_U] |535| 
    3453 000002f3 8F40+         MOVL      XAR5,#$C$FL1          ; [CPU_U] |535| 
         000002f4 0000 
    3454 000002f5 DC88          SUBB      XAR4,#8               ; [CPU_U] |535| 
    3455 000002f6 DE84          SUBB      XAR6,#4               ; [CPU_U] |535| 
    3456              $C$DW$239       .dwtag  DW_TAG_TI_branch
    3457                      .dwattr $C$DW$239, DW_AT_low_pc(0x00)
    3458                      .dwattr $C$DW$239, DW_AT_name("FD$$MPY")
TMS320C2000 Assembler PC v6.2.5 Wed Nov 22 14:48:16 2017

Tools Copyright (c) 1996-2014 Texas Instruments Incorporated
C:\Users\wmj\AppData\Local\Temp\0222411                              PAGE   66

    3459                      .dwattr $C$DW$239, DW_AT_TI_call
    3460 000002f7 7640!         LCR       #FD$$MPY              ; [CPU_] |535| 
         000002f8 0000 
    3461                      ; call occurs [#FD$$MPY] ; [] |535| 
    3462 000002f9 5CAD          MOVZ      AR4,SP                ; [CPU_U] |535| 
    3463 000002fa DC84          SUBB      XAR4,#4               ; [CPU_U] |535| 
    3464              $C$DW$240       .dwtag  DW_TAG_TI_branch
    3465                      .dwattr $C$DW$240, DW_AT_low_pc(0x00)
    3466                      .dwattr $C$DW$240, DW_AT_name("FD$$TOL")
    3467                      .dwattr $C$DW$240, DW_AT_TI_call
    3468 000002fb 7640!         LCR       #FD$$TOL              ; [CPU_] |535| 
         000002fc 0000 
    3469                      ; call occurs [#FD$$TOL] ; [] |535| 
    3470 000002fd 28AC          MOV       T,#17                 ; [CPU_] |535| 
         000002fe 0011 
    3471 000002ff 5610          ASRL      ACC,T                 ; [CPU_] |535| 
    3472 00000300 FE88          SUBB      SP,#8                 ; [CPU_U] 
    3473                      .dwcfi  cfa_offset, -2
    3474              $C$DW$241       .dwtag  DW_TAG_TI_branch
    3475                      .dwattr $C$DW$241, DW_AT_low_pc(0x00)
    3476                      .dwattr $C$DW$241, DW_AT_TI_return
    3477 00000301 0006          LRETR     ; [CPU_] 
    3478                      ; return occurs ; [] 
    3479                      .dwattr $C$DW$235, DW_AT_TI_end_file("D:/BM1000_v1.1/sw/drivers/drvic/modbus/mb.c")
    3480                      .dwattr $C$DW$235, DW_AT_TI_end_line(0x218)
    3481                      .dwattr $C$DW$235, DW_AT_TI_end_column(0x01)
    3482                      .dwendentry
    3483                      .dwendtag $C$DW$235
    3484              
    3485 00000302               .sect   ".text"
    3486                      .clink
    3487                      .global _MB_FuncReadHoldingRegister
    3488              
    3489              $C$DW$242       .dwtag  DW_TAG_subprogram, DW_AT_name("MB_FuncReadHoldingRegister")
    3490                      .dwattr $C$DW$242, DW_AT_low_pc(_MB_FuncReadHoldingRegister)
    3491                      .dwattr $C$DW$242, DW_AT_high_pc(0x00)
    3492                      .dwattr $C$DW$242, DW_AT_TI_symbol_name("_MB_FuncReadHoldingRegister")
    3493                      .dwattr $C$DW$242, DW_AT_external
    3494                      .dwattr $C$DW$242, DW_AT_TI_begin_file("D:/BM1000_v1.1/sw/drivers/drvic/modbus/mb.c")
    3495                      .dwattr $C$DW$242, DW_AT_TI_begin_line(0x231)
    3496                      .dwattr $C$DW$242, DW_AT_TI_begin_column(0x06)
    3497                      .dwattr $C$DW$242, DW_AT_TI_max_frame_size(-6)
    3498                      .dwpsn  file "D:/BM1000_v1.1/sw/drivers/drvic/modbus/mb.c",line 562,column 1,is_stmt,address _MB_Func
    3499              
    3500                      .dwfde $C$DW$CIE, _MB_FuncReadHoldingRegister
    3501              $C$DW$243       .dwtag  DW_TAG_formal_parameter, DW_AT_name("handle")
    3502                      .dwattr $C$DW$243, DW_AT_TI_symbol_name("_handle")
    3503                      .dwattr $C$DW$243, DW_AT_type(*$C$DW$T$178)
    3504                      .dwattr $C$DW$243, DW_AT_location[DW_OP_reg12]
    3505              
    3506              ;***************************************************************
    3507              ;* FNAME: _MB_FuncReadHoldingRegister   FR SIZE:   4           *
    3508              ;*                                                             *
    3509              ;* FUNCTION ENVIRONMENT                                        *
    3510              ;*                                                             *
TMS320C2000 Assembler PC v6.2.5 Wed Nov 22 14:48:16 2017

Tools Copyright (c) 1996-2014 Texas Instruments Incorporated
C:\Users\wmj\AppData\Local\Temp\0222411                              PAGE   67

    3511              ;* FUNCTION PROPERTIES                                         *
    3512              ;*                            0 Parameter,  0 Auto,  4 SOE     *
    3513              ;***************************************************************
    3514              
    3515              _MB_FuncReadHoldingRegister:
    3516              ;* AR4   assigned to $O$C24
    3517              ;* AR4   assigned to $O$C25
    3518              ;* AR4   assigned to $O$C26
    3519              ;* AR1   assigned to $O$C27
    3520              ;* AR6   assigned to _Temp_int
    3521              $C$DW$244       .dwtag  DW_TAG_variable, DW_AT_name("Temp_int")
    3522                      .dwattr $C$DW$244, DW_AT_TI_symbol_name("_Temp_int")
    3523                      .dwattr $C$DW$244, DW_AT_type(*$C$DW$T$63)
    3524                      .dwattr $C$DW$244, DW_AT_location[DW_OP_reg16]
    3525              ;* AR6   assigned to _Temp_int
    3526              $C$DW$245       .dwtag  DW_TAG_variable, DW_AT_name("Temp_int")
    3527                      .dwattr $C$DW$245, DW_AT_TI_symbol_name("_Temp_int")
    3528                      .dwattr $C$DW$245, DW_AT_type(*$C$DW$T$63)
    3529                      .dwattr $C$DW$245, DW_AT_location[DW_OP_reg16]
    3530              ;* AL    assigned to _RegData
    3531              $C$DW$246       .dwtag  DW_TAG_variable, DW_AT_name("RegData")
    3532                      .dwattr $C$DW$246, DW_AT_TI_symbol_name("_RegData")
    3533                      .dwattr $C$DW$246, DW_AT_type(*$C$DW$T$21)
    3534                      .dwattr $C$DW$246, DW_AT_location[DW_OP_reg0]
    3535              ;* AR6   assigned to _RegAddress
    3536              $C$DW$247       .dwtag  DW_TAG_variable, DW_AT_name("RegAddress")
    3537                      .dwattr $C$DW$247, DW_AT_TI_symbol_name("_RegAddress")
    3538                      .dwattr $C$DW$247, DW_AT_type(*$C$DW$T$21)
    3539                      .dwattr $C$DW$247, DW_AT_location[DW_OP_reg16]
    3540              ;* AR2   assigned to _handle
    3541              $C$DW$248       .dwtag  DW_TAG_variable, DW_AT_name("handle")
    3542                      .dwattr $C$DW$248, DW_AT_TI_symbol_name("_handle")
    3543                      .dwattr $C$DW$248, DW_AT_type(*$C$DW$T$200)
    3544                      .dwattr $C$DW$248, DW_AT_location[DW_OP_reg8]
    3545              ;* AR1   assigned to $O$U2
    3546                      .dwcfi  cfa_offset, -2
    3547                      .dwcfi  save_reg_to_mem, 26, 0
    3548                      .dwcfi  save_reg_to_reg, 78, 26
    3549 00000302 B2BD          MOVL      *SP++,XAR1            ; [CPU_] 
    3550                      .dwcfi  save_reg_to_mem, 7, 2
    3551                      .dwcfi  cfa_offset, -4
    3552                      .dwpsn  file "D:/BM1000_v1.1/sw/drivers/drvic/modbus/mb.c",line 569,column 3,is_stmt
    3553 00000303 D00A          MOVB      XAR0,#10              ; [CPU_] |569| 
    3554 00000304 AABD          MOVL      *SP++,XAR2            ; [CPU_] 
    3555                      .dwcfi  save_reg_to_mem, 9, 4
    3556                      .dwcfi  cfa_offset, -6
    3557                      .dwpsn  file "D:/BM1000_v1.1/sw/drivers/drvic/modbus/mb.c",line 562,column 1,is_stmt
    3558 00000305 86A4          MOVL      XAR2,XAR4             ; [CPU_] |562| 
    3559                      .dwpsn  file "D:/BM1000_v1.1/sw/drivers/drvic/modbus/mb.c",line 569,column 3,is_stmt
    3560 00000306 8B92          MOVL      XAR1,*+XAR2[AR0]      ; [CPU_] |569| 
    3561 00000307 8AA1          MOVL      XAR4,XAR1             ; [CPU_] |569| 
    3562 00000308 DC02          ADDB      XAR4,#2               ; [CPU_] |569| 
    3563 00000309 88C4          MOVZ      AR6,*+XAR4[0]         ; [CPU_] |569| 
    3564                      .dwpsn  file "D:/BM1000_v1.1/sw/drivers/drvic/modbus/mb.c",line 570,column 3,is_stmt
    3565 0000030a 5603          MOV       ACC,AR6 << #8         ; [CPU_] |570| 
TMS320C2000 Assembler PC v6.2.5 Wed Nov 22 14:48:16 2017

Tools Copyright (c) 1996-2014 Texas Instruments Incorporated
C:\Users\wmj\AppData\Local\Temp\0222411                              PAGE   68

         0000030b 08A6 
    3566 0000030c CACC          OR        AL,*+XAR4[1]          ; [CPU_] |570| 
    3567                      .dwpsn  file "D:/BM1000_v1.1/sw/drivers/drvic/modbus/mb.c",line 573,column 3,is_stmt
    3568 0000030d 5230          CMPB      AL,#48                ; [CPU_] |573| 
    3569                      .dwpsn  file "D:/BM1000_v1.1/sw/drivers/drvic/modbus/mb.c",line 570,column 3,is_stmt
    3570 0000030e 88A9          MOVZ      AR6,AL                ; [CPU_] |570| 
    3571                      .dwpsn  file "D:/BM1000_v1.1/sw/drivers/drvic/modbus/mb.c",line 573,column 3,is_stmt
    3572 0000030f 6259          B         $C$L78,GT             ; [CPU_] |573| 
    3573                      ; branchcc occurs ; [] |573| 
    3574 00000310 5230          CMPB      AL,#48                ; [CPU_] |573| 
    3575 00000311 56C1          BF        $C$L107,EQ            ; [CPU_] |573| 
         00000312 00FD 
    3576                      ; branchcc occurs ; [] |573| 
    3577 00000313 5212          CMPB      AL,#18                ; [CPU_] |573| 
    3578 00000314 622C          B         $C$L75,GT             ; [CPU_] |573| 
    3579                      ; branchcc occurs ; [] |573| 
    3580 00000315 5212          CMPB      AL,#18                ; [CPU_] |573| 
    3581 00000316 56C1          BF        $C$L123,EQ            ; [CPU_] |573| 
         00000317 0123 
    3582                      ; branchcc occurs ; [] |573| 
    3583 00000318 5205          CMPB      AL,#5                 ; [CPU_] |573| 
    3584 00000319 6219          B         $C$L74,GT             ; [CPU_] |573| 
    3585                      ; branchcc occurs ; [] |573| 
    3586 0000031a 5205          CMPB      AL,#5                 ; [CPU_] |573| 
    3587 0000031b 56C1          BF        $C$L129,EQ            ; [CPU_] |573| 
         0000031c 012C 
    3588                      ; branchcc occurs ; [] |573| 
    3589 0000031d 5202          CMPB      AL,#2                 ; [CPU_] |573| 
    3590 0000031e 620C          B         $C$L73,GT             ; [CPU_] |573| 
    3591                      ; branchcc occurs ; [] |573| 
    3592 0000031f 5202          CMPB      AL,#2                 ; [CPU_] |573| 
    3593 00000320 56C1          BF        $C$L133,EQ            ; [CPU_] |573| 
         00000321 0131 
    3594                      ; branchcc occurs ; [] |573| 
    3595 00000322 5200          CMPB      AL,#0                 ; [CPU_] |573| 
    3596 00000323 56C1          BF        $C$L137,EQ            ; [CPU_] |573| 
         00000324 0134 
    3597                      ; branchcc occurs ; [] |573| 
    3598 00000325 5201          CMPB      AL,#1                 ; [CPU_] |573| 
    3599 00000326 56C1          BF        $C$L134,EQ            ; [CPU_] |573| 
         00000327 012D 
    3600                      ; branchcc occurs ; [] |573| 
    3601 00000328 FFEF          B         $C$L138,UNC           ; [CPU_] |573| 
         00000329 0131 
    3602                      ; branch occurs ; [] |573| 
    3603 0000032a       $C$L73:    
    3604 0000032a 5203          CMPB      AL,#3                 ; [CPU_] |573| 
    3605 0000032b 56C1          BF        $C$L132,EQ            ; [CPU_] |573| 
         0000032c 0124 
    3606                      ; branchcc occurs ; [] |573| 
    3607 0000032d 5204          CMPB      AL,#4                 ; [CPU_] |573| 
    3608 0000032e 56C1          BF        $C$L130,EQ            ; [CPU_] |573| 
         0000032f 011B 
    3609                      ; branchcc occurs ; [] |573| 
    3610 00000330 FFEF          B         $C$L138,UNC           ; [CPU_] |573| 
TMS320C2000 Assembler PC v6.2.5 Wed Nov 22 14:48:16 2017

Tools Copyright (c) 1996-2014 Texas Instruments Incorporated
C:\Users\wmj\AppData\Local\Temp\0222411                              PAGE   69

         00000331 0129 
    3611                      ; branch occurs ; [] |573| 
    3612 00000332       $C$L74:    
    3613 00000332 5206          CMPB      AL,#6                 ; [CPU_] |573| 
    3614 00000333 56C1          BF        $C$L128,EQ            ; [CPU_] |573| 
         00000334 0112 
    3615                      ; branchcc occurs ; [] |573| 
    3616 00000335 5207          CMPB      AL,#7                 ; [CPU_] |573| 
    3617 00000336 56C1          BF        $C$L127,EQ            ; [CPU_] |573| 
         00000337 010D 
    3618                      ; branchcc occurs ; [] |573| 
    3619 00000338 5210          CMPB      AL,#16                ; [CPU_] |573| 
    3620 00000339 56C1          BF        $C$L126,EQ            ; [CPU_] |573| 
         0000033a 0108 
    3621                      ; branchcc occurs ; [] |573| 
    3622 0000033b 5211          CMPB      AL,#17                ; [CPU_] |573| 
    3623 0000033c 56C1          BF        $C$L124,EQ            ; [CPU_] |573| 
         0000033d 00FF 
    3624                      ; branchcc occurs ; [] |573| 
    3625 0000033e FFEF          B         $C$L138,UNC           ; [CPU_] |573| 
         0000033f 011B 
    3626                      ; branch occurs ; [] |573| 
    3627 00000340       $C$L75:    
    3628 00000340 5221          CMPB      AL,#33                ; [CPU_] |573| 
    3629 00000341 6219          B         $C$L77,GT             ; [CPU_] |573| 
    3630                      ; branchcc occurs ; [] |573| 
    3631 00000342 5221          CMPB      AL,#33                ; [CPU_] |573| 
    3632 00000343 56C1          BF        $C$L114,EQ            ; [CPU_] |573| 
         00000344 00DD 
    3633                      ; branchcc occurs ; [] |573| 
    3634 00000345 5215          CMPB      AL,#21                ; [CPU_] |573| 
    3635 00000346 620C          B         $C$L76,GT             ; [CPU_] |573| 
    3636                      ; branchcc occurs ; [] |573| 
    3637 00000347 5215          CMPB      AL,#21                ; [CPU_] |573| 
    3638 00000348 56C1          BF        $C$L118,EQ            ; [CPU_] |573| 
         00000349 00E3 
    3639                      ; branchcc occurs ; [] |573| 
    3640 0000034a 5213          CMPB      AL,#19                ; [CPU_] |573| 
    3641 0000034b 56C1          BF        $C$L121,EQ            ; [CPU_] |573| 
         0000034c 00E8 
    3642                      ; branchcc occurs ; [] |573| 
    3643 0000034d 5214          CMPB      AL,#20                ; [CPU_] |573| 
    3644 0000034e 56C1          BF        $C$L120,EQ            ; [CPU_] |573| 
         0000034f 00E3 
    3645                      ; branchcc occurs ; [] |573| 
    3646 00000350 FFEF          B         $C$L138,UNC           ; [CPU_] |573| 
         00000351 0109 
    3647                      ; branch occurs ; [] |573| 
    3648 00000352       $C$L76:    
    3649 00000352 5216          CMPB      AL,#22                ; [CPU_] |573| 
    3650 00000353 56C1          BF        $C$L117,EQ            ; [CPU_] |573| 
         00000354 00D6 
    3651                      ; branchcc occurs ; [] |573| 
    3652 00000355 5220          CMPB      AL,#32                ; [CPU_] |573| 
    3653 00000356 56C1          BF        $C$L115,EQ            ; [CPU_] |573| 
TMS320C2000 Assembler PC v6.2.5 Wed Nov 22 14:48:16 2017

Tools Copyright (c) 1996-2014 Texas Instruments Incorporated
C:\Users\wmj\AppData\Local\Temp\0222411                              PAGE   70

         00000357 00CC 
    3654                      ; branchcc occurs ; [] |573| 
    3655 00000358 FFEF          B         $C$L138,UNC           ; [CPU_] |573| 
         00000359 0101 
    3656                      ; branch occurs ; [] |573| 
    3657 0000035a       $C$L77:    
    3658 0000035a 5222          CMPB      AL,#34                ; [CPU_] |573| 
    3659 0000035b 56C1          BF        $C$L112,EQ            ; [CPU_] |573| 
         0000035c 00BF 
    3660                      ; branchcc occurs ; [] |573| 
    3661 0000035d 5223          CMPB      AL,#35                ; [CPU_] |573| 
    3662 0000035e 56C1          BF        $C$L110,EQ            ; [CPU_] |573| 
         0000035f 00B6 
    3663                      ; branchcc occurs ; [] |573| 
    3664 00000360 5224          CMPB      AL,#36                ; [CPU_] |573| 
    3665 00000361 56C1          BF        $C$L109,EQ            ; [CPU_] |573| 
         00000362 00B1 
    3666                      ; branchcc occurs ; [] |573| 
    3667 00000363 5225          CMPB      AL,#37                ; [CPU_] |573| 
    3668 00000364 56C1          BF        $C$L108,EQ            ; [CPU_] |573| 
         00000365 00AC 
    3669                      ; branchcc occurs ; [] |573| 
    3670 00000366 FFEF          B         $C$L138,UNC           ; [CPU_] |573| 
         00000367 00F3 
    3671                      ; branch occurs ; [] |573| 
    3672 00000368       $C$L78:    
    3673 00000368 1BA6          CMP       AR6,#257              ; [CPU_] |573| 
         00000369 0101 
    3674 0000036a 622B          B         $C$L81,GT             ; [CPU_] |573| 
    3675                      ; branchcc occurs ; [] |573| 
    3676 0000036b 1BA6          CMP       AR6,#257              ; [CPU_] |573| 
         0000036c 0101 
    3677 0000036d 56C1          BF        $C$L95,EQ             ; [CPU_] |573| 
         0000036e 0089 
    3678                      ; branchcc occurs ; [] |573| 
    3679 0000036f 5240          CMPB      AL,#64                ; [CPU_] |573| 
    3680 00000370 6218          B         $C$L80,GT             ; [CPU_] |573| 
    3681                      ; branchcc occurs ; [] |573| 
    3682 00000371 5240          CMPB      AL,#64                ; [CPU_] |573| 
    3683 00000372 56C1          BF        $C$L101,EQ            ; [CPU_] |573| 
         00000373 0090 
    3684                      ; branchcc occurs ; [] |573| 
    3685 00000374 5233          CMPB      AL,#51                ; [CPU_] |573| 
    3686 00000375 620C          B         $C$L79,GT             ; [CPU_] |573| 
    3687                      ; branchcc occurs ; [] |573| 
    3688 00000376 5233          CMPB      AL,#51                ; [CPU_] |573| 
    3689 00000377 56C1          BF        $C$L104,EQ            ; [CPU_] |573| 
         00000378 0091 
    3690                      ; branchcc occurs ; [] |573| 
    3691 00000379 5231          CMPB      AL,#49                ; [CPU_] |573| 
    3692 0000037a 56C1          BF        $C$L106,EQ            ; [CPU_] |573| 
         0000037b 0092 
    3693                      ; branchcc occurs ; [] |573| 
    3694 0000037c 5232          CMPB      AL,#50                ; [CPU_] |573| 
    3695 0000037d 56C1          BF        $C$L105,EQ            ; [CPU_] |573| 
TMS320C2000 Assembler PC v6.2.5 Wed Nov 22 14:48:16 2017

Tools Copyright (c) 1996-2014 Texas Instruments Incorporated
C:\Users\wmj\AppData\Local\Temp\0222411                              PAGE   71

         0000037e 008D 
    3696                      ; branchcc occurs ; [] |573| 
    3697 0000037f FFEF          B         $C$L138,UNC           ; [CPU_] |573| 
         00000380 00DA 
    3698                      ; branch occurs ; [] |573| 
    3699 00000381       $C$L79:    
    3700 00000381 5234          CMPB      AL,#52                ; [CPU_] |573| 
    3701 00000382 56C1          BF        $C$L103,EQ            ; [CPU_] |573| 
         00000383 0084 
    3702                      ; branchcc occurs ; [] |573| 
    3703 00000384 5235          CMPB      AL,#53                ; [CPU_] |573| 
    3704 00000385 EC7F          BF        $C$L102,EQ            ; [CPU_] |573| 
    3705                      ; branchcc occurs ; [] |573| 
    3706 00000386 FFEF          B         $C$L138,UNC           ; [CPU_] |573| 
         00000387 00D3 
    3707                      ; branch occurs ; [] |573| 
    3708 00000388       $C$L80:    
    3709 00000388 5241          CMPB      AL,#65                ; [CPU_] |573| 
    3710 00000389 EC77          BF        $C$L100,EQ            ; [CPU_] |573| 
    3711                      ; branchcc occurs ; [] |573| 
    3712 0000038a 5242          CMPB      AL,#66                ; [CPU_] |573| 
    3713 0000038b EC73          BF        $C$L99,EQ             ; [CPU_] |573| 
    3714                      ; branchcc occurs ; [] |573| 
    3715 0000038c 5243          CMPB      AL,#67                ; [CPU_] |573| 
    3716 0000038d EC6F          BF        $C$L98,EQ             ; [CPU_] |573| 
    3717                      ; branchcc occurs ; [] |573| 
    3718 0000038e FF20          MOV       ACC,#256              ; [CPU_] |573| 
         0000038f 0100 
    3719 00000390 88A6          MOVZ      AR6,AR6               ; [CPU_] |573| 
    3720 00000391 0FA6          CMPL      ACC,XAR6              ; [CPU_] |573| 
    3721 00000392 EC67          BF        $C$L97,EQ             ; [CPU_] |573| 
    3722                      ; branchcc occurs ; [] |573| 
    3723 00000393 FFEF          B         $C$L138,UNC           ; [CPU_] |573| 
         00000394 00C6 
    3724                      ; branch occurs ; [] |573| 
    3725 00000395       $C$L81:    
    3726 00000395 1BA6          CMP       AR6,#513              ; [CPU_] |573| 
         00000396 0201 
    3727 00000397 6222          B         $C$L83,GT             ; [CPU_] |573| 
    3728                      ; branchcc occurs ; [] |573| 
    3729 00000398 1BA6          CMP       AR6,#513              ; [CPU_] |573| 
         00000399 0201 
    3730 0000039a EC4A          BF        $C$L88,EQ             ; [CPU_] |573| 
    3731                      ; branchcc occurs ; [] |573| 
    3732 0000039b 1BA6          CMP       AR6,#260              ; [CPU_] |573| 
         0000039c 0104 
    3733 0000039d 6210          B         $C$L82,GT             ; [CPU_] |573| 
    3734                      ; branchcc occurs ; [] |573| 
    3735 0000039e 1BA6          CMP       AR6,#260              ; [CPU_] |573| 
         0000039f 0104 
    3736 000003a0 EC4E          BF        $C$L92,EQ             ; [CPU_] |573| 
    3737                      ; branchcc occurs ; [] |573| 
    3738 000003a1 FF20          MOV       ACC,#258              ; [CPU_] |573| 
         000003a2 0102 
    3739 000003a3 80A6          MOVZ      AR7,AR6               ; [CPU_] |573| 
TMS320C2000 Assembler PC v6.2.5 Wed Nov 22 14:48:16 2017

Tools Copyright (c) 1996-2014 Texas Instruments Incorporated
C:\Users\wmj\AppData\Local\Temp\0222411                              PAGE   72

    3740 000003a4 0FA7          CMPL      ACC,XAR7              ; [CPU_] |573| 
    3741 000003a5 EC4F          BF        $C$L94,EQ             ; [CPU_] |573| 
    3742                      ; branchcc occurs ; [] |573| 
    3743 000003a6 FF20          MOV       ACC,#259              ; [CPU_] |573| 
         000003a7 0103 
    3744 000003a8 88A6          MOVZ      AR6,AR6               ; [CPU_] |573| 
    3745 000003a9 0FA6          CMPL      ACC,XAR6              ; [CPU_] |573| 
    3746 000003aa EC48          BF        $C$L93,EQ             ; [CPU_] |573| 
    3747                      ; branchcc occurs ; [] |573| 
    3748 000003ab FFEF          B         $C$L138,UNC           ; [CPU_] |573| 
         000003ac 00AE 
    3749                      ; branch occurs ; [] |573| 
    3750 000003ad       $C$L82:    
    3751 000003ad FF20          MOV       ACC,#261              ; [CPU_] |573| 
         000003ae 0105 
    3752 000003af 80A6          MOVZ      AR7,AR6               ; [CPU_] |573| 
    3753 000003b0 0FA7          CMPL      ACC,XAR7              ; [CPU_] |573| 
    3754 000003b1 EC3B          BF        $C$L91,EQ             ; [CPU_] |573| 
    3755                      ; branchcc occurs ; [] |573| 
    3756 000003b2 FF20          MOV       ACC,#512              ; [CPU_] |573| 
         000003b3 0200 
    3757 000003b4 88A6          MOVZ      AR6,AR6               ; [CPU_] |573| 
    3758 000003b5 0FA6          CMPL      ACC,XAR6              ; [CPU_] |573| 
    3759 000003b6 EC34          BF        $C$L90,EQ             ; [CPU_] |573| 
    3760                      ; branchcc occurs ; [] |573| 
    3761 000003b7 FFEF          B         $C$L138,UNC           ; [CPU_] |573| 
         000003b8 00A2 
    3762                      ; branch occurs ; [] |573| 
    3763 000003b9       $C$L83:    
    3764 000003b9 FF20          MOV       ACC,#514              ; [CPU_] |573| 
         000003ba 0202 
    3765 000003bb 80A6          MOVZ      AR7,AR6               ; [CPU_] |573| 
    3766 000003bc 0FA7          CMPL      ACC,XAR7              ; [CPU_] |573| 
    3767 000003bd EC1A          BF        $C$L86,EQ             ; [CPU_] |573| 
    3768                      ; branchcc occurs ; [] |573| 
    3769 000003be FF20          MOV       ACC,#515              ; [CPU_] |573| 
         000003bf 0203 
    3770 000003c0 80A6          MOVZ      AR7,AR6               ; [CPU_] |573| 
    3771 000003c1 0FA7          CMPL      ACC,XAR7              ; [CPU_] |573| 
    3772 000003c2 EC13          BF        $C$L85,EQ             ; [CPU_] |573| 
    3773                      ; branchcc occurs ; [] |573| 
    3774 000003c3 FF20          MOV       ACC,#516              ; [CPU_] |573| 
         000003c4 0204 
    3775 000003c5 80A6          MOVZ      AR7,AR6               ; [CPU_] |573| 
    3776 000003c6 0FA7          CMPL      ACC,XAR7              ; [CPU_] |573| 
    3777 000003c7 EC0C          BF        $C$L84,EQ             ; [CPU_] |573| 
    3778                      ; branchcc occurs ; [] |573| 
    3779 000003c8 FF20          MOV       ACC,#517              ; [CPU_] |573| 
         000003c9 0205 
    3780 000003ca 88A6          MOVZ      AR6,AR6               ; [CPU_] |573| 
    3781 000003cb 0FA6          CMPL      ACC,XAR6              ; [CPU_] |573| 
    3782 000003cc 56C0          BF        $C$L138,NEQ           ; [CPU_] |573| 
         000003cd 008D 
    3783                      ; branchcc occurs ; [] |573| 
    3784                      .dwpsn  file "D:/BM1000_v1.1/sw/drivers/drvic/fsm.h",line 670,column 3,is_stmt
TMS320C2000 Assembler PC v6.2.5 Wed Nov 22 14:48:16 2017

Tools Copyright (c) 1996-2014 Texas Instruments Incorporated
C:\Users\wmj\AppData\Local\Temp\0222411                              PAGE   73

    3785 000003ce 8AD2          MOVL      XAR4,*+XAR2[2]        ; [CPU_] |670| 
    3786 000003cf D016          MOVB      XAR0,#22              ; [CPU_] |670| 
    3787 000003d0 8894          MOVZ      AR6,*+XAR4[AR0]       ; [CPU_] |670| 
    3788                      .dwpsn  file "D:/BM1000_v1.1/sw/drivers/drvic/fsm.h",line 674,column 3,is_stmt
    3789 000003d1 D018          MOVB      XAR0,#24              ; [CPU_] |674| 
    3790 000003d2 6F09          B         $C$L87,UNC            ; [CPU_] |674| 
    3791                      ; branch occurs ; [] |674| 
    3792 000003d3       $C$L84:    
    3793                      .dwpsn  file "D:/BM1000_v1.1/sw/drivers/drvic/fsm.h",line 662,column 3,is_stmt
    3794 000003d3 D018          MOVB      XAR0,#24              ; [CPU_] |662| 
    3795 000003d4 6F11          B         $C$L89,UNC            ; [CPU_] |662| 
    3796                      ; branch occurs ; [] |662| 
    3797 000003d5       $C$L85:    
    3798                      .dwpsn  file "D:/BM1000_v1.1/sw/drivers/drvic/fsm.h",line 650,column 3,is_stmt
    3799 000003d5 D016          MOVB      XAR0,#22              ; [CPU_] |650| 
    3800 000003d6 6F21          B         $C$L96,UNC            ; [CPU_] |650| 
    3801                      ; branch occurs ; [] |650| 
    3802 000003d7       $C$L86:    
    3803                      .dwpsn  file "D:/BM1000_v1.1/sw/drivers/drvic/fsm.h",line 635,column 3,is_stmt
    3804 000003d7 8AD2          MOVL      XAR4,*+XAR2[2]        ; [CPU_] |635| 
    3805 000003d8 D01A          MOVB      XAR0,#26              ; [CPU_] |635| 
    3806 000003d9 8894          MOVZ      AR6,*+XAR4[AR0]       ; [CPU_] |635| 
    3807                      .dwpsn  file "D:/BM1000_v1.1/sw/drivers/drvic/fsm.h",line 639,column 3,is_stmt
    3808 000003da D01C          MOVB      XAR0,#28              ; [CPU_] |639| 
    3809 000003db       $C$L87:    
    3810 000003db 0694          MOVL      ACC,*+XAR4[AR0]       ; [CPU_] |639| 
    3811 000003dc 28AC          MOV       T,#17                 ; [CPU_] |639| 
         000003dd 0011 
    3812 000003de 5610          ASRL      ACC,T                 ; [CPU_] |639| 
    3813 000003df 93A6          MOV       AH,AR6                ; [CPU_] |639| 
    3814 000003e0 FF96          LSL       AH,7                  ; [CPU_] |639| 
    3815 000003e1 88A8          MOVZ      AR6,AH                ; [CPU_] |639| 
    3816 000003e2 94A6          ADD       AL,AR6                ; [CPU_] |639| 
    3817 000003e3 6F76          B         $C$L138,UNC           ; [CPU_] |639| 
    3818                      ; branch occurs ; [] |639| 
    3819 000003e4       $C$L88:    
    3820                      .dwpsn  file "D:/BM1000_v1.1/sw/drivers/drvic/fsm.h",line 627,column 3,is_stmt
    3821 000003e4 D01C          MOVB      XAR0,#28              ; [CPU_] |627| 
    3822 000003e5       $C$L89:    
    3823 000003e5 8AD2          MOVL      XAR4,*+XAR2[2]        ; [CPU_] |627| 
    3824 000003e6 3B01          SETC      SXM                   ; [CPU_] 
    3825 000003e7 0694          MOVL      ACC,*+XAR4[AR0]       ; [CPU_] |627| 
    3826 000003e8 FF48          SFR       ACC,9                 ; [CPU_] |627| 
    3827 000003e9 6F70          B         $C$L138,UNC           ; [CPU_] |627| 
    3828                      ; branch occurs ; [] |627| 
    3829 000003ea       $C$L90:    
    3830                      .dwpsn  file "D:/BM1000_v1.1/sw/drivers/drvic/fsm.h",line 614,column 3,is_stmt
    3831 000003ea D01A          MOVB      XAR0,#26              ; [CPU_] |614| 
    3832 000003eb 6F0C          B         $C$L96,UNC            ; [CPU_] |614| 
    3833                      ; branch occurs ; [] |614| 
    3834 000003ec       $C$L91:    
    3835                      .dwpsn  file "D:/BM1000_v1.1/sw/drivers/drvic/modbus/mb.c",line 481,column 3,is_stmt
    3836 000003ec 9A00          MOVB      AL,#0                 ; [CPU_] |481| 
    3837 000003ed 6F6C          B         $C$L138,UNC           ; [CPU_] |481| 
    3838                      ; branch occurs ; [] |481| 
TMS320C2000 Assembler PC v6.2.5 Wed Nov 22 14:48:16 2017

Tools Copyright (c) 1996-2014 Texas Instruments Incorporated
C:\Users\wmj\AppData\Local\Temp\0222411                              PAGE   74

    3839 000003ee       $C$L92:    
    3840                      .dwpsn  file "D:/BM1000_v1.1/sw/drivers/drvic/modbus/mb.c",line 628,column 34,is_stmt
    3841 000003ee 8AD2          MOVL      XAR4,*+XAR2[2]        ; [CPU_] |628| 
    3842              $C$DW$249       .dwtag  DW_TAG_TI_branch
    3843                      .dwattr $C$DW$249, DW_AT_low_pc(0x00)
    3844                      .dwattr $C$DW$249, DW_AT_name("_FSM_485Read_State_Box")
    3845                      .dwattr $C$DW$249, DW_AT_TI_call
    3846 000003ef 7640!         LCR       #_FSM_485Read_State_Box ; [CPU_] |628| 
         000003f0 0000 
    3847                      ; call occurs [#_FSM_485Read_State_Box] ; [] |628| 
    3848                      .dwpsn  file "D:/BM1000_v1.1/sw/drivers/drvic/modbus/mb.c",line 628,column 83,is_stmt
    3849 000003f1 6F5B          B         $C$L131,UNC           ; [CPU_] |628| 
    3850                      ; branch occurs ; [] |628| 
    3851 000003f2       $C$L93:    
    3852                      .dwpsn  file "D:/BM1000_v1.1/sw/drivers/drvic/fsm.h",line 524,column 3,is_stmt
    3853 000003f2 D010          MOVB      XAR0,#16              ; [CPU_] |524| 
    3854 000003f3 6F04          B         $C$L96,UNC            ; [CPU_] |524| 
    3855                      ; branch occurs ; [] |524| 
    3856 000003f4       $C$L94:    
    3857                      .dwpsn  file "D:/BM1000_v1.1/sw/drivers/drvic/fsm.h",line 557,column 3,is_stmt
    3858 000003f4 D00F          MOVB      XAR0,#15              ; [CPU_] |557| 
    3859 000003f5 6F02          B         $C$L96,UNC            ; [CPU_] |557| 
    3860                      ; branch occurs ; [] |557| 
    3861 000003f6       $C$L95:    
    3862                      .dwpsn  file "D:/BM1000_v1.1/sw/drivers/drvic/fsm.h",line 508,column 3,is_stmt
    3863 000003f6 D00B          MOVB      XAR0,#11              ; [CPU_] |508| 
    3864 000003f7       $C$L96:    
    3865 000003f7 8AD2          MOVL      XAR4,*+XAR2[2]        ; [CPU_] |508| 
    3866 000003f8 6F5D          B         $C$L136,UNC           ; [CPU_] |508| 
    3867                      ; branch occurs ; [] |508| 
    3868 000003f9       $C$L97:    
    3869                      .dwpsn  file "D:/BM1000_v1.1/sw/drivers/drvic/fsm.h",line 413,column 4,is_stmt
    3870 000003f9 8AD2          MOVL      XAR4,*+XAR2[2]        ; [CPU_] |413| 
    3871 000003fa 92F4          MOV       AL,*+XAR4[6]          ; [CPU_] |413| 
    3872 000003fb 6F5E          B         $C$L138,UNC           ; [CPU_] |413| 
    3873                      ; branch occurs ; [] |413| 
    3874 000003fc       $C$L98:    
    3875                      .dwpsn  file "D:/BM1000_v1.1/sw/drivers/drvic/modbus/mb.c",line 481,column 3,is_stmt
    3876 000003fc D044          MOVB      XAR0,#68              ; [CPU_] |481| 
    3877 000003fd 6F26          B         $C$L116,UNC           ; [CPU_] |481| 
    3878                      ; branch occurs ; [] |481| 
    3879 000003fe       $C$L99:    
    3880 000003fe D042          MOVB      XAR0,#66              ; [CPU_] |481| 
    3881 000003ff 6F24          B         $C$L116,UNC           ; [CPU_] |481| 
    3882                      ; branch occurs ; [] |481| 
    3883 00000400       $C$L100:    
    3884 00000400 D040          MOVB      XAR0,#64              ; [CPU_] |481| 
    3885 00000401 6F22          B         $C$L116,UNC           ; [CPU_] |481| 
    3886                      ; branch occurs ; [] |481| 
    3887 00000402       $C$L101:    
    3888 00000402 D03E          MOVB      XAR0,#62              ; [CPU_] |481| 
    3889 00000403 6F20          B         $C$L116,UNC           ; [CPU_] |481| 
    3890                      ; branch occurs ; [] |481| 
    3891 00000404       $C$L102:    
    3892                      .dwpsn  file "D:/BM1000_v1.1/sw/drivers/drvic/modbus/mb.c",line 499,column 3,is_stmt
TMS320C2000 Assembler PC v6.2.5 Wed Nov 22 14:48:16 2017

Tools Copyright (c) 1996-2014 Texas Instruments Incorporated
C:\Users\wmj\AppData\Local\Temp\0222411                              PAGE   75

    3893 00000404 D056          MOVB      XAR0,#86              ; [CPU_] |499| 
    3894 00000405 6F16          B         $C$L113,UNC           ; [CPU_] |499| 
    3895                      ; branch occurs ; [] |499| 
    3896 00000406       $C$L103:    
    3897                      .dwpsn  file "D:/BM1000_v1.1/sw/drivers/drvic/modbus/mb.c",line 481,column 3,is_stmt
    3898 00000406 D022          MOVB      XAR0,#34              ; [CPU_] |481| 
    3899 00000407 6F1C          B         $C$L116,UNC           ; [CPU_] |481| 
    3900                      ; branch occurs ; [] |481| 
    3901 00000408       $C$L104:    
    3902                      .dwpsn  file "D:/BM1000_v1.1/sw/drivers/drvic/modbus/mb.c",line 490,column 3,is_stmt
    3903 00000408 D020          MOVB      XAR0,#32              ; [CPU_] |490| 
    3904 00000409 6F0C          B         $C$L111,UNC           ; [CPU_] |490| 
    3905                      ; branch occurs ; [] |490| 
    3906 0000040a       $C$L105:    
    3907                      .dwpsn  file "D:/BM1000_v1.1/sw/drivers/drvic/modbus/mb.c",line 481,column 3,is_stmt
    3908 0000040a D01E          MOVB      XAR0,#30              ; [CPU_] |481| 
    3909 0000040b 6F18          B         $C$L116,UNC           ; [CPU_] |481| 
    3910                      ; branch occurs ; [] |481| 
    3911 0000040c       $C$L106:    
    3912 0000040c D01C          MOVB      XAR0,#28              ; [CPU_] |481| 
    3913 0000040d 6F16          B         $C$L116,UNC           ; [CPU_] |481| 
    3914                      ; branch occurs ; [] |481| 
    3915 0000040e       $C$L107:    
    3916 0000040e D01A          MOVB      XAR0,#26              ; [CPU_] |481| 
    3917 0000040f 6F14          B         $C$L116,UNC           ; [CPU_] |481| 
    3918                      ; branch occurs ; [] |481| 
    3919 00000410       $C$L108:    
    3920                      .dwpsn  file "D:/BM1000_v1.1/sw/drivers/drvic/modbus/mb.c",line 508,column 3,is_stmt
    3921 00000410 D066          MOVB      XAR0,#102             ; [CPU_] |508| 
    3922 00000411 6F43          B         $C$L135,UNC           ; [CPU_] |508| 
    3923                      ; branch occurs ; [] |508| 
    3924 00000412       $C$L109:    
    3925 00000412 D064          MOVB      XAR0,#100             ; [CPU_] |508| 
    3926 00000413 6F41          B         $C$L135,UNC           ; [CPU_] |508| 
    3927                      ; branch occurs ; [] |508| 
    3928 00000414       $C$L110:    
    3929                      .dwpsn  file "D:/BM1000_v1.1/sw/drivers/drvic/modbus/mb.c",line 490,column 3,is_stmt
    3930 00000414 D06A          MOVB      XAR0,#106             ; [CPU_] |490| 
    3931 00000415       $C$L111:    
    3932 00000415 8AC2          MOVL      XAR4,*+XAR2[0]        ; [CPU_] |490| 
    3933 00000416 3B01          SETC      SXM                   ; [CPU_] 
    3934 00000417 0694          MOVL      ACC,*+XAR4[AR0]       ; [CPU_] |490| 
    3935 00000418 FF4C          SFR       ACC,13                ; [CPU_] |490| 
    3936 00000419 6F40          B         $C$L138,UNC           ; [CPU_] |490| 
    3937                      ; branch occurs ; [] |490| 
    3938 0000041a       $C$L112:    
    3939                      .dwpsn  file "D:/BM1000_v1.1/sw/drivers/drvic/modbus/mb.c",line 499,column 3,is_stmt
    3940 0000041a D06C          MOVB      XAR0,#108             ; [CPU_] |499| 
    3941 0000041b       $C$L113:    
    3942 0000041b 8AC2          MOVL      XAR4,*+XAR2[0]        ; [CPU_] |499| 
    3943 0000041c 3B01          SETC      SXM                   ; [CPU_] 
    3944 0000041d 0694          MOVL      ACC,*+XAR4[AR0]       ; [CPU_] |499| 
    3945 0000041e FF49          SFR       ACC,10                ; [CPU_] |499| 
    3946 0000041f 6F3A          B         $C$L138,UNC           ; [CPU_] |499| 
    3947                      ; branch occurs ; [] |499| 
TMS320C2000 Assembler PC v6.2.5 Wed Nov 22 14:48:16 2017

Tools Copyright (c) 1996-2014 Texas Instruments Incorporated
C:\Users\wmj\AppData\Local\Temp\0222411                              PAGE   76

    3948 00000420       $C$L114:    
    3949                      .dwpsn  file "D:/BM1000_v1.1/sw/drivers/drvic/modbus/mb.c",line 481,column 3,is_stmt
    3950 00000420 D028          MOVB      XAR0,#40              ; [CPU_] |481| 
    3951 00000421 6F02          B         $C$L116,UNC           ; [CPU_] |481| 
    3952                      ; branch occurs ; [] |481| 
    3953 00000422       $C$L115:    
    3954 00000422 D024          MOVB      XAR0,#36              ; [CPU_] |481| 
    3955 00000423       $C$L116:    
    3956 00000423 8AC2          MOVL      XAR4,*+XAR2[0]        ; [CPU_] |481| 
    3957 00000424 28AC          MOV       T,#17                 ; [CPU_] |481| 
         00000425 0011 
    3958 00000426 0694          MOVL      ACC,*+XAR4[AR0]       ; [CPU_] |481| 
    3959 00000427 5610          ASRL      ACC,T                 ; [CPU_] |481| 
    3960 00000428 6F31          B         $C$L138,UNC           ; [CPU_] |481| 
    3961                      ; branch occurs ; [] |481| 
    3962 00000429       $C$L117:    
    3963                      .dwpsn  file "D:/BM1000_v1.1/sw/drivers/drvic/modbus/mb.c",line 593,column 34,is_stmt
    3964 00000429 D034          MOVB      XAR0,#52              ; [CPU_] |593| 
    3965                      .dwpsn  file "D:/BM1000_v1.1/sw/drivers/drvic/modbus/mb.c",line 593,column 108,is_stmt
    3966 0000042a 6F02          B         $C$L119,UNC           ; [CPU_] |593| 
    3967                      ; branch occurs ; [] |593| 
    3968 0000042b       $C$L118:    
    3969                      .dwpsn  file "D:/BM1000_v1.1/sw/drivers/drvic/modbus/mb.c",line 592,column 33,is_stmt
    3970 0000042b D032          MOVB      XAR0,#50              ; [CPU_] |592| 
    3971 0000042c       $C$L119:    
    3972 0000042c 8AC2          MOVL      XAR4,*+XAR2[0]        ; [CPU_] |592| 
    3973 0000042d 0694          MOVL      ACC,*+XAR4[AR0]       ; [CPU_] |592| 
    3974              $C$DW$250       .dwtag  DW_TAG_TI_branch
    3975                      .dwattr $C$DW$250, DW_AT_low_pc(0x00)
    3976                      .dwattr $C$DW$250, DW_AT_name("_MB_FloatTransToIQ8")
    3977                      .dwattr $C$DW$250, DW_AT_TI_call
    3978 0000042e 7640'         LCR       #_MB_FloatTransToIQ8  ; [CPU_] |592| 
         0000042f 02BE 
    3979                      ; call occurs [#_MB_FloatTransToIQ8] ; [] |592| 
    3980                      .dwpsn  file "D:/BM1000_v1.1/sw/drivers/drvic/modbus/mb.c",line 592,column 106,is_stmt
    3981 00000430 6F29          B         $C$L138,UNC           ; [CPU_] |592| 
    3982                      ; branch occurs ; [] |592| 
    3983 00000431       $C$L120:    
    3984                      .dwpsn  file "D:/BM1000_v1.1/sw/drivers/drvic/modbus/mb.c",line 591,column 33,is_stmt
    3985 00000431 D030          MOVB      XAR0,#48              ; [CPU_] |591| 
    3986                      .dwpsn  file "D:/BM1000_v1.1/sw/drivers/drvic/modbus/mb.c",line 591,column 107,is_stmt
    3987 00000432 6F02          B         $C$L122,UNC           ; [CPU_] |591| 
    3988                      ; branch occurs ; [] |591| 
    3989 00000433       $C$L121:    
    3990                      .dwpsn  file "D:/BM1000_v1.1/sw/drivers/drvic/modbus/mb.c",line 590,column 33,is_stmt
    3991 00000433 D02E          MOVB      XAR0,#46              ; [CPU_] |590| 
    3992 00000434       $C$L122:    
    3993 00000434 8AC2          MOVL      XAR4,*+XAR2[0]        ; [CPU_] |590| 
    3994 00000435 0694          MOVL      ACC,*+XAR4[AR0]       ; [CPU_] |590| 
    3995              $C$DW$251       .dwtag  DW_TAG_TI_branch
    3996                      .dwattr $C$DW$251, DW_AT_low_pc(0x00)
    3997                      .dwattr $C$DW$251, DW_AT_name("_MB_FloatTransToIQ7X1000")
    3998                      .dwattr $C$DW$251, DW_AT_TI_call
    3999 00000436 7640'         LCR       #_MB_FloatTransToIQ7X1000 ; [CPU_] |590| 
         00000437 02D2 
TMS320C2000 Assembler PC v6.2.5 Wed Nov 22 14:48:16 2017

Tools Copyright (c) 1996-2014 Texas Instruments Incorporated
C:\Users\wmj\AppData\Local\Temp\0222411                              PAGE   77

    4000                      ; call occurs [#_MB_FloatTransToIQ7X1000] ; [] |590| 
    4001                      .dwpsn  file "D:/BM1000_v1.1/sw/drivers/drvic/modbus/mb.c",line 590,column 107,is_stmt
    4002 00000438 6F21          B         $C$L138,UNC           ; [CPU_] |590| 
    4003                      ; branch occurs ; [] |590| 
    4004 00000439       $C$L123:    
    4005                      .dwpsn  file "D:/BM1000_v1.1/sw/drivers/drvic/modbus/mb.c",line 589,column 31,is_stmt
    4006 00000439 D02C          MOVB      XAR0,#44              ; [CPU_] |589| 
    4007                      .dwpsn  file "D:/BM1000_v1.1/sw/drivers/drvic/modbus/mb.c",line 589,column 101,is_stmt
    4008 0000043a 6F02          B         $C$L125,UNC           ; [CPU_] |589| 
    4009                      ; branch occurs ; [] |589| 
    4010 0000043b       $C$L124:    
    4011                      .dwpsn  file "D:/BM1000_v1.1/sw/drivers/drvic/modbus/mb.c",line 588,column 31,is_stmt
    4012 0000043b D02A          MOVB      XAR0,#42              ; [CPU_] |588| 
    4013 0000043c       $C$L125:    
    4014 0000043c 8AC2          MOVL      XAR4,*+XAR2[0]        ; [CPU_] |588| 
    4015 0000043d 0694          MOVL      ACC,*+XAR4[AR0]       ; [CPU_] |588| 
    4016              $C$DW$252       .dwtag  DW_TAG_TI_branch
    4017                      .dwattr $C$DW$252, DW_AT_low_pc(0x00)
    4018                      .dwattr $C$DW$252, DW_AT_name("_MB_FloatTransToIQ7")
    4019                      .dwattr $C$DW$252, DW_AT_TI_call
    4020 0000043e 7640'         LCR       #_MB_FloatTransToIQ7  ; [CPU_] |588| 
         0000043f 02EC 
    4021                      ; call occurs [#_MB_FloatTransToIQ7] ; [] |588| 
    4022                      .dwpsn  file "D:/BM1000_v1.1/sw/drivers/drvic/modbus/mb.c",line 588,column 101,is_stmt
    4023 00000440 6F19          B         $C$L138,UNC           ; [CPU_] |588| 
    4024                      ; branch occurs ; [] |588| 
    4025 00000441       $C$L126:    
    4026                      .dwpsn  file "D:/BM1000_v1.1/sw/drivers/drvic/motor.h",line 390,column 3,is_stmt
    4027 00000441 D06E          MOVB      XAR0,#110             ; [CPU_] |390| 
    4028 00000442 6F12          B         $C$L135,UNC           ; [CPU_] |390| 
    4029                      ; branch occurs ; [] |390| 
    4030 00000443       $C$L127:    
    4031                      .dwpsn  file "D:/BM1000_v1.1/sw/drivers/drvic/motor.h",line 197,column 3,is_stmt
    4032 00000443 D014          MOVB      XAR0,#20              ; [CPU_] |197| 
    4033 00000444 6F10          B         $C$L135,UNC           ; [CPU_] |197| 
    4034                      ; branch occurs ; [] |197| 
    4035 00000445       $C$L128:    
    4036                      .dwpsn  file "D:/BM1000_v1.1/sw/drivers/drvic/motor.h",line 732,column 3,is_stmt
    4037 00000445 D013          MOVB      XAR0,#19              ; [CPU_] |732| 
    4038 00000446 6F0E          B         $C$L135,UNC           ; [CPU_] |732| 
    4039                      ; branch occurs ; [] |732| 
    4040 00000447       $C$L129:    
    4041                      .dwpsn  file "D:/BM1000_v1.1/sw/drivers/drvic/motor.h",line 725,column 3,is_stmt
    4042 00000447 D012          MOVB      XAR0,#18              ; [CPU_] |725| 
    4043 00000448 6F0C          B         $C$L135,UNC           ; [CPU_] |725| 
    4044                      ; branch occurs ; [] |725| 
    4045 00000449       $C$L130:    
    4046                      .dwpsn  file "D:/BM1000_v1.1/sw/drivers/drvic/modbus/mb.c",line 581,column 30,is_stmt
    4047 00000449 8AC2          MOVL      XAR4,*+XAR2[0]        ; [CPU_] |581| 
    4048              $C$DW$253       .dwtag  DW_TAG_TI_branch
    4049                      .dwattr $C$DW$253, DW_AT_low_pc(0x00)
    4050                      .dwattr $C$DW$253, DW_AT_name("_MOTOR_getMotorFlag")
    4051                      .dwattr $C$DW$253, DW_AT_TI_call
    4052 0000044a 7640!         LCR       #_MOTOR_getMotorFlag  ; [CPU_] |581| 
         0000044b 0000 
TMS320C2000 Assembler PC v6.2.5 Wed Nov 22 14:48:16 2017

Tools Copyright (c) 1996-2014 Texas Instruments Incorporated
C:\Users\wmj\AppData\Local\Temp\0222411                              PAGE   78

    4053                      ; call occurs [#_MOTOR_getMotorFlag] ; [] |581| 
    4054 0000044c       $C$L131:    
    4055 0000044c D00A          MOVB      XAR0,#10              ; [CPU_] 
    4056 0000044d 8B92          MOVL      XAR1,*+XAR2[AR0]      ; [CPU_] 
    4057                      .dwpsn  file "D:/BM1000_v1.1/sw/drivers/drvic/modbus/mb.c",line 581,column 78,is_stmt
    4058 0000044e 6F0B          B         $C$L138,UNC           ; [CPU_] |581| 
    4059                      ; branch occurs ; [] |581| 
    4060 0000044f       $C$L132:    
    4061                      .dwpsn  file "D:/BM1000_v1.1/sw/drivers/drvic/motor.h",line 753,column 3,is_stmt
    4062 0000044f D018          MOVB      XAR0,#24              ; [CPU_] |753| 
    4063 00000450 6F04          B         $C$L135,UNC           ; [CPU_] |753| 
    4064                      ; branch occurs ; [] |753| 
    4065 00000451       $C$L133:    
    4066                      .dwpsn  file "D:/BM1000_v1.1/sw/drivers/drvic/motor.h",line 746,column 3,is_stmt
    4067 00000451 D017          MOVB      XAR0,#23              ; [CPU_] |746| 
    4068 00000452 6F02          B         $C$L135,UNC           ; [CPU_] |746| 
    4069                      ; branch occurs ; [] |746| 
    4070 00000453       $C$L134:    
    4071                      .dwpsn  file "D:/BM1000_v1.1/sw/drivers/drvic/motor.h",line 739,column 3,is_stmt
    4072 00000453 D016          MOVB      XAR0,#22              ; [CPU_] |739| 
    4073 00000454       $C$L135:    
    4074 00000454 8AC2          MOVL      XAR4,*+XAR2[0]        ; [CPU_] |739| 
    4075 00000455       $C$L136:    
    4076 00000455 9294          MOV       AL,*+XAR4[AR0]        ; [CPU_] |739| 
    4077 00000456 6F03          B         $C$L138,UNC           ; [CPU_] |739| 
    4078                      ; branch occurs ; [] |739| 
    4079 00000457       $C$L137:    
    4080                      .dwpsn  file "D:/BM1000_v1.1/sw/drivers/drvic/modbus/mb.c",line 577,column 34,is_stmt
    4081 00000457 28A9          MOV       AL,#256               ; [CPU_] |577| 
         00000458 0100 
    4082 00000459       $C$L138:    
    4083                      .dwpsn  file "D:/BM1000_v1.1/sw/drivers/drvic/modbus/mb.c",line 648,column 3,is_stmt
    4084 00000459 CDA9          AND       AH,AL,#0x00ff         ; [CPU_] |648| 
         0000045a 00FF 
    4085                      .dwpsn  file "D:/BM1000_v1.1/sw/drivers/drvic/modbus/mb.c",line 649,column 3,is_stmt
    4086 0000045b D00A          MOVB      XAR0,#10              ; [CPU_] |649| 
    4087                      .dwpsn  file "D:/BM1000_v1.1/sw/drivers/drvic/modbus/mb.c",line 648,column 3,is_stmt
    4088 0000045c 97E9          MOV       *+XAR1[5],AH          ; [CPU_] |648| 
    4089                      .dwpsn  file "D:/BM1000_v1.1/sw/drivers/drvic/modbus/mb.c",line 649,column 3,is_stmt
    4090 0000045d 8A92          MOVL      XAR4,*+XAR2[AR0]      ; [CPU_] |649| 
    4091 0000045e FFC7          LSR       AL,8                  ; [CPU_] |649| 
    4092 0000045f 96E4          MOV       *+XAR4[4],AL          ; [CPU_] |649| 
    4093 00000460 86BE          MOVL      XAR2,*--SP            ; [CPU_] 
    4094                      .dwcfi  cfa_offset, -4
    4095                      .dwcfi  restore_reg, 9
    4096 00000461 8BBE          MOVL      XAR1,*--SP            ; [CPU_] 
    4097                      .dwcfi  cfa_offset, -2
    4098                      .dwcfi  restore_reg, 7
    4099              $C$DW$254       .dwtag  DW_TAG_TI_branch
    4100                      .dwattr $C$DW$254, DW_AT_low_pc(0x00)
    4101                      .dwattr $C$DW$254, DW_AT_TI_return
    4102 00000462 0006          LRETR     ; [CPU_] 
    4103                      ; return occurs ; [] 
    4104                      .dwattr $C$DW$242, DW_AT_TI_end_file("D:/BM1000_v1.1/sw/drivers/drvic/modbus/mb.c")
    4105                      .dwattr $C$DW$242, DW_AT_TI_end_line(0x28c)
TMS320C2000 Assembler PC v6.2.5 Wed Nov 22 14:48:16 2017

Tools Copyright (c) 1996-2014 Texas Instruments Incorporated
C:\Users\wmj\AppData\Local\Temp\0222411                              PAGE   79

    4106                      .dwattr $C$DW$242, DW_AT_TI_end_column(0x01)
    4107                      .dwendentry
    4108                      .dwendtag $C$DW$242
    4109              
    4110 00000463               .sect   ".text"
    4111                      .clink
    4112                      .global _MB_Poll
    4113              
    4114              $C$DW$255       .dwtag  DW_TAG_subprogram, DW_AT_name("MB_Poll")
    4115                      .dwattr $C$DW$255, DW_AT_low_pc(_MB_Poll)
    4116                      .dwattr $C$DW$255, DW_AT_high_pc(0x00)
    4117                      .dwattr $C$DW$255, DW_AT_TI_symbol_name("_MB_Poll")
    4118                      .dwattr $C$DW$255, DW_AT_external
    4119                      .dwattr $C$DW$255, DW_AT_type(*$C$DW$T$129)
    4120                      .dwattr $C$DW$255, DW_AT_TI_begin_file("D:/BM1000_v1.1/sw/drivers/drvic/modbus/mb.c")
    4121                      .dwattr $C$DW$255, DW_AT_TI_begin_line(0x184)
    4122                      .dwattr $C$DW$255, DW_AT_TI_begin_column(0x0e)
    4123                      .dwattr $C$DW$255, DW_AT_TI_max_frame_size(-4)
    4124                      .dwpsn  file "D:/BM1000_v1.1/sw/drivers/drvic/modbus/mb.c",line 389,column 1,is_stmt,address _MB_Poll
    4125              
    4126                      .dwfde $C$DW$CIE, _MB_Poll
    4127              $C$DW$256       .dwtag  DW_TAG_formal_parameter, DW_AT_name("handle")
    4128                      .dwattr $C$DW$256, DW_AT_TI_symbol_name("_handle")
    4129                      .dwattr $C$DW$256, DW_AT_type(*$C$DW$T$178)
    4130                      .dwattr $C$DW$256, DW_AT_location[DW_OP_reg12]
    4131              
    4132              ;***************************************************************
    4133              ;* FNAME: _MB_Poll                      FR SIZE:   2           *
    4134              ;*                                                             *
    4135              ;* FUNCTION ENVIRONMENT                                        *
    4136              ;*                                                             *
    4137              ;* FUNCTION PROPERTIES                                         *
    4138              ;*                            0 Parameter,  0 Auto,  2 SOE     *
    4139              ;***************************************************************
    4140              
    4141              _MB_Poll:
    4142              ;* AR6   assigned to $O$C1
    4143              ;* AR1   assigned to _handle
    4144              $C$DW$257       .dwtag  DW_TAG_variable, DW_AT_name("handle")
    4145                      .dwattr $C$DW$257, DW_AT_TI_symbol_name("_handle")
    4146                      .dwattr $C$DW$257, DW_AT_type(*$C$DW$T$200)
    4147                      .dwattr $C$DW$257, DW_AT_location[DW_OP_reg6]
    4148              ;* AR4   assigned to $O$U5
    4149                      .dwcfi  cfa_offset, -2
    4150                      .dwcfi  save_reg_to_mem, 26, 0
    4151                      .dwcfi  save_reg_to_reg, 78, 26
    4152 00000463 83A4          MOVL      XAR5,XAR4             ; [CPU_] |389| 
    4153 00000464 B2BD          MOVL      *SP++,XAR1            ; [CPU_] 
    4154                      .dwcfi  save_reg_to_mem, 7, 2
    4155                      .dwcfi  cfa_offset, -4
    4156                      .dwpsn  file "D:/BM1000_v1.1/sw/drivers/drvic/modbus/mb.c",line 402,column 5,is_stmt
    4157 00000465 DD1E          ADDB      XAR5,#30              ; [CPU_] |402| 
    4158              $C$DW$258       .dwtag  DW_TAG_TI_branch
    4159                      .dwattr $C$DW$258, DW_AT_low_pc(0x00)
    4160                      .dwattr $C$DW$258, DW_AT_name("_MB_PortEventGet")
TMS320C2000 Assembler PC v6.2.5 Wed Nov 22 14:48:16 2017

Tools Copyright (c) 1996-2014 Texas Instruments Incorporated
C:\Users\wmj\AppData\Local\Temp\0222411                              PAGE   80

    4161                      .dwattr $C$DW$258, DW_AT_TI_call
    4162 00000466 7640'         LCR       #_MB_PortEventGet     ; [CPU_] |402| 
         00000467 0155 
    4163                      ; call occurs [#_MB_PortEventGet] ; [] |402| 
    4164                      .dwpsn  file "D:/BM1000_v1.1/sw/drivers/drvic/modbus/mb.c",line 389,column 1,is_stmt
    4165 00000468 8BA4          MOVL      XAR1,XAR4             ; [CPU_] |389| 
    4166                      .dwpsn  file "D:/BM1000_v1.1/sw/drivers/drvic/modbus/mb.c",line 402,column 5,is_stmt
    4167 00000469 5201          CMPB      AL,#1                 ; [CPU_] |402| 
    4168 0000046a ED40          BF        $C$L145,NEQ           ; [CPU_] |402| 
    4169                      ; branchcc occurs ; [] |402| 
    4170 0000046b D01E          MOVB      XAR0,#30              ; [CPU_] |402| 
    4171 0000046c 9291          MOV       AL,*+XAR1[AR0]        ; [CPU_] |402| 
    4172 0000046d 5201          CMPB      AL,#1                 ; [CPU_] |402| 
    4173 0000046e EC26          BF        $C$L143,EQ            ; [CPU_] |402| 
    4174                      ; branchcc occurs ; [] |402| 
    4175 0000046f 5202          CMPB      AL,#2                 ; [CPU_] |402| 
    4176 00000470 ED3A          BF        $C$L145,NEQ           ; [CPU_] |402| 
    4177                      ; branchcc occurs ; [] |402| 
    4178                      .dwpsn  file "D:/BM1000_v1.1/sw/drivers/drvic/modbus/mb.c",line 422,column 6,is_stmt
    4179 00000471 D00A          MOVB      XAR0,#10              ; [CPU_] |422| 
    4180 00000472 8A91          MOVL      XAR4,*+XAR1[AR0]      ; [CPU_] |422| 
    4181 00000473 92CC          MOV       AL,*+XAR4[1]          ; [CPU_] |422| 
    4182 00000474 5203          CMPB      AL,#3                 ; [CPU_] |422| 
    4183 00000475 EC0D          BF        $C$L140,EQ            ; [CPU_] |422| 
    4184                      ; branchcc occurs ; [] |422| 
    4185 00000476 5205          CMPB      AL,#5                 ; [CPU_] |422| 
    4186 00000477 EC07          BF        $C$L139,EQ            ; [CPU_] |422| 
    4187                      ; branchcc occurs ; [] |422| 
    4188 00000478 5206          CMPB      AL,#6                 ; [CPU_] |422| 
    4189 00000479 ED0E          BF        $C$L142,NEQ           ; [CPU_] |422| 
    4190                      ; branchcc occurs ; [] |422| 
    4191                      .dwpsn  file "D:/BM1000_v1.1/sw/drivers/drvic/modbus/mb.c",line 438,column 9,is_stmt
    4192 0000047a 8AA1          MOVL      XAR4,XAR1             ; [CPU_] |438| 
    4193              $C$DW$259       .dwtag  DW_TAG_TI_branch
    4194                      .dwattr $C$DW$259, DW_AT_low_pc(0x00)
    4195                      .dwattr $C$DW$259, DW_AT_name("_MB_FuncWriteHoldingRegister")
    4196                      .dwattr $C$DW$259, DW_AT_TI_call
    4197 0000047b 7640'         LCR       #_MB_FuncWriteHoldingRegister ; [CPU_] |438| 
         0000047c 0162 
    4198                      ; call occurs [#_MB_FuncWriteHoldingRegister] ; [] |438| 
    4199                      .dwpsn  file "D:/BM1000_v1.1/sw/drivers/drvic/modbus/mb.c",line 439,column 5,is_stmt
    4200 0000047d 6F08          B         $C$L141,UNC           ; [CPU_] |439| 
    4201                      ; branch occurs ; [] |439| 
    4202 0000047e       $C$L139:    
    4203                      .dwpsn  file "D:/BM1000_v1.1/sw/drivers/drvic/modbus/mb.c",line 435,column 24,is_stmt
    4204 0000047e 8AA1          MOVL      XAR4,XAR1             ; [CPU_] |435| 
    4205              $C$DW$260       .dwtag  DW_TAG_TI_branch
    4206                      .dwattr $C$DW$260, DW_AT_low_pc(0x00)
    4207                      .dwattr $C$DW$260, DW_AT_name("_MB_FuncWriteCoilsRegister")
    4208                      .dwattr $C$DW$260, DW_AT_TI_call
    4209 0000047f 7640'         LCR       #_MB_FuncWriteCoilsRegister ; [CPU_] |435| 
         00000480 022D 
    4210                      ; call occurs [#_MB_FuncWriteCoilsRegister] ; [] |435| 
    4211                      .dwpsn  file "D:/BM1000_v1.1/sw/drivers/drvic/modbus/mb.c",line 436,column 5,is_stmt
    4212 00000481 6F04          B         $C$L141,UNC           ; [CPU_] |436| 
TMS320C2000 Assembler PC v6.2.5 Wed Nov 22 14:48:16 2017

Tools Copyright (c) 1996-2014 Texas Instruments Incorporated
C:\Users\wmj\AppData\Local\Temp\0222411                              PAGE   81

    4213                      ; branch occurs ; [] |436| 
    4214 00000482       $C$L140:    
    4215                      .dwpsn  file "D:/BM1000_v1.1/sw/drivers/drvic/modbus/mb.c",line 430,column 9,is_stmt
    4216 00000482 8AA1          MOVL      XAR4,XAR1             ; [CPU_] |430| 
    4217              $C$DW$261       .dwtag  DW_TAG_TI_branch
    4218                      .dwattr $C$DW$261, DW_AT_low_pc(0x00)
    4219                      .dwattr $C$DW$261, DW_AT_name("_MB_FuncReadHoldingRegister")
    4220                      .dwattr $C$DW$261, DW_AT_TI_call
    4221 00000483 7640'         LCR       #_MB_FuncReadHoldingRegister ; [CPU_] |430| 
         00000484 0302 
    4222                      ; call occurs [#_MB_FuncReadHoldingRegister] ; [] |430| 
    4223 00000485       $C$L141:    
    4224 00000485 D00A          MOVB      XAR0,#10              ; [CPU_] 
    4225 00000486 8A91          MOVL      XAR4,*+XAR1[AR0]      ; [CPU_] 
    4226 00000487       $C$L142:    
    4227                      .dwpsn  file "D:/BM1000_v1.1/sw/drivers/drvic/modbus/mb.c",line 447,column 9,is_stmt
    4228 00000487 92C4          MOV       AL,*+XAR4[0]          ; [CPU_] |447| 
    4229 00000488 5210          CMPB      AL,#16                ; [CPU_] |447| 
    4230 00000489 EC21          BF        $C$L145,EQ            ; [CPU_] |447| 
    4231                      ; branchcc occurs ; [] |447| 
    4232                      .dwpsn  file "D:/BM1000_v1.1/sw/drivers/drvic/modbus/mb.c",line 458,column 10,is_stmt
    4233 0000048a 8AE1          MOVL      XAR4,*+XAR1[4]        ; [CPU_] |458| 
    4234 0000048b 9A13          MOVB      AL,#19                ; [CPU_] |458| 
    4235              $C$DW$262       .dwtag  DW_TAG_TI_branch
    4236                      .dwattr $C$DW$262, DW_AT_low_pc(0x00)
    4237                      .dwattr $C$DW$262, DW_AT_name("_GPIO_setLow")
    4238                      .dwattr $C$DW$262, DW_AT_TI_call
    4239 0000048c 7640!         LCR       #_GPIO_setLow         ; [CPU_] |458| 
         0000048d 0000 
    4240                      ; call occurs [#_GPIO_setLow] ; [] |458| 
    4241                      .dwpsn  file "D:/BM1000_v1.1/sw/drivers/drvic/modbus/mb.c",line 460,column 13,is_stmt
    4242 0000048e 8AA1          MOVL      XAR4,XAR1             ; [CPU_] |460| 
    4243              $C$DW$263       .dwtag  DW_TAG_TI_branch
    4244                      .dwattr $C$DW$263, DW_AT_low_pc(0x00)
    4245                      .dwattr $C$DW$263, DW_AT_name("_MB_RTUSend")
    4246                      .dwattr $C$DW$263, DW_AT_TI_call
    4247 0000048f 7640'         LCR       #_MB_RTUSend          ; [CPU_] |460| 
         00000490 00A7 
    4248                      ; call occurs [#_MB_RTUSend] ; [] |460| 
    4249 00000491 D01A          MOVB      XAR0,#26              ; [CPU_] |460| 
    4250 00000492 9691          MOV       *+XAR1[AR0],AL        ; [CPU_] |460| 
    4251 00000493 6F17          B         $C$L145,UNC           ; [CPU_] |460| 
    4252                      ; branch occurs ; [] |460| 
    4253 00000494       $C$L143:    
    4254                      .dwpsn  file "D:/BM1000_v1.1/sw/drivers/drvic/modbus/mb.c",line 407,column 6,is_stmt
    4255              $C$DW$264       .dwtag  DW_TAG_TI_branch
    4256                      .dwattr $C$DW$264, DW_AT_low_pc(0x00)
    4257                      .dwattr $C$DW$264, DW_AT_name("_MB_RTUReceive")
    4258                      .dwattr $C$DW$264, DW_AT_TI_call
    4259 00000494 7640'         LCR       #_MB_RTUReceive       ; [CPU_] |407| 
         00000495 013F 
    4260                      ; call occurs [#_MB_RTUReceive] ; [] |407| 
    4261 00000496 D01A          MOVB      XAR0,#26              ; [CPU_] |407| 
    4262 00000497 9691          MOV       *+XAR1[AR0],AL        ; [CPU_] |407| 
    4263                      .dwpsn  file "D:/BM1000_v1.1/sw/drivers/drvic/modbus/mb.c",line 408,column 6,is_stmt
TMS320C2000 Assembler PC v6.2.5 Wed Nov 22 14:48:16 2017

Tools Copyright (c) 1996-2014 Texas Instruments Incorporated
C:\Users\wmj\AppData\Local\Temp\0222411                              PAGE   82

    4264 00000498 D01A          MOVB      XAR0,#26              ; [CPU_] |408| 
    4265 00000499 9291          MOV       AL,*+XAR1[AR0]        ; [CPU_] |408| 
    4266 0000049a ED10          BF        $C$L145,NEQ           ; [CPU_] |408| 
    4267                      ; branchcc occurs ; [] |408| 
    4268                      .dwpsn  file "D:/BM1000_v1.1/sw/drivers/drvic/modbus/mb.c",line 411,column 3,is_stmt
    4269 0000049b D00A          MOVB      XAR0,#10              ; [CPU_] |411| 
    4270 0000049c 8A91          MOVL      XAR4,*+XAR1[AR0]      ; [CPU_] |411| 
    4271 0000049d 88C4          MOVZ      AR6,*+XAR4[0]         ; [CPU_] |411| 
    4272 0000049e D019          MOVB      XAR0,#25              ; [CPU_] |411| 
    4273 0000049f 0E91          MOVU      ACC,*+XAR1[AR0]       ; [CPU_] |411| 
    4274 000004a0 80A6          MOVZ      AR7,AR6               ; [CPU_] |411| 
    4275 000004a1 0FA7          CMPL      ACC,XAR7              ; [CPU_] |411| 
    4276 000004a2 EC04          BF        $C$L144,EQ            ; [CPU_] |411| 
    4277                      ; branchcc occurs ; [] |411| 
    4278 000004a3 92A6          MOV       AL,AR6                ; [CPU_] 
    4279 000004a4 5210          CMPB      AL,#16                ; [CPU_] |411| 
    4280 000004a5 ED05          BF        $C$L145,NEQ           ; [CPU_] |411| 
    4281                      ; branchcc occurs ; [] |411| 
    4282 000004a6       $C$L144:    
    4283                      .dwpsn  file "D:/BM1000_v1.1/sw/drivers/drvic/modbus/mb.c",line 413,column 4,is_stmt
    4284 000004a6 9A02          MOVB      AL,#2                 ; [CPU_] |413| 
    4285 000004a7 8AA1          MOVL      XAR4,XAR1             ; [CPU_] |413| 
    4286              $C$DW$265       .dwtag  DW_TAG_TI_branch
    4287                      .dwattr $C$DW$265, DW_AT_low_pc(0x00)
    4288                      .dwattr $C$DW$265, DW_AT_name("_MB_PortEventPost")
    4289                      .dwattr $C$DW$265, DW_AT_TI_call
    4290 000004a8 7640'         LCR       #_MB_PortEventPost    ; [CPU_] |413| 
         000004a9 0011 
    4291                      ; call occurs [#_MB_PortEventPost] ; [] |413| 
    4292 000004aa       $C$L145:    
    4293                      .dwpsn  file "D:/BM1000_v1.1/sw/drivers/drvic/modbus/mb.c",line 469,column 3,is_stmt
    4294 000004aa 9A00          MOVB      AL,#0                 ; [CPU_] |469| 
    4295 000004ab 8BBE          MOVL      XAR1,*--SP            ; [CPU_] 
    4296                      .dwcfi  cfa_offset, -2
    4297                      .dwcfi  restore_reg, 7
    4298              $C$DW$266       .dwtag  DW_TAG_TI_branch
    4299                      .dwattr $C$DW$266, DW_AT_low_pc(0x00)
    4300                      .dwattr $C$DW$266, DW_AT_TI_return
    4301 000004ac 0006          LRETR     ; [CPU_] 
    4302                      ; return occurs ; [] 
    4303                      .dwattr $C$DW$255, DW_AT_TI_end_file("D:/BM1000_v1.1/sw/drivers/drvic/modbus/mb.c")
    4304                      .dwattr $C$DW$255, DW_AT_TI_end_line(0x1d6)
    4305                      .dwattr $C$DW$255, DW_AT_TI_end_column(0x01)
    4306                      .dwendentry
    4307                      .dwendtag $C$DW$255
    4308              
    4309              ;***************************************************************
    4310              ;* FLOATING-POINT CONSTANTS                                    *
    4311              ;***************************************************************
    4312 00000000               .sect   ".econst"
    4313                      .align  2
    4314 00000000 0000  $C$FL1: .xldouble       $strtod("0x1p+24")
         00000001 0000 
         00000002 0000 
         00000003 4170 
TMS320C2000 Assembler PC v6.2.5 Wed Nov 22 14:48:16 2017

Tools Copyright (c) 1996-2014 Texas Instruments Incorporated
C:\Users\wmj\AppData\Local\Temp\0222411                              PAGE   83

    4315              ;**************************************************************
    4316              ;* UNDEFINED EXTERNAL REFERENCES                              *
    4317              ;**************************************************************
    4318                      .global _FSM_ShutDowm
    4319                      .global _FSM_clrOverCurrentReg
    4320                      .global _FSM_485Edit_State_Box
    4321                      .global _TIMER_clearFlag
    4322                      .global _MOTOR_setMotorFlag
    4323                      .global _SCI_enableTx
    4324                      .global _GPIO_setLow
    4325                      .global _GPIO_setHigh
    4326                      .global _SCI_enableRx
    4327                      .global _SCI_disableRx
    4328                      .global _SCI_disableTx
    4329                      .global _SCI_getDataNonBlocking
    4330                      .global _SCI_putDataNonBlocking
    4331                      .global _MOTOR_getMotorFlag
    4332                      .global _FSM_485Read_State_Box
    4333                      .global __IQ7int
    4334                      .global __IQ24frac
    4335                      .global __IQ7frac
    4336                      .global FD$$MPY
    4337                      .global FS$$TOFD
    4338                      .global FD$$TOL
    4339              
    4340              ;***************************************************************
    4341              ;* TYPE INFORMATION                                            *
    4342              ;***************************************************************
    4343              
    4344              $C$DW$T$34      .dwtag  DW_TAG_enumeration_type
    4345                      .dwattr $C$DW$T$34, DW_AT_byte_size(0x01)
    4346              $C$DW$267       .dwtag  DW_TAG_enumerator, DW_AT_name("CTRL_TargetProc_2806x"), DW_AT_const_value(0x00)
    4347              $C$DW$268       .dwtag  DW_TAG_enumerator, DW_AT_name("CTRL_TargetProc_2805x"), DW_AT_const_value(0x01)
    4348              $C$DW$269       .dwtag  DW_TAG_enumerator, DW_AT_name("CTRL_TargetProc_2803x"), DW_AT_const_value(0x02)
    4349              $C$DW$270       .dwtag  DW_TAG_enumerator, DW_AT_name("CTRL_TargetProc_2802x"), DW_AT_const_value(0x03)
    4350              $C$DW$271       .dwtag  DW_TAG_enumerator, DW_AT_name("CTRL_TargetProc_Unknown"), DW_AT_const_value(0x04)
    4351                      .dwendtag $C$DW$T$34
    4352              
    4353              $C$DW$T$35      .dwtag  DW_TAG_typedef, DW_AT_name("CTRL_TargetProc_e")
    4354                      .dwattr $C$DW$T$35, DW_AT_type(*$C$DW$T$34)
    4355                      .dwattr $C$DW$T$35, DW_AT_language(DW_LANG_C)
    4356              
    4357              $C$DW$T$46      .dwtag  DW_TAG_enumeration_type
    4358                      .dwattr $C$DW$T$46, DW_AT_byte_size(0x01)
    4359              $C$DW$272       .dwtag  DW_TAG_enumerator, DW_AT_name("Fsm_State_Idle"), DW_AT_const_value(0x00)
    4360              $C$DW$273       .dwtag  DW_TAG_enumerator, DW_AT_name("Fsm_State_MotorFunc"), DW_AT_const_value(0x01)
    4361              $C$DW$274       .dwtag  DW_TAG_enumerator, DW_AT_name("Fsm_State_Spinning"), DW_AT_const_value(0x02)
    4362              $C$DW$275       .dwtag  DW_TAG_enumerator, DW_AT_name("Fsm_State_Reverse"), DW_AT_const_value(0x03)
    4363              $C$DW$276       .dwtag  DW_TAG_enumerator, DW_AT_name("Fsm_State_Slowdown"), DW_AT_const_value(0x04)
    4364              $C$DW$277       .dwtag  DW_TAG_enumerator, DW_AT_name("Fsm_State_ConstTorque"), DW_AT_const_value(0x05)
    4365              $C$DW$278       .dwtag  DW_TAG_enumerator, DW_AT_name("Fsm_State_MagneticBrake"), DW_AT_const_value(0x06)
    4366              $C$DW$279       .dwtag  DW_TAG_enumerator, DW_AT_name("Fsm_State_FullyClose"), DW_AT_const_value(0x07)
    4367              $C$DW$280       .dwtag  DW_TAG_enumerator, DW_AT_name("Fsm_State_InchingOpen"), DW_AT_const_value(0x08)
    4368              $C$DW$281       .dwtag  DW_TAG_enumerator, DW_AT_name("Fsm_State_FullyOpen"), DW_AT_const_value(0x09)
    4369              $C$DW$282       .dwtag  DW_TAG_enumerator, DW_AT_name("Fsm_State_SharedState1"), DW_AT_const_value(0x0a)
TMS320C2000 Assembler PC v6.2.5 Wed Nov 22 14:48:16 2017

Tools Copyright (c) 1996-2014 Texas Instruments Incorporated
C:\Users\wmj\AppData\Local\Temp\0222411                              PAGE   84

    4370              $C$DW$283       .dwtag  DW_TAG_enumerator, DW_AT_name("Fsm_State_SharedState2"), DW_AT_const_value(0x0b)
    4371              $C$DW$284       .dwtag  DW_TAG_enumerator, DW_AT_name("Fsm_State_SharedState3"), DW_AT_const_value(0x0c)
    4372              $C$DW$285       .dwtag  DW_TAG_enumerator, DW_AT_name("Fsm_State_NormWait"), DW_AT_const_value(0x0d)
    4373              $C$DW$286       .dwtag  DW_TAG_enumerator, DW_AT_name("Fsm_State_STOP"), DW_AT_const_value(0x0e)
    4374              $C$DW$287       .dwtag  DW_TAG_enumerator, DW_AT_name("Fsm_State_Num"), DW_AT_const_value(0x0f)
    4375                      .dwendtag $C$DW$T$46
    4376              
    4377              $C$DW$T$47      .dwtag  DW_TAG_typedef, DW_AT_name("FSM_State_e")
    4378                      .dwattr $C$DW$T$47, DW_AT_type(*$C$DW$T$46)
    4379                      .dwattr $C$DW$T$47, DW_AT_language(DW_LANG_C)
    4380              
    4381              $C$DW$T$70      .dwtag  DW_TAG_array_type
    4382                      .dwattr $C$DW$T$70, DW_AT_type(*$C$DW$T$47)
    4383                      .dwattr $C$DW$T$70, DW_AT_language(DW_LANG_C)
    4384                      .dwattr $C$DW$T$70, DW_AT_byte_size(0x0f)
    4385              $C$DW$288       .dwtag  DW_TAG_subrange_type
    4386                      .dwattr $C$DW$288, DW_AT_upper_bound(0x0e)
    4387                      .dwendtag $C$DW$T$70
    4388              
    4389              
    4390              $C$DW$T$48      .dwtag  DW_TAG_enumeration_type
    4391                      .dwattr $C$DW$T$48, DW_AT_byte_size(0x01)
    4392              $C$DW$289       .dwtag  DW_TAG_enumerator, DW_AT_name("FSM_Trans_RetireState"), DW_AT_const_value(0x00)
    4393              $C$DW$290       .dwtag  DW_TAG_enumerator, DW_AT_name("FSM_Trans_LoopForever"), DW_AT_const_value(0x01)
    4394              $C$DW$291       .dwtag  DW_TAG_enumerator, DW_AT_name("FSM_Trans_JumpState1"), DW_AT_const_value(0x02)
    4395              $C$DW$292       .dwtag  DW_TAG_enumerator, DW_AT_name("FSM_Trans_JumpState2"), DW_AT_const_value(0x03)
    4396                      .dwendtag $C$DW$T$48
    4397              
    4398              $C$DW$T$49      .dwtag  DW_TAG_typedef, DW_AT_name("FSM_Trans_e")
    4399                      .dwattr $C$DW$T$49, DW_AT_type(*$C$DW$T$48)
    4400                      .dwattr $C$DW$T$49, DW_AT_language(DW_LANG_C)
    4401              
    4402              $C$DW$T$50      .dwtag  DW_TAG_enumeration_type
    4403                      .dwattr $C$DW$T$50, DW_AT_byte_size(0x01)
    4404              $C$DW$293       .dwtag  DW_TAG_enumerator, DW_AT_name("FSM_Event_IDLE"), DW_AT_const_value(0x00)
    4405              $C$DW$294       .dwtag  DW_TAG_enumerator, DW_AT_name("FSM_Event_MeetTime"), DW_AT_const_value(0x01)
    4406              $C$DW$295       .dwtag  DW_TAG_enumerator, DW_AT_name("FSM_Event_ArriveRefSpd"), DW_AT_const_value(0x02)
    4407              $C$DW$296       .dwtag  DW_TAG_enumerator, DW_AT_name("FSM_Event_485Start"), DW_AT_const_value(0x03)
    4408              $C$DW$297       .dwtag  DW_TAG_enumerator, DW_AT_name("FSM_Event_Sensor0"), DW_AT_const_value(0x04)
    4409              $C$DW$298       .dwtag  DW_TAG_enumerator, DW_AT_name("FSM_Event_Sensor1"), DW_AT_const_value(0x05)
    4410              $C$DW$299       .dwtag  DW_TAG_enumerator, DW_AT_name("FSM_Event_arrive_point"), DW_AT_const_value(0x06)
    4411              $C$DW$300       .dwtag  DW_TAG_enumerator, DW_AT_name("FSM_Event_ContactSensor"), DW_AT_const_value(0x07)
    4412              $C$DW$301       .dwtag  DW_TAG_enumerator, DW_AT_name("FSM_Event_ZeroSpeed"), DW_AT_const_value(0x08)
    4413              $C$DW$302       .dwtag  DW_TAG_enumerator, DW_AT_name("FSM_Event_MoveIdle"), DW_AT_const_value(0x09)
    4414              $C$DW$303       .dwtag  DW_TAG_enumerator, DW_AT_name("FSM_Event_Num"), DW_AT_const_value(0x0a)
    4415                      .dwendtag $C$DW$T$50
    4416              
    4417              $C$DW$T$51      .dwtag  DW_TAG_typedef, DW_AT_name("FSM_Event_e")
    4418                      .dwattr $C$DW$T$51, DW_AT_type(*$C$DW$T$50)
    4419                      .dwattr $C$DW$T$51, DW_AT_language(DW_LANG_C)
    4420              
    4421              $C$DW$T$52      .dwtag  DW_TAG_enumeration_type
    4422                      .dwattr $C$DW$T$52, DW_AT_byte_size(0x01)
    4423              $C$DW$304       .dwtag  DW_TAG_enumerator, DW_AT_name("FSM_StateMode_Free_mode"), DW_AT_const_value(0x00)
    4424              $C$DW$305       .dwtag  DW_TAG_enumerator, DW_AT_name("FSM_StateMode_Nipping_mode"), DW_AT_const_value(0x01)
TMS320C2000 Assembler PC v6.2.5 Wed Nov 22 14:48:16 2017

Tools Copyright (c) 1996-2014 Texas Instruments Incorporated
C:\Users\wmj\AppData\Local\Temp\0222411                              PAGE   85

    4425              $C$DW$306       .dwtag  DW_TAG_enumerator, DW_AT_name("FSM_StateMode_Notching_mode"), DW_AT_const_value(0x02)
    4426              $C$DW$307       .dwtag  DW_TAG_enumerator, DW_AT_name("FSM_StateMode_TrimPlat_mode"), DW_AT_const_value(0x03)
    4427              $C$DW$308       .dwtag  DW_TAG_enumerator, DW_AT_name("FSM_StateMode_Clamper_mode"), DW_AT_const_value(0x04)
    4428              $C$DW$309       .dwtag  DW_TAG_enumerator, DW_AT_name("FSM_StateMode_GlueTank_mode"), DW_AT_const_value(0x05)
    4429              $C$DW$310       .dwtag  DW_TAG_enumerator, DW_AT_name("FSM_StateMode_BlowerFan_mode"), DW_AT_const_value(0x06
    4430              $C$DW$311       .dwtag  DW_TAG_enumerator, DW_AT_name("FSM_StateMode_Trolley_mode"), DW_AT_const_value(0x07)
    4431              $C$DW$312       .dwtag  DW_TAG_enumerator, DW_AT_name("FSM_StateMode_Num"), DW_AT_const_value(0x08)
    4432                      .dwendtag $C$DW$T$52
    4433              
    4434              $C$DW$T$53      .dwtag  DW_TAG_typedef, DW_AT_name("FSM_StateMode_e")
    4435                      .dwattr $C$DW$T$53, DW_AT_type(*$C$DW$T$52)
    4436                      .dwattr $C$DW$T$53, DW_AT_language(DW_LANG_C)
    4437              
    4438              $C$DW$T$54      .dwtag  DW_TAG_enumeration_type
    4439                      .dwattr $C$DW$T$54, DW_AT_byte_size(0x01)
    4440              $C$DW$313       .dwtag  DW_TAG_enumerator, DW_AT_name("FSM_485EditOpt_RefSpeed"), DW_AT_const_value(0x00)
    4441              $C$DW$314       .dwtag  DW_TAG_enumerator, DW_AT_name("FSM_485EditOpt_CondValue"), DW_AT_const_value(0x01)
    4442              $C$DW$315       .dwtag  DW_TAG_enumerator, DW_AT_name("FSM_485EditOpt_Condition"), DW_AT_const_value(0x02)
    4443              $C$DW$316       .dwtag  DW_TAG_enumerator, DW_AT_name("FSM_485EditOpt_RunAction"), DW_AT_const_value(0x03)
    4444              $C$DW$317       .dwtag  DW_TAG_enumerator, DW_AT_name("FSM_485EditOpt_NextState"), DW_AT_const_value(0x04)
    4445              $C$DW$318       .dwtag  DW_TAG_enumerator, DW_AT_name("FSM_485EditOpt_Num"), DW_AT_const_value(0x05)
    4446                      .dwendtag $C$DW$T$54
    4447              
    4448              $C$DW$T$55      .dwtag  DW_TAG_typedef, DW_AT_name("FSM_EditOpt_e")
    4449                      .dwattr $C$DW$T$55, DW_AT_type(*$C$DW$T$54)
    4450                      .dwattr $C$DW$T$55, DW_AT_language(DW_LANG_C)
    4451              
    4452              $C$DW$T$56      .dwtag  DW_TAG_enumeration_type
    4453                      .dwattr $C$DW$T$56, DW_AT_byte_size(0x01)
    4454              $C$DW$319       .dwtag  DW_TAG_enumerator, DW_AT_name("FSM_Condition_Times"), DW_AT_const_value(0x00)
    4455              $C$DW$320       .dwtag  DW_TAG_enumerator, DW_AT_name("FSM_Condition_Speed"), DW_AT_const_value(0x01)
    4456              $C$DW$321       .dwtag  DW_TAG_enumerator, DW_AT_name("FSM_Condition_485Cmd"), DW_AT_const_value(0x02)
    4457              $C$DW$322       .dwtag  DW_TAG_enumerator, DW_AT_name("FSM_Condition_KeyS1"), DW_AT_const_value(0x03)
    4458              $C$DW$323       .dwtag  DW_TAG_enumerator, DW_AT_name("FSM_Condition_KeyS2"), DW_AT_const_value(0x04)
    4459              $C$DW$324       .dwtag  DW_TAG_enumerator, DW_AT_name("FSM_Condition_AnalogS1"), DW_AT_const_value(0x05)
    4460              $C$DW$325       .dwtag  DW_TAG_enumerator, DW_AT_name("FSM_Condition_AnalogS2"), DW_AT_const_value(0x06)
    4461              $C$DW$326       .dwtag  DW_TAG_enumerator, DW_AT_name("FSM_Condition_ContactS1"), DW_AT_const_value(0x07)
    4462              $C$DW$327       .dwtag  DW_TAG_enumerator, DW_AT_name("FSM_Condition_ContactS2"), DW_AT_const_value(0x08)
    4463              $C$DW$328       .dwtag  DW_TAG_enumerator, DW_AT_name("FSM_Condition_ZeroSpeed"), DW_AT_const_value(0x09)
    4464              $C$DW$329       .dwtag  DW_TAG_enumerator, DW_AT_name("FSM_Condition_MoveStatus"), DW_AT_const_value(0x0a)
    4465              $C$DW$330       .dwtag  DW_TAG_enumerator, DW_AT_name("FSM_Condition_Num"), DW_AT_const_value(0x0b)
    4466                      .dwendtag $C$DW$T$56
    4467              
    4468              $C$DW$T$57      .dwtag  DW_TAG_typedef, DW_AT_name("FSM_Cond_e")
    4469                      .dwattr $C$DW$T$57, DW_AT_type(*$C$DW$T$56)
    4470                      .dwattr $C$DW$T$57, DW_AT_language(DW_LANG_C)
    4471              
    4472              $C$DW$T$66      .dwtag  DW_TAG_array_type
    4473                      .dwattr $C$DW$T$66, DW_AT_type(*$C$DW$T$57)
    4474                      .dwattr $C$DW$T$66, DW_AT_language(DW_LANG_C)
    4475                      .dwattr $C$DW$T$66, DW_AT_byte_size(0x0f)
    4476              $C$DW$331       .dwtag  DW_TAG_subrange_type
    4477                      .dwattr $C$DW$331, DW_AT_upper_bound(0x0e)
    4478                      .dwendtag $C$DW$T$66
    4479              
TMS320C2000 Assembler PC v6.2.5 Wed Nov 22 14:48:16 2017

Tools Copyright (c) 1996-2014 Texas Instruments Incorporated
C:\Users\wmj\AppData\Local\Temp\0222411                              PAGE   86

    4480              
    4481              $C$DW$T$67      .dwtag  DW_TAG_enumeration_type
    4482                      .dwattr $C$DW$T$67, DW_AT_byte_size(0x01)
    4483              $C$DW$332       .dwtag  DW_TAG_enumerator, DW_AT_name("FSM_Action_RunIDLE"), DW_AT_const_value(0x00)
    4484              $C$DW$333       .dwtag  DW_TAG_enumerator, DW_AT_name("FSM_Action_calcSensorPos"), DW_AT_const_value(0x01)
    4485              $C$DW$334       .dwtag  DW_TAG_enumerator, DW_AT_name("FSM_Action_calcRelativePos"), DW_AT_const_value(0x02)
    4486              $C$DW$335       .dwtag  DW_TAG_enumerator, DW_AT_name("FSM_Action_CheckCoverSensor"), DW_AT_const_value(0x03)
    4487              $C$DW$336       .dwtag  DW_TAG_enumerator, DW_AT_name("FSM_Action_SetPosStep"), DW_AT_const_value(0x04)
    4488              $C$DW$337       .dwtag  DW_TAG_enumerator, DW_AT_name("FSM_Action_CheckPosition"), DW_AT_const_value(0x05)
    4489              $C$DW$338       .dwtag  DW_TAG_enumerator, DW_AT_name("FSM_Action_VelTransToPos"), DW_AT_const_value(0x06)
    4490              $C$DW$339       .dwtag  DW_TAG_enumerator, DW_AT_name("FSM_Action_SetVelocity"), DW_AT_const_value(0x07)
    4491              $C$DW$340       .dwtag  DW_TAG_enumerator, DW_AT_name("FSM_Action_RunVelocityMode"), DW_AT_const_value(0x08)
    4492              $C$DW$341       .dwtag  DW_TAG_enumerator, DW_AT_name("FSM_Action_ReleaseDcBrake"), DW_AT_const_value(0x09)
    4493              $C$DW$342       .dwtag  DW_TAG_enumerator, DW_AT_name("FSM_Action_RunSTOP"), DW_AT_const_value(0x0a)
    4494              $C$DW$343       .dwtag  DW_TAG_enumerator, DW_AT_name("FSM_Action_Num"), DW_AT_const_value(0x0b)
    4495                      .dwendtag $C$DW$T$67
    4496              
    4497              $C$DW$T$68      .dwtag  DW_TAG_typedef, DW_AT_name("FSM_Action_e")
    4498                      .dwattr $C$DW$T$68, DW_AT_type(*$C$DW$T$67)
    4499                      .dwattr $C$DW$T$68, DW_AT_language(DW_LANG_C)
    4500              
    4501              $C$DW$T$69      .dwtag  DW_TAG_array_type
    4502                      .dwattr $C$DW$T$69, DW_AT_type(*$C$DW$T$68)
    4503                      .dwattr $C$DW$T$69, DW_AT_language(DW_LANG_C)
    4504                      .dwattr $C$DW$T$69, DW_AT_byte_size(0x0f)
    4505              $C$DW$344       .dwtag  DW_TAG_subrange_type
    4506                      .dwattr $C$DW$344, DW_AT_upper_bound(0x0e)
    4507                      .dwendtag $C$DW$T$69
    4508              
    4509              
    4510              $C$DW$T$115     .dwtag  DW_TAG_enumeration_type
    4511                      .dwattr $C$DW$T$115, DW_AT_byte_size(0x01)
    4512              $C$DW$345       .dwtag  DW_TAG_enumerator, DW_AT_name("HAL_BoardAddr_Motor1"), DW_AT_const_value(0x00)
    4513              $C$DW$346       .dwtag  DW_TAG_enumerator, DW_AT_name("HAL_BoardAddr_Motor2"), DW_AT_const_value(0x01)
    4514              $C$DW$347       .dwtag  DW_TAG_enumerator, DW_AT_name("HAL_BoardAddr_Motor3"), DW_AT_const_value(0x02)
    4515              $C$DW$348       .dwtag  DW_TAG_enumerator, DW_AT_name("HAL_BoardAddr_Motor4"), DW_AT_const_value(0x03)
    4516              $C$DW$349       .dwtag  DW_TAG_enumerator, DW_AT_name("HAL_BoardAddr_Motor5"), DW_AT_const_value(0x04)
    4517              $C$DW$350       .dwtag  DW_TAG_enumerator, DW_AT_name("HAL_BoardAddr_Motor6"), DW_AT_const_value(0x05)
    4518              $C$DW$351       .dwtag  DW_TAG_enumerator, DW_AT_name("HAL_BoardAddr_Motor7"), DW_AT_const_value(0x06)
    4519              $C$DW$352       .dwtag  DW_TAG_enumerator, DW_AT_name("HAL_BoardAddr_Heater"), DW_AT_const_value(0x07)
    4520              $C$DW$353       .dwtag  DW_TAG_enumerator, DW_AT_name("HAL_BoardAddr_OpenLoop"), DW_AT_const_value(0x08)
    4521              $C$DW$354       .dwtag  DW_TAG_enumerator, DW_AT_name("HAL_BoardAddr_Short"), DW_AT_const_value(0x09)
    4522                      .dwendtag $C$DW$T$115
    4523              
    4524              $C$DW$T$116     .dwtag  DW_TAG_typedef, DW_AT_name("HAL_BdAddr_e")
    4525                      .dwattr $C$DW$T$116, DW_AT_type(*$C$DW$T$115)
    4526                      .dwattr $C$DW$T$116, DW_AT_language(DW_LANG_C)
    4527              
    4528              $C$DW$T$128     .dwtag  DW_TAG_enumeration_type
    4529                      .dwattr $C$DW$T$128, DW_AT_byte_size(0x01)
    4530              $C$DW$355       .dwtag  DW_TAG_enumerator, DW_AT_name("MB_ENOERR"), DW_AT_const_value(0x00)
    4531              $C$DW$356       .dwtag  DW_TAG_enumerator, DW_AT_name("MB_ENOREG"), DW_AT_const_value(0x01)
    4532              $C$DW$357       .dwtag  DW_TAG_enumerator, DW_AT_name("MB_EINVAL"), DW_AT_const_value(0x02)
    4533              $C$DW$358       .dwtag  DW_TAG_enumerator, DW_AT_name("MB_EPORTERR"), DW_AT_const_value(0x03)
    4534              $C$DW$359       .dwtag  DW_TAG_enumerator, DW_AT_name("MB_ENORES"), DW_AT_const_value(0x04)
TMS320C2000 Assembler PC v6.2.5 Wed Nov 22 14:48:16 2017

Tools Copyright (c) 1996-2014 Texas Instruments Incorporated
C:\Users\wmj\AppData\Local\Temp\0222411                              PAGE   87

    4535              $C$DW$360       .dwtag  DW_TAG_enumerator, DW_AT_name("MB_EIO"), DW_AT_const_value(0x05)
    4536              $C$DW$361       .dwtag  DW_TAG_enumerator, DW_AT_name("MB_EILLSTATE"), DW_AT_const_value(0x06)
    4537              $C$DW$362       .dwtag  DW_TAG_enumerator, DW_AT_name("MB_ETIMEDOUT"), DW_AT_const_value(0x07)
    4538                      .dwendtag $C$DW$T$128
    4539              
    4540              $C$DW$T$129     .dwtag  DW_TAG_typedef, DW_AT_name("eMBErrorCode")
    4541                      .dwattr $C$DW$T$129, DW_AT_type(*$C$DW$T$128)
    4542                      .dwattr $C$DW$T$129, DW_AT_language(DW_LANG_C)
    4543              
    4544              $C$DW$T$130     .dwtag  DW_TAG_enumeration_type
    4545                      .dwattr $C$DW$T$130, DW_AT_byte_size(0x01)
    4546              $C$DW$363       .dwtag  DW_TAG_enumerator, DW_AT_name("STATE_TX_IDLE"), DW_AT_const_value(0x00)
    4547              $C$DW$364       .dwtag  DW_TAG_enumerator, DW_AT_name("STATE_TX_XMIT"), DW_AT_const_value(0x01)
    4548                      .dwendtag $C$DW$T$130
    4549              
    4550              $C$DW$T$131     .dwtag  DW_TAG_typedef, DW_AT_name("eMBSndState")
    4551                      .dwattr $C$DW$T$131, DW_AT_type(*$C$DW$T$130)
    4552                      .dwattr $C$DW$T$131, DW_AT_language(DW_LANG_C)
    4553              
    4554              $C$DW$T$132     .dwtag  DW_TAG_enumeration_type
    4555                      .dwattr $C$DW$T$132, DW_AT_byte_size(0x01)
    4556              $C$DW$365       .dwtag  DW_TAG_enumerator, DW_AT_name("STATE_RX_INIT"), DW_AT_const_value(0x00)
    4557              $C$DW$366       .dwtag  DW_TAG_enumerator, DW_AT_name("STATE_RX_IDLE"), DW_AT_const_value(0x01)
    4558              $C$DW$367       .dwtag  DW_TAG_enumerator, DW_AT_name("STATE_RX_RCV"), DW_AT_const_value(0x02)
    4559              $C$DW$368       .dwtag  DW_TAG_enumerator, DW_AT_name("STATE_RX_ERROR"), DW_AT_const_value(0x03)
    4560                      .dwendtag $C$DW$T$132
    4561              
    4562              $C$DW$T$133     .dwtag  DW_TAG_typedef, DW_AT_name("eMBRcvState")
    4563                      .dwattr $C$DW$T$133, DW_AT_type(*$C$DW$T$132)
    4564                      .dwattr $C$DW$T$133, DW_AT_language(DW_LANG_C)
    4565              
    4566              $C$DW$T$134     .dwtag  DW_TAG_enumeration_type
    4567                      .dwattr $C$DW$T$134, DW_AT_byte_size(0x01)
    4568              $C$DW$369       .dwtag  DW_TAG_enumerator, DW_AT_name("EV_READY"), DW_AT_const_value(0x00)
    4569              $C$DW$370       .dwtag  DW_TAG_enumerator, DW_AT_name("EV_FRAME_RECEIVED"), DW_AT_const_value(0x01)
    4570              $C$DW$371       .dwtag  DW_TAG_enumerator, DW_AT_name("EV_EXECUTE"), DW_AT_const_value(0x02)
    4571              $C$DW$372       .dwtag  DW_TAG_enumerator, DW_AT_name("EV_FRAME_SENT"), DW_AT_const_value(0x03)
    4572                      .dwendtag $C$DW$T$134
    4573              
    4574              $C$DW$T$135     .dwtag  DW_TAG_typedef, DW_AT_name("eMBEventType")
    4575                      .dwattr $C$DW$T$135, DW_AT_type(*$C$DW$T$134)
    4576                      .dwattr $C$DW$T$135, DW_AT_language(DW_LANG_C)
    4577              $C$DW$T$184     .dwtag  DW_TAG_pointer_type
    4578                      .dwattr $C$DW$T$184, DW_AT_type(*$C$DW$T$135)
    4579                      .dwattr $C$DW$T$184, DW_AT_address_class(0x16)
    4580              $C$DW$373       .dwtag  DW_TAG_TI_far_type
    4581                      .dwattr $C$DW$373, DW_AT_type(*$C$DW$T$184)
    4582              $C$DW$T$185     .dwtag  DW_TAG_const_type
    4583                      .dwattr $C$DW$T$185, DW_AT_type(*$C$DW$373)
    4584              $C$DW$374       .dwtag  DW_TAG_TI_far_type
    4585                      .dwattr $C$DW$374, DW_AT_type(*$C$DW$T$135)
    4586              $C$DW$T$186     .dwtag  DW_TAG_const_type
    4587                      .dwattr $C$DW$T$186, DW_AT_type(*$C$DW$374)
    4588              
    4589              $C$DW$T$139     .dwtag  DW_TAG_enumeration_type
TMS320C2000 Assembler PC v6.2.5 Wed Nov 22 14:48:16 2017

Tools Copyright (c) 1996-2014 Texas Instruments Incorporated
C:\Users\wmj\AppData\Local\Temp\0222411                              PAGE   88

    4590                      .dwattr $C$DW$T$139, DW_AT_byte_size(0x01)
    4591              $C$DW$375       .dwtag  DW_TAG_enumerator, DW_AT_name("CTRL_State_Error"), DW_AT_const_value(0x00)
    4592              $C$DW$376       .dwtag  DW_TAG_enumerator, DW_AT_name("CTRL_State_Idle"), DW_AT_const_value(0x01)
    4593              $C$DW$377       .dwtag  DW_TAG_enumerator, DW_AT_name("CTRL_State_OffLine"), DW_AT_const_value(0x02)
    4594              $C$DW$378       .dwtag  DW_TAG_enumerator, DW_AT_name("CTRL_State_OnLine"), DW_AT_const_value(0x03)
    4595              $C$DW$379       .dwtag  DW_TAG_enumerator, DW_AT_name("CTRL_numStates"), DW_AT_const_value(0x04)
    4596                      .dwendtag $C$DW$T$139
    4597              
    4598              $C$DW$T$140     .dwtag  DW_TAG_typedef, DW_AT_name("CTRL_State_e")
    4599                      .dwattr $C$DW$T$140, DW_AT_type(*$C$DW$T$139)
    4600                      .dwattr $C$DW$T$140, DW_AT_language(DW_LANG_C)
    4601              
    4602              $C$DW$T$141     .dwtag  DW_TAG_enumeration_type
    4603                      .dwattr $C$DW$T$141, DW_AT_byte_size(0x01)
    4604              $C$DW$380       .dwtag  DW_TAG_enumerator, DW_AT_name("EST_State_Error"), DW_AT_const_value(0x00)
    4605              $C$DW$381       .dwtag  DW_TAG_enumerator, DW_AT_name("EST_State_Idle"), DW_AT_const_value(0x01)
    4606              $C$DW$382       .dwtag  DW_TAG_enumerator, DW_AT_name("EST_State_RoverL"), DW_AT_const_value(0x02)
    4607              $C$DW$383       .dwtag  DW_TAG_enumerator, DW_AT_name("EST_State_Rs"), DW_AT_const_value(0x03)
    4608              $C$DW$384       .dwtag  DW_TAG_enumerator, DW_AT_name("EST_State_RampUp"), DW_AT_const_value(0x04)
    4609              $C$DW$385       .dwtag  DW_TAG_enumerator, DW_AT_name("EST_State_IdRated"), DW_AT_const_value(0x05)
    4610              $C$DW$386       .dwtag  DW_TAG_enumerator, DW_AT_name("EST_State_RatedFlux_OL"), DW_AT_const_value(0x06)
    4611              $C$DW$387       .dwtag  DW_TAG_enumerator, DW_AT_name("EST_State_RatedFlux"), DW_AT_const_value(0x07)
    4612              $C$DW$388       .dwtag  DW_TAG_enumerator, DW_AT_name("EST_State_RampDown"), DW_AT_const_value(0x08)
    4613              $C$DW$389       .dwtag  DW_TAG_enumerator, DW_AT_name("EST_State_LockRotor"), DW_AT_const_value(0x09)
    4614              $C$DW$390       .dwtag  DW_TAG_enumerator, DW_AT_name("EST_State_Ls"), DW_AT_const_value(0x0a)
    4615              $C$DW$391       .dwtag  DW_TAG_enumerator, DW_AT_name("EST_State_Rr"), DW_AT_const_value(0x0b)
    4616              $C$DW$392       .dwtag  DW_TAG_enumerator, DW_AT_name("EST_State_MotorIdentified"), DW_AT_const_value(0x0c)
    4617              $C$DW$393       .dwtag  DW_TAG_enumerator, DW_AT_name("EST_State_OnLine"), DW_AT_const_value(0x0d)
    4618              $C$DW$394       .dwtag  DW_TAG_enumerator, DW_AT_name("EST_numStates"), DW_AT_const_value(0x0e)
    4619                      .dwendtag $C$DW$T$141
    4620              
    4621              $C$DW$T$142     .dwtag  DW_TAG_typedef, DW_AT_name("EST_State_e")
    4622                      .dwattr $C$DW$T$142, DW_AT_type(*$C$DW$T$141)
    4623                      .dwattr $C$DW$T$142, DW_AT_language(DW_LANG_C)
    4624              
    4625              $C$DW$T$143     .dwtag  DW_TAG_enumeration_type
    4626                      .dwattr $C$DW$T$143, DW_AT_byte_size(0x01)
    4627              $C$DW$395       .dwtag  DW_TAG_enumerator, DW_AT_name("USER_ErrorCode_NoError"), DW_AT_const_value(0x00)
    4628              $C$DW$396       .dwtag  DW_TAG_enumerator, DW_AT_name("USER_ErrorCode_iqFullScaleCurrent_A_High"), DW_AT_cons
    4629              $C$DW$397       .dwtag  DW_TAG_enumerator, DW_AT_name("USER_ErrorCode_iqFullScaleCurrent_A_Low"), DW_AT_const
    4630              $C$DW$398       .dwtag  DW_TAG_enumerator, DW_AT_name("USER_ErrorCode_iqFullScaleVoltage_V_High"), DW_AT_cons
    4631              $C$DW$399       .dwtag  DW_TAG_enumerator, DW_AT_name("USER_ErrorCode_iqFullScaleVoltage_V_Low"), DW_AT_const
    4632              $C$DW$400       .dwtag  DW_TAG_enumerator, DW_AT_name("USER_ErrorCode_iqFullScaleFreq_Hz_High"), DW_AT_const_
    4633              $C$DW$401       .dwtag  DW_TAG_enumerator, DW_AT_name("USER_ErrorCode_iqFullScaleFreq_Hz_Low"), DW_AT_const_v
    4634              $C$DW$402       .dwtag  DW_TAG_enumerator, DW_AT_name("USER_ErrorCode_numPwmTicksPerIsrTick_High"), DW_AT_con
    4635              $C$DW$403       .dwtag  DW_TAG_enumerator, DW_AT_name("USER_ErrorCode_numPwmTicksPerIsrTick_Low"), DW_AT_cons
    4636              $C$DW$404       .dwtag  DW_TAG_enumerator, DW_AT_name("USER_ErrorCode_numIsrTicksPerCtrlTick_High"), DW_AT_co
    4637              $C$DW$405       .dwtag  DW_TAG_enumerator, DW_AT_name("USER_ErrorCode_numIsrTicksPerCtrlTick_Low"), DW_AT_con
    4638              $C$DW$406       .dwtag  DW_TAG_enumerator, DW_AT_name("USER_ErrorCode_numCtrlTicksPerCurrentTick_High"), DW_A
    4639              $C$DW$407       .dwtag  DW_TAG_enumerator, DW_AT_name("USER_ErrorCode_numCtrlTicksPerCurrentTick_Low"), DW_AT
    4640              $C$DW$408       .dwtag  DW_TAG_enumerator, DW_AT_name("USER_ErrorCode_numCtrlTicksPerEstTick_High"), DW_AT_co
    4641              $C$DW$409       .dwtag  DW_TAG_enumerator, DW_AT_name("USER_ErrorCode_numCtrlTicksPerEstTick_Low"), DW_AT_con
    4642              $C$DW$410       .dwtag  DW_TAG_enumerator, DW_AT_name("USER_ErrorCode_numCtrlTicksPerSpeedTick_High"), DW_AT_
    4643              $C$DW$411       .dwtag  DW_TAG_enumerator, DW_AT_name("USER_ErrorCode_numCtrlTicksPerSpeedTick_Low"), DW_AT_c
    4644              $C$DW$412       .dwtag  DW_TAG_enumerator, DW_AT_name("USER_ErrorCode_numCtrlTicksPerTrajTick_High"), DW_AT_c
TMS320C2000 Assembler PC v6.2.5 Wed Nov 22 14:48:16 2017

Tools Copyright (c) 1996-2014 Texas Instruments Incorporated
C:\Users\wmj\AppData\Local\Temp\0222411                              PAGE   89

    4645              $C$DW$413       .dwtag  DW_TAG_enumerator, DW_AT_name("USER_ErrorCode_numCtrlTicksPerTrajTick_Low"), DW_AT_co
    4646              $C$DW$414       .dwtag  DW_TAG_enumerator, DW_AT_name("USER_ErrorCode_numCurrentSensors_High"), DW_AT_const_v
    4647              $C$DW$415       .dwtag  DW_TAG_enumerator, DW_AT_name("USER_ErrorCode_numCurrentSensors_Low"), DW_AT_const_va
    4648              $C$DW$416       .dwtag  DW_TAG_enumerator, DW_AT_name("USER_ErrorCode_numVoltageSensors_High"), DW_AT_const_v
    4649              $C$DW$417       .dwtag  DW_TAG_enumerator, DW_AT_name("USER_ErrorCode_numVoltageSensors_Low"), DW_AT_const_va
    4650              $C$DW$418       .dwtag  DW_TAG_enumerator, DW_AT_name("USER_ErrorCode_offsetPole_rps_High"), DW_AT_const_valu
    4651              $C$DW$419       .dwtag  DW_TAG_enumerator, DW_AT_name("USER_ErrorCode_offsetPole_rps_Low"), DW_AT_const_value
    4652              $C$DW$420       .dwtag  DW_TAG_enumerator, DW_AT_name("USER_ErrorCode_fluxPole_rps_High"), DW_AT_const_value(
    4653              $C$DW$421       .dwtag  DW_TAG_enumerator, DW_AT_name("USER_ErrorCode_fluxPole_rps_Low"), DW_AT_const_value(0
    4654              $C$DW$422       .dwtag  DW_TAG_enumerator, DW_AT_name("USER_ErrorCode_zeroSpeedLimit_High"), DW_AT_const_valu
    4655              $C$DW$423       .dwtag  DW_TAG_enumerator, DW_AT_name("USER_ErrorCode_zeroSpeedLimit_Low"), DW_AT_const_value
    4656              $C$DW$424       .dwtag  DW_TAG_enumerator, DW_AT_name("USER_ErrorCode_forceAngleFreq_Hz_High"), DW_AT_const_v
    4657              $C$DW$425       .dwtag  DW_TAG_enumerator, DW_AT_name("USER_ErrorCode_forceAngleFreq_Hz_Low"), DW_AT_const_va
    4658              $C$DW$426       .dwtag  DW_TAG_enumerator, DW_AT_name("USER_ErrorCode_maxAccel_Hzps_High"), DW_AT_const_value
    4659              $C$DW$427       .dwtag  DW_TAG_enumerator, DW_AT_name("USER_ErrorCode_maxAccel_Hzps_Low"), DW_AT_const_value(
    4660              $C$DW$428       .dwtag  DW_TAG_enumerator, DW_AT_name("USER_ErrorCode_maxAccel_est_Hzps_High"), DW_AT_const_v
    4661              $C$DW$429       .dwtag  DW_TAG_enumerator, DW_AT_name("USER_ErrorCode_maxAccel_est_Hzps_Low"), DW_AT_const_va
    4662              $C$DW$430       .dwtag  DW_TAG_enumerator, DW_AT_name("USER_ErrorCode_directionPole_rps_High"), DW_AT_const_v
    4663              $C$DW$431       .dwtag  DW_TAG_enumerator, DW_AT_name("USER_ErrorCode_directionPole_rps_Low"), DW_AT_const_va
    4664              $C$DW$432       .dwtag  DW_TAG_enumerator, DW_AT_name("USER_ErrorCode_speedPole_rps_High"), DW_AT_const_value
    4665              $C$DW$433       .dwtag  DW_TAG_enumerator, DW_AT_name("USER_ErrorCode_speedPole_rps_Low"), DW_AT_const_value(
    4666              $C$DW$434       .dwtag  DW_TAG_enumerator, DW_AT_name("USER_ErrorCode_dcBusPole_rps_High"), DW_AT_const_value
    4667              $C$DW$435       .dwtag  DW_TAG_enumerator, DW_AT_name("USER_ErrorCode_dcBusPole_rps_Low"), DW_AT_const_value(
    4668              $C$DW$436       .dwtag  DW_TAG_enumerator, DW_AT_name("USER_ErrorCode_fluxFraction_High"), DW_AT_const_value(
    4669              $C$DW$437       .dwtag  DW_TAG_enumerator, DW_AT_name("USER_ErrorCode_fluxFraction_Low"), DW_AT_const_value(0
    4670              $C$DW$438       .dwtag  DW_TAG_enumerator, DW_AT_name("USER_ErrorCode_indEst_speedMaxFraction_High"), DW_AT_c
    4671              $C$DW$439       .dwtag  DW_TAG_enumerator, DW_AT_name("USER_ErrorCode_indEst_speedMaxFraction_Low"), DW_AT_co
    4672              $C$DW$440       .dwtag  DW_TAG_enumerator, DW_AT_name("USER_ErrorCode_powerWarpGain_High"), DW_AT_const_value
    4673              $C$DW$441       .dwtag  DW_TAG_enumerator, DW_AT_name("USER_ErrorCode_powerWarpGain_Low"), DW_AT_const_value(
    4674              $C$DW$442       .dwtag  DW_TAG_enumerator, DW_AT_name("USER_ErrorCode_systemFreq_MHz_High"), DW_AT_const_valu
    4675              $C$DW$443       .dwtag  DW_TAG_enumerator, DW_AT_name("USER_ErrorCode_systemFreq_MHz_Low"), DW_AT_const_value
    4676              $C$DW$444       .dwtag  DW_TAG_enumerator, DW_AT_name("USER_ErrorCode_pwmFreq_kHz_High"), DW_AT_const_value(0
    4677              $C$DW$445       .dwtag  DW_TAG_enumerator, DW_AT_name("USER_ErrorCode_pwmFreq_kHz_Low"), DW_AT_const_value(0x
    4678              $C$DW$446       .dwtag  DW_TAG_enumerator, DW_AT_name("USER_ErrorCode_voltage_sf_High"), DW_AT_const_value(0x
    4679              $C$DW$447       .dwtag  DW_TAG_enumerator, DW_AT_name("USER_ErrorCode_voltage_sf_Low"), DW_AT_const_value(0x3
    4680              $C$DW$448       .dwtag  DW_TAG_enumerator, DW_AT_name("USER_ErrorCode_current_sf_High"), DW_AT_const_value(0x
    4681              $C$DW$449       .dwtag  DW_TAG_enumerator, DW_AT_name("USER_ErrorCode_current_sf_Low"), DW_AT_const_value(0x3
    4682              $C$DW$450       .dwtag  DW_TAG_enumerator, DW_AT_name("USER_ErrorCode_voltageFilterPole_Hz_High"), DW_AT_cons
    4683              $C$DW$451       .dwtag  DW_TAG_enumerator, DW_AT_name("USER_ErrorCode_voltageFilterPole_Hz_Low"), DW_AT_const
    4684              $C$DW$452       .dwtag  DW_TAG_enumerator, DW_AT_name("USER_ErrorCode_maxVsMag_pu_High"), DW_AT_const_value(0
    4685              $C$DW$453       .dwtag  DW_TAG_enumerator, DW_AT_name("USER_ErrorCode_maxVsMag_pu_Low"), DW_AT_const_value(0x
    4686              $C$DW$454       .dwtag  DW_TAG_enumerator, DW_AT_name("USER_ErrorCode_estKappa_High"), DW_AT_const_value(0x3b
    4687              $C$DW$455       .dwtag  DW_TAG_enumerator, DW_AT_name("USER_ErrorCode_estKappa_Low"), DW_AT_const_value(0x3c)
    4688              $C$DW$456       .dwtag  DW_TAG_enumerator, DW_AT_name("USER_ErrorCode_motor_type_Unknown"), DW_AT_const_value
    4689              $C$DW$457       .dwtag  DW_TAG_enumerator, DW_AT_name("USER_ErrorCode_motor_numPolePairs_High"), DW_AT_const_
    4690              $C$DW$458       .dwtag  DW_TAG_enumerator, DW_AT_name("USER_ErrorCode_motor_numPolePairs_Low"), DW_AT_const_v
    4691              $C$DW$459       .dwtag  DW_TAG_enumerator, DW_AT_name("USER_ErrorCode_motor_ratedFlux_High"), DW_AT_const_val
    4692              $C$DW$460       .dwtag  DW_TAG_enumerator, DW_AT_name("USER_ErrorCode_motor_ratedFlux_Low"), DW_AT_const_valu
    4693              $C$DW$461       .dwtag  DW_TAG_enumerator, DW_AT_name("USER_ErrorCode_motor_Rr_High"), DW_AT_const_value(0x42
    4694              $C$DW$462       .dwtag  DW_TAG_enumerator, DW_AT_name("USER_ErrorCode_motor_Rr_Low"), DW_AT_const_value(0x43)
    4695              $C$DW$463       .dwtag  DW_TAG_enumerator, DW_AT_name("USER_ErrorCode_motor_Rs_High"), DW_AT_const_value(0x44
    4696              $C$DW$464       .dwtag  DW_TAG_enumerator, DW_AT_name("USER_ErrorCode_motor_Rs_Low"), DW_AT_const_value(0x45)
    4697              $C$DW$465       .dwtag  DW_TAG_enumerator, DW_AT_name("USER_ErrorCode_motor_Ls_d_High"), DW_AT_const_value(0x
    4698              $C$DW$466       .dwtag  DW_TAG_enumerator, DW_AT_name("USER_ErrorCode_motor_Ls_d_Low"), DW_AT_const_value(0x4
    4699              $C$DW$467       .dwtag  DW_TAG_enumerator, DW_AT_name("USER_ErrorCode_motor_Ls_q_High"), DW_AT_const_value(0x
TMS320C2000 Assembler PC v6.2.5 Wed Nov 22 14:48:16 2017

Tools Copyright (c) 1996-2014 Texas Instruments Incorporated
C:\Users\wmj\AppData\Local\Temp\0222411                              PAGE   90

    4700              $C$DW$468       .dwtag  DW_TAG_enumerator, DW_AT_name("USER_ErrorCode_motor_Ls_q_Low"), DW_AT_const_value(0x4
    4701              $C$DW$469       .dwtag  DW_TAG_enumerator, DW_AT_name("USER_ErrorCode_maxCurrent_High"), DW_AT_const_value(0x
    4702              $C$DW$470       .dwtag  DW_TAG_enumerator, DW_AT_name("USER_ErrorCode_maxCurrent_Low"), DW_AT_const_value(0x4
    4703              $C$DW$471       .dwtag  DW_TAG_enumerator, DW_AT_name("USER_ErrorCode_maxCurrent_resEst_High"), DW_AT_const_v
    4704              $C$DW$472       .dwtag  DW_TAG_enumerator, DW_AT_name("USER_ErrorCode_maxCurrent_resEst_Low"), DW_AT_const_va
    4705              $C$DW$473       .dwtag  DW_TAG_enumerator, DW_AT_name("USER_ErrorCode_maxCurrent_indEst_High"), DW_AT_const_v
    4706              $C$DW$474       .dwtag  DW_TAG_enumerator, DW_AT_name("USER_ErrorCode_maxCurrent_indEst_Low"), DW_AT_const_va
    4707              $C$DW$475       .dwtag  DW_TAG_enumerator, DW_AT_name("USER_ErrorCode_maxCurrentSlope_High"), DW_AT_const_val
    4708              $C$DW$476       .dwtag  DW_TAG_enumerator, DW_AT_name("USER_ErrorCode_maxCurrentSlope_Low"), DW_AT_const_valu
    4709              $C$DW$477       .dwtag  DW_TAG_enumerator, DW_AT_name("USER_ErrorCode_maxCurrentSlope_powerWarp_High"), DW_AT
    4710              $C$DW$478       .dwtag  DW_TAG_enumerator, DW_AT_name("USER_ErrorCode_maxCurrentSlope_powerWarp_Low"), DW_AT_
    4711              $C$DW$479       .dwtag  DW_TAG_enumerator, DW_AT_name("USER_ErrorCode_IdRated_High"), DW_AT_const_value(0x54)
    4712              $C$DW$480       .dwtag  DW_TAG_enumerator, DW_AT_name("USER_ErrorCode_IdRated_Low"), DW_AT_const_value(0x55)
    4713              $C$DW$481       .dwtag  DW_TAG_enumerator, DW_AT_name("USER_ErrorCode_IdRatedFraction_indEst_High"), DW_AT_co
    4714              $C$DW$482       .dwtag  DW_TAG_enumerator, DW_AT_name("USER_ErrorCode_IdRatedFraction_indEst_Low"), DW_AT_con
    4715              $C$DW$483       .dwtag  DW_TAG_enumerator, DW_AT_name("USER_ErrorCode_IdRatedFraction_ratedFlux_High"), DW_AT
    4716              $C$DW$484       .dwtag  DW_TAG_enumerator, DW_AT_name("USER_ErrorCode_IdRatedFraction_ratedFlux_Low"), DW_AT_
    4717              $C$DW$485       .dwtag  DW_TAG_enumerator, DW_AT_name("USER_ErrorCode_IdRated_delta_High"), DW_AT_const_value
    4718              $C$DW$486       .dwtag  DW_TAG_enumerator, DW_AT_name("USER_ErrorCode_IdRated_delta_Low"), DW_AT_const_value(
    4719              $C$DW$487       .dwtag  DW_TAG_enumerator, DW_AT_name("USER_ErrorCode_fluxEstFreq_Hz_High"), DW_AT_const_valu
    4720              $C$DW$488       .dwtag  DW_TAG_enumerator, DW_AT_name("USER_ErrorCode_fluxEstFreq_Hz_Low"), DW_AT_const_value
    4721              $C$DW$489       .dwtag  DW_TAG_enumerator, DW_AT_name("USER_ErrorCode_ctrlFreq_Hz_High"), DW_AT_const_value(0
    4722              $C$DW$490       .dwtag  DW_TAG_enumerator, DW_AT_name("USER_ErrorCode_ctrlFreq_Hz_Low"), DW_AT_const_value(0x
    4723              $C$DW$491       .dwtag  DW_TAG_enumerator, DW_AT_name("USER_ErrorCode_estFreq_Hz_High"), DW_AT_const_value(0x
    4724              $C$DW$492       .dwtag  DW_TAG_enumerator, DW_AT_name("USER_ErrorCode_estFreq_Hz_Low"), DW_AT_const_value(0x6
    4725              $C$DW$493       .dwtag  DW_TAG_enumerator, DW_AT_name("USER_ErrorCode_RoverL_estFreq_Hz_High"), DW_AT_const_v
    4726              $C$DW$494       .dwtag  DW_TAG_enumerator, DW_AT_name("USER_ErrorCode_RoverL_estFreq_Hz_Low"), DW_AT_const_va
    4727              $C$DW$495       .dwtag  DW_TAG_enumerator, DW_AT_name("USER_ErrorCode_trajFreq_Hz_High"), DW_AT_const_value(0
    4728              $C$DW$496       .dwtag  DW_TAG_enumerator, DW_AT_name("USER_ErrorCode_trajFreq_Hz_Low"), DW_AT_const_value(0x
    4729              $C$DW$497       .dwtag  DW_TAG_enumerator, DW_AT_name("USER_ErrorCode_ctrlPeriod_sec_High"), DW_AT_const_valu
    4730              $C$DW$498       .dwtag  DW_TAG_enumerator, DW_AT_name("USER_ErrorCode_ctrlPeriod_sec_Low"), DW_AT_const_value
    4731              $C$DW$499       .dwtag  DW_TAG_enumerator, DW_AT_name("USER_ErrorCode_maxNegativeIdCurrent_a_High"), DW_AT_co
    4732              $C$DW$500       .dwtag  DW_TAG_enumerator, DW_AT_name("USER_ErrorCode_maxNegativeIdCurrent_a_Low"), DW_AT_con
    4733              $C$DW$501       .dwtag  DW_TAG_enumerator, DW_AT_name("USER_numErrorCodes"), DW_AT_const_value(0x6a)
    4734                      .dwendtag $C$DW$T$143
    4735              
    4736              $C$DW$T$144     .dwtag  DW_TAG_typedef, DW_AT_name("USER_ErrorCode_e")
    4737                      .dwattr $C$DW$T$144, DW_AT_type(*$C$DW$T$143)
    4738                      .dwattr $C$DW$T$144, DW_AT_language(DW_LANG_C)
    4739              
    4740              $C$DW$T$190     .dwtag  DW_TAG_enumeration_type
    4741                      .dwattr $C$DW$T$190, DW_AT_byte_size(0x01)
    4742              $C$DW$502       .dwtag  DW_TAG_enumerator, DW_AT_name("GPIO_Number_0"), DW_AT_const_value(0x00)
    4743              $C$DW$503       .dwtag  DW_TAG_enumerator, DW_AT_name("GPIO_Number_1"), DW_AT_const_value(0x01)
    4744              $C$DW$504       .dwtag  DW_TAG_enumerator, DW_AT_name("GPIO_Number_2"), DW_AT_const_value(0x02)
    4745              $C$DW$505       .dwtag  DW_TAG_enumerator, DW_AT_name("GPIO_Number_3"), DW_AT_const_value(0x03)
    4746              $C$DW$506       .dwtag  DW_TAG_enumerator, DW_AT_name("GPIO_Number_4"), DW_AT_const_value(0x04)
    4747              $C$DW$507       .dwtag  DW_TAG_enumerator, DW_AT_name("GPIO_Number_5"), DW_AT_const_value(0x05)
    4748              $C$DW$508       .dwtag  DW_TAG_enumerator, DW_AT_name("GPIO_Number_6"), DW_AT_const_value(0x06)
    4749              $C$DW$509       .dwtag  DW_TAG_enumerator, DW_AT_name("GPIO_Number_7"), DW_AT_const_value(0x07)
    4750              $C$DW$510       .dwtag  DW_TAG_enumerator, DW_AT_name("GPIO_Rsvd_8"), DW_AT_const_value(0x08)
    4751              $C$DW$511       .dwtag  DW_TAG_enumerator, DW_AT_name("GPIO_Rsvd_9"), DW_AT_const_value(0x09)
    4752              $C$DW$512       .dwtag  DW_TAG_enumerator, DW_AT_name("GPIO_Rsvd_10"), DW_AT_const_value(0x0a)
    4753              $C$DW$513       .dwtag  DW_TAG_enumerator, DW_AT_name("GPIO_Rsvd_11"), DW_AT_const_value(0x0b)
    4754              $C$DW$514       .dwtag  DW_TAG_enumerator, DW_AT_name("GPIO_Number_12"), DW_AT_const_value(0x0c)
TMS320C2000 Assembler PC v6.2.5 Wed Nov 22 14:48:16 2017

Tools Copyright (c) 1996-2014 Texas Instruments Incorporated
C:\Users\wmj\AppData\Local\Temp\0222411                              PAGE   91

    4755              $C$DW$515       .dwtag  DW_TAG_enumerator, DW_AT_name("GPIO_Rsvd_13"), DW_AT_const_value(0x0d)
    4756              $C$DW$516       .dwtag  DW_TAG_enumerator, DW_AT_name("GPIO_Rsvd_14"), DW_AT_const_value(0x0e)
    4757              $C$DW$517       .dwtag  DW_TAG_enumerator, DW_AT_name("GPIO_Rsvd_15"), DW_AT_const_value(0x0f)
    4758              $C$DW$518       .dwtag  DW_TAG_enumerator, DW_AT_name("GPIO_Number_16"), DW_AT_const_value(0x10)
    4759              $C$DW$519       .dwtag  DW_TAG_enumerator, DW_AT_name("GPIO_Number_17"), DW_AT_const_value(0x11)
    4760              $C$DW$520       .dwtag  DW_TAG_enumerator, DW_AT_name("GPIO_Number_18"), DW_AT_const_value(0x12)
    4761              $C$DW$521       .dwtag  DW_TAG_enumerator, DW_AT_name("GPIO_Number_19"), DW_AT_const_value(0x13)
    4762              $C$DW$522       .dwtag  DW_TAG_enumerator, DW_AT_name("GPIO_Rsvd_20"), DW_AT_const_value(0x14)
    4763              $C$DW$523       .dwtag  DW_TAG_enumerator, DW_AT_name("GPIO_Rsvd_21"), DW_AT_const_value(0x15)
    4764              $C$DW$524       .dwtag  DW_TAG_enumerator, DW_AT_name("GPIO_Rsvd_22"), DW_AT_const_value(0x16)
    4765              $C$DW$525       .dwtag  DW_TAG_enumerator, DW_AT_name("GPIO_Rsvd_23"), DW_AT_const_value(0x17)
    4766              $C$DW$526       .dwtag  DW_TAG_enumerator, DW_AT_name("GPIO_Rsvd_24"), DW_AT_const_value(0x18)
    4767              $C$DW$527       .dwtag  DW_TAG_enumerator, DW_AT_name("GPIO_Rsvd_25"), DW_AT_const_value(0x19)
    4768              $C$DW$528       .dwtag  DW_TAG_enumerator, DW_AT_name("GPIO_Rsvd_26"), DW_AT_const_value(0x1a)
    4769              $C$DW$529       .dwtag  DW_TAG_enumerator, DW_AT_name("GPIO_Rsvd_27"), DW_AT_const_value(0x1b)
    4770              $C$DW$530       .dwtag  DW_TAG_enumerator, DW_AT_name("GPIO_Number_28"), DW_AT_const_value(0x1c)
    4771              $C$DW$531       .dwtag  DW_TAG_enumerator, DW_AT_name("GPIO_Number_29"), DW_AT_const_value(0x1d)
    4772              $C$DW$532       .dwtag  DW_TAG_enumerator, DW_AT_name("GPIO_Rsvd_30"), DW_AT_const_value(0x1e)
    4773              $C$DW$533       .dwtag  DW_TAG_enumerator, DW_AT_name("GPIO_Rsvd_31"), DW_AT_const_value(0x1f)
    4774              $C$DW$534       .dwtag  DW_TAG_enumerator, DW_AT_name("GPIO_Number_32"), DW_AT_const_value(0x20)
    4775              $C$DW$535       .dwtag  DW_TAG_enumerator, DW_AT_name("GPIO_Number_33"), DW_AT_const_value(0x21)
    4776              $C$DW$536       .dwtag  DW_TAG_enumerator, DW_AT_name("GPIO_Number_34"), DW_AT_const_value(0x22)
    4777              $C$DW$537       .dwtag  DW_TAG_enumerator, DW_AT_name("GPIO_Number_35"), DW_AT_const_value(0x23)
    4778              $C$DW$538       .dwtag  DW_TAG_enumerator, DW_AT_name("GPIO_Number_36"), DW_AT_const_value(0x24)
    4779              $C$DW$539       .dwtag  DW_TAG_enumerator, DW_AT_name("GPIO_Number_37"), DW_AT_const_value(0x25)
    4780              $C$DW$540       .dwtag  DW_TAG_enumerator, DW_AT_name("GPIO_Number_38"), DW_AT_const_value(0x26)
    4781              $C$DW$541       .dwtag  DW_TAG_enumerator, DW_AT_name("GPIO_numGpios"), DW_AT_const_value(0x27)
    4782                      .dwendtag $C$DW$T$190
    4783              
    4784              $C$DW$T$191     .dwtag  DW_TAG_typedef, DW_AT_name("GPIO_Number_e")
    4785                      .dwattr $C$DW$T$191, DW_AT_type(*$C$DW$T$190)
    4786                      .dwattr $C$DW$T$191, DW_AT_language(DW_LANG_C)
    4787              $C$DW$542       .dwtag  DW_TAG_TI_far_type
    4788                      .dwattr $C$DW$542, DW_AT_type(*$C$DW$T$191)
    4789              $C$DW$T$192     .dwtag  DW_TAG_const_type
    4790                      .dwattr $C$DW$T$192, DW_AT_type(*$C$DW$542)
    4791              
    4792              $C$DW$T$29      .dwtag  DW_TAG_structure_type
    4793                      .dwattr $C$DW$T$29, DW_AT_name("_ADC_Obj_")
    4794                      .dwattr $C$DW$T$29, DW_AT_byte_size(0x6650)
    4795              $C$DW$543       .dwtag  DW_TAG_member
    4796                      .dwattr $C$DW$543, DW_AT_type(*$C$DW$T$23)
    4797                      .dwattr $C$DW$543, DW_AT_name("ADCRESULT")
    4798                      .dwattr $C$DW$543, DW_AT_TI_symbol_name("_ADCRESULT")
    4799                      .dwattr $C$DW$543, DW_AT_data_member_location[DW_OP_plus_uconst 0x0]
    4800                      .dwattr $C$DW$543, DW_AT_accessibility(DW_ACCESS_public)
    4801              $C$DW$544       .dwtag  DW_TAG_member
    4802                      .dwattr $C$DW$544, DW_AT_type(*$C$DW$T$24)
    4803                      .dwattr $C$DW$544, DW_AT_name("resvd_1")
    4804                      .dwattr $C$DW$544, DW_AT_TI_symbol_name("_resvd_1")
    4805                      .dwattr $C$DW$544, DW_AT_data_member_location[DW_OP_plus_uconst 0x10]
    4806                      .dwattr $C$DW$544, DW_AT_accessibility(DW_ACCESS_public)
    4807              $C$DW$545       .dwtag  DW_TAG_member
    4808                      .dwattr $C$DW$545, DW_AT_type(*$C$DW$T$22)
    4809                      .dwattr $C$DW$545, DW_AT_name("ADCCTL1")
TMS320C2000 Assembler PC v6.2.5 Wed Nov 22 14:48:16 2017

Tools Copyright (c) 1996-2014 Texas Instruments Incorporated
C:\Users\wmj\AppData\Local\Temp\0222411                              PAGE   92

    4810                      .dwattr $C$DW$545, DW_AT_TI_symbol_name("_ADCCTL1")
    4811                      .dwattr $C$DW$545, DW_AT_data_member_location[DW_OP_plus_uconst 0x6600]
    4812                      .dwattr $C$DW$545, DW_AT_accessibility(DW_ACCESS_public)
    4813              $C$DW$546       .dwtag  DW_TAG_member
    4814                      .dwattr $C$DW$546, DW_AT_type(*$C$DW$T$22)
    4815                      .dwattr $C$DW$546, DW_AT_name("ADCCTL2")
    4816                      .dwattr $C$DW$546, DW_AT_TI_symbol_name("_ADCCTL2")
    4817                      .dwattr $C$DW$546, DW_AT_data_member_location[DW_OP_plus_uconst 0x6601]
    4818                      .dwattr $C$DW$546, DW_AT_accessibility(DW_ACCESS_public)
    4819              $C$DW$547       .dwtag  DW_TAG_member
    4820                      .dwattr $C$DW$547, DW_AT_type(*$C$DW$T$25)
    4821                      .dwattr $C$DW$547, DW_AT_name("rsvd_2")
    4822                      .dwattr $C$DW$547, DW_AT_TI_symbol_name("_rsvd_2")
    4823                      .dwattr $C$DW$547, DW_AT_data_member_location[DW_OP_plus_uconst 0x6602]
    4824                      .dwattr $C$DW$547, DW_AT_accessibility(DW_ACCESS_public)
    4825              $C$DW$548       .dwtag  DW_TAG_member
    4826                      .dwattr $C$DW$548, DW_AT_type(*$C$DW$T$22)
    4827                      .dwattr $C$DW$548, DW_AT_name("ADCINTFLG")
    4828                      .dwattr $C$DW$548, DW_AT_TI_symbol_name("_ADCINTFLG")
    4829                      .dwattr $C$DW$548, DW_AT_data_member_location[DW_OP_plus_uconst 0x6604]
    4830                      .dwattr $C$DW$548, DW_AT_accessibility(DW_ACCESS_public)
    4831              $C$DW$549       .dwtag  DW_TAG_member
    4832                      .dwattr $C$DW$549, DW_AT_type(*$C$DW$T$22)
    4833                      .dwattr $C$DW$549, DW_AT_name("ADCINTFLGCLR")
    4834                      .dwattr $C$DW$549, DW_AT_TI_symbol_name("_ADCINTFLGCLR")
    4835                      .dwattr $C$DW$549, DW_AT_data_member_location[DW_OP_plus_uconst 0x6605]
    4836                      .dwattr $C$DW$549, DW_AT_accessibility(DW_ACCESS_public)
    4837              $C$DW$550       .dwtag  DW_TAG_member
    4838                      .dwattr $C$DW$550, DW_AT_type(*$C$DW$T$22)
    4839                      .dwattr $C$DW$550, DW_AT_name("ADCINTOVF")
    4840                      .dwattr $C$DW$550, DW_AT_TI_symbol_name("_ADCINTOVF")
    4841                      .dwattr $C$DW$550, DW_AT_data_member_location[DW_OP_plus_uconst 0x6606]
    4842                      .dwattr $C$DW$550, DW_AT_accessibility(DW_ACCESS_public)
    4843              $C$DW$551       .dwtag  DW_TAG_member
    4844                      .dwattr $C$DW$551, DW_AT_type(*$C$DW$T$22)
    4845                      .dwattr $C$DW$551, DW_AT_name("ADCINTOVFCLR")
    4846                      .dwattr $C$DW$551, DW_AT_TI_symbol_name("_ADCINTOVFCLR")
    4847                      .dwattr $C$DW$551, DW_AT_data_member_location[DW_OP_plus_uconst 0x6607]
    4848                      .dwattr $C$DW$551, DW_AT_accessibility(DW_ACCESS_public)
    4849              $C$DW$552       .dwtag  DW_TAG_member
    4850                      .dwattr $C$DW$552, DW_AT_type(*$C$DW$T$26)
    4851                      .dwattr $C$DW$552, DW_AT_name("INTSELxNy")
    4852                      .dwattr $C$DW$552, DW_AT_TI_symbol_name("_INTSELxNy")
    4853                      .dwattr $C$DW$552, DW_AT_data_member_location[DW_OP_plus_uconst 0x6608]
    4854                      .dwattr $C$DW$552, DW_AT_accessibility(DW_ACCESS_public)
    4855              $C$DW$553       .dwtag  DW_TAG_member
    4856                      .dwattr $C$DW$553, DW_AT_type(*$C$DW$T$27)
    4857                      .dwattr $C$DW$553, DW_AT_name("rsvd_3")
    4858                      .dwattr $C$DW$553, DW_AT_TI_symbol_name("_rsvd_3")
    4859                      .dwattr $C$DW$553, DW_AT_data_member_location[DW_OP_plus_uconst 0x660d]
    4860                      .dwattr $C$DW$553, DW_AT_accessibility(DW_ACCESS_public)
    4861              $C$DW$554       .dwtag  DW_TAG_member
    4862                      .dwattr $C$DW$554, DW_AT_type(*$C$DW$T$22)
    4863                      .dwattr $C$DW$554, DW_AT_name("SOCPRICTRL")
    4864                      .dwattr $C$DW$554, DW_AT_TI_symbol_name("_SOCPRICTRL")
TMS320C2000 Assembler PC v6.2.5 Wed Nov 22 14:48:16 2017

Tools Copyright (c) 1996-2014 Texas Instruments Incorporated
C:\Users\wmj\AppData\Local\Temp\0222411                              PAGE   93

    4865                      .dwattr $C$DW$554, DW_AT_data_member_location[DW_OP_plus_uconst 0x6610]
    4866                      .dwattr $C$DW$554, DW_AT_accessibility(DW_ACCESS_public)
    4867              $C$DW$555       .dwtag  DW_TAG_member
    4868                      .dwattr $C$DW$555, DW_AT_type(*$C$DW$T$22)
    4869                      .dwattr $C$DW$555, DW_AT_name("rsvd_4")
    4870                      .dwattr $C$DW$555, DW_AT_TI_symbol_name("_rsvd_4")
    4871                      .dwattr $C$DW$555, DW_AT_data_member_location[DW_OP_plus_uconst 0x6611]
    4872                      .dwattr $C$DW$555, DW_AT_accessibility(DW_ACCESS_public)
    4873              $C$DW$556       .dwtag  DW_TAG_member
    4874                      .dwattr $C$DW$556, DW_AT_type(*$C$DW$T$22)
    4875                      .dwattr $C$DW$556, DW_AT_name("ADCSAMPLEMODE")
    4876                      .dwattr $C$DW$556, DW_AT_TI_symbol_name("_ADCSAMPLEMODE")
    4877                      .dwattr $C$DW$556, DW_AT_data_member_location[DW_OP_plus_uconst 0x6612]
    4878                      .dwattr $C$DW$556, DW_AT_accessibility(DW_ACCESS_public)
    4879              $C$DW$557       .dwtag  DW_TAG_member
    4880                      .dwattr $C$DW$557, DW_AT_type(*$C$DW$T$22)
    4881                      .dwattr $C$DW$557, DW_AT_name("rsvd_5")
    4882                      .dwattr $C$DW$557, DW_AT_TI_symbol_name("_rsvd_5")
    4883                      .dwattr $C$DW$557, DW_AT_data_member_location[DW_OP_plus_uconst 0x6613]
    4884                      .dwattr $C$DW$557, DW_AT_accessibility(DW_ACCESS_public)
    4885              $C$DW$558       .dwtag  DW_TAG_member
    4886                      .dwattr $C$DW$558, DW_AT_type(*$C$DW$T$22)
    4887                      .dwattr $C$DW$558, DW_AT_name("ADCINTSOCSEL1")
    4888                      .dwattr $C$DW$558, DW_AT_TI_symbol_name("_ADCINTSOCSEL1")
    4889                      .dwattr $C$DW$558, DW_AT_data_member_location[DW_OP_plus_uconst 0x6614]
    4890                      .dwattr $C$DW$558, DW_AT_accessibility(DW_ACCESS_public)
    4891              $C$DW$559       .dwtag  DW_TAG_member
    4892                      .dwattr $C$DW$559, DW_AT_type(*$C$DW$T$22)
    4893                      .dwattr $C$DW$559, DW_AT_name("ADCINTSOCSEL2")
    4894                      .dwattr $C$DW$559, DW_AT_TI_symbol_name("_ADCINTSOCSEL2")
    4895                      .dwattr $C$DW$559, DW_AT_data_member_location[DW_OP_plus_uconst 0x6615]
    4896                      .dwattr $C$DW$559, DW_AT_accessibility(DW_ACCESS_public)
    4897              $C$DW$560       .dwtag  DW_TAG_member
    4898                      .dwattr $C$DW$560, DW_AT_type(*$C$DW$T$25)
    4899                      .dwattr $C$DW$560, DW_AT_name("rsvd_6")
    4900                      .dwattr $C$DW$560, DW_AT_TI_symbol_name("_rsvd_6")
    4901                      .dwattr $C$DW$560, DW_AT_data_member_location[DW_OP_plus_uconst 0x6616]
    4902                      .dwattr $C$DW$560, DW_AT_accessibility(DW_ACCESS_public)
    4903              $C$DW$561       .dwtag  DW_TAG_member
    4904                      .dwattr $C$DW$561, DW_AT_type(*$C$DW$T$22)
    4905                      .dwattr $C$DW$561, DW_AT_name("ADCSOCFLG1")
    4906                      .dwattr $C$DW$561, DW_AT_TI_symbol_name("_ADCSOCFLG1")
    4907                      .dwattr $C$DW$561, DW_AT_data_member_location[DW_OP_plus_uconst 0x6618]
    4908                      .dwattr $C$DW$561, DW_AT_accessibility(DW_ACCESS_public)
    4909              $C$DW$562       .dwtag  DW_TAG_member
    4910                      .dwattr $C$DW$562, DW_AT_type(*$C$DW$T$22)
    4911                      .dwattr $C$DW$562, DW_AT_name("rsvd_7")
    4912                      .dwattr $C$DW$562, DW_AT_TI_symbol_name("_rsvd_7")
    4913                      .dwattr $C$DW$562, DW_AT_data_member_location[DW_OP_plus_uconst 0x6619]
    4914                      .dwattr $C$DW$562, DW_AT_accessibility(DW_ACCESS_public)
    4915              $C$DW$563       .dwtag  DW_TAG_member
    4916                      .dwattr $C$DW$563, DW_AT_type(*$C$DW$T$22)
    4917                      .dwattr $C$DW$563, DW_AT_name("ADCSOCFRC1")
    4918                      .dwattr $C$DW$563, DW_AT_TI_symbol_name("_ADCSOCFRC1")
    4919                      .dwattr $C$DW$563, DW_AT_data_member_location[DW_OP_plus_uconst 0x661a]
TMS320C2000 Assembler PC v6.2.5 Wed Nov 22 14:48:16 2017

Tools Copyright (c) 1996-2014 Texas Instruments Incorporated
C:\Users\wmj\AppData\Local\Temp\0222411                              PAGE   94

    4920                      .dwattr $C$DW$563, DW_AT_accessibility(DW_ACCESS_public)
    4921              $C$DW$564       .dwtag  DW_TAG_member
    4922                      .dwattr $C$DW$564, DW_AT_type(*$C$DW$T$22)
    4923                      .dwattr $C$DW$564, DW_AT_name("rsvd_8")
    4924                      .dwattr $C$DW$564, DW_AT_TI_symbol_name("_rsvd_8")
    4925                      .dwattr $C$DW$564, DW_AT_data_member_location[DW_OP_plus_uconst 0x661b]
    4926                      .dwattr $C$DW$564, DW_AT_accessibility(DW_ACCESS_public)
    4927              $C$DW$565       .dwtag  DW_TAG_member
    4928                      .dwattr $C$DW$565, DW_AT_type(*$C$DW$T$22)
    4929                      .dwattr $C$DW$565, DW_AT_name("ADCSOCOVF1")
    4930                      .dwattr $C$DW$565, DW_AT_TI_symbol_name("_ADCSOCOVF1")
    4931                      .dwattr $C$DW$565, DW_AT_data_member_location[DW_OP_plus_uconst 0x661c]
    4932                      .dwattr $C$DW$565, DW_AT_accessibility(DW_ACCESS_public)
    4933              $C$DW$566       .dwtag  DW_TAG_member
    4934                      .dwattr $C$DW$566, DW_AT_type(*$C$DW$T$22)
    4935                      .dwattr $C$DW$566, DW_AT_name("rsvd_9")
    4936                      .dwattr $C$DW$566, DW_AT_TI_symbol_name("_rsvd_9")
    4937                      .dwattr $C$DW$566, DW_AT_data_member_location[DW_OP_plus_uconst 0x661d]
    4938                      .dwattr $C$DW$566, DW_AT_accessibility(DW_ACCESS_public)
    4939              $C$DW$567       .dwtag  DW_TAG_member
    4940                      .dwattr $C$DW$567, DW_AT_type(*$C$DW$T$22)
    4941                      .dwattr $C$DW$567, DW_AT_name("ADCSOCOVFCLR1")
    4942                      .dwattr $C$DW$567, DW_AT_TI_symbol_name("_ADCSOCOVFCLR1")
    4943                      .dwattr $C$DW$567, DW_AT_data_member_location[DW_OP_plus_uconst 0x661e]
    4944                      .dwattr $C$DW$567, DW_AT_accessibility(DW_ACCESS_public)
    4945              $C$DW$568       .dwtag  DW_TAG_member
    4946                      .dwattr $C$DW$568, DW_AT_type(*$C$DW$T$22)
    4947                      .dwattr $C$DW$568, DW_AT_name("rsvd_10")
    4948                      .dwattr $C$DW$568, DW_AT_TI_symbol_name("_rsvd_10")
    4949                      .dwattr $C$DW$568, DW_AT_data_member_location[DW_OP_plus_uconst 0x661f]
    4950                      .dwattr $C$DW$568, DW_AT_accessibility(DW_ACCESS_public)
    4951              $C$DW$569       .dwtag  DW_TAG_member
    4952                      .dwattr $C$DW$569, DW_AT_type(*$C$DW$T$23)
    4953                      .dwattr $C$DW$569, DW_AT_name("ADCSOCxCTL")
    4954                      .dwattr $C$DW$569, DW_AT_TI_symbol_name("_ADCSOCxCTL")
    4955                      .dwattr $C$DW$569, DW_AT_data_member_location[DW_OP_plus_uconst 0x6620]
    4956                      .dwattr $C$DW$569, DW_AT_accessibility(DW_ACCESS_public)
    4957              $C$DW$570       .dwtag  DW_TAG_member
    4958                      .dwattr $C$DW$570, DW_AT_type(*$C$DW$T$23)
    4959                      .dwattr $C$DW$570, DW_AT_name("rsvd_11")
    4960                      .dwattr $C$DW$570, DW_AT_TI_symbol_name("_rsvd_11")
    4961                      .dwattr $C$DW$570, DW_AT_data_member_location[DW_OP_plus_uconst 0x6630]
    4962                      .dwattr $C$DW$570, DW_AT_accessibility(DW_ACCESS_public)
    4963              $C$DW$571       .dwtag  DW_TAG_member
    4964                      .dwattr $C$DW$571, DW_AT_type(*$C$DW$T$22)
    4965                      .dwattr $C$DW$571, DW_AT_name("ADCREFTRIM")
    4966                      .dwattr $C$DW$571, DW_AT_TI_symbol_name("_ADCREFTRIM")
    4967                      .dwattr $C$DW$571, DW_AT_data_member_location[DW_OP_plus_uconst 0x6640]
    4968                      .dwattr $C$DW$571, DW_AT_accessibility(DW_ACCESS_public)
    4969              $C$DW$572       .dwtag  DW_TAG_member
    4970                      .dwattr $C$DW$572, DW_AT_type(*$C$DW$T$22)
    4971                      .dwattr $C$DW$572, DW_AT_name("ADCOFFTRIM")
    4972                      .dwattr $C$DW$572, DW_AT_TI_symbol_name("_ADCOFFTRIM")
    4973                      .dwattr $C$DW$572, DW_AT_data_member_location[DW_OP_plus_uconst 0x6641]
    4974                      .dwattr $C$DW$572, DW_AT_accessibility(DW_ACCESS_public)
TMS320C2000 Assembler PC v6.2.5 Wed Nov 22 14:48:16 2017

Tools Copyright (c) 1996-2014 Texas Instruments Incorporated
C:\Users\wmj\AppData\Local\Temp\0222411                              PAGE   95

    4975              $C$DW$573       .dwtag  DW_TAG_member
    4976                      .dwattr $C$DW$573, DW_AT_type(*$C$DW$T$28)
    4977                      .dwattr $C$DW$573, DW_AT_name("resvd_12")
    4978                      .dwattr $C$DW$573, DW_AT_TI_symbol_name("_resvd_12")
    4979                      .dwattr $C$DW$573, DW_AT_data_member_location[DW_OP_plus_uconst 0x6642]
    4980                      .dwattr $C$DW$573, DW_AT_accessibility(DW_ACCESS_public)
    4981              $C$DW$574       .dwtag  DW_TAG_member
    4982                      .dwattr $C$DW$574, DW_AT_type(*$C$DW$T$22)
    4983                      .dwattr $C$DW$574, DW_AT_name("ADCREV")
    4984                      .dwattr $C$DW$574, DW_AT_TI_symbol_name("_ADCREV")
    4985                      .dwattr $C$DW$574, DW_AT_data_member_location[DW_OP_plus_uconst 0x664f]
    4986                      .dwattr $C$DW$574, DW_AT_accessibility(DW_ACCESS_public)
    4987                      .dwendtag $C$DW$T$29
    4988              
    4989              $C$DW$T$79      .dwtag  DW_TAG_pointer_type
    4990                      .dwattr $C$DW$T$79, DW_AT_type(*$C$DW$T$29)
    4991                      .dwattr $C$DW$T$79, DW_AT_address_class(0x16)
    4992              $C$DW$T$80      .dwtag  DW_TAG_typedef, DW_AT_name("ADC_Handle")
    4993                      .dwattr $C$DW$T$80, DW_AT_type(*$C$DW$T$79)
    4994                      .dwattr $C$DW$T$80, DW_AT_language(DW_LANG_C)
    4995              
    4996              $C$DW$T$31      .dwtag  DW_TAG_structure_type
    4997                      .dwattr $C$DW$T$31, DW_AT_name("_CLK_Obj_")
    4998                      .dwattr $C$DW$T$31, DW_AT_byte_size(0x11)
    4999              $C$DW$575       .dwtag  DW_TAG_member
    5000                      .dwattr $C$DW$575, DW_AT_type(*$C$DW$T$22)
    5001                      .dwattr $C$DW$575, DW_AT_name("XCLK")
    5002                      .dwattr $C$DW$575, DW_AT_TI_symbol_name("_XCLK")
    5003                      .dwattr $C$DW$575, DW_AT_data_member_location[DW_OP_plus_uconst 0x0]
    5004                      .dwattr $C$DW$575, DW_AT_accessibility(DW_ACCESS_public)
    5005              $C$DW$576       .dwtag  DW_TAG_member
    5006                      .dwattr $C$DW$576, DW_AT_type(*$C$DW$T$22)
    5007                      .dwattr $C$DW$576, DW_AT_name("rsvd_1")
    5008                      .dwattr $C$DW$576, DW_AT_TI_symbol_name("_rsvd_1")
    5009                      .dwattr $C$DW$576, DW_AT_data_member_location[DW_OP_plus_uconst 0x1]
    5010                      .dwattr $C$DW$576, DW_AT_accessibility(DW_ACCESS_public)
    5011              $C$DW$577       .dwtag  DW_TAG_member
    5012                      .dwattr $C$DW$577, DW_AT_type(*$C$DW$T$22)
    5013                      .dwattr $C$DW$577, DW_AT_name("CLKCTL")
    5014                      .dwattr $C$DW$577, DW_AT_TI_symbol_name("_CLKCTL")
    5015                      .dwattr $C$DW$577, DW_AT_data_member_location[DW_OP_plus_uconst 0x2]
    5016                      .dwattr $C$DW$577, DW_AT_accessibility(DW_ACCESS_public)
    5017              $C$DW$578       .dwtag  DW_TAG_member
    5018                      .dwattr $C$DW$578, DW_AT_type(*$C$DW$T$30)
    5019                      .dwattr $C$DW$578, DW_AT_name("rsvd_2")
    5020                      .dwattr $C$DW$578, DW_AT_TI_symbol_name("_rsvd_2")
    5021                      .dwattr $C$DW$578, DW_AT_data_member_location[DW_OP_plus_uconst 0x3]
    5022                      .dwattr $C$DW$578, DW_AT_accessibility(DW_ACCESS_public)
    5023              $C$DW$579       .dwtag  DW_TAG_member
    5024                      .dwattr $C$DW$579, DW_AT_type(*$C$DW$T$22)
    5025                      .dwattr $C$DW$579, DW_AT_name("LOSPCP")
    5026                      .dwattr $C$DW$579, DW_AT_TI_symbol_name("_LOSPCP")
    5027                      .dwattr $C$DW$579, DW_AT_data_member_location[DW_OP_plus_uconst 0xb]
    5028                      .dwattr $C$DW$579, DW_AT_accessibility(DW_ACCESS_public)
    5029              $C$DW$580       .dwtag  DW_TAG_member
TMS320C2000 Assembler PC v6.2.5 Wed Nov 22 14:48:16 2017

Tools Copyright (c) 1996-2014 Texas Instruments Incorporated
C:\Users\wmj\AppData\Local\Temp\0222411                              PAGE   96

    5030                      .dwattr $C$DW$580, DW_AT_type(*$C$DW$T$22)
    5031                      .dwattr $C$DW$580, DW_AT_name("PCLKCR0")
    5032                      .dwattr $C$DW$580, DW_AT_TI_symbol_name("_PCLKCR0")
    5033                      .dwattr $C$DW$580, DW_AT_data_member_location[DW_OP_plus_uconst 0xc]
    5034                      .dwattr $C$DW$580, DW_AT_accessibility(DW_ACCESS_public)
    5035              $C$DW$581       .dwtag  DW_TAG_member
    5036                      .dwattr $C$DW$581, DW_AT_type(*$C$DW$T$22)
    5037                      .dwattr $C$DW$581, DW_AT_name("PCLKCR1")
    5038                      .dwattr $C$DW$581, DW_AT_TI_symbol_name("_PCLKCR1")
    5039                      .dwattr $C$DW$581, DW_AT_data_member_location[DW_OP_plus_uconst 0xd]
    5040                      .dwattr $C$DW$581, DW_AT_accessibility(DW_ACCESS_public)
    5041              $C$DW$582       .dwtag  DW_TAG_member
    5042                      .dwattr $C$DW$582, DW_AT_type(*$C$DW$T$25)
    5043                      .dwattr $C$DW$582, DW_AT_name("rsvd_3")
    5044                      .dwattr $C$DW$582, DW_AT_TI_symbol_name("_rsvd_3")
    5045                      .dwattr $C$DW$582, DW_AT_data_member_location[DW_OP_plus_uconst 0xe]
    5046                      .dwattr $C$DW$582, DW_AT_accessibility(DW_ACCESS_public)
    5047              $C$DW$583       .dwtag  DW_TAG_member
    5048                      .dwattr $C$DW$583, DW_AT_type(*$C$DW$T$22)
    5049                      .dwattr $C$DW$583, DW_AT_name("PCLKCR3")
    5050                      .dwattr $C$DW$583, DW_AT_TI_symbol_name("_PCLKCR3")
    5051                      .dwattr $C$DW$583, DW_AT_data_member_location[DW_OP_plus_uconst 0x10]
    5052                      .dwattr $C$DW$583, DW_AT_accessibility(DW_ACCESS_public)
    5053                      .dwendtag $C$DW$T$31
    5054              
    5055              $C$DW$T$81      .dwtag  DW_TAG_pointer_type
    5056                      .dwattr $C$DW$T$81, DW_AT_type(*$C$DW$T$31)
    5057                      .dwattr $C$DW$T$81, DW_AT_address_class(0x16)
    5058              $C$DW$T$82      .dwtag  DW_TAG_typedef, DW_AT_name("CLK_Handle")
    5059                      .dwattr $C$DW$T$82, DW_AT_type(*$C$DW$T$81)
    5060                      .dwattr $C$DW$T$82, DW_AT_language(DW_LANG_C)
    5061              
    5062              $C$DW$T$33      .dwtag  DW_TAG_structure_type
    5063                      .dwattr $C$DW$T$33, DW_AT_name("_CPU_Obj_")
    5064                      .dwattr $C$DW$T$33, DW_AT_byte_size(0x01)
    5065              $C$DW$584       .dwtag  DW_TAG_member
    5066                      .dwattr $C$DW$584, DW_AT_type(*$C$DW$T$32)
    5067                      .dwattr $C$DW$584, DW_AT_name("tmp")
    5068                      .dwattr $C$DW$584, DW_AT_TI_symbol_name("_tmp")
    5069                      .dwattr $C$DW$584, DW_AT_data_member_location[DW_OP_plus_uconst 0x0]
    5070                      .dwattr $C$DW$584, DW_AT_accessibility(DW_ACCESS_public)
    5071                      .dwendtag $C$DW$T$33
    5072              
    5073              $C$DW$T$83      .dwtag  DW_TAG_pointer_type
    5074                      .dwattr $C$DW$T$83, DW_AT_type(*$C$DW$T$33)
    5075                      .dwattr $C$DW$T$83, DW_AT_address_class(0x16)
    5076              $C$DW$T$84      .dwtag  DW_TAG_typedef, DW_AT_name("CPU_Handle")
    5077                      .dwattr $C$DW$T$84, DW_AT_type(*$C$DW$T$83)
    5078                      .dwattr $C$DW$T$84, DW_AT_language(DW_LANG_C)
    5079              
    5080              $C$DW$T$36      .dwtag  DW_TAG_structure_type
    5081                      .dwattr $C$DW$T$36, DW_AT_name("_CTRL_Version_")
    5082                      .dwattr $C$DW$T$36, DW_AT_byte_size(0x04)
    5083              $C$DW$585       .dwtag  DW_TAG_member
    5084                      .dwattr $C$DW$585, DW_AT_type(*$C$DW$T$21)
TMS320C2000 Assembler PC v6.2.5 Wed Nov 22 14:48:16 2017

Tools Copyright (c) 1996-2014 Texas Instruments Incorporated
C:\Users\wmj\AppData\Local\Temp\0222411                              PAGE   97

    5085                      .dwattr $C$DW$585, DW_AT_name("rsvd")
    5086                      .dwattr $C$DW$585, DW_AT_TI_symbol_name("_rsvd")
    5087                      .dwattr $C$DW$585, DW_AT_data_member_location[DW_OP_plus_uconst 0x0]
    5088                      .dwattr $C$DW$585, DW_AT_accessibility(DW_ACCESS_public)
    5089              $C$DW$586       .dwtag  DW_TAG_member
    5090                      .dwattr $C$DW$586, DW_AT_type(*$C$DW$T$35)
    5091                      .dwattr $C$DW$586, DW_AT_name("targetProc")
    5092                      .dwattr $C$DW$586, DW_AT_TI_symbol_name("_targetProc")
    5093                      .dwattr $C$DW$586, DW_AT_data_member_location[DW_OP_plus_uconst 0x1]
    5094                      .dwattr $C$DW$586, DW_AT_accessibility(DW_ACCESS_public)
    5095              $C$DW$587       .dwtag  DW_TAG_member
    5096                      .dwattr $C$DW$587, DW_AT_type(*$C$DW$T$21)
    5097                      .dwattr $C$DW$587, DW_AT_name("major")
    5098                      .dwattr $C$DW$587, DW_AT_TI_symbol_name("_major")
    5099                      .dwattr $C$DW$587, DW_AT_data_member_location[DW_OP_plus_uconst 0x2]
    5100                      .dwattr $C$DW$587, DW_AT_accessibility(DW_ACCESS_public)
    5101              $C$DW$588       .dwtag  DW_TAG_member
    5102                      .dwattr $C$DW$588, DW_AT_type(*$C$DW$T$21)
    5103                      .dwattr $C$DW$588, DW_AT_name("minor")
    5104                      .dwattr $C$DW$588, DW_AT_TI_symbol_name("_minor")
    5105                      .dwattr $C$DW$588, DW_AT_data_member_location[DW_OP_plus_uconst 0x3]
    5106                      .dwattr $C$DW$588, DW_AT_accessibility(DW_ACCESS_public)
    5107                      .dwendtag $C$DW$T$36
    5108              
    5109              $C$DW$T$145     .dwtag  DW_TAG_typedef, DW_AT_name("CTRL_Version")
    5110                      .dwattr $C$DW$T$145, DW_AT_type(*$C$DW$T$36)
    5111                      .dwattr $C$DW$T$145, DW_AT_language(DW_LANG_C)
    5112              
    5113              $C$DW$T$38      .dwtag  DW_TAG_structure_type
    5114                      .dwattr $C$DW$T$38, DW_AT_name("_FILTER_FO_")
    5115                      .dwattr $C$DW$T$38, DW_AT_byte_size(0x0a)
    5116              $C$DW$589       .dwtag  DW_TAG_member
    5117                      .dwattr $C$DW$589, DW_AT_type(*$C$DW$T$37)
    5118                      .dwattr $C$DW$589, DW_AT_name("a1")
    5119                      .dwattr $C$DW$589, DW_AT_TI_symbol_name("_a1")
    5120                      .dwattr $C$DW$589, DW_AT_data_member_location[DW_OP_plus_uconst 0x0]
    5121                      .dwattr $C$DW$589, DW_AT_accessibility(DW_ACCESS_public)
    5122              $C$DW$590       .dwtag  DW_TAG_member
    5123                      .dwattr $C$DW$590, DW_AT_type(*$C$DW$T$37)
    5124                      .dwattr $C$DW$590, DW_AT_name("b0")
    5125                      .dwattr $C$DW$590, DW_AT_TI_symbol_name("_b0")
    5126                      .dwattr $C$DW$590, DW_AT_data_member_location[DW_OP_plus_uconst 0x2]
    5127                      .dwattr $C$DW$590, DW_AT_accessibility(DW_ACCESS_public)
    5128              $C$DW$591       .dwtag  DW_TAG_member
    5129                      .dwattr $C$DW$591, DW_AT_type(*$C$DW$T$37)
    5130                      .dwattr $C$DW$591, DW_AT_name("b1")
    5131                      .dwattr $C$DW$591, DW_AT_TI_symbol_name("_b1")
    5132                      .dwattr $C$DW$591, DW_AT_data_member_location[DW_OP_plus_uconst 0x4]
    5133                      .dwattr $C$DW$591, DW_AT_accessibility(DW_ACCESS_public)
    5134              $C$DW$592       .dwtag  DW_TAG_member
    5135                      .dwattr $C$DW$592, DW_AT_type(*$C$DW$T$37)
    5136                      .dwattr $C$DW$592, DW_AT_name("x1")
    5137                      .dwattr $C$DW$592, DW_AT_TI_symbol_name("_x1")
    5138                      .dwattr $C$DW$592, DW_AT_data_member_location[DW_OP_plus_uconst 0x6]
    5139                      .dwattr $C$DW$592, DW_AT_accessibility(DW_ACCESS_public)
TMS320C2000 Assembler PC v6.2.5 Wed Nov 22 14:48:16 2017

Tools Copyright (c) 1996-2014 Texas Instruments Incorporated
C:\Users\wmj\AppData\Local\Temp\0222411                              PAGE   98

    5140              $C$DW$593       .dwtag  DW_TAG_member
    5141                      .dwattr $C$DW$593, DW_AT_type(*$C$DW$T$37)
    5142                      .dwattr $C$DW$593, DW_AT_name("y1")
    5143                      .dwattr $C$DW$593, DW_AT_TI_symbol_name("_y1")
    5144                      .dwattr $C$DW$593, DW_AT_data_member_location[DW_OP_plus_uconst 0x8]
    5145                      .dwattr $C$DW$593, DW_AT_accessibility(DW_ACCESS_public)
    5146                      .dwendtag $C$DW$T$38
    5147              
    5148              $C$DW$T$149     .dwtag  DW_TAG_typedef, DW_AT_name("FILTER_FO_Obj")
    5149                      .dwattr $C$DW$T$149, DW_AT_type(*$C$DW$T$38)
    5150                      .dwattr $C$DW$T$149, DW_AT_language(DW_LANG_C)
    5151              
    5152              $C$DW$T$19      .dwtag  DW_TAG_structure_type
    5153                      .dwattr $C$DW$T$19, DW_AT_name("_FILTER_FO_Obj_")
    5154                      .dwattr $C$DW$T$19, DW_AT_declaration
    5155                      .dwendtag $C$DW$T$19
    5156              
    5157              $C$DW$T$150     .dwtag  DW_TAG_pointer_type
    5158                      .dwattr $C$DW$T$150, DW_AT_type(*$C$DW$T$19)
    5159                      .dwattr $C$DW$T$150, DW_AT_address_class(0x16)
    5160              $C$DW$T$151     .dwtag  DW_TAG_typedef, DW_AT_name("FILTER_FO_Handle")
    5161                      .dwattr $C$DW$T$151, DW_AT_type(*$C$DW$T$150)
    5162                      .dwattr $C$DW$T$151, DW_AT_language(DW_LANG_C)
    5163              
    5164              $C$DW$T$39      .dwtag  DW_TAG_structure_type
    5165                      .dwattr $C$DW$T$39, DW_AT_name("_FLASH_Obj_")
    5166                      .dwattr $C$DW$T$39, DW_AT_byte_size(0x08)
    5167              $C$DW$594       .dwtag  DW_TAG_member
    5168                      .dwattr $C$DW$594, DW_AT_type(*$C$DW$T$22)
    5169                      .dwattr $C$DW$594, DW_AT_name("FOPT")
    5170                      .dwattr $C$DW$594, DW_AT_TI_symbol_name("_FOPT")
    5171                      .dwattr $C$DW$594, DW_AT_data_member_location[DW_OP_plus_uconst 0x0]
    5172                      .dwattr $C$DW$594, DW_AT_accessibility(DW_ACCESS_public)
    5173              $C$DW$595       .dwtag  DW_TAG_member
    5174                      .dwattr $C$DW$595, DW_AT_type(*$C$DW$T$22)
    5175                      .dwattr $C$DW$595, DW_AT_name("rsvd_1")
    5176                      .dwattr $C$DW$595, DW_AT_TI_symbol_name("_rsvd_1")
    5177                      .dwattr $C$DW$595, DW_AT_data_member_location[DW_OP_plus_uconst 0x1]
    5178                      .dwattr $C$DW$595, DW_AT_accessibility(DW_ACCESS_public)
    5179              $C$DW$596       .dwtag  DW_TAG_member
    5180                      .dwattr $C$DW$596, DW_AT_type(*$C$DW$T$22)
    5181                      .dwattr $C$DW$596, DW_AT_name("FPWR")
    5182                      .dwattr $C$DW$596, DW_AT_TI_symbol_name("_FPWR")
    5183                      .dwattr $C$DW$596, DW_AT_data_member_location[DW_OP_plus_uconst 0x2]
    5184                      .dwattr $C$DW$596, DW_AT_accessibility(DW_ACCESS_public)
    5185              $C$DW$597       .dwtag  DW_TAG_member
    5186                      .dwattr $C$DW$597, DW_AT_type(*$C$DW$T$22)
    5187                      .dwattr $C$DW$597, DW_AT_name("FSTATUS")
    5188                      .dwattr $C$DW$597, DW_AT_TI_symbol_name("_FSTATUS")
    5189                      .dwattr $C$DW$597, DW_AT_data_member_location[DW_OP_plus_uconst 0x3]
    5190                      .dwattr $C$DW$597, DW_AT_accessibility(DW_ACCESS_public)
    5191              $C$DW$598       .dwtag  DW_TAG_member
    5192                      .dwattr $C$DW$598, DW_AT_type(*$C$DW$T$22)
    5193                      .dwattr $C$DW$598, DW_AT_name("FSTDBYWAIT")
    5194                      .dwattr $C$DW$598, DW_AT_TI_symbol_name("_FSTDBYWAIT")
TMS320C2000 Assembler PC v6.2.5 Wed Nov 22 14:48:16 2017

Tools Copyright (c) 1996-2014 Texas Instruments Incorporated
C:\Users\wmj\AppData\Local\Temp\0222411                              PAGE   99

    5195                      .dwattr $C$DW$598, DW_AT_data_member_location[DW_OP_plus_uconst 0x4]
    5196                      .dwattr $C$DW$598, DW_AT_accessibility(DW_ACCESS_public)
    5197              $C$DW$599       .dwtag  DW_TAG_member
    5198                      .dwattr $C$DW$599, DW_AT_type(*$C$DW$T$22)
    5199                      .dwattr $C$DW$599, DW_AT_name("FACTIVEWAIT")
    5200                      .dwattr $C$DW$599, DW_AT_TI_symbol_name("_FACTIVEWAIT")
    5201                      .dwattr $C$DW$599, DW_AT_data_member_location[DW_OP_plus_uconst 0x5]
    5202                      .dwattr $C$DW$599, DW_AT_accessibility(DW_ACCESS_public)
    5203              $C$DW$600       .dwtag  DW_TAG_member
    5204                      .dwattr $C$DW$600, DW_AT_type(*$C$DW$T$22)
    5205                      .dwattr $C$DW$600, DW_AT_name("FBANKWAIT")
    5206                      .dwattr $C$DW$600, DW_AT_TI_symbol_name("_FBANKWAIT")
    5207                      .dwattr $C$DW$600, DW_AT_data_member_location[DW_OP_plus_uconst 0x6]
    5208                      .dwattr $C$DW$600, DW_AT_accessibility(DW_ACCESS_public)
    5209              $C$DW$601       .dwtag  DW_TAG_member
    5210                      .dwattr $C$DW$601, DW_AT_type(*$C$DW$T$22)
    5211                      .dwattr $C$DW$601, DW_AT_name("FOTPWAIT")
    5212                      .dwattr $C$DW$601, DW_AT_TI_symbol_name("_FOTPWAIT")
    5213                      .dwattr $C$DW$601, DW_AT_data_member_location[DW_OP_plus_uconst 0x7]
    5214                      .dwattr $C$DW$601, DW_AT_accessibility(DW_ACCESS_public)
    5215                      .dwendtag $C$DW$T$39
    5216              
    5217              $C$DW$T$85      .dwtag  DW_TAG_pointer_type
    5218                      .dwattr $C$DW$T$85, DW_AT_type(*$C$DW$T$39)
    5219                      .dwattr $C$DW$T$85, DW_AT_address_class(0x16)
    5220              $C$DW$T$86      .dwtag  DW_TAG_typedef, DW_AT_name("FLASH_Handle")
    5221                      .dwattr $C$DW$T$86, DW_AT_type(*$C$DW$T$85)
    5222                      .dwattr $C$DW$T$86, DW_AT_language(DW_LANG_C)
    5223              
    5224              $C$DW$T$60      .dwtag  DW_TAG_structure_type
    5225                      .dwattr $C$DW$T$60, DW_AT_name("_FSM_Obj_")
    5226                      .dwattr $C$DW$T$60, DW_AT_byte_size(0x26)
    5227              $C$DW$602       .dwtag  DW_TAG_member
    5228                      .dwattr $C$DW$602, DW_AT_type(*$C$DW$T$41)
    5229                      .dwattr $C$DW$602, DW_AT_name("motorHandle")
    5230                      .dwattr $C$DW$602, DW_AT_TI_symbol_name("_motorHandle")
    5231                      .dwattr $C$DW$602, DW_AT_data_member_location[DW_OP_plus_uconst 0x0]
    5232                      .dwattr $C$DW$602, DW_AT_accessibility(DW_ACCESS_public)
    5233              $C$DW$603       .dwtag  DW_TAG_member
    5234                      .dwattr $C$DW$603, DW_AT_type(*$C$DW$T$43)
    5235                      .dwattr $C$DW$603, DW_AT_name("halHandle")
    5236                      .dwattr $C$DW$603, DW_AT_TI_symbol_name("_halHandle")
    5237                      .dwattr $C$DW$603, DW_AT_data_member_location[DW_OP_plus_uconst 0x2]
    5238                      .dwattr $C$DW$603, DW_AT_accessibility(DW_ACCESS_public)
    5239              $C$DW$604       .dwtag  DW_TAG_member
    5240                      .dwattr $C$DW$604, DW_AT_type(*$C$DW$T$45)
    5241                      .dwattr $C$DW$604, DW_AT_name("StBoxHandle")
    5242                      .dwattr $C$DW$604, DW_AT_TI_symbol_name("_StBoxHandle")
    5243                      .dwattr $C$DW$604, DW_AT_data_member_location[DW_OP_plus_uconst 0x4]
    5244                      .dwattr $C$DW$604, DW_AT_accessibility(DW_ACCESS_public)
    5245              $C$DW$605       .dwtag  DW_TAG_member
    5246                      .dwattr $C$DW$605, DW_AT_type(*$C$DW$T$47)
    5247                      .dwattr $C$DW$605, DW_AT_name("FSM_State")
    5248                      .dwattr $C$DW$605, DW_AT_TI_symbol_name("_FSM_State")
    5249                      .dwattr $C$DW$605, DW_AT_data_member_location[DW_OP_plus_uconst 0x6]
TMS320C2000 Assembler PC v6.2.5 Wed Nov 22 14:48:16 2017

Tools Copyright (c) 1996-2014 Texas Instruments Incorporated
C:\Users\wmj\AppData\Local\Temp\0222411                              PAGE  100

    5250                      .dwattr $C$DW$605, DW_AT_accessibility(DW_ACCESS_public)
    5251              $C$DW$606       .dwtag  DW_TAG_member
    5252                      .dwattr $C$DW$606, DW_AT_type(*$C$DW$T$47)
    5253                      .dwattr $C$DW$606, DW_AT_name("FSM_CurState")
    5254                      .dwattr $C$DW$606, DW_AT_TI_symbol_name("_FSM_CurState")
    5255                      .dwattr $C$DW$606, DW_AT_data_member_location[DW_OP_plus_uconst 0x7]
    5256                      .dwattr $C$DW$606, DW_AT_accessibility(DW_ACCESS_public)
    5257              $C$DW$607       .dwtag  DW_TAG_member
    5258                      .dwattr $C$DW$607, DW_AT_type(*$C$DW$T$49)
    5259                      .dwattr $C$DW$607, DW_AT_name("FSM_Trans")
    5260                      .dwattr $C$DW$607, DW_AT_TI_symbol_name("_FSM_Trans")
    5261                      .dwattr $C$DW$607, DW_AT_data_member_location[DW_OP_plus_uconst 0x8]
    5262                      .dwattr $C$DW$607, DW_AT_accessibility(DW_ACCESS_public)
    5263              $C$DW$608       .dwtag  DW_TAG_member
    5264                      .dwattr $C$DW$608, DW_AT_type(*$C$DW$T$51)
    5265                      .dwattr $C$DW$608, DW_AT_name("FSM_Event")
    5266                      .dwattr $C$DW$608, DW_AT_TI_symbol_name("_FSM_Event")
    5267                      .dwattr $C$DW$608, DW_AT_data_member_location[DW_OP_plus_uconst 0x9]
    5268                      .dwattr $C$DW$608, DW_AT_accessibility(DW_ACCESS_public)
    5269              $C$DW$609       .dwtag  DW_TAG_member
    5270                      .dwattr $C$DW$609, DW_AT_type(*$C$DW$T$53)
    5271                      .dwattr $C$DW$609, DW_AT_name("FSM_StMode")
    5272                      .dwattr $C$DW$609, DW_AT_TI_symbol_name("_FSM_StMode")
    5273                      .dwattr $C$DW$609, DW_AT_data_member_location[DW_OP_plus_uconst 0xa]
    5274                      .dwattr $C$DW$609, DW_AT_accessibility(DW_ACCESS_public)
    5275              $C$DW$610       .dwtag  DW_TAG_member
    5276                      .dwattr $C$DW$610, DW_AT_type(*$C$DW$T$21)
    5277                      .dwattr $C$DW$610, DW_AT_name("FSM_ErrFlg")
    5278                      .dwattr $C$DW$610, DW_AT_TI_symbol_name("_FSM_ErrFlg")
    5279                      .dwattr $C$DW$610, DW_AT_data_member_location[DW_OP_plus_uconst 0xb]
    5280                      .dwattr $C$DW$610, DW_AT_accessibility(DW_ACCESS_public)
    5281              $C$DW$611       .dwtag  DW_TAG_member
    5282                      .dwattr $C$DW$611, DW_AT_type(*$C$DW$T$21)
    5283                      .dwattr $C$DW$611, DW_AT_name("FSM_ErrMask")
    5284                      .dwattr $C$DW$611, DW_AT_TI_symbol_name("_FSM_ErrMask")
    5285                      .dwattr $C$DW$611, DW_AT_data_member_location[DW_OP_plus_uconst 0xc]
    5286                      .dwattr $C$DW$611, DW_AT_accessibility(DW_ACCESS_public)
    5287              $C$DW$612       .dwtag  DW_TAG_member
    5288                      .dwattr $C$DW$612, DW_AT_type(*$C$DW$T$21)
    5289                      .dwattr $C$DW$612, DW_AT_name("FSM_runTime")
    5290                      .dwattr $C$DW$612, DW_AT_TI_symbol_name("_FSM_runTime")
    5291                      .dwattr $C$DW$612, DW_AT_data_member_location[DW_OP_plus_uconst 0xd]
    5292                      .dwattr $C$DW$612, DW_AT_accessibility(DW_ACCESS_public)
    5293              $C$DW$613       .dwtag  DW_TAG_member
    5294                      .dwattr $C$DW$613, DW_AT_type(*$C$DW$T$21)
    5295                      .dwattr $C$DW$613, DW_AT_name("FSM_485Cmd")
    5296                      .dwattr $C$DW$613, DW_AT_TI_symbol_name("_FSM_485Cmd")
    5297                      .dwattr $C$DW$613, DW_AT_data_member_location[DW_OP_plus_uconst 0xe]
    5298                      .dwattr $C$DW$613, DW_AT_accessibility(DW_ACCESS_public)
    5299              $C$DW$614       .dwtag  DW_TAG_member
    5300                      .dwattr $C$DW$614, DW_AT_type(*$C$DW$T$47)
    5301                      .dwattr $C$DW$614, DW_AT_name("FSM_485EditState")
    5302                      .dwattr $C$DW$614, DW_AT_TI_symbol_name("_FSM_485EditState")
    5303                      .dwattr $C$DW$614, DW_AT_data_member_location[DW_OP_plus_uconst 0xf]
    5304                      .dwattr $C$DW$614, DW_AT_accessibility(DW_ACCESS_public)
TMS320C2000 Assembler PC v6.2.5 Wed Nov 22 14:48:16 2017

Tools Copyright (c) 1996-2014 Texas Instruments Incorporated
C:\Users\wmj\AppData\Local\Temp\0222411                              PAGE  101

    5305              $C$DW$615       .dwtag  DW_TAG_member
    5306                      .dwattr $C$DW$615, DW_AT_type(*$C$DW$T$55)
    5307                      .dwattr $C$DW$615, DW_AT_name("FSM_485EditOpt")
    5308                      .dwattr $C$DW$615, DW_AT_TI_symbol_name("_FSM_485EditOpt")
    5309                      .dwattr $C$DW$615, DW_AT_data_member_location[DW_OP_plus_uconst 0x10]
    5310                      .dwattr $C$DW$615, DW_AT_accessibility(DW_ACCESS_public)
    5311              $C$DW$616       .dwtag  DW_TAG_member
    5312                      .dwattr $C$DW$616, DW_AT_type(*$C$DW$T$21)
    5313                      .dwattr $C$DW$616, DW_AT_name("FSM_485RefSpeed")
    5314                      .dwattr $C$DW$616, DW_AT_TI_symbol_name("_FSM_485RefSpeed")
    5315                      .dwattr $C$DW$616, DW_AT_data_member_location[DW_OP_plus_uconst 0x11]
    5316                      .dwattr $C$DW$616, DW_AT_accessibility(DW_ACCESS_public)
    5317              $C$DW$617       .dwtag  DW_TAG_member
    5318                      .dwattr $C$DW$617, DW_AT_type(*$C$DW$T$37)
    5319                      .dwattr $C$DW$617, DW_AT_name("MaxTorque_Nm")
    5320                      .dwattr $C$DW$617, DW_AT_TI_symbol_name("_MaxTorque_Nm")
    5321                      .dwattr $C$DW$617, DW_AT_data_member_location[DW_OP_plus_uconst 0x12]
    5322                      .dwattr $C$DW$617, DW_AT_accessibility(DW_ACCESS_public)
    5323              $C$DW$618       .dwtag  DW_TAG_member
    5324                      .dwattr $C$DW$618, DW_AT_type(*$C$DW$T$57)
    5325                      .dwattr $C$DW$618, DW_AT_name("FSM_CheckCond")
    5326                      .dwattr $C$DW$618, DW_AT_TI_symbol_name("_FSM_CheckCond")
    5327                      .dwattr $C$DW$618, DW_AT_data_member_location[DW_OP_plus_uconst 0x14]
    5328                      .dwattr $C$DW$618, DW_AT_accessibility(DW_ACCESS_public)
    5329              $C$DW$619       .dwtag  DW_TAG_member
    5330                      .dwattr $C$DW$619, DW_AT_type(*$C$DW$T$21)
    5331                      .dwattr $C$DW$619, DW_AT_name("FSM_CondValue")
    5332                      .dwattr $C$DW$619, DW_AT_TI_symbol_name("_FSM_CondValue")
    5333                      .dwattr $C$DW$619, DW_AT_data_member_location[DW_OP_plus_uconst 0x15]
    5334                      .dwattr $C$DW$619, DW_AT_accessibility(DW_ACCESS_public)
    5335              $C$DW$620       .dwtag  DW_TAG_member
    5336                      .dwattr $C$DW$620, DW_AT_type(*$C$DW$T$58)
    5337                      .dwattr $C$DW$620, DW_AT_name("OldAbsPos")
    5338                      .dwattr $C$DW$620, DW_AT_TI_symbol_name("_OldAbsPos")
    5339                      .dwattr $C$DW$620, DW_AT_data_member_location[DW_OP_plus_uconst 0x16]
    5340                      .dwattr $C$DW$620, DW_AT_accessibility(DW_ACCESS_public)
    5341              $C$DW$621       .dwtag  DW_TAG_member
    5342                      .dwattr $C$DW$621, DW_AT_type(*$C$DW$T$58)
    5343                      .dwattr $C$DW$621, DW_AT_name("NewAbsPos")
    5344                      .dwattr $C$DW$621, DW_AT_TI_symbol_name("_NewAbsPos")
    5345                      .dwattr $C$DW$621, DW_AT_data_member_location[DW_OP_plus_uconst 0x1a]
    5346                      .dwattr $C$DW$621, DW_AT_accessibility(DW_ACCESS_public)
    5347              $C$DW$622       .dwtag  DW_TAG_member
    5348                      .dwattr $C$DW$622, DW_AT_type(*$C$DW$T$59)
    5349                      .dwattr $C$DW$622, DW_AT_name("Flag_485StartMotor")
    5350                      .dwattr $C$DW$622, DW_AT_TI_symbol_name("_Flag_485StartMotor")
    5351                      .dwattr $C$DW$622, DW_AT_data_member_location[DW_OP_plus_uconst 0x1e]
    5352                      .dwattr $C$DW$622, DW_AT_accessibility(DW_ACCESS_public)
    5353              $C$DW$623       .dwtag  DW_TAG_member
    5354                      .dwattr $C$DW$623, DW_AT_type(*$C$DW$T$59)
    5355                      .dwattr $C$DW$623, DW_AT_name("Flag_MaxTimeLimit")
    5356                      .dwattr $C$DW$623, DW_AT_TI_symbol_name("_Flag_MaxTimeLimit")
    5357                      .dwattr $C$DW$623, DW_AT_data_member_location[DW_OP_plus_uconst 0x1f]
    5358                      .dwattr $C$DW$623, DW_AT_accessibility(DW_ACCESS_public)
    5359              $C$DW$624       .dwtag  DW_TAG_member
TMS320C2000 Assembler PC v6.2.5 Wed Nov 22 14:48:16 2017

Tools Copyright (c) 1996-2014 Texas Instruments Incorporated
C:\Users\wmj\AppData\Local\Temp\0222411                              PAGE  102

    5360                      .dwattr $C$DW$624, DW_AT_type(*$C$DW$T$59)
    5361                      .dwattr $C$DW$624, DW_AT_name("runTime_Enable")
    5362                      .dwattr $C$DW$624, DW_AT_TI_symbol_name("_runTime_Enable")
    5363                      .dwattr $C$DW$624, DW_AT_data_member_location[DW_OP_plus_uconst 0x20]
    5364                      .dwattr $C$DW$624, DW_AT_accessibility(DW_ACCESS_public)
    5365              $C$DW$625       .dwtag  DW_TAG_member
    5366                      .dwattr $C$DW$625, DW_AT_type(*$C$DW$T$59)
    5367                      .dwattr $C$DW$625, DW_AT_name("Flag_StallEnable")
    5368                      .dwattr $C$DW$625, DW_AT_TI_symbol_name("_Flag_StallEnable")
    5369                      .dwattr $C$DW$625, DW_AT_data_member_location[DW_OP_plus_uconst 0x21]
    5370                      .dwattr $C$DW$625, DW_AT_accessibility(DW_ACCESS_public)
    5371              $C$DW$626       .dwtag  DW_TAG_member
    5372                      .dwattr $C$DW$626, DW_AT_type(*$C$DW$T$59)
    5373                      .dwattr $C$DW$626, DW_AT_name("Flag_ReportState")
    5374                      .dwattr $C$DW$626, DW_AT_TI_symbol_name("_Flag_ReportState")
    5375                      .dwattr $C$DW$626, DW_AT_data_member_location[DW_OP_plus_uconst 0x22]
    5376                      .dwattr $C$DW$626, DW_AT_accessibility(DW_ACCESS_public)
    5377              $C$DW$627       .dwtag  DW_TAG_member
    5378                      .dwattr $C$DW$627, DW_AT_type(*$C$DW$T$59)
    5379                      .dwattr $C$DW$627, DW_AT_name("Flag_RunMode")
    5380                      .dwattr $C$DW$627, DW_AT_TI_symbol_name("_Flag_RunMode")
    5381                      .dwattr $C$DW$627, DW_AT_data_member_location[DW_OP_plus_uconst 0x23]
    5382                      .dwattr $C$DW$627, DW_AT_accessibility(DW_ACCESS_public)
    5383              $C$DW$628       .dwtag  DW_TAG_member
    5384                      .dwattr $C$DW$628, DW_AT_type(*$C$DW$T$59)
    5385                      .dwattr $C$DW$628, DW_AT_name("Flag_DcBrake")
    5386                      .dwattr $C$DW$628, DW_AT_TI_symbol_name("_Flag_DcBrake")
    5387                      .dwattr $C$DW$628, DW_AT_data_member_location[DW_OP_plus_uconst 0x24]
    5388                      .dwattr $C$DW$628, DW_AT_accessibility(DW_ACCESS_public)
    5389                      .dwendtag $C$DW$T$60
    5390              
    5391              $C$DW$T$193     .dwtag  DW_TAG_typedef, DW_AT_name("FSM_Obj")
    5392                      .dwattr $C$DW$T$193, DW_AT_type(*$C$DW$T$60)
    5393                      .dwattr $C$DW$T$193, DW_AT_language(DW_LANG_C)
    5394              $C$DW$T$194     .dwtag  DW_TAG_pointer_type
    5395                      .dwattr $C$DW$T$194, DW_AT_type(*$C$DW$T$193)
    5396                      .dwattr $C$DW$T$194, DW_AT_address_class(0x16)
    5397              $C$DW$T$120     .dwtag  DW_TAG_pointer_type
    5398                      .dwattr $C$DW$T$120, DW_AT_type(*$C$DW$T$60)
    5399                      .dwattr $C$DW$T$120, DW_AT_address_class(0x16)
    5400              $C$DW$T$121     .dwtag  DW_TAG_typedef, DW_AT_name("FSM_Handle")
    5401                      .dwattr $C$DW$T$121, DW_AT_type(*$C$DW$T$120)
    5402                      .dwattr $C$DW$T$121, DW_AT_language(DW_LANG_C)
    5403              $C$DW$629       .dwtag  DW_TAG_TI_far_type
    5404                      .dwattr $C$DW$629, DW_AT_type(*$C$DW$T$121)
    5405              $C$DW$T$195     .dwtag  DW_TAG_const_type
    5406                      .dwattr $C$DW$T$195, DW_AT_type(*$C$DW$629)
    5407              
    5408              $C$DW$T$62      .dwtag  DW_TAG_structure_type
    5409                      .dwattr $C$DW$T$62, DW_AT_name("_FSM_Position_t_")
    5410                      .dwattr $C$DW$T$62, DW_AT_byte_size(0x04)
    5411              $C$DW$630       .dwtag  DW_TAG_member
    5412                      .dwattr $C$DW$630, DW_AT_type(*$C$DW$T$61)
    5413                      .dwattr $C$DW$630, DW_AT_name("PosInt_MRev")
    5414                      .dwattr $C$DW$630, DW_AT_TI_symbol_name("_PosInt_MRev")
TMS320C2000 Assembler PC v6.2.5 Wed Nov 22 14:48:16 2017

Tools Copyright (c) 1996-2014 Texas Instruments Incorporated
C:\Users\wmj\AppData\Local\Temp\0222411                              PAGE  103

    5415                      .dwattr $C$DW$630, DW_AT_data_member_location[DW_OP_plus_uconst 0x0]
    5416                      .dwattr $C$DW$630, DW_AT_accessibility(DW_ACCESS_public)
    5417              $C$DW$631       .dwtag  DW_TAG_member
    5418                      .dwattr $C$DW$631, DW_AT_type(*$C$DW$T$37)
    5419                      .dwattr $C$DW$631, DW_AT_name("PosFrac_MRev")
    5420                      .dwattr $C$DW$631, DW_AT_TI_symbol_name("_PosFrac_MRev")
    5421                      .dwattr $C$DW$631, DW_AT_data_member_location[DW_OP_plus_uconst 0x2]
    5422                      .dwattr $C$DW$631, DW_AT_accessibility(DW_ACCESS_public)
    5423                      .dwendtag $C$DW$T$62
    5424              
    5425              $C$DW$T$58      .dwtag  DW_TAG_typedef, DW_AT_name("FSM_Position_t")
    5426                      .dwattr $C$DW$T$58, DW_AT_type(*$C$DW$T$62)
    5427                      .dwattr $C$DW$T$58, DW_AT_language(DW_LANG_C)
    5428              
    5429              $C$DW$T$71      .dwtag  DW_TAG_structure_type
    5430                      .dwattr $C$DW$T$71, DW_AT_name("_FSM_StatePool_t_")
    5431                      .dwattr $C$DW$T$71, DW_AT_byte_size(0x4b)
    5432              $C$DW$632       .dwtag  DW_TAG_member
    5433                      .dwattr $C$DW$632, DW_AT_type(*$C$DW$T$64)
    5434                      .dwattr $C$DW$632, DW_AT_name("FSM_RefSpeed")
    5435                      .dwattr $C$DW$632, DW_AT_TI_symbol_name("_FSM_RefSpeed")
    5436                      .dwattr $C$DW$632, DW_AT_data_member_location[DW_OP_plus_uconst 0x0]
    5437                      .dwattr $C$DW$632, DW_AT_accessibility(DW_ACCESS_public)
    5438              $C$DW$633       .dwtag  DW_TAG_member
    5439                      .dwattr $C$DW$633, DW_AT_type(*$C$DW$T$65)
    5440                      .dwattr $C$DW$633, DW_AT_name("FSM_CondValue")
    5441                      .dwattr $C$DW$633, DW_AT_TI_symbol_name("_FSM_CondValue")
    5442                      .dwattr $C$DW$633, DW_AT_data_member_location[DW_OP_plus_uconst 0xf]
    5443                      .dwattr $C$DW$633, DW_AT_accessibility(DW_ACCESS_public)
    5444              $C$DW$634       .dwtag  DW_TAG_member
    5445                      .dwattr $C$DW$634, DW_AT_type(*$C$DW$T$66)
    5446                      .dwattr $C$DW$634, DW_AT_name("FSM_Condition")
    5447                      .dwattr $C$DW$634, DW_AT_TI_symbol_name("_FSM_Condition")
    5448                      .dwattr $C$DW$634, DW_AT_data_member_location[DW_OP_plus_uconst 0x1e]
    5449                      .dwattr $C$DW$634, DW_AT_accessibility(DW_ACCESS_public)
    5450              $C$DW$635       .dwtag  DW_TAG_member
    5451                      .dwattr $C$DW$635, DW_AT_type(*$C$DW$T$69)
    5452                      .dwattr $C$DW$635, DW_AT_name("FSM_RunAction")
    5453                      .dwattr $C$DW$635, DW_AT_TI_symbol_name("_FSM_RunAction")
    5454                      .dwattr $C$DW$635, DW_AT_data_member_location[DW_OP_plus_uconst 0x2d]
    5455                      .dwattr $C$DW$635, DW_AT_accessibility(DW_ACCESS_public)
    5456              $C$DW$636       .dwtag  DW_TAG_member
    5457                      .dwattr $C$DW$636, DW_AT_type(*$C$DW$T$70)
    5458                      .dwattr $C$DW$636, DW_AT_name("FSM_NextState")
    5459                      .dwattr $C$DW$636, DW_AT_TI_symbol_name("_FSM_NextState")
    5460                      .dwattr $C$DW$636, DW_AT_data_member_location[DW_OP_plus_uconst 0x3c]
    5461                      .dwattr $C$DW$636, DW_AT_accessibility(DW_ACCESS_public)
    5462                      .dwendtag $C$DW$T$71
    5463              
    5464              $C$DW$T$44      .dwtag  DW_TAG_pointer_type
    5465                      .dwattr $C$DW$T$44, DW_AT_type(*$C$DW$T$71)
    5466                      .dwattr $C$DW$T$44, DW_AT_address_class(0x16)
    5467              $C$DW$T$45      .dwtag  DW_TAG_typedef, DW_AT_name("StPool_Handle")
    5468                      .dwattr $C$DW$T$45, DW_AT_type(*$C$DW$T$44)
    5469                      .dwattr $C$DW$T$45, DW_AT_language(DW_LANG_C)
TMS320C2000 Assembler PC v6.2.5 Wed Nov 22 14:48:16 2017

Tools Copyright (c) 1996-2014 Texas Instruments Incorporated
C:\Users\wmj\AppData\Local\Temp\0222411                              PAGE  104

    5470              
    5471              $C$DW$T$76      .dwtag  DW_TAG_structure_type
    5472                      .dwattr $C$DW$T$76, DW_AT_name("_GPIO_Obj_")
    5473                      .dwattr $C$DW$T$76, DW_AT_byte_size(0x6a)
    5474              $C$DW$637       .dwtag  DW_TAG_member
    5475                      .dwattr $C$DW$637, DW_AT_type(*$C$DW$T$73)
    5476                      .dwattr $C$DW$637, DW_AT_name("GPACTRL")
    5477                      .dwattr $C$DW$637, DW_AT_TI_symbol_name("_GPACTRL")
    5478                      .dwattr $C$DW$637, DW_AT_data_member_location[DW_OP_plus_uconst 0x0]
    5479                      .dwattr $C$DW$637, DW_AT_accessibility(DW_ACCESS_public)
    5480              $C$DW$638       .dwtag  DW_TAG_member
    5481                      .dwattr $C$DW$638, DW_AT_type(*$C$DW$T$73)
    5482                      .dwattr $C$DW$638, DW_AT_name("GPAQSEL1")
    5483                      .dwattr $C$DW$638, DW_AT_TI_symbol_name("_GPAQSEL1")
    5484                      .dwattr $C$DW$638, DW_AT_data_member_location[DW_OP_plus_uconst 0x2]
    5485                      .dwattr $C$DW$638, DW_AT_accessibility(DW_ACCESS_public)
    5486              $C$DW$639       .dwtag  DW_TAG_member
    5487                      .dwattr $C$DW$639, DW_AT_type(*$C$DW$T$73)
    5488                      .dwattr $C$DW$639, DW_AT_name("GPAQSEL2")
    5489                      .dwattr $C$DW$639, DW_AT_TI_symbol_name("_GPAQSEL2")
    5490                      .dwattr $C$DW$639, DW_AT_data_member_location[DW_OP_plus_uconst 0x4]
    5491                      .dwattr $C$DW$639, DW_AT_accessibility(DW_ACCESS_public)
    5492              $C$DW$640       .dwtag  DW_TAG_member
    5493                      .dwattr $C$DW$640, DW_AT_type(*$C$DW$T$73)
    5494                      .dwattr $C$DW$640, DW_AT_name("GPAMUX1")
    5495                      .dwattr $C$DW$640, DW_AT_TI_symbol_name("_GPAMUX1")
    5496                      .dwattr $C$DW$640, DW_AT_data_member_location[DW_OP_plus_uconst 0x6]
    5497                      .dwattr $C$DW$640, DW_AT_accessibility(DW_ACCESS_public)
    5498              $C$DW$641       .dwtag  DW_TAG_member
    5499                      .dwattr $C$DW$641, DW_AT_type(*$C$DW$T$73)
    5500                      .dwattr $C$DW$641, DW_AT_name("GPAMUX2")
    5501                      .dwattr $C$DW$641, DW_AT_TI_symbol_name("_GPAMUX2")
    5502                      .dwattr $C$DW$641, DW_AT_data_member_location[DW_OP_plus_uconst 0x8]
    5503                      .dwattr $C$DW$641, DW_AT_accessibility(DW_ACCESS_public)
    5504              $C$DW$642       .dwtag  DW_TAG_member
    5505                      .dwattr $C$DW$642, DW_AT_type(*$C$DW$T$73)
    5506                      .dwattr $C$DW$642, DW_AT_name("GPADIR")
    5507                      .dwattr $C$DW$642, DW_AT_TI_symbol_name("_GPADIR")
    5508                      .dwattr $C$DW$642, DW_AT_data_member_location[DW_OP_plus_uconst 0xa]
    5509                      .dwattr $C$DW$642, DW_AT_accessibility(DW_ACCESS_public)
    5510              $C$DW$643       .dwtag  DW_TAG_member
    5511                      .dwattr $C$DW$643, DW_AT_type(*$C$DW$T$73)
    5512                      .dwattr $C$DW$643, DW_AT_name("GPAPUD")
    5513                      .dwattr $C$DW$643, DW_AT_TI_symbol_name("_GPAPUD")
    5514                      .dwattr $C$DW$643, DW_AT_data_member_location[DW_OP_plus_uconst 0xc]
    5515                      .dwattr $C$DW$643, DW_AT_accessibility(DW_ACCESS_public)
    5516              $C$DW$644       .dwtag  DW_TAG_member
    5517                      .dwattr $C$DW$644, DW_AT_type(*$C$DW$T$25)
    5518                      .dwattr $C$DW$644, DW_AT_name("rsvd_1")
    5519                      .dwattr $C$DW$644, DW_AT_TI_symbol_name("_rsvd_1")
    5520                      .dwattr $C$DW$644, DW_AT_data_member_location[DW_OP_plus_uconst 0xe]
    5521                      .dwattr $C$DW$644, DW_AT_accessibility(DW_ACCESS_public)
    5522              $C$DW$645       .dwtag  DW_TAG_member
    5523                      .dwattr $C$DW$645, DW_AT_type(*$C$DW$T$73)
    5524                      .dwattr $C$DW$645, DW_AT_name("GPBCTRL")
TMS320C2000 Assembler PC v6.2.5 Wed Nov 22 14:48:16 2017

Tools Copyright (c) 1996-2014 Texas Instruments Incorporated
C:\Users\wmj\AppData\Local\Temp\0222411                              PAGE  105

    5525                      .dwattr $C$DW$645, DW_AT_TI_symbol_name("_GPBCTRL")
    5526                      .dwattr $C$DW$645, DW_AT_data_member_location[DW_OP_plus_uconst 0x10]
    5527                      .dwattr $C$DW$645, DW_AT_accessibility(DW_ACCESS_public)
    5528              $C$DW$646       .dwtag  DW_TAG_member
    5529                      .dwattr $C$DW$646, DW_AT_type(*$C$DW$T$73)
    5530                      .dwattr $C$DW$646, DW_AT_name("GPBQSEL1")
    5531                      .dwattr $C$DW$646, DW_AT_TI_symbol_name("_GPBQSEL1")
    5532                      .dwattr $C$DW$646, DW_AT_data_member_location[DW_OP_plus_uconst 0x12]
    5533                      .dwattr $C$DW$646, DW_AT_accessibility(DW_ACCESS_public)
    5534              $C$DW$647       .dwtag  DW_TAG_member
    5535                      .dwattr $C$DW$647, DW_AT_type(*$C$DW$T$25)
    5536                      .dwattr $C$DW$647, DW_AT_name("rsvd_2")
    5537                      .dwattr $C$DW$647, DW_AT_TI_symbol_name("_rsvd_2")
    5538                      .dwattr $C$DW$647, DW_AT_data_member_location[DW_OP_plus_uconst 0x14]
    5539                      .dwattr $C$DW$647, DW_AT_accessibility(DW_ACCESS_public)
    5540              $C$DW$648       .dwtag  DW_TAG_member
    5541                      .dwattr $C$DW$648, DW_AT_type(*$C$DW$T$73)
    5542                      .dwattr $C$DW$648, DW_AT_name("GPBMUX1")
    5543                      .dwattr $C$DW$648, DW_AT_TI_symbol_name("_GPBMUX1")
    5544                      .dwattr $C$DW$648, DW_AT_data_member_location[DW_OP_plus_uconst 0x16]
    5545                      .dwattr $C$DW$648, DW_AT_accessibility(DW_ACCESS_public)
    5546              $C$DW$649       .dwtag  DW_TAG_member
    5547                      .dwattr $C$DW$649, DW_AT_type(*$C$DW$T$25)
    5548                      .dwattr $C$DW$649, DW_AT_name("rsvd_3")
    5549                      .dwattr $C$DW$649, DW_AT_TI_symbol_name("_rsvd_3")
    5550                      .dwattr $C$DW$649, DW_AT_data_member_location[DW_OP_plus_uconst 0x18]
    5551                      .dwattr $C$DW$649, DW_AT_accessibility(DW_ACCESS_public)
    5552              $C$DW$650       .dwtag  DW_TAG_member
    5553                      .dwattr $C$DW$650, DW_AT_type(*$C$DW$T$73)
    5554                      .dwattr $C$DW$650, DW_AT_name("GPBDIR")
    5555                      .dwattr $C$DW$650, DW_AT_TI_symbol_name("_GPBDIR")
    5556                      .dwattr $C$DW$650, DW_AT_data_member_location[DW_OP_plus_uconst 0x1a]
    5557                      .dwattr $C$DW$650, DW_AT_accessibility(DW_ACCESS_public)
    5558              $C$DW$651       .dwtag  DW_TAG_member
    5559                      .dwattr $C$DW$651, DW_AT_type(*$C$DW$T$73)
    5560                      .dwattr $C$DW$651, DW_AT_name("GPBPUD")
    5561                      .dwattr $C$DW$651, DW_AT_TI_symbol_name("_GPBPUD")
    5562                      .dwattr $C$DW$651, DW_AT_data_member_location[DW_OP_plus_uconst 0x1c]
    5563                      .dwattr $C$DW$651, DW_AT_accessibility(DW_ACCESS_public)
    5564              $C$DW$652       .dwtag  DW_TAG_member
    5565                      .dwattr $C$DW$652, DW_AT_type(*$C$DW$T$74)
    5566                      .dwattr $C$DW$652, DW_AT_name("rsvd_4")
    5567                      .dwattr $C$DW$652, DW_AT_TI_symbol_name("_rsvd_4")
    5568                      .dwattr $C$DW$652, DW_AT_data_member_location[DW_OP_plus_uconst 0x1e]
    5569                      .dwattr $C$DW$652, DW_AT_accessibility(DW_ACCESS_public)
    5570              $C$DW$653       .dwtag  DW_TAG_member
    5571                      .dwattr $C$DW$653, DW_AT_type(*$C$DW$T$73)
    5572                      .dwattr $C$DW$653, DW_AT_name("AIOMUX1")
    5573                      .dwattr $C$DW$653, DW_AT_TI_symbol_name("_AIOMUX1")
    5574                      .dwattr $C$DW$653, DW_AT_data_member_location[DW_OP_plus_uconst 0x36]
    5575                      .dwattr $C$DW$653, DW_AT_accessibility(DW_ACCESS_public)
    5576              $C$DW$654       .dwtag  DW_TAG_member
    5577                      .dwattr $C$DW$654, DW_AT_type(*$C$DW$T$25)
    5578                      .dwattr $C$DW$654, DW_AT_name("rsvd_5")
    5579                      .dwattr $C$DW$654, DW_AT_TI_symbol_name("_rsvd_5")
TMS320C2000 Assembler PC v6.2.5 Wed Nov 22 14:48:16 2017

Tools Copyright (c) 1996-2014 Texas Instruments Incorporated
C:\Users\wmj\AppData\Local\Temp\0222411                              PAGE  106

    5580                      .dwattr $C$DW$654, DW_AT_data_member_location[DW_OP_plus_uconst 0x38]
    5581                      .dwattr $C$DW$654, DW_AT_accessibility(DW_ACCESS_public)
    5582              $C$DW$655       .dwtag  DW_TAG_member
    5583                      .dwattr $C$DW$655, DW_AT_type(*$C$DW$T$73)
    5584                      .dwattr $C$DW$655, DW_AT_name("AIODIR")
    5585                      .dwattr $C$DW$655, DW_AT_TI_symbol_name("_AIODIR")
    5586                      .dwattr $C$DW$655, DW_AT_data_member_location[DW_OP_plus_uconst 0x3a]
    5587                      .dwattr $C$DW$655, DW_AT_accessibility(DW_ACCESS_public)
    5588              $C$DW$656       .dwtag  DW_TAG_member
    5589                      .dwattr $C$DW$656, DW_AT_type(*$C$DW$T$75)
    5590                      .dwattr $C$DW$656, DW_AT_name("rsvd_6")
    5591                      .dwattr $C$DW$656, DW_AT_TI_symbol_name("_rsvd_6")
    5592                      .dwattr $C$DW$656, DW_AT_data_member_location[DW_OP_plus_uconst 0x3c]
    5593                      .dwattr $C$DW$656, DW_AT_accessibility(DW_ACCESS_public)
    5594              $C$DW$657       .dwtag  DW_TAG_member
    5595                      .dwattr $C$DW$657, DW_AT_type(*$C$DW$T$73)
    5596                      .dwattr $C$DW$657, DW_AT_name("GPADAT")
    5597                      .dwattr $C$DW$657, DW_AT_TI_symbol_name("_GPADAT")
    5598                      .dwattr $C$DW$657, DW_AT_data_member_location[DW_OP_plus_uconst 0x40]
    5599                      .dwattr $C$DW$657, DW_AT_accessibility(DW_ACCESS_public)
    5600              $C$DW$658       .dwtag  DW_TAG_member
    5601                      .dwattr $C$DW$658, DW_AT_type(*$C$DW$T$73)
    5602                      .dwattr $C$DW$658, DW_AT_name("GPASET")
    5603                      .dwattr $C$DW$658, DW_AT_TI_symbol_name("_GPASET")
    5604                      .dwattr $C$DW$658, DW_AT_data_member_location[DW_OP_plus_uconst 0x42]
    5605                      .dwattr $C$DW$658, DW_AT_accessibility(DW_ACCESS_public)
    5606              $C$DW$659       .dwtag  DW_TAG_member
    5607                      .dwattr $C$DW$659, DW_AT_type(*$C$DW$T$73)
    5608                      .dwattr $C$DW$659, DW_AT_name("GPACLEAR")
    5609                      .dwattr $C$DW$659, DW_AT_TI_symbol_name("_GPACLEAR")
    5610                      .dwattr $C$DW$659, DW_AT_data_member_location[DW_OP_plus_uconst 0x44]
    5611                      .dwattr $C$DW$659, DW_AT_accessibility(DW_ACCESS_public)
    5612              $C$DW$660       .dwtag  DW_TAG_member
    5613                      .dwattr $C$DW$660, DW_AT_type(*$C$DW$T$73)
    5614                      .dwattr $C$DW$660, DW_AT_name("GPATOGGLE")
    5615                      .dwattr $C$DW$660, DW_AT_TI_symbol_name("_GPATOGGLE")
    5616                      .dwattr $C$DW$660, DW_AT_data_member_location[DW_OP_plus_uconst 0x46]
    5617                      .dwattr $C$DW$660, DW_AT_accessibility(DW_ACCESS_public)
    5618              $C$DW$661       .dwtag  DW_TAG_member
    5619                      .dwattr $C$DW$661, DW_AT_type(*$C$DW$T$73)
    5620                      .dwattr $C$DW$661, DW_AT_name("GPBDAT")
    5621                      .dwattr $C$DW$661, DW_AT_TI_symbol_name("_GPBDAT")
    5622                      .dwattr $C$DW$661, DW_AT_data_member_location[DW_OP_plus_uconst 0x48]
    5623                      .dwattr $C$DW$661, DW_AT_accessibility(DW_ACCESS_public)
    5624              $C$DW$662       .dwtag  DW_TAG_member
    5625                      .dwattr $C$DW$662, DW_AT_type(*$C$DW$T$73)
    5626                      .dwattr $C$DW$662, DW_AT_name("GPBSET")
    5627                      .dwattr $C$DW$662, DW_AT_TI_symbol_name("_GPBSET")
    5628                      .dwattr $C$DW$662, DW_AT_data_member_location[DW_OP_plus_uconst 0x4a]
    5629                      .dwattr $C$DW$662, DW_AT_accessibility(DW_ACCESS_public)
    5630              $C$DW$663       .dwtag  DW_TAG_member
    5631                      .dwattr $C$DW$663, DW_AT_type(*$C$DW$T$73)
    5632                      .dwattr $C$DW$663, DW_AT_name("GPBCLEAR")
    5633                      .dwattr $C$DW$663, DW_AT_TI_symbol_name("_GPBCLEAR")
    5634                      .dwattr $C$DW$663, DW_AT_data_member_location[DW_OP_plus_uconst 0x4c]
TMS320C2000 Assembler PC v6.2.5 Wed Nov 22 14:48:16 2017

Tools Copyright (c) 1996-2014 Texas Instruments Incorporated
C:\Users\wmj\AppData\Local\Temp\0222411                              PAGE  107

    5635                      .dwattr $C$DW$663, DW_AT_accessibility(DW_ACCESS_public)
    5636              $C$DW$664       .dwtag  DW_TAG_member
    5637                      .dwattr $C$DW$664, DW_AT_type(*$C$DW$T$73)
    5638                      .dwattr $C$DW$664, DW_AT_name("GPBTOGGLE")
    5639                      .dwattr $C$DW$664, DW_AT_TI_symbol_name("_GPBTOGGLE")
    5640                      .dwattr $C$DW$664, DW_AT_data_member_location[DW_OP_plus_uconst 0x4e]
    5641                      .dwattr $C$DW$664, DW_AT_accessibility(DW_ACCESS_public)
    5642              $C$DW$665       .dwtag  DW_TAG_member
    5643                      .dwattr $C$DW$665, DW_AT_type(*$C$DW$T$30)
    5644                      .dwattr $C$DW$665, DW_AT_name("rsvd_7")
    5645                      .dwattr $C$DW$665, DW_AT_TI_symbol_name("_rsvd_7")
    5646                      .dwattr $C$DW$665, DW_AT_data_member_location[DW_OP_plus_uconst 0x50]
    5647                      .dwattr $C$DW$665, DW_AT_accessibility(DW_ACCESS_public)
    5648              $C$DW$666       .dwtag  DW_TAG_member
    5649                      .dwattr $C$DW$666, DW_AT_type(*$C$DW$T$73)
    5650                      .dwattr $C$DW$666, DW_AT_name("AIODAT")
    5651                      .dwattr $C$DW$666, DW_AT_TI_symbol_name("_AIODAT")
    5652                      .dwattr $C$DW$666, DW_AT_data_member_location[DW_OP_plus_uconst 0x58]
    5653                      .dwattr $C$DW$666, DW_AT_accessibility(DW_ACCESS_public)
    5654              $C$DW$667       .dwtag  DW_TAG_member
    5655                      .dwattr $C$DW$667, DW_AT_type(*$C$DW$T$73)
    5656                      .dwattr $C$DW$667, DW_AT_name("AIOSET")
    5657                      .dwattr $C$DW$667, DW_AT_TI_symbol_name("_AIOSET")
    5658                      .dwattr $C$DW$667, DW_AT_data_member_location[DW_OP_plus_uconst 0x5a]
    5659                      .dwattr $C$DW$667, DW_AT_accessibility(DW_ACCESS_public)
    5660              $C$DW$668       .dwtag  DW_TAG_member
    5661                      .dwattr $C$DW$668, DW_AT_type(*$C$DW$T$73)
    5662                      .dwattr $C$DW$668, DW_AT_name("AIOCLEAR")
    5663                      .dwattr $C$DW$668, DW_AT_TI_symbol_name("_AIOCLEAR")
    5664                      .dwattr $C$DW$668, DW_AT_data_member_location[DW_OP_plus_uconst 0x5c]
    5665                      .dwattr $C$DW$668, DW_AT_accessibility(DW_ACCESS_public)
    5666              $C$DW$669       .dwtag  DW_TAG_member
    5667                      .dwattr $C$DW$669, DW_AT_type(*$C$DW$T$73)
    5668                      .dwattr $C$DW$669, DW_AT_name("AIOTOGGLE")
    5669                      .dwattr $C$DW$669, DW_AT_TI_symbol_name("_AIOTOGGLE")
    5670                      .dwattr $C$DW$669, DW_AT_data_member_location[DW_OP_plus_uconst 0x5e]
    5671                      .dwattr $C$DW$669, DW_AT_accessibility(DW_ACCESS_public)
    5672              $C$DW$670       .dwtag  DW_TAG_member
    5673                      .dwattr $C$DW$670, DW_AT_type(*$C$DW$T$27)
    5674                      .dwattr $C$DW$670, DW_AT_name("GPIOXINTnSEL")
    5675                      .dwattr $C$DW$670, DW_AT_TI_symbol_name("_GPIOXINTnSEL")
    5676                      .dwattr $C$DW$670, DW_AT_data_member_location[DW_OP_plus_uconst 0x60]
    5677                      .dwattr $C$DW$670, DW_AT_accessibility(DW_ACCESS_public)
    5678              $C$DW$671       .dwtag  DW_TAG_member
    5679                      .dwattr $C$DW$671, DW_AT_type(*$C$DW$T$26)
    5680                      .dwattr $C$DW$671, DW_AT_name("rsvd_8")
    5681                      .dwattr $C$DW$671, DW_AT_TI_symbol_name("_rsvd_8")
    5682                      .dwattr $C$DW$671, DW_AT_data_member_location[DW_OP_plus_uconst 0x63]
    5683                      .dwattr $C$DW$671, DW_AT_accessibility(DW_ACCESS_public)
    5684              $C$DW$672       .dwtag  DW_TAG_member
    5685                      .dwattr $C$DW$672, DW_AT_type(*$C$DW$T$73)
    5686                      .dwattr $C$DW$672, DW_AT_name("GPIOLPMSEL")
    5687                      .dwattr $C$DW$672, DW_AT_TI_symbol_name("_GPIOLPMSEL")
    5688                      .dwattr $C$DW$672, DW_AT_data_member_location[DW_OP_plus_uconst 0x68]
    5689                      .dwattr $C$DW$672, DW_AT_accessibility(DW_ACCESS_public)
TMS320C2000 Assembler PC v6.2.5 Wed Nov 22 14:48:16 2017

Tools Copyright (c) 1996-2014 Texas Instruments Incorporated
C:\Users\wmj\AppData\Local\Temp\0222411                              PAGE  108

    5690                      .dwendtag $C$DW$T$76
    5691              
    5692              $C$DW$T$87      .dwtag  DW_TAG_pointer_type
    5693                      .dwattr $C$DW$T$87, DW_AT_type(*$C$DW$T$76)
    5694                      .dwattr $C$DW$T$87, DW_AT_address_class(0x16)
    5695              $C$DW$T$88      .dwtag  DW_TAG_typedef, DW_AT_name("GPIO_Handle")
    5696                      .dwattr $C$DW$T$88, DW_AT_type(*$C$DW$T$87)
    5697                      .dwattr $C$DW$T$88, DW_AT_language(DW_LANG_C)
    5698              $C$DW$673       .dwtag  DW_TAG_TI_far_type
    5699                      .dwattr $C$DW$673, DW_AT_type(*$C$DW$T$88)
    5700              $C$DW$T$197     .dwtag  DW_TAG_const_type
    5701                      .dwattr $C$DW$T$197, DW_AT_type(*$C$DW$673)
    5702              
    5703              $C$DW$T$78      .dwtag  DW_TAG_structure_type
    5704                      .dwattr $C$DW$T$78, DW_AT_name("_HAL_AdcData_t_")
    5705                      .dwattr $C$DW$T$78, DW_AT_byte_size(0x16)
    5706              $C$DW$674       .dwtag  DW_TAG_member
    5707                      .dwattr $C$DW$674, DW_AT_type(*$C$DW$T$77)
    5708                      .dwattr $C$DW$674, DW_AT_name("I")
    5709                      .dwattr $C$DW$674, DW_AT_TI_symbol_name("_I")
    5710                      .dwattr $C$DW$674, DW_AT_data_member_location[DW_OP_plus_uconst 0x0]
    5711                      .dwattr $C$DW$674, DW_AT_accessibility(DW_ACCESS_public)
    5712              $C$DW$675       .dwtag  DW_TAG_member
    5713                      .dwattr $C$DW$675, DW_AT_type(*$C$DW$T$77)
    5714                      .dwattr $C$DW$675, DW_AT_name("V")
    5715                      .dwattr $C$DW$675, DW_AT_TI_symbol_name("_V")
    5716                      .dwattr $C$DW$675, DW_AT_data_member_location[DW_OP_plus_uconst 0x6]
    5717                      .dwattr $C$DW$675, DW_AT_accessibility(DW_ACCESS_public)
    5718              $C$DW$676       .dwtag  DW_TAG_member
    5719                      .dwattr $C$DW$676, DW_AT_type(*$C$DW$T$37)
    5720                      .dwattr $C$DW$676, DW_AT_name("dcBus")
    5721                      .dwattr $C$DW$676, DW_AT_TI_symbol_name("_dcBus")
    5722                      .dwattr $C$DW$676, DW_AT_data_member_location[DW_OP_plus_uconst 0xc]
    5723                      .dwattr $C$DW$676, DW_AT_accessibility(DW_ACCESS_public)
    5724              $C$DW$677       .dwtag  DW_TAG_member
    5725                      .dwattr $C$DW$677, DW_AT_type(*$C$DW$T$37)
    5726                      .dwattr $C$DW$677, DW_AT_name("analogSensor1")
    5727                      .dwattr $C$DW$677, DW_AT_TI_symbol_name("_analogSensor1")
    5728                      .dwattr $C$DW$677, DW_AT_data_member_location[DW_OP_plus_uconst 0xe]
    5729                      .dwattr $C$DW$677, DW_AT_accessibility(DW_ACCESS_public)
    5730              $C$DW$678       .dwtag  DW_TAG_member
    5731                      .dwattr $C$DW$678, DW_AT_type(*$C$DW$T$37)
    5732                      .dwattr $C$DW$678, DW_AT_name("analogSensor2")
    5733                      .dwattr $C$DW$678, DW_AT_TI_symbol_name("_analogSensor2")
    5734                      .dwattr $C$DW$678, DW_AT_data_member_location[DW_OP_plus_uconst 0x10]
    5735                      .dwattr $C$DW$678, DW_AT_accessibility(DW_ACCESS_public)
    5736              $C$DW$679       .dwtag  DW_TAG_member
    5737                      .dwattr $C$DW$679, DW_AT_type(*$C$DW$T$37)
    5738                      .dwattr $C$DW$679, DW_AT_name("igbtNTC")
    5739                      .dwattr $C$DW$679, DW_AT_TI_symbol_name("_igbtNTC")
    5740                      .dwattr $C$DW$679, DW_AT_data_member_location[DW_OP_plus_uconst 0x12]
    5741                      .dwattr $C$DW$679, DW_AT_accessibility(DW_ACCESS_public)
    5742              $C$DW$680       .dwtag  DW_TAG_member
    5743                      .dwattr $C$DW$680, DW_AT_type(*$C$DW$T$37)
    5744                      .dwattr $C$DW$680, DW_AT_name("boardAddr")
TMS320C2000 Assembler PC v6.2.5 Wed Nov 22 14:48:16 2017

Tools Copyright (c) 1996-2014 Texas Instruments Incorporated
C:\Users\wmj\AppData\Local\Temp\0222411                              PAGE  109

    5745                      .dwattr $C$DW$680, DW_AT_TI_symbol_name("_boardAddr")
    5746                      .dwattr $C$DW$680, DW_AT_data_member_location[DW_OP_plus_uconst 0x14]
    5747                      .dwattr $C$DW$680, DW_AT_accessibility(DW_ACCESS_public)
    5748                      .dwendtag $C$DW$T$78
    5749              
    5750              $C$DW$T$114     .dwtag  DW_TAG_typedef, DW_AT_name("HAL_AdcData_t")
    5751                      .dwattr $C$DW$T$114, DW_AT_type(*$C$DW$T$78)
    5752                      .dwattr $C$DW$T$114, DW_AT_language(DW_LANG_C)
    5753              
    5754              $C$DW$T$117     .dwtag  DW_TAG_structure_type
    5755                      .dwattr $C$DW$T$117, DW_AT_name("_HAL_Obj_")
    5756                      .dwattr $C$DW$T$117, DW_AT_byte_size(0xb4)
    5757              $C$DW$681       .dwtag  DW_TAG_member
    5758                      .dwattr $C$DW$681, DW_AT_type(*$C$DW$T$80)
    5759                      .dwattr $C$DW$681, DW_AT_name("adcHandle")
    5760                      .dwattr $C$DW$681, DW_AT_TI_symbol_name("_adcHandle")
    5761                      .dwattr $C$DW$681, DW_AT_data_member_location[DW_OP_plus_uconst 0x0]
    5762                      .dwattr $C$DW$681, DW_AT_accessibility(DW_ACCESS_public)
    5763              $C$DW$682       .dwtag  DW_TAG_member
    5764                      .dwattr $C$DW$682, DW_AT_type(*$C$DW$T$82)
    5765                      .dwattr $C$DW$682, DW_AT_name("clkHandle")
    5766                      .dwattr $C$DW$682, DW_AT_TI_symbol_name("_clkHandle")
    5767                      .dwattr $C$DW$682, DW_AT_data_member_location[DW_OP_plus_uconst 0x2]
    5768                      .dwattr $C$DW$682, DW_AT_accessibility(DW_ACCESS_public)
    5769              $C$DW$683       .dwtag  DW_TAG_member
    5770                      .dwattr $C$DW$683, DW_AT_type(*$C$DW$T$84)
    5771                      .dwattr $C$DW$683, DW_AT_name("cpuHandle")
    5772                      .dwattr $C$DW$683, DW_AT_TI_symbol_name("_cpuHandle")
    5773                      .dwattr $C$DW$683, DW_AT_data_member_location[DW_OP_plus_uconst 0x4]
    5774                      .dwattr $C$DW$683, DW_AT_accessibility(DW_ACCESS_public)
    5775              $C$DW$684       .dwtag  DW_TAG_member
    5776                      .dwattr $C$DW$684, DW_AT_type(*$C$DW$T$86)
    5777                      .dwattr $C$DW$684, DW_AT_name("flashHandle")
    5778                      .dwattr $C$DW$684, DW_AT_TI_symbol_name("_flashHandle")
    5779                      .dwattr $C$DW$684, DW_AT_data_member_location[DW_OP_plus_uconst 0x6]
    5780                      .dwattr $C$DW$684, DW_AT_accessibility(DW_ACCESS_public)
    5781              $C$DW$685       .dwtag  DW_TAG_member
    5782                      .dwattr $C$DW$685, DW_AT_type(*$C$DW$T$88)
    5783                      .dwattr $C$DW$685, DW_AT_name("gpioHandle")
    5784                      .dwattr $C$DW$685, DW_AT_TI_symbol_name("_gpioHandle")
    5785                      .dwattr $C$DW$685, DW_AT_data_member_location[DW_OP_plus_uconst 0x8]
    5786                      .dwattr $C$DW$685, DW_AT_accessibility(DW_ACCESS_public)
    5787              $C$DW$686       .dwtag  DW_TAG_member
    5788                      .dwattr $C$DW$686, DW_AT_type(*$C$DW$T$91)
    5789                      .dwattr $C$DW$686, DW_AT_name("offsetHandle_I")
    5790                      .dwattr $C$DW$686, DW_AT_TI_symbol_name("_offsetHandle_I")
    5791                      .dwattr $C$DW$686, DW_AT_data_member_location[DW_OP_plus_uconst 0xa]
    5792                      .dwattr $C$DW$686, DW_AT_accessibility(DW_ACCESS_public)
    5793              $C$DW$687       .dwtag  DW_TAG_member
    5794                      .dwattr $C$DW$687, DW_AT_type(*$C$DW$T$93)
    5795                      .dwattr $C$DW$687, DW_AT_name("offset_I")
    5796                      .dwattr $C$DW$687, DW_AT_TI_symbol_name("_offset_I")
    5797                      .dwattr $C$DW$687, DW_AT_data_member_location[DW_OP_plus_uconst 0x10]
    5798                      .dwattr $C$DW$687, DW_AT_accessibility(DW_ACCESS_public)
    5799              $C$DW$688       .dwtag  DW_TAG_member
TMS320C2000 Assembler PC v6.2.5 Wed Nov 22 14:48:16 2017

Tools Copyright (c) 1996-2014 Texas Instruments Incorporated
C:\Users\wmj\AppData\Local\Temp\0222411                              PAGE  110

    5800                      .dwattr $C$DW$688, DW_AT_type(*$C$DW$T$91)
    5801                      .dwattr $C$DW$688, DW_AT_name("offsetHandle_V")
    5802                      .dwattr $C$DW$688, DW_AT_TI_symbol_name("_offsetHandle_V")
    5803                      .dwattr $C$DW$688, DW_AT_data_member_location[DW_OP_plus_uconst 0x40]
    5804                      .dwattr $C$DW$688, DW_AT_accessibility(DW_ACCESS_public)
    5805              $C$DW$689       .dwtag  DW_TAG_member
    5806                      .dwattr $C$DW$689, DW_AT_type(*$C$DW$T$93)
    5807                      .dwattr $C$DW$689, DW_AT_name("offset_V")
    5808                      .dwattr $C$DW$689, DW_AT_TI_symbol_name("_offset_V")
    5809                      .dwattr $C$DW$689, DW_AT_data_member_location[DW_OP_plus_uconst 0x46]
    5810                      .dwattr $C$DW$689, DW_AT_accessibility(DW_ACCESS_public)
    5811              $C$DW$690       .dwtag  DW_TAG_member
    5812                      .dwattr $C$DW$690, DW_AT_type(*$C$DW$T$95)
    5813                      .dwattr $C$DW$690, DW_AT_name("oscHandle")
    5814                      .dwattr $C$DW$690, DW_AT_TI_symbol_name("_oscHandle")
    5815                      .dwattr $C$DW$690, DW_AT_data_member_location[DW_OP_plus_uconst 0x76]
    5816                      .dwattr $C$DW$690, DW_AT_accessibility(DW_ACCESS_public)
    5817              $C$DW$691       .dwtag  DW_TAG_member
    5818                      .dwattr $C$DW$691, DW_AT_type(*$C$DW$T$97)
    5819                      .dwattr $C$DW$691, DW_AT_name("pieHandle")
    5820                      .dwattr $C$DW$691, DW_AT_TI_symbol_name("_pieHandle")
    5821                      .dwattr $C$DW$691, DW_AT_data_member_location[DW_OP_plus_uconst 0x78]
    5822                      .dwattr $C$DW$691, DW_AT_accessibility(DW_ACCESS_public)
    5823              $C$DW$692       .dwtag  DW_TAG_member
    5824                      .dwattr $C$DW$692, DW_AT_type(*$C$DW$T$99)
    5825                      .dwattr $C$DW$692, DW_AT_name("pllHandle")
    5826                      .dwattr $C$DW$692, DW_AT_TI_symbol_name("_pllHandle")
    5827                      .dwattr $C$DW$692, DW_AT_data_member_location[DW_OP_plus_uconst 0x7a]
    5828                      .dwattr $C$DW$692, DW_AT_accessibility(DW_ACCESS_public)
    5829              $C$DW$693       .dwtag  DW_TAG_member
    5830                      .dwattr $C$DW$693, DW_AT_type(*$C$DW$T$102)
    5831                      .dwattr $C$DW$693, DW_AT_name("pwmHandle")
    5832                      .dwattr $C$DW$693, DW_AT_TI_symbol_name("_pwmHandle")
    5833                      .dwattr $C$DW$693, DW_AT_data_member_location[DW_OP_plus_uconst 0x7c]
    5834                      .dwattr $C$DW$693, DW_AT_accessibility(DW_ACCESS_public)
    5835              $C$DW$694       .dwtag  DW_TAG_member
    5836                      .dwattr $C$DW$694, DW_AT_type(*$C$DW$T$102)
    5837                      .dwattr $C$DW$694, DW_AT_name("pwmDacHandle")
    5838                      .dwattr $C$DW$694, DW_AT_TI_symbol_name("_pwmDacHandle")
    5839                      .dwattr $C$DW$694, DW_AT_data_member_location[DW_OP_plus_uconst 0x82]
    5840                      .dwattr $C$DW$694, DW_AT_accessibility(DW_ACCESS_public)
    5841              $C$DW$695       .dwtag  DW_TAG_member
    5842                      .dwattr $C$DW$695, DW_AT_type(*$C$DW$T$104)
    5843                      .dwattr $C$DW$695, DW_AT_name("pwrHandle")
    5844                      .dwattr $C$DW$695, DW_AT_TI_symbol_name("_pwrHandle")
    5845                      .dwattr $C$DW$695, DW_AT_data_member_location[DW_OP_plus_uconst 0x88]
    5846                      .dwattr $C$DW$695, DW_AT_accessibility(DW_ACCESS_public)
    5847              $C$DW$696       .dwtag  DW_TAG_member
    5848                      .dwattr $C$DW$696, DW_AT_type(*$C$DW$T$107)
    5849                      .dwattr $C$DW$696, DW_AT_name("timerHandle")
    5850                      .dwattr $C$DW$696, DW_AT_TI_symbol_name("_timerHandle")
    5851                      .dwattr $C$DW$696, DW_AT_data_member_location[DW_OP_plus_uconst 0x8a]
    5852                      .dwattr $C$DW$696, DW_AT_accessibility(DW_ACCESS_public)
    5853              $C$DW$697       .dwtag  DW_TAG_member
    5854                      .dwattr $C$DW$697, DW_AT_type(*$C$DW$T$109)
TMS320C2000 Assembler PC v6.2.5 Wed Nov 22 14:48:16 2017

Tools Copyright (c) 1996-2014 Texas Instruments Incorporated
C:\Users\wmj\AppData\Local\Temp\0222411                              PAGE  111

    5855                      .dwattr $C$DW$697, DW_AT_name("spiAHandle")
    5856                      .dwattr $C$DW$697, DW_AT_TI_symbol_name("_spiAHandle")
    5857                      .dwattr $C$DW$697, DW_AT_data_member_location[DW_OP_plus_uconst 0x90]
    5858                      .dwattr $C$DW$697, DW_AT_accessibility(DW_ACCESS_public)
    5859              $C$DW$698       .dwtag  DW_TAG_member
    5860                      .dwattr $C$DW$698, DW_AT_type(*$C$DW$T$111)
    5861                      .dwattr $C$DW$698, DW_AT_name("wdogHandle")
    5862                      .dwattr $C$DW$698, DW_AT_TI_symbol_name("_wdogHandle")
    5863                      .dwattr $C$DW$698, DW_AT_data_member_location[DW_OP_plus_uconst 0x92]
    5864                      .dwattr $C$DW$698, DW_AT_accessibility(DW_ACCESS_public)
    5865              $C$DW$699       .dwtag  DW_TAG_member
    5866                      .dwattr $C$DW$699, DW_AT_type(*$C$DW$T$113)
    5867                      .dwattr $C$DW$699, DW_AT_name("sciHandle")
    5868                      .dwattr $C$DW$699, DW_AT_TI_symbol_name("_sciHandle")
    5869                      .dwattr $C$DW$699, DW_AT_data_member_location[DW_OP_plus_uconst 0x94]
    5870                      .dwattr $C$DW$699, DW_AT_accessibility(DW_ACCESS_public)
    5871              $C$DW$700       .dwtag  DW_TAG_member
    5872                      .dwattr $C$DW$700, DW_AT_type(*$C$DW$T$114)
    5873                      .dwattr $C$DW$700, DW_AT_name("adcBias")
    5874                      .dwattr $C$DW$700, DW_AT_TI_symbol_name("_adcBias")
    5875                      .dwattr $C$DW$700, DW_AT_data_member_location[DW_OP_plus_uconst 0x96]
    5876                      .dwattr $C$DW$700, DW_AT_accessibility(DW_ACCESS_public)
    5877              $C$DW$701       .dwtag  DW_TAG_member
    5878                      .dwattr $C$DW$701, DW_AT_type(*$C$DW$T$37)
    5879                      .dwattr $C$DW$701, DW_AT_name("current_sf")
    5880                      .dwattr $C$DW$701, DW_AT_TI_symbol_name("_current_sf")
    5881                      .dwattr $C$DW$701, DW_AT_data_member_location[DW_OP_plus_uconst 0xac]
    5882                      .dwattr $C$DW$701, DW_AT_accessibility(DW_ACCESS_public)
    5883              $C$DW$702       .dwtag  DW_TAG_member
    5884                      .dwattr $C$DW$702, DW_AT_type(*$C$DW$T$37)
    5885                      .dwattr $C$DW$702, DW_AT_name("voltage_sf")
    5886                      .dwattr $C$DW$702, DW_AT_TI_symbol_name("_voltage_sf")
    5887                      .dwattr $C$DW$702, DW_AT_data_member_location[DW_OP_plus_uconst 0xae]
    5888                      .dwattr $C$DW$702, DW_AT_accessibility(DW_ACCESS_public)
    5889              $C$DW$703       .dwtag  DW_TAG_member
    5890                      .dwattr $C$DW$703, DW_AT_type(*$C$DW$T$32)
    5891                      .dwattr $C$DW$703, DW_AT_name("numCurrentSensors")
    5892                      .dwattr $C$DW$703, DW_AT_TI_symbol_name("_numCurrentSensors")
    5893                      .dwattr $C$DW$703, DW_AT_data_member_location[DW_OP_plus_uconst 0xb0]
    5894                      .dwattr $C$DW$703, DW_AT_accessibility(DW_ACCESS_public)
    5895              $C$DW$704       .dwtag  DW_TAG_member
    5896                      .dwattr $C$DW$704, DW_AT_type(*$C$DW$T$32)
    5897                      .dwattr $C$DW$704, DW_AT_name("numVoltageSensors")
    5898                      .dwattr $C$DW$704, DW_AT_TI_symbol_name("_numVoltageSensors")
    5899                      .dwattr $C$DW$704, DW_AT_data_member_location[DW_OP_plus_uconst 0xb1]
    5900                      .dwattr $C$DW$704, DW_AT_accessibility(DW_ACCESS_public)
    5901              $C$DW$705       .dwtag  DW_TAG_member
    5902                      .dwattr $C$DW$705, DW_AT_type(*$C$DW$T$116)
    5903                      .dwattr $C$DW$705, DW_AT_name("boardAddress")
    5904                      .dwattr $C$DW$705, DW_AT_TI_symbol_name("_boardAddress")
    5905                      .dwattr $C$DW$705, DW_AT_data_member_location[DW_OP_plus_uconst 0xb2]
    5906                      .dwattr $C$DW$705, DW_AT_accessibility(DW_ACCESS_public)
    5907                      .dwendtag $C$DW$T$117
    5908              
    5909              $C$DW$T$42      .dwtag  DW_TAG_pointer_type
TMS320C2000 Assembler PC v6.2.5 Wed Nov 22 14:48:16 2017

Tools Copyright (c) 1996-2014 Texas Instruments Incorporated
C:\Users\wmj\AppData\Local\Temp\0222411                              PAGE  112

    5910                      .dwattr $C$DW$T$42, DW_AT_type(*$C$DW$T$117)
    5911                      .dwattr $C$DW$T$42, DW_AT_address_class(0x16)
    5912              $C$DW$T$43      .dwtag  DW_TAG_typedef, DW_AT_name("HAL_Handle")
    5913                      .dwattr $C$DW$T$43, DW_AT_type(*$C$DW$T$42)
    5914                      .dwattr $C$DW$T$43, DW_AT_language(DW_LANG_C)
    5915              
    5916              $C$DW$T$119     .dwtag  DW_TAG_structure_type
    5917                      .dwattr $C$DW$T$119, DW_AT_name("_MATH_vec3_")
    5918                      .dwattr $C$DW$T$119, DW_AT_byte_size(0x06)
    5919              $C$DW$706       .dwtag  DW_TAG_member
    5920                      .dwattr $C$DW$706, DW_AT_type(*$C$DW$T$118)
    5921                      .dwattr $C$DW$706, DW_AT_name("value")
    5922                      .dwattr $C$DW$706, DW_AT_TI_symbol_name("_value")
    5923                      .dwattr $C$DW$706, DW_AT_data_member_location[DW_OP_plus_uconst 0x0]
    5924                      .dwattr $C$DW$706, DW_AT_accessibility(DW_ACCESS_public)
    5925                      .dwendtag $C$DW$T$119
    5926              
    5927              $C$DW$T$77      .dwtag  DW_TAG_typedef, DW_AT_name("MATH_vec3")
    5928                      .dwattr $C$DW$T$77, DW_AT_type(*$C$DW$T$119)
    5929                      .dwattr $C$DW$T$77, DW_AT_language(DW_LANG_C)
    5930              
    5931              $C$DW$T$136     .dwtag  DW_TAG_structure_type
    5932                      .dwattr $C$DW$T$136, DW_AT_name("_MB_Obj_")
    5933                      .dwattr $C$DW$T$136, DW_AT_byte_size(0x20)
    5934              $C$DW$707       .dwtag  DW_TAG_member
    5935                      .dwattr $C$DW$707, DW_AT_type(*$C$DW$T$41)
    5936                      .dwattr $C$DW$707, DW_AT_name("motorHandle")
    5937                      .dwattr $C$DW$707, DW_AT_TI_symbol_name("_motorHandle")
    5938                      .dwattr $C$DW$707, DW_AT_data_member_location[DW_OP_plus_uconst 0x0]
    5939                      .dwattr $C$DW$707, DW_AT_accessibility(DW_ACCESS_public)
    5940              $C$DW$708       .dwtag  DW_TAG_member
    5941                      .dwattr $C$DW$708, DW_AT_type(*$C$DW$T$121)
    5942                      .dwattr $C$DW$708, DW_AT_name("fsmHandle")
    5943                      .dwattr $C$DW$708, DW_AT_TI_symbol_name("_fsmHandle")
    5944                      .dwattr $C$DW$708, DW_AT_data_member_location[DW_OP_plus_uconst 0x2]
    5945                      .dwattr $C$DW$708, DW_AT_accessibility(DW_ACCESS_public)
    5946              $C$DW$709       .dwtag  DW_TAG_member
    5947                      .dwattr $C$DW$709, DW_AT_type(*$C$DW$T$88)
    5948                      .dwattr $C$DW$709, DW_AT_name("gpioHandle")
    5949                      .dwattr $C$DW$709, DW_AT_TI_symbol_name("_gpioHandle")
    5950                      .dwattr $C$DW$709, DW_AT_data_member_location[DW_OP_plus_uconst 0x4]
    5951                      .dwattr $C$DW$709, DW_AT_accessibility(DW_ACCESS_public)
    5952              $C$DW$710       .dwtag  DW_TAG_member
    5953                      .dwattr $C$DW$710, DW_AT_type(*$C$DW$T$106)
    5954                      .dwattr $C$DW$710, DW_AT_name("timerHandle")
    5955                      .dwattr $C$DW$710, DW_AT_TI_symbol_name("_timerHandle")
    5956                      .dwattr $C$DW$710, DW_AT_data_member_location[DW_OP_plus_uconst 0x6]
    5957                      .dwattr $C$DW$710, DW_AT_accessibility(DW_ACCESS_public)
    5958              $C$DW$711       .dwtag  DW_TAG_member
    5959                      .dwattr $C$DW$711, DW_AT_type(*$C$DW$T$113)
    5960                      .dwattr $C$DW$711, DW_AT_name("sciHandle")
    5961                      .dwattr $C$DW$711, DW_AT_TI_symbol_name("_sciHandle")
    5962                      .dwattr $C$DW$711, DW_AT_data_member_location[DW_OP_plus_uconst 0x8]
    5963                      .dwattr $C$DW$711, DW_AT_accessibility(DW_ACCESS_public)
    5964              $C$DW$712       .dwtag  DW_TAG_member
TMS320C2000 Assembler PC v6.2.5 Wed Nov 22 14:48:16 2017

Tools Copyright (c) 1996-2014 Texas Instruments Incorporated
C:\Users\wmj\AppData\Local\Temp\0222411                              PAGE  113

    5965                      .dwattr $C$DW$712, DW_AT_type(*$C$DW$T$123)
    5966                      .dwattr $C$DW$712, DW_AT_name("RTU_Frame")
    5967                      .dwattr $C$DW$712, DW_AT_TI_symbol_name("_RTU_Frame")
    5968                      .dwattr $C$DW$712, DW_AT_data_member_location[DW_OP_plus_uconst 0xa]
    5969                      .dwattr $C$DW$712, DW_AT_accessibility(DW_ACCESS_public)
    5970              $C$DW$713       .dwtag  DW_TAG_member
    5971                      .dwattr $C$DW$713, DW_AT_type(*$C$DW$T$125)
    5972                      .dwattr $C$DW$713, DW_AT_name("RTUBuf")
    5973                      .dwattr $C$DW$713, DW_AT_TI_symbol_name("_RTUBuf")
    5974                      .dwattr $C$DW$713, DW_AT_data_member_location[DW_OP_plus_uconst 0xc]
    5975                      .dwattr $C$DW$713, DW_AT_accessibility(DW_ACCESS_public)
    5976              $C$DW$714       .dwtag  DW_TAG_member
    5977                      .dwattr $C$DW$714, DW_AT_type(*$C$DW$T$124)
    5978                      .dwattr $C$DW$714, DW_AT_name("RcvBufferPos")
    5979                      .dwattr $C$DW$714, DW_AT_TI_symbol_name("_RcvBufferPos")
    5980                      .dwattr $C$DW$714, DW_AT_data_member_location[DW_OP_plus_uconst 0x14]
    5981                      .dwattr $C$DW$714, DW_AT_accessibility(DW_ACCESS_public)
    5982              $C$DW$715       .dwtag  DW_TAG_member
    5983                      .dwattr $C$DW$715, DW_AT_type(*$C$DW$T$126)
    5984                      .dwattr $C$DW$715, DW_AT_name("SndBufferCur")
    5985                      .dwattr $C$DW$715, DW_AT_TI_symbol_name("_SndBufferCur")
    5986                      .dwattr $C$DW$715, DW_AT_data_member_location[DW_OP_plus_uconst 0x16]
    5987                      .dwattr $C$DW$715, DW_AT_accessibility(DW_ACCESS_public)
    5988              $C$DW$716       .dwtag  DW_TAG_member
    5989                      .dwattr $C$DW$716, DW_AT_type(*$C$DW$T$127)
    5990                      .dwattr $C$DW$716, DW_AT_name("SndBufferCount")
    5991                      .dwattr $C$DW$716, DW_AT_TI_symbol_name("_SndBufferCount")
    5992                      .dwattr $C$DW$716, DW_AT_data_member_location[DW_OP_plus_uconst 0x18]
    5993                      .dwattr $C$DW$716, DW_AT_accessibility(DW_ACCESS_public)
    5994              $C$DW$717       .dwtag  DW_TAG_member
    5995                      .dwattr $C$DW$717, DW_AT_type(*$C$DW$T$124)
    5996                      .dwattr $C$DW$717, DW_AT_name("SlaveAddress")
    5997                      .dwattr $C$DW$717, DW_AT_TI_symbol_name("_SlaveAddress")
    5998                      .dwattr $C$DW$717, DW_AT_data_member_location[DW_OP_plus_uconst 0x19]
    5999                      .dwattr $C$DW$717, DW_AT_accessibility(DW_ACCESS_public)
    6000              $C$DW$718       .dwtag  DW_TAG_member
    6001                      .dwattr $C$DW$718, DW_AT_type(*$C$DW$T$129)
    6002                      .dwattr $C$DW$718, DW_AT_name("eStatus")
    6003                      .dwattr $C$DW$718, DW_AT_TI_symbol_name("_eStatus")
    6004                      .dwattr $C$DW$718, DW_AT_data_member_location[DW_OP_plus_uconst 0x1a]
    6005                      .dwattr $C$DW$718, DW_AT_accessibility(DW_ACCESS_public)
    6006              $C$DW$719       .dwtag  DW_TAG_member
    6007                      .dwattr $C$DW$719, DW_AT_type(*$C$DW$T$131)
    6008                      .dwattr $C$DW$719, DW_AT_name("eSndState")
    6009                      .dwattr $C$DW$719, DW_AT_TI_symbol_name("_eSndState")
    6010                      .dwattr $C$DW$719, DW_AT_data_member_location[DW_OP_plus_uconst 0x1b]
    6011                      .dwattr $C$DW$719, DW_AT_accessibility(DW_ACCESS_public)
    6012              $C$DW$720       .dwtag  DW_TAG_member
    6013                      .dwattr $C$DW$720, DW_AT_type(*$C$DW$T$133)
    6014                      .dwattr $C$DW$720, DW_AT_name("eRcvState")
    6015                      .dwattr $C$DW$720, DW_AT_TI_symbol_name("_eRcvState")
    6016                      .dwattr $C$DW$720, DW_AT_data_member_location[DW_OP_plus_uconst 0x1c]
    6017                      .dwattr $C$DW$720, DW_AT_accessibility(DW_ACCESS_public)
    6018              $C$DW$721       .dwtag  DW_TAG_member
    6019                      .dwattr $C$DW$721, DW_AT_type(*$C$DW$T$59)
TMS320C2000 Assembler PC v6.2.5 Wed Nov 22 14:48:16 2017

Tools Copyright (c) 1996-2014 Texas Instruments Incorporated
C:\Users\wmj\AppData\Local\Temp\0222411                              PAGE  114

    6020                      .dwattr $C$DW$721, DW_AT_name("xEventInQueue")
    6021                      .dwattr $C$DW$721, DW_AT_TI_symbol_name("_xEventInQueue")
    6022                      .dwattr $C$DW$721, DW_AT_data_member_location[DW_OP_plus_uconst 0x1d]
    6023                      .dwattr $C$DW$721, DW_AT_accessibility(DW_ACCESS_public)
    6024              $C$DW$722       .dwtag  DW_TAG_member
    6025                      .dwattr $C$DW$722, DW_AT_type(*$C$DW$T$135)
    6026                      .dwattr $C$DW$722, DW_AT_name("eQueuedEvent")
    6027                      .dwattr $C$DW$722, DW_AT_TI_symbol_name("_eQueuedEvent")
    6028                      .dwattr $C$DW$722, DW_AT_data_member_location[DW_OP_plus_uconst 0x1e]
    6029                      .dwattr $C$DW$722, DW_AT_accessibility(DW_ACCESS_public)
    6030                      .dwendtag $C$DW$T$136
    6031              
    6032              $C$DW$T$199     .dwtag  DW_TAG_typedef, DW_AT_name("MB_Obj")
    6033                      .dwattr $C$DW$T$199, DW_AT_type(*$C$DW$T$136)
    6034                      .dwattr $C$DW$T$199, DW_AT_language(DW_LANG_C)
    6035              $C$DW$T$177     .dwtag  DW_TAG_pointer_type
    6036                      .dwattr $C$DW$T$177, DW_AT_type(*$C$DW$T$136)
    6037                      .dwattr $C$DW$T$177, DW_AT_address_class(0x16)
    6038              $C$DW$T$178     .dwtag  DW_TAG_typedef, DW_AT_name("MB_Handle")
    6039                      .dwattr $C$DW$T$178, DW_AT_type(*$C$DW$T$177)
    6040                      .dwattr $C$DW$T$178, DW_AT_language(DW_LANG_C)
    6041              $C$DW$723       .dwtag  DW_TAG_TI_far_type
    6042                      .dwattr $C$DW$723, DW_AT_type(*$C$DW$T$178)
    6043              $C$DW$T$200     .dwtag  DW_TAG_const_type
    6044                      .dwattr $C$DW$T$200, DW_AT_type(*$C$DW$723)
    6045              
    6046              $C$DW$T$138     .dwtag  DW_TAG_structure_type
    6047                      .dwattr $C$DW$T$138, DW_AT_name("_MB_RTU_t_")
    6048                      .dwattr $C$DW$T$138, DW_AT_byte_size(0x08)
    6049              $C$DW$724       .dwtag  DW_TAG_member
    6050                      .dwattr $C$DW$724, DW_AT_type(*$C$DW$T$124)
    6051                      .dwattr $C$DW$724, DW_AT_name("PDU_Address")
    6052                      .dwattr $C$DW$724, DW_AT_TI_symbol_name("_PDU_Address")
    6053                      .dwattr $C$DW$724, DW_AT_data_member_location[DW_OP_plus_uconst 0x0]
    6054                      .dwattr $C$DW$724, DW_AT_accessibility(DW_ACCESS_public)
    6055              $C$DW$725       .dwtag  DW_TAG_member
    6056                      .dwattr $C$DW$725, DW_AT_type(*$C$DW$T$124)
    6057                      .dwattr $C$DW$725, DW_AT_name("PDU_FunctionCode")
    6058                      .dwattr $C$DW$725, DW_AT_TI_symbol_name("_PDU_FunctionCode")
    6059                      .dwattr $C$DW$725, DW_AT_data_member_location[DW_OP_plus_uconst 0x1]
    6060                      .dwattr $C$DW$725, DW_AT_accessibility(DW_ACCESS_public)
    6061              $C$DW$726       .dwtag  DW_TAG_member
    6062                      .dwattr $C$DW$726, DW_AT_type(*$C$DW$T$137)
    6063                      .dwattr $C$DW$726, DW_AT_name("PDU_RegAddress")
    6064                      .dwattr $C$DW$726, DW_AT_TI_symbol_name("_PDU_RegAddress")
    6065                      .dwattr $C$DW$726, DW_AT_data_member_location[DW_OP_plus_uconst 0x2]
    6066                      .dwattr $C$DW$726, DW_AT_accessibility(DW_ACCESS_public)
    6067              $C$DW$727       .dwtag  DW_TAG_member
    6068                      .dwattr $C$DW$727, DW_AT_type(*$C$DW$T$137)
    6069                      .dwattr $C$DW$727, DW_AT_name("PDU_Data")
    6070                      .dwattr $C$DW$727, DW_AT_TI_symbol_name("_PDU_Data")
    6071                      .dwattr $C$DW$727, DW_AT_data_member_location[DW_OP_plus_uconst 0x4]
    6072                      .dwattr $C$DW$727, DW_AT_accessibility(DW_ACCESS_public)
    6073              $C$DW$728       .dwtag  DW_TAG_member
    6074                      .dwattr $C$DW$728, DW_AT_type(*$C$DW$T$124)
TMS320C2000 Assembler PC v6.2.5 Wed Nov 22 14:48:16 2017

Tools Copyright (c) 1996-2014 Texas Instruments Incorporated
C:\Users\wmj\AppData\Local\Temp\0222411                              PAGE  115

    6075                      .dwattr $C$DW$728, DW_AT_name("PDU_CRC_LByte")
    6076                      .dwattr $C$DW$728, DW_AT_TI_symbol_name("_PDU_CRC_LByte")
    6077                      .dwattr $C$DW$728, DW_AT_data_member_location[DW_OP_plus_uconst 0x6]
    6078                      .dwattr $C$DW$728, DW_AT_accessibility(DW_ACCESS_public)
    6079              $C$DW$729       .dwtag  DW_TAG_member
    6080                      .dwattr $C$DW$729, DW_AT_type(*$C$DW$T$124)
    6081                      .dwattr $C$DW$729, DW_AT_name("PDU_CRC_HByte")
    6082                      .dwattr $C$DW$729, DW_AT_TI_symbol_name("_PDU_CRC_HByte")
    6083                      .dwattr $C$DW$729, DW_AT_data_member_location[DW_OP_plus_uconst 0x7]
    6084                      .dwattr $C$DW$729, DW_AT_accessibility(DW_ACCESS_public)
    6085                      .dwendtag $C$DW$T$138
    6086              
    6087              $C$DW$T$122     .dwtag  DW_TAG_pointer_type
    6088                      .dwattr $C$DW$T$122, DW_AT_type(*$C$DW$T$138)
    6089                      .dwattr $C$DW$T$122, DW_AT_address_class(0x16)
    6090              $C$DW$T$123     .dwtag  DW_TAG_typedef, DW_AT_name("RTU_Frame")
    6091                      .dwattr $C$DW$T$123, DW_AT_type(*$C$DW$T$122)
    6092                      .dwattr $C$DW$T$123, DW_AT_language(DW_LANG_C)
    6093              
    6094              $C$DW$T$148     .dwtag  DW_TAG_structure_type
    6095                      .dwattr $C$DW$T$148, DW_AT_name("_MOTOR_Obj_")
    6096                      .dwattr $C$DW$T$148, DW_AT_byte_size(0x70)
    6097              $C$DW$730       .dwtag  DW_TAG_member
    6098                      .dwattr $C$DW$730, DW_AT_type(*$C$DW$T$59)
    6099                      .dwattr $C$DW$730, DW_AT_name("Flag_enableSys")
    6100                      .dwattr $C$DW$730, DW_AT_TI_symbol_name("_Flag_enableSys")
    6101                      .dwattr $C$DW$730, DW_AT_data_member_location[DW_OP_plus_uconst 0x0]
    6102                      .dwattr $C$DW$730, DW_AT_accessibility(DW_ACCESS_public)
    6103              $C$DW$731       .dwtag  DW_TAG_member
    6104                      .dwattr $C$DW$731, DW_AT_type(*$C$DW$T$59)
    6105                      .dwattr $C$DW$731, DW_AT_name("Flag_Run_Identify")
    6106                      .dwattr $C$DW$731, DW_AT_TI_symbol_name("_Flag_Run_Identify")
    6107                      .dwattr $C$DW$731, DW_AT_data_member_location[DW_OP_plus_uconst 0x1]
    6108                      .dwattr $C$DW$731, DW_AT_accessibility(DW_ACCESS_public)
    6109              $C$DW$732       .dwtag  DW_TAG_member
    6110                      .dwattr $C$DW$732, DW_AT_type(*$C$DW$T$59)
    6111                      .dwattr $C$DW$732, DW_AT_name("Flag_MotorIdentified")
    6112                      .dwattr $C$DW$732, DW_AT_TI_symbol_name("_Flag_MotorIdentified")
    6113                      .dwattr $C$DW$732, DW_AT_data_member_location[DW_OP_plus_uconst 0x2]
    6114                      .dwattr $C$DW$732, DW_AT_accessibility(DW_ACCESS_public)
    6115              $C$DW$733       .dwtag  DW_TAG_member
    6116                      .dwattr $C$DW$733, DW_AT_type(*$C$DW$T$59)
    6117                      .dwattr $C$DW$733, DW_AT_name("Flag_enableForceAngle")
    6118                      .dwattr $C$DW$733, DW_AT_TI_symbol_name("_Flag_enableForceAngle")
    6119                      .dwattr $C$DW$733, DW_AT_data_member_location[DW_OP_plus_uconst 0x3]
    6120                      .dwattr $C$DW$733, DW_AT_accessibility(DW_ACCESS_public)
    6121              $C$DW$734       .dwtag  DW_TAG_member
    6122                      .dwattr $C$DW$734, DW_AT_type(*$C$DW$T$59)
    6123                      .dwattr $C$DW$734, DW_AT_name("Flag_ZeroPiont_Identify")
    6124                      .dwattr $C$DW$734, DW_AT_TI_symbol_name("_Flag_ZeroPiont_Identify")
    6125                      .dwattr $C$DW$734, DW_AT_data_member_location[DW_OP_plus_uconst 0x4]
    6126                      .dwattr $C$DW$734, DW_AT_accessibility(DW_ACCESS_public)
    6127              $C$DW$735       .dwtag  DW_TAG_member
    6128                      .dwattr $C$DW$735, DW_AT_type(*$C$DW$T$59)
    6129                      .dwattr $C$DW$735, DW_AT_name("Flag_enableRsRecalc")
TMS320C2000 Assembler PC v6.2.5 Wed Nov 22 14:48:16 2017

Tools Copyright (c) 1996-2014 Texas Instruments Incorporated
C:\Users\wmj\AppData\Local\Temp\0222411                              PAGE  116

    6130                      .dwattr $C$DW$735, DW_AT_TI_symbol_name("_Flag_enableRsRecalc")
    6131                      .dwattr $C$DW$735, DW_AT_data_member_location[DW_OP_plus_uconst 0x5]
    6132                      .dwattr $C$DW$735, DW_AT_accessibility(DW_ACCESS_public)
    6133              $C$DW$736       .dwtag  DW_TAG_member
    6134                      .dwattr $C$DW$736, DW_AT_type(*$C$DW$T$59)
    6135                      .dwattr $C$DW$736, DW_AT_name("Flag_enableUserParams")
    6136                      .dwattr $C$DW$736, DW_AT_TI_symbol_name("_Flag_enableUserParams")
    6137                      .dwattr $C$DW$736, DW_AT_data_member_location[DW_OP_plus_uconst 0x6]
    6138                      .dwattr $C$DW$736, DW_AT_accessibility(DW_ACCESS_public)
    6139              $C$DW$737       .dwtag  DW_TAG_member
    6140                      .dwattr $C$DW$737, DW_AT_type(*$C$DW$T$59)
    6141                      .dwattr $C$DW$737, DW_AT_name("Flag_enableOffsetcalc")
    6142                      .dwattr $C$DW$737, DW_AT_TI_symbol_name("_Flag_enableOffsetcalc")
    6143                      .dwattr $C$DW$737, DW_AT_data_member_location[DW_OP_plus_uconst 0x7]
    6144                      .dwattr $C$DW$737, DW_AT_accessibility(DW_ACCESS_public)
    6145              $C$DW$738       .dwtag  DW_TAG_member
    6146                      .dwattr $C$DW$738, DW_AT_type(*$C$DW$T$59)
    6147                      .dwattr $C$DW$738, DW_AT_name("Flag_enablePowerWarp")
    6148                      .dwattr $C$DW$738, DW_AT_TI_symbol_name("_Flag_enablePowerWarp")
    6149                      .dwattr $C$DW$738, DW_AT_data_member_location[DW_OP_plus_uconst 0x8]
    6150                      .dwattr $C$DW$738, DW_AT_accessibility(DW_ACCESS_public)
    6151              $C$DW$739       .dwtag  DW_TAG_member
    6152                      .dwattr $C$DW$739, DW_AT_type(*$C$DW$T$59)
    6153                      .dwattr $C$DW$739, DW_AT_name("Flag_enableSpeedCtrl")
    6154                      .dwattr $C$DW$739, DW_AT_TI_symbol_name("_Flag_enableSpeedCtrl")
    6155                      .dwattr $C$DW$739, DW_AT_data_member_location[DW_OP_plus_uconst 0x9]
    6156                      .dwattr $C$DW$739, DW_AT_accessibility(DW_ACCESS_public)
    6157              $C$DW$740       .dwtag  DW_TAG_member
    6158                      .dwattr $C$DW$740, DW_AT_type(*$C$DW$T$59)
    6159                      .dwattr $C$DW$740, DW_AT_name("Flag_enableRun")
    6160                      .dwattr $C$DW$740, DW_AT_TI_symbol_name("_Flag_enableRun")
    6161                      .dwattr $C$DW$740, DW_AT_data_member_location[DW_OP_plus_uconst 0xa]
    6162                      .dwattr $C$DW$740, DW_AT_accessibility(DW_ACCESS_public)
    6163              $C$DW$741       .dwtag  DW_TAG_member
    6164                      .dwattr $C$DW$741, DW_AT_type(*$C$DW$T$59)
    6165                      .dwattr $C$DW$741, DW_AT_name("Flag_RunState")
    6166                      .dwattr $C$DW$741, DW_AT_TI_symbol_name("_Flag_RunState")
    6167                      .dwattr $C$DW$741, DW_AT_data_member_location[DW_OP_plus_uconst 0xb]
    6168                      .dwattr $C$DW$741, DW_AT_accessibility(DW_ACCESS_public)
    6169              $C$DW$742       .dwtag  DW_TAG_member
    6170                      .dwattr $C$DW$742, DW_AT_type(*$C$DW$T$59)
    6171                      .dwattr $C$DW$742, DW_AT_name("Flag_enableFlyingStart")
    6172                      .dwattr $C$DW$742, DW_AT_TI_symbol_name("_Flag_enableFlyingStart")
    6173                      .dwattr $C$DW$742, DW_AT_data_member_location[DW_OP_plus_uconst 0xc]
    6174                      .dwattr $C$DW$742, DW_AT_accessibility(DW_ACCESS_public)
    6175              $C$DW$743       .dwtag  DW_TAG_member
    6176                      .dwattr $C$DW$743, DW_AT_type(*$C$DW$T$59)
    6177                      .dwattr $C$DW$743, DW_AT_name("Flag_ContactSensor")
    6178                      .dwattr $C$DW$743, DW_AT_TI_symbol_name("_Flag_ContactSensor")
    6179                      .dwattr $C$DW$743, DW_AT_data_member_location[DW_OP_plus_uconst 0xd]
    6180                      .dwattr $C$DW$743, DW_AT_accessibility(DW_ACCESS_public)
    6181              $C$DW$744       .dwtag  DW_TAG_member
    6182                      .dwattr $C$DW$744, DW_AT_type(*$C$DW$T$59)
    6183                      .dwattr $C$DW$744, DW_AT_name("RunPositionProfile")
    6184                      .dwattr $C$DW$744, DW_AT_TI_symbol_name("_RunPositionProfile")
TMS320C2000 Assembler PC v6.2.5 Wed Nov 22 14:48:16 2017

Tools Copyright (c) 1996-2014 Texas Instruments Incorporated
C:\Users\wmj\AppData\Local\Temp\0222411                              PAGE  117

    6185                      .dwattr $C$DW$744, DW_AT_data_member_location[DW_OP_plus_uconst 0xe]
    6186                      .dwattr $C$DW$744, DW_AT_accessibility(DW_ACCESS_public)
    6187              $C$DW$745       .dwtag  DW_TAG_member
    6188                      .dwattr $C$DW$745, DW_AT_type(*$C$DW$T$59)
    6189                      .dwattr $C$DW$745, DW_AT_name("getSensor")
    6190                      .dwattr $C$DW$745, DW_AT_TI_symbol_name("_getSensor")
    6191                      .dwattr $C$DW$745, DW_AT_data_member_location[DW_OP_plus_uconst 0xf]
    6192                      .dwattr $C$DW$745, DW_AT_accessibility(DW_ACCESS_public)
    6193              $C$DW$746       .dwtag  DW_TAG_member
    6194                      .dwattr $C$DW$746, DW_AT_type(*$C$DW$T$59)
    6195                      .dwattr $C$DW$746, DW_AT_name("Flag_UseSpinTAC")
    6196                      .dwattr $C$DW$746, DW_AT_TI_symbol_name("_Flag_UseSpinTAC")
    6197                      .dwattr $C$DW$746, DW_AT_data_member_location[DW_OP_plus_uconst 0x10]
    6198                      .dwattr $C$DW$746, DW_AT_accessibility(DW_ACCESS_public)
    6199              $C$DW$747       .dwtag  DW_TAG_member
    6200                      .dwattr $C$DW$747, DW_AT_type(*$C$DW$T$59)
    6201                      .dwattr $C$DW$747, DW_AT_name("Flag_MotorParamsEst")
    6202                      .dwattr $C$DW$747, DW_AT_TI_symbol_name("_Flag_MotorParamsEst")
    6203                      .dwattr $C$DW$747, DW_AT_data_member_location[DW_OP_plus_uconst 0x11]
    6204                      .dwattr $C$DW$747, DW_AT_accessibility(DW_ACCESS_public)
    6205              $C$DW$748       .dwtag  DW_TAG_member
    6206                      .dwattr $C$DW$748, DW_AT_type(*$C$DW$T$140)
    6207                      .dwattr $C$DW$748, DW_AT_name("CtrlState")
    6208                      .dwattr $C$DW$748, DW_AT_TI_symbol_name("_CtrlState")
    6209                      .dwattr $C$DW$748, DW_AT_data_member_location[DW_OP_plus_uconst 0x12]
    6210                      .dwattr $C$DW$748, DW_AT_accessibility(DW_ACCESS_public)
    6211              $C$DW$749       .dwtag  DW_TAG_member
    6212                      .dwattr $C$DW$749, DW_AT_type(*$C$DW$T$142)
    6213                      .dwattr $C$DW$749, DW_AT_name("EstState")
    6214                      .dwattr $C$DW$749, DW_AT_TI_symbol_name("_EstState")
    6215                      .dwattr $C$DW$749, DW_AT_data_member_location[DW_OP_plus_uconst 0x13]
    6216                      .dwattr $C$DW$749, DW_AT_accessibility(DW_ACCESS_public)
    6217              $C$DW$750       .dwtag  DW_TAG_member
    6218                      .dwattr $C$DW$750, DW_AT_type(*$C$DW$T$144)
    6219                      .dwattr $C$DW$750, DW_AT_name("UserErrorCode")
    6220                      .dwattr $C$DW$750, DW_AT_TI_symbol_name("_UserErrorCode")
    6221                      .dwattr $C$DW$750, DW_AT_data_member_location[DW_OP_plus_uconst 0x14]
    6222                      .dwattr $C$DW$750, DW_AT_accessibility(DW_ACCESS_public)
    6223              $C$DW$751       .dwtag  DW_TAG_member
    6224                      .dwattr $C$DW$751, DW_AT_type(*$C$DW$T$145)
    6225                      .dwattr $C$DW$751, DW_AT_name("CtrlVersion")
    6226                      .dwattr $C$DW$751, DW_AT_TI_symbol_name("_CtrlVersion")
    6227                      .dwattr $C$DW$751, DW_AT_data_member_location[DW_OP_plus_uconst 0x15]
    6228                      .dwattr $C$DW$751, DW_AT_accessibility(DW_ACCESS_public)
    6229              $C$DW$752       .dwtag  DW_TAG_member
    6230                      .dwattr $C$DW$752, DW_AT_type(*$C$DW$T$37)
    6231                      .dwattr $C$DW$752, DW_AT_name("SpeedRef_krpm")
    6232                      .dwattr $C$DW$752, DW_AT_TI_symbol_name("_SpeedRef_krpm")
    6233                      .dwattr $C$DW$752, DW_AT_data_member_location[DW_OP_plus_uconst 0x1a]
    6234                      .dwattr $C$DW$752, DW_AT_accessibility(DW_ACCESS_public)
    6235              $C$DW$753       .dwtag  DW_TAG_member
    6236                      .dwattr $C$DW$753, DW_AT_type(*$C$DW$T$37)
    6237                      .dwattr $C$DW$753, DW_AT_name("MaxAccel_krpmps")
    6238                      .dwattr $C$DW$753, DW_AT_TI_symbol_name("_MaxAccel_krpmps")
    6239                      .dwattr $C$DW$753, DW_AT_data_member_location[DW_OP_plus_uconst 0x1c]
TMS320C2000 Assembler PC v6.2.5 Wed Nov 22 14:48:16 2017

Tools Copyright (c) 1996-2014 Texas Instruments Incorporated
C:\Users\wmj\AppData\Local\Temp\0222411                              PAGE  118

    6240                      .dwattr $C$DW$753, DW_AT_accessibility(DW_ACCESS_public)
    6241              $C$DW$754       .dwtag  DW_TAG_member
    6242                      .dwattr $C$DW$754, DW_AT_type(*$C$DW$T$37)
    6243                      .dwattr $C$DW$754, DW_AT_name("MaxDecel_krpmps")
    6244                      .dwattr $C$DW$754, DW_AT_TI_symbol_name("_MaxDecel_krpmps")
    6245                      .dwattr $C$DW$754, DW_AT_data_member_location[DW_OP_plus_uconst 0x1e]
    6246                      .dwattr $C$DW$754, DW_AT_accessibility(DW_ACCESS_public)
    6247              $C$DW$755       .dwtag  DW_TAG_member
    6248                      .dwattr $C$DW$755, DW_AT_type(*$C$DW$T$146)
    6249                      .dwattr $C$DW$755, DW_AT_name("MaxJrk_krpmps2")
    6250                      .dwattr $C$DW$755, DW_AT_TI_symbol_name("_MaxJrk_krpmps2")
    6251                      .dwattr $C$DW$755, DW_AT_data_member_location[DW_OP_plus_uconst 0x20]
    6252                      .dwattr $C$DW$755, DW_AT_accessibility(DW_ACCESS_public)
    6253              $C$DW$756       .dwtag  DW_TAG_member
    6254                      .dwattr $C$DW$756, DW_AT_type(*$C$DW$T$37)
    6255                      .dwattr $C$DW$756, DW_AT_name("MaxCurrentRatio_pu")
    6256                      .dwattr $C$DW$756, DW_AT_TI_symbol_name("_MaxCurrentRatio_pu")
    6257                      .dwattr $C$DW$756, DW_AT_data_member_location[DW_OP_plus_uconst 0x22]
    6258                      .dwattr $C$DW$756, DW_AT_accessibility(DW_ACCESS_public)
    6259              $C$DW$757       .dwtag  DW_TAG_member
    6260                      .dwattr $C$DW$757, DW_AT_type(*$C$DW$T$37)
    6261                      .dwattr $C$DW$757, DW_AT_name("Speed_krpm")
    6262                      .dwattr $C$DW$757, DW_AT_TI_symbol_name("_Speed_krpm")
    6263                      .dwattr $C$DW$757, DW_AT_data_member_location[DW_OP_plus_uconst 0x24]
    6264                      .dwattr $C$DW$757, DW_AT_accessibility(DW_ACCESS_public)
    6265              $C$DW$758       .dwtag  DW_TAG_member
    6266                      .dwattr $C$DW$758, DW_AT_type(*$C$DW$T$37)
    6267                      .dwattr $C$DW$758, DW_AT_name("Flux_Wb")
    6268                      .dwattr $C$DW$758, DW_AT_TI_symbol_name("_Flux_Wb")
    6269                      .dwattr $C$DW$758, DW_AT_data_member_location[DW_OP_plus_uconst 0x26]
    6270                      .dwattr $C$DW$758, DW_AT_accessibility(DW_ACCESS_public)
    6271              $C$DW$759       .dwtag  DW_TAG_member
    6272                      .dwattr $C$DW$759, DW_AT_type(*$C$DW$T$37)
    6273                      .dwattr $C$DW$759, DW_AT_name("Torque_Nm")
    6274                      .dwattr $C$DW$759, DW_AT_TI_symbol_name("_Torque_Nm")
    6275                      .dwattr $C$DW$759, DW_AT_data_member_location[DW_OP_plus_uconst 0x28]
    6276                      .dwattr $C$DW$759, DW_AT_accessibility(DW_ACCESS_public)
    6277              $C$DW$760       .dwtag  DW_TAG_member
    6278                      .dwattr $C$DW$760, DW_AT_type(*$C$DW$T$147)
    6279                      .dwattr $C$DW$760, DW_AT_name("Rr_Ohm")
    6280                      .dwattr $C$DW$760, DW_AT_TI_symbol_name("_Rr_Ohm")
    6281                      .dwattr $C$DW$760, DW_AT_data_member_location[DW_OP_plus_uconst 0x2a]
    6282                      .dwattr $C$DW$760, DW_AT_accessibility(DW_ACCESS_public)
    6283              $C$DW$761       .dwtag  DW_TAG_member
    6284                      .dwattr $C$DW$761, DW_AT_type(*$C$DW$T$147)
    6285                      .dwattr $C$DW$761, DW_AT_name("Rs_Ohm")
    6286                      .dwattr $C$DW$761, DW_AT_TI_symbol_name("_Rs_Ohm")
    6287                      .dwattr $C$DW$761, DW_AT_data_member_location[DW_OP_plus_uconst 0x2c]
    6288                      .dwattr $C$DW$761, DW_AT_accessibility(DW_ACCESS_public)
    6289              $C$DW$762       .dwtag  DW_TAG_member
    6290                      .dwattr $C$DW$762, DW_AT_type(*$C$DW$T$147)
    6291                      .dwattr $C$DW$762, DW_AT_name("Lsd_H")
    6292                      .dwattr $C$DW$762, DW_AT_TI_symbol_name("_Lsd_H")
    6293                      .dwattr $C$DW$762, DW_AT_data_member_location[DW_OP_plus_uconst 0x2e]
    6294                      .dwattr $C$DW$762, DW_AT_accessibility(DW_ACCESS_public)
TMS320C2000 Assembler PC v6.2.5 Wed Nov 22 14:48:16 2017

Tools Copyright (c) 1996-2014 Texas Instruments Incorporated
C:\Users\wmj\AppData\Local\Temp\0222411                              PAGE  119

    6295              $C$DW$763       .dwtag  DW_TAG_member
    6296                      .dwattr $C$DW$763, DW_AT_type(*$C$DW$T$147)
    6297                      .dwattr $C$DW$763, DW_AT_name("Lsq_H")
    6298                      .dwattr $C$DW$763, DW_AT_TI_symbol_name("_Lsq_H")
    6299                      .dwattr $C$DW$763, DW_AT_data_member_location[DW_OP_plus_uconst 0x30]
    6300                      .dwattr $C$DW$763, DW_AT_accessibility(DW_ACCESS_public)
    6301              $C$DW$764       .dwtag  DW_TAG_member
    6302                      .dwattr $C$DW$764, DW_AT_type(*$C$DW$T$147)
    6303                      .dwattr $C$DW$764, DW_AT_name("MaxCurr_A")
    6304                      .dwattr $C$DW$764, DW_AT_TI_symbol_name("_MaxCurr_A")
    6305                      .dwattr $C$DW$764, DW_AT_data_member_location[DW_OP_plus_uconst 0x32]
    6306                      .dwattr $C$DW$764, DW_AT_accessibility(DW_ACCESS_public)
    6307              $C$DW$765       .dwtag  DW_TAG_member
    6308                      .dwattr $C$DW$765, DW_AT_type(*$C$DW$T$147)
    6309                      .dwattr $C$DW$765, DW_AT_name("MagnCurr_A")
    6310                      .dwattr $C$DW$765, DW_AT_TI_symbol_name("_MagnCurr_A")
    6311                      .dwattr $C$DW$765, DW_AT_data_member_location[DW_OP_plus_uconst 0x34]
    6312                      .dwattr $C$DW$765, DW_AT_accessibility(DW_ACCESS_public)
    6313              $C$DW$766       .dwtag  DW_TAG_member
    6314                      .dwattr $C$DW$766, DW_AT_type(*$C$DW$T$147)
    6315                      .dwattr $C$DW$766, DW_AT_name("Flux_VpHz")
    6316                      .dwattr $C$DW$766, DW_AT_TI_symbol_name("_Flux_VpHz")
    6317                      .dwattr $C$DW$766, DW_AT_data_member_location[DW_OP_plus_uconst 0x36]
    6318                      .dwattr $C$DW$766, DW_AT_accessibility(DW_ACCESS_public)
    6319              $C$DW$767       .dwtag  DW_TAG_member
    6320                      .dwattr $C$DW$767, DW_AT_type(*$C$DW$T$147)
    6321                      .dwattr $C$DW$767, DW_AT_name("RsOnLine_Ohm")
    6322                      .dwattr $C$DW$767, DW_AT_TI_symbol_name("_RsOnLine_Ohm")
    6323                      .dwattr $C$DW$767, DW_AT_data_member_location[DW_OP_plus_uconst 0x38]
    6324                      .dwattr $C$DW$767, DW_AT_accessibility(DW_ACCESS_public)
    6325              $C$DW$768       .dwtag  DW_TAG_member
    6326                      .dwattr $C$DW$768, DW_AT_type(*$C$DW$T$37)
    6327                      .dwattr $C$DW$768, DW_AT_name("OverModulation")
    6328                      .dwattr $C$DW$768, DW_AT_TI_symbol_name("_OverModulation")
    6329                      .dwattr $C$DW$768, DW_AT_data_member_location[DW_OP_plus_uconst 0x3a]
    6330                      .dwattr $C$DW$768, DW_AT_accessibility(DW_ACCESS_public)
    6331              $C$DW$769       .dwtag  DW_TAG_member
    6332                      .dwattr $C$DW$769, DW_AT_type(*$C$DW$T$37)
    6333                      .dwattr $C$DW$769, DW_AT_name("RsOnLineCurrent_A")
    6334                      .dwattr $C$DW$769, DW_AT_TI_symbol_name("_RsOnLineCurrent_A")
    6335                      .dwattr $C$DW$769, DW_AT_data_member_location[DW_OP_plus_uconst 0x3c]
    6336                      .dwattr $C$DW$769, DW_AT_accessibility(DW_ACCESS_public)
    6337              $C$DW$770       .dwtag  DW_TAG_member
    6338                      .dwattr $C$DW$770, DW_AT_type(*$C$DW$T$37)
    6339                      .dwattr $C$DW$770, DW_AT_name("Kp_Idq")
    6340                      .dwattr $C$DW$770, DW_AT_TI_symbol_name("_Kp_Idq")
    6341                      .dwattr $C$DW$770, DW_AT_data_member_location[DW_OP_plus_uconst 0x3e]
    6342                      .dwattr $C$DW$770, DW_AT_accessibility(DW_ACCESS_public)
    6343              $C$DW$771       .dwtag  DW_TAG_member
    6344                      .dwattr $C$DW$771, DW_AT_type(*$C$DW$T$37)
    6345                      .dwattr $C$DW$771, DW_AT_name("Ki_Idq")
    6346                      .dwattr $C$DW$771, DW_AT_TI_symbol_name("_Ki_Idq")
    6347                      .dwattr $C$DW$771, DW_AT_data_member_location[DW_OP_plus_uconst 0x40]
    6348                      .dwattr $C$DW$771, DW_AT_accessibility(DW_ACCESS_public)
    6349              $C$DW$772       .dwtag  DW_TAG_member
TMS320C2000 Assembler PC v6.2.5 Wed Nov 22 14:48:16 2017

Tools Copyright (c) 1996-2014 Texas Instruments Incorporated
C:\Users\wmj\AppData\Local\Temp\0222411                              PAGE  120

    6350                      .dwattr $C$DW$772, DW_AT_type(*$C$DW$T$37)
    6351                      .dwattr $C$DW$772, DW_AT_name("Kp_spd")
    6352                      .dwattr $C$DW$772, DW_AT_TI_symbol_name("_Kp_spd")
    6353                      .dwattr $C$DW$772, DW_AT_data_member_location[DW_OP_plus_uconst 0x42]
    6354                      .dwattr $C$DW$772, DW_AT_accessibility(DW_ACCESS_public)
    6355              $C$DW$773       .dwtag  DW_TAG_member
    6356                      .dwattr $C$DW$773, DW_AT_type(*$C$DW$T$37)
    6357                      .dwattr $C$DW$773, DW_AT_name("Ki_spd")
    6358                      .dwattr $C$DW$773, DW_AT_TI_symbol_name("_Ki_spd")
    6359                      .dwattr $C$DW$773, DW_AT_data_member_location[DW_OP_plus_uconst 0x44]
    6360                      .dwattr $C$DW$773, DW_AT_accessibility(DW_ACCESS_public)
    6361              $C$DW$774       .dwtag  DW_TAG_member
    6362                      .dwattr $C$DW$774, DW_AT_type(*$C$DW$T$37)
    6363                      .dwattr $C$DW$774, DW_AT_name("Vd")
    6364                      .dwattr $C$DW$774, DW_AT_TI_symbol_name("_Vd")
    6365                      .dwattr $C$DW$774, DW_AT_data_member_location[DW_OP_plus_uconst 0x46]
    6366                      .dwattr $C$DW$774, DW_AT_accessibility(DW_ACCESS_public)
    6367              $C$DW$775       .dwtag  DW_TAG_member
    6368                      .dwattr $C$DW$775, DW_AT_type(*$C$DW$T$37)
    6369                      .dwattr $C$DW$775, DW_AT_name("Vq")
    6370                      .dwattr $C$DW$775, DW_AT_TI_symbol_name("_Vq")
    6371                      .dwattr $C$DW$775, DW_AT_data_member_location[DW_OP_plus_uconst 0x48]
    6372                      .dwattr $C$DW$775, DW_AT_accessibility(DW_ACCESS_public)
    6373              $C$DW$776       .dwtag  DW_TAG_member
    6374                      .dwattr $C$DW$776, DW_AT_type(*$C$DW$T$37)
    6375                      .dwattr $C$DW$776, DW_AT_name("Vs")
    6376                      .dwattr $C$DW$776, DW_AT_TI_symbol_name("_Vs")
    6377                      .dwattr $C$DW$776, DW_AT_data_member_location[DW_OP_plus_uconst 0x4a]
    6378                      .dwattr $C$DW$776, DW_AT_accessibility(DW_ACCESS_public)
    6379              $C$DW$777       .dwtag  DW_TAG_member
    6380                      .dwattr $C$DW$777, DW_AT_type(*$C$DW$T$37)
    6381                      .dwattr $C$DW$777, DW_AT_name("Id_A")
    6382                      .dwattr $C$DW$777, DW_AT_TI_symbol_name("_Id_A")
    6383                      .dwattr $C$DW$777, DW_AT_data_member_location[DW_OP_plus_uconst 0x4c]
    6384                      .dwattr $C$DW$777, DW_AT_accessibility(DW_ACCESS_public)
    6385              $C$DW$778       .dwtag  DW_TAG_member
    6386                      .dwattr $C$DW$778, DW_AT_type(*$C$DW$T$37)
    6387                      .dwattr $C$DW$778, DW_AT_name("Iq_A")
    6388                      .dwattr $C$DW$778, DW_AT_TI_symbol_name("_Iq_A")
    6389                      .dwattr $C$DW$778, DW_AT_data_member_location[DW_OP_plus_uconst 0x4e]
    6390                      .dwattr $C$DW$778, DW_AT_accessibility(DW_ACCESS_public)
    6391              $C$DW$779       .dwtag  DW_TAG_member
    6392                      .dwattr $C$DW$779, DW_AT_type(*$C$DW$T$37)
    6393                      .dwattr $C$DW$779, DW_AT_name("Is_A")
    6394                      .dwattr $C$DW$779, DW_AT_TI_symbol_name("_Is_A")
    6395                      .dwattr $C$DW$779, DW_AT_data_member_location[DW_OP_plus_uconst 0x50]
    6396                      .dwattr $C$DW$779, DW_AT_accessibility(DW_ACCESS_public)
    6397              $C$DW$780       .dwtag  DW_TAG_member
    6398                      .dwattr $C$DW$780, DW_AT_type(*$C$DW$T$37)
    6399                      .dwattr $C$DW$780, DW_AT_name("IdRef_A")
    6400                      .dwattr $C$DW$780, DW_AT_TI_symbol_name("_IdRef_A")
    6401                      .dwattr $C$DW$780, DW_AT_data_member_location[DW_OP_plus_uconst 0x52]
    6402                      .dwattr $C$DW$780, DW_AT_accessibility(DW_ACCESS_public)
    6403              $C$DW$781       .dwtag  DW_TAG_member
    6404                      .dwattr $C$DW$781, DW_AT_type(*$C$DW$T$37)
TMS320C2000 Assembler PC v6.2.5 Wed Nov 22 14:48:16 2017

Tools Copyright (c) 1996-2014 Texas Instruments Incorporated
C:\Users\wmj\AppData\Local\Temp\0222411                              PAGE  121

    6405                      .dwattr $C$DW$781, DW_AT_name("IqRef_A")
    6406                      .dwattr $C$DW$781, DW_AT_TI_symbol_name("_IqRef_A")
    6407                      .dwattr $C$DW$781, DW_AT_data_member_location[DW_OP_plus_uconst 0x54]
    6408                      .dwattr $C$DW$781, DW_AT_accessibility(DW_ACCESS_public)
    6409              $C$DW$782       .dwtag  DW_TAG_member
    6410                      .dwattr $C$DW$782, DW_AT_type(*$C$DW$T$37)
    6411                      .dwattr $C$DW$782, DW_AT_name("Ibrake_Ratio")
    6412                      .dwattr $C$DW$782, DW_AT_TI_symbol_name("_Ibrake_Ratio")
    6413                      .dwattr $C$DW$782, DW_AT_data_member_location[DW_OP_plus_uconst 0x56]
    6414                      .dwattr $C$DW$782, DW_AT_accessibility(DW_ACCESS_public)
    6415              $C$DW$783       .dwtag  DW_TAG_member
    6416                      .dwattr $C$DW$783, DW_AT_type(*$C$DW$T$77)
    6417                      .dwattr $C$DW$783, DW_AT_name("I_bias")
    6418                      .dwattr $C$DW$783, DW_AT_TI_symbol_name("_I_bias")
    6419                      .dwattr $C$DW$783, DW_AT_data_member_location[DW_OP_plus_uconst 0x58]
    6420                      .dwattr $C$DW$783, DW_AT_accessibility(DW_ACCESS_public)
    6421              $C$DW$784       .dwtag  DW_TAG_member
    6422                      .dwattr $C$DW$784, DW_AT_type(*$C$DW$T$77)
    6423                      .dwattr $C$DW$784, DW_AT_name("V_bias")
    6424                      .dwattr $C$DW$784, DW_AT_TI_symbol_name("_V_bias")
    6425                      .dwattr $C$DW$784, DW_AT_data_member_location[DW_OP_plus_uconst 0x5e]
    6426                      .dwattr $C$DW$784, DW_AT_accessibility(DW_ACCESS_public)
    6427              $C$DW$785       .dwtag  DW_TAG_member
    6428                      .dwattr $C$DW$785, DW_AT_type(*$C$DW$T$37)
    6429                      .dwattr $C$DW$785, DW_AT_name("Sensor0_Value")
    6430                      .dwattr $C$DW$785, DW_AT_TI_symbol_name("_Sensor0_Value")
    6431                      .dwattr $C$DW$785, DW_AT_data_member_location[DW_OP_plus_uconst 0x64]
    6432                      .dwattr $C$DW$785, DW_AT_accessibility(DW_ACCESS_public)
    6433              $C$DW$786       .dwtag  DW_TAG_member
    6434                      .dwattr $C$DW$786, DW_AT_type(*$C$DW$T$37)
    6435                      .dwattr $C$DW$786, DW_AT_name("Sensor1_Value")
    6436                      .dwattr $C$DW$786, DW_AT_TI_symbol_name("_Sensor1_Value")
    6437                      .dwattr $C$DW$786, DW_AT_data_member_location[DW_OP_plus_uconst 0x66]
    6438                      .dwattr $C$DW$786, DW_AT_accessibility(DW_ACCESS_public)
    6439              $C$DW$787       .dwtag  DW_TAG_member
    6440                      .dwattr $C$DW$787, DW_AT_type(*$C$DW$T$37)
    6441                      .dwattr $C$DW$787, DW_AT_name("ZeroPoint_Value")
    6442                      .dwattr $C$DW$787, DW_AT_TI_symbol_name("_ZeroPoint_Value")
    6443                      .dwattr $C$DW$787, DW_AT_data_member_location[DW_OP_plus_uconst 0x68]
    6444                      .dwattr $C$DW$787, DW_AT_accessibility(DW_ACCESS_public)
    6445              $C$DW$788       .dwtag  DW_TAG_member
    6446                      .dwattr $C$DW$788, DW_AT_type(*$C$DW$T$146)
    6447                      .dwattr $C$DW$788, DW_AT_name("ChipTemp")
    6448                      .dwattr $C$DW$788, DW_AT_TI_symbol_name("_ChipTemp")
    6449                      .dwattr $C$DW$788, DW_AT_data_member_location[DW_OP_plus_uconst 0x6a]
    6450                      .dwattr $C$DW$788, DW_AT_accessibility(DW_ACCESS_public)
    6451              $C$DW$789       .dwtag  DW_TAG_member
    6452                      .dwattr $C$DW$789, DW_AT_type(*$C$DW$T$37)
    6453                      .dwattr $C$DW$789, DW_AT_name("VdcBus_kV")
    6454                      .dwattr $C$DW$789, DW_AT_TI_symbol_name("_VdcBus_kV")
    6455                      .dwattr $C$DW$789, DW_AT_data_member_location[DW_OP_plus_uconst 0x6c]
    6456                      .dwattr $C$DW$789, DW_AT_accessibility(DW_ACCESS_public)
    6457              $C$DW$790       .dwtag  DW_TAG_member
    6458                      .dwattr $C$DW$790, DW_AT_type(*$C$DW$T$21)
    6459                      .dwattr $C$DW$790, DW_AT_name("MotorID")
TMS320C2000 Assembler PC v6.2.5 Wed Nov 22 14:48:16 2017

Tools Copyright (c) 1996-2014 Texas Instruments Incorporated
C:\Users\wmj\AppData\Local\Temp\0222411                              PAGE  122

    6460                      .dwattr $C$DW$790, DW_AT_TI_symbol_name("_MotorID")
    6461                      .dwattr $C$DW$790, DW_AT_data_member_location[DW_OP_plus_uconst 0x6e]
    6462                      .dwattr $C$DW$790, DW_AT_accessibility(DW_ACCESS_public)
    6463                      .dwendtag $C$DW$T$148
    6464              
    6465              $C$DW$T$206     .dwtag  DW_TAG_typedef, DW_AT_name("MOTOR_Obj")
    6466                      .dwattr $C$DW$T$206, DW_AT_type(*$C$DW$T$148)
    6467                      .dwattr $C$DW$T$206, DW_AT_language(DW_LANG_C)
    6468              $C$DW$T$40      .dwtag  DW_TAG_pointer_type
    6469                      .dwattr $C$DW$T$40, DW_AT_type(*$C$DW$T$148)
    6470                      .dwattr $C$DW$T$40, DW_AT_address_class(0x16)
    6471              $C$DW$T$41      .dwtag  DW_TAG_typedef, DW_AT_name("MOTOR_Handle")
    6472                      .dwattr $C$DW$T$41, DW_AT_type(*$C$DW$T$40)
    6473                      .dwattr $C$DW$T$41, DW_AT_language(DW_LANG_C)
    6474              $C$DW$791       .dwtag  DW_TAG_TI_far_type
    6475                      .dwattr $C$DW$791, DW_AT_type(*$C$DW$T$41)
    6476              $C$DW$T$207     .dwtag  DW_TAG_const_type
    6477                      .dwattr $C$DW$T$207, DW_AT_type(*$C$DW$791)
    6478              
    6479              $C$DW$T$152     .dwtag  DW_TAG_structure_type
    6480                      .dwattr $C$DW$T$152, DW_AT_name("_OFFSET_")
    6481                      .dwattr $C$DW$T$152, DW_AT_byte_size(0x10)
    6482              $C$DW$792       .dwtag  DW_TAG_member
    6483                      .dwattr $C$DW$792, DW_AT_type(*$C$DW$T$37)
    6484                      .dwattr $C$DW$792, DW_AT_name("value")
    6485                      .dwattr $C$DW$792, DW_AT_TI_symbol_name("_value")
    6486                      .dwattr $C$DW$792, DW_AT_data_member_location[DW_OP_plus_uconst 0x0]
    6487                      .dwattr $C$DW$792, DW_AT_accessibility(DW_ACCESS_public)
    6488              $C$DW$793       .dwtag  DW_TAG_member
    6489                      .dwattr $C$DW$793, DW_AT_type(*$C$DW$T$37)
    6490                      .dwattr $C$DW$793, DW_AT_name("bias")
    6491                      .dwattr $C$DW$793, DW_AT_TI_symbol_name("_bias")
    6492                      .dwattr $C$DW$793, DW_AT_data_member_location[DW_OP_plus_uconst 0x2]
    6493                      .dwattr $C$DW$793, DW_AT_accessibility(DW_ACCESS_public)
    6494              $C$DW$794       .dwtag  DW_TAG_member
    6495                      .dwattr $C$DW$794, DW_AT_type(*$C$DW$T$149)
    6496                      .dwattr $C$DW$794, DW_AT_name("filter")
    6497                      .dwattr $C$DW$794, DW_AT_TI_symbol_name("_filter")
    6498                      .dwattr $C$DW$794, DW_AT_data_member_location[DW_OP_plus_uconst 0x4]
    6499                      .dwattr $C$DW$794, DW_AT_accessibility(DW_ACCESS_public)
    6500              $C$DW$795       .dwtag  DW_TAG_member
    6501                      .dwattr $C$DW$795, DW_AT_type(*$C$DW$T$151)
    6502                      .dwattr $C$DW$795, DW_AT_name("filterHandle")
    6503                      .dwattr $C$DW$795, DW_AT_TI_symbol_name("_filterHandle")
    6504                      .dwattr $C$DW$795, DW_AT_data_member_location[DW_OP_plus_uconst 0xe]
    6505                      .dwattr $C$DW$795, DW_AT_accessibility(DW_ACCESS_public)
    6506                      .dwendtag $C$DW$T$152
    6507              
    6508              $C$DW$T$92      .dwtag  DW_TAG_typedef, DW_AT_name("OFFSET_Obj")
    6509                      .dwattr $C$DW$T$92, DW_AT_type(*$C$DW$T$152)
    6510                      .dwattr $C$DW$T$92, DW_AT_language(DW_LANG_C)
    6511              
    6512              $C$DW$T$93      .dwtag  DW_TAG_array_type
    6513                      .dwattr $C$DW$T$93, DW_AT_type(*$C$DW$T$92)
    6514                      .dwattr $C$DW$T$93, DW_AT_language(DW_LANG_C)
TMS320C2000 Assembler PC v6.2.5 Wed Nov 22 14:48:16 2017

Tools Copyright (c) 1996-2014 Texas Instruments Incorporated
C:\Users\wmj\AppData\Local\Temp\0222411                              PAGE  123

    6515                      .dwattr $C$DW$T$93, DW_AT_byte_size(0x30)
    6516              $C$DW$796       .dwtag  DW_TAG_subrange_type
    6517                      .dwattr $C$DW$796, DW_AT_upper_bound(0x02)
    6518                      .dwendtag $C$DW$T$93
    6519              
    6520              
    6521              $C$DW$T$20      .dwtag  DW_TAG_structure_type
    6522                      .dwattr $C$DW$T$20, DW_AT_name("_OFFSET_Obj_")
    6523                      .dwattr $C$DW$T$20, DW_AT_declaration
    6524                      .dwendtag $C$DW$T$20
    6525              
    6526              $C$DW$T$89      .dwtag  DW_TAG_pointer_type
    6527                      .dwattr $C$DW$T$89, DW_AT_type(*$C$DW$T$20)
    6528                      .dwattr $C$DW$T$89, DW_AT_address_class(0x16)
    6529              $C$DW$T$90      .dwtag  DW_TAG_typedef, DW_AT_name("OFFSET_Handle")
    6530                      .dwattr $C$DW$T$90, DW_AT_type(*$C$DW$T$89)
    6531                      .dwattr $C$DW$T$90, DW_AT_language(DW_LANG_C)
    6532              
    6533              $C$DW$T$91      .dwtag  DW_TAG_array_type
    6534                      .dwattr $C$DW$T$91, DW_AT_type(*$C$DW$T$90)
    6535                      .dwattr $C$DW$T$91, DW_AT_language(DW_LANG_C)
    6536                      .dwattr $C$DW$T$91, DW_AT_byte_size(0x06)
    6537              $C$DW$797       .dwtag  DW_TAG_subrange_type
    6538                      .dwattr $C$DW$797, DW_AT_upper_bound(0x02)
    6539                      .dwendtag $C$DW$T$91
    6540              
    6541              
    6542              $C$DW$T$153     .dwtag  DW_TAG_structure_type
    6543                      .dwattr $C$DW$T$153, DW_AT_name("_OSC_Obj_")
    6544                      .dwattr $C$DW$T$153, DW_AT_byte_size(0x03)
    6545              $C$DW$798       .dwtag  DW_TAG_member
    6546                      .dwattr $C$DW$798, DW_AT_type(*$C$DW$T$22)
    6547                      .dwattr $C$DW$798, DW_AT_name("INTOSC1TRIM")
    6548                      .dwattr $C$DW$798, DW_AT_TI_symbol_name("_INTOSC1TRIM")
    6549                      .dwattr $C$DW$798, DW_AT_data_member_location[DW_OP_plus_uconst 0x0]
    6550                      .dwattr $C$DW$798, DW_AT_accessibility(DW_ACCESS_public)
    6551              $C$DW$799       .dwtag  DW_TAG_member
    6552                      .dwattr $C$DW$799, DW_AT_type(*$C$DW$T$22)
    6553                      .dwattr $C$DW$799, DW_AT_name("rsvd_1")
    6554                      .dwattr $C$DW$799, DW_AT_TI_symbol_name("_rsvd_1")
    6555                      .dwattr $C$DW$799, DW_AT_data_member_location[DW_OP_plus_uconst 0x1]
    6556                      .dwattr $C$DW$799, DW_AT_accessibility(DW_ACCESS_public)
    6557              $C$DW$800       .dwtag  DW_TAG_member
    6558                      .dwattr $C$DW$800, DW_AT_type(*$C$DW$T$22)
    6559                      .dwattr $C$DW$800, DW_AT_name("INTOSC2TRIM")
    6560                      .dwattr $C$DW$800, DW_AT_TI_symbol_name("_INTOSC2TRIM")
    6561                      .dwattr $C$DW$800, DW_AT_data_member_location[DW_OP_plus_uconst 0x2]
    6562                      .dwattr $C$DW$800, DW_AT_accessibility(DW_ACCESS_public)
    6563                      .dwendtag $C$DW$T$153
    6564              
    6565              $C$DW$T$94      .dwtag  DW_TAG_pointer_type
    6566                      .dwattr $C$DW$T$94, DW_AT_type(*$C$DW$T$153)
    6567                      .dwattr $C$DW$T$94, DW_AT_address_class(0x16)
    6568              $C$DW$T$95      .dwtag  DW_TAG_typedef, DW_AT_name("OSC_Handle")
    6569                      .dwattr $C$DW$T$95, DW_AT_type(*$C$DW$T$94)
TMS320C2000 Assembler PC v6.2.5 Wed Nov 22 14:48:16 2017

Tools Copyright (c) 1996-2014 Texas Instruments Incorporated
C:\Users\wmj\AppData\Local\Temp\0222411                              PAGE  124

    6570                      .dwattr $C$DW$T$95, DW_AT_language(DW_LANG_C)
    6571              
    6572              $C$DW$T$154     .dwtag  DW_TAG_structure_type
    6573                      .dwattr $C$DW$T$154, DW_AT_name("_PIE_IERIFR_t")
    6574                      .dwattr $C$DW$T$154, DW_AT_byte_size(0x02)
    6575              $C$DW$801       .dwtag  DW_TAG_member
    6576                      .dwattr $C$DW$801, DW_AT_type(*$C$DW$T$22)
    6577                      .dwattr $C$DW$801, DW_AT_name("IER")
    6578                      .dwattr $C$DW$801, DW_AT_TI_symbol_name("_IER")
    6579                      .dwattr $C$DW$801, DW_AT_data_member_location[DW_OP_plus_uconst 0x0]
    6580                      .dwattr $C$DW$801, DW_AT_accessibility(DW_ACCESS_public)
    6581              $C$DW$802       .dwtag  DW_TAG_member
    6582                      .dwattr $C$DW$802, DW_AT_type(*$C$DW$T$22)
    6583                      .dwattr $C$DW$802, DW_AT_name("IFR")
    6584                      .dwattr $C$DW$802, DW_AT_TI_symbol_name("_IFR")
    6585                      .dwattr $C$DW$802, DW_AT_data_member_location[DW_OP_plus_uconst 0x1]
    6586                      .dwattr $C$DW$802, DW_AT_accessibility(DW_ACCESS_public)
    6587                      .dwendtag $C$DW$T$154
    6588              
    6589              $C$DW$T$155     .dwtag  DW_TAG_typedef, DW_AT_name("PIE_IERIFR_t")
    6590                      .dwattr $C$DW$T$155, DW_AT_type(*$C$DW$T$154)
    6591                      .dwattr $C$DW$T$155, DW_AT_language(DW_LANG_C)
    6592              $C$DW$803       .dwtag  DW_TAG_TI_far_type
    6593                      .dwattr $C$DW$803, DW_AT_type(*$C$DW$T$155)
    6594              $C$DW$T$156     .dwtag  DW_TAG_volatile_type
    6595                      .dwattr $C$DW$T$156, DW_AT_type(*$C$DW$803)
    6596              
    6597              $C$DW$T$157     .dwtag  DW_TAG_array_type
    6598                      .dwattr $C$DW$T$157, DW_AT_type(*$C$DW$T$156)
    6599                      .dwattr $C$DW$T$157, DW_AT_language(DW_LANG_C)
    6600                      .dwattr $C$DW$T$157, DW_AT_byte_size(0x18)
    6601              $C$DW$804       .dwtag  DW_TAG_subrange_type
    6602                      .dwattr $C$DW$804, DW_AT_upper_bound(0x0b)
    6603                      .dwendtag $C$DW$T$157
    6604              
    6605              
    6606              $C$DW$T$164     .dwtag  DW_TAG_structure_type
    6607                      .dwattr $C$DW$T$164, DW_AT_name("_PIE_Obj_")
    6608                      .dwattr $C$DW$T$164, DW_AT_byte_size(0x639c)
    6609              $C$DW$805       .dwtag  DW_TAG_member
    6610                      .dwattr $C$DW$805, DW_AT_type(*$C$DW$T$22)
    6611                      .dwattr $C$DW$805, DW_AT_name("PIECTRL")
    6612                      .dwattr $C$DW$805, DW_AT_TI_symbol_name("_PIECTRL")
    6613                      .dwattr $C$DW$805, DW_AT_data_member_location[DW_OP_plus_uconst 0x0]
    6614                      .dwattr $C$DW$805, DW_AT_accessibility(DW_ACCESS_public)
    6615              $C$DW$806       .dwtag  DW_TAG_member
    6616                      .dwattr $C$DW$806, DW_AT_type(*$C$DW$T$22)
    6617                      .dwattr $C$DW$806, DW_AT_name("PIEACK")
    6618                      .dwattr $C$DW$806, DW_AT_TI_symbol_name("_PIEACK")
    6619                      .dwattr $C$DW$806, DW_AT_data_member_location[DW_OP_plus_uconst 0x1]
    6620                      .dwattr $C$DW$806, DW_AT_accessibility(DW_ACCESS_public)
    6621              $C$DW$807       .dwtag  DW_TAG_member
    6622                      .dwattr $C$DW$807, DW_AT_type(*$C$DW$T$157)
    6623                      .dwattr $C$DW$807, DW_AT_name("PIEIER_PIEIFR")
    6624                      .dwattr $C$DW$807, DW_AT_TI_symbol_name("_PIEIER_PIEIFR")
TMS320C2000 Assembler PC v6.2.5 Wed Nov 22 14:48:16 2017

Tools Copyright (c) 1996-2014 Texas Instruments Incorporated
C:\Users\wmj\AppData\Local\Temp\0222411                              PAGE  125

    6625                      .dwattr $C$DW$807, DW_AT_data_member_location[DW_OP_plus_uconst 0x2]
    6626                      .dwattr $C$DW$807, DW_AT_accessibility(DW_ACCESS_public)
    6627              $C$DW$808       .dwtag  DW_TAG_member
    6628                      .dwattr $C$DW$808, DW_AT_type(*$C$DW$T$158)
    6629                      .dwattr $C$DW$808, DW_AT_name("rsvd_1")
    6630                      .dwattr $C$DW$808, DW_AT_TI_symbol_name("_rsvd_1")
    6631                      .dwattr $C$DW$808, DW_AT_data_member_location[DW_OP_plus_uconst 0x1a]
    6632                      .dwattr $C$DW$808, DW_AT_accessibility(DW_ACCESS_public)
    6633              $C$DW$809       .dwtag  DW_TAG_member
    6634                      .dwattr $C$DW$809, DW_AT_type(*$C$DW$T$162)
    6635                      .dwattr $C$DW$809, DW_AT_name("Reset")
    6636                      .dwattr $C$DW$809, DW_AT_TI_symbol_name("_Reset")
    6637                      .dwattr $C$DW$809, DW_AT_data_member_location[DW_OP_plus_uconst 0x20]
    6638                      .dwattr $C$DW$809, DW_AT_accessibility(DW_ACCESS_public)
    6639              $C$DW$810       .dwtag  DW_TAG_member
    6640                      .dwattr $C$DW$810, DW_AT_type(*$C$DW$T$162)
    6641                      .dwattr $C$DW$810, DW_AT_name("INT1")
    6642                      .dwattr $C$DW$810, DW_AT_TI_symbol_name("_INT1")
    6643                      .dwattr $C$DW$810, DW_AT_data_member_location[DW_OP_plus_uconst 0x22]
    6644                      .dwattr $C$DW$810, DW_AT_accessibility(DW_ACCESS_public)
    6645              $C$DW$811       .dwtag  DW_TAG_member
    6646                      .dwattr $C$DW$811, DW_AT_type(*$C$DW$T$162)
    6647                      .dwattr $C$DW$811, DW_AT_name("INT2")
    6648                      .dwattr $C$DW$811, DW_AT_TI_symbol_name("_INT2")
    6649                      .dwattr $C$DW$811, DW_AT_data_member_location[DW_OP_plus_uconst 0x24]
    6650                      .dwattr $C$DW$811, DW_AT_accessibility(DW_ACCESS_public)
    6651              $C$DW$812       .dwtag  DW_TAG_member
    6652                      .dwattr $C$DW$812, DW_AT_type(*$C$DW$T$162)
    6653                      .dwattr $C$DW$812, DW_AT_name("INT3")
    6654                      .dwattr $C$DW$812, DW_AT_TI_symbol_name("_INT3")
    6655                      .dwattr $C$DW$812, DW_AT_data_member_location[DW_OP_plus_uconst 0x26]
    6656                      .dwattr $C$DW$812, DW_AT_accessibility(DW_ACCESS_public)
    6657              $C$DW$813       .dwtag  DW_TAG_member
    6658                      .dwattr $C$DW$813, DW_AT_type(*$C$DW$T$162)
    6659                      .dwattr $C$DW$813, DW_AT_name("INT4")
    6660                      .dwattr $C$DW$813, DW_AT_TI_symbol_name("_INT4")
    6661                      .dwattr $C$DW$813, DW_AT_data_member_location[DW_OP_plus_uconst 0x28]
    6662                      .dwattr $C$DW$813, DW_AT_accessibility(DW_ACCESS_public)
    6663              $C$DW$814       .dwtag  DW_TAG_member
    6664                      .dwattr $C$DW$814, DW_AT_type(*$C$DW$T$162)
    6665                      .dwattr $C$DW$814, DW_AT_name("INT5")
    6666                      .dwattr $C$DW$814, DW_AT_TI_symbol_name("_INT5")
    6667                      .dwattr $C$DW$814, DW_AT_data_member_location[DW_OP_plus_uconst 0x2a]
    6668                      .dwattr $C$DW$814, DW_AT_accessibility(DW_ACCESS_public)
    6669              $C$DW$815       .dwtag  DW_TAG_member
    6670                      .dwattr $C$DW$815, DW_AT_type(*$C$DW$T$162)
    6671                      .dwattr $C$DW$815, DW_AT_name("INT6")
    6672                      .dwattr $C$DW$815, DW_AT_TI_symbol_name("_INT6")
    6673                      .dwattr $C$DW$815, DW_AT_data_member_location[DW_OP_plus_uconst 0x2c]
    6674                      .dwattr $C$DW$815, DW_AT_accessibility(DW_ACCESS_public)
    6675              $C$DW$816       .dwtag  DW_TAG_member
    6676                      .dwattr $C$DW$816, DW_AT_type(*$C$DW$T$162)
    6677                      .dwattr $C$DW$816, DW_AT_name("INT7")
    6678                      .dwattr $C$DW$816, DW_AT_TI_symbol_name("_INT7")
    6679                      .dwattr $C$DW$816, DW_AT_data_member_location[DW_OP_plus_uconst 0x2e]
TMS320C2000 Assembler PC v6.2.5 Wed Nov 22 14:48:16 2017

Tools Copyright (c) 1996-2014 Texas Instruments Incorporated
C:\Users\wmj\AppData\Local\Temp\0222411                              PAGE  126

    6680                      .dwattr $C$DW$816, DW_AT_accessibility(DW_ACCESS_public)
    6681              $C$DW$817       .dwtag  DW_TAG_member
    6682                      .dwattr $C$DW$817, DW_AT_type(*$C$DW$T$162)
    6683                      .dwattr $C$DW$817, DW_AT_name("INT8")
    6684                      .dwattr $C$DW$817, DW_AT_TI_symbol_name("_INT8")
    6685                      .dwattr $C$DW$817, DW_AT_data_member_location[DW_OP_plus_uconst 0x30]
    6686                      .dwattr $C$DW$817, DW_AT_accessibility(DW_ACCESS_public)
    6687              $C$DW$818       .dwtag  DW_TAG_member
    6688                      .dwattr $C$DW$818, DW_AT_type(*$C$DW$T$162)
    6689                      .dwattr $C$DW$818, DW_AT_name("INT9")
    6690                      .dwattr $C$DW$818, DW_AT_TI_symbol_name("_INT9")
    6691                      .dwattr $C$DW$818, DW_AT_data_member_location[DW_OP_plus_uconst 0x32]
    6692                      .dwattr $C$DW$818, DW_AT_accessibility(DW_ACCESS_public)
    6693              $C$DW$819       .dwtag  DW_TAG_member
    6694                      .dwattr $C$DW$819, DW_AT_type(*$C$DW$T$162)
    6695                      .dwattr $C$DW$819, DW_AT_name("INT10")
    6696                      .dwattr $C$DW$819, DW_AT_TI_symbol_name("_INT10")
    6697                      .dwattr $C$DW$819, DW_AT_data_member_location[DW_OP_plus_uconst 0x34]
    6698                      .dwattr $C$DW$819, DW_AT_accessibility(DW_ACCESS_public)
    6699              $C$DW$820       .dwtag  DW_TAG_member
    6700                      .dwattr $C$DW$820, DW_AT_type(*$C$DW$T$162)
    6701                      .dwattr $C$DW$820, DW_AT_name("INT11")
    6702                      .dwattr $C$DW$820, DW_AT_TI_symbol_name("_INT11")
    6703                      .dwattr $C$DW$820, DW_AT_data_member_location[DW_OP_plus_uconst 0x36]
    6704                      .dwattr $C$DW$820, DW_AT_accessibility(DW_ACCESS_public)
    6705              $C$DW$821       .dwtag  DW_TAG_member
    6706                      .dwattr $C$DW$821, DW_AT_type(*$C$DW$T$162)
    6707                      .dwattr $C$DW$821, DW_AT_name("INT12")
    6708                      .dwattr $C$DW$821, DW_AT_TI_symbol_name("_INT12")
    6709                      .dwattr $C$DW$821, DW_AT_data_member_location[DW_OP_plus_uconst 0x38]
    6710                      .dwattr $C$DW$821, DW_AT_accessibility(DW_ACCESS_public)
    6711              $C$DW$822       .dwtag  DW_TAG_member
    6712                      .dwattr $C$DW$822, DW_AT_type(*$C$DW$T$162)
    6713                      .dwattr $C$DW$822, DW_AT_name("TINT1")
    6714                      .dwattr $C$DW$822, DW_AT_TI_symbol_name("_TINT1")
    6715                      .dwattr $C$DW$822, DW_AT_data_member_location[DW_OP_plus_uconst 0x3a]
    6716                      .dwattr $C$DW$822, DW_AT_accessibility(DW_ACCESS_public)
    6717              $C$DW$823       .dwtag  DW_TAG_member
    6718                      .dwattr $C$DW$823, DW_AT_type(*$C$DW$T$162)
    6719                      .dwattr $C$DW$823, DW_AT_name("TINT2")
    6720                      .dwattr $C$DW$823, DW_AT_TI_symbol_name("_TINT2")
    6721                      .dwattr $C$DW$823, DW_AT_data_member_location[DW_OP_plus_uconst 0x3c]
    6722                      .dwattr $C$DW$823, DW_AT_accessibility(DW_ACCESS_public)
    6723              $C$DW$824       .dwtag  DW_TAG_member
    6724                      .dwattr $C$DW$824, DW_AT_type(*$C$DW$T$162)
    6725                      .dwattr $C$DW$824, DW_AT_name("DATALOG")
    6726                      .dwattr $C$DW$824, DW_AT_TI_symbol_name("_DATALOG")
    6727                      .dwattr $C$DW$824, DW_AT_data_member_location[DW_OP_plus_uconst 0x3e]
    6728                      .dwattr $C$DW$824, DW_AT_accessibility(DW_ACCESS_public)
    6729              $C$DW$825       .dwtag  DW_TAG_member
    6730                      .dwattr $C$DW$825, DW_AT_type(*$C$DW$T$162)
    6731                      .dwattr $C$DW$825, DW_AT_name("RTOSINT")
    6732                      .dwattr $C$DW$825, DW_AT_TI_symbol_name("_RTOSINT")
    6733                      .dwattr $C$DW$825, DW_AT_data_member_location[DW_OP_plus_uconst 0x40]
    6734                      .dwattr $C$DW$825, DW_AT_accessibility(DW_ACCESS_public)
TMS320C2000 Assembler PC v6.2.5 Wed Nov 22 14:48:16 2017

Tools Copyright (c) 1996-2014 Texas Instruments Incorporated
C:\Users\wmj\AppData\Local\Temp\0222411                              PAGE  127

    6735              $C$DW$826       .dwtag  DW_TAG_member
    6736                      .dwattr $C$DW$826, DW_AT_type(*$C$DW$T$162)
    6737                      .dwattr $C$DW$826, DW_AT_name("EMUINT")
    6738                      .dwattr $C$DW$826, DW_AT_TI_symbol_name("_EMUINT")
    6739                      .dwattr $C$DW$826, DW_AT_data_member_location[DW_OP_plus_uconst 0x42]
    6740                      .dwattr $C$DW$826, DW_AT_accessibility(DW_ACCESS_public)
    6741              $C$DW$827       .dwtag  DW_TAG_member
    6742                      .dwattr $C$DW$827, DW_AT_type(*$C$DW$T$162)
    6743                      .dwattr $C$DW$827, DW_AT_name("NMI")
    6744                      .dwattr $C$DW$827, DW_AT_TI_symbol_name("_NMI")
    6745                      .dwattr $C$DW$827, DW_AT_data_member_location[DW_OP_plus_uconst 0x44]
    6746                      .dwattr $C$DW$827, DW_AT_accessibility(DW_ACCESS_public)
    6747              $C$DW$828       .dwtag  DW_TAG_member
    6748                      .dwattr $C$DW$828, DW_AT_type(*$C$DW$T$162)
    6749                      .dwattr $C$DW$828, DW_AT_name("ILLEGAL")
    6750                      .dwattr $C$DW$828, DW_AT_TI_symbol_name("_ILLEGAL")
    6751                      .dwattr $C$DW$828, DW_AT_data_member_location[DW_OP_plus_uconst 0x46]
    6752                      .dwattr $C$DW$828, DW_AT_accessibility(DW_ACCESS_public)
    6753              $C$DW$829       .dwtag  DW_TAG_member
    6754                      .dwattr $C$DW$829, DW_AT_type(*$C$DW$T$162)
    6755                      .dwattr $C$DW$829, DW_AT_name("USER1")
    6756                      .dwattr $C$DW$829, DW_AT_TI_symbol_name("_USER1")
    6757                      .dwattr $C$DW$829, DW_AT_data_member_location[DW_OP_plus_uconst 0x48]
    6758                      .dwattr $C$DW$829, DW_AT_accessibility(DW_ACCESS_public)
    6759              $C$DW$830       .dwtag  DW_TAG_member
    6760                      .dwattr $C$DW$830, DW_AT_type(*$C$DW$T$162)
    6761                      .dwattr $C$DW$830, DW_AT_name("USER2")
    6762                      .dwattr $C$DW$830, DW_AT_TI_symbol_name("_USER2")
    6763                      .dwattr $C$DW$830, DW_AT_data_member_location[DW_OP_plus_uconst 0x4a]
    6764                      .dwattr $C$DW$830, DW_AT_accessibility(DW_ACCESS_public)
    6765              $C$DW$831       .dwtag  DW_TAG_member
    6766                      .dwattr $C$DW$831, DW_AT_type(*$C$DW$T$162)
    6767                      .dwattr $C$DW$831, DW_AT_name("USER3")
    6768                      .dwattr $C$DW$831, DW_AT_TI_symbol_name("_USER3")
    6769                      .dwattr $C$DW$831, DW_AT_data_member_location[DW_OP_plus_uconst 0x4c]
    6770                      .dwattr $C$DW$831, DW_AT_accessibility(DW_ACCESS_public)
    6771              $C$DW$832       .dwtag  DW_TAG_member
    6772                      .dwattr $C$DW$832, DW_AT_type(*$C$DW$T$162)
    6773                      .dwattr $C$DW$832, DW_AT_name("USER4")
    6774                      .dwattr $C$DW$832, DW_AT_TI_symbol_name("_USER4")
    6775                      .dwattr $C$DW$832, DW_AT_data_member_location[DW_OP_plus_uconst 0x4e]
    6776                      .dwattr $C$DW$832, DW_AT_accessibility(DW_ACCESS_public)
    6777              $C$DW$833       .dwtag  DW_TAG_member
    6778                      .dwattr $C$DW$833, DW_AT_type(*$C$DW$T$162)
    6779                      .dwattr $C$DW$833, DW_AT_name("USER5")
    6780                      .dwattr $C$DW$833, DW_AT_TI_symbol_name("_USER5")
    6781                      .dwattr $C$DW$833, DW_AT_data_member_location[DW_OP_plus_uconst 0x50]
    6782                      .dwattr $C$DW$833, DW_AT_accessibility(DW_ACCESS_public)
    6783              $C$DW$834       .dwtag  DW_TAG_member
    6784                      .dwattr $C$DW$834, DW_AT_type(*$C$DW$T$162)
    6785                      .dwattr $C$DW$834, DW_AT_name("USER6")
    6786                      .dwattr $C$DW$834, DW_AT_TI_symbol_name("_USER6")
    6787                      .dwattr $C$DW$834, DW_AT_data_member_location[DW_OP_plus_uconst 0x52]
    6788                      .dwattr $C$DW$834, DW_AT_accessibility(DW_ACCESS_public)
    6789              $C$DW$835       .dwtag  DW_TAG_member
TMS320C2000 Assembler PC v6.2.5 Wed Nov 22 14:48:16 2017

Tools Copyright (c) 1996-2014 Texas Instruments Incorporated
C:\Users\wmj\AppData\Local\Temp\0222411                              PAGE  128

    6790                      .dwattr $C$DW$835, DW_AT_type(*$C$DW$T$162)
    6791                      .dwattr $C$DW$835, DW_AT_name("USER7")
    6792                      .dwattr $C$DW$835, DW_AT_TI_symbol_name("_USER7")
    6793                      .dwattr $C$DW$835, DW_AT_data_member_location[DW_OP_plus_uconst 0x54]
    6794                      .dwattr $C$DW$835, DW_AT_accessibility(DW_ACCESS_public)
    6795              $C$DW$836       .dwtag  DW_TAG_member
    6796                      .dwattr $C$DW$836, DW_AT_type(*$C$DW$T$162)
    6797                      .dwattr $C$DW$836, DW_AT_name("USER8")
    6798                      .dwattr $C$DW$836, DW_AT_TI_symbol_name("_USER8")
    6799                      .dwattr $C$DW$836, DW_AT_data_member_location[DW_OP_plus_uconst 0x56]
    6800                      .dwattr $C$DW$836, DW_AT_accessibility(DW_ACCESS_public)
    6801              $C$DW$837       .dwtag  DW_TAG_member
    6802                      .dwattr $C$DW$837, DW_AT_type(*$C$DW$T$162)
    6803                      .dwattr $C$DW$837, DW_AT_name("USER9")
    6804                      .dwattr $C$DW$837, DW_AT_TI_symbol_name("_USER9")
    6805                      .dwattr $C$DW$837, DW_AT_data_member_location[DW_OP_plus_uconst 0x58]
    6806                      .dwattr $C$DW$837, DW_AT_accessibility(DW_ACCESS_public)
    6807              $C$DW$838       .dwtag  DW_TAG_member
    6808                      .dwattr $C$DW$838, DW_AT_type(*$C$DW$T$162)
    6809                      .dwattr $C$DW$838, DW_AT_name("USER10")
    6810                      .dwattr $C$DW$838, DW_AT_TI_symbol_name("_USER10")
    6811                      .dwattr $C$DW$838, DW_AT_data_member_location[DW_OP_plus_uconst 0x5a]
    6812                      .dwattr $C$DW$838, DW_AT_accessibility(DW_ACCESS_public)
    6813              $C$DW$839       .dwtag  DW_TAG_member
    6814                      .dwattr $C$DW$839, DW_AT_type(*$C$DW$T$162)
    6815                      .dwattr $C$DW$839, DW_AT_name("USER11")
    6816                      .dwattr $C$DW$839, DW_AT_TI_symbol_name("_USER11")
    6817                      .dwattr $C$DW$839, DW_AT_data_member_location[DW_OP_plus_uconst 0x5c]
    6818                      .dwattr $C$DW$839, DW_AT_accessibility(DW_ACCESS_public)
    6819              $C$DW$840       .dwtag  DW_TAG_member
    6820                      .dwattr $C$DW$840, DW_AT_type(*$C$DW$T$162)
    6821                      .dwattr $C$DW$840, DW_AT_name("USER12")
    6822                      .dwattr $C$DW$840, DW_AT_TI_symbol_name("_USER12")
    6823                      .dwattr $C$DW$840, DW_AT_data_member_location[DW_OP_plus_uconst 0x5e]
    6824                      .dwattr $C$DW$840, DW_AT_accessibility(DW_ACCESS_public)
    6825              $C$DW$841       .dwtag  DW_TAG_member
    6826                      .dwattr $C$DW$841, DW_AT_type(*$C$DW$T$162)
    6827                      .dwattr $C$DW$841, DW_AT_name("ADCINT1_HP")
    6828                      .dwattr $C$DW$841, DW_AT_TI_symbol_name("_ADCINT1_HP")
    6829                      .dwattr $C$DW$841, DW_AT_data_member_location[DW_OP_plus_uconst 0x60]
    6830                      .dwattr $C$DW$841, DW_AT_accessibility(DW_ACCESS_public)
    6831              $C$DW$842       .dwtag  DW_TAG_member
    6832                      .dwattr $C$DW$842, DW_AT_type(*$C$DW$T$162)
    6833                      .dwattr $C$DW$842, DW_AT_name("ADCINT2_HP")
    6834                      .dwattr $C$DW$842, DW_AT_TI_symbol_name("_ADCINT2_HP")
    6835                      .dwattr $C$DW$842, DW_AT_data_member_location[DW_OP_plus_uconst 0x62]
    6836                      .dwattr $C$DW$842, DW_AT_accessibility(DW_ACCESS_public)
    6837              $C$DW$843       .dwtag  DW_TAG_member
    6838                      .dwattr $C$DW$843, DW_AT_type(*$C$DW$T$162)
    6839                      .dwattr $C$DW$843, DW_AT_name("rsvd1_3")
    6840                      .dwattr $C$DW$843, DW_AT_TI_symbol_name("_rsvd1_3")
    6841                      .dwattr $C$DW$843, DW_AT_data_member_location[DW_OP_plus_uconst 0x64]
    6842                      .dwattr $C$DW$843, DW_AT_accessibility(DW_ACCESS_public)
    6843              $C$DW$844       .dwtag  DW_TAG_member
    6844                      .dwattr $C$DW$844, DW_AT_type(*$C$DW$T$162)
TMS320C2000 Assembler PC v6.2.5 Wed Nov 22 14:48:16 2017

Tools Copyright (c) 1996-2014 Texas Instruments Incorporated
C:\Users\wmj\AppData\Local\Temp\0222411                              PAGE  129

    6845                      .dwattr $C$DW$844, DW_AT_name("XINT1")
    6846                      .dwattr $C$DW$844, DW_AT_TI_symbol_name("_XINT1")
    6847                      .dwattr $C$DW$844, DW_AT_data_member_location[DW_OP_plus_uconst 0x66]
    6848                      .dwattr $C$DW$844, DW_AT_accessibility(DW_ACCESS_public)
    6849              $C$DW$845       .dwtag  DW_TAG_member
    6850                      .dwattr $C$DW$845, DW_AT_type(*$C$DW$T$162)
    6851                      .dwattr $C$DW$845, DW_AT_name("XINT2")
    6852                      .dwattr $C$DW$845, DW_AT_TI_symbol_name("_XINT2")
    6853                      .dwattr $C$DW$845, DW_AT_data_member_location[DW_OP_plus_uconst 0x68]
    6854                      .dwattr $C$DW$845, DW_AT_accessibility(DW_ACCESS_public)
    6855              $C$DW$846       .dwtag  DW_TAG_member
    6856                      .dwattr $C$DW$846, DW_AT_type(*$C$DW$T$162)
    6857                      .dwattr $C$DW$846, DW_AT_name("ADCINT9")
    6858                      .dwattr $C$DW$846, DW_AT_TI_symbol_name("_ADCINT9")
    6859                      .dwattr $C$DW$846, DW_AT_data_member_location[DW_OP_plus_uconst 0x6a]
    6860                      .dwattr $C$DW$846, DW_AT_accessibility(DW_ACCESS_public)
    6861              $C$DW$847       .dwtag  DW_TAG_member
    6862                      .dwattr $C$DW$847, DW_AT_type(*$C$DW$T$162)
    6863                      .dwattr $C$DW$847, DW_AT_name("TINT0")
    6864                      .dwattr $C$DW$847, DW_AT_TI_symbol_name("_TINT0")
    6865                      .dwattr $C$DW$847, DW_AT_data_member_location[DW_OP_plus_uconst 0x6c]
    6866                      .dwattr $C$DW$847, DW_AT_accessibility(DW_ACCESS_public)
    6867              $C$DW$848       .dwtag  DW_TAG_member
    6868                      .dwattr $C$DW$848, DW_AT_type(*$C$DW$T$162)
    6869                      .dwattr $C$DW$848, DW_AT_name("WAKEINT")
    6870                      .dwattr $C$DW$848, DW_AT_TI_symbol_name("_WAKEINT")
    6871                      .dwattr $C$DW$848, DW_AT_data_member_location[DW_OP_plus_uconst 0x6e]
    6872                      .dwattr $C$DW$848, DW_AT_accessibility(DW_ACCESS_public)
    6873              $C$DW$849       .dwtag  DW_TAG_member
    6874                      .dwattr $C$DW$849, DW_AT_type(*$C$DW$T$162)
    6875                      .dwattr $C$DW$849, DW_AT_name("EPWM1_TZINT")
    6876                      .dwattr $C$DW$849, DW_AT_TI_symbol_name("_EPWM1_TZINT")
    6877                      .dwattr $C$DW$849, DW_AT_data_member_location[DW_OP_plus_uconst 0x70]
    6878                      .dwattr $C$DW$849, DW_AT_accessibility(DW_ACCESS_public)
    6879              $C$DW$850       .dwtag  DW_TAG_member
    6880                      .dwattr $C$DW$850, DW_AT_type(*$C$DW$T$162)
    6881                      .dwattr $C$DW$850, DW_AT_name("EPWM2_TZINT")
    6882                      .dwattr $C$DW$850, DW_AT_TI_symbol_name("_EPWM2_TZINT")
    6883                      .dwattr $C$DW$850, DW_AT_data_member_location[DW_OP_plus_uconst 0x72]
    6884                      .dwattr $C$DW$850, DW_AT_accessibility(DW_ACCESS_public)
    6885              $C$DW$851       .dwtag  DW_TAG_member
    6886                      .dwattr $C$DW$851, DW_AT_type(*$C$DW$T$162)
    6887                      .dwattr $C$DW$851, DW_AT_name("EPWM3_TZINT")
    6888                      .dwattr $C$DW$851, DW_AT_TI_symbol_name("_EPWM3_TZINT")
    6889                      .dwattr $C$DW$851, DW_AT_data_member_location[DW_OP_plus_uconst 0x74]
    6890                      .dwattr $C$DW$851, DW_AT_accessibility(DW_ACCESS_public)
    6891              $C$DW$852       .dwtag  DW_TAG_member
    6892                      .dwattr $C$DW$852, DW_AT_type(*$C$DW$T$162)
    6893                      .dwattr $C$DW$852, DW_AT_name("EPWM4_TZINT")
    6894                      .dwattr $C$DW$852, DW_AT_TI_symbol_name("_EPWM4_TZINT")
    6895                      .dwattr $C$DW$852, DW_AT_data_member_location[DW_OP_plus_uconst 0x76]
    6896                      .dwattr $C$DW$852, DW_AT_accessibility(DW_ACCESS_public)
    6897              $C$DW$853       .dwtag  DW_TAG_member
    6898                      .dwattr $C$DW$853, DW_AT_type(*$C$DW$T$162)
    6899                      .dwattr $C$DW$853, DW_AT_name("rsvd2_5")
TMS320C2000 Assembler PC v6.2.5 Wed Nov 22 14:48:16 2017

Tools Copyright (c) 1996-2014 Texas Instruments Incorporated
C:\Users\wmj\AppData\Local\Temp\0222411                              PAGE  130

    6900                      .dwattr $C$DW$853, DW_AT_TI_symbol_name("_rsvd2_5")
    6901                      .dwattr $C$DW$853, DW_AT_data_member_location[DW_OP_plus_uconst 0x78]
    6902                      .dwattr $C$DW$853, DW_AT_accessibility(DW_ACCESS_public)
    6903              $C$DW$854       .dwtag  DW_TAG_member
    6904                      .dwattr $C$DW$854, DW_AT_type(*$C$DW$T$162)
    6905                      .dwattr $C$DW$854, DW_AT_name("rsvd2_6")
    6906                      .dwattr $C$DW$854, DW_AT_TI_symbol_name("_rsvd2_6")
    6907                      .dwattr $C$DW$854, DW_AT_data_member_location[DW_OP_plus_uconst 0x7a]
    6908                      .dwattr $C$DW$854, DW_AT_accessibility(DW_ACCESS_public)
    6909              $C$DW$855       .dwtag  DW_TAG_member
    6910                      .dwattr $C$DW$855, DW_AT_type(*$C$DW$T$162)
    6911                      .dwattr $C$DW$855, DW_AT_name("rsvd2_7")
    6912                      .dwattr $C$DW$855, DW_AT_TI_symbol_name("_rsvd2_7")
    6913                      .dwattr $C$DW$855, DW_AT_data_member_location[DW_OP_plus_uconst 0x7c]
    6914                      .dwattr $C$DW$855, DW_AT_accessibility(DW_ACCESS_public)
    6915              $C$DW$856       .dwtag  DW_TAG_member
    6916                      .dwattr $C$DW$856, DW_AT_type(*$C$DW$T$162)
    6917                      .dwattr $C$DW$856, DW_AT_name("rsvd2_8")
    6918                      .dwattr $C$DW$856, DW_AT_TI_symbol_name("_rsvd2_8")
    6919                      .dwattr $C$DW$856, DW_AT_data_member_location[DW_OP_plus_uconst 0x7e]
    6920                      .dwattr $C$DW$856, DW_AT_accessibility(DW_ACCESS_public)
    6921              $C$DW$857       .dwtag  DW_TAG_member
    6922                      .dwattr $C$DW$857, DW_AT_type(*$C$DW$T$162)
    6923                      .dwattr $C$DW$857, DW_AT_name("EPWM1_INT")
    6924                      .dwattr $C$DW$857, DW_AT_TI_symbol_name("_EPWM1_INT")
    6925                      .dwattr $C$DW$857, DW_AT_data_member_location[DW_OP_plus_uconst 0x80]
    6926                      .dwattr $C$DW$857, DW_AT_accessibility(DW_ACCESS_public)
    6927              $C$DW$858       .dwtag  DW_TAG_member
    6928                      .dwattr $C$DW$858, DW_AT_type(*$C$DW$T$162)
    6929                      .dwattr $C$DW$858, DW_AT_name("EPWM2_INT")
    6930                      .dwattr $C$DW$858, DW_AT_TI_symbol_name("_EPWM2_INT")
    6931                      .dwattr $C$DW$858, DW_AT_data_member_location[DW_OP_plus_uconst 0x82]
    6932                      .dwattr $C$DW$858, DW_AT_accessibility(DW_ACCESS_public)
    6933              $C$DW$859       .dwtag  DW_TAG_member
    6934                      .dwattr $C$DW$859, DW_AT_type(*$C$DW$T$162)
    6935                      .dwattr $C$DW$859, DW_AT_name("EPWM3_INT")
    6936                      .dwattr $C$DW$859, DW_AT_TI_symbol_name("_EPWM3_INT")
    6937                      .dwattr $C$DW$859, DW_AT_data_member_location[DW_OP_plus_uconst 0x84]
    6938                      .dwattr $C$DW$859, DW_AT_accessibility(DW_ACCESS_public)
    6939              $C$DW$860       .dwtag  DW_TAG_member
    6940                      .dwattr $C$DW$860, DW_AT_type(*$C$DW$T$162)
    6941                      .dwattr $C$DW$860, DW_AT_name("EPWM4_INT")
    6942                      .dwattr $C$DW$860, DW_AT_TI_symbol_name("_EPWM4_INT")
    6943                      .dwattr $C$DW$860, DW_AT_data_member_location[DW_OP_plus_uconst 0x86]
    6944                      .dwattr $C$DW$860, DW_AT_accessibility(DW_ACCESS_public)
    6945              $C$DW$861       .dwtag  DW_TAG_member
    6946                      .dwattr $C$DW$861, DW_AT_type(*$C$DW$T$162)
    6947                      .dwattr $C$DW$861, DW_AT_name("rsvd3_5")
    6948                      .dwattr $C$DW$861, DW_AT_TI_symbol_name("_rsvd3_5")
    6949                      .dwattr $C$DW$861, DW_AT_data_member_location[DW_OP_plus_uconst 0x88]
    6950                      .dwattr $C$DW$861, DW_AT_accessibility(DW_ACCESS_public)
    6951              $C$DW$862       .dwtag  DW_TAG_member
    6952                      .dwattr $C$DW$862, DW_AT_type(*$C$DW$T$162)
    6953                      .dwattr $C$DW$862, DW_AT_name("rsvd3_6")
    6954                      .dwattr $C$DW$862, DW_AT_TI_symbol_name("_rsvd3_6")
TMS320C2000 Assembler PC v6.2.5 Wed Nov 22 14:48:16 2017

Tools Copyright (c) 1996-2014 Texas Instruments Incorporated
C:\Users\wmj\AppData\Local\Temp\0222411                              PAGE  131

    6955                      .dwattr $C$DW$862, DW_AT_data_member_location[DW_OP_plus_uconst 0x8a]
    6956                      .dwattr $C$DW$862, DW_AT_accessibility(DW_ACCESS_public)
    6957              $C$DW$863       .dwtag  DW_TAG_member
    6958                      .dwattr $C$DW$863, DW_AT_type(*$C$DW$T$162)
    6959                      .dwattr $C$DW$863, DW_AT_name("rsvd3_7")
    6960                      .dwattr $C$DW$863, DW_AT_TI_symbol_name("_rsvd3_7")
    6961                      .dwattr $C$DW$863, DW_AT_data_member_location[DW_OP_plus_uconst 0x8c]
    6962                      .dwattr $C$DW$863, DW_AT_accessibility(DW_ACCESS_public)
    6963              $C$DW$864       .dwtag  DW_TAG_member
    6964                      .dwattr $C$DW$864, DW_AT_type(*$C$DW$T$162)
    6965                      .dwattr $C$DW$864, DW_AT_name("rsvd3_8")
    6966                      .dwattr $C$DW$864, DW_AT_TI_symbol_name("_rsvd3_8")
    6967                      .dwattr $C$DW$864, DW_AT_data_member_location[DW_OP_plus_uconst 0x8e]
    6968                      .dwattr $C$DW$864, DW_AT_accessibility(DW_ACCESS_public)
    6969              $C$DW$865       .dwtag  DW_TAG_member
    6970                      .dwattr $C$DW$865, DW_AT_type(*$C$DW$T$162)
    6971                      .dwattr $C$DW$865, DW_AT_name("ECAP1_INT")
    6972                      .dwattr $C$DW$865, DW_AT_TI_symbol_name("_ECAP1_INT")
    6973                      .dwattr $C$DW$865, DW_AT_data_member_location[DW_OP_plus_uconst 0x90]
    6974                      .dwattr $C$DW$865, DW_AT_accessibility(DW_ACCESS_public)
    6975              $C$DW$866       .dwtag  DW_TAG_member
    6976                      .dwattr $C$DW$866, DW_AT_type(*$C$DW$T$162)
    6977                      .dwattr $C$DW$866, DW_AT_name("rsvd4_2")
    6978                      .dwattr $C$DW$866, DW_AT_TI_symbol_name("_rsvd4_2")
    6979                      .dwattr $C$DW$866, DW_AT_data_member_location[DW_OP_plus_uconst 0x92]
    6980                      .dwattr $C$DW$866, DW_AT_accessibility(DW_ACCESS_public)
    6981              $C$DW$867       .dwtag  DW_TAG_member
    6982                      .dwattr $C$DW$867, DW_AT_type(*$C$DW$T$162)
    6983                      .dwattr $C$DW$867, DW_AT_name("rsvd4_3")
    6984                      .dwattr $C$DW$867, DW_AT_TI_symbol_name("_rsvd4_3")
    6985                      .dwattr $C$DW$867, DW_AT_data_member_location[DW_OP_plus_uconst 0x94]
    6986                      .dwattr $C$DW$867, DW_AT_accessibility(DW_ACCESS_public)
    6987              $C$DW$868       .dwtag  DW_TAG_member
    6988                      .dwattr $C$DW$868, DW_AT_type(*$C$DW$T$162)
    6989                      .dwattr $C$DW$868, DW_AT_name("rsvd4_4")
    6990                      .dwattr $C$DW$868, DW_AT_TI_symbol_name("_rsvd4_4")
    6991                      .dwattr $C$DW$868, DW_AT_data_member_location[DW_OP_plus_uconst 0x96]
    6992                      .dwattr $C$DW$868, DW_AT_accessibility(DW_ACCESS_public)
    6993              $C$DW$869       .dwtag  DW_TAG_member
    6994                      .dwattr $C$DW$869, DW_AT_type(*$C$DW$T$162)
    6995                      .dwattr $C$DW$869, DW_AT_name("rsvd4_5")
    6996                      .dwattr $C$DW$869, DW_AT_TI_symbol_name("_rsvd4_5")
    6997                      .dwattr $C$DW$869, DW_AT_data_member_location[DW_OP_plus_uconst 0x98]
    6998                      .dwattr $C$DW$869, DW_AT_accessibility(DW_ACCESS_public)
    6999              $C$DW$870       .dwtag  DW_TAG_member
    7000                      .dwattr $C$DW$870, DW_AT_type(*$C$DW$T$162)
    7001                      .dwattr $C$DW$870, DW_AT_name("rsvd4_6")
    7002                      .dwattr $C$DW$870, DW_AT_TI_symbol_name("_rsvd4_6")
    7003                      .dwattr $C$DW$870, DW_AT_data_member_location[DW_OP_plus_uconst 0x9a]
    7004                      .dwattr $C$DW$870, DW_AT_accessibility(DW_ACCESS_public)
    7005              $C$DW$871       .dwtag  DW_TAG_member
    7006                      .dwattr $C$DW$871, DW_AT_type(*$C$DW$T$162)
    7007                      .dwattr $C$DW$871, DW_AT_name("rsvd4_7")
    7008                      .dwattr $C$DW$871, DW_AT_TI_symbol_name("_rsvd4_7")
    7009                      .dwattr $C$DW$871, DW_AT_data_member_location[DW_OP_plus_uconst 0x9c]
TMS320C2000 Assembler PC v6.2.5 Wed Nov 22 14:48:16 2017

Tools Copyright (c) 1996-2014 Texas Instruments Incorporated
C:\Users\wmj\AppData\Local\Temp\0222411                              PAGE  132

    7010                      .dwattr $C$DW$871, DW_AT_accessibility(DW_ACCESS_public)
    7011              $C$DW$872       .dwtag  DW_TAG_member
    7012                      .dwattr $C$DW$872, DW_AT_type(*$C$DW$T$162)
    7013                      .dwattr $C$DW$872, DW_AT_name("rsvd4_8")
    7014                      .dwattr $C$DW$872, DW_AT_TI_symbol_name("_rsvd4_8")
    7015                      .dwattr $C$DW$872, DW_AT_data_member_location[DW_OP_plus_uconst 0x9e]
    7016                      .dwattr $C$DW$872, DW_AT_accessibility(DW_ACCESS_public)
    7017              $C$DW$873       .dwtag  DW_TAG_member
    7018                      .dwattr $C$DW$873, DW_AT_type(*$C$DW$T$162)
    7019                      .dwattr $C$DW$873, DW_AT_name("rsvd5_1")
    7020                      .dwattr $C$DW$873, DW_AT_TI_symbol_name("_rsvd5_1")
    7021                      .dwattr $C$DW$873, DW_AT_data_member_location[DW_OP_plus_uconst 0xa0]
    7022                      .dwattr $C$DW$873, DW_AT_accessibility(DW_ACCESS_public)
    7023              $C$DW$874       .dwtag  DW_TAG_member
    7024                      .dwattr $C$DW$874, DW_AT_type(*$C$DW$T$162)
    7025                      .dwattr $C$DW$874, DW_AT_name("rsvd5_2")
    7026                      .dwattr $C$DW$874, DW_AT_TI_symbol_name("_rsvd5_2")
    7027                      .dwattr $C$DW$874, DW_AT_data_member_location[DW_OP_plus_uconst 0xa2]
    7028                      .dwattr $C$DW$874, DW_AT_accessibility(DW_ACCESS_public)
    7029              $C$DW$875       .dwtag  DW_TAG_member
    7030                      .dwattr $C$DW$875, DW_AT_type(*$C$DW$T$162)
    7031                      .dwattr $C$DW$875, DW_AT_name("rsvd5_3")
    7032                      .dwattr $C$DW$875, DW_AT_TI_symbol_name("_rsvd5_3")
    7033                      .dwattr $C$DW$875, DW_AT_data_member_location[DW_OP_plus_uconst 0xa4]
    7034                      .dwattr $C$DW$875, DW_AT_accessibility(DW_ACCESS_public)
    7035              $C$DW$876       .dwtag  DW_TAG_member
    7036                      .dwattr $C$DW$876, DW_AT_type(*$C$DW$T$162)
    7037                      .dwattr $C$DW$876, DW_AT_name("rsvd5_4")
    7038                      .dwattr $C$DW$876, DW_AT_TI_symbol_name("_rsvd5_4")
    7039                      .dwattr $C$DW$876, DW_AT_data_member_location[DW_OP_plus_uconst 0xa6]
    7040                      .dwattr $C$DW$876, DW_AT_accessibility(DW_ACCESS_public)
    7041              $C$DW$877       .dwtag  DW_TAG_member
    7042                      .dwattr $C$DW$877, DW_AT_type(*$C$DW$T$162)
    7043                      .dwattr $C$DW$877, DW_AT_name("rsvd5_5")
    7044                      .dwattr $C$DW$877, DW_AT_TI_symbol_name("_rsvd5_5")
    7045                      .dwattr $C$DW$877, DW_AT_data_member_location[DW_OP_plus_uconst 0xa8]
    7046                      .dwattr $C$DW$877, DW_AT_accessibility(DW_ACCESS_public)
    7047              $C$DW$878       .dwtag  DW_TAG_member
    7048                      .dwattr $C$DW$878, DW_AT_type(*$C$DW$T$162)
    7049                      .dwattr $C$DW$878, DW_AT_name("rsvd5_6")
    7050                      .dwattr $C$DW$878, DW_AT_TI_symbol_name("_rsvd5_6")
    7051                      .dwattr $C$DW$878, DW_AT_data_member_location[DW_OP_plus_uconst 0xaa]
    7052                      .dwattr $C$DW$878, DW_AT_accessibility(DW_ACCESS_public)
    7053              $C$DW$879       .dwtag  DW_TAG_member
    7054                      .dwattr $C$DW$879, DW_AT_type(*$C$DW$T$162)
    7055                      .dwattr $C$DW$879, DW_AT_name("rsvd5_7")
    7056                      .dwattr $C$DW$879, DW_AT_TI_symbol_name("_rsvd5_7")
    7057                      .dwattr $C$DW$879, DW_AT_data_member_location[DW_OP_plus_uconst 0xac]
    7058                      .dwattr $C$DW$879, DW_AT_accessibility(DW_ACCESS_public)
    7059              $C$DW$880       .dwtag  DW_TAG_member
    7060                      .dwattr $C$DW$880, DW_AT_type(*$C$DW$T$162)
    7061                      .dwattr $C$DW$880, DW_AT_name("rsvd5_8")
    7062                      .dwattr $C$DW$880, DW_AT_TI_symbol_name("_rsvd5_8")
    7063                      .dwattr $C$DW$880, DW_AT_data_member_location[DW_OP_plus_uconst 0xae]
    7064                      .dwattr $C$DW$880, DW_AT_accessibility(DW_ACCESS_public)
TMS320C2000 Assembler PC v6.2.5 Wed Nov 22 14:48:16 2017

Tools Copyright (c) 1996-2014 Texas Instruments Incorporated
C:\Users\wmj\AppData\Local\Temp\0222411                              PAGE  133

    7065              $C$DW$881       .dwtag  DW_TAG_member
    7066                      .dwattr $C$DW$881, DW_AT_type(*$C$DW$T$162)
    7067                      .dwattr $C$DW$881, DW_AT_name("SPIRXINTA")
    7068                      .dwattr $C$DW$881, DW_AT_TI_symbol_name("_SPIRXINTA")
    7069                      .dwattr $C$DW$881, DW_AT_data_member_location[DW_OP_plus_uconst 0xb0]
    7070                      .dwattr $C$DW$881, DW_AT_accessibility(DW_ACCESS_public)
    7071              $C$DW$882       .dwtag  DW_TAG_member
    7072                      .dwattr $C$DW$882, DW_AT_type(*$C$DW$T$162)
    7073                      .dwattr $C$DW$882, DW_AT_name("SPITXINTA")
    7074                      .dwattr $C$DW$882, DW_AT_TI_symbol_name("_SPITXINTA")
    7075                      .dwattr $C$DW$882, DW_AT_data_member_location[DW_OP_plus_uconst 0xb2]
    7076                      .dwattr $C$DW$882, DW_AT_accessibility(DW_ACCESS_public)
    7077              $C$DW$883       .dwtag  DW_TAG_member
    7078                      .dwattr $C$DW$883, DW_AT_type(*$C$DW$T$162)
    7079                      .dwattr $C$DW$883, DW_AT_name("rsvd6_3")
    7080                      .dwattr $C$DW$883, DW_AT_TI_symbol_name("_rsvd6_3")
    7081                      .dwattr $C$DW$883, DW_AT_data_member_location[DW_OP_plus_uconst 0xb4]
    7082                      .dwattr $C$DW$883, DW_AT_accessibility(DW_ACCESS_public)
    7083              $C$DW$884       .dwtag  DW_TAG_member
    7084                      .dwattr $C$DW$884, DW_AT_type(*$C$DW$T$162)
    7085                      .dwattr $C$DW$884, DW_AT_name("rsvd6_4")
    7086                      .dwattr $C$DW$884, DW_AT_TI_symbol_name("_rsvd6_4")
    7087                      .dwattr $C$DW$884, DW_AT_data_member_location[DW_OP_plus_uconst 0xb6]
    7088                      .dwattr $C$DW$884, DW_AT_accessibility(DW_ACCESS_public)
    7089              $C$DW$885       .dwtag  DW_TAG_member
    7090                      .dwattr $C$DW$885, DW_AT_type(*$C$DW$T$162)
    7091                      .dwattr $C$DW$885, DW_AT_name("rsvd6_5")
    7092                      .dwattr $C$DW$885, DW_AT_TI_symbol_name("_rsvd6_5")
    7093                      .dwattr $C$DW$885, DW_AT_data_member_location[DW_OP_plus_uconst 0xb8]
    7094                      .dwattr $C$DW$885, DW_AT_accessibility(DW_ACCESS_public)
    7095              $C$DW$886       .dwtag  DW_TAG_member
    7096                      .dwattr $C$DW$886, DW_AT_type(*$C$DW$T$162)
    7097                      .dwattr $C$DW$886, DW_AT_name("rsvd6_6")
    7098                      .dwattr $C$DW$886, DW_AT_TI_symbol_name("_rsvd6_6")
    7099                      .dwattr $C$DW$886, DW_AT_data_member_location[DW_OP_plus_uconst 0xba]
    7100                      .dwattr $C$DW$886, DW_AT_accessibility(DW_ACCESS_public)
    7101              $C$DW$887       .dwtag  DW_TAG_member
    7102                      .dwattr $C$DW$887, DW_AT_type(*$C$DW$T$162)
    7103                      .dwattr $C$DW$887, DW_AT_name("rsvd6_7")
    7104                      .dwattr $C$DW$887, DW_AT_TI_symbol_name("_rsvd6_7")
    7105                      .dwattr $C$DW$887, DW_AT_data_member_location[DW_OP_plus_uconst 0xbc]
    7106                      .dwattr $C$DW$887, DW_AT_accessibility(DW_ACCESS_public)
    7107              $C$DW$888       .dwtag  DW_TAG_member
    7108                      .dwattr $C$DW$888, DW_AT_type(*$C$DW$T$162)
    7109                      .dwattr $C$DW$888, DW_AT_name("rsvd6_8")
    7110                      .dwattr $C$DW$888, DW_AT_TI_symbol_name("_rsvd6_8")
    7111                      .dwattr $C$DW$888, DW_AT_data_member_location[DW_OP_plus_uconst 0xbe]
    7112                      .dwattr $C$DW$888, DW_AT_accessibility(DW_ACCESS_public)
    7113              $C$DW$889       .dwtag  DW_TAG_member
    7114                      .dwattr $C$DW$889, DW_AT_type(*$C$DW$T$162)
    7115                      .dwattr $C$DW$889, DW_AT_name("rsvd7_1")
    7116                      .dwattr $C$DW$889, DW_AT_TI_symbol_name("_rsvd7_1")
    7117                      .dwattr $C$DW$889, DW_AT_data_member_location[DW_OP_plus_uconst 0xc0]
    7118                      .dwattr $C$DW$889, DW_AT_accessibility(DW_ACCESS_public)
    7119              $C$DW$890       .dwtag  DW_TAG_member
TMS320C2000 Assembler PC v6.2.5 Wed Nov 22 14:48:16 2017

Tools Copyright (c) 1996-2014 Texas Instruments Incorporated
C:\Users\wmj\AppData\Local\Temp\0222411                              PAGE  134

    7120                      .dwattr $C$DW$890, DW_AT_type(*$C$DW$T$162)
    7121                      .dwattr $C$DW$890, DW_AT_name("rsvd7_2")
    7122                      .dwattr $C$DW$890, DW_AT_TI_symbol_name("_rsvd7_2")
    7123                      .dwattr $C$DW$890, DW_AT_data_member_location[DW_OP_plus_uconst 0xc2]
    7124                      .dwattr $C$DW$890, DW_AT_accessibility(DW_ACCESS_public)
    7125              $C$DW$891       .dwtag  DW_TAG_member
    7126                      .dwattr $C$DW$891, DW_AT_type(*$C$DW$T$162)
    7127                      .dwattr $C$DW$891, DW_AT_name("rsvd7_3")
    7128                      .dwattr $C$DW$891, DW_AT_TI_symbol_name("_rsvd7_3")
    7129                      .dwattr $C$DW$891, DW_AT_data_member_location[DW_OP_plus_uconst 0xc4]
    7130                      .dwattr $C$DW$891, DW_AT_accessibility(DW_ACCESS_public)
    7131              $C$DW$892       .dwtag  DW_TAG_member
    7132                      .dwattr $C$DW$892, DW_AT_type(*$C$DW$T$162)
    7133                      .dwattr $C$DW$892, DW_AT_name("rsvd7_4")
    7134                      .dwattr $C$DW$892, DW_AT_TI_symbol_name("_rsvd7_4")
    7135                      .dwattr $C$DW$892, DW_AT_data_member_location[DW_OP_plus_uconst 0xc6]
    7136                      .dwattr $C$DW$892, DW_AT_accessibility(DW_ACCESS_public)
    7137              $C$DW$893       .dwtag  DW_TAG_member
    7138                      .dwattr $C$DW$893, DW_AT_type(*$C$DW$T$162)
    7139                      .dwattr $C$DW$893, DW_AT_name("rsvd7_5")
    7140                      .dwattr $C$DW$893, DW_AT_TI_symbol_name("_rsvd7_5")
    7141                      .dwattr $C$DW$893, DW_AT_data_member_location[DW_OP_plus_uconst 0xc8]
    7142                      .dwattr $C$DW$893, DW_AT_accessibility(DW_ACCESS_public)
    7143              $C$DW$894       .dwtag  DW_TAG_member
    7144                      .dwattr $C$DW$894, DW_AT_type(*$C$DW$T$162)
    7145                      .dwattr $C$DW$894, DW_AT_name("rsvd7_6")
    7146                      .dwattr $C$DW$894, DW_AT_TI_symbol_name("_rsvd7_6")
    7147                      .dwattr $C$DW$894, DW_AT_data_member_location[DW_OP_plus_uconst 0xca]
    7148                      .dwattr $C$DW$894, DW_AT_accessibility(DW_ACCESS_public)
    7149              $C$DW$895       .dwtag  DW_TAG_member
    7150                      .dwattr $C$DW$895, DW_AT_type(*$C$DW$T$162)
    7151                      .dwattr $C$DW$895, DW_AT_name("rsvd7_7")
    7152                      .dwattr $C$DW$895, DW_AT_TI_symbol_name("_rsvd7_7")
    7153                      .dwattr $C$DW$895, DW_AT_data_member_location[DW_OP_plus_uconst 0xcc]
    7154                      .dwattr $C$DW$895, DW_AT_accessibility(DW_ACCESS_public)
    7155              $C$DW$896       .dwtag  DW_TAG_member
    7156                      .dwattr $C$DW$896, DW_AT_type(*$C$DW$T$162)
    7157                      .dwattr $C$DW$896, DW_AT_name("rsvd7_8")
    7158                      .dwattr $C$DW$896, DW_AT_TI_symbol_name("_rsvd7_8")
    7159                      .dwattr $C$DW$896, DW_AT_data_member_location[DW_OP_plus_uconst 0xce]
    7160                      .dwattr $C$DW$896, DW_AT_accessibility(DW_ACCESS_public)
    7161              $C$DW$897       .dwtag  DW_TAG_member
    7162                      .dwattr $C$DW$897, DW_AT_type(*$C$DW$T$162)
    7163                      .dwattr $C$DW$897, DW_AT_name("I2CINT1A")
    7164                      .dwattr $C$DW$897, DW_AT_TI_symbol_name("_I2CINT1A")
    7165                      .dwattr $C$DW$897, DW_AT_data_member_location[DW_OP_plus_uconst 0xd0]
    7166                      .dwattr $C$DW$897, DW_AT_accessibility(DW_ACCESS_public)
    7167              $C$DW$898       .dwtag  DW_TAG_member
    7168                      .dwattr $C$DW$898, DW_AT_type(*$C$DW$T$162)
    7169                      .dwattr $C$DW$898, DW_AT_name("I2CINT2A")
    7170                      .dwattr $C$DW$898, DW_AT_TI_symbol_name("_I2CINT2A")
    7171                      .dwattr $C$DW$898, DW_AT_data_member_location[DW_OP_plus_uconst 0xd2]
    7172                      .dwattr $C$DW$898, DW_AT_accessibility(DW_ACCESS_public)
    7173              $C$DW$899       .dwtag  DW_TAG_member
    7174                      .dwattr $C$DW$899, DW_AT_type(*$C$DW$T$162)
TMS320C2000 Assembler PC v6.2.5 Wed Nov 22 14:48:16 2017

Tools Copyright (c) 1996-2014 Texas Instruments Incorporated
C:\Users\wmj\AppData\Local\Temp\0222411                              PAGE  135

    7175                      .dwattr $C$DW$899, DW_AT_name("rsvd8_3")
    7176                      .dwattr $C$DW$899, DW_AT_TI_symbol_name("_rsvd8_3")
    7177                      .dwattr $C$DW$899, DW_AT_data_member_location[DW_OP_plus_uconst 0xd4]
    7178                      .dwattr $C$DW$899, DW_AT_accessibility(DW_ACCESS_public)
    7179              $C$DW$900       .dwtag  DW_TAG_member
    7180                      .dwattr $C$DW$900, DW_AT_type(*$C$DW$T$162)
    7181                      .dwattr $C$DW$900, DW_AT_name("rsvd8_4")
    7182                      .dwattr $C$DW$900, DW_AT_TI_symbol_name("_rsvd8_4")
    7183                      .dwattr $C$DW$900, DW_AT_data_member_location[DW_OP_plus_uconst 0xd6]
    7184                      .dwattr $C$DW$900, DW_AT_accessibility(DW_ACCESS_public)
    7185              $C$DW$901       .dwtag  DW_TAG_member
    7186                      .dwattr $C$DW$901, DW_AT_type(*$C$DW$T$162)
    7187                      .dwattr $C$DW$901, DW_AT_name("rsvd8_5")
    7188                      .dwattr $C$DW$901, DW_AT_TI_symbol_name("_rsvd8_5")
    7189                      .dwattr $C$DW$901, DW_AT_data_member_location[DW_OP_plus_uconst 0xd8]
    7190                      .dwattr $C$DW$901, DW_AT_accessibility(DW_ACCESS_public)
    7191              $C$DW$902       .dwtag  DW_TAG_member
    7192                      .dwattr $C$DW$902, DW_AT_type(*$C$DW$T$162)
    7193                      .dwattr $C$DW$902, DW_AT_name("rsvd8_6")
    7194                      .dwattr $C$DW$902, DW_AT_TI_symbol_name("_rsvd8_6")
    7195                      .dwattr $C$DW$902, DW_AT_data_member_location[DW_OP_plus_uconst 0xda]
    7196                      .dwattr $C$DW$902, DW_AT_accessibility(DW_ACCESS_public)
    7197              $C$DW$903       .dwtag  DW_TAG_member
    7198                      .dwattr $C$DW$903, DW_AT_type(*$C$DW$T$162)
    7199                      .dwattr $C$DW$903, DW_AT_name("rsvd8_7")
    7200                      .dwattr $C$DW$903, DW_AT_TI_symbol_name("_rsvd8_7")
    7201                      .dwattr $C$DW$903, DW_AT_data_member_location[DW_OP_plus_uconst 0xdc]
    7202                      .dwattr $C$DW$903, DW_AT_accessibility(DW_ACCESS_public)
    7203              $C$DW$904       .dwtag  DW_TAG_member
    7204                      .dwattr $C$DW$904, DW_AT_type(*$C$DW$T$162)
    7205                      .dwattr $C$DW$904, DW_AT_name("rsvd8_8")
    7206                      .dwattr $C$DW$904, DW_AT_TI_symbol_name("_rsvd8_8")
    7207                      .dwattr $C$DW$904, DW_AT_data_member_location[DW_OP_plus_uconst 0xde]
    7208                      .dwattr $C$DW$904, DW_AT_accessibility(DW_ACCESS_public)
    7209              $C$DW$905       .dwtag  DW_TAG_member
    7210                      .dwattr $C$DW$905, DW_AT_type(*$C$DW$T$162)
    7211                      .dwattr $C$DW$905, DW_AT_name("SCIRXINTA")
    7212                      .dwattr $C$DW$905, DW_AT_TI_symbol_name("_SCIRXINTA")
    7213                      .dwattr $C$DW$905, DW_AT_data_member_location[DW_OP_plus_uconst 0xe0]
    7214                      .dwattr $C$DW$905, DW_AT_accessibility(DW_ACCESS_public)
    7215              $C$DW$906       .dwtag  DW_TAG_member
    7216                      .dwattr $C$DW$906, DW_AT_type(*$C$DW$T$162)
    7217                      .dwattr $C$DW$906, DW_AT_name("SCITXINTA")
    7218                      .dwattr $C$DW$906, DW_AT_TI_symbol_name("_SCITXINTA")
    7219                      .dwattr $C$DW$906, DW_AT_data_member_location[DW_OP_plus_uconst 0xe2]
    7220                      .dwattr $C$DW$906, DW_AT_accessibility(DW_ACCESS_public)
    7221              $C$DW$907       .dwtag  DW_TAG_member
    7222                      .dwattr $C$DW$907, DW_AT_type(*$C$DW$T$162)
    7223                      .dwattr $C$DW$907, DW_AT_name("rsvd9_3")
    7224                      .dwattr $C$DW$907, DW_AT_TI_symbol_name("_rsvd9_3")
    7225                      .dwattr $C$DW$907, DW_AT_data_member_location[DW_OP_plus_uconst 0xe4]
    7226                      .dwattr $C$DW$907, DW_AT_accessibility(DW_ACCESS_public)
    7227              $C$DW$908       .dwtag  DW_TAG_member
    7228                      .dwattr $C$DW$908, DW_AT_type(*$C$DW$T$162)
    7229                      .dwattr $C$DW$908, DW_AT_name("rsvd9_4")
TMS320C2000 Assembler PC v6.2.5 Wed Nov 22 14:48:16 2017

Tools Copyright (c) 1996-2014 Texas Instruments Incorporated
C:\Users\wmj\AppData\Local\Temp\0222411                              PAGE  136

    7230                      .dwattr $C$DW$908, DW_AT_TI_symbol_name("_rsvd9_4")
    7231                      .dwattr $C$DW$908, DW_AT_data_member_location[DW_OP_plus_uconst 0xe6]
    7232                      .dwattr $C$DW$908, DW_AT_accessibility(DW_ACCESS_public)
    7233              $C$DW$909       .dwtag  DW_TAG_member
    7234                      .dwattr $C$DW$909, DW_AT_type(*$C$DW$T$162)
    7235                      .dwattr $C$DW$909, DW_AT_name("rsvd9_5")
    7236                      .dwattr $C$DW$909, DW_AT_TI_symbol_name("_rsvd9_5")
    7237                      .dwattr $C$DW$909, DW_AT_data_member_location[DW_OP_plus_uconst 0xe8]
    7238                      .dwattr $C$DW$909, DW_AT_accessibility(DW_ACCESS_public)
    7239              $C$DW$910       .dwtag  DW_TAG_member
    7240                      .dwattr $C$DW$910, DW_AT_type(*$C$DW$T$162)
    7241                      .dwattr $C$DW$910, DW_AT_name("rsvd9_6")
    7242                      .dwattr $C$DW$910, DW_AT_TI_symbol_name("_rsvd9_6")
    7243                      .dwattr $C$DW$910, DW_AT_data_member_location[DW_OP_plus_uconst 0xea]
    7244                      .dwattr $C$DW$910, DW_AT_accessibility(DW_ACCESS_public)
    7245              $C$DW$911       .dwtag  DW_TAG_member
    7246                      .dwattr $C$DW$911, DW_AT_type(*$C$DW$T$162)
    7247                      .dwattr $C$DW$911, DW_AT_name("rsvd9_7")
    7248                      .dwattr $C$DW$911, DW_AT_TI_symbol_name("_rsvd9_7")
    7249                      .dwattr $C$DW$911, DW_AT_data_member_location[DW_OP_plus_uconst 0xec]
    7250                      .dwattr $C$DW$911, DW_AT_accessibility(DW_ACCESS_public)
    7251              $C$DW$912       .dwtag  DW_TAG_member
    7252                      .dwattr $C$DW$912, DW_AT_type(*$C$DW$T$162)
    7253                      .dwattr $C$DW$912, DW_AT_name("rsvd9_8")
    7254                      .dwattr $C$DW$912, DW_AT_TI_symbol_name("_rsvd9_8")
    7255                      .dwattr $C$DW$912, DW_AT_data_member_location[DW_OP_plus_uconst 0xee]
    7256                      .dwattr $C$DW$912, DW_AT_accessibility(DW_ACCESS_public)
    7257              $C$DW$913       .dwtag  DW_TAG_member
    7258                      .dwattr $C$DW$913, DW_AT_type(*$C$DW$T$162)
    7259                      .dwattr $C$DW$913, DW_AT_name("ADCINT1")
    7260                      .dwattr $C$DW$913, DW_AT_TI_symbol_name("_ADCINT1")
    7261                      .dwattr $C$DW$913, DW_AT_data_member_location[DW_OP_plus_uconst 0xf0]
    7262                      .dwattr $C$DW$913, DW_AT_accessibility(DW_ACCESS_public)
    7263              $C$DW$914       .dwtag  DW_TAG_member
    7264                      .dwattr $C$DW$914, DW_AT_type(*$C$DW$T$162)
    7265                      .dwattr $C$DW$914, DW_AT_name("ADCINT2")
    7266                      .dwattr $C$DW$914, DW_AT_TI_symbol_name("_ADCINT2")
    7267                      .dwattr $C$DW$914, DW_AT_data_member_location[DW_OP_plus_uconst 0xf2]
    7268                      .dwattr $C$DW$914, DW_AT_accessibility(DW_ACCESS_public)
    7269              $C$DW$915       .dwtag  DW_TAG_member
    7270                      .dwattr $C$DW$915, DW_AT_type(*$C$DW$T$162)
    7271                      .dwattr $C$DW$915, DW_AT_name("ADCINT3")
    7272                      .dwattr $C$DW$915, DW_AT_TI_symbol_name("_ADCINT3")
    7273                      .dwattr $C$DW$915, DW_AT_data_member_location[DW_OP_plus_uconst 0xf4]
    7274                      .dwattr $C$DW$915, DW_AT_accessibility(DW_ACCESS_public)
    7275              $C$DW$916       .dwtag  DW_TAG_member
    7276                      .dwattr $C$DW$916, DW_AT_type(*$C$DW$T$162)
    7277                      .dwattr $C$DW$916, DW_AT_name("ADCINT4")
    7278                      .dwattr $C$DW$916, DW_AT_TI_symbol_name("_ADCINT4")
    7279                      .dwattr $C$DW$916, DW_AT_data_member_location[DW_OP_plus_uconst 0xf6]
    7280                      .dwattr $C$DW$916, DW_AT_accessibility(DW_ACCESS_public)
    7281              $C$DW$917       .dwtag  DW_TAG_member
    7282                      .dwattr $C$DW$917, DW_AT_type(*$C$DW$T$162)
    7283                      .dwattr $C$DW$917, DW_AT_name("ADCINT5")
    7284                      .dwattr $C$DW$917, DW_AT_TI_symbol_name("_ADCINT5")
TMS320C2000 Assembler PC v6.2.5 Wed Nov 22 14:48:16 2017

Tools Copyright (c) 1996-2014 Texas Instruments Incorporated
C:\Users\wmj\AppData\Local\Temp\0222411                              PAGE  137

    7285                      .dwattr $C$DW$917, DW_AT_data_member_location[DW_OP_plus_uconst 0xf8]
    7286                      .dwattr $C$DW$917, DW_AT_accessibility(DW_ACCESS_public)
    7287              $C$DW$918       .dwtag  DW_TAG_member
    7288                      .dwattr $C$DW$918, DW_AT_type(*$C$DW$T$162)
    7289                      .dwattr $C$DW$918, DW_AT_name("ADCINT6")
    7290                      .dwattr $C$DW$918, DW_AT_TI_symbol_name("_ADCINT6")
    7291                      .dwattr $C$DW$918, DW_AT_data_member_location[DW_OP_plus_uconst 0xfa]
    7292                      .dwattr $C$DW$918, DW_AT_accessibility(DW_ACCESS_public)
    7293              $C$DW$919       .dwtag  DW_TAG_member
    7294                      .dwattr $C$DW$919, DW_AT_type(*$C$DW$T$162)
    7295                      .dwattr $C$DW$919, DW_AT_name("ADCINT7")
    7296                      .dwattr $C$DW$919, DW_AT_TI_symbol_name("_ADCINT7")
    7297                      .dwattr $C$DW$919, DW_AT_data_member_location[DW_OP_plus_uconst 0xfc]
    7298                      .dwattr $C$DW$919, DW_AT_accessibility(DW_ACCESS_public)
    7299              $C$DW$920       .dwtag  DW_TAG_member
    7300                      .dwattr $C$DW$920, DW_AT_type(*$C$DW$T$162)
    7301                      .dwattr $C$DW$920, DW_AT_name("ADCINT8")
    7302                      .dwattr $C$DW$920, DW_AT_TI_symbol_name("_ADCINT8")
    7303                      .dwattr $C$DW$920, DW_AT_data_member_location[DW_OP_plus_uconst 0xfe]
    7304                      .dwattr $C$DW$920, DW_AT_accessibility(DW_ACCESS_public)
    7305              $C$DW$921       .dwtag  DW_TAG_member
    7306                      .dwattr $C$DW$921, DW_AT_type(*$C$DW$T$162)
    7307                      .dwattr $C$DW$921, DW_AT_name("rsvd11_1")
    7308                      .dwattr $C$DW$921, DW_AT_TI_symbol_name("_rsvd11_1")
    7309                      .dwattr $C$DW$921, DW_AT_data_member_location[DW_OP_plus_uconst 0x100]
    7310                      .dwattr $C$DW$921, DW_AT_accessibility(DW_ACCESS_public)
    7311              $C$DW$922       .dwtag  DW_TAG_member
    7312                      .dwattr $C$DW$922, DW_AT_type(*$C$DW$T$162)
    7313                      .dwattr $C$DW$922, DW_AT_name("rsvd11_2")
    7314                      .dwattr $C$DW$922, DW_AT_TI_symbol_name("_rsvd11_2")
    7315                      .dwattr $C$DW$922, DW_AT_data_member_location[DW_OP_plus_uconst 0x102]
    7316                      .dwattr $C$DW$922, DW_AT_accessibility(DW_ACCESS_public)
    7317              $C$DW$923       .dwtag  DW_TAG_member
    7318                      .dwattr $C$DW$923, DW_AT_type(*$C$DW$T$162)
    7319                      .dwattr $C$DW$923, DW_AT_name("rsvd11_3")
    7320                      .dwattr $C$DW$923, DW_AT_TI_symbol_name("_rsvd11_3")
    7321                      .dwattr $C$DW$923, DW_AT_data_member_location[DW_OP_plus_uconst 0x104]
    7322                      .dwattr $C$DW$923, DW_AT_accessibility(DW_ACCESS_public)
    7323              $C$DW$924       .dwtag  DW_TAG_member
    7324                      .dwattr $C$DW$924, DW_AT_type(*$C$DW$T$162)
    7325                      .dwattr $C$DW$924, DW_AT_name("rsvd11_4")
    7326                      .dwattr $C$DW$924, DW_AT_TI_symbol_name("_rsvd11_4")
    7327                      .dwattr $C$DW$924, DW_AT_data_member_location[DW_OP_plus_uconst 0x106]
    7328                      .dwattr $C$DW$924, DW_AT_accessibility(DW_ACCESS_public)
    7329              $C$DW$925       .dwtag  DW_TAG_member
    7330                      .dwattr $C$DW$925, DW_AT_type(*$C$DW$T$162)
    7331                      .dwattr $C$DW$925, DW_AT_name("rsvd11_5")
    7332                      .dwattr $C$DW$925, DW_AT_TI_symbol_name("_rsvd11_5")
    7333                      .dwattr $C$DW$925, DW_AT_data_member_location[DW_OP_plus_uconst 0x108]
    7334                      .dwattr $C$DW$925, DW_AT_accessibility(DW_ACCESS_public)
    7335              $C$DW$926       .dwtag  DW_TAG_member
    7336                      .dwattr $C$DW$926, DW_AT_type(*$C$DW$T$162)
    7337                      .dwattr $C$DW$926, DW_AT_name("rsvd11_6")
    7338                      .dwattr $C$DW$926, DW_AT_TI_symbol_name("_rsvd11_6")
    7339                      .dwattr $C$DW$926, DW_AT_data_member_location[DW_OP_plus_uconst 0x10a]
TMS320C2000 Assembler PC v6.2.5 Wed Nov 22 14:48:16 2017

Tools Copyright (c) 1996-2014 Texas Instruments Incorporated
C:\Users\wmj\AppData\Local\Temp\0222411                              PAGE  138

    7340                      .dwattr $C$DW$926, DW_AT_accessibility(DW_ACCESS_public)
    7341              $C$DW$927       .dwtag  DW_TAG_member
    7342                      .dwattr $C$DW$927, DW_AT_type(*$C$DW$T$162)
    7343                      .dwattr $C$DW$927, DW_AT_name("rsvd11_7")
    7344                      .dwattr $C$DW$927, DW_AT_TI_symbol_name("_rsvd11_7")
    7345                      .dwattr $C$DW$927, DW_AT_data_member_location[DW_OP_plus_uconst 0x10c]
    7346                      .dwattr $C$DW$927, DW_AT_accessibility(DW_ACCESS_public)
    7347              $C$DW$928       .dwtag  DW_TAG_member
    7348                      .dwattr $C$DW$928, DW_AT_type(*$C$DW$T$162)
    7349                      .dwattr $C$DW$928, DW_AT_name("rsvd11_8")
    7350                      .dwattr $C$DW$928, DW_AT_TI_symbol_name("_rsvd11_8")
    7351                      .dwattr $C$DW$928, DW_AT_data_member_location[DW_OP_plus_uconst 0x10e]
    7352                      .dwattr $C$DW$928, DW_AT_accessibility(DW_ACCESS_public)
    7353              $C$DW$929       .dwtag  DW_TAG_member
    7354                      .dwattr $C$DW$929, DW_AT_type(*$C$DW$T$162)
    7355                      .dwattr $C$DW$929, DW_AT_name("XINT3")
    7356                      .dwattr $C$DW$929, DW_AT_TI_symbol_name("_XINT3")
    7357                      .dwattr $C$DW$929, DW_AT_data_member_location[DW_OP_plus_uconst 0x110]
    7358                      .dwattr $C$DW$929, DW_AT_accessibility(DW_ACCESS_public)
    7359              $C$DW$930       .dwtag  DW_TAG_member
    7360                      .dwattr $C$DW$930, DW_AT_type(*$C$DW$T$162)
    7361                      .dwattr $C$DW$930, DW_AT_name("rsvd12_2")
    7362                      .dwattr $C$DW$930, DW_AT_TI_symbol_name("_rsvd12_2")
    7363                      .dwattr $C$DW$930, DW_AT_data_member_location[DW_OP_plus_uconst 0x112]
    7364                      .dwattr $C$DW$930, DW_AT_accessibility(DW_ACCESS_public)
    7365              $C$DW$931       .dwtag  DW_TAG_member
    7366                      .dwattr $C$DW$931, DW_AT_type(*$C$DW$T$162)
    7367                      .dwattr $C$DW$931, DW_AT_name("rsvd12_3")
    7368                      .dwattr $C$DW$931, DW_AT_TI_symbol_name("_rsvd12_3")
    7369                      .dwattr $C$DW$931, DW_AT_data_member_location[DW_OP_plus_uconst 0x114]
    7370                      .dwattr $C$DW$931, DW_AT_accessibility(DW_ACCESS_public)
    7371              $C$DW$932       .dwtag  DW_TAG_member
    7372                      .dwattr $C$DW$932, DW_AT_type(*$C$DW$T$162)
    7373                      .dwattr $C$DW$932, DW_AT_name("rsvd12_4")
    7374                      .dwattr $C$DW$932, DW_AT_TI_symbol_name("_rsvd12_4")
    7375                      .dwattr $C$DW$932, DW_AT_data_member_location[DW_OP_plus_uconst 0x116]
    7376                      .dwattr $C$DW$932, DW_AT_accessibility(DW_ACCESS_public)
    7377              $C$DW$933       .dwtag  DW_TAG_member
    7378                      .dwattr $C$DW$933, DW_AT_type(*$C$DW$T$162)
    7379                      .dwattr $C$DW$933, DW_AT_name("rsvd12_5")
    7380                      .dwattr $C$DW$933, DW_AT_TI_symbol_name("_rsvd12_5")
    7381                      .dwattr $C$DW$933, DW_AT_data_member_location[DW_OP_plus_uconst 0x118]
    7382                      .dwattr $C$DW$933, DW_AT_accessibility(DW_ACCESS_public)
    7383              $C$DW$934       .dwtag  DW_TAG_member
    7384                      .dwattr $C$DW$934, DW_AT_type(*$C$DW$T$162)
    7385                      .dwattr $C$DW$934, DW_AT_name("rsvd12_6")
    7386                      .dwattr $C$DW$934, DW_AT_TI_symbol_name("_rsvd12_6")
    7387                      .dwattr $C$DW$934, DW_AT_data_member_location[DW_OP_plus_uconst 0x11a]
    7388                      .dwattr $C$DW$934, DW_AT_accessibility(DW_ACCESS_public)
    7389              $C$DW$935       .dwtag  DW_TAG_member
    7390                      .dwattr $C$DW$935, DW_AT_type(*$C$DW$T$162)
    7391                      .dwattr $C$DW$935, DW_AT_name("rsvd12_7")
    7392                      .dwattr $C$DW$935, DW_AT_TI_symbol_name("_rsvd12_7")
    7393                      .dwattr $C$DW$935, DW_AT_data_member_location[DW_OP_plus_uconst 0x11c]
    7394                      .dwattr $C$DW$935, DW_AT_accessibility(DW_ACCESS_public)
TMS320C2000 Assembler PC v6.2.5 Wed Nov 22 14:48:16 2017

Tools Copyright (c) 1996-2014 Texas Instruments Incorporated
C:\Users\wmj\AppData\Local\Temp\0222411                              PAGE  139

    7395              $C$DW$936       .dwtag  DW_TAG_member
    7396                      .dwattr $C$DW$936, DW_AT_type(*$C$DW$T$162)
    7397                      .dwattr $C$DW$936, DW_AT_name("rsvd12_8")
    7398                      .dwattr $C$DW$936, DW_AT_TI_symbol_name("_rsvd12_8")
    7399                      .dwattr $C$DW$936, DW_AT_data_member_location[DW_OP_plus_uconst 0x11e]
    7400                      .dwattr $C$DW$936, DW_AT_accessibility(DW_ACCESS_public)
    7401              $C$DW$937       .dwtag  DW_TAG_member
    7402                      .dwattr $C$DW$937, DW_AT_type(*$C$DW$T$163)
    7403                      .dwattr $C$DW$937, DW_AT_name("rsvd13")
    7404                      .dwattr $C$DW$937, DW_AT_TI_symbol_name("_rsvd13")
    7405                      .dwattr $C$DW$937, DW_AT_data_member_location[DW_OP_plus_uconst 0x120]
    7406                      .dwattr $C$DW$937, DW_AT_accessibility(DW_ACCESS_public)
    7407              $C$DW$938       .dwtag  DW_TAG_member
    7408                      .dwattr $C$DW$938, DW_AT_type(*$C$DW$T$27)
    7409                      .dwattr $C$DW$938, DW_AT_name("XINTnCR")
    7410                      .dwattr $C$DW$938, DW_AT_TI_symbol_name("_XINTnCR")
    7411                      .dwattr $C$DW$938, DW_AT_data_member_location[DW_OP_plus_uconst 0x6390]
    7412                      .dwattr $C$DW$938, DW_AT_accessibility(DW_ACCESS_public)
    7413              $C$DW$939       .dwtag  DW_TAG_member
    7414                      .dwattr $C$DW$939, DW_AT_type(*$C$DW$T$26)
    7415                      .dwattr $C$DW$939, DW_AT_name("rsvd14")
    7416                      .dwattr $C$DW$939, DW_AT_TI_symbol_name("_rsvd14")
    7417                      .dwattr $C$DW$939, DW_AT_data_member_location[DW_OP_plus_uconst 0x6393]
    7418                      .dwattr $C$DW$939, DW_AT_accessibility(DW_ACCESS_public)
    7419              $C$DW$940       .dwtag  DW_TAG_member
    7420                      .dwattr $C$DW$940, DW_AT_type(*$C$DW$T$27)
    7421                      .dwattr $C$DW$940, DW_AT_name("XINTnCTR")
    7422                      .dwattr $C$DW$940, DW_AT_TI_symbol_name("_XINTnCTR")
    7423                      .dwattr $C$DW$940, DW_AT_data_member_location[DW_OP_plus_uconst 0x6398]
    7424                      .dwattr $C$DW$940, DW_AT_accessibility(DW_ACCESS_public)
    7425                      .dwendtag $C$DW$T$164
    7426              
    7427              $C$DW$T$96      .dwtag  DW_TAG_pointer_type
    7428                      .dwattr $C$DW$T$96, DW_AT_type(*$C$DW$T$164)
    7429                      .dwattr $C$DW$T$96, DW_AT_address_class(0x16)
    7430              $C$DW$T$97      .dwtag  DW_TAG_typedef, DW_AT_name("PIE_Handle")
    7431                      .dwattr $C$DW$T$97, DW_AT_type(*$C$DW$T$96)
    7432                      .dwattr $C$DW$T$97, DW_AT_language(DW_LANG_C)
    7433              
    7434              $C$DW$T$165     .dwtag  DW_TAG_structure_type
    7435                      .dwattr $C$DW$T$165, DW_AT_name("_PLL_Obj_")
    7436                      .dwattr $C$DW$T$165, DW_AT_byte_size(0x11)
    7437              $C$DW$941       .dwtag  DW_TAG_member
    7438                      .dwattr $C$DW$941, DW_AT_type(*$C$DW$T$22)
    7439                      .dwattr $C$DW$941, DW_AT_name("PLLSTS")
    7440                      .dwattr $C$DW$941, DW_AT_TI_symbol_name("_PLLSTS")
    7441                      .dwattr $C$DW$941, DW_AT_data_member_location[DW_OP_plus_uconst 0x0]
    7442                      .dwattr $C$DW$941, DW_AT_accessibility(DW_ACCESS_public)
    7443              $C$DW$942       .dwtag  DW_TAG_member
    7444                      .dwattr $C$DW$942, DW_AT_type(*$C$DW$T$22)
    7445                      .dwattr $C$DW$942, DW_AT_name("rsvd_1")
    7446                      .dwattr $C$DW$942, DW_AT_TI_symbol_name("_rsvd_1")
    7447                      .dwattr $C$DW$942, DW_AT_data_member_location[DW_OP_plus_uconst 0x1]
    7448                      .dwattr $C$DW$942, DW_AT_accessibility(DW_ACCESS_public)
    7449              $C$DW$943       .dwtag  DW_TAG_member
TMS320C2000 Assembler PC v6.2.5 Wed Nov 22 14:48:16 2017

Tools Copyright (c) 1996-2014 Texas Instruments Incorporated
C:\Users\wmj\AppData\Local\Temp\0222411                              PAGE  140

    7450                      .dwattr $C$DW$943, DW_AT_type(*$C$DW$T$22)
    7451                      .dwattr $C$DW$943, DW_AT_name("PLLLOCKPRD")
    7452                      .dwattr $C$DW$943, DW_AT_TI_symbol_name("_PLLLOCKPRD")
    7453                      .dwattr $C$DW$943, DW_AT_data_member_location[DW_OP_plus_uconst 0x2]
    7454                      .dwattr $C$DW$943, DW_AT_accessibility(DW_ACCESS_public)
    7455              $C$DW$944       .dwtag  DW_TAG_member
    7456                      .dwattr $C$DW$944, DW_AT_type(*$C$DW$T$28)
    7457                      .dwattr $C$DW$944, DW_AT_name("rsvd_2")
    7458                      .dwattr $C$DW$944, DW_AT_TI_symbol_name("_rsvd_2")
    7459                      .dwattr $C$DW$944, DW_AT_data_member_location[DW_OP_plus_uconst 0x3]
    7460                      .dwattr $C$DW$944, DW_AT_accessibility(DW_ACCESS_public)
    7461              $C$DW$945       .dwtag  DW_TAG_member
    7462                      .dwattr $C$DW$945, DW_AT_type(*$C$DW$T$22)
    7463                      .dwattr $C$DW$945, DW_AT_name("PLLCR")
    7464                      .dwattr $C$DW$945, DW_AT_TI_symbol_name("_PLLCR")
    7465                      .dwattr $C$DW$945, DW_AT_data_member_location[DW_OP_plus_uconst 0x10]
    7466                      .dwattr $C$DW$945, DW_AT_accessibility(DW_ACCESS_public)
    7467                      .dwendtag $C$DW$T$165
    7468              
    7469              $C$DW$T$98      .dwtag  DW_TAG_pointer_type
    7470                      .dwattr $C$DW$T$98, DW_AT_type(*$C$DW$T$165)
    7471                      .dwattr $C$DW$T$98, DW_AT_address_class(0x16)
    7472              $C$DW$T$99      .dwtag  DW_TAG_typedef, DW_AT_name("PLL_Handle")
    7473                      .dwattr $C$DW$T$99, DW_AT_type(*$C$DW$T$98)
    7474                      .dwattr $C$DW$T$99, DW_AT_language(DW_LANG_C)
    7475              
    7476              $C$DW$T$166     .dwtag  DW_TAG_structure_type
    7477                      .dwattr $C$DW$T$166, DW_AT_name("_PWM_Obj_")
    7478                      .dwattr $C$DW$T$166, DW_AT_byte_size(0x3a)
    7479              $C$DW$946       .dwtag  DW_TAG_member
    7480                      .dwattr $C$DW$946, DW_AT_type(*$C$DW$T$22)
    7481                      .dwattr $C$DW$946, DW_AT_name("TBCTL")
    7482                      .dwattr $C$DW$946, DW_AT_TI_symbol_name("_TBCTL")
    7483                      .dwattr $C$DW$946, DW_AT_data_member_location[DW_OP_plus_uconst 0x0]
    7484                      .dwattr $C$DW$946, DW_AT_accessibility(DW_ACCESS_public)
    7485              $C$DW$947       .dwtag  DW_TAG_member
    7486                      .dwattr $C$DW$947, DW_AT_type(*$C$DW$T$22)
    7487                      .dwattr $C$DW$947, DW_AT_name("TBSTS")
    7488                      .dwattr $C$DW$947, DW_AT_TI_symbol_name("_TBSTS")
    7489                      .dwattr $C$DW$947, DW_AT_data_member_location[DW_OP_plus_uconst 0x1]
    7490                      .dwattr $C$DW$947, DW_AT_accessibility(DW_ACCESS_public)
    7491              $C$DW$948       .dwtag  DW_TAG_member
    7492                      .dwattr $C$DW$948, DW_AT_type(*$C$DW$T$22)
    7493                      .dwattr $C$DW$948, DW_AT_name("TBPHSHR")
    7494                      .dwattr $C$DW$948, DW_AT_TI_symbol_name("_TBPHSHR")
    7495                      .dwattr $C$DW$948, DW_AT_data_member_location[DW_OP_plus_uconst 0x2]
    7496                      .dwattr $C$DW$948, DW_AT_accessibility(DW_ACCESS_public)
    7497              $C$DW$949       .dwtag  DW_TAG_member
    7498                      .dwattr $C$DW$949, DW_AT_type(*$C$DW$T$22)
    7499                      .dwattr $C$DW$949, DW_AT_name("TBPHS")
    7500                      .dwattr $C$DW$949, DW_AT_TI_symbol_name("_TBPHS")
    7501                      .dwattr $C$DW$949, DW_AT_data_member_location[DW_OP_plus_uconst 0x3]
    7502                      .dwattr $C$DW$949, DW_AT_accessibility(DW_ACCESS_public)
    7503              $C$DW$950       .dwtag  DW_TAG_member
    7504                      .dwattr $C$DW$950, DW_AT_type(*$C$DW$T$22)
TMS320C2000 Assembler PC v6.2.5 Wed Nov 22 14:48:16 2017

Tools Copyright (c) 1996-2014 Texas Instruments Incorporated
C:\Users\wmj\AppData\Local\Temp\0222411                              PAGE  141

    7505                      .dwattr $C$DW$950, DW_AT_name("TBCTR")
    7506                      .dwattr $C$DW$950, DW_AT_TI_symbol_name("_TBCTR")
    7507                      .dwattr $C$DW$950, DW_AT_data_member_location[DW_OP_plus_uconst 0x4]
    7508                      .dwattr $C$DW$950, DW_AT_accessibility(DW_ACCESS_public)
    7509              $C$DW$951       .dwtag  DW_TAG_member
    7510                      .dwattr $C$DW$951, DW_AT_type(*$C$DW$T$22)
    7511                      .dwattr $C$DW$951, DW_AT_name("TBPRD")
    7512                      .dwattr $C$DW$951, DW_AT_TI_symbol_name("_TBPRD")
    7513                      .dwattr $C$DW$951, DW_AT_data_member_location[DW_OP_plus_uconst 0x5]
    7514                      .dwattr $C$DW$951, DW_AT_accessibility(DW_ACCESS_public)
    7515              $C$DW$952       .dwtag  DW_TAG_member
    7516                      .dwattr $C$DW$952, DW_AT_type(*$C$DW$T$22)
    7517                      .dwattr $C$DW$952, DW_AT_name("TBPRDHR")
    7518                      .dwattr $C$DW$952, DW_AT_TI_symbol_name("_TBPRDHR")
    7519                      .dwattr $C$DW$952, DW_AT_data_member_location[DW_OP_plus_uconst 0x6]
    7520                      .dwattr $C$DW$952, DW_AT_accessibility(DW_ACCESS_public)
    7521              $C$DW$953       .dwtag  DW_TAG_member
    7522                      .dwattr $C$DW$953, DW_AT_type(*$C$DW$T$22)
    7523                      .dwattr $C$DW$953, DW_AT_name("CMPCTL")
    7524                      .dwattr $C$DW$953, DW_AT_TI_symbol_name("_CMPCTL")
    7525                      .dwattr $C$DW$953, DW_AT_data_member_location[DW_OP_plus_uconst 0x7]
    7526                      .dwattr $C$DW$953, DW_AT_accessibility(DW_ACCESS_public)
    7527              $C$DW$954       .dwtag  DW_TAG_member
    7528                      .dwattr $C$DW$954, DW_AT_type(*$C$DW$T$22)
    7529                      .dwattr $C$DW$954, DW_AT_name("CMPAHR")
    7530                      .dwattr $C$DW$954, DW_AT_TI_symbol_name("_CMPAHR")
    7531                      .dwattr $C$DW$954, DW_AT_data_member_location[DW_OP_plus_uconst 0x8]
    7532                      .dwattr $C$DW$954, DW_AT_accessibility(DW_ACCESS_public)
    7533              $C$DW$955       .dwtag  DW_TAG_member
    7534                      .dwattr $C$DW$955, DW_AT_type(*$C$DW$T$22)
    7535                      .dwattr $C$DW$955, DW_AT_name("CMPA")
    7536                      .dwattr $C$DW$955, DW_AT_TI_symbol_name("_CMPA")
    7537                      .dwattr $C$DW$955, DW_AT_data_member_location[DW_OP_plus_uconst 0x9]
    7538                      .dwattr $C$DW$955, DW_AT_accessibility(DW_ACCESS_public)
    7539              $C$DW$956       .dwtag  DW_TAG_member
    7540                      .dwattr $C$DW$956, DW_AT_type(*$C$DW$T$22)
    7541                      .dwattr $C$DW$956, DW_AT_name("CMPB")
    7542                      .dwattr $C$DW$956, DW_AT_TI_symbol_name("_CMPB")
    7543                      .dwattr $C$DW$956, DW_AT_data_member_location[DW_OP_plus_uconst 0xa]
    7544                      .dwattr $C$DW$956, DW_AT_accessibility(DW_ACCESS_public)
    7545              $C$DW$957       .dwtag  DW_TAG_member
    7546                      .dwattr $C$DW$957, DW_AT_type(*$C$DW$T$22)
    7547                      .dwattr $C$DW$957, DW_AT_name("AQCTLA")
    7548                      .dwattr $C$DW$957, DW_AT_TI_symbol_name("_AQCTLA")
    7549                      .dwattr $C$DW$957, DW_AT_data_member_location[DW_OP_plus_uconst 0xb]
    7550                      .dwattr $C$DW$957, DW_AT_accessibility(DW_ACCESS_public)
    7551              $C$DW$958       .dwtag  DW_TAG_member
    7552                      .dwattr $C$DW$958, DW_AT_type(*$C$DW$T$22)
    7553                      .dwattr $C$DW$958, DW_AT_name("AQCTLB")
    7554                      .dwattr $C$DW$958, DW_AT_TI_symbol_name("_AQCTLB")
    7555                      .dwattr $C$DW$958, DW_AT_data_member_location[DW_OP_plus_uconst 0xc]
    7556                      .dwattr $C$DW$958, DW_AT_accessibility(DW_ACCESS_public)
    7557              $C$DW$959       .dwtag  DW_TAG_member
    7558                      .dwattr $C$DW$959, DW_AT_type(*$C$DW$T$22)
    7559                      .dwattr $C$DW$959, DW_AT_name("AQSFRC")
TMS320C2000 Assembler PC v6.2.5 Wed Nov 22 14:48:16 2017

Tools Copyright (c) 1996-2014 Texas Instruments Incorporated
C:\Users\wmj\AppData\Local\Temp\0222411                              PAGE  142

    7560                      .dwattr $C$DW$959, DW_AT_TI_symbol_name("_AQSFRC")
    7561                      .dwattr $C$DW$959, DW_AT_data_member_location[DW_OP_plus_uconst 0xd]
    7562                      .dwattr $C$DW$959, DW_AT_accessibility(DW_ACCESS_public)
    7563              $C$DW$960       .dwtag  DW_TAG_member
    7564                      .dwattr $C$DW$960, DW_AT_type(*$C$DW$T$22)
    7565                      .dwattr $C$DW$960, DW_AT_name("AQCSFRC")
    7566                      .dwattr $C$DW$960, DW_AT_TI_symbol_name("_AQCSFRC")
    7567                      .dwattr $C$DW$960, DW_AT_data_member_location[DW_OP_plus_uconst 0xe]
    7568                      .dwattr $C$DW$960, DW_AT_accessibility(DW_ACCESS_public)
    7569              $C$DW$961       .dwtag  DW_TAG_member
    7570                      .dwattr $C$DW$961, DW_AT_type(*$C$DW$T$22)
    7571                      .dwattr $C$DW$961, DW_AT_name("DBCTL")
    7572                      .dwattr $C$DW$961, DW_AT_TI_symbol_name("_DBCTL")
    7573                      .dwattr $C$DW$961, DW_AT_data_member_location[DW_OP_plus_uconst 0xf]
    7574                      .dwattr $C$DW$961, DW_AT_accessibility(DW_ACCESS_public)
    7575              $C$DW$962       .dwtag  DW_TAG_member
    7576                      .dwattr $C$DW$962, DW_AT_type(*$C$DW$T$22)
    7577                      .dwattr $C$DW$962, DW_AT_name("DBRED")
    7578                      .dwattr $C$DW$962, DW_AT_TI_symbol_name("_DBRED")
    7579                      .dwattr $C$DW$962, DW_AT_data_member_location[DW_OP_plus_uconst 0x10]
    7580                      .dwattr $C$DW$962, DW_AT_accessibility(DW_ACCESS_public)
    7581              $C$DW$963       .dwtag  DW_TAG_member
    7582                      .dwattr $C$DW$963, DW_AT_type(*$C$DW$T$22)
    7583                      .dwattr $C$DW$963, DW_AT_name("DBFED")
    7584                      .dwattr $C$DW$963, DW_AT_TI_symbol_name("_DBFED")
    7585                      .dwattr $C$DW$963, DW_AT_data_member_location[DW_OP_plus_uconst 0x11]
    7586                      .dwattr $C$DW$963, DW_AT_accessibility(DW_ACCESS_public)
    7587              $C$DW$964       .dwtag  DW_TAG_member
    7588                      .dwattr $C$DW$964, DW_AT_type(*$C$DW$T$22)
    7589                      .dwattr $C$DW$964, DW_AT_name("TZSEL")
    7590                      .dwattr $C$DW$964, DW_AT_TI_symbol_name("_TZSEL")
    7591                      .dwattr $C$DW$964, DW_AT_data_member_location[DW_OP_plus_uconst 0x12]
    7592                      .dwattr $C$DW$964, DW_AT_accessibility(DW_ACCESS_public)
    7593              $C$DW$965       .dwtag  DW_TAG_member
    7594                      .dwattr $C$DW$965, DW_AT_type(*$C$DW$T$22)
    7595                      .dwattr $C$DW$965, DW_AT_name("TZDCSEL")
    7596                      .dwattr $C$DW$965, DW_AT_TI_symbol_name("_TZDCSEL")
    7597                      .dwattr $C$DW$965, DW_AT_data_member_location[DW_OP_plus_uconst 0x13]
    7598                      .dwattr $C$DW$965, DW_AT_accessibility(DW_ACCESS_public)
    7599              $C$DW$966       .dwtag  DW_TAG_member
    7600                      .dwattr $C$DW$966, DW_AT_type(*$C$DW$T$22)
    7601                      .dwattr $C$DW$966, DW_AT_name("TZCTL")
    7602                      .dwattr $C$DW$966, DW_AT_TI_symbol_name("_TZCTL")
    7603                      .dwattr $C$DW$966, DW_AT_data_member_location[DW_OP_plus_uconst 0x14]
    7604                      .dwattr $C$DW$966, DW_AT_accessibility(DW_ACCESS_public)
    7605              $C$DW$967       .dwtag  DW_TAG_member
    7606                      .dwattr $C$DW$967, DW_AT_type(*$C$DW$T$22)
    7607                      .dwattr $C$DW$967, DW_AT_name("TZEINT")
    7608                      .dwattr $C$DW$967, DW_AT_TI_symbol_name("_TZEINT")
    7609                      .dwattr $C$DW$967, DW_AT_data_member_location[DW_OP_plus_uconst 0x15]
    7610                      .dwattr $C$DW$967, DW_AT_accessibility(DW_ACCESS_public)
    7611              $C$DW$968       .dwtag  DW_TAG_member
    7612                      .dwattr $C$DW$968, DW_AT_type(*$C$DW$T$22)
    7613                      .dwattr $C$DW$968, DW_AT_name("TZFLG")
    7614                      .dwattr $C$DW$968, DW_AT_TI_symbol_name("_TZFLG")
TMS320C2000 Assembler PC v6.2.5 Wed Nov 22 14:48:16 2017

Tools Copyright (c) 1996-2014 Texas Instruments Incorporated
C:\Users\wmj\AppData\Local\Temp\0222411                              PAGE  143

    7615                      .dwattr $C$DW$968, DW_AT_data_member_location[DW_OP_plus_uconst 0x16]
    7616                      .dwattr $C$DW$968, DW_AT_accessibility(DW_ACCESS_public)
    7617              $C$DW$969       .dwtag  DW_TAG_member
    7618                      .dwattr $C$DW$969, DW_AT_type(*$C$DW$T$22)
    7619                      .dwattr $C$DW$969, DW_AT_name("TZCLR")
    7620                      .dwattr $C$DW$969, DW_AT_TI_symbol_name("_TZCLR")
    7621                      .dwattr $C$DW$969, DW_AT_data_member_location[DW_OP_plus_uconst 0x17]
    7622                      .dwattr $C$DW$969, DW_AT_accessibility(DW_ACCESS_public)
    7623              $C$DW$970       .dwtag  DW_TAG_member
    7624                      .dwattr $C$DW$970, DW_AT_type(*$C$DW$T$22)
    7625                      .dwattr $C$DW$970, DW_AT_name("TZFRC")
    7626                      .dwattr $C$DW$970, DW_AT_TI_symbol_name("_TZFRC")
    7627                      .dwattr $C$DW$970, DW_AT_data_member_location[DW_OP_plus_uconst 0x18]
    7628                      .dwattr $C$DW$970, DW_AT_accessibility(DW_ACCESS_public)
    7629              $C$DW$971       .dwtag  DW_TAG_member
    7630                      .dwattr $C$DW$971, DW_AT_type(*$C$DW$T$22)
    7631                      .dwattr $C$DW$971, DW_AT_name("ETSEL")
    7632                      .dwattr $C$DW$971, DW_AT_TI_symbol_name("_ETSEL")
    7633                      .dwattr $C$DW$971, DW_AT_data_member_location[DW_OP_plus_uconst 0x19]
    7634                      .dwattr $C$DW$971, DW_AT_accessibility(DW_ACCESS_public)
    7635              $C$DW$972       .dwtag  DW_TAG_member
    7636                      .dwattr $C$DW$972, DW_AT_type(*$C$DW$T$22)
    7637                      .dwattr $C$DW$972, DW_AT_name("ETPS")
    7638                      .dwattr $C$DW$972, DW_AT_TI_symbol_name("_ETPS")
    7639                      .dwattr $C$DW$972, DW_AT_data_member_location[DW_OP_plus_uconst 0x1a]
    7640                      .dwattr $C$DW$972, DW_AT_accessibility(DW_ACCESS_public)
    7641              $C$DW$973       .dwtag  DW_TAG_member
    7642                      .dwattr $C$DW$973, DW_AT_type(*$C$DW$T$22)
    7643                      .dwattr $C$DW$973, DW_AT_name("ETFLG")
    7644                      .dwattr $C$DW$973, DW_AT_TI_symbol_name("_ETFLG")
    7645                      .dwattr $C$DW$973, DW_AT_data_member_location[DW_OP_plus_uconst 0x1b]
    7646                      .dwattr $C$DW$973, DW_AT_accessibility(DW_ACCESS_public)
    7647              $C$DW$974       .dwtag  DW_TAG_member
    7648                      .dwattr $C$DW$974, DW_AT_type(*$C$DW$T$22)
    7649                      .dwattr $C$DW$974, DW_AT_name("ETCLR")
    7650                      .dwattr $C$DW$974, DW_AT_TI_symbol_name("_ETCLR")
    7651                      .dwattr $C$DW$974, DW_AT_data_member_location[DW_OP_plus_uconst 0x1c]
    7652                      .dwattr $C$DW$974, DW_AT_accessibility(DW_ACCESS_public)
    7653              $C$DW$975       .dwtag  DW_TAG_member
    7654                      .dwattr $C$DW$975, DW_AT_type(*$C$DW$T$22)
    7655                      .dwattr $C$DW$975, DW_AT_name("ETFRC")
    7656                      .dwattr $C$DW$975, DW_AT_TI_symbol_name("_ETFRC")
    7657                      .dwattr $C$DW$975, DW_AT_data_member_location[DW_OP_plus_uconst 0x1d]
    7658                      .dwattr $C$DW$975, DW_AT_accessibility(DW_ACCESS_public)
    7659              $C$DW$976       .dwtag  DW_TAG_member
    7660                      .dwattr $C$DW$976, DW_AT_type(*$C$DW$T$22)
    7661                      .dwattr $C$DW$976, DW_AT_name("PCCTL")
    7662                      .dwattr $C$DW$976, DW_AT_TI_symbol_name("_PCCTL")
    7663                      .dwattr $C$DW$976, DW_AT_data_member_location[DW_OP_plus_uconst 0x1e]
    7664                      .dwattr $C$DW$976, DW_AT_accessibility(DW_ACCESS_public)
    7665              $C$DW$977       .dwtag  DW_TAG_member
    7666                      .dwattr $C$DW$977, DW_AT_type(*$C$DW$T$22)
    7667                      .dwattr $C$DW$977, DW_AT_name("rsvd_1")
    7668                      .dwattr $C$DW$977, DW_AT_TI_symbol_name("_rsvd_1")
    7669                      .dwattr $C$DW$977, DW_AT_data_member_location[DW_OP_plus_uconst 0x1f]
TMS320C2000 Assembler PC v6.2.5 Wed Nov 22 14:48:16 2017

Tools Copyright (c) 1996-2014 Texas Instruments Incorporated
C:\Users\wmj\AppData\Local\Temp\0222411                              PAGE  144

    7670                      .dwattr $C$DW$977, DW_AT_accessibility(DW_ACCESS_public)
    7671              $C$DW$978       .dwtag  DW_TAG_member
    7672                      .dwattr $C$DW$978, DW_AT_type(*$C$DW$T$22)
    7673                      .dwattr $C$DW$978, DW_AT_name("HRCNFG")
    7674                      .dwattr $C$DW$978, DW_AT_TI_symbol_name("_HRCNFG")
    7675                      .dwattr $C$DW$978, DW_AT_data_member_location[DW_OP_plus_uconst 0x20]
    7676                      .dwattr $C$DW$978, DW_AT_accessibility(DW_ACCESS_public)
    7677              $C$DW$979       .dwtag  DW_TAG_member
    7678                      .dwattr $C$DW$979, DW_AT_type(*$C$DW$T$22)
    7679                      .dwattr $C$DW$979, DW_AT_name("HRPWR")
    7680                      .dwattr $C$DW$979, DW_AT_TI_symbol_name("_HRPWR")
    7681                      .dwattr $C$DW$979, DW_AT_data_member_location[DW_OP_plus_uconst 0x21]
    7682                      .dwattr $C$DW$979, DW_AT_accessibility(DW_ACCESS_public)
    7683              $C$DW$980       .dwtag  DW_TAG_member
    7684                      .dwattr $C$DW$980, DW_AT_type(*$C$DW$T$75)
    7685                      .dwattr $C$DW$980, DW_AT_name("rsvd_2")
    7686                      .dwattr $C$DW$980, DW_AT_TI_symbol_name("_rsvd_2")
    7687                      .dwattr $C$DW$980, DW_AT_data_member_location[DW_OP_plus_uconst 0x22]
    7688                      .dwattr $C$DW$980, DW_AT_accessibility(DW_ACCESS_public)
    7689              $C$DW$981       .dwtag  DW_TAG_member
    7690                      .dwattr $C$DW$981, DW_AT_type(*$C$DW$T$22)
    7691                      .dwattr $C$DW$981, DW_AT_name("HRMSTEP")
    7692                      .dwattr $C$DW$981, DW_AT_TI_symbol_name("_HRMSTEP")
    7693                      .dwattr $C$DW$981, DW_AT_data_member_location[DW_OP_plus_uconst 0x26]
    7694                      .dwattr $C$DW$981, DW_AT_accessibility(DW_ACCESS_public)
    7695              $C$DW$982       .dwtag  DW_TAG_member
    7696                      .dwattr $C$DW$982, DW_AT_type(*$C$DW$T$22)
    7697                      .dwattr $C$DW$982, DW_AT_name("rsvd_3")
    7698                      .dwattr $C$DW$982, DW_AT_TI_symbol_name("_rsvd_3")
    7699                      .dwattr $C$DW$982, DW_AT_data_member_location[DW_OP_plus_uconst 0x27]
    7700                      .dwattr $C$DW$982, DW_AT_accessibility(DW_ACCESS_public)
    7701              $C$DW$983       .dwtag  DW_TAG_member
    7702                      .dwattr $C$DW$983, DW_AT_type(*$C$DW$T$22)
    7703                      .dwattr $C$DW$983, DW_AT_name("HRPCTL")
    7704                      .dwattr $C$DW$983, DW_AT_TI_symbol_name("_HRPCTL")
    7705                      .dwattr $C$DW$983, DW_AT_data_member_location[DW_OP_plus_uconst 0x28]
    7706                      .dwattr $C$DW$983, DW_AT_accessibility(DW_ACCESS_public)
    7707              $C$DW$984       .dwtag  DW_TAG_member
    7708                      .dwattr $C$DW$984, DW_AT_type(*$C$DW$T$22)
    7709                      .dwattr $C$DW$984, DW_AT_name("rsvd_4")
    7710                      .dwattr $C$DW$984, DW_AT_TI_symbol_name("_rsvd_4")
    7711                      .dwattr $C$DW$984, DW_AT_data_member_location[DW_OP_plus_uconst 0x29]
    7712                      .dwattr $C$DW$984, DW_AT_accessibility(DW_ACCESS_public)
    7713              $C$DW$985       .dwtag  DW_TAG_member
    7714                      .dwattr $C$DW$985, DW_AT_type(*$C$DW$T$22)
    7715                      .dwattr $C$DW$985, DW_AT_name("TBPRDHRM")
    7716                      .dwattr $C$DW$985, DW_AT_TI_symbol_name("_TBPRDHRM")
    7717                      .dwattr $C$DW$985, DW_AT_data_member_location[DW_OP_plus_uconst 0x2a]
    7718                      .dwattr $C$DW$985, DW_AT_accessibility(DW_ACCESS_public)
    7719              $C$DW$986       .dwtag  DW_TAG_member
    7720                      .dwattr $C$DW$986, DW_AT_type(*$C$DW$T$22)
    7721                      .dwattr $C$DW$986, DW_AT_name("TBPRDM")
    7722                      .dwattr $C$DW$986, DW_AT_TI_symbol_name("_TBPRDM")
    7723                      .dwattr $C$DW$986, DW_AT_data_member_location[DW_OP_plus_uconst 0x2b]
    7724                      .dwattr $C$DW$986, DW_AT_accessibility(DW_ACCESS_public)
TMS320C2000 Assembler PC v6.2.5 Wed Nov 22 14:48:16 2017

Tools Copyright (c) 1996-2014 Texas Instruments Incorporated
C:\Users\wmj\AppData\Local\Temp\0222411                              PAGE  145

    7725              $C$DW$987       .dwtag  DW_TAG_member
    7726                      .dwattr $C$DW$987, DW_AT_type(*$C$DW$T$22)
    7727                      .dwattr $C$DW$987, DW_AT_name("CMPAHRM")
    7728                      .dwattr $C$DW$987, DW_AT_TI_symbol_name("_CMPAHRM")
    7729                      .dwattr $C$DW$987, DW_AT_data_member_location[DW_OP_plus_uconst 0x2c]
    7730                      .dwattr $C$DW$987, DW_AT_accessibility(DW_ACCESS_public)
    7731              $C$DW$988       .dwtag  DW_TAG_member
    7732                      .dwattr $C$DW$988, DW_AT_type(*$C$DW$T$22)
    7733                      .dwattr $C$DW$988, DW_AT_name("CMPAM")
    7734                      .dwattr $C$DW$988, DW_AT_TI_symbol_name("_CMPAM")
    7735                      .dwattr $C$DW$988, DW_AT_data_member_location[DW_OP_plus_uconst 0x2d]
    7736                      .dwattr $C$DW$988, DW_AT_accessibility(DW_ACCESS_public)
    7737              $C$DW$989       .dwtag  DW_TAG_member
    7738                      .dwattr $C$DW$989, DW_AT_type(*$C$DW$T$25)
    7739                      .dwattr $C$DW$989, DW_AT_name("rsvd_5")
    7740                      .dwattr $C$DW$989, DW_AT_TI_symbol_name("_rsvd_5")
    7741                      .dwattr $C$DW$989, DW_AT_data_member_location[DW_OP_plus_uconst 0x2e]
    7742                      .dwattr $C$DW$989, DW_AT_accessibility(DW_ACCESS_public)
    7743              $C$DW$990       .dwtag  DW_TAG_member
    7744                      .dwattr $C$DW$990, DW_AT_type(*$C$DW$T$22)
    7745                      .dwattr $C$DW$990, DW_AT_name("DCTRIPSEL")
    7746                      .dwattr $C$DW$990, DW_AT_TI_symbol_name("_DCTRIPSEL")
    7747                      .dwattr $C$DW$990, DW_AT_data_member_location[DW_OP_plus_uconst 0x30]
    7748                      .dwattr $C$DW$990, DW_AT_accessibility(DW_ACCESS_public)
    7749              $C$DW$991       .dwtag  DW_TAG_member
    7750                      .dwattr $C$DW$991, DW_AT_type(*$C$DW$T$22)
    7751                      .dwattr $C$DW$991, DW_AT_name("DCACTL")
    7752                      .dwattr $C$DW$991, DW_AT_TI_symbol_name("_DCACTL")
    7753                      .dwattr $C$DW$991, DW_AT_data_member_location[DW_OP_plus_uconst 0x31]
    7754                      .dwattr $C$DW$991, DW_AT_accessibility(DW_ACCESS_public)
    7755              $C$DW$992       .dwtag  DW_TAG_member
    7756                      .dwattr $C$DW$992, DW_AT_type(*$C$DW$T$22)
    7757                      .dwattr $C$DW$992, DW_AT_name("DCBCTL")
    7758                      .dwattr $C$DW$992, DW_AT_TI_symbol_name("_DCBCTL")
    7759                      .dwattr $C$DW$992, DW_AT_data_member_location[DW_OP_plus_uconst 0x32]
    7760                      .dwattr $C$DW$992, DW_AT_accessibility(DW_ACCESS_public)
    7761              $C$DW$993       .dwtag  DW_TAG_member
    7762                      .dwattr $C$DW$993, DW_AT_type(*$C$DW$T$22)
    7763                      .dwattr $C$DW$993, DW_AT_name("DCFCTL")
    7764                      .dwattr $C$DW$993, DW_AT_TI_symbol_name("_DCFCTL")
    7765                      .dwattr $C$DW$993, DW_AT_data_member_location[DW_OP_plus_uconst 0x33]
    7766                      .dwattr $C$DW$993, DW_AT_accessibility(DW_ACCESS_public)
    7767              $C$DW$994       .dwtag  DW_TAG_member
    7768                      .dwattr $C$DW$994, DW_AT_type(*$C$DW$T$22)
    7769                      .dwattr $C$DW$994, DW_AT_name("DCCAPCTL")
    7770                      .dwattr $C$DW$994, DW_AT_TI_symbol_name("_DCCAPCTL")
    7771                      .dwattr $C$DW$994, DW_AT_data_member_location[DW_OP_plus_uconst 0x34]
    7772                      .dwattr $C$DW$994, DW_AT_accessibility(DW_ACCESS_public)
    7773              $C$DW$995       .dwtag  DW_TAG_member
    7774                      .dwattr $C$DW$995, DW_AT_type(*$C$DW$T$22)
    7775                      .dwattr $C$DW$995, DW_AT_name("DCFOFFSET")
    7776                      .dwattr $C$DW$995, DW_AT_TI_symbol_name("_DCFOFFSET")
    7777                      .dwattr $C$DW$995, DW_AT_data_member_location[DW_OP_plus_uconst 0x35]
    7778                      .dwattr $C$DW$995, DW_AT_accessibility(DW_ACCESS_public)
    7779              $C$DW$996       .dwtag  DW_TAG_member
TMS320C2000 Assembler PC v6.2.5 Wed Nov 22 14:48:16 2017

Tools Copyright (c) 1996-2014 Texas Instruments Incorporated
C:\Users\wmj\AppData\Local\Temp\0222411                              PAGE  146

    7780                      .dwattr $C$DW$996, DW_AT_type(*$C$DW$T$22)
    7781                      .dwattr $C$DW$996, DW_AT_name("DCFOFFSETCNT")
    7782                      .dwattr $C$DW$996, DW_AT_TI_symbol_name("_DCFOFFSETCNT")
    7783                      .dwattr $C$DW$996, DW_AT_data_member_location[DW_OP_plus_uconst 0x36]
    7784                      .dwattr $C$DW$996, DW_AT_accessibility(DW_ACCESS_public)
    7785              $C$DW$997       .dwtag  DW_TAG_member
    7786                      .dwattr $C$DW$997, DW_AT_type(*$C$DW$T$22)
    7787                      .dwattr $C$DW$997, DW_AT_name("DCFWINDOW")
    7788                      .dwattr $C$DW$997, DW_AT_TI_symbol_name("_DCFWINDOW")
    7789                      .dwattr $C$DW$997, DW_AT_data_member_location[DW_OP_plus_uconst 0x37]
    7790                      .dwattr $C$DW$997, DW_AT_accessibility(DW_ACCESS_public)
    7791              $C$DW$998       .dwtag  DW_TAG_member
    7792                      .dwattr $C$DW$998, DW_AT_type(*$C$DW$T$22)
    7793                      .dwattr $C$DW$998, DW_AT_name("DCFWINDOWCNT")
    7794                      .dwattr $C$DW$998, DW_AT_TI_symbol_name("_DCFWINDOWCNT")
    7795                      .dwattr $C$DW$998, DW_AT_data_member_location[DW_OP_plus_uconst 0x38]
    7796                      .dwattr $C$DW$998, DW_AT_accessibility(DW_ACCESS_public)
    7797              $C$DW$999       .dwtag  DW_TAG_member
    7798                      .dwattr $C$DW$999, DW_AT_type(*$C$DW$T$22)
    7799                      .dwattr $C$DW$999, DW_AT_name("DCCAP")
    7800                      .dwattr $C$DW$999, DW_AT_TI_symbol_name("_DCCAP")
    7801                      .dwattr $C$DW$999, DW_AT_data_member_location[DW_OP_plus_uconst 0x39]
    7802                      .dwattr $C$DW$999, DW_AT_accessibility(DW_ACCESS_public)
    7803                      .dwendtag $C$DW$T$166
    7804              
    7805              $C$DW$T$100     .dwtag  DW_TAG_pointer_type
    7806                      .dwattr $C$DW$T$100, DW_AT_type(*$C$DW$T$166)
    7807                      .dwattr $C$DW$T$100, DW_AT_address_class(0x16)
    7808              $C$DW$T$101     .dwtag  DW_TAG_typedef, DW_AT_name("PWM_Handle")
    7809                      .dwattr $C$DW$T$101, DW_AT_type(*$C$DW$T$100)
    7810                      .dwattr $C$DW$T$101, DW_AT_language(DW_LANG_C)
    7811              
    7812              $C$DW$T$102     .dwtag  DW_TAG_array_type
    7813                      .dwattr $C$DW$T$102, DW_AT_type(*$C$DW$T$101)
    7814                      .dwattr $C$DW$T$102, DW_AT_language(DW_LANG_C)
    7815                      .dwattr $C$DW$T$102, DW_AT_byte_size(0x06)
    7816              $C$DW$1000      .dwtag  DW_TAG_subrange_type
    7817                      .dwattr $C$DW$1000, DW_AT_upper_bound(0x02)
    7818                      .dwendtag $C$DW$T$102
    7819              
    7820              
    7821              $C$DW$T$168     .dwtag  DW_TAG_structure_type
    7822                      .dwattr $C$DW$T$168, DW_AT_name("_PWR_Obj_")
    7823                      .dwattr $C$DW$T$168, DW_AT_byte_size(0x669a)
    7824              $C$DW$1001      .dwtag  DW_TAG_member
    7825                      .dwattr $C$DW$1001, DW_AT_type(*$C$DW$T$22)
    7826                      .dwattr $C$DW$1001, DW_AT_name("BORCFG")
    7827                      .dwattr $C$DW$1001, DW_AT_TI_symbol_name("_BORCFG")
    7828                      .dwattr $C$DW$1001, DW_AT_data_member_location[DW_OP_plus_uconst 0x0]
    7829                      .dwattr $C$DW$1001, DW_AT_accessibility(DW_ACCESS_public)
    7830              $C$DW$1002      .dwtag  DW_TAG_member
    7831                      .dwattr $C$DW$1002, DW_AT_type(*$C$DW$T$167)
    7832                      .dwattr $C$DW$1002, DW_AT_name("rsvd_1")
    7833                      .dwattr $C$DW$1002, DW_AT_TI_symbol_name("_rsvd_1")
    7834                      .dwattr $C$DW$1002, DW_AT_data_member_location[DW_OP_plus_uconst 0x1]
TMS320C2000 Assembler PC v6.2.5 Wed Nov 22 14:48:16 2017

Tools Copyright (c) 1996-2014 Texas Instruments Incorporated
C:\Users\wmj\AppData\Local\Temp\0222411                              PAGE  147

    7835                      .dwattr $C$DW$1002, DW_AT_accessibility(DW_ACCESS_public)
    7836              $C$DW$1003      .dwtag  DW_TAG_member
    7837                      .dwattr $C$DW$1003, DW_AT_type(*$C$DW$T$22)
    7838                      .dwattr $C$DW$1003, DW_AT_name("LPMCR0")
    7839                      .dwattr $C$DW$1003, DW_AT_TI_symbol_name("_LPMCR0")
    7840                      .dwattr $C$DW$1003, DW_AT_data_member_location[DW_OP_plus_uconst 0x6699]
    7841                      .dwattr $C$DW$1003, DW_AT_accessibility(DW_ACCESS_public)
    7842                      .dwendtag $C$DW$T$168
    7843              
    7844              $C$DW$T$103     .dwtag  DW_TAG_pointer_type
    7845                      .dwattr $C$DW$T$103, DW_AT_type(*$C$DW$T$168)
    7846                      .dwattr $C$DW$T$103, DW_AT_address_class(0x16)
    7847              $C$DW$T$104     .dwtag  DW_TAG_typedef, DW_AT_name("PWR_Handle")
    7848                      .dwattr $C$DW$T$104, DW_AT_type(*$C$DW$T$103)
    7849                      .dwattr $C$DW$T$104, DW_AT_language(DW_LANG_C)
    7850              
    7851              $C$DW$T$169     .dwtag  DW_TAG_structure_type
    7852                      .dwattr $C$DW$T$169, DW_AT_name("_SCI_Obj_")
    7853                      .dwattr $C$DW$T$169, DW_AT_byte_size(0x10)
    7854              $C$DW$1004      .dwtag  DW_TAG_member
    7855                      .dwattr $C$DW$1004, DW_AT_type(*$C$DW$T$22)
    7856                      .dwattr $C$DW$1004, DW_AT_name("SCICCR")
    7857                      .dwattr $C$DW$1004, DW_AT_TI_symbol_name("_SCICCR")
    7858                      .dwattr $C$DW$1004, DW_AT_data_member_location[DW_OP_plus_uconst 0x0]
    7859                      .dwattr $C$DW$1004, DW_AT_accessibility(DW_ACCESS_public)
    7860              $C$DW$1005      .dwtag  DW_TAG_member
    7861                      .dwattr $C$DW$1005, DW_AT_type(*$C$DW$T$22)
    7862                      .dwattr $C$DW$1005, DW_AT_name("SCICTL1")
    7863                      .dwattr $C$DW$1005, DW_AT_TI_symbol_name("_SCICTL1")
    7864                      .dwattr $C$DW$1005, DW_AT_data_member_location[DW_OP_plus_uconst 0x1]
    7865                      .dwattr $C$DW$1005, DW_AT_accessibility(DW_ACCESS_public)
    7866              $C$DW$1006      .dwtag  DW_TAG_member
    7867                      .dwattr $C$DW$1006, DW_AT_type(*$C$DW$T$22)
    7868                      .dwattr $C$DW$1006, DW_AT_name("SCIHBAUD")
    7869                      .dwattr $C$DW$1006, DW_AT_TI_symbol_name("_SCIHBAUD")
    7870                      .dwattr $C$DW$1006, DW_AT_data_member_location[DW_OP_plus_uconst 0x2]
    7871                      .dwattr $C$DW$1006, DW_AT_accessibility(DW_ACCESS_public)
    7872              $C$DW$1007      .dwtag  DW_TAG_member
    7873                      .dwattr $C$DW$1007, DW_AT_type(*$C$DW$T$22)
    7874                      .dwattr $C$DW$1007, DW_AT_name("SCILBAUD")
    7875                      .dwattr $C$DW$1007, DW_AT_TI_symbol_name("_SCILBAUD")
    7876                      .dwattr $C$DW$1007, DW_AT_data_member_location[DW_OP_plus_uconst 0x3]
    7877                      .dwattr $C$DW$1007, DW_AT_accessibility(DW_ACCESS_public)
    7878              $C$DW$1008      .dwtag  DW_TAG_member
    7879                      .dwattr $C$DW$1008, DW_AT_type(*$C$DW$T$22)
    7880                      .dwattr $C$DW$1008, DW_AT_name("SCICTL2")
    7881                      .dwattr $C$DW$1008, DW_AT_TI_symbol_name("_SCICTL2")
    7882                      .dwattr $C$DW$1008, DW_AT_data_member_location[DW_OP_plus_uconst 0x4]
    7883                      .dwattr $C$DW$1008, DW_AT_accessibility(DW_ACCESS_public)
    7884              $C$DW$1009      .dwtag  DW_TAG_member
    7885                      .dwattr $C$DW$1009, DW_AT_type(*$C$DW$T$22)
    7886                      .dwattr $C$DW$1009, DW_AT_name("SCIRXST")
    7887                      .dwattr $C$DW$1009, DW_AT_TI_symbol_name("_SCIRXST")
    7888                      .dwattr $C$DW$1009, DW_AT_data_member_location[DW_OP_plus_uconst 0x5]
    7889                      .dwattr $C$DW$1009, DW_AT_accessibility(DW_ACCESS_public)
TMS320C2000 Assembler PC v6.2.5 Wed Nov 22 14:48:16 2017

Tools Copyright (c) 1996-2014 Texas Instruments Incorporated
C:\Users\wmj\AppData\Local\Temp\0222411                              PAGE  148

    7890              $C$DW$1010      .dwtag  DW_TAG_member
    7891                      .dwattr $C$DW$1010, DW_AT_type(*$C$DW$T$22)
    7892                      .dwattr $C$DW$1010, DW_AT_name("SCIRXEMU")
    7893                      .dwattr $C$DW$1010, DW_AT_TI_symbol_name("_SCIRXEMU")
    7894                      .dwattr $C$DW$1010, DW_AT_data_member_location[DW_OP_plus_uconst 0x6]
    7895                      .dwattr $C$DW$1010, DW_AT_accessibility(DW_ACCESS_public)
    7896              $C$DW$1011      .dwtag  DW_TAG_member
    7897                      .dwattr $C$DW$1011, DW_AT_type(*$C$DW$T$22)
    7898                      .dwattr $C$DW$1011, DW_AT_name("SCIRXBUF")
    7899                      .dwattr $C$DW$1011, DW_AT_TI_symbol_name("_SCIRXBUF")
    7900                      .dwattr $C$DW$1011, DW_AT_data_member_location[DW_OP_plus_uconst 0x7]
    7901                      .dwattr $C$DW$1011, DW_AT_accessibility(DW_ACCESS_public)
    7902              $C$DW$1012      .dwtag  DW_TAG_member
    7903                      .dwattr $C$DW$1012, DW_AT_type(*$C$DW$T$22)
    7904                      .dwattr $C$DW$1012, DW_AT_name("rsvd_1")
    7905                      .dwattr $C$DW$1012, DW_AT_TI_symbol_name("_rsvd_1")
    7906                      .dwattr $C$DW$1012, DW_AT_data_member_location[DW_OP_plus_uconst 0x8]
    7907                      .dwattr $C$DW$1012, DW_AT_accessibility(DW_ACCESS_public)
    7908              $C$DW$1013      .dwtag  DW_TAG_member
    7909                      .dwattr $C$DW$1013, DW_AT_type(*$C$DW$T$22)
    7910                      .dwattr $C$DW$1013, DW_AT_name("SCITXBUF")
    7911                      .dwattr $C$DW$1013, DW_AT_TI_symbol_name("_SCITXBUF")
    7912                      .dwattr $C$DW$1013, DW_AT_data_member_location[DW_OP_plus_uconst 0x9]
    7913                      .dwattr $C$DW$1013, DW_AT_accessibility(DW_ACCESS_public)
    7914              $C$DW$1014      .dwtag  DW_TAG_member
    7915                      .dwattr $C$DW$1014, DW_AT_type(*$C$DW$T$22)
    7916                      .dwattr $C$DW$1014, DW_AT_name("SCIFFTX")
    7917                      .dwattr $C$DW$1014, DW_AT_TI_symbol_name("_SCIFFTX")
    7918                      .dwattr $C$DW$1014, DW_AT_data_member_location[DW_OP_plus_uconst 0xa]
    7919                      .dwattr $C$DW$1014, DW_AT_accessibility(DW_ACCESS_public)
    7920              $C$DW$1015      .dwtag  DW_TAG_member
    7921                      .dwattr $C$DW$1015, DW_AT_type(*$C$DW$T$22)
    7922                      .dwattr $C$DW$1015, DW_AT_name("SCIFFRX")
    7923                      .dwattr $C$DW$1015, DW_AT_TI_symbol_name("_SCIFFRX")
    7924                      .dwattr $C$DW$1015, DW_AT_data_member_location[DW_OP_plus_uconst 0xb]
    7925                      .dwattr $C$DW$1015, DW_AT_accessibility(DW_ACCESS_public)
    7926              $C$DW$1016      .dwtag  DW_TAG_member
    7927                      .dwattr $C$DW$1016, DW_AT_type(*$C$DW$T$22)
    7928                      .dwattr $C$DW$1016, DW_AT_name("SCIFFCT")
    7929                      .dwattr $C$DW$1016, DW_AT_TI_symbol_name("_SCIFFCT")
    7930                      .dwattr $C$DW$1016, DW_AT_data_member_location[DW_OP_plus_uconst 0xc]
    7931                      .dwattr $C$DW$1016, DW_AT_accessibility(DW_ACCESS_public)
    7932              $C$DW$1017      .dwtag  DW_TAG_member
    7933                      .dwattr $C$DW$1017, DW_AT_type(*$C$DW$T$25)
    7934                      .dwattr $C$DW$1017, DW_AT_name("rsvd_2")
    7935                      .dwattr $C$DW$1017, DW_AT_TI_symbol_name("_rsvd_2")
    7936                      .dwattr $C$DW$1017, DW_AT_data_member_location[DW_OP_plus_uconst 0xd]
    7937                      .dwattr $C$DW$1017, DW_AT_accessibility(DW_ACCESS_public)
    7938              $C$DW$1018      .dwtag  DW_TAG_member
    7939                      .dwattr $C$DW$1018, DW_AT_type(*$C$DW$T$22)
    7940                      .dwattr $C$DW$1018, DW_AT_name("SCIPRI")
    7941                      .dwattr $C$DW$1018, DW_AT_TI_symbol_name("_SCIPRI")
    7942                      .dwattr $C$DW$1018, DW_AT_data_member_location[DW_OP_plus_uconst 0xf]
    7943                      .dwattr $C$DW$1018, DW_AT_accessibility(DW_ACCESS_public)
    7944                      .dwendtag $C$DW$T$169
TMS320C2000 Assembler PC v6.2.5 Wed Nov 22 14:48:16 2017

Tools Copyright (c) 1996-2014 Texas Instruments Incorporated
C:\Users\wmj\AppData\Local\Temp\0222411                              PAGE  149

    7945              
    7946              $C$DW$T$112     .dwtag  DW_TAG_pointer_type
    7947                      .dwattr $C$DW$T$112, DW_AT_type(*$C$DW$T$169)
    7948                      .dwattr $C$DW$T$112, DW_AT_address_class(0x16)
    7949              $C$DW$T$113     .dwtag  DW_TAG_typedef, DW_AT_name("SCI_Handle")
    7950                      .dwattr $C$DW$T$113, DW_AT_type(*$C$DW$T$112)
    7951                      .dwattr $C$DW$T$113, DW_AT_language(DW_LANG_C)
    7952              $C$DW$1019      .dwtag  DW_TAG_TI_far_type
    7953                      .dwattr $C$DW$1019, DW_AT_type(*$C$DW$T$113)
    7954              $C$DW$T$209     .dwtag  DW_TAG_const_type
    7955                      .dwattr $C$DW$T$209, DW_AT_type(*$C$DW$1019)
    7956              
    7957              $C$DW$T$170     .dwtag  DW_TAG_structure_type
    7958                      .dwattr $C$DW$T$170, DW_AT_name("_SPI_Obj_")
    7959                      .dwattr $C$DW$T$170, DW_AT_byte_size(0x10)
    7960              $C$DW$1020      .dwtag  DW_TAG_member
    7961                      .dwattr $C$DW$1020, DW_AT_type(*$C$DW$T$22)
    7962                      .dwattr $C$DW$1020, DW_AT_name("SPICCR")
    7963                      .dwattr $C$DW$1020, DW_AT_TI_symbol_name("_SPICCR")
    7964                      .dwattr $C$DW$1020, DW_AT_data_member_location[DW_OP_plus_uconst 0x0]
    7965                      .dwattr $C$DW$1020, DW_AT_accessibility(DW_ACCESS_public)
    7966              $C$DW$1021      .dwtag  DW_TAG_member
    7967                      .dwattr $C$DW$1021, DW_AT_type(*$C$DW$T$22)
    7968                      .dwattr $C$DW$1021, DW_AT_name("SPICTL")
    7969                      .dwattr $C$DW$1021, DW_AT_TI_symbol_name("_SPICTL")
    7970                      .dwattr $C$DW$1021, DW_AT_data_member_location[DW_OP_plus_uconst 0x1]
    7971                      .dwattr $C$DW$1021, DW_AT_accessibility(DW_ACCESS_public)
    7972              $C$DW$1022      .dwtag  DW_TAG_member
    7973                      .dwattr $C$DW$1022, DW_AT_type(*$C$DW$T$22)
    7974                      .dwattr $C$DW$1022, DW_AT_name("SPIST")
    7975                      .dwattr $C$DW$1022, DW_AT_TI_symbol_name("_SPIST")
    7976                      .dwattr $C$DW$1022, DW_AT_data_member_location[DW_OP_plus_uconst 0x2]
    7977                      .dwattr $C$DW$1022, DW_AT_accessibility(DW_ACCESS_public)
    7978              $C$DW$1023      .dwtag  DW_TAG_member
    7979                      .dwattr $C$DW$1023, DW_AT_type(*$C$DW$T$22)
    7980                      .dwattr $C$DW$1023, DW_AT_name("rsvd_1")
    7981                      .dwattr $C$DW$1023, DW_AT_TI_symbol_name("_rsvd_1")
    7982                      .dwattr $C$DW$1023, DW_AT_data_member_location[DW_OP_plus_uconst 0x3]
    7983                      .dwattr $C$DW$1023, DW_AT_accessibility(DW_ACCESS_public)
    7984              $C$DW$1024      .dwtag  DW_TAG_member
    7985                      .dwattr $C$DW$1024, DW_AT_type(*$C$DW$T$22)
    7986                      .dwattr $C$DW$1024, DW_AT_name("SPIBRR")
    7987                      .dwattr $C$DW$1024, DW_AT_TI_symbol_name("_SPIBRR")
    7988                      .dwattr $C$DW$1024, DW_AT_data_member_location[DW_OP_plus_uconst 0x4]
    7989                      .dwattr $C$DW$1024, DW_AT_accessibility(DW_ACCESS_public)
    7990              $C$DW$1025      .dwtag  DW_TAG_member
    7991                      .dwattr $C$DW$1025, DW_AT_type(*$C$DW$T$22)
    7992                      .dwattr $C$DW$1025, DW_AT_name("rsvd_2")
    7993                      .dwattr $C$DW$1025, DW_AT_TI_symbol_name("_rsvd_2")
    7994                      .dwattr $C$DW$1025, DW_AT_data_member_location[DW_OP_plus_uconst 0x5]
    7995                      .dwattr $C$DW$1025, DW_AT_accessibility(DW_ACCESS_public)
    7996              $C$DW$1026      .dwtag  DW_TAG_member
    7997                      .dwattr $C$DW$1026, DW_AT_type(*$C$DW$T$22)
    7998                      .dwattr $C$DW$1026, DW_AT_name("SPIEMU")
    7999                      .dwattr $C$DW$1026, DW_AT_TI_symbol_name("_SPIEMU")
TMS320C2000 Assembler PC v6.2.5 Wed Nov 22 14:48:16 2017

Tools Copyright (c) 1996-2014 Texas Instruments Incorporated
C:\Users\wmj\AppData\Local\Temp\0222411                              PAGE  150

    8000                      .dwattr $C$DW$1026, DW_AT_data_member_location[DW_OP_plus_uconst 0x6]
    8001                      .dwattr $C$DW$1026, DW_AT_accessibility(DW_ACCESS_public)
    8002              $C$DW$1027      .dwtag  DW_TAG_member
    8003                      .dwattr $C$DW$1027, DW_AT_type(*$C$DW$T$22)
    8004                      .dwattr $C$DW$1027, DW_AT_name("SPIRXBUF")
    8005                      .dwattr $C$DW$1027, DW_AT_TI_symbol_name("_SPIRXBUF")
    8006                      .dwattr $C$DW$1027, DW_AT_data_member_location[DW_OP_plus_uconst 0x7]
    8007                      .dwattr $C$DW$1027, DW_AT_accessibility(DW_ACCESS_public)
    8008              $C$DW$1028      .dwtag  DW_TAG_member
    8009                      .dwattr $C$DW$1028, DW_AT_type(*$C$DW$T$22)
    8010                      .dwattr $C$DW$1028, DW_AT_name("SPITXBUF")
    8011                      .dwattr $C$DW$1028, DW_AT_TI_symbol_name("_SPITXBUF")
    8012                      .dwattr $C$DW$1028, DW_AT_data_member_location[DW_OP_plus_uconst 0x8]
    8013                      .dwattr $C$DW$1028, DW_AT_accessibility(DW_ACCESS_public)
    8014              $C$DW$1029      .dwtag  DW_TAG_member
    8015                      .dwattr $C$DW$1029, DW_AT_type(*$C$DW$T$22)
    8016                      .dwattr $C$DW$1029, DW_AT_name("SPIDAT")
    8017                      .dwattr $C$DW$1029, DW_AT_TI_symbol_name("_SPIDAT")
    8018                      .dwattr $C$DW$1029, DW_AT_data_member_location[DW_OP_plus_uconst 0x9]
    8019                      .dwattr $C$DW$1029, DW_AT_accessibility(DW_ACCESS_public)
    8020              $C$DW$1030      .dwtag  DW_TAG_member
    8021                      .dwattr $C$DW$1030, DW_AT_type(*$C$DW$T$22)
    8022                      .dwattr $C$DW$1030, DW_AT_name("SPIFFTX")
    8023                      .dwattr $C$DW$1030, DW_AT_TI_symbol_name("_SPIFFTX")
    8024                      .dwattr $C$DW$1030, DW_AT_data_member_location[DW_OP_plus_uconst 0xa]
    8025                      .dwattr $C$DW$1030, DW_AT_accessibility(DW_ACCESS_public)
    8026              $C$DW$1031      .dwtag  DW_TAG_member
    8027                      .dwattr $C$DW$1031, DW_AT_type(*$C$DW$T$22)
    8028                      .dwattr $C$DW$1031, DW_AT_name("SPIFFRX")
    8029                      .dwattr $C$DW$1031, DW_AT_TI_symbol_name("_SPIFFRX")
    8030                      .dwattr $C$DW$1031, DW_AT_data_member_location[DW_OP_plus_uconst 0xb]
    8031                      .dwattr $C$DW$1031, DW_AT_accessibility(DW_ACCESS_public)
    8032              $C$DW$1032      .dwtag  DW_TAG_member
    8033                      .dwattr $C$DW$1032, DW_AT_type(*$C$DW$T$22)
    8034                      .dwattr $C$DW$1032, DW_AT_name("SPIFFCT")
    8035                      .dwattr $C$DW$1032, DW_AT_TI_symbol_name("_SPIFFCT")
    8036                      .dwattr $C$DW$1032, DW_AT_data_member_location[DW_OP_plus_uconst 0xc]
    8037                      .dwattr $C$DW$1032, DW_AT_accessibility(DW_ACCESS_public)
    8038              $C$DW$1033      .dwtag  DW_TAG_member
    8039                      .dwattr $C$DW$1033, DW_AT_type(*$C$DW$T$25)
    8040                      .dwattr $C$DW$1033, DW_AT_name("rsvd_3")
    8041                      .dwattr $C$DW$1033, DW_AT_TI_symbol_name("_rsvd_3")
    8042                      .dwattr $C$DW$1033, DW_AT_data_member_location[DW_OP_plus_uconst 0xd]
    8043                      .dwattr $C$DW$1033, DW_AT_accessibility(DW_ACCESS_public)
    8044              $C$DW$1034      .dwtag  DW_TAG_member
    8045                      .dwattr $C$DW$1034, DW_AT_type(*$C$DW$T$22)
    8046                      .dwattr $C$DW$1034, DW_AT_name("SPIPRI")
    8047                      .dwattr $C$DW$1034, DW_AT_TI_symbol_name("_SPIPRI")
    8048                      .dwattr $C$DW$1034, DW_AT_data_member_location[DW_OP_plus_uconst 0xf]
    8049                      .dwattr $C$DW$1034, DW_AT_accessibility(DW_ACCESS_public)
    8050                      .dwendtag $C$DW$T$170
    8051              
    8052              $C$DW$T$108     .dwtag  DW_TAG_pointer_type
    8053                      .dwattr $C$DW$T$108, DW_AT_type(*$C$DW$T$170)
    8054                      .dwattr $C$DW$T$108, DW_AT_address_class(0x16)
TMS320C2000 Assembler PC v6.2.5 Wed Nov 22 14:48:16 2017

Tools Copyright (c) 1996-2014 Texas Instruments Incorporated
C:\Users\wmj\AppData\Local\Temp\0222411                              PAGE  151

    8055              $C$DW$T$109     .dwtag  DW_TAG_typedef, DW_AT_name("SPI_Handle")
    8056                      .dwattr $C$DW$T$109, DW_AT_type(*$C$DW$T$108)
    8057                      .dwattr $C$DW$T$109, DW_AT_language(DW_LANG_C)
    8058              
    8059              $C$DW$T$171     .dwtag  DW_TAG_structure_type
    8060                      .dwattr $C$DW$T$171, DW_AT_name("_TIMER_Obj_")
    8061                      .dwattr $C$DW$T$171, DW_AT_byte_size(0x08)
    8062              $C$DW$1035      .dwtag  DW_TAG_member
    8063                      .dwattr $C$DW$1035, DW_AT_type(*$C$DW$T$73)
    8064                      .dwattr $C$DW$1035, DW_AT_name("TIM")
    8065                      .dwattr $C$DW$1035, DW_AT_TI_symbol_name("_TIM")
    8066                      .dwattr $C$DW$1035, DW_AT_data_member_location[DW_OP_plus_uconst 0x0]
    8067                      .dwattr $C$DW$1035, DW_AT_accessibility(DW_ACCESS_public)
    8068              $C$DW$1036      .dwtag  DW_TAG_member
    8069                      .dwattr $C$DW$1036, DW_AT_type(*$C$DW$T$73)
    8070                      .dwattr $C$DW$1036, DW_AT_name("PRD")
    8071                      .dwattr $C$DW$1036, DW_AT_TI_symbol_name("_PRD")
    8072                      .dwattr $C$DW$1036, DW_AT_data_member_location[DW_OP_plus_uconst 0x2]
    8073                      .dwattr $C$DW$1036, DW_AT_accessibility(DW_ACCESS_public)
    8074              $C$DW$1037      .dwtag  DW_TAG_member
    8075                      .dwattr $C$DW$1037, DW_AT_type(*$C$DW$T$22)
    8076                      .dwattr $C$DW$1037, DW_AT_name("TCR")
    8077                      .dwattr $C$DW$1037, DW_AT_TI_symbol_name("_TCR")
    8078                      .dwattr $C$DW$1037, DW_AT_data_member_location[DW_OP_plus_uconst 0x4]
    8079                      .dwattr $C$DW$1037, DW_AT_accessibility(DW_ACCESS_public)
    8080              $C$DW$1038      .dwtag  DW_TAG_member
    8081                      .dwattr $C$DW$1038, DW_AT_type(*$C$DW$T$22)
    8082                      .dwattr $C$DW$1038, DW_AT_name("resvd_1")
    8083                      .dwattr $C$DW$1038, DW_AT_TI_symbol_name("_resvd_1")
    8084                      .dwattr $C$DW$1038, DW_AT_data_member_location[DW_OP_plus_uconst 0x5]
    8085                      .dwattr $C$DW$1038, DW_AT_accessibility(DW_ACCESS_public)
    8086              $C$DW$1039      .dwtag  DW_TAG_member
    8087                      .dwattr $C$DW$1039, DW_AT_type(*$C$DW$T$73)
    8088                      .dwattr $C$DW$1039, DW_AT_name("TPR")
    8089                      .dwattr $C$DW$1039, DW_AT_TI_symbol_name("_TPR")
    8090                      .dwattr $C$DW$1039, DW_AT_data_member_location[DW_OP_plus_uconst 0x6]
    8091                      .dwattr $C$DW$1039, DW_AT_accessibility(DW_ACCESS_public)
    8092                      .dwendtag $C$DW$T$171
    8093              
    8094              $C$DW$T$211     .dwtag  DW_TAG_typedef, DW_AT_name("TIMER_Obj")
    8095                      .dwattr $C$DW$T$211, DW_AT_type(*$C$DW$T$171)
    8096                      .dwattr $C$DW$T$211, DW_AT_language(DW_LANG_C)
    8097              $C$DW$T$105     .dwtag  DW_TAG_pointer_type
    8098                      .dwattr $C$DW$T$105, DW_AT_type(*$C$DW$T$171)
    8099                      .dwattr $C$DW$T$105, DW_AT_address_class(0x16)
    8100              $C$DW$T$106     .dwtag  DW_TAG_typedef, DW_AT_name("TIMER_Handle")
    8101                      .dwattr $C$DW$T$106, DW_AT_type(*$C$DW$T$105)
    8102                      .dwattr $C$DW$T$106, DW_AT_language(DW_LANG_C)
    8103              $C$DW$1040      .dwtag  DW_TAG_TI_far_type
    8104                      .dwattr $C$DW$1040, DW_AT_type(*$C$DW$T$106)
    8105              $C$DW$T$212     .dwtag  DW_TAG_const_type
    8106                      .dwattr $C$DW$T$212, DW_AT_type(*$C$DW$1040)
    8107              
    8108              $C$DW$T$107     .dwtag  DW_TAG_array_type
    8109                      .dwattr $C$DW$T$107, DW_AT_type(*$C$DW$T$106)
TMS320C2000 Assembler PC v6.2.5 Wed Nov 22 14:48:16 2017

Tools Copyright (c) 1996-2014 Texas Instruments Incorporated
C:\Users\wmj\AppData\Local\Temp\0222411                              PAGE  152

    8110                      .dwattr $C$DW$T$107, DW_AT_language(DW_LANG_C)
    8111                      .dwattr $C$DW$T$107, DW_AT_byte_size(0x06)
    8112              $C$DW$1041      .dwtag  DW_TAG_subrange_type
    8113                      .dwattr $C$DW$1041, DW_AT_upper_bound(0x02)
    8114                      .dwendtag $C$DW$T$107
    8115              
    8116              
    8117              $C$DW$T$172     .dwtag  DW_TAG_structure_type
    8118                      .dwattr $C$DW$T$172, DW_AT_name("_WDOG_Obj_")
    8119                      .dwattr $C$DW$T$172, DW_AT_byte_size(0x08)
    8120              $C$DW$1042      .dwtag  DW_TAG_member
    8121                      .dwattr $C$DW$1042, DW_AT_type(*$C$DW$T$22)
    8122                      .dwattr $C$DW$1042, DW_AT_name("SCSR")
    8123                      .dwattr $C$DW$1042, DW_AT_TI_symbol_name("_SCSR")
    8124                      .dwattr $C$DW$1042, DW_AT_data_member_location[DW_OP_plus_uconst 0x0]
    8125                      .dwattr $C$DW$1042, DW_AT_accessibility(DW_ACCESS_public)
    8126              $C$DW$1043      .dwtag  DW_TAG_member
    8127                      .dwattr $C$DW$1043, DW_AT_type(*$C$DW$T$22)
    8128                      .dwattr $C$DW$1043, DW_AT_name("WDCNTR")
    8129                      .dwattr $C$DW$1043, DW_AT_TI_symbol_name("_WDCNTR")
    8130                      .dwattr $C$DW$1043, DW_AT_data_member_location[DW_OP_plus_uconst 0x1]
    8131                      .dwattr $C$DW$1043, DW_AT_accessibility(DW_ACCESS_public)
    8132              $C$DW$1044      .dwtag  DW_TAG_member
    8133                      .dwattr $C$DW$1044, DW_AT_type(*$C$DW$T$22)
    8134                      .dwattr $C$DW$1044, DW_AT_name("rsvd_1")
    8135                      .dwattr $C$DW$1044, DW_AT_TI_symbol_name("_rsvd_1")
    8136                      .dwattr $C$DW$1044, DW_AT_data_member_location[DW_OP_plus_uconst 0x2]
    8137                      .dwattr $C$DW$1044, DW_AT_accessibility(DW_ACCESS_public)
    8138              $C$DW$1045      .dwtag  DW_TAG_member
    8139                      .dwattr $C$DW$1045, DW_AT_type(*$C$DW$T$22)
    8140                      .dwattr $C$DW$1045, DW_AT_name("WDKEY")
    8141                      .dwattr $C$DW$1045, DW_AT_TI_symbol_name("_WDKEY")
    8142                      .dwattr $C$DW$1045, DW_AT_data_member_location[DW_OP_plus_uconst 0x3]
    8143                      .dwattr $C$DW$1045, DW_AT_accessibility(DW_ACCESS_public)
    8144              $C$DW$1046      .dwtag  DW_TAG_member
    8145                      .dwattr $C$DW$1046, DW_AT_type(*$C$DW$T$27)
    8146                      .dwattr $C$DW$1046, DW_AT_name("rsvd_2")
    8147                      .dwattr $C$DW$1046, DW_AT_TI_symbol_name("_rsvd_2")
    8148                      .dwattr $C$DW$1046, DW_AT_data_member_location[DW_OP_plus_uconst 0x4]
    8149                      .dwattr $C$DW$1046, DW_AT_accessibility(DW_ACCESS_public)
    8150              $C$DW$1047      .dwtag  DW_TAG_member
    8151                      .dwattr $C$DW$1047, DW_AT_type(*$C$DW$T$22)
    8152                      .dwattr $C$DW$1047, DW_AT_name("WDCR")
    8153                      .dwattr $C$DW$1047, DW_AT_TI_symbol_name("_WDCR")
    8154                      .dwattr $C$DW$1047, DW_AT_data_member_location[DW_OP_plus_uconst 0x7]
    8155                      .dwattr $C$DW$1047, DW_AT_accessibility(DW_ACCESS_public)
    8156                      .dwendtag $C$DW$T$172
    8157              
    8158              $C$DW$T$110     .dwtag  DW_TAG_pointer_type
    8159                      .dwattr $C$DW$T$110, DW_AT_type(*$C$DW$T$172)
    8160                      .dwattr $C$DW$T$110, DW_AT_address_class(0x16)
    8161              $C$DW$T$111     .dwtag  DW_TAG_typedef, DW_AT_name("WDOG_Handle")
    8162                      .dwattr $C$DW$T$111, DW_AT_type(*$C$DW$T$110)
    8163                      .dwattr $C$DW$T$111, DW_AT_language(DW_LANG_C)
    8164              $C$DW$T$3       .dwtag  DW_TAG_pointer_type
TMS320C2000 Assembler PC v6.2.5 Wed Nov 22 14:48:16 2017

Tools Copyright (c) 1996-2014 Texas Instruments Incorporated
C:\Users\wmj\AppData\Local\Temp\0222411                              PAGE  153

    8165                      .dwattr $C$DW$T$3, DW_AT_address_class(0x16)
    8166              $C$DW$1048      .dwtag  DW_TAG_TI_far_type
    8167                      .dwattr $C$DW$1048, DW_AT_type(*$C$DW$T$3)
    8168              $C$DW$T$214     .dwtag  DW_TAG_const_type
    8169                      .dwattr $C$DW$T$214, DW_AT_type(*$C$DW$1048)
    8170              
    8171              $C$DW$T$159     .dwtag  DW_TAG_subroutine_type
    8172                      .dwattr $C$DW$T$159, DW_AT_language(DW_LANG_C)
    8173              $C$DW$T$160     .dwtag  DW_TAG_pointer_type
    8174                      .dwattr $C$DW$T$160, DW_AT_type(*$C$DW$T$159)
    8175                      .dwattr $C$DW$T$160, DW_AT_address_class(0x16)
    8176              $C$DW$T$161     .dwtag  DW_TAG_typedef, DW_AT_name("PIE_IntVec_t")
    8177                      .dwattr $C$DW$T$161, DW_AT_type(*$C$DW$T$160)
    8178                      .dwattr $C$DW$T$161, DW_AT_language(DW_LANG_C)
    8179              $C$DW$1049      .dwtag  DW_TAG_TI_far_type
    8180                      .dwattr $C$DW$1049, DW_AT_type(*$C$DW$T$161)
    8181              $C$DW$T$162     .dwtag  DW_TAG_volatile_type
    8182                      .dwattr $C$DW$T$162, DW_AT_type(*$C$DW$1049)
    8183              $C$DW$T$4       .dwtag  DW_TAG_base_type
    8184                      .dwattr $C$DW$T$4, DW_AT_encoding(DW_ATE_boolean)
    8185                      .dwattr $C$DW$T$4, DW_AT_name("bool")
    8186                      .dwattr $C$DW$T$4, DW_AT_byte_size(0x01)
    8187              $C$DW$T$5       .dwtag  DW_TAG_base_type
    8188                      .dwattr $C$DW$T$5, DW_AT_encoding(DW_ATE_signed_char)
    8189                      .dwattr $C$DW$T$5, DW_AT_name("signed char")
    8190                      .dwattr $C$DW$T$5, DW_AT_byte_size(0x01)
    8191              $C$DW$T$6       .dwtag  DW_TAG_base_type
    8192                      .dwattr $C$DW$T$6, DW_AT_encoding(DW_ATE_unsigned_char)
    8193                      .dwattr $C$DW$T$6, DW_AT_name("unsigned char")
    8194                      .dwattr $C$DW$T$6, DW_AT_byte_size(0x01)
    8195              $C$DW$T$124     .dwtag  DW_TAG_typedef, DW_AT_name("UCHAR")
    8196                      .dwattr $C$DW$T$124, DW_AT_type(*$C$DW$T$6)
    8197                      .dwattr $C$DW$T$124, DW_AT_language(DW_LANG_C)
    8198              
    8199              $C$DW$T$125     .dwtag  DW_TAG_array_type
    8200                      .dwattr $C$DW$T$125, DW_AT_type(*$C$DW$T$124)
    8201                      .dwattr $C$DW$T$125, DW_AT_language(DW_LANG_C)
    8202                      .dwattr $C$DW$T$125, DW_AT_byte_size(0x08)
    8203              $C$DW$1050      .dwtag  DW_TAG_subrange_type
    8204                      .dwattr $C$DW$1050, DW_AT_upper_bound(0x07)
    8205                      .dwendtag $C$DW$T$125
    8206              
    8207              $C$DW$T$126     .dwtag  DW_TAG_pointer_type
    8208                      .dwattr $C$DW$T$126, DW_AT_type(*$C$DW$T$124)
    8209                      .dwattr $C$DW$T$126, DW_AT_address_class(0x16)
    8210              
    8211              $C$DW$T$137     .dwtag  DW_TAG_array_type
    8212                      .dwattr $C$DW$T$137, DW_AT_type(*$C$DW$T$124)
    8213                      .dwattr $C$DW$T$137, DW_AT_language(DW_LANG_C)
    8214                      .dwattr $C$DW$T$137, DW_AT_byte_size(0x02)
    8215              $C$DW$1051      .dwtag  DW_TAG_subrange_type
    8216                      .dwattr $C$DW$1051, DW_AT_upper_bound(0x01)
    8217                      .dwendtag $C$DW$T$137
    8218              
    8219              $C$DW$T$59      .dwtag  DW_TAG_typedef, DW_AT_name("_Bool")
TMS320C2000 Assembler PC v6.2.5 Wed Nov 22 14:48:16 2017

Tools Copyright (c) 1996-2014 Texas Instruments Incorporated
C:\Users\wmj\AppData\Local\Temp\0222411                              PAGE  154

    8220                      .dwattr $C$DW$T$59, DW_AT_type(*$C$DW$T$6)
    8221                      .dwattr $C$DW$T$59, DW_AT_language(DW_LANG_C)
    8222              $C$DW$1052      .dwtag  DW_TAG_TI_far_type
    8223                      .dwattr $C$DW$1052, DW_AT_type(*$C$DW$T$59)
    8224              $C$DW$T$250     .dwtag  DW_TAG_const_type
    8225                      .dwattr $C$DW$T$250, DW_AT_type(*$C$DW$1052)
    8226              $C$DW$T$258     .dwtag  DW_TAG_pointer_type
    8227                      .dwattr $C$DW$T$258, DW_AT_type(*$C$DW$T$6)
    8228                      .dwattr $C$DW$T$258, DW_AT_address_class(0x16)
    8229              $C$DW$1053      .dwtag  DW_TAG_TI_far_type
    8230                      .dwattr $C$DW$1053, DW_AT_type(*$C$DW$T$6)
    8231              $C$DW$T$259     .dwtag  DW_TAG_const_type
    8232                      .dwattr $C$DW$T$259, DW_AT_type(*$C$DW$1053)
    8233              
    8234              $C$DW$T$260     .dwtag  DW_TAG_array_type
    8235                      .dwattr $C$DW$T$260, DW_AT_type(*$C$DW$T$259)
    8236                      .dwattr $C$DW$T$260, DW_AT_language(DW_LANG_C)
    8237                      .dwattr $C$DW$T$260, DW_AT_byte_size(0x100)
    8238              $C$DW$1054      .dwtag  DW_TAG_subrange_type
    8239                      .dwattr $C$DW$1054, DW_AT_upper_bound(0xff)
    8240                      .dwendtag $C$DW$T$260
    8241              
    8242              $C$DW$T$7       .dwtag  DW_TAG_base_type
    8243                      .dwattr $C$DW$T$7, DW_AT_encoding(DW_ATE_signed_char)
    8244                      .dwattr $C$DW$T$7, DW_AT_name("wchar_t")
    8245                      .dwattr $C$DW$T$7, DW_AT_byte_size(0x01)
    8246              $C$DW$T$8       .dwtag  DW_TAG_base_type
    8247                      .dwattr $C$DW$T$8, DW_AT_encoding(DW_ATE_signed)
    8248                      .dwattr $C$DW$T$8, DW_AT_name("short")
    8249                      .dwattr $C$DW$T$8, DW_AT_byte_size(0x01)
    8250              $C$DW$T$63      .dwtag  DW_TAG_typedef, DW_AT_name("int16_t")
    8251                      .dwattr $C$DW$T$63, DW_AT_type(*$C$DW$T$8)
    8252                      .dwattr $C$DW$T$63, DW_AT_language(DW_LANG_C)
    8253              
    8254              $C$DW$T$64      .dwtag  DW_TAG_array_type
    8255                      .dwattr $C$DW$T$64, DW_AT_type(*$C$DW$T$63)
    8256                      .dwattr $C$DW$T$64, DW_AT_language(DW_LANG_C)
    8257                      .dwattr $C$DW$T$64, DW_AT_byte_size(0x0f)
    8258              $C$DW$1055      .dwtag  DW_TAG_subrange_type
    8259                      .dwattr $C$DW$1055, DW_AT_upper_bound(0x0e)
    8260                      .dwendtag $C$DW$T$64
    8261              
    8262              $C$DW$T$9       .dwtag  DW_TAG_base_type
    8263                      .dwattr $C$DW$T$9, DW_AT_encoding(DW_ATE_unsigned)
    8264                      .dwattr $C$DW$T$9, DW_AT_name("unsigned short")
    8265                      .dwattr $C$DW$T$9, DW_AT_byte_size(0x01)
    8266              $C$DW$T$21      .dwtag  DW_TAG_typedef, DW_AT_name("uint16_t")
    8267                      .dwattr $C$DW$T$21, DW_AT_type(*$C$DW$T$9)
    8268                      .dwattr $C$DW$T$21, DW_AT_language(DW_LANG_C)
    8269              $C$DW$T$127     .dwtag  DW_TAG_typedef, DW_AT_name("USHORT")
    8270                      .dwattr $C$DW$T$127, DW_AT_type(*$C$DW$T$21)
    8271                      .dwattr $C$DW$T$127, DW_AT_language(DW_LANG_C)
    8272              
    8273              $C$DW$T$65      .dwtag  DW_TAG_array_type
    8274                      .dwattr $C$DW$T$65, DW_AT_type(*$C$DW$T$21)
TMS320C2000 Assembler PC v6.2.5 Wed Nov 22 14:48:16 2017

Tools Copyright (c) 1996-2014 Texas Instruments Incorporated
C:\Users\wmj\AppData\Local\Temp\0222411                              PAGE  155

    8275                      .dwattr $C$DW$T$65, DW_AT_language(DW_LANG_C)
    8276                      .dwattr $C$DW$T$65, DW_AT_byte_size(0x0f)
    8277              $C$DW$1056      .dwtag  DW_TAG_subrange_type
    8278                      .dwattr $C$DW$1056, DW_AT_upper_bound(0x0e)
    8279                      .dwendtag $C$DW$T$65
    8280              
    8281              $C$DW$T$265     .dwtag  DW_TAG_pointer_type
    8282                      .dwattr $C$DW$T$265, DW_AT_type(*$C$DW$T$21)
    8283                      .dwattr $C$DW$T$265, DW_AT_address_class(0x16)
    8284              $C$DW$1057      .dwtag  DW_TAG_TI_far_type
    8285                      .dwattr $C$DW$1057, DW_AT_type(*$C$DW$T$21)
    8286              $C$DW$T$22      .dwtag  DW_TAG_volatile_type
    8287                      .dwattr $C$DW$T$22, DW_AT_type(*$C$DW$1057)
    8288              
    8289              $C$DW$T$23      .dwtag  DW_TAG_array_type
    8290                      .dwattr $C$DW$T$23, DW_AT_type(*$C$DW$T$22)
    8291                      .dwattr $C$DW$T$23, DW_AT_language(DW_LANG_C)
    8292                      .dwattr $C$DW$T$23, DW_AT_byte_size(0x10)
    8293              $C$DW$1058      .dwtag  DW_TAG_subrange_type
    8294                      .dwattr $C$DW$1058, DW_AT_upper_bound(0x0f)
    8295                      .dwendtag $C$DW$T$23
    8296              
    8297              
    8298              $C$DW$T$24      .dwtag  DW_TAG_array_type
    8299                      .dwattr $C$DW$T$24, DW_AT_type(*$C$DW$T$22)
    8300                      .dwattr $C$DW$T$24, DW_AT_language(DW_LANG_C)
    8301                      .dwattr $C$DW$T$24, DW_AT_byte_size(0x65f0)
    8302              $C$DW$1059      .dwtag  DW_TAG_subrange_type
    8303                      .dwattr $C$DW$1059, DW_AT_upper_bound(0x65ef)
    8304                      .dwendtag $C$DW$T$24
    8305              
    8306              
    8307              $C$DW$T$25      .dwtag  DW_TAG_array_type
    8308                      .dwattr $C$DW$T$25, DW_AT_type(*$C$DW$T$22)
    8309                      .dwattr $C$DW$T$25, DW_AT_language(DW_LANG_C)
    8310                      .dwattr $C$DW$T$25, DW_AT_byte_size(0x02)
    8311              $C$DW$1060      .dwtag  DW_TAG_subrange_type
    8312                      .dwattr $C$DW$1060, DW_AT_upper_bound(0x01)
    8313                      .dwendtag $C$DW$T$25
    8314              
    8315              
    8316              $C$DW$T$26      .dwtag  DW_TAG_array_type
    8317                      .dwattr $C$DW$T$26, DW_AT_type(*$C$DW$T$22)
    8318                      .dwattr $C$DW$T$26, DW_AT_language(DW_LANG_C)
    8319                      .dwattr $C$DW$T$26, DW_AT_byte_size(0x05)
    8320              $C$DW$1061      .dwtag  DW_TAG_subrange_type
    8321                      .dwattr $C$DW$1061, DW_AT_upper_bound(0x04)
    8322                      .dwendtag $C$DW$T$26
    8323              
    8324              
    8325              $C$DW$T$27      .dwtag  DW_TAG_array_type
    8326                      .dwattr $C$DW$T$27, DW_AT_type(*$C$DW$T$22)
    8327                      .dwattr $C$DW$T$27, DW_AT_language(DW_LANG_C)
    8328                      .dwattr $C$DW$T$27, DW_AT_byte_size(0x03)
    8329              $C$DW$1062      .dwtag  DW_TAG_subrange_type
TMS320C2000 Assembler PC v6.2.5 Wed Nov 22 14:48:16 2017

Tools Copyright (c) 1996-2014 Texas Instruments Incorporated
C:\Users\wmj\AppData\Local\Temp\0222411                              PAGE  156

    8330                      .dwattr $C$DW$1062, DW_AT_upper_bound(0x02)
    8331                      .dwendtag $C$DW$T$27
    8332              
    8333              
    8334              $C$DW$T$28      .dwtag  DW_TAG_array_type
    8335                      .dwattr $C$DW$T$28, DW_AT_type(*$C$DW$T$22)
    8336                      .dwattr $C$DW$T$28, DW_AT_language(DW_LANG_C)
    8337                      .dwattr $C$DW$T$28, DW_AT_byte_size(0x0d)
    8338              $C$DW$1063      .dwtag  DW_TAG_subrange_type
    8339                      .dwattr $C$DW$1063, DW_AT_upper_bound(0x0c)
    8340                      .dwendtag $C$DW$T$28
    8341              
    8342              
    8343              $C$DW$T$30      .dwtag  DW_TAG_array_type
    8344                      .dwattr $C$DW$T$30, DW_AT_type(*$C$DW$T$22)
    8345                      .dwattr $C$DW$T$30, DW_AT_language(DW_LANG_C)
    8346                      .dwattr $C$DW$T$30, DW_AT_byte_size(0x08)
    8347              $C$DW$1064      .dwtag  DW_TAG_subrange_type
    8348                      .dwattr $C$DW$1064, DW_AT_upper_bound(0x07)
    8349                      .dwendtag $C$DW$T$30
    8350              
    8351              
    8352              $C$DW$T$74      .dwtag  DW_TAG_array_type
    8353                      .dwattr $C$DW$T$74, DW_AT_type(*$C$DW$T$22)
    8354                      .dwattr $C$DW$T$74, DW_AT_language(DW_LANG_C)
    8355                      .dwattr $C$DW$T$74, DW_AT_byte_size(0x18)
    8356              $C$DW$1065      .dwtag  DW_TAG_subrange_type
    8357                      .dwattr $C$DW$1065, DW_AT_upper_bound(0x17)
    8358                      .dwendtag $C$DW$T$74
    8359              
    8360              
    8361              $C$DW$T$75      .dwtag  DW_TAG_array_type
    8362                      .dwattr $C$DW$T$75, DW_AT_type(*$C$DW$T$22)
    8363                      .dwattr $C$DW$T$75, DW_AT_language(DW_LANG_C)
    8364                      .dwattr $C$DW$T$75, DW_AT_byte_size(0x04)
    8365              $C$DW$1066      .dwtag  DW_TAG_subrange_type
    8366                      .dwattr $C$DW$1066, DW_AT_upper_bound(0x03)
    8367                      .dwendtag $C$DW$T$75
    8368              
    8369              
    8370              $C$DW$T$158     .dwtag  DW_TAG_array_type
    8371                      .dwattr $C$DW$T$158, DW_AT_type(*$C$DW$T$22)
    8372                      .dwattr $C$DW$T$158, DW_AT_language(DW_LANG_C)
    8373                      .dwattr $C$DW$T$158, DW_AT_byte_size(0x06)
    8374              $C$DW$1067      .dwtag  DW_TAG_subrange_type
    8375                      .dwattr $C$DW$1067, DW_AT_upper_bound(0x05)
    8376                      .dwendtag $C$DW$T$158
    8377              
    8378              
    8379              $C$DW$T$163     .dwtag  DW_TAG_array_type
    8380                      .dwattr $C$DW$T$163, DW_AT_type(*$C$DW$T$22)
    8381                      .dwattr $C$DW$T$163, DW_AT_language(DW_LANG_C)
    8382                      .dwattr $C$DW$T$163, DW_AT_byte_size(0x6270)
    8383              $C$DW$1068      .dwtag  DW_TAG_subrange_type
    8384                      .dwattr $C$DW$1068, DW_AT_upper_bound(0x626f)
TMS320C2000 Assembler PC v6.2.5 Wed Nov 22 14:48:16 2017

Tools Copyright (c) 1996-2014 Texas Instruments Incorporated
C:\Users\wmj\AppData\Local\Temp\0222411                              PAGE  157

    8385                      .dwendtag $C$DW$T$163
    8386              
    8387              
    8388              $C$DW$T$167     .dwtag  DW_TAG_array_type
    8389                      .dwattr $C$DW$T$167, DW_AT_type(*$C$DW$T$22)
    8390                      .dwattr $C$DW$T$167, DW_AT_language(DW_LANG_C)
    8391                      .dwattr $C$DW$T$167, DW_AT_byte_size(0x6698)
    8392              $C$DW$1069      .dwtag  DW_TAG_subrange_type
    8393                      .dwattr $C$DW$1069, DW_AT_upper_bound(0x6697)
    8394                      .dwendtag $C$DW$T$167
    8395              
    8396              $C$DW$1070      .dwtag  DW_TAG_TI_far_type
    8397                      .dwattr $C$DW$1070, DW_AT_type(*$C$DW$T$21)
    8398              $C$DW$T$221     .dwtag  DW_TAG_const_type
    8399                      .dwattr $C$DW$T$221, DW_AT_type(*$C$DW$1070)
    8400              $C$DW$T$32      .dwtag  DW_TAG_typedef, DW_AT_name("uint_least8_t")
    8401                      .dwattr $C$DW$T$32, DW_AT_type(*$C$DW$T$21)
    8402                      .dwattr $C$DW$T$32, DW_AT_language(DW_LANG_C)
    8403              $C$DW$T$10      .dwtag  DW_TAG_base_type
    8404                      .dwattr $C$DW$T$10, DW_AT_encoding(DW_ATE_signed)
    8405                      .dwattr $C$DW$T$10, DW_AT_name("int")
    8406                      .dwattr $C$DW$T$10, DW_AT_byte_size(0x01)
    8407              $C$DW$T$11      .dwtag  DW_TAG_base_type
    8408                      .dwattr $C$DW$T$11, DW_AT_encoding(DW_ATE_unsigned)
    8409                      .dwattr $C$DW$T$11, DW_AT_name("unsigned int")
    8410                      .dwattr $C$DW$T$11, DW_AT_byte_size(0x01)
    8411              $C$DW$T$12      .dwtag  DW_TAG_base_type
    8412                      .dwattr $C$DW$T$12, DW_AT_encoding(DW_ATE_signed)
    8413                      .dwattr $C$DW$T$12, DW_AT_name("long")
    8414                      .dwattr $C$DW$T$12, DW_AT_byte_size(0x02)
    8415              $C$DW$T$37      .dwtag  DW_TAG_typedef, DW_AT_name("_iq")
    8416                      .dwattr $C$DW$T$37, DW_AT_type(*$C$DW$T$12)
    8417                      .dwattr $C$DW$T$37, DW_AT_language(DW_LANG_C)
    8418              
    8419              $C$DW$T$118     .dwtag  DW_TAG_array_type
    8420                      .dwattr $C$DW$T$118, DW_AT_type(*$C$DW$T$37)
    8421                      .dwattr $C$DW$T$118, DW_AT_language(DW_LANG_C)
    8422                      .dwattr $C$DW$T$118, DW_AT_byte_size(0x06)
    8423              $C$DW$1071      .dwtag  DW_TAG_subrange_type
    8424                      .dwattr $C$DW$1071, DW_AT_upper_bound(0x02)
    8425                      .dwendtag $C$DW$T$118
    8426              
    8427              $C$DW$T$302     .dwtag  DW_TAG_typedef, DW_AT_name("_iq15")
    8428                      .dwattr $C$DW$T$302, DW_AT_type(*$C$DW$T$12)
    8429                      .dwattr $C$DW$T$302, DW_AT_language(DW_LANG_C)
    8430              $C$DW$T$146     .dwtag  DW_TAG_typedef, DW_AT_name("_iq20")
    8431                      .dwattr $C$DW$T$146, DW_AT_type(*$C$DW$T$12)
    8432                      .dwattr $C$DW$T$146, DW_AT_language(DW_LANG_C)
    8433              $C$DW$T$305     .dwtag  DW_TAG_typedef, DW_AT_name("_iq7")
    8434                      .dwattr $C$DW$T$305, DW_AT_type(*$C$DW$T$12)
    8435                      .dwattr $C$DW$T$305, DW_AT_language(DW_LANG_C)
    8436              $C$DW$T$61      .dwtag  DW_TAG_typedef, DW_AT_name("int32_t")
    8437                      .dwattr $C$DW$T$61, DW_AT_type(*$C$DW$T$12)
    8438                      .dwattr $C$DW$T$61, DW_AT_language(DW_LANG_C)
    8439              $C$DW$T$13      .dwtag  DW_TAG_base_type
TMS320C2000 Assembler PC v6.2.5 Wed Nov 22 14:48:16 2017

Tools Copyright (c) 1996-2014 Texas Instruments Incorporated
C:\Users\wmj\AppData\Local\Temp\0222411                              PAGE  158

    8440                      .dwattr $C$DW$T$13, DW_AT_encoding(DW_ATE_unsigned)
    8441                      .dwattr $C$DW$T$13, DW_AT_name("unsigned long")
    8442                      .dwattr $C$DW$T$13, DW_AT_byte_size(0x02)
    8443              $C$DW$T$201     .dwtag  DW_TAG_typedef, DW_AT_name("size_t")
    8444                      .dwattr $C$DW$T$201, DW_AT_type(*$C$DW$T$13)
    8445                      .dwattr $C$DW$T$201, DW_AT_language(DW_LANG_C)
    8446              $C$DW$1072      .dwtag  DW_TAG_TI_far_type
    8447                      .dwattr $C$DW$1072, DW_AT_type(*$C$DW$T$201)
    8448              $C$DW$T$202     .dwtag  DW_TAG_const_type
    8449                      .dwattr $C$DW$T$202, DW_AT_type(*$C$DW$1072)
    8450              $C$DW$T$72      .dwtag  DW_TAG_typedef, DW_AT_name("uint32_t")
    8451                      .dwattr $C$DW$T$72, DW_AT_type(*$C$DW$T$13)
    8452                      .dwattr $C$DW$T$72, DW_AT_language(DW_LANG_C)
    8453              $C$DW$1073      .dwtag  DW_TAG_TI_far_type
    8454                      .dwattr $C$DW$1073, DW_AT_type(*$C$DW$T$72)
    8455              $C$DW$T$73      .dwtag  DW_TAG_volatile_type
    8456                      .dwattr $C$DW$T$73, DW_AT_type(*$C$DW$1073)
    8457              $C$DW$T$14      .dwtag  DW_TAG_base_type
    8458                      .dwattr $C$DW$T$14, DW_AT_encoding(DW_ATE_signed)
    8459                      .dwattr $C$DW$T$14, DW_AT_name("long long")
    8460                      .dwattr $C$DW$T$14, DW_AT_byte_size(0x04)
    8461              $C$DW$T$15      .dwtag  DW_TAG_base_type
    8462                      .dwattr $C$DW$T$15, DW_AT_encoding(DW_ATE_unsigned)
    8463                      .dwattr $C$DW$T$15, DW_AT_name("unsigned long long")
    8464                      .dwattr $C$DW$T$15, DW_AT_byte_size(0x04)
    8465              $C$DW$T$16      .dwtag  DW_TAG_base_type
    8466                      .dwattr $C$DW$T$16, DW_AT_encoding(DW_ATE_float)
    8467                      .dwattr $C$DW$T$16, DW_AT_name("float")
    8468                      .dwattr $C$DW$T$16, DW_AT_byte_size(0x02)
    8469              $C$DW$1074      .dwtag  DW_TAG_TI_far_type
    8470                      .dwattr $C$DW$1074, DW_AT_type(*$C$DW$T$16)
    8471              $C$DW$T$308     .dwtag  DW_TAG_const_type
    8472                      .dwattr $C$DW$T$308, DW_AT_type(*$C$DW$1074)
    8473              $C$DW$T$147     .dwtag  DW_TAG_typedef, DW_AT_name("float_t")
    8474                      .dwattr $C$DW$T$147, DW_AT_type(*$C$DW$T$16)
    8475                      .dwattr $C$DW$T$147, DW_AT_language(DW_LANG_C)
    8476              $C$DW$T$17      .dwtag  DW_TAG_base_type
    8477                      .dwattr $C$DW$T$17, DW_AT_encoding(DW_ATE_float)
    8478                      .dwattr $C$DW$T$17, DW_AT_name("double")
    8479                      .dwattr $C$DW$T$17, DW_AT_byte_size(0x02)
    8480              $C$DW$T$18      .dwtag  DW_TAG_base_type
    8481                      .dwattr $C$DW$T$18, DW_AT_encoding(DW_ATE_float)
    8482                      .dwattr $C$DW$T$18, DW_AT_name("long double")
    8483                      .dwattr $C$DW$T$18, DW_AT_byte_size(0x04)
    8484              $C$DW$T$253     .dwtag  DW_TAG_typedef, DW_AT_name("CHAR")
    8485                      .dwattr $C$DW$T$253, DW_AT_type(*$C$DW$T$5)
    8486                      .dwattr $C$DW$T$253, DW_AT_language(DW_LANG_C)
    8487              $C$DW$1075      .dwtag  DW_TAG_TI_far_type
    8488                      .dwattr $C$DW$1075, DW_AT_type(*$C$DW$T$253)
    8489              $C$DW$T$309     .dwtag  DW_TAG_const_type
    8490                      .dwattr $C$DW$T$309, DW_AT_type(*$C$DW$1075)
    8491              $C$DW$T$255     .dwtag  DW_TAG_pointer_type
    8492                      .dwattr $C$DW$T$255, DW_AT_type(*$C$DW$T$253)
    8493                      .dwattr $C$DW$T$255, DW_AT_address_class(0x16)
    8494              $C$DW$1076      .dwtag  DW_TAG_TI_far_type
TMS320C2000 Assembler PC v6.2.5 Wed Nov 22 14:48:16 2017

Tools Copyright (c) 1996-2014 Texas Instruments Incorporated
C:\Users\wmj\AppData\Local\Temp\0222411                              PAGE  159

    8495                      .dwattr $C$DW$1076, DW_AT_type(*$C$DW$T$255)
    8496              $C$DW$T$310     .dwtag  DW_TAG_const_type
    8497                      .dwattr $C$DW$T$310, DW_AT_type(*$C$DW$1076)
    8498                      .dwattr $C$DW$CU, DW_AT_language(DW_LANG_C)
    8499              
    8500              ;***************************************************************
    8501              ;* DWARF CIE ENTRIES                                           *
    8502              ;***************************************************************
    8503              
    8504              $C$DW$CIE       .dwcie 78
    8505                      .dwcfi  cfa_register, 20
    8506                      .dwcfi  cfa_offset, 0
    8507                      .dwcfi  undefined, 0
    8508                      .dwcfi  undefined, 1
    8509                      .dwcfi  undefined, 2
    8510                      .dwcfi  undefined, 3
    8511                      .dwcfi  undefined, 20
    8512                      .dwcfi  undefined, 21
    8513                      .dwcfi  undefined, 22
    8514                      .dwcfi  undefined, 23
    8515                      .dwcfi  undefined, 24
    8516                      .dwcfi  undefined, 25
    8517                      .dwcfi  undefined, 26
    8518                      .dwcfi  same_value, 28
    8519                      .dwcfi  undefined, 29
    8520                      .dwcfi  undefined, 30
    8521                      .dwcfi  undefined, 31
    8522                      .dwcfi  undefined, 32
    8523                      .dwcfi  undefined, 33
    8524                      .dwcfi  undefined, 34
    8525                      .dwcfi  undefined, 35
    8526                      .dwcfi  undefined, 36
    8527                      .dwcfi  undefined, 37
    8528                      .dwcfi  undefined, 38
    8529                      .dwcfi  undefined, 75
    8530                      .dwcfi  undefined, 76
    8531                      .dwcfi  undefined, 77
    8532                      .dwcfi  undefined, 4
    8533                      .dwcfi  same_value, 6
    8534                      .dwcfi  same_value, 8
    8535                      .dwcfi  same_value, 10
    8536                      .dwcfi  undefined, 12
    8537                      .dwcfi  undefined, 14
    8538                      .dwcfi  undefined, 16
    8539                      .dwcfi  undefined, 17
    8540                      .dwcfi  undefined, 18
    8541                      .dwcfi  undefined, 19
    8542                      .dwcfi  undefined, 5
    8543                      .dwcfi  same_value, 7
    8544                      .dwcfi  same_value, 9
    8545                      .dwcfi  same_value, 11
    8546                      .dwcfi  undefined, 13
    8547                      .dwcfi  undefined, 15
    8548                      .dwcfi  undefined, 78
    8549                      .dwendentry
TMS320C2000 Assembler PC v6.2.5 Wed Nov 22 14:48:16 2017

Tools Copyright (c) 1996-2014 Texas Instruments Incorporated
C:\Users\wmj\AppData\Local\Temp\0222411                              PAGE  160

    8550              
    8551              ;***************************************************************
    8552              ;* DWARF REGISTER MAP                                          *
    8553              ;***************************************************************
    8554              
    8555              $C$DW$1077      .dwtag  DW_TAG_TI_assign_register, DW_AT_name("AL")
    8556                      .dwattr $C$DW$1077, DW_AT_location[DW_OP_reg0]
    8557              $C$DW$1078      .dwtag  DW_TAG_TI_assign_register, DW_AT_name("AH")
    8558                      .dwattr $C$DW$1078, DW_AT_location[DW_OP_reg1]
    8559              $C$DW$1079      .dwtag  DW_TAG_TI_assign_register, DW_AT_name("PL")
    8560                      .dwattr $C$DW$1079, DW_AT_location[DW_OP_reg2]
    8561              $C$DW$1080      .dwtag  DW_TAG_TI_assign_register, DW_AT_name("PH")
    8562                      .dwattr $C$DW$1080, DW_AT_location[DW_OP_reg3]
    8563              $C$DW$1081      .dwtag  DW_TAG_TI_assign_register, DW_AT_name("SP")
    8564                      .dwattr $C$DW$1081, DW_AT_location[DW_OP_reg20]
    8565              $C$DW$1082      .dwtag  DW_TAG_TI_assign_register, DW_AT_name("XT")
    8566                      .dwattr $C$DW$1082, DW_AT_location[DW_OP_reg21]
    8567              $C$DW$1083      .dwtag  DW_TAG_TI_assign_register, DW_AT_name("T")
    8568                      .dwattr $C$DW$1083, DW_AT_location[DW_OP_reg22]
    8569              $C$DW$1084      .dwtag  DW_TAG_TI_assign_register, DW_AT_name("ST0")
    8570                      .dwattr $C$DW$1084, DW_AT_location[DW_OP_reg23]
    8571              $C$DW$1085      .dwtag  DW_TAG_TI_assign_register, DW_AT_name("ST1")
    8572                      .dwattr $C$DW$1085, DW_AT_location[DW_OP_reg24]
    8573              $C$DW$1086      .dwtag  DW_TAG_TI_assign_register, DW_AT_name("PC")
    8574                      .dwattr $C$DW$1086, DW_AT_location[DW_OP_reg25]
    8575              $C$DW$1087      .dwtag  DW_TAG_TI_assign_register, DW_AT_name("RPC")
    8576                      .dwattr $C$DW$1087, DW_AT_location[DW_OP_reg26]
    8577              $C$DW$1088      .dwtag  DW_TAG_TI_assign_register, DW_AT_name("FP")
    8578                      .dwattr $C$DW$1088, DW_AT_location[DW_OP_reg28]
    8579              $C$DW$1089      .dwtag  DW_TAG_TI_assign_register, DW_AT_name("DP")
    8580                      .dwattr $C$DW$1089, DW_AT_location[DW_OP_reg29]
    8581              $C$DW$1090      .dwtag  DW_TAG_TI_assign_register, DW_AT_name("SXM")
    8582                      .dwattr $C$DW$1090, DW_AT_location[DW_OP_reg30]
    8583              $C$DW$1091      .dwtag  DW_TAG_TI_assign_register, DW_AT_name("PM")
    8584                      .dwattr $C$DW$1091, DW_AT_location[DW_OP_reg31]
    8585              $C$DW$1092      .dwtag  DW_TAG_TI_assign_register, DW_AT_name("OVM")
    8586                      .dwattr $C$DW$1092, DW_AT_location[DW_OP_regx 0x20]
    8587              $C$DW$1093      .dwtag  DW_TAG_TI_assign_register, DW_AT_name("PAGE0")
    8588                      .dwattr $C$DW$1093, DW_AT_location[DW_OP_regx 0x21]
    8589              $C$DW$1094      .dwtag  DW_TAG_TI_assign_register, DW_AT_name("AMODE")
    8590                      .dwattr $C$DW$1094, DW_AT_location[DW_OP_regx 0x22]
    8591              $C$DW$1095      .dwtag  DW_TAG_TI_assign_register, DW_AT_name("INTM")
    8592                      .dwattr $C$DW$1095, DW_AT_location[DW_OP_regx 0x23]
    8593              $C$DW$1096      .dwtag  DW_TAG_TI_assign_register, DW_AT_name("IFR")
    8594                      .dwattr $C$DW$1096, DW_AT_location[DW_OP_regx 0x24]
    8595              $C$DW$1097      .dwtag  DW_TAG_TI_assign_register, DW_AT_name("IER")
    8596                      .dwattr $C$DW$1097, DW_AT_location[DW_OP_regx 0x25]
    8597              $C$DW$1098      .dwtag  DW_TAG_TI_assign_register, DW_AT_name("V")
    8598                      .dwattr $C$DW$1098, DW_AT_location[DW_OP_regx 0x26]
    8599              $C$DW$1099      .dwtag  DW_TAG_TI_assign_register, DW_AT_name("PSEUDOH")
    8600                      .dwattr $C$DW$1099, DW_AT_location[DW_OP_regx 0x4c]
    8601              $C$DW$1100      .dwtag  DW_TAG_TI_assign_register, DW_AT_name("VOL")
    8602                      .dwattr $C$DW$1100, DW_AT_location[DW_OP_regx 0x4d]
    8603              $C$DW$1101      .dwtag  DW_TAG_TI_assign_register, DW_AT_name("AR0")
    8604                      .dwattr $C$DW$1101, DW_AT_location[DW_OP_reg4]
TMS320C2000 Assembler PC v6.2.5 Wed Nov 22 14:48:16 2017

Tools Copyright (c) 1996-2014 Texas Instruments Incorporated
C:\Users\wmj\AppData\Local\Temp\0222411                              PAGE  161

    8605              $C$DW$1102      .dwtag  DW_TAG_TI_assign_register, DW_AT_name("AR1")
    8606                      .dwattr $C$DW$1102, DW_AT_location[DW_OP_reg6]
    8607              $C$DW$1103      .dwtag  DW_TAG_TI_assign_register, DW_AT_name("AR2")
    8608                      .dwattr $C$DW$1103, DW_AT_location[DW_OP_reg8]
    8609              $C$DW$1104      .dwtag  DW_TAG_TI_assign_register, DW_AT_name("AR3")
    8610                      .dwattr $C$DW$1104, DW_AT_location[DW_OP_reg10]
    8611              $C$DW$1105      .dwtag  DW_TAG_TI_assign_register, DW_AT_name("AR4")
    8612                      .dwattr $C$DW$1105, DW_AT_location[DW_OP_reg12]
    8613              $C$DW$1106      .dwtag  DW_TAG_TI_assign_register, DW_AT_name("AR5")
    8614                      .dwattr $C$DW$1106, DW_AT_location[DW_OP_reg14]
    8615              $C$DW$1107      .dwtag  DW_TAG_TI_assign_register, DW_AT_name("AR6")
    8616                      .dwattr $C$DW$1107, DW_AT_location[DW_OP_reg16]
    8617              $C$DW$1108      .dwtag  DW_TAG_TI_assign_register, DW_AT_name("XAR6")
    8618                      .dwattr $C$DW$1108, DW_AT_location[DW_OP_reg17]
    8619              $C$DW$1109      .dwtag  DW_TAG_TI_assign_register, DW_AT_name("AR7")
    8620                      .dwattr $C$DW$1109, DW_AT_location[DW_OP_reg18]
    8621              $C$DW$1110      .dwtag  DW_TAG_TI_assign_register, DW_AT_name("XAR7")
    8622                      .dwattr $C$DW$1110, DW_AT_location[DW_OP_reg19]
    8623              $C$DW$1111      .dwtag  DW_TAG_TI_assign_register, DW_AT_name("XAR0")
    8624                      .dwattr $C$DW$1111, DW_AT_location[DW_OP_reg5]
    8625              $C$DW$1112      .dwtag  DW_TAG_TI_assign_register, DW_AT_name("XAR1")
    8626                      .dwattr $C$DW$1112, DW_AT_location[DW_OP_reg7]
    8627              $C$DW$1113      .dwtag  DW_TAG_TI_assign_register, DW_AT_name("XAR2")
    8628                      .dwattr $C$DW$1113, DW_AT_location[DW_OP_reg9]
    8629              $C$DW$1114      .dwtag  DW_TAG_TI_assign_register, DW_AT_name("XAR3")
    8630                      .dwattr $C$DW$1114, DW_AT_location[DW_OP_reg11]
    8631              $C$DW$1115      .dwtag  DW_TAG_TI_assign_register, DW_AT_name("XAR4")
    8632                      .dwattr $C$DW$1115, DW_AT_location[DW_OP_reg13]
    8633              $C$DW$1116      .dwtag  DW_TAG_TI_assign_register, DW_AT_name("XAR5")
    8634                      .dwattr $C$DW$1116, DW_AT_location[DW_OP_reg15]
    8635              $C$DW$1117      .dwtag  DW_TAG_TI_assign_register, DW_AT_name("CIE_RETA")
    8636                      .dwattr $C$DW$1117, DW_AT_location[DW_OP_regx 0x4e]
    8637                      .dwendtag $C$DW$CU
    8638              

No Assembly Errors, No Assembly Warnings
