TMS320C2000 Assembler PC v15.12.3 Wed Nov 22 01:55:15 2017

Tools Copyright (c) 1996-2015 Texas Instruments Incorporated
C:\Users\wmj\AppData\Local\Temp\1239610                              PAGE    1

       1              ;***************************************************************
       2              ;* TMS320C2000 C/C++ Codegen                   PC v15.12.3.LTS *
       3              ;* Date/Time created: Wed Nov 22 01:55:15 2017                 *
       4              ;***************************************************************
       5                      .compiler_opts --abi=coffabi --float_support=softlib --hll_source=on --mem_model:code=flat --mem_mode
       6        0002  FP      .set    XAR2
       7              
       8              $C$DW$CU        .dwtag  DW_TAG_compile_unit
       9                      .dwattr $C$DW$CU, DW_AT_name("C:/Users/wmj/Desktop/BM1000_v1.1/sw/drivers/drvic/modbus/mb.c")
      10                      .dwattr $C$DW$CU, DW_AT_producer("TI TMS320C2000 C/C++ Codegen PC v15.12.3.LTS Copyright (c) 1996-201
      11                      .dwattr $C$DW$CU, DW_AT_TI_version(0x01)
      12                      .dwattr $C$DW$CU, DW_AT_comp_dir("C:\Users\wmj\Desktop\BM1000_v1.1\sw\solutions\instaspin_foc\boards\
      13              
      14              $C$DW$1 .dwtag  DW_TAG_subprogram
      15                      .dwattr $C$DW$1, DW_AT_name("FSM_clrOverCurrentReg")
      16                      .dwattr $C$DW$1, DW_AT_TI_symbol_name("_FSM_clrOverCurrentReg")
      17                      .dwattr $C$DW$1, DW_AT_declaration
      18                      .dwattr $C$DW$1, DW_AT_external
      19              $C$DW$2 .dwtag  DW_TAG_formal_parameter
      20                      .dwattr $C$DW$2, DW_AT_type(*$C$DW$T$121)
      21              
      22                      .dwendtag $C$DW$1
      23              
      24              
      25              $C$DW$3 .dwtag  DW_TAG_subprogram
      26                      .dwattr $C$DW$3, DW_AT_name("FSM_ShutDowm")
      27                      .dwattr $C$DW$3, DW_AT_TI_symbol_name("_FSM_ShutDowm")
      28                      .dwattr $C$DW$3, DW_AT_declaration
      29                      .dwattr $C$DW$3, DW_AT_external
      30              $C$DW$4 .dwtag  DW_TAG_formal_parameter
      31                      .dwattr $C$DW$4, DW_AT_type(*$C$DW$T$121)
      32              
      33                      .dwendtag $C$DW$3
      34              
      35              
      36              $C$DW$5 .dwtag  DW_TAG_subprogram
      37                      .dwattr $C$DW$5, DW_AT_name("FSM_485Edit_State_Box")
      38                      .dwattr $C$DW$5, DW_AT_TI_symbol_name("_FSM_485Edit_State_Box")
      39                      .dwattr $C$DW$5, DW_AT_declaration
      40                      .dwattr $C$DW$5, DW_AT_external
      41              $C$DW$6 .dwtag  DW_TAG_formal_parameter
      42                      .dwattr $C$DW$6, DW_AT_type(*$C$DW$T$121)
      43              
      44              $C$DW$7 .dwtag  DW_TAG_formal_parameter
      45                      .dwattr $C$DW$7, DW_AT_type(*$C$DW$T$221)
      46              
      47                      .dwendtag $C$DW$5
      48              
      49              
      50              $C$DW$8 .dwtag  DW_TAG_subprogram
      51                      .dwattr $C$DW$8, DW_AT_name("SCI_enableTx")
      52                      .dwattr $C$DW$8, DW_AT_TI_symbol_name("_SCI_enableTx")
      53                      .dwattr $C$DW$8, DW_AT_declaration
      54                      .dwattr $C$DW$8, DW_AT_external
      55              $C$DW$9 .dwtag  DW_TAG_formal_parameter
TMS320C2000 Assembler PC v15.12.3 Wed Nov 22 01:55:15 2017

Tools Copyright (c) 1996-2015 Texas Instruments Incorporated
C:\Users\wmj\AppData\Local\Temp\1239610                              PAGE    2

      56                      .dwattr $C$DW$9, DW_AT_type(*$C$DW$T$113)
      57              
      58                      .dwendtag $C$DW$8
      59              
      60              
      61              $C$DW$10        .dwtag  DW_TAG_subprogram
      62                      .dwattr $C$DW$10, DW_AT_name("SCI_disableTx")
      63                      .dwattr $C$DW$10, DW_AT_TI_symbol_name("_SCI_disableTx")
      64                      .dwattr $C$DW$10, DW_AT_declaration
      65                      .dwattr $C$DW$10, DW_AT_external
      66              $C$DW$11        .dwtag  DW_TAG_formal_parameter
      67                      .dwattr $C$DW$11, DW_AT_type(*$C$DW$T$113)
      68              
      69                      .dwendtag $C$DW$10
      70              
      71              
      72              $C$DW$12        .dwtag  DW_TAG_subprogram
      73                      .dwattr $C$DW$12, DW_AT_name("MOTOR_setMotorFlag")
      74                      .dwattr $C$DW$12, DW_AT_TI_symbol_name("_MOTOR_setMotorFlag")
      75                      .dwattr $C$DW$12, DW_AT_declaration
      76                      .dwattr $C$DW$12, DW_AT_external
      77              $C$DW$13        .dwtag  DW_TAG_formal_parameter
      78                      .dwattr $C$DW$13, DW_AT_type(*$C$DW$T$41)
      79              
      80              $C$DW$14        .dwtag  DW_TAG_formal_parameter
      81                      .dwattr $C$DW$14, DW_AT_type(*$C$DW$T$221)
      82              
      83                      .dwendtag $C$DW$12
      84              
      85              
      86              $C$DW$15        .dwtag  DW_TAG_subprogram
      87                      .dwattr $C$DW$15, DW_AT_name("GPIO_setHigh")
      88                      .dwattr $C$DW$15, DW_AT_TI_symbol_name("_GPIO_setHigh")
      89                      .dwattr $C$DW$15, DW_AT_declaration
      90                      .dwattr $C$DW$15, DW_AT_external
      91              $C$DW$16        .dwtag  DW_TAG_formal_parameter
      92                      .dwattr $C$DW$16, DW_AT_type(*$C$DW$T$88)
      93              
      94              $C$DW$17        .dwtag  DW_TAG_formal_parameter
      95                      .dwattr $C$DW$17, DW_AT_type(*$C$DW$T$192)
      96              
      97                      .dwendtag $C$DW$15
      98              
      99              
     100              $C$DW$18        .dwtag  DW_TAG_subprogram
     101                      .dwattr $C$DW$18, DW_AT_name("TIMER_clearFlag")
     102                      .dwattr $C$DW$18, DW_AT_TI_symbol_name("_TIMER_clearFlag")
     103                      .dwattr $C$DW$18, DW_AT_declaration
     104                      .dwattr $C$DW$18, DW_AT_external
     105              $C$DW$19        .dwtag  DW_TAG_formal_parameter
     106                      .dwattr $C$DW$19, DW_AT_type(*$C$DW$T$106)
     107              
     108                      .dwendtag $C$DW$18
     109              
     110              
TMS320C2000 Assembler PC v15.12.3 Wed Nov 22 01:55:15 2017

Tools Copyright (c) 1996-2015 Texas Instruments Incorporated
C:\Users\wmj\AppData\Local\Temp\1239610                              PAGE    3

     111              $C$DW$20        .dwtag  DW_TAG_subprogram
     112                      .dwattr $C$DW$20, DW_AT_name("SCI_enableRx")
     113                      .dwattr $C$DW$20, DW_AT_TI_symbol_name("_SCI_enableRx")
     114                      .dwattr $C$DW$20, DW_AT_declaration
     115                      .dwattr $C$DW$20, DW_AT_external
     116              $C$DW$21        .dwtag  DW_TAG_formal_parameter
     117                      .dwattr $C$DW$21, DW_AT_type(*$C$DW$T$113)
     118              
     119                      .dwendtag $C$DW$20
     120              
     121              
     122              $C$DW$22        .dwtag  DW_TAG_subprogram
     123                      .dwattr $C$DW$22, DW_AT_name("GPIO_setLow")
     124                      .dwattr $C$DW$22, DW_AT_TI_symbol_name("_GPIO_setLow")
     125                      .dwattr $C$DW$22, DW_AT_declaration
     126                      .dwattr $C$DW$22, DW_AT_external
     127              $C$DW$23        .dwtag  DW_TAG_formal_parameter
     128                      .dwattr $C$DW$23, DW_AT_type(*$C$DW$T$88)
     129              
     130              $C$DW$24        .dwtag  DW_TAG_formal_parameter
     131                      .dwattr $C$DW$24, DW_AT_type(*$C$DW$T$192)
     132              
     133                      .dwendtag $C$DW$22
     134              
     135              
     136              $C$DW$25        .dwtag  DW_TAG_subprogram
     137                      .dwattr $C$DW$25, DW_AT_name("SCI_disableRx")
     138                      .dwattr $C$DW$25, DW_AT_TI_symbol_name("_SCI_disableRx")
     139                      .dwattr $C$DW$25, DW_AT_declaration
     140                      .dwattr $C$DW$25, DW_AT_external
     141              $C$DW$26        .dwtag  DW_TAG_formal_parameter
     142                      .dwattr $C$DW$26, DW_AT_type(*$C$DW$T$113)
     143              
     144                      .dwendtag $C$DW$25
     145              
     146              
     147              $C$DW$27        .dwtag  DW_TAG_subprogram
     148                      .dwattr $C$DW$27, DW_AT_name("SCI_getDataNonBlocking")
     149                      .dwattr $C$DW$27, DW_AT_TI_symbol_name("_SCI_getDataNonBlocking")
     150                      .dwattr $C$DW$27, DW_AT_type(*$C$DW$T$21)
     151                      .dwattr $C$DW$27, DW_AT_declaration
     152                      .dwattr $C$DW$27, DW_AT_external
     153              $C$DW$28        .dwtag  DW_TAG_formal_parameter
     154                      .dwattr $C$DW$28, DW_AT_type(*$C$DW$T$113)
     155              
     156              $C$DW$29        .dwtag  DW_TAG_formal_parameter
     157                      .dwattr $C$DW$29, DW_AT_type(*$C$DW$T$264)
     158              
     159                      .dwendtag $C$DW$27
     160              
     161              
     162              $C$DW$30        .dwtag  DW_TAG_subprogram
     163                      .dwattr $C$DW$30, DW_AT_name("SCI_putDataNonBlocking")
     164                      .dwattr $C$DW$30, DW_AT_TI_symbol_name("_SCI_putDataNonBlocking")
     165                      .dwattr $C$DW$30, DW_AT_type(*$C$DW$T$21)
TMS320C2000 Assembler PC v15.12.3 Wed Nov 22 01:55:15 2017

Tools Copyright (c) 1996-2015 Texas Instruments Incorporated
C:\Users\wmj\AppData\Local\Temp\1239610                              PAGE    4

     166                      .dwattr $C$DW$30, DW_AT_declaration
     167                      .dwattr $C$DW$30, DW_AT_external
     168              $C$DW$31        .dwtag  DW_TAG_formal_parameter
     169                      .dwattr $C$DW$31, DW_AT_type(*$C$DW$T$113)
     170              
     171              $C$DW$32        .dwtag  DW_TAG_formal_parameter
     172                      .dwattr $C$DW$32, DW_AT_type(*$C$DW$T$21)
     173              
     174                      .dwendtag $C$DW$30
     175              
     176              
     177              $C$DW$33        .dwtag  DW_TAG_subprogram
     178                      .dwattr $C$DW$33, DW_AT_name("MOTOR_getMotorFlag")
     179                      .dwattr $C$DW$33, DW_AT_TI_symbol_name("_MOTOR_getMotorFlag")
     180                      .dwattr $C$DW$33, DW_AT_type(*$C$DW$T$21)
     181                      .dwattr $C$DW$33, DW_AT_declaration
     182                      .dwattr $C$DW$33, DW_AT_external
     183              $C$DW$34        .dwtag  DW_TAG_formal_parameter
     184                      .dwattr $C$DW$34, DW_AT_type(*$C$DW$T$41)
     185              
     186                      .dwendtag $C$DW$33
     187              
     188              
     189              $C$DW$35        .dwtag  DW_TAG_subprogram
     190                      .dwattr $C$DW$35, DW_AT_name("FSM_485Read_State_Box")
     191                      .dwattr $C$DW$35, DW_AT_TI_symbol_name("_FSM_485Read_State_Box")
     192                      .dwattr $C$DW$35, DW_AT_type(*$C$DW$T$21)
     193                      .dwattr $C$DW$35, DW_AT_declaration
     194                      .dwattr $C$DW$35, DW_AT_external
     195              $C$DW$36        .dwtag  DW_TAG_formal_parameter
     196                      .dwattr $C$DW$36, DW_AT_type(*$C$DW$T$121)
     197              
     198                      .dwendtag $C$DW$35
     199              
     200              
     201              $C$DW$37        .dwtag  DW_TAG_subprogram
     202                      .dwattr $C$DW$37, DW_AT_name("_IQ7int")
     203                      .dwattr $C$DW$37, DW_AT_TI_symbol_name("__IQ7int")
     204                      .dwattr $C$DW$37, DW_AT_type(*$C$DW$T$12)
     205                      .dwattr $C$DW$37, DW_AT_declaration
     206                      .dwattr $C$DW$37, DW_AT_external
     207              $C$DW$38        .dwtag  DW_TAG_formal_parameter
     208                      .dwattr $C$DW$38, DW_AT_type(*$C$DW$T$12)
     209              
     210                      .dwendtag $C$DW$37
     211              
     212              
     213              $C$DW$39        .dwtag  DW_TAG_subprogram
     214                      .dwattr $C$DW$39, DW_AT_name("__IQsat")
     215                      .dwattr $C$DW$39, DW_AT_TI_symbol_name("___IQsat")
     216                      .dwattr $C$DW$39, DW_AT_type(*$C$DW$T$12)
     217                      .dwattr $C$DW$39, DW_AT_declaration
     218                      .dwattr $C$DW$39, DW_AT_external
     219              $C$DW$40        .dwtag  DW_TAG_formal_parameter
     220                      .dwattr $C$DW$40, DW_AT_type(*$C$DW$T$12)
TMS320C2000 Assembler PC v15.12.3 Wed Nov 22 01:55:15 2017

Tools Copyright (c) 1996-2015 Texas Instruments Incorporated
C:\Users\wmj\AppData\Local\Temp\1239610                              PAGE    5

     221              
     222              $C$DW$41        .dwtag  DW_TAG_formal_parameter
     223                      .dwattr $C$DW$41, DW_AT_type(*$C$DW$T$12)
     224              
     225              $C$DW$42        .dwtag  DW_TAG_formal_parameter
     226                      .dwattr $C$DW$42, DW_AT_type(*$C$DW$T$12)
     227              
     228                      .dwendtag $C$DW$39
     229              
     230              
     231              $C$DW$43        .dwtag  DW_TAG_subprogram
     232                      .dwattr $C$DW$43, DW_AT_name("_IQ24frac")
     233                      .dwattr $C$DW$43, DW_AT_TI_symbol_name("__IQ24frac")
     234                      .dwattr $C$DW$43, DW_AT_type(*$C$DW$T$12)
     235                      .dwattr $C$DW$43, DW_AT_declaration
     236                      .dwattr $C$DW$43, DW_AT_external
     237              $C$DW$44        .dwtag  DW_TAG_formal_parameter
     238                      .dwattr $C$DW$44, DW_AT_type(*$C$DW$T$12)
     239              
     240                      .dwendtag $C$DW$43
     241              
     242              
     243              $C$DW$45        .dwtag  DW_TAG_subprogram
     244                      .dwattr $C$DW$45, DW_AT_name("_IQ7frac")
     245                      .dwattr $C$DW$45, DW_AT_TI_symbol_name("__IQ7frac")
     246                      .dwattr $C$DW$45, DW_AT_type(*$C$DW$T$12)
     247                      .dwattr $C$DW$45, DW_AT_declaration
     248                      .dwattr $C$DW$45, DW_AT_external
     249              $C$DW$46        .dwtag  DW_TAG_formal_parameter
     250                      .dwattr $C$DW$46, DW_AT_type(*$C$DW$T$12)
     251              
     252                      .dwendtag $C$DW$45
     253              
     254                      .global _aucCRCLo
     255 00000000               .sect   ".econst:.string:_aucCRCLo"
     256                      .clink
     257                      .align  1
     258 00000000       _aucCRCLo:
     259 00000000 0000          .bits   0,16                    ; _aucCRCLo[0] @ 0
     260 00000001 00C0          .bits   192,16                  ; _aucCRCLo[1] @ 16
     261 00000002 00C1          .bits   193,16                  ; _aucCRCLo[2] @ 32
     262 00000003 0001          .bits   1,16                    ; _aucCRCLo[3] @ 48
     263 00000004 00C3          .bits   195,16                  ; _aucCRCLo[4] @ 64
     264 00000005 0003          .bits   3,16                    ; _aucCRCLo[5] @ 80
     265 00000006 0002          .bits   2,16                    ; _aucCRCLo[6] @ 96
     266 00000007 00C2          .bits   194,16                  ; _aucCRCLo[7] @ 112
     267 00000008 00C6          .bits   198,16                  ; _aucCRCLo[8] @ 128
     268 00000009 0006          .bits   6,16                    ; _aucCRCLo[9] @ 144
     269 0000000a 0007          .bits   7,16                    ; _aucCRCLo[10] @ 160
     270 0000000b 00C7          .bits   199,16                  ; _aucCRCLo[11] @ 176
     271 0000000c 0005          .bits   5,16                    ; _aucCRCLo[12] @ 192
     272 0000000d 00C5          .bits   197,16                  ; _aucCRCLo[13] @ 208
     273 0000000e 00C4          .bits   196,16                  ; _aucCRCLo[14] @ 224
     274 0000000f 0004          .bits   4,16                    ; _aucCRCLo[15] @ 240
     275 00000010 00CC          .bits   204,16                  ; _aucCRCLo[16] @ 256
TMS320C2000 Assembler PC v15.12.3 Wed Nov 22 01:55:15 2017

Tools Copyright (c) 1996-2015 Texas Instruments Incorporated
C:\Users\wmj\AppData\Local\Temp\1239610                              PAGE    6

     276 00000011 000C          .bits   12,16                   ; _aucCRCLo[17] @ 272
     277 00000012 000D          .bits   13,16                   ; _aucCRCLo[18] @ 288
     278 00000013 00CD          .bits   205,16                  ; _aucCRCLo[19] @ 304
     279 00000014 000F          .bits   15,16                   ; _aucCRCLo[20] @ 320
     280 00000015 00CF          .bits   207,16                  ; _aucCRCLo[21] @ 336
     281 00000016 00CE          .bits   206,16                  ; _aucCRCLo[22] @ 352
     282 00000017 000E          .bits   14,16                   ; _aucCRCLo[23] @ 368
     283 00000018 000A          .bits   10,16                   ; _aucCRCLo[24] @ 384
     284 00000019 00CA          .bits   202,16                  ; _aucCRCLo[25] @ 400
     285 0000001a 00CB          .bits   203,16                  ; _aucCRCLo[26] @ 416
     286 0000001b 000B          .bits   11,16                   ; _aucCRCLo[27] @ 432
     287 0000001c 00C9          .bits   201,16                  ; _aucCRCLo[28] @ 448
     288 0000001d 0009          .bits   9,16                    ; _aucCRCLo[29] @ 464
     289 0000001e 0008          .bits   8,16                    ; _aucCRCLo[30] @ 480
     290 0000001f 00C8          .bits   200,16                  ; _aucCRCLo[31] @ 496
     291 00000020 00D8          .bits   216,16                  ; _aucCRCLo[32] @ 512
     292 00000021 0018          .bits   24,16                   ; _aucCRCLo[33] @ 528
     293 00000022 0019          .bits   25,16                   ; _aucCRCLo[34] @ 544
     294 00000023 00D9          .bits   217,16                  ; _aucCRCLo[35] @ 560
     295 00000024 001B          .bits   27,16                   ; _aucCRCLo[36] @ 576
     296 00000025 00DB          .bits   219,16                  ; _aucCRCLo[37] @ 592
     297 00000026 00DA          .bits   218,16                  ; _aucCRCLo[38] @ 608
     298 00000027 001A          .bits   26,16                   ; _aucCRCLo[39] @ 624
     299 00000028 001E          .bits   30,16                   ; _aucCRCLo[40] @ 640
     300 00000029 00DE          .bits   222,16                  ; _aucCRCLo[41] @ 656
     301 0000002a 00DF          .bits   223,16                  ; _aucCRCLo[42] @ 672
     302 0000002b 001F          .bits   31,16                   ; _aucCRCLo[43] @ 688
     303 0000002c 00DD          .bits   221,16                  ; _aucCRCLo[44] @ 704
     304 0000002d 001D          .bits   29,16                   ; _aucCRCLo[45] @ 720
     305 0000002e 001C          .bits   28,16                   ; _aucCRCLo[46] @ 736
     306 0000002f 00DC          .bits   220,16                  ; _aucCRCLo[47] @ 752
     307 00000030 0014          .bits   20,16                   ; _aucCRCLo[48] @ 768
     308 00000031 00D4          .bits   212,16                  ; _aucCRCLo[49] @ 784
     309 00000032 00D5          .bits   213,16                  ; _aucCRCLo[50] @ 800
     310 00000033 0015          .bits   21,16                   ; _aucCRCLo[51] @ 816
     311 00000034 00D7          .bits   215,16                  ; _aucCRCLo[52] @ 832
     312 00000035 0017          .bits   23,16                   ; _aucCRCLo[53] @ 848
     313 00000036 0016          .bits   22,16                   ; _aucCRCLo[54] @ 864
     314 00000037 00D6          .bits   214,16                  ; _aucCRCLo[55] @ 880
     315 00000038 00D2          .bits   210,16                  ; _aucCRCLo[56] @ 896
     316 00000039 0012          .bits   18,16                   ; _aucCRCLo[57] @ 912
     317 0000003a 0013          .bits   19,16                   ; _aucCRCLo[58] @ 928
     318 0000003b 00D3          .bits   211,16                  ; _aucCRCLo[59] @ 944
     319 0000003c 0011          .bits   17,16                   ; _aucCRCLo[60] @ 960
     320 0000003d 00D1          .bits   209,16                  ; _aucCRCLo[61] @ 976
     321 0000003e 00D0          .bits   208,16                  ; _aucCRCLo[62] @ 992
     322 0000003f 0010          .bits   16,16                   ; _aucCRCLo[63] @ 1008
     323 00000040 00F0          .bits   240,16                  ; _aucCRCLo[64] @ 1024
     324 00000041 0030          .bits   48,16                   ; _aucCRCLo[65] @ 1040
     325 00000042 0031          .bits   49,16                   ; _aucCRCLo[66] @ 1056
     326 00000043 00F1          .bits   241,16                  ; _aucCRCLo[67] @ 1072
     327 00000044 0033          .bits   51,16                   ; _aucCRCLo[68] @ 1088
     328 00000045 00F3          .bits   243,16                  ; _aucCRCLo[69] @ 1104
     329 00000046 00F2          .bits   242,16                  ; _aucCRCLo[70] @ 1120
     330 00000047 0032          .bits   50,16                   ; _aucCRCLo[71] @ 1136
TMS320C2000 Assembler PC v15.12.3 Wed Nov 22 01:55:15 2017

Tools Copyright (c) 1996-2015 Texas Instruments Incorporated
C:\Users\wmj\AppData\Local\Temp\1239610                              PAGE    7

     331 00000048 0036          .bits   54,16                   ; _aucCRCLo[72] @ 1152
     332 00000049 00F6          .bits   246,16                  ; _aucCRCLo[73] @ 1168
     333 0000004a 00F7          .bits   247,16                  ; _aucCRCLo[74] @ 1184
     334 0000004b 0037          .bits   55,16                   ; _aucCRCLo[75] @ 1200
     335 0000004c 00F5          .bits   245,16                  ; _aucCRCLo[76] @ 1216
     336 0000004d 0035          .bits   53,16                   ; _aucCRCLo[77] @ 1232
     337 0000004e 0034          .bits   52,16                   ; _aucCRCLo[78] @ 1248
     338 0000004f 00F4          .bits   244,16                  ; _aucCRCLo[79] @ 1264
     339 00000050 003C          .bits   60,16                   ; _aucCRCLo[80] @ 1280
     340 00000051 00FC          .bits   252,16                  ; _aucCRCLo[81] @ 1296
     341 00000052 00FD          .bits   253,16                  ; _aucCRCLo[82] @ 1312
     342 00000053 003D          .bits   61,16                   ; _aucCRCLo[83] @ 1328
     343 00000054 00FF          .bits   255,16                  ; _aucCRCLo[84] @ 1344
     344 00000055 003F          .bits   63,16                   ; _aucCRCLo[85] @ 1360
     345 00000056 003E          .bits   62,16                   ; _aucCRCLo[86] @ 1376
     346 00000057 00FE          .bits   254,16                  ; _aucCRCLo[87] @ 1392
     347 00000058 00FA          .bits   250,16                  ; _aucCRCLo[88] @ 1408
     348 00000059 003A          .bits   58,16                   ; _aucCRCLo[89] @ 1424
     349 0000005a 003B          .bits   59,16                   ; _aucCRCLo[90] @ 1440
     350 0000005b 00FB          .bits   251,16                  ; _aucCRCLo[91] @ 1456
     351 0000005c 0039          .bits   57,16                   ; _aucCRCLo[92] @ 1472
     352 0000005d 00F9          .bits   249,16                  ; _aucCRCLo[93] @ 1488
     353 0000005e 00F8          .bits   248,16                  ; _aucCRCLo[94] @ 1504
     354 0000005f 0038          .bits   56,16                   ; _aucCRCLo[95] @ 1520
     355 00000060 0028          .bits   40,16                   ; _aucCRCLo[96] @ 1536
     356 00000061 00E8          .bits   232,16                  ; _aucCRCLo[97] @ 1552
     357 00000062 00E9          .bits   233,16                  ; _aucCRCLo[98] @ 1568
     358 00000063 0029          .bits   41,16                   ; _aucCRCLo[99] @ 1584
     359 00000064 00EB          .bits   235,16                  ; _aucCRCLo[100] @ 1600
     360 00000065 002B          .bits   43,16                   ; _aucCRCLo[101] @ 1616
     361 00000066 002A          .bits   42,16                   ; _aucCRCLo[102] @ 1632
     362 00000067 00EA          .bits   234,16                  ; _aucCRCLo[103] @ 1648
     363 00000068 00EE          .bits   238,16                  ; _aucCRCLo[104] @ 1664
     364 00000069 002E          .bits   46,16                   ; _aucCRCLo[105] @ 1680
     365 0000006a 002F          .bits   47,16                   ; _aucCRCLo[106] @ 1696
     366 0000006b 00EF          .bits   239,16                  ; _aucCRCLo[107] @ 1712
     367 0000006c 002D          .bits   45,16                   ; _aucCRCLo[108] @ 1728
     368 0000006d 00ED          .bits   237,16                  ; _aucCRCLo[109] @ 1744
     369 0000006e 00EC          .bits   236,16                  ; _aucCRCLo[110] @ 1760
     370 0000006f 002C          .bits   44,16                   ; _aucCRCLo[111] @ 1776
     371 00000070 00E4          .bits   228,16                  ; _aucCRCLo[112] @ 1792
     372 00000071 0024          .bits   36,16                   ; _aucCRCLo[113] @ 1808
     373 00000072 0025          .bits   37,16                   ; _aucCRCLo[114] @ 1824
     374 00000073 00E5          .bits   229,16                  ; _aucCRCLo[115] @ 1840
     375 00000074 0027          .bits   39,16                   ; _aucCRCLo[116] @ 1856
     376 00000075 00E7          .bits   231,16                  ; _aucCRCLo[117] @ 1872
     377 00000076 00E6          .bits   230,16                  ; _aucCRCLo[118] @ 1888
     378 00000077 0026          .bits   38,16                   ; _aucCRCLo[119] @ 1904
     379 00000078 0022          .bits   34,16                   ; _aucCRCLo[120] @ 1920
     380 00000079 00E2          .bits   226,16                  ; _aucCRCLo[121] @ 1936
     381 0000007a 00E3          .bits   227,16                  ; _aucCRCLo[122] @ 1952
     382 0000007b 0023          .bits   35,16                   ; _aucCRCLo[123] @ 1968
     383 0000007c 00E1          .bits   225,16                  ; _aucCRCLo[124] @ 1984
     384 0000007d 0021          .bits   33,16                   ; _aucCRCLo[125] @ 2000
     385 0000007e 0020          .bits   32,16                   ; _aucCRCLo[126] @ 2016
TMS320C2000 Assembler PC v15.12.3 Wed Nov 22 01:55:15 2017

Tools Copyright (c) 1996-2015 Texas Instruments Incorporated
C:\Users\wmj\AppData\Local\Temp\1239610                              PAGE    8

     386 0000007f 00E0          .bits   224,16                  ; _aucCRCLo[127] @ 2032
     387 00000080 00A0          .bits   160,16                  ; _aucCRCLo[128] @ 2048
     388 00000081 0060          .bits   96,16                   ; _aucCRCLo[129] @ 2064
     389 00000082 0061          .bits   97,16                   ; _aucCRCLo[130] @ 2080
     390 00000083 00A1          .bits   161,16                  ; _aucCRCLo[131] @ 2096
     391 00000084 0063          .bits   99,16                   ; _aucCRCLo[132] @ 2112
     392 00000085 00A3          .bits   163,16                  ; _aucCRCLo[133] @ 2128
     393 00000086 00A2          .bits   162,16                  ; _aucCRCLo[134] @ 2144
     394 00000087 0062          .bits   98,16                   ; _aucCRCLo[135] @ 2160
     395 00000088 0066          .bits   102,16                  ; _aucCRCLo[136] @ 2176
     396 00000089 00A6          .bits   166,16                  ; _aucCRCLo[137] @ 2192
     397 0000008a 00A7          .bits   167,16                  ; _aucCRCLo[138] @ 2208
     398 0000008b 0067          .bits   103,16                  ; _aucCRCLo[139] @ 2224
     399 0000008c 00A5          .bits   165,16                  ; _aucCRCLo[140] @ 2240
     400 0000008d 0065          .bits   101,16                  ; _aucCRCLo[141] @ 2256
     401 0000008e 0064          .bits   100,16                  ; _aucCRCLo[142] @ 2272
     402 0000008f 00A4          .bits   164,16                  ; _aucCRCLo[143] @ 2288
     403 00000090 006C          .bits   108,16                  ; _aucCRCLo[144] @ 2304
     404 00000091 00AC          .bits   172,16                  ; _aucCRCLo[145] @ 2320
     405 00000092 00AD          .bits   173,16                  ; _aucCRCLo[146] @ 2336
     406 00000093 006D          .bits   109,16                  ; _aucCRCLo[147] @ 2352
     407 00000094 00AF          .bits   175,16                  ; _aucCRCLo[148] @ 2368
     408 00000095 006F          .bits   111,16                  ; _aucCRCLo[149] @ 2384
     409 00000096 006E          .bits   110,16                  ; _aucCRCLo[150] @ 2400
     410 00000097 00AE          .bits   174,16                  ; _aucCRCLo[151] @ 2416
     411 00000098 00AA          .bits   170,16                  ; _aucCRCLo[152] @ 2432
     412 00000099 006A          .bits   106,16                  ; _aucCRCLo[153] @ 2448
     413 0000009a 006B          .bits   107,16                  ; _aucCRCLo[154] @ 2464
     414 0000009b 00AB          .bits   171,16                  ; _aucCRCLo[155] @ 2480
     415 0000009c 0069          .bits   105,16                  ; _aucCRCLo[156] @ 2496
     416 0000009d 00A9          .bits   169,16                  ; _aucCRCLo[157] @ 2512
     417 0000009e 00A8          .bits   168,16                  ; _aucCRCLo[158] @ 2528
     418 0000009f 0068          .bits   104,16                  ; _aucCRCLo[159] @ 2544
     419 000000a0 0078          .bits   120,16                  ; _aucCRCLo[160] @ 2560
     420 000000a1 00B8          .bits   184,16                  ; _aucCRCLo[161] @ 2576
     421 000000a2 00B9          .bits   185,16                  ; _aucCRCLo[162] @ 2592
     422 000000a3 0079          .bits   121,16                  ; _aucCRCLo[163] @ 2608
     423 000000a4 00BB          .bits   187,16                  ; _aucCRCLo[164] @ 2624
     424 000000a5 007B          .bits   123,16                  ; _aucCRCLo[165] @ 2640
     425 000000a6 007A          .bits   122,16                  ; _aucCRCLo[166] @ 2656
     426 000000a7 00BA          .bits   186,16                  ; _aucCRCLo[167] @ 2672
     427 000000a8 00BE          .bits   190,16                  ; _aucCRCLo[168] @ 2688
     428 000000a9 007E          .bits   126,16                  ; _aucCRCLo[169] @ 2704
     429 000000aa 007F          .bits   127,16                  ; _aucCRCLo[170] @ 2720
     430 000000ab 00BF          .bits   191,16                  ; _aucCRCLo[171] @ 2736
     431 000000ac 007D          .bits   125,16                  ; _aucCRCLo[172] @ 2752
     432 000000ad 00BD          .bits   189,16                  ; _aucCRCLo[173] @ 2768
     433 000000ae 00BC          .bits   188,16                  ; _aucCRCLo[174] @ 2784
     434 000000af 007C          .bits   124,16                  ; _aucCRCLo[175] @ 2800
     435 000000b0 00B4          .bits   180,16                  ; _aucCRCLo[176] @ 2816
     436 000000b1 0074          .bits   116,16                  ; _aucCRCLo[177] @ 2832
     437 000000b2 0075          .bits   117,16                  ; _aucCRCLo[178] @ 2848
     438 000000b3 00B5          .bits   181,16                  ; _aucCRCLo[179] @ 2864
     439 000000b4 0077          .bits   119,16                  ; _aucCRCLo[180] @ 2880
     440 000000b5 00B7          .bits   183,16                  ; _aucCRCLo[181] @ 2896
TMS320C2000 Assembler PC v15.12.3 Wed Nov 22 01:55:15 2017

Tools Copyright (c) 1996-2015 Texas Instruments Incorporated
C:\Users\wmj\AppData\Local\Temp\1239610                              PAGE    9

     441 000000b6 00B6          .bits   182,16                  ; _aucCRCLo[182] @ 2912
     442 000000b7 0076          .bits   118,16                  ; _aucCRCLo[183] @ 2928
     443 000000b8 0072          .bits   114,16                  ; _aucCRCLo[184] @ 2944
     444 000000b9 00B2          .bits   178,16                  ; _aucCRCLo[185] @ 2960
     445 000000ba 00B3          .bits   179,16                  ; _aucCRCLo[186] @ 2976
     446 000000bb 0073          .bits   115,16                  ; _aucCRCLo[187] @ 2992
     447 000000bc 00B1          .bits   177,16                  ; _aucCRCLo[188] @ 3008
     448 000000bd 0071          .bits   113,16                  ; _aucCRCLo[189] @ 3024
     449 000000be 0070          .bits   112,16                  ; _aucCRCLo[190] @ 3040
     450 000000bf 00B0          .bits   176,16                  ; _aucCRCLo[191] @ 3056
     451 000000c0 0050          .bits   80,16                   ; _aucCRCLo[192] @ 3072
     452 000000c1 0090          .bits   144,16                  ; _aucCRCLo[193] @ 3088
     453 000000c2 0091          .bits   145,16                  ; _aucCRCLo[194] @ 3104
     454 000000c3 0051          .bits   81,16                   ; _aucCRCLo[195] @ 3120
     455 000000c4 0093          .bits   147,16                  ; _aucCRCLo[196] @ 3136
     456 000000c5 0053          .bits   83,16                   ; _aucCRCLo[197] @ 3152
     457 000000c6 0052          .bits   82,16                   ; _aucCRCLo[198] @ 3168
     458 000000c7 0092          .bits   146,16                  ; _aucCRCLo[199] @ 3184
     459 000000c8 0096          .bits   150,16                  ; _aucCRCLo[200] @ 3200
     460 000000c9 0056          .bits   86,16                   ; _aucCRCLo[201] @ 3216
     461 000000ca 0057          .bits   87,16                   ; _aucCRCLo[202] @ 3232
     462 000000cb 0097          .bits   151,16                  ; _aucCRCLo[203] @ 3248
     463 000000cc 0055          .bits   85,16                   ; _aucCRCLo[204] @ 3264
     464 000000cd 0095          .bits   149,16                  ; _aucCRCLo[205] @ 3280
     465 000000ce 0094          .bits   148,16                  ; _aucCRCLo[206] @ 3296
     466 000000cf 0054          .bits   84,16                   ; _aucCRCLo[207] @ 3312
     467 000000d0 009C          .bits   156,16                  ; _aucCRCLo[208] @ 3328
     468 000000d1 005C          .bits   92,16                   ; _aucCRCLo[209] @ 3344
     469 000000d2 005D          .bits   93,16                   ; _aucCRCLo[210] @ 3360
     470 000000d3 009D          .bits   157,16                  ; _aucCRCLo[211] @ 3376
     471 000000d4 005F          .bits   95,16                   ; _aucCRCLo[212] @ 3392
     472 000000d5 009F          .bits   159,16                  ; _aucCRCLo[213] @ 3408
     473 000000d6 009E          .bits   158,16                  ; _aucCRCLo[214] @ 3424
     474 000000d7 005E          .bits   94,16                   ; _aucCRCLo[215] @ 3440
     475 000000d8 005A          .bits   90,16                   ; _aucCRCLo[216] @ 3456
     476 000000d9 009A          .bits   154,16                  ; _aucCRCLo[217] @ 3472
     477 000000da 009B          .bits   155,16                  ; _aucCRCLo[218] @ 3488
     478 000000db 005B          .bits   91,16                   ; _aucCRCLo[219] @ 3504
     479 000000dc 0099          .bits   153,16                  ; _aucCRCLo[220] @ 3520
     480 000000dd 0059          .bits   89,16                   ; _aucCRCLo[221] @ 3536
     481 000000de 0058          .bits   88,16                   ; _aucCRCLo[222] @ 3552
     482 000000df 0098          .bits   152,16                  ; _aucCRCLo[223] @ 3568
     483 000000e0 0088          .bits   136,16                  ; _aucCRCLo[224] @ 3584
     484 000000e1 0048          .bits   72,16                   ; _aucCRCLo[225] @ 3600
     485 000000e2 0049          .bits   73,16                   ; _aucCRCLo[226] @ 3616
     486 000000e3 0089          .bits   137,16                  ; _aucCRCLo[227] @ 3632
     487 000000e4 004B          .bits   75,16                   ; _aucCRCLo[228] @ 3648
     488 000000e5 008B          .bits   139,16                  ; _aucCRCLo[229] @ 3664
     489 000000e6 008A          .bits   138,16                  ; _aucCRCLo[230] @ 3680
     490 000000e7 004A          .bits   74,16                   ; _aucCRCLo[231] @ 3696
     491 000000e8 004E          .bits   78,16                   ; _aucCRCLo[232] @ 3712
     492 000000e9 008E          .bits   142,16                  ; _aucCRCLo[233] @ 3728
     493 000000ea 008F          .bits   143,16                  ; _aucCRCLo[234] @ 3744
     494 000000eb 004F          .bits   79,16                   ; _aucCRCLo[235] @ 3760
     495 000000ec 008D          .bits   141,16                  ; _aucCRCLo[236] @ 3776
TMS320C2000 Assembler PC v15.12.3 Wed Nov 22 01:55:15 2017

Tools Copyright (c) 1996-2015 Texas Instruments Incorporated
C:\Users\wmj\AppData\Local\Temp\1239610                              PAGE   10

     496 000000ed 004D          .bits   77,16                   ; _aucCRCLo[237] @ 3792
     497 000000ee 004C          .bits   76,16                   ; _aucCRCLo[238] @ 3808
     498 000000ef 008C          .bits   140,16                  ; _aucCRCLo[239] @ 3824
     499 000000f0 0044          .bits   68,16                   ; _aucCRCLo[240] @ 3840
     500 000000f1 0084          .bits   132,16                  ; _aucCRCLo[241] @ 3856
     501 000000f2 0085          .bits   133,16                  ; _aucCRCLo[242] @ 3872
     502 000000f3 0045          .bits   69,16                   ; _aucCRCLo[243] @ 3888
     503 000000f4 0087          .bits   135,16                  ; _aucCRCLo[244] @ 3904
     504 000000f5 0047          .bits   71,16                   ; _aucCRCLo[245] @ 3920
     505 000000f6 0046          .bits   70,16                   ; _aucCRCLo[246] @ 3936
     506 000000f7 0086          .bits   134,16                  ; _aucCRCLo[247] @ 3952
     507 000000f8 0082          .bits   130,16                  ; _aucCRCLo[248] @ 3968
     508 000000f9 0042          .bits   66,16                   ; _aucCRCLo[249] @ 3984
     509 000000fa 0043          .bits   67,16                   ; _aucCRCLo[250] @ 4000
     510 000000fb 0083          .bits   131,16                  ; _aucCRCLo[251] @ 4016
     511 000000fc 0041          .bits   65,16                   ; _aucCRCLo[252] @ 4032
     512 000000fd 0081          .bits   129,16                  ; _aucCRCLo[253] @ 4048
     513 000000fe 0080          .bits   128,16                  ; _aucCRCLo[254] @ 4064
     514 000000ff 0040          .bits   64,16                   ; _aucCRCLo[255] @ 4080
     515              
     516              $C$DW$47        .dwtag  DW_TAG_variable
     517                      .dwattr $C$DW$47, DW_AT_name("aucCRCLo")
     518                      .dwattr $C$DW$47, DW_AT_TI_symbol_name("_aucCRCLo")
     519                      .dwattr $C$DW$47, DW_AT_location[DW_OP_addr _aucCRCLo]
     520                      .dwattr $C$DW$47, DW_AT_type(*$C$DW$T$252)
     521                      .dwattr $C$DW$47, DW_AT_external
     522              
     523                      .global _aucCRCHi
     524 00000000               .sect   ".econst:.string:_aucCRCHi"
     525                      .clink
     526                      .align  1
     527 00000000       _aucCRCHi:
     528 00000000 0000          .bits   0,16                    ; _aucCRCHi[0] @ 0
     529 00000001 00C1          .bits   193,16                  ; _aucCRCHi[1] @ 16
     530 00000002 0081          .bits   129,16                  ; _aucCRCHi[2] @ 32
     531 00000003 0040          .bits   64,16                   ; _aucCRCHi[3] @ 48
     532 00000004 0001          .bits   1,16                    ; _aucCRCHi[4] @ 64
     533 00000005 00C0          .bits   192,16                  ; _aucCRCHi[5] @ 80
     534 00000006 0080          .bits   128,16                  ; _aucCRCHi[6] @ 96
     535 00000007 0041          .bits   65,16                   ; _aucCRCHi[7] @ 112
     536 00000008 0001          .bits   1,16                    ; _aucCRCHi[8] @ 128
     537 00000009 00C0          .bits   192,16                  ; _aucCRCHi[9] @ 144
     538 0000000a 0080          .bits   128,16                  ; _aucCRCHi[10] @ 160
     539 0000000b 0041          .bits   65,16                   ; _aucCRCHi[11] @ 176
     540 0000000c 0000          .bits   0,16                    ; _aucCRCHi[12] @ 192
     541 0000000d 00C1          .bits   193,16                  ; _aucCRCHi[13] @ 208
     542 0000000e 0081          .bits   129,16                  ; _aucCRCHi[14] @ 224
     543 0000000f 0040          .bits   64,16                   ; _aucCRCHi[15] @ 240
     544 00000010 0001          .bits   1,16                    ; _aucCRCHi[16] @ 256
     545 00000011 00C0          .bits   192,16                  ; _aucCRCHi[17] @ 272
     546 00000012 0080          .bits   128,16                  ; _aucCRCHi[18] @ 288
     547 00000013 0041          .bits   65,16                   ; _aucCRCHi[19] @ 304
     548 00000014 0000          .bits   0,16                    ; _aucCRCHi[20] @ 320
     549 00000015 00C1          .bits   193,16                  ; _aucCRCHi[21] @ 336
     550 00000016 0081          .bits   129,16                  ; _aucCRCHi[22] @ 352
TMS320C2000 Assembler PC v15.12.3 Wed Nov 22 01:55:15 2017

Tools Copyright (c) 1996-2015 Texas Instruments Incorporated
C:\Users\wmj\AppData\Local\Temp\1239610                              PAGE   11

     551 00000017 0040          .bits   64,16                   ; _aucCRCHi[23] @ 368
     552 00000018 0000          .bits   0,16                    ; _aucCRCHi[24] @ 384
     553 00000019 00C1          .bits   193,16                  ; _aucCRCHi[25] @ 400
     554 0000001a 0081          .bits   129,16                  ; _aucCRCHi[26] @ 416
     555 0000001b 0040          .bits   64,16                   ; _aucCRCHi[27] @ 432
     556 0000001c 0001          .bits   1,16                    ; _aucCRCHi[28] @ 448
     557 0000001d 00C0          .bits   192,16                  ; _aucCRCHi[29] @ 464
     558 0000001e 0080          .bits   128,16                  ; _aucCRCHi[30] @ 480
     559 0000001f 0041          .bits   65,16                   ; _aucCRCHi[31] @ 496
     560 00000020 0001          .bits   1,16                    ; _aucCRCHi[32] @ 512
     561 00000021 00C0          .bits   192,16                  ; _aucCRCHi[33] @ 528
     562 00000022 0080          .bits   128,16                  ; _aucCRCHi[34] @ 544
     563 00000023 0041          .bits   65,16                   ; _aucCRCHi[35] @ 560
     564 00000024 0000          .bits   0,16                    ; _aucCRCHi[36] @ 576
     565 00000025 00C1          .bits   193,16                  ; _aucCRCHi[37] @ 592
     566 00000026 0081          .bits   129,16                  ; _aucCRCHi[38] @ 608
     567 00000027 0040          .bits   64,16                   ; _aucCRCHi[39] @ 624
     568 00000028 0000          .bits   0,16                    ; _aucCRCHi[40] @ 640
     569 00000029 00C1          .bits   193,16                  ; _aucCRCHi[41] @ 656
     570 0000002a 0081          .bits   129,16                  ; _aucCRCHi[42] @ 672
     571 0000002b 0040          .bits   64,16                   ; _aucCRCHi[43] @ 688
     572 0000002c 0001          .bits   1,16                    ; _aucCRCHi[44] @ 704
     573 0000002d 00C0          .bits   192,16                  ; _aucCRCHi[45] @ 720
     574 0000002e 0080          .bits   128,16                  ; _aucCRCHi[46] @ 736
     575 0000002f 0041          .bits   65,16                   ; _aucCRCHi[47] @ 752
     576 00000030 0000          .bits   0,16                    ; _aucCRCHi[48] @ 768
     577 00000031 00C1          .bits   193,16                  ; _aucCRCHi[49] @ 784
     578 00000032 0081          .bits   129,16                  ; _aucCRCHi[50] @ 800
     579 00000033 0040          .bits   64,16                   ; _aucCRCHi[51] @ 816
     580 00000034 0001          .bits   1,16                    ; _aucCRCHi[52] @ 832
     581 00000035 00C0          .bits   192,16                  ; _aucCRCHi[53] @ 848
     582 00000036 0080          .bits   128,16                  ; _aucCRCHi[54] @ 864
     583 00000037 0041          .bits   65,16                   ; _aucCRCHi[55] @ 880
     584 00000038 0001          .bits   1,16                    ; _aucCRCHi[56] @ 896
     585 00000039 00C0          .bits   192,16                  ; _aucCRCHi[57] @ 912
     586 0000003a 0080          .bits   128,16                  ; _aucCRCHi[58] @ 928
     587 0000003b 0041          .bits   65,16                   ; _aucCRCHi[59] @ 944
     588 0000003c 0000          .bits   0,16                    ; _aucCRCHi[60] @ 960
     589 0000003d 00C1          .bits   193,16                  ; _aucCRCHi[61] @ 976
     590 0000003e 0081          .bits   129,16                  ; _aucCRCHi[62] @ 992
     591 0000003f 0040          .bits   64,16                   ; _aucCRCHi[63] @ 1008
     592 00000040 0001          .bits   1,16                    ; _aucCRCHi[64] @ 1024
     593 00000041 00C0          .bits   192,16                  ; _aucCRCHi[65] @ 1040
     594 00000042 0080          .bits   128,16                  ; _aucCRCHi[66] @ 1056
     595 00000043 0041          .bits   65,16                   ; _aucCRCHi[67] @ 1072
     596 00000044 0000          .bits   0,16                    ; _aucCRCHi[68] @ 1088
     597 00000045 00C1          .bits   193,16                  ; _aucCRCHi[69] @ 1104
     598 00000046 0081          .bits   129,16                  ; _aucCRCHi[70] @ 1120
     599 00000047 0040          .bits   64,16                   ; _aucCRCHi[71] @ 1136
     600 00000048 0000          .bits   0,16                    ; _aucCRCHi[72] @ 1152
     601 00000049 00C1          .bits   193,16                  ; _aucCRCHi[73] @ 1168
     602 0000004a 0081          .bits   129,16                  ; _aucCRCHi[74] @ 1184
     603 0000004b 0040          .bits   64,16                   ; _aucCRCHi[75] @ 1200
     604 0000004c 0001          .bits   1,16                    ; _aucCRCHi[76] @ 1216
     605 0000004d 00C0          .bits   192,16                  ; _aucCRCHi[77] @ 1232
TMS320C2000 Assembler PC v15.12.3 Wed Nov 22 01:55:15 2017

Tools Copyright (c) 1996-2015 Texas Instruments Incorporated
C:\Users\wmj\AppData\Local\Temp\1239610                              PAGE   12

     606 0000004e 0080          .bits   128,16                  ; _aucCRCHi[78] @ 1248
     607 0000004f 0041          .bits   65,16                   ; _aucCRCHi[79] @ 1264
     608 00000050 0000          .bits   0,16                    ; _aucCRCHi[80] @ 1280
     609 00000051 00C1          .bits   193,16                  ; _aucCRCHi[81] @ 1296
     610 00000052 0081          .bits   129,16                  ; _aucCRCHi[82] @ 1312
     611 00000053 0040          .bits   64,16                   ; _aucCRCHi[83] @ 1328
     612 00000054 0001          .bits   1,16                    ; _aucCRCHi[84] @ 1344
     613 00000055 00C0          .bits   192,16                  ; _aucCRCHi[85] @ 1360
     614 00000056 0080          .bits   128,16                  ; _aucCRCHi[86] @ 1376
     615 00000057 0041          .bits   65,16                   ; _aucCRCHi[87] @ 1392
     616 00000058 0001          .bits   1,16                    ; _aucCRCHi[88] @ 1408
     617 00000059 00C0          .bits   192,16                  ; _aucCRCHi[89] @ 1424
     618 0000005a 0080          .bits   128,16                  ; _aucCRCHi[90] @ 1440
     619 0000005b 0041          .bits   65,16                   ; _aucCRCHi[91] @ 1456
     620 0000005c 0000          .bits   0,16                    ; _aucCRCHi[92] @ 1472
     621 0000005d 00C1          .bits   193,16                  ; _aucCRCHi[93] @ 1488
     622 0000005e 0081          .bits   129,16                  ; _aucCRCHi[94] @ 1504
     623 0000005f 0040          .bits   64,16                   ; _aucCRCHi[95] @ 1520
     624 00000060 0000          .bits   0,16                    ; _aucCRCHi[96] @ 1536
     625 00000061 00C1          .bits   193,16                  ; _aucCRCHi[97] @ 1552
     626 00000062 0081          .bits   129,16                  ; _aucCRCHi[98] @ 1568
     627 00000063 0040          .bits   64,16                   ; _aucCRCHi[99] @ 1584
     628 00000064 0001          .bits   1,16                    ; _aucCRCHi[100] @ 1600
     629 00000065 00C0          .bits   192,16                  ; _aucCRCHi[101] @ 1616
     630 00000066 0080          .bits   128,16                  ; _aucCRCHi[102] @ 1632
     631 00000067 0041          .bits   65,16                   ; _aucCRCHi[103] @ 1648
     632 00000068 0001          .bits   1,16                    ; _aucCRCHi[104] @ 1664
     633 00000069 00C0          .bits   192,16                  ; _aucCRCHi[105] @ 1680
     634 0000006a 0080          .bits   128,16                  ; _aucCRCHi[106] @ 1696
     635 0000006b 0041          .bits   65,16                   ; _aucCRCHi[107] @ 1712
     636 0000006c 0000          .bits   0,16                    ; _aucCRCHi[108] @ 1728
     637 0000006d 00C1          .bits   193,16                  ; _aucCRCHi[109] @ 1744
     638 0000006e 0081          .bits   129,16                  ; _aucCRCHi[110] @ 1760
     639 0000006f 0040          .bits   64,16                   ; _aucCRCHi[111] @ 1776
     640 00000070 0001          .bits   1,16                    ; _aucCRCHi[112] @ 1792
     641 00000071 00C0          .bits   192,16                  ; _aucCRCHi[113] @ 1808
     642 00000072 0080          .bits   128,16                  ; _aucCRCHi[114] @ 1824
     643 00000073 0041          .bits   65,16                   ; _aucCRCHi[115] @ 1840
     644 00000074 0000          .bits   0,16                    ; _aucCRCHi[116] @ 1856
     645 00000075 00C1          .bits   193,16                  ; _aucCRCHi[117] @ 1872
     646 00000076 0081          .bits   129,16                  ; _aucCRCHi[118] @ 1888
     647 00000077 0040          .bits   64,16                   ; _aucCRCHi[119] @ 1904
     648 00000078 0000          .bits   0,16                    ; _aucCRCHi[120] @ 1920
     649 00000079 00C1          .bits   193,16                  ; _aucCRCHi[121] @ 1936
     650 0000007a 0081          .bits   129,16                  ; _aucCRCHi[122] @ 1952
     651 0000007b 0040          .bits   64,16                   ; _aucCRCHi[123] @ 1968
     652 0000007c 0001          .bits   1,16                    ; _aucCRCHi[124] @ 1984
     653 0000007d 00C0          .bits   192,16                  ; _aucCRCHi[125] @ 2000
     654 0000007e 0080          .bits   128,16                  ; _aucCRCHi[126] @ 2016
     655 0000007f 0041          .bits   65,16                   ; _aucCRCHi[127] @ 2032
     656 00000080 0001          .bits   1,16                    ; _aucCRCHi[128] @ 2048
     657 00000081 00C0          .bits   192,16                  ; _aucCRCHi[129] @ 2064
     658 00000082 0080          .bits   128,16                  ; _aucCRCHi[130] @ 2080
     659 00000083 0041          .bits   65,16                   ; _aucCRCHi[131] @ 2096
     660 00000084 0000          .bits   0,16                    ; _aucCRCHi[132] @ 2112
TMS320C2000 Assembler PC v15.12.3 Wed Nov 22 01:55:15 2017

Tools Copyright (c) 1996-2015 Texas Instruments Incorporated
C:\Users\wmj\AppData\Local\Temp\1239610                              PAGE   13

     661 00000085 00C1          .bits   193,16                  ; _aucCRCHi[133] @ 2128
     662 00000086 0081          .bits   129,16                  ; _aucCRCHi[134] @ 2144
     663 00000087 0040          .bits   64,16                   ; _aucCRCHi[135] @ 2160
     664 00000088 0000          .bits   0,16                    ; _aucCRCHi[136] @ 2176
     665 00000089 00C1          .bits   193,16                  ; _aucCRCHi[137] @ 2192
     666 0000008a 0081          .bits   129,16                  ; _aucCRCHi[138] @ 2208
     667 0000008b 0040          .bits   64,16                   ; _aucCRCHi[139] @ 2224
     668 0000008c 0001          .bits   1,16                    ; _aucCRCHi[140] @ 2240
     669 0000008d 00C0          .bits   192,16                  ; _aucCRCHi[141] @ 2256
     670 0000008e 0080          .bits   128,16                  ; _aucCRCHi[142] @ 2272
     671 0000008f 0041          .bits   65,16                   ; _aucCRCHi[143] @ 2288
     672 00000090 0000          .bits   0,16                    ; _aucCRCHi[144] @ 2304
     673 00000091 00C1          .bits   193,16                  ; _aucCRCHi[145] @ 2320
     674 00000092 0081          .bits   129,16                  ; _aucCRCHi[146] @ 2336
     675 00000093 0040          .bits   64,16                   ; _aucCRCHi[147] @ 2352
     676 00000094 0001          .bits   1,16                    ; _aucCRCHi[148] @ 2368
     677 00000095 00C0          .bits   192,16                  ; _aucCRCHi[149] @ 2384
     678 00000096 0080          .bits   128,16                  ; _aucCRCHi[150] @ 2400
     679 00000097 0041          .bits   65,16                   ; _aucCRCHi[151] @ 2416
     680 00000098 0001          .bits   1,16                    ; _aucCRCHi[152] @ 2432
     681 00000099 00C0          .bits   192,16                  ; _aucCRCHi[153] @ 2448
     682 0000009a 0080          .bits   128,16                  ; _aucCRCHi[154] @ 2464
     683 0000009b 0041          .bits   65,16                   ; _aucCRCHi[155] @ 2480
     684 0000009c 0000          .bits   0,16                    ; _aucCRCHi[156] @ 2496
     685 0000009d 00C1          .bits   193,16                  ; _aucCRCHi[157] @ 2512
     686 0000009e 0081          .bits   129,16                  ; _aucCRCHi[158] @ 2528
     687 0000009f 0040          .bits   64,16                   ; _aucCRCHi[159] @ 2544
     688 000000a0 0000          .bits   0,16                    ; _aucCRCHi[160] @ 2560
     689 000000a1 00C1          .bits   193,16                  ; _aucCRCHi[161] @ 2576
     690 000000a2 0081          .bits   129,16                  ; _aucCRCHi[162] @ 2592
     691 000000a3 0040          .bits   64,16                   ; _aucCRCHi[163] @ 2608
     692 000000a4 0001          .bits   1,16                    ; _aucCRCHi[164] @ 2624
     693 000000a5 00C0          .bits   192,16                  ; _aucCRCHi[165] @ 2640
     694 000000a6 0080          .bits   128,16                  ; _aucCRCHi[166] @ 2656
     695 000000a7 0041          .bits   65,16                   ; _aucCRCHi[167] @ 2672
     696 000000a8 0001          .bits   1,16                    ; _aucCRCHi[168] @ 2688
     697 000000a9 00C0          .bits   192,16                  ; _aucCRCHi[169] @ 2704
     698 000000aa 0080          .bits   128,16                  ; _aucCRCHi[170] @ 2720
     699 000000ab 0041          .bits   65,16                   ; _aucCRCHi[171] @ 2736
     700 000000ac 0000          .bits   0,16                    ; _aucCRCHi[172] @ 2752
     701 000000ad 00C1          .bits   193,16                  ; _aucCRCHi[173] @ 2768
     702 000000ae 0081          .bits   129,16                  ; _aucCRCHi[174] @ 2784
     703 000000af 0040          .bits   64,16                   ; _aucCRCHi[175] @ 2800
     704 000000b0 0001          .bits   1,16                    ; _aucCRCHi[176] @ 2816
     705 000000b1 00C0          .bits   192,16                  ; _aucCRCHi[177] @ 2832
     706 000000b2 0080          .bits   128,16                  ; _aucCRCHi[178] @ 2848
     707 000000b3 0041          .bits   65,16                   ; _aucCRCHi[179] @ 2864
     708 000000b4 0000          .bits   0,16                    ; _aucCRCHi[180] @ 2880
     709 000000b5 00C1          .bits   193,16                  ; _aucCRCHi[181] @ 2896
     710 000000b6 0081          .bits   129,16                  ; _aucCRCHi[182] @ 2912
     711 000000b7 0040          .bits   64,16                   ; _aucCRCHi[183] @ 2928
     712 000000b8 0000          .bits   0,16                    ; _aucCRCHi[184] @ 2944
     713 000000b9 00C1          .bits   193,16                  ; _aucCRCHi[185] @ 2960
     714 000000ba 0081          .bits   129,16                  ; _aucCRCHi[186] @ 2976
     715 000000bb 0040          .bits   64,16                   ; _aucCRCHi[187] @ 2992
TMS320C2000 Assembler PC v15.12.3 Wed Nov 22 01:55:15 2017

Tools Copyright (c) 1996-2015 Texas Instruments Incorporated
C:\Users\wmj\AppData\Local\Temp\1239610                              PAGE   14

     716 000000bc 0001          .bits   1,16                    ; _aucCRCHi[188] @ 3008
     717 000000bd 00C0          .bits   192,16                  ; _aucCRCHi[189] @ 3024
     718 000000be 0080          .bits   128,16                  ; _aucCRCHi[190] @ 3040
     719 000000bf 0041          .bits   65,16                   ; _aucCRCHi[191] @ 3056
     720 000000c0 0000          .bits   0,16                    ; _aucCRCHi[192] @ 3072
     721 000000c1 00C1          .bits   193,16                  ; _aucCRCHi[193] @ 3088
     722 000000c2 0081          .bits   129,16                  ; _aucCRCHi[194] @ 3104
     723 000000c3 0040          .bits   64,16                   ; _aucCRCHi[195] @ 3120
     724 000000c4 0001          .bits   1,16                    ; _aucCRCHi[196] @ 3136
     725 000000c5 00C0          .bits   192,16                  ; _aucCRCHi[197] @ 3152
     726 000000c6 0080          .bits   128,16                  ; _aucCRCHi[198] @ 3168
     727 000000c7 0041          .bits   65,16                   ; _aucCRCHi[199] @ 3184
     728 000000c8 0001          .bits   1,16                    ; _aucCRCHi[200] @ 3200
     729 000000c9 00C0          .bits   192,16                  ; _aucCRCHi[201] @ 3216
     730 000000ca 0080          .bits   128,16                  ; _aucCRCHi[202] @ 3232
     731 000000cb 0041          .bits   65,16                   ; _aucCRCHi[203] @ 3248
     732 000000cc 0000          .bits   0,16                    ; _aucCRCHi[204] @ 3264
     733 000000cd 00C1          .bits   193,16                  ; _aucCRCHi[205] @ 3280
     734 000000ce 0081          .bits   129,16                  ; _aucCRCHi[206] @ 3296
     735 000000cf 0040          .bits   64,16                   ; _aucCRCHi[207] @ 3312
     736 000000d0 0001          .bits   1,16                    ; _aucCRCHi[208] @ 3328
     737 000000d1 00C0          .bits   192,16                  ; _aucCRCHi[209] @ 3344
     738 000000d2 0080          .bits   128,16                  ; _aucCRCHi[210] @ 3360
     739 000000d3 0041          .bits   65,16                   ; _aucCRCHi[211] @ 3376
     740 000000d4 0000          .bits   0,16                    ; _aucCRCHi[212] @ 3392
     741 000000d5 00C1          .bits   193,16                  ; _aucCRCHi[213] @ 3408
     742 000000d6 0081          .bits   129,16                  ; _aucCRCHi[214] @ 3424
     743 000000d7 0040          .bits   64,16                   ; _aucCRCHi[215] @ 3440
     744 000000d8 0000          .bits   0,16                    ; _aucCRCHi[216] @ 3456
     745 000000d9 00C1          .bits   193,16                  ; _aucCRCHi[217] @ 3472
     746 000000da 0081          .bits   129,16                  ; _aucCRCHi[218] @ 3488
     747 000000db 0040          .bits   64,16                   ; _aucCRCHi[219] @ 3504
     748 000000dc 0001          .bits   1,16                    ; _aucCRCHi[220] @ 3520
     749 000000dd 00C0          .bits   192,16                  ; _aucCRCHi[221] @ 3536
     750 000000de 0080          .bits   128,16                  ; _aucCRCHi[222] @ 3552
     751 000000df 0041          .bits   65,16                   ; _aucCRCHi[223] @ 3568
     752 000000e0 0001          .bits   1,16                    ; _aucCRCHi[224] @ 3584
     753 000000e1 00C0          .bits   192,16                  ; _aucCRCHi[225] @ 3600
     754 000000e2 0080          .bits   128,16                  ; _aucCRCHi[226] @ 3616
     755 000000e3 0041          .bits   65,16                   ; _aucCRCHi[227] @ 3632
     756 000000e4 0000          .bits   0,16                    ; _aucCRCHi[228] @ 3648
     757 000000e5 00C1          .bits   193,16                  ; _aucCRCHi[229] @ 3664
     758 000000e6 0081          .bits   129,16                  ; _aucCRCHi[230] @ 3680
     759 000000e7 0040          .bits   64,16                   ; _aucCRCHi[231] @ 3696
     760 000000e8 0000          .bits   0,16                    ; _aucCRCHi[232] @ 3712
     761 000000e9 00C1          .bits   193,16                  ; _aucCRCHi[233] @ 3728
     762 000000ea 0081          .bits   129,16                  ; _aucCRCHi[234] @ 3744
     763 000000eb 0040          .bits   64,16                   ; _aucCRCHi[235] @ 3760
     764 000000ec 0001          .bits   1,16                    ; _aucCRCHi[236] @ 3776
     765 000000ed 00C0          .bits   192,16                  ; _aucCRCHi[237] @ 3792
     766 000000ee 0080          .bits   128,16                  ; _aucCRCHi[238] @ 3808
     767 000000ef 0041          .bits   65,16                   ; _aucCRCHi[239] @ 3824
     768 000000f0 0000          .bits   0,16                    ; _aucCRCHi[240] @ 3840
     769 000000f1 00C1          .bits   193,16                  ; _aucCRCHi[241] @ 3856
     770 000000f2 0081          .bits   129,16                  ; _aucCRCHi[242] @ 3872
TMS320C2000 Assembler PC v15.12.3 Wed Nov 22 01:55:15 2017

Tools Copyright (c) 1996-2015 Texas Instruments Incorporated
C:\Users\wmj\AppData\Local\Temp\1239610                              PAGE   15

     771 000000f3 0040          .bits   64,16                   ; _aucCRCHi[243] @ 3888
     772 000000f4 0001          .bits   1,16                    ; _aucCRCHi[244] @ 3904
     773 000000f5 00C0          .bits   192,16                  ; _aucCRCHi[245] @ 3920
     774 000000f6 0080          .bits   128,16                  ; _aucCRCHi[246] @ 3936
     775 000000f7 0041          .bits   65,16                   ; _aucCRCHi[247] @ 3952
     776 000000f8 0001          .bits   1,16                    ; _aucCRCHi[248] @ 3968
     777 000000f9 00C0          .bits   192,16                  ; _aucCRCHi[249] @ 3984
     778 000000fa 0080          .bits   128,16                  ; _aucCRCHi[250] @ 4000
     779 000000fb 0041          .bits   65,16                   ; _aucCRCHi[251] @ 4016
     780 000000fc 0000          .bits   0,16                    ; _aucCRCHi[252] @ 4032
     781 000000fd 00C1          .bits   193,16                  ; _aucCRCHi[253] @ 4048
     782 000000fe 0081          .bits   129,16                  ; _aucCRCHi[254] @ 4064
     783 000000ff 0040          .bits   64,16                   ; _aucCRCHi[255] @ 4080
     784              
     785              $C$DW$48        .dwtag  DW_TAG_variable
     786                      .dwattr $C$DW$48, DW_AT_name("aucCRCHi")
     787                      .dwattr $C$DW$48, DW_AT_TI_symbol_name("_aucCRCHi")
     788                      .dwattr $C$DW$48, DW_AT_location[DW_OP_addr _aucCRCHi]
     789                      .dwattr $C$DW$48, DW_AT_type(*$C$DW$T$252)
     790                      .dwattr $C$DW$48, DW_AT_external
     791              
     792              ;       C:\ti\ccsv6\tools\compiler\c2000_15.12.3.LTS\bin\opt2000.exe C:\\Users\\wmj\\AppData\\Local\\Temp\\12
     793              ;       C:\ti\ccsv6\tools\compiler\c2000_15.12.3.LTS\bin\ac2000.exe -@C:\\Users\\wmj\\AppData\\Local\\Temp\\1
     794 00000000               .sect   ".text"
     795                      .clink
     796                      .global _MB_setTimHandle
     797              
     798              $C$DW$49        .dwtag  DW_TAG_subprogram
     799                      .dwattr $C$DW$49, DW_AT_name("MB_setTimHandle")
     800                      .dwattr $C$DW$49, DW_AT_low_pc(_MB_setTimHandle)
     801                      .dwattr $C$DW$49, DW_AT_high_pc(0x00)
     802                      .dwattr $C$DW$49, DW_AT_TI_symbol_name("_MB_setTimHandle")
     803                      .dwattr $C$DW$49, DW_AT_external
     804                      .dwattr $C$DW$49, DW_AT_TI_begin_file("C:/Users/wmj/Desktop/BM1000_v1.1/sw/drivers/drvic/modbus/mb.c"
     805                      .dwattr $C$DW$49, DW_AT_TI_begin_line(0x63)
     806                      .dwattr $C$DW$49, DW_AT_TI_begin_column(0x06)
     807                      .dwattr $C$DW$49, DW_AT_TI_max_frame_size(-2)
     808                      .dwpsn  file "C:/Users/wmj/Desktop/BM1000_v1.1/sw/drivers/drvic/modbus/mb.c",line 100,column 1,is_stm
     809              
     810                      .dwfde $C$DW$CIE, _MB_setTimHandle
     811              $C$DW$50        .dwtag  DW_TAG_formal_parameter
     812                      .dwattr $C$DW$50, DW_AT_name("handle")
     813                      .dwattr $C$DW$50, DW_AT_TI_symbol_name("_handle")
     814                      .dwattr $C$DW$50, DW_AT_type(*$C$DW$T$178)
     815                      .dwattr $C$DW$50, DW_AT_location[DW_OP_reg12]
     816              
     817              $C$DW$51        .dwtag  DW_TAG_formal_parameter
     818                      .dwattr $C$DW$51, DW_AT_name("timerHandle")
     819                      .dwattr $C$DW$51, DW_AT_TI_symbol_name("_timerHandle")
     820                      .dwattr $C$DW$51, DW_AT_type(*$C$DW$T$106)
     821                      .dwattr $C$DW$51, DW_AT_location[DW_OP_reg14]
     822              
     823              
     824              ;***************************************************************
     825              ;* FNAME: _MB_setTimHandle              FR SIZE:   0           *
TMS320C2000 Assembler PC v15.12.3 Wed Nov 22 01:55:15 2017

Tools Copyright (c) 1996-2015 Texas Instruments Incorporated
C:\Users\wmj\AppData\Local\Temp\1239610                              PAGE   16

     826              ;*                                                             *
     827              ;* FUNCTION ENVIRONMENT                                        *
     828              ;*                                                             *
     829              ;* FUNCTION PROPERTIES                                         *
     830              ;*                            0 Parameter,  0 Auto,  0 SOE     *
     831              ;***************************************************************
     832              
     833              _MB_setTimHandle:
     834              ;* AR4   assigned to _handle
     835              $C$DW$52        .dwtag  DW_TAG_variable
     836                      .dwattr $C$DW$52, DW_AT_name("handle")
     837                      .dwattr $C$DW$52, DW_AT_TI_symbol_name("_handle")
     838                      .dwattr $C$DW$52, DW_AT_type(*$C$DW$T$200)
     839                      .dwattr $C$DW$52, DW_AT_location[DW_OP_reg12]
     840              
     841              ;* AR5   assigned to _timerHandle
     842              $C$DW$53        .dwtag  DW_TAG_variable
     843                      .dwattr $C$DW$53, DW_AT_name("timerHandle")
     844                      .dwattr $C$DW$53, DW_AT_TI_symbol_name("_timerHandle")
     845                      .dwattr $C$DW$53, DW_AT_type(*$C$DW$T$212)
     846                      .dwattr $C$DW$53, DW_AT_location[DW_OP_reg14]
     847              
     848                      .dwcfi  cfa_offset, -2
     849                      .dwcfi  save_reg_to_mem, 26, 0
     850                      .dwpsn  file "C:/Users/wmj/Desktop/BM1000_v1.1/sw/drivers/drvic/modbus/mb.c",line 103,column 4,is_stm
     851 00000000 A0F4          MOVL      *+XAR4[6],XAR5        ; [CPU_] |103| 
     852              $C$DW$54        .dwtag  DW_TAG_TI_branch
     853                      .dwattr $C$DW$54, DW_AT_low_pc(0x00)
     854                      .dwattr $C$DW$54, DW_AT_TI_return
     855              
     856 00000001 0006          LRETR     ; [CPU_] 
     857                      ; return occurs ; [] 
     858                      .dwattr $C$DW$49, DW_AT_TI_end_file("C:/Users/wmj/Desktop/BM1000_v1.1/sw/drivers/drvic/modbus/mb.c")
     859                      .dwattr $C$DW$49, DW_AT_TI_end_line(0x6a)
     860                      .dwattr $C$DW$49, DW_AT_TI_end_column(0x01)
     861                      .dwendentry
     862                      .dwendtag $C$DW$49
     863              
     864 00000002               .sect   ".text"
     865                      .clink
     866                      .global _MB_setSciHandle
     867              
     868              $C$DW$55        .dwtag  DW_TAG_subprogram
     869                      .dwattr $C$DW$55, DW_AT_name("MB_setSciHandle")
     870                      .dwattr $C$DW$55, DW_AT_low_pc(_MB_setSciHandle)
     871                      .dwattr $C$DW$55, DW_AT_high_pc(0x00)
     872                      .dwattr $C$DW$55, DW_AT_TI_symbol_name("_MB_setSciHandle")
     873                      .dwattr $C$DW$55, DW_AT_external
     874                      .dwattr $C$DW$55, DW_AT_TI_begin_file("C:/Users/wmj/Desktop/BM1000_v1.1/sw/drivers/drvic/modbus/mb.c"
     875                      .dwattr $C$DW$55, DW_AT_TI_begin_line(0x5a)
     876                      .dwattr $C$DW$55, DW_AT_TI_begin_column(0x06)
     877                      .dwattr $C$DW$55, DW_AT_TI_max_frame_size(-2)
     878                      .dwpsn  file "C:/Users/wmj/Desktop/BM1000_v1.1/sw/drivers/drvic/modbus/mb.c",line 91,column 1,is_stmt
     879              
     880                      .dwfde $C$DW$CIE, _MB_setSciHandle
TMS320C2000 Assembler PC v15.12.3 Wed Nov 22 01:55:15 2017

Tools Copyright (c) 1996-2015 Texas Instruments Incorporated
C:\Users\wmj\AppData\Local\Temp\1239610                              PAGE   17

     881              $C$DW$56        .dwtag  DW_TAG_formal_parameter
     882                      .dwattr $C$DW$56, DW_AT_name("handle")
     883                      .dwattr $C$DW$56, DW_AT_TI_symbol_name("_handle")
     884                      .dwattr $C$DW$56, DW_AT_type(*$C$DW$T$178)
     885                      .dwattr $C$DW$56, DW_AT_location[DW_OP_reg12]
     886              
     887              $C$DW$57        .dwtag  DW_TAG_formal_parameter
     888                      .dwattr $C$DW$57, DW_AT_name("sciHandle")
     889                      .dwattr $C$DW$57, DW_AT_TI_symbol_name("_sciHandle")
     890                      .dwattr $C$DW$57, DW_AT_type(*$C$DW$T$113)
     891                      .dwattr $C$DW$57, DW_AT_location[DW_OP_reg14]
     892              
     893              
     894              ;***************************************************************
     895              ;* FNAME: _MB_setSciHandle              FR SIZE:   0           *
     896              ;*                                                             *
     897              ;* FUNCTION ENVIRONMENT                                        *
     898              ;*                                                             *
     899              ;* FUNCTION PROPERTIES                                         *
     900              ;*                            0 Parameter,  0 Auto,  0 SOE     *
     901              ;***************************************************************
     902              
     903              _MB_setSciHandle:
     904              ;* AR4   assigned to _handle
     905              $C$DW$58        .dwtag  DW_TAG_variable
     906                      .dwattr $C$DW$58, DW_AT_name("handle")
     907                      .dwattr $C$DW$58, DW_AT_TI_symbol_name("_handle")
     908                      .dwattr $C$DW$58, DW_AT_type(*$C$DW$T$200)
     909                      .dwattr $C$DW$58, DW_AT_location[DW_OP_reg12]
     910              
     911              ;* AR5   assigned to _sciHandle
     912              $C$DW$59        .dwtag  DW_TAG_variable
     913                      .dwattr $C$DW$59, DW_AT_name("sciHandle")
     914                      .dwattr $C$DW$59, DW_AT_TI_symbol_name("_sciHandle")
     915                      .dwattr $C$DW$59, DW_AT_type(*$C$DW$T$209)
     916                      .dwattr $C$DW$59, DW_AT_location[DW_OP_reg14]
     917              
     918                      .dwcfi  cfa_offset, -2
     919                      .dwcfi  save_reg_to_mem, 26, 0
     920                      .dwpsn  file "C:/Users/wmj/Desktop/BM1000_v1.1/sw/drivers/drvic/modbus/mb.c",line 94,column 4,is_stmt
     921 00000002 D008          MOVB      XAR0,#8               ; [CPU_] |94| 
     922 00000003 A094          MOVL      *+XAR4[AR0],XAR5      ; [CPU_] |94| 
     923              $C$DW$60        .dwtag  DW_TAG_TI_branch
     924                      .dwattr $C$DW$60, DW_AT_low_pc(0x00)
     925                      .dwattr $C$DW$60, DW_AT_TI_return
     926              
     927 00000004 0006          LRETR     ; [CPU_] 
     928                      ; return occurs ; [] 
     929                      .dwattr $C$DW$55, DW_AT_TI_end_file("C:/Users/wmj/Desktop/BM1000_v1.1/sw/drivers/drvic/modbus/mb.c")
     930                      .dwattr $C$DW$55, DW_AT_TI_end_line(0x61)
     931                      .dwattr $C$DW$55, DW_AT_TI_end_column(0x01)
     932                      .dwendentry
     933                      .dwendtag $C$DW$55
     934              
     935 00000005               .sect   ".text"
TMS320C2000 Assembler PC v15.12.3 Wed Nov 22 01:55:15 2017

Tools Copyright (c) 1996-2015 Texas Instruments Incorporated
C:\Users\wmj\AppData\Local\Temp\1239610                              PAGE   18

     936                      .clink
     937                      .global _MB_setMotorHandle
     938              
     939              $C$DW$61        .dwtag  DW_TAG_subprogram
     940                      .dwattr $C$DW$61, DW_AT_name("MB_setMotorHandle")
     941                      .dwattr $C$DW$61, DW_AT_low_pc(_MB_setMotorHandle)
     942                      .dwattr $C$DW$61, DW_AT_high_pc(0x00)
     943                      .dwattr $C$DW$61, DW_AT_TI_symbol_name("_MB_setMotorHandle")
     944                      .dwattr $C$DW$61, DW_AT_external
     945                      .dwattr $C$DW$61, DW_AT_TI_begin_file("C:/Users/wmj/Desktop/BM1000_v1.1/sw/drivers/drvic/modbus/mb.c"
     946                      .dwattr $C$DW$61, DW_AT_TI_begin_line(0x75)
     947                      .dwattr $C$DW$61, DW_AT_TI_begin_column(0x06)
     948                      .dwattr $C$DW$61, DW_AT_TI_max_frame_size(-2)
     949                      .dwpsn  file "C:/Users/wmj/Desktop/BM1000_v1.1/sw/drivers/drvic/modbus/mb.c",line 118,column 1,is_stm
     950              
     951                      .dwfde $C$DW$CIE, _MB_setMotorHandle
     952              $C$DW$62        .dwtag  DW_TAG_formal_parameter
     953                      .dwattr $C$DW$62, DW_AT_name("handle")
     954                      .dwattr $C$DW$62, DW_AT_TI_symbol_name("_handle")
     955                      .dwattr $C$DW$62, DW_AT_type(*$C$DW$T$178)
     956                      .dwattr $C$DW$62, DW_AT_location[DW_OP_reg12]
     957              
     958              $C$DW$63        .dwtag  DW_TAG_formal_parameter
     959                      .dwattr $C$DW$63, DW_AT_name("motorHandle")
     960                      .dwattr $C$DW$63, DW_AT_TI_symbol_name("_motorHandle")
     961                      .dwattr $C$DW$63, DW_AT_type(*$C$DW$T$41)
     962                      .dwattr $C$DW$63, DW_AT_location[DW_OP_reg14]
     963              
     964              
     965              ;***************************************************************
     966              ;* FNAME: _MB_setMotorHandle            FR SIZE:   0           *
     967              ;*                                                             *
     968              ;* FUNCTION ENVIRONMENT                                        *
     969              ;*                                                             *
     970              ;* FUNCTION PROPERTIES                                         *
     971              ;*                            0 Parameter,  0 Auto,  0 SOE     *
     972              ;***************************************************************
     973              
     974              _MB_setMotorHandle:
     975              ;* AR4   assigned to _handle
     976              $C$DW$64        .dwtag  DW_TAG_variable
     977                      .dwattr $C$DW$64, DW_AT_name("handle")
     978                      .dwattr $C$DW$64, DW_AT_TI_symbol_name("_handle")
     979                      .dwattr $C$DW$64, DW_AT_type(*$C$DW$T$200)
     980                      .dwattr $C$DW$64, DW_AT_location[DW_OP_reg12]
     981              
     982              ;* AR5   assigned to _motorHandle
     983              $C$DW$65        .dwtag  DW_TAG_variable
     984                      .dwattr $C$DW$65, DW_AT_name("motorHandle")
     985                      .dwattr $C$DW$65, DW_AT_TI_symbol_name("_motorHandle")
     986                      .dwattr $C$DW$65, DW_AT_type(*$C$DW$T$207)
     987                      .dwattr $C$DW$65, DW_AT_location[DW_OP_reg14]
     988              
     989                      .dwcfi  cfa_offset, -2
     990                      .dwcfi  save_reg_to_mem, 26, 0
TMS320C2000 Assembler PC v15.12.3 Wed Nov 22 01:55:15 2017

Tools Copyright (c) 1996-2015 Texas Instruments Incorporated
C:\Users\wmj\AppData\Local\Temp\1239610                              PAGE   19

     991                      .dwpsn  file "C:/Users/wmj/Desktop/BM1000_v1.1/sw/drivers/drvic/modbus/mb.c",line 121,column 3,is_stm
     992 00000005 A0C4          MOVL      *+XAR4[0],XAR5        ; [CPU_] |121| 
     993              $C$DW$66        .dwtag  DW_TAG_TI_branch
     994                      .dwattr $C$DW$66, DW_AT_low_pc(0x00)
     995                      .dwattr $C$DW$66, DW_AT_TI_return
     996              
     997 00000006 0006          LRETR     ; [CPU_] 
     998                      ; return occurs ; [] 
     999                      .dwattr $C$DW$61, DW_AT_TI_end_file("C:/Users/wmj/Desktop/BM1000_v1.1/sw/drivers/drvic/modbus/mb.c")
    1000                      .dwattr $C$DW$61, DW_AT_TI_end_line(0x7c)
    1001                      .dwattr $C$DW$61, DW_AT_TI_end_column(0x01)
    1002                      .dwendentry
    1003                      .dwendtag $C$DW$61
    1004              
    1005 00000007               .sect   ".text"
    1006                      .clink
    1007                      .global _MB_setGpioHandle
    1008              
    1009              $C$DW$67        .dwtag  DW_TAG_subprogram
    1010                      .dwattr $C$DW$67, DW_AT_name("MB_setGpioHandle")
    1011                      .dwattr $C$DW$67, DW_AT_low_pc(_MB_setGpioHandle)
    1012                      .dwattr $C$DW$67, DW_AT_high_pc(0x00)
    1013                      .dwattr $C$DW$67, DW_AT_TI_symbol_name("_MB_setGpioHandle")
    1014                      .dwattr $C$DW$67, DW_AT_external
    1015                      .dwattr $C$DW$67, DW_AT_TI_begin_file("C:/Users/wmj/Desktop/BM1000_v1.1/sw/drivers/drvic/modbus/mb.c"
    1016                      .dwattr $C$DW$67, DW_AT_TI_begin_line(0x6c)
    1017                      .dwattr $C$DW$67, DW_AT_TI_begin_column(0x06)
    1018                      .dwattr $C$DW$67, DW_AT_TI_max_frame_size(-2)
    1019                      .dwpsn  file "C:/Users/wmj/Desktop/BM1000_v1.1/sw/drivers/drvic/modbus/mb.c",line 109,column 1,is_stm
    1020              
    1021                      .dwfde $C$DW$CIE, _MB_setGpioHandle
    1022              $C$DW$68        .dwtag  DW_TAG_formal_parameter
    1023                      .dwattr $C$DW$68, DW_AT_name("handle")
    1024                      .dwattr $C$DW$68, DW_AT_TI_symbol_name("_handle")
    1025                      .dwattr $C$DW$68, DW_AT_type(*$C$DW$T$178)
    1026                      .dwattr $C$DW$68, DW_AT_location[DW_OP_reg12]
    1027              
    1028              $C$DW$69        .dwtag  DW_TAG_formal_parameter
    1029                      .dwattr $C$DW$69, DW_AT_name("gpioHandle")
    1030                      .dwattr $C$DW$69, DW_AT_TI_symbol_name("_gpioHandle")
    1031                      .dwattr $C$DW$69, DW_AT_type(*$C$DW$T$88)
    1032                      .dwattr $C$DW$69, DW_AT_location[DW_OP_reg14]
    1033              
    1034              
    1035              ;***************************************************************
    1036              ;* FNAME: _MB_setGpioHandle             FR SIZE:   0           *
    1037              ;*                                                             *
    1038              ;* FUNCTION ENVIRONMENT                                        *
    1039              ;*                                                             *
    1040              ;* FUNCTION PROPERTIES                                         *
    1041              ;*                            0 Parameter,  0 Auto,  0 SOE     *
    1042              ;***************************************************************
    1043              
    1044              _MB_setGpioHandle:
    1045              ;* AR4   assigned to _handle
TMS320C2000 Assembler PC v15.12.3 Wed Nov 22 01:55:15 2017

Tools Copyright (c) 1996-2015 Texas Instruments Incorporated
C:\Users\wmj\AppData\Local\Temp\1239610                              PAGE   20

    1046              $C$DW$70        .dwtag  DW_TAG_variable
    1047                      .dwattr $C$DW$70, DW_AT_name("handle")
    1048                      .dwattr $C$DW$70, DW_AT_TI_symbol_name("_handle")
    1049                      .dwattr $C$DW$70, DW_AT_type(*$C$DW$T$200)
    1050                      .dwattr $C$DW$70, DW_AT_location[DW_OP_reg12]
    1051              
    1052              ;* AR5   assigned to _gpioHandle
    1053              $C$DW$71        .dwtag  DW_TAG_variable
    1054                      .dwattr $C$DW$71, DW_AT_name("gpioHandle")
    1055                      .dwattr $C$DW$71, DW_AT_TI_symbol_name("_gpioHandle")
    1056                      .dwattr $C$DW$71, DW_AT_type(*$C$DW$T$197)
    1057                      .dwattr $C$DW$71, DW_AT_location[DW_OP_reg14]
    1058              
    1059                      .dwcfi  cfa_offset, -2
    1060                      .dwcfi  save_reg_to_mem, 26, 0
    1061                      .dwpsn  file "C:/Users/wmj/Desktop/BM1000_v1.1/sw/drivers/drvic/modbus/mb.c",line 112,column 4,is_stm
    1062 00000007 A0E4          MOVL      *+XAR4[4],XAR5        ; [CPU_] |112| 
    1063              $C$DW$72        .dwtag  DW_TAG_TI_branch
    1064                      .dwattr $C$DW$72, DW_AT_low_pc(0x00)
    1065                      .dwattr $C$DW$72, DW_AT_TI_return
    1066              
    1067 00000008 0006          LRETR     ; [CPU_] 
    1068                      ; return occurs ; [] 
    1069                      .dwattr $C$DW$67, DW_AT_TI_end_file("C:/Users/wmj/Desktop/BM1000_v1.1/sw/drivers/drvic/modbus/mb.c")
    1070                      .dwattr $C$DW$67, DW_AT_TI_end_line(0x73)
    1071                      .dwattr $C$DW$67, DW_AT_TI_end_column(0x01)
    1072                      .dwendentry
    1073                      .dwendtag $C$DW$67
    1074              
    1075 00000009               .sect   ".text"
    1076                      .clink
    1077                      .global _MB_setFsmHandle
    1078              
    1079              $C$DW$73        .dwtag  DW_TAG_subprogram
    1080                      .dwattr $C$DW$73, DW_AT_name("MB_setFsmHandle")
    1081                      .dwattr $C$DW$73, DW_AT_low_pc(_MB_setFsmHandle)
    1082                      .dwattr $C$DW$73, DW_AT_high_pc(0x00)
    1083                      .dwattr $C$DW$73, DW_AT_TI_symbol_name("_MB_setFsmHandle")
    1084                      .dwattr $C$DW$73, DW_AT_external
    1085                      .dwattr $C$DW$73, DW_AT_TI_begin_file("C:/Users/wmj/Desktop/BM1000_v1.1/sw/drivers/drvic/modbus/mb.c"
    1086                      .dwattr $C$DW$73, DW_AT_TI_begin_line(0x7e)
    1087                      .dwattr $C$DW$73, DW_AT_TI_begin_column(0x06)
    1088                      .dwattr $C$DW$73, DW_AT_TI_max_frame_size(-2)
    1089                      .dwpsn  file "C:/Users/wmj/Desktop/BM1000_v1.1/sw/drivers/drvic/modbus/mb.c",line 127,column 1,is_stm
    1090              
    1091                      .dwfde $C$DW$CIE, _MB_setFsmHandle
    1092              $C$DW$74        .dwtag  DW_TAG_formal_parameter
    1093                      .dwattr $C$DW$74, DW_AT_name("handle")
    1094                      .dwattr $C$DW$74, DW_AT_TI_symbol_name("_handle")
    1095                      .dwattr $C$DW$74, DW_AT_type(*$C$DW$T$178)
    1096                      .dwattr $C$DW$74, DW_AT_location[DW_OP_reg12]
    1097              
    1098              $C$DW$75        .dwtag  DW_TAG_formal_parameter
    1099                      .dwattr $C$DW$75, DW_AT_name("fsmHandle")
    1100                      .dwattr $C$DW$75, DW_AT_TI_symbol_name("_fsmHandle")
TMS320C2000 Assembler PC v15.12.3 Wed Nov 22 01:55:15 2017

Tools Copyright (c) 1996-2015 Texas Instruments Incorporated
C:\Users\wmj\AppData\Local\Temp\1239610                              PAGE   21

    1101                      .dwattr $C$DW$75, DW_AT_type(*$C$DW$T$121)
    1102                      .dwattr $C$DW$75, DW_AT_location[DW_OP_reg14]
    1103              
    1104              
    1105              ;***************************************************************
    1106              ;* FNAME: _MB_setFsmHandle              FR SIZE:   0           *
    1107              ;*                                                             *
    1108              ;* FUNCTION ENVIRONMENT                                        *
    1109              ;*                                                             *
    1110              ;* FUNCTION PROPERTIES                                         *
    1111              ;*                            0 Parameter,  0 Auto,  0 SOE     *
    1112              ;***************************************************************
    1113              
    1114              _MB_setFsmHandle:
    1115              ;* AR4   assigned to _handle
    1116              $C$DW$76        .dwtag  DW_TAG_variable
    1117                      .dwattr $C$DW$76, DW_AT_name("handle")
    1118                      .dwattr $C$DW$76, DW_AT_TI_symbol_name("_handle")
    1119                      .dwattr $C$DW$76, DW_AT_type(*$C$DW$T$200)
    1120                      .dwattr $C$DW$76, DW_AT_location[DW_OP_reg12]
    1121              
    1122              ;* AR5   assigned to _fsmHandle
    1123              $C$DW$77        .dwtag  DW_TAG_variable
    1124                      .dwattr $C$DW$77, DW_AT_name("fsmHandle")
    1125                      .dwattr $C$DW$77, DW_AT_TI_symbol_name("_fsmHandle")
    1126                      .dwattr $C$DW$77, DW_AT_type(*$C$DW$T$195)
    1127                      .dwattr $C$DW$77, DW_AT_location[DW_OP_reg14]
    1128              
    1129                      .dwcfi  cfa_offset, -2
    1130                      .dwcfi  save_reg_to_mem, 26, 0
    1131                      .dwpsn  file "C:/Users/wmj/Desktop/BM1000_v1.1/sw/drivers/drvic/modbus/mb.c",line 130,column 3,is_stm
    1132 00000009 A0D4          MOVL      *+XAR4[2],XAR5        ; [CPU_] |130| 
    1133              $C$DW$78        .dwtag  DW_TAG_TI_branch
    1134                      .dwattr $C$DW$78, DW_AT_low_pc(0x00)
    1135                      .dwattr $C$DW$78, DW_AT_TI_return
    1136              
    1137 0000000a 0006          LRETR     ; [CPU_] 
    1138                      ; return occurs ; [] 
    1139                      .dwattr $C$DW$73, DW_AT_TI_end_file("C:/Users/wmj/Desktop/BM1000_v1.1/sw/drivers/drvic/modbus/mb.c")
    1140                      .dwattr $C$DW$73, DW_AT_TI_end_line(0x85)
    1141                      .dwattr $C$DW$73, DW_AT_TI_end_column(0x01)
    1142                      .dwendentry
    1143                      .dwendtag $C$DW$73
    1144              
    1145 0000000b               .sect   ".text"
    1146                      .clink
    1147                      .global _MB_init
    1148              
    1149              $C$DW$79        .dwtag  DW_TAG_subprogram
    1150                      .dwattr $C$DW$79, DW_AT_name("MB_init")
    1151                      .dwattr $C$DW$79, DW_AT_low_pc(_MB_init)
    1152                      .dwattr $C$DW$79, DW_AT_high_pc(0x00)
    1153                      .dwattr $C$DW$79, DW_AT_TI_symbol_name("_MB_init")
    1154                      .dwattr $C$DW$79, DW_AT_external
    1155                      .dwattr $C$DW$79, DW_AT_type(*$C$DW$T$178)
TMS320C2000 Assembler PC v15.12.3 Wed Nov 22 01:55:15 2017

Tools Copyright (c) 1996-2015 Texas Instruments Incorporated
C:\Users\wmj\AppData\Local\Temp\1239610                              PAGE   22

    1156                      .dwattr $C$DW$79, DW_AT_TI_begin_file("C:/Users/wmj/Desktop/BM1000_v1.1/sw/drivers/drvic/modbus/mb.c"
    1157                      .dwattr $C$DW$79, DW_AT_TI_begin_line(0x4a)
    1158                      .dwattr $C$DW$79, DW_AT_TI_begin_column(0x0b)
    1159                      .dwattr $C$DW$79, DW_AT_TI_max_frame_size(-2)
    1160                      .dwpsn  file "C:/Users/wmj/Desktop/BM1000_v1.1/sw/drivers/drvic/modbus/mb.c",line 75,column 1,is_stmt
    1161              
    1162                      .dwfde $C$DW$CIE, _MB_init
    1163              $C$DW$80        .dwtag  DW_TAG_formal_parameter
    1164                      .dwattr $C$DW$80, DW_AT_name("pMemory")
    1165                      .dwattr $C$DW$80, DW_AT_TI_symbol_name("_pMemory")
    1166                      .dwattr $C$DW$80, DW_AT_type(*$C$DW$T$3)
    1167                      .dwattr $C$DW$80, DW_AT_location[DW_OP_reg12]
    1168              
    1169              $C$DW$81        .dwtag  DW_TAG_formal_parameter
    1170                      .dwattr $C$DW$81, DW_AT_name("numBytes")
    1171                      .dwattr $C$DW$81, DW_AT_TI_symbol_name("_numBytes")
    1172                      .dwattr $C$DW$81, DW_AT_type(*$C$DW$T$202)
    1173                      .dwattr $C$DW$81, DW_AT_location[DW_OP_reg0]
    1174              
    1175              
    1176              ;***************************************************************
    1177              ;* FNAME: _MB_init                      FR SIZE:   0           *
    1178              ;*                                                             *
    1179              ;* FUNCTION ENVIRONMENT                                        *
    1180              ;*                                                             *
    1181              ;* FUNCTION PROPERTIES                                         *
    1182              ;*                            0 Parameter,  0 Auto,  0 SOE     *
    1183              ;***************************************************************
    1184              
    1185              _MB_init:
    1186              ;* AR6   assigned to _numBytes
    1187              $C$DW$82        .dwtag  DW_TAG_variable
    1188                      .dwattr $C$DW$82, DW_AT_name("numBytes")
    1189                      .dwattr $C$DW$82, DW_AT_TI_symbol_name("_numBytes")
    1190                      .dwattr $C$DW$82, DW_AT_type(*$C$DW$T$202)
    1191                      .dwattr $C$DW$82, DW_AT_location[DW_OP_reg16]
    1192              
    1193                      .dwcfi  cfa_offset, -2
    1194                      .dwcfi  save_reg_to_mem, 26, 0
    1195 0000000b 1EA6          MOVL      XAR6,ACC              ; [CPU_] |75| 
    1196                      .dwpsn  file "C:/Users/wmj/Desktop/BM1000_v1.1/sw/drivers/drvic/modbus/mb.c",line 80,column 6,is_stmt
    1197 0000000c 0220          MOVB      ACC,#32               ; [CPU_] |80| 
    1198 0000000d 0FA6          CMPL      ACC,XAR6              ; [CPU_] |80| 
    1199 0000000e 6902          B         $C$L1,LOS             ; [CPU_] |80| 
    1200                      ; branchcc occurs ; [] |80| 
    1201 0000000f D400          MOVB      XAR4,#0               ; [CPU_] |80| 
    1202              $C$L1:    
    1203              $C$DW$83        .dwtag  DW_TAG_TI_branch
    1204                      .dwattr $C$DW$83, DW_AT_low_pc(0x00)
    1205                      .dwattr $C$DW$83, DW_AT_TI_return
    1206              
    1207 00000010 0006          LRETR     ; [CPU_] 
    1208                      ; return occurs ; [] 
    1209                      .dwattr $C$DW$79, DW_AT_TI_end_file("C:/Users/wmj/Desktop/BM1000_v1.1/sw/drivers/drvic/modbus/mb.c")
    1210                      .dwattr $C$DW$79, DW_AT_TI_end_line(0x57)
TMS320C2000 Assembler PC v15.12.3 Wed Nov 22 01:55:15 2017

Tools Copyright (c) 1996-2015 Texas Instruments Incorporated
C:\Users\wmj\AppData\Local\Temp\1239610                              PAGE   23

    1211                      .dwattr $C$DW$79, DW_AT_TI_end_column(0x01)
    1212                      .dwendentry
    1213                      .dwendtag $C$DW$79
    1214              
    1215 00000011               .sect   ".text"
    1216                      .clink
    1217                      .global _MB_PortEventPost
    1218              
    1219              $C$DW$84        .dwtag  DW_TAG_subprogram
    1220                      .dwattr $C$DW$84, DW_AT_name("MB_PortEventPost")
    1221                      .dwattr $C$DW$84, DW_AT_low_pc(_MB_PortEventPost)
    1222                      .dwattr $C$DW$84, DW_AT_high_pc(0x00)
    1223                      .dwattr $C$DW$84, DW_AT_TI_symbol_name("_MB_PortEventPost")
    1224                      .dwattr $C$DW$84, DW_AT_external
    1225                      .dwattr $C$DW$84, DW_AT_TI_begin_file("C:/Users/wmj/Desktop/BM1000_v1.1/sw/drivers/drvic/modbus/mb.c"
    1226                      .dwattr $C$DW$84, DW_AT_TI_begin_line(0xd7)
    1227                      .dwattr $C$DW$84, DW_AT_TI_begin_column(0x06)
    1228                      .dwattr $C$DW$84, DW_AT_TI_max_frame_size(-2)
    1229                      .dwpsn  file "C:/Users/wmj/Desktop/BM1000_v1.1/sw/drivers/drvic/modbus/mb.c",line 216,column 1,is_stm
    1230              
    1231                      .dwfde $C$DW$CIE, _MB_PortEventPost
    1232              $C$DW$85        .dwtag  DW_TAG_formal_parameter
    1233                      .dwattr $C$DW$85, DW_AT_name("handle")
    1234                      .dwattr $C$DW$85, DW_AT_TI_symbol_name("_handle")
    1235                      .dwattr $C$DW$85, DW_AT_type(*$C$DW$T$178)
    1236                      .dwattr $C$DW$85, DW_AT_location[DW_OP_reg12]
    1237              
    1238              $C$DW$86        .dwtag  DW_TAG_formal_parameter
    1239                      .dwattr $C$DW$86, DW_AT_name("eEvent")
    1240                      .dwattr $C$DW$86, DW_AT_TI_symbol_name("_eEvent")
    1241                      .dwattr $C$DW$86, DW_AT_type(*$C$DW$T$135)
    1242                      .dwattr $C$DW$86, DW_AT_location[DW_OP_reg0]
    1243              
    1244              
    1245              ;***************************************************************
    1246              ;* FNAME: _MB_PortEventPost             FR SIZE:   0           *
    1247              ;*                                                             *
    1248              ;* FUNCTION ENVIRONMENT                                        *
    1249              ;*                                                             *
    1250              ;* FUNCTION PROPERTIES                                         *
    1251              ;*                            0 Parameter,  0 Auto,  0 SOE     *
    1252              ;***************************************************************
    1253              
    1254              _MB_PortEventPost:
    1255              ;* AR4   assigned to _handle
    1256              $C$DW$87        .dwtag  DW_TAG_variable
    1257                      .dwattr $C$DW$87, DW_AT_name("handle")
    1258                      .dwattr $C$DW$87, DW_AT_TI_symbol_name("_handle")
    1259                      .dwattr $C$DW$87, DW_AT_type(*$C$DW$T$200)
    1260                      .dwattr $C$DW$87, DW_AT_location[DW_OP_reg12]
    1261              
    1262              ;* AL    assigned to _eEvent
    1263              $C$DW$88        .dwtag  DW_TAG_variable
    1264                      .dwattr $C$DW$88, DW_AT_name("eEvent")
    1265                      .dwattr $C$DW$88, DW_AT_TI_symbol_name("_eEvent")
TMS320C2000 Assembler PC v15.12.3 Wed Nov 22 01:55:15 2017

Tools Copyright (c) 1996-2015 Texas Instruments Incorporated
C:\Users\wmj\AppData\Local\Temp\1239610                              PAGE   24

    1266                      .dwattr $C$DW$88, DW_AT_type(*$C$DW$T$186)
    1267                      .dwattr $C$DW$88, DW_AT_location[DW_OP_reg0]
    1268              
    1269                      .dwcfi  cfa_offset, -2
    1270                      .dwcfi  save_reg_to_mem, 26, 0
    1271                      .dwpsn  file "C:/Users/wmj/Desktop/BM1000_v1.1/sw/drivers/drvic/modbus/mb.c",line 218,column 5,is_stm
    1272 00000011 D01D          MOVB      XAR0,#29              ; [CPU_] |218| 
    1273 00000012 56BF          MOVB      *+XAR4[AR0],#1,UNC    ; [CPU_] |218| 
         00000013 0194 
    1274                      .dwpsn  file "C:/Users/wmj/Desktop/BM1000_v1.1/sw/drivers/drvic/modbus/mb.c",line 219,column 5,is_stm
    1275 00000014 D01E          MOVB      XAR0,#30              ; [CPU_] |219| 
    1276 00000015 9694          MOV       *+XAR4[AR0],AL        ; [CPU_] |219| 
    1277              $C$DW$89        .dwtag  DW_TAG_TI_branch
    1278                      .dwattr $C$DW$89, DW_AT_low_pc(0x00)
    1279                      .dwattr $C$DW$89, DW_AT_TI_return
    1280              
    1281 00000016 0006          LRETR     ; [CPU_] 
    1282                      ; return occurs ; [] 
    1283                      .dwattr $C$DW$84, DW_AT_TI_end_file("C:/Users/wmj/Desktop/BM1000_v1.1/sw/drivers/drvic/modbus/mb.c")
    1284                      .dwattr $C$DW$84, DW_AT_TI_end_line(0xdd)
    1285                      .dwattr $C$DW$84, DW_AT_TI_end_column(0x01)
    1286                      .dwendentry
    1287                      .dwendtag $C$DW$84
    1288              
    1289 00000017               .sect   ".text"
    1290                      .clink
    1291                      .global _MB_PortSerialEnable
    1292              
    1293              $C$DW$90        .dwtag  DW_TAG_subprogram
    1294                      .dwattr $C$DW$90, DW_AT_name("MB_PortSerialEnable")
    1295                      .dwattr $C$DW$90, DW_AT_low_pc(_MB_PortSerialEnable)
    1296                      .dwattr $C$DW$90, DW_AT_high_pc(0x00)
    1297                      .dwattr $C$DW$90, DW_AT_TI_symbol_name("_MB_PortSerialEnable")
    1298                      .dwattr $C$DW$90, DW_AT_external
    1299                      .dwattr $C$DW$90, DW_AT_TI_begin_file("C:/Users/wmj/Desktop/BM1000_v1.1/sw/drivers/drvic/modbus/mb.c"
    1300                      .dwattr $C$DW$90, DW_AT_TI_begin_line(0x9d)
    1301                      .dwattr $C$DW$90, DW_AT_TI_begin_column(0x06)
    1302                      .dwattr $C$DW$90, DW_AT_TI_max_frame_size(-6)
    1303                      .dwpsn  file "C:/Users/wmj/Desktop/BM1000_v1.1/sw/drivers/drvic/modbus/mb.c",line 158,column 1,is_stm
    1304              
    1305                      .dwfde $C$DW$CIE, _MB_PortSerialEnable
    1306              $C$DW$91        .dwtag  DW_TAG_formal_parameter
    1307                      .dwattr $C$DW$91, DW_AT_name("handle")
    1308                      .dwattr $C$DW$91, DW_AT_TI_symbol_name("_handle")
    1309                      .dwattr $C$DW$91, DW_AT_type(*$C$DW$T$178)
    1310                      .dwattr $C$DW$91, DW_AT_location[DW_OP_reg12]
    1311              
    1312              $C$DW$92        .dwtag  DW_TAG_formal_parameter
    1313                      .dwattr $C$DW$92, DW_AT_name("xRxEnable")
    1314                      .dwattr $C$DW$92, DW_AT_TI_symbol_name("_xRxEnable")
    1315                      .dwattr $C$DW$92, DW_AT_type(*$C$DW$T$59)
    1316                      .dwattr $C$DW$92, DW_AT_location[DW_OP_reg0]
    1317              
    1318              $C$DW$93        .dwtag  DW_TAG_formal_parameter
    1319                      .dwattr $C$DW$93, DW_AT_name("xTxEnable")
TMS320C2000 Assembler PC v15.12.3 Wed Nov 22 01:55:15 2017

Tools Copyright (c) 1996-2015 Texas Instruments Incorporated
C:\Users\wmj\AppData\Local\Temp\1239610                              PAGE   25

    1320                      .dwattr $C$DW$93, DW_AT_TI_symbol_name("_xTxEnable")
    1321                      .dwattr $C$DW$93, DW_AT_type(*$C$DW$T$59)
    1322                      .dwattr $C$DW$93, DW_AT_location[DW_OP_reg1]
    1323              
    1324              
    1325              ;***************************************************************
    1326              ;* FNAME: _MB_PortSerialEnable          FR SIZE:   4           *
    1327              ;*                                                             *
    1328              ;* FUNCTION ENVIRONMENT                                        *
    1329              ;*                                                             *
    1330              ;* FUNCTION PROPERTIES                                         *
    1331              ;*                            0 Parameter,  0 Auto,  4 SOE     *
    1332              ;***************************************************************
    1333              
    1334              _MB_PortSerialEnable:
    1335              ;* AR1   assigned to _xTxEnable
    1336              $C$DW$94        .dwtag  DW_TAG_variable
    1337                      .dwattr $C$DW$94, DW_AT_name("xTxEnable")
    1338                      .dwattr $C$DW$94, DW_AT_TI_symbol_name("_xTxEnable")
    1339                      .dwattr $C$DW$94, DW_AT_type(*$C$DW$T$309)
    1340                      .dwattr $C$DW$94, DW_AT_location[DW_OP_reg6]
    1341              
    1342              ;* AL    assigned to _xRxEnable
    1343              $C$DW$95        .dwtag  DW_TAG_variable
    1344                      .dwattr $C$DW$95, DW_AT_name("xRxEnable")
    1345                      .dwattr $C$DW$95, DW_AT_TI_symbol_name("_xRxEnable")
    1346                      .dwattr $C$DW$95, DW_AT_type(*$C$DW$T$309)
    1347                      .dwattr $C$DW$95, DW_AT_location[DW_OP_reg0]
    1348              
    1349              ;* AR2   assigned to _handle
    1350              $C$DW$96        .dwtag  DW_TAG_variable
    1351                      .dwattr $C$DW$96, DW_AT_name("handle")
    1352                      .dwattr $C$DW$96, DW_AT_TI_symbol_name("_handle")
    1353                      .dwattr $C$DW$96, DW_AT_type(*$C$DW$T$200)
    1354                      .dwattr $C$DW$96, DW_AT_location[DW_OP_reg8]
    1355              
    1356                      .dwcfi  cfa_offset, -2
    1357                      .dwcfi  save_reg_to_mem, 26, 0
    1358 00000017 B2BD          MOVL      *SP++,XAR1            ; [CPU_] 
    1359                      .dwcfi  save_reg_to_mem, 7, 2
    1360                      .dwcfi  cfa_offset, -4
    1361                      .dwpsn  file "C:/Users/wmj/Desktop/BM1000_v1.1/sw/drivers/drvic/modbus/mb.c",line 161,column 3,is_stm
    1362 00000018 5201          CMPB      AL,#1                 ; [CPU_] |161| 
    1363                      .dwpsn  file "C:/Users/wmj/Desktop/BM1000_v1.1/sw/drivers/drvic/modbus/mb.c",line 158,column 1,is_stm
    1364 00000019 59A8          MOVZ      AR1,AH                ; [CPU_] |158| 
    1365 0000001a AABD          MOVL      *SP++,XAR2            ; [CPU_] 
    1366                      .dwcfi  save_reg_to_mem, 9, 4
    1367                      .dwcfi  cfa_offset, -6
    1368 0000001b 86A4          MOVL      XAR2,XAR4             ; [CPU_] |158| 
    1369                      .dwpsn  file "C:/Users/wmj/Desktop/BM1000_v1.1/sw/drivers/drvic/modbus/mb.c",line 161,column 3,is_stm
    1370 0000001c 610A          B         $C$L2,EQ              ; [CPU_] |161| 
    1371                      ; branchcc occurs ; [] |161| 
    1372                      .dwpsn  file "C:/Users/wmj/Desktop/BM1000_v1.1/sw/drivers/drvic/modbus/mb.c",line 168,column 3,is_stm
    1373 0000001d D008          MOVB      XAR0,#8               ; [CPU_] |168| 
    1374 0000001e 8A92          MOVL      XAR4,*+XAR2[AR0]      ; [CPU_] |168| 
TMS320C2000 Assembler PC v15.12.3 Wed Nov 22 01:55:15 2017

Tools Copyright (c) 1996-2015 Texas Instruments Incorporated
C:\Users\wmj\AppData\Local\Temp\1239610                              PAGE   26

    1375              $C$DW$97        .dwtag  DW_TAG_TI_branch
    1376                      .dwattr $C$DW$97, DW_AT_low_pc(0x00)
    1377                      .dwattr $C$DW$97, DW_AT_name("_SCI_disableRx")
    1378                      .dwattr $C$DW$97, DW_AT_TI_call
    1379              
    1380 0000001f 7640!         LCR       #_SCI_disableRx       ; [CPU_] |168| 
         00000020 0000 
    1381                      ; call occurs [#_SCI_disableRx] ; [] |168| 
    1382                      .dwpsn  file "C:/Users/wmj/Desktop/BM1000_v1.1/sw/drivers/drvic/modbus/mb.c",line 169,column 6,is_stm
    1383 00000021 9A0C          MOVB      AL,#12                ; [CPU_] |169| 
    1384 00000022 8AE2          MOVL      XAR4,*+XAR2[4]        ; [CPU_] |169| 
    1385              $C$DW$98        .dwtag  DW_TAG_TI_branch
    1386                      .dwattr $C$DW$98, DW_AT_low_pc(0x00)
    1387                      .dwattr $C$DW$98, DW_AT_name("_GPIO_setHigh")
    1388                      .dwattr $C$DW$98, DW_AT_TI_call
    1389              
    1390 00000023 7640!         LCR       #_GPIO_setHigh        ; [CPU_] |169| 
         00000024 0000 
    1391                      ; call occurs [#_GPIO_setHigh] ; [] |169| 
    1392 00000025 6F09          B         $C$L3,UNC             ; [CPU_] |169| 
    1393                      ; branch occurs ; [] |169| 
    1394 00000026       $C$L2:    
    1395                      .dwpsn  file "C:/Users/wmj/Desktop/BM1000_v1.1/sw/drivers/drvic/modbus/mb.c",line 163,column 3,is_stm
    1396 00000026 D008          MOVB      XAR0,#8               ; [CPU_] |163| 
    1397 00000027 8A92          MOVL      XAR4,*+XAR2[AR0]      ; [CPU_] |163| 
    1398              $C$DW$99        .dwtag  DW_TAG_TI_branch
    1399                      .dwattr $C$DW$99, DW_AT_low_pc(0x00)
    1400                      .dwattr $C$DW$99, DW_AT_name("_SCI_enableRx")
    1401                      .dwattr $C$DW$99, DW_AT_TI_call
    1402              
    1403 00000028 7640!         LCR       #_SCI_enableRx        ; [CPU_] |163| 
         00000029 0000 
    1404                      ; call occurs [#_SCI_enableRx] ; [] |163| 
    1405                      .dwpsn  file "C:/Users/wmj/Desktop/BM1000_v1.1/sw/drivers/drvic/modbus/mb.c",line 164,column 6,is_stm
    1406 0000002a 9A0C          MOVB      AL,#12                ; [CPU_] |164| 
    1407 0000002b 8AE2          MOVL      XAR4,*+XAR2[4]        ; [CPU_] |164| 
    1408              $C$DW$100       .dwtag  DW_TAG_TI_branch
    1409                      .dwattr $C$DW$100, DW_AT_low_pc(0x00)
    1410                      .dwattr $C$DW$100, DW_AT_name("_GPIO_setLow")
    1411                      .dwattr $C$DW$100, DW_AT_TI_call
    1412              
    1413 0000002c 7640!         LCR       #_GPIO_setLow         ; [CPU_] |164| 
         0000002d 0000 
    1414                      ; call occurs [#_GPIO_setLow] ; [] |164| 
    1415 0000002e       $C$L3:    
    1416 0000002e 92A1          MOV       AL,AR1                ; [CPU_] 
    1417                      .dwpsn  file "C:/Users/wmj/Desktop/BM1000_v1.1/sw/drivers/drvic/modbus/mb.c",line 172,column 3,is_stm
    1418 0000002f 5201          CMPB      AL,#1                 ; [CPU_] |172| 
    1419 00000030 610A          B         $C$L4,EQ              ; [CPU_] |172| 
    1420                      ; branchcc occurs ; [] |172| 
    1421                      .dwpsn  file "C:/Users/wmj/Desktop/BM1000_v1.1/sw/drivers/drvic/modbus/mb.c",line 179,column 2,is_stm
    1422 00000031 D008          MOVB      XAR0,#8               ; [CPU_] |179| 
    1423 00000032 8A92          MOVL      XAR4,*+XAR2[AR0]      ; [CPU_] |179| 
    1424              $C$DW$101       .dwtag  DW_TAG_TI_branch
    1425                      .dwattr $C$DW$101, DW_AT_low_pc(0x00)
TMS320C2000 Assembler PC v15.12.3 Wed Nov 22 01:55:15 2017

Tools Copyright (c) 1996-2015 Texas Instruments Incorporated
C:\Users\wmj\AppData\Local\Temp\1239610                              PAGE   27

    1426                      .dwattr $C$DW$101, DW_AT_name("_SCI_disableTx")
    1427                      .dwattr $C$DW$101, DW_AT_TI_call
    1428              
    1429 00000033 7640!         LCR       #_SCI_disableTx       ; [CPU_] |179| 
         00000034 0000 
    1430                      ; call occurs [#_SCI_disableTx] ; [] |179| 
    1431                      .dwpsn  file "C:/Users/wmj/Desktop/BM1000_v1.1/sw/drivers/drvic/modbus/mb.c",line 180,column 5,is_stm
    1432 00000035 9A22          MOVB      AL,#34                ; [CPU_] |180| 
    1433 00000036 8AE2          MOVL      XAR4,*+XAR2[4]        ; [CPU_] |180| 
    1434              $C$DW$102       .dwtag  DW_TAG_TI_branch
    1435                      .dwattr $C$DW$102, DW_AT_low_pc(0x00)
    1436                      .dwattr $C$DW$102, DW_AT_name("_GPIO_setLow")
    1437                      .dwattr $C$DW$102, DW_AT_TI_call
    1438              
    1439 00000037 7640!         LCR       #_GPIO_setLow         ; [CPU_] |180| 
         00000038 0000 
    1440                      ; call occurs [#_GPIO_setLow] ; [] |180| 
    1441 00000039 6F09          B         $C$L5,UNC             ; [CPU_] |180| 
    1442                      ; branch occurs ; [] |180| 
    1443 0000003a       $C$L4:    
    1444                      .dwpsn  file "C:/Users/wmj/Desktop/BM1000_v1.1/sw/drivers/drvic/modbus/mb.c",line 174,column 2,is_stm
    1445 0000003a D008          MOVB      XAR0,#8               ; [CPU_] |174| 
    1446 0000003b 8A92          MOVL      XAR4,*+XAR2[AR0]      ; [CPU_] |174| 
    1447              $C$DW$103       .dwtag  DW_TAG_TI_branch
    1448                      .dwattr $C$DW$103, DW_AT_low_pc(0x00)
    1449                      .dwattr $C$DW$103, DW_AT_name("_SCI_enableTx")
    1450                      .dwattr $C$DW$103, DW_AT_TI_call
    1451              
    1452 0000003c 7640!         LCR       #_SCI_enableTx        ; [CPU_] |174| 
         0000003d 0000 
    1453                      ; call occurs [#_SCI_enableTx] ; [] |174| 
    1454                      .dwpsn  file "C:/Users/wmj/Desktop/BM1000_v1.1/sw/drivers/drvic/modbus/mb.c",line 175,column 2,is_stm
    1455 0000003e 9A22          MOVB      AL,#34                ; [CPU_] |175| 
    1456 0000003f 8AE2          MOVL      XAR4,*+XAR2[4]        ; [CPU_] |175| 
    1457              $C$DW$104       .dwtag  DW_TAG_TI_branch
    1458                      .dwattr $C$DW$104, DW_AT_low_pc(0x00)
    1459                      .dwattr $C$DW$104, DW_AT_name("_GPIO_setHigh")
    1460                      .dwattr $C$DW$104, DW_AT_TI_call
    1461              
    1462 00000040 7640!         LCR       #_GPIO_setHigh        ; [CPU_] |175| 
         00000041 0000 
    1463                      ; call occurs [#_GPIO_setHigh] ; [] |175| 
    1464 00000042       $C$L5:    
    1465 00000042 86BE          MOVL      XAR2,*--SP            ; [CPU_] 
    1466                      .dwcfi  cfa_offset, -4
    1467                      .dwcfi  restore_reg, 9
    1468 00000043 8BBE          MOVL      XAR1,*--SP            ; [CPU_] 
    1469                      .dwcfi  cfa_offset, -2
    1470                      .dwcfi  restore_reg, 7
    1471              $C$DW$105       .dwtag  DW_TAG_TI_branch
    1472                      .dwattr $C$DW$105, DW_AT_low_pc(0x00)
    1473                      .dwattr $C$DW$105, DW_AT_TI_return
    1474              
    1475 00000044 0006          LRETR     ; [CPU_] 
    1476                      ; return occurs ; [] 
TMS320C2000 Assembler PC v15.12.3 Wed Nov 22 01:55:15 2017

Tools Copyright (c) 1996-2015 Texas Instruments Incorporated
C:\Users\wmj\AppData\Local\Temp\1239610                              PAGE   28

    1477                      .dwattr $C$DW$90, DW_AT_TI_end_file("C:/Users/wmj/Desktop/BM1000_v1.1/sw/drivers/drvic/modbus/mb.c")
    1478                      .dwattr $C$DW$90, DW_AT_TI_end_line(0xb7)
    1479                      .dwattr $C$DW$90, DW_AT_TI_end_column(0x01)
    1480                      .dwendentry
    1481                      .dwendtag $C$DW$90
    1482              
    1483 00000045               .sect   ".text"
    1484                      .clink
    1485                      .global _MB_PortSerialPutByte
    1486              
    1487              $C$DW$106       .dwtag  DW_TAG_subprogram
    1488                      .dwattr $C$DW$106, DW_AT_name("MB_PortSerialPutByte")
    1489                      .dwattr $C$DW$106, DW_AT_low_pc(_MB_PortSerialPutByte)
    1490                      .dwattr $C$DW$106, DW_AT_high_pc(0x00)
    1491                      .dwattr $C$DW$106, DW_AT_TI_symbol_name("_MB_PortSerialPutByte")
    1492                      .dwattr $C$DW$106, DW_AT_external
    1493                      .dwattr $C$DW$106, DW_AT_type(*$C$DW$T$59)
    1494                      .dwattr $C$DW$106, DW_AT_TI_begin_file("C:/Users/wmj/Desktop/BM1000_v1.1/sw/drivers/drvic/modbus/mb.c
    1495                      .dwattr $C$DW$106, DW_AT_TI_begin_line(0xba)
    1496                      .dwattr $C$DW$106, DW_AT_TI_begin_column(0x06)
    1497                      .dwattr $C$DW$106, DW_AT_TI_max_frame_size(-2)
    1498                      .dwpsn  file "C:/Users/wmj/Desktop/BM1000_v1.1/sw/drivers/drvic/modbus/mb.c",line 187,column 1,is_stm
    1499              
    1500                      .dwfde $C$DW$CIE, _MB_PortSerialPutByte
    1501              $C$DW$107       .dwtag  DW_TAG_formal_parameter
    1502                      .dwattr $C$DW$107, DW_AT_name("handle")
    1503                      .dwattr $C$DW$107, DW_AT_TI_symbol_name("_handle")
    1504                      .dwattr $C$DW$107, DW_AT_type(*$C$DW$T$178)
    1505                      .dwattr $C$DW$107, DW_AT_location[DW_OP_reg12]
    1506              
    1507              $C$DW$108       .dwtag  DW_TAG_formal_parameter
    1508                      .dwattr $C$DW$108, DW_AT_name("putByte")
    1509                      .dwattr $C$DW$108, DW_AT_TI_symbol_name("_putByte")
    1510                      .dwattr $C$DW$108, DW_AT_type(*$C$DW$T$276)
    1511                      .dwattr $C$DW$108, DW_AT_location[DW_OP_reg0]
    1512              
    1513              
    1514              ;***************************************************************
    1515              ;* FNAME: _MB_PortSerialPutByte         FR SIZE:   0           *
    1516              ;*                                                             *
    1517              ;* FUNCTION ENVIRONMENT                                        *
    1518              ;*                                                             *
    1519              ;* FUNCTION PROPERTIES                                         *
    1520              ;*                            0 Parameter,  0 Auto,  0 SOE     *
    1521              ;***************************************************************
    1522              
    1523              _MB_PortSerialPutByte:
    1524              ;* AR4   assigned to _handle
    1525              $C$DW$109       .dwtag  DW_TAG_variable
    1526                      .dwattr $C$DW$109, DW_AT_name("handle")
    1527                      .dwattr $C$DW$109, DW_AT_TI_symbol_name("_handle")
    1528                      .dwattr $C$DW$109, DW_AT_type(*$C$DW$T$200)
    1529                      .dwattr $C$DW$109, DW_AT_location[DW_OP_reg12]
    1530              
    1531              ;* AL    assigned to _putData_state
TMS320C2000 Assembler PC v15.12.3 Wed Nov 22 01:55:15 2017

Tools Copyright (c) 1996-2015 Texas Instruments Incorporated
C:\Users\wmj\AppData\Local\Temp\1239610                              PAGE   29

    1532              $C$DW$110       .dwtag  DW_TAG_variable
    1533                      .dwattr $C$DW$110, DW_AT_name("putData_state")
    1534                      .dwattr $C$DW$110, DW_AT_TI_symbol_name("_putData_state")
    1535                      .dwattr $C$DW$110, DW_AT_type(*$C$DW$T$21)
    1536                      .dwattr $C$DW$110, DW_AT_location[DW_OP_reg0]
    1537              
    1538                      .dwcfi  cfa_offset, -2
    1539                      .dwcfi  save_reg_to_mem, 26, 0
    1540                      .dwpsn  file "C:/Users/wmj/Desktop/BM1000_v1.1/sw/drivers/drvic/modbus/mb.c",line 191,column 5,is_stm
    1541 00000045 D008          MOVB      XAR0,#8               ; [CPU_] |191| 
    1542 00000046 8A94          MOVL      XAR4,*+XAR4[AR0]      ; [CPU_] |191| 
    1543              $C$DW$111       .dwtag  DW_TAG_TI_branch
    1544                      .dwattr $C$DW$111, DW_AT_low_pc(0x00)
    1545                      .dwattr $C$DW$111, DW_AT_name("_SCI_putDataNonBlocking")
    1546                      .dwattr $C$DW$111, DW_AT_TI_call
    1547              
    1548 00000047 7640!         LCR       #_SCI_putDataNonBlocking ; [CPU_] |191| 
         00000048 0000 
    1549                      ; call occurs [#_SCI_putDataNonBlocking] ; [] |191| 
    1550                      .dwpsn  file "C:/Users/wmj/Desktop/BM1000_v1.1/sw/drivers/drvic/modbus/mb.c",line 193,column 5,is_stm
    1551 00000049 9B00          MOVB      AH,#0                 ; [CPU_] |193| 
    1552 0000004a 5200          CMPB      AL,#0                 ; [CPU_] |193| 
    1553 0000004b 56B0          MOVB      AH,#1,NEQ             ; [CPU_] |193| 
         0000004c 01A8 
    1554 0000004d 92A8          MOV       AL,AH                 ; [CPU_] |193| 
    1555              $C$DW$112       .dwtag  DW_TAG_TI_branch
    1556                      .dwattr $C$DW$112, DW_AT_low_pc(0x00)
    1557                      .dwattr $C$DW$112, DW_AT_TI_return
    1558              
    1559 0000004e 0006          LRETR     ; [CPU_] 
    1560                      ; return occurs ; [] 
    1561                      .dwattr $C$DW$106, DW_AT_TI_end_file("C:/Users/wmj/Desktop/BM1000_v1.1/sw/drivers/drvic/modbus/mb.c")
    1562                      .dwattr $C$DW$106, DW_AT_TI_end_line(0xc2)
    1563                      .dwattr $C$DW$106, DW_AT_TI_end_column(0x01)
    1564                      .dwendentry
    1565                      .dwendtag $C$DW$106
    1566              
    1567 0000004f               .sect   ".text"
    1568                      .clink
    1569                      .global _MB_RTUTransmitFSM
    1570              
    1571              $C$DW$113       .dwtag  DW_TAG_subprogram
    1572                      .dwattr $C$DW$113, DW_AT_name("MB_RTUTransmitFSM")
    1573                      .dwattr $C$DW$113, DW_AT_low_pc(_MB_RTUTransmitFSM)
    1574                      .dwattr $C$DW$113, DW_AT_high_pc(0x00)
    1575                      .dwattr $C$DW$113, DW_AT_TI_symbol_name("_MB_RTUTransmitFSM")
    1576                      .dwattr $C$DW$113, DW_AT_external
    1577                      .dwattr $C$DW$113, DW_AT_TI_begin_file("C:/Users/wmj/Desktop/BM1000_v1.1/sw/drivers/drvic/modbus/mb.c
    1578                      .dwattr $C$DW$113, DW_AT_TI_begin_line(0x101)
    1579                      .dwattr $C$DW$113, DW_AT_TI_begin_column(0x06)
    1580                      .dwattr $C$DW$113, DW_AT_TI_max_frame_size(-4)
    1581                      .dwpsn  file "C:/Users/wmj/Desktop/BM1000_v1.1/sw/drivers/drvic/modbus/mb.c",line 258,column 1,is_stm
    1582              
    1583                      .dwfde $C$DW$CIE, _MB_RTUTransmitFSM
    1584              $C$DW$114       .dwtag  DW_TAG_formal_parameter
TMS320C2000 Assembler PC v15.12.3 Wed Nov 22 01:55:15 2017

Tools Copyright (c) 1996-2015 Texas Instruments Incorporated
C:\Users\wmj\AppData\Local\Temp\1239610                              PAGE   30

    1585                      .dwattr $C$DW$114, DW_AT_name("handle")
    1586                      .dwattr $C$DW$114, DW_AT_TI_symbol_name("_handle")
    1587                      .dwattr $C$DW$114, DW_AT_type(*$C$DW$T$178)
    1588                      .dwattr $C$DW$114, DW_AT_location[DW_OP_reg12]
    1589              
    1590              
    1591              ;***************************************************************
    1592              ;* FNAME: _MB_RTUTransmitFSM            FR SIZE:   2           *
    1593              ;*                                                             *
    1594              ;* FUNCTION ENVIRONMENT                                        *
    1595              ;*                                                             *
    1596              ;* FUNCTION PROPERTIES                                         *
    1597              ;*                            0 Parameter,  0 Auto,  2 SOE     *
    1598              ;***************************************************************
    1599              
    1600              _MB_RTUTransmitFSM:
    1601              ;* AR1   assigned to _handle
    1602              $C$DW$115       .dwtag  DW_TAG_variable
    1603                      .dwattr $C$DW$115, DW_AT_name("handle")
    1604                      .dwattr $C$DW$115, DW_AT_TI_symbol_name("_handle")
    1605                      .dwattr $C$DW$115, DW_AT_type(*$C$DW$T$200)
    1606                      .dwattr $C$DW$115, DW_AT_location[DW_OP_reg6]
    1607              
    1608                      .dwcfi  cfa_offset, -2
    1609                      .dwcfi  save_reg_to_mem, 26, 0
    1610 0000004f B2BD          MOVL      *SP++,XAR1            ; [CPU_] 
    1611                      .dwcfi  save_reg_to_mem, 7, 2
    1612                      .dwcfi  cfa_offset, -4
    1613 00000050 8BA4          MOVL      XAR1,XAR4             ; [CPU_] |258| 
    1614                      .dwpsn  file "C:/Users/wmj/Desktop/BM1000_v1.1/sw/drivers/drvic/modbus/mb.c",line 263,column 5,is_stm
    1615 00000051 D01B          MOVB      XAR0,#27              ; [CPU_] |263| 
    1616 00000052 9291          MOV       AL,*+XAR1[AR0]        ; [CPU_] |263| 
    1617 00000053 611D          B         $C$L7,EQ              ; [CPU_] |263| 
    1618                      ; branchcc occurs ; [] |263| 
    1619 00000054 5201          CMPB      AL,#1                 ; [CPU_] |263| 
    1620 00000055 601F          B         $C$L8,NEQ             ; [CPU_] |263| 
    1621                      ; branchcc occurs ; [] |263| 
    1622                      .dwpsn  file "C:/Users/wmj/Desktop/BM1000_v1.1/sw/drivers/drvic/modbus/mb.c",line 271,column 9,is_stm
    1623 00000056 D018          MOVB      XAR0,#24              ; [CPU_] |271| 
    1624 00000057 9291          MOV       AL,*+XAR1[AR0]        ; [CPU_] |271| 
    1625 00000058 600B          B         $C$L6,NEQ             ; [CPU_] |271| 
    1626                      ; branchcc occurs ; [] |271| 
    1627                      .dwpsn  file "C:/Users/wmj/Desktop/BM1000_v1.1/sw/drivers/drvic/modbus/mb.c",line 279,column 11,is_st
    1628 00000059 9A03          MOVB      AL,#3                 ; [CPU_] |279| 
    1629              $C$DW$116       .dwtag  DW_TAG_TI_branch
    1630                      .dwattr $C$DW$116, DW_AT_low_pc(0x00)
    1631                      .dwattr $C$DW$116, DW_AT_name("_MB_PortEventPost")
    1632                      .dwattr $C$DW$116, DW_AT_TI_call
    1633              
    1634 0000005a 7640'         LCR       #_MB_PortEventPost    ; [CPU_] |279| 
         0000005b 0011 
    1635                      ; call occurs [#_MB_PortEventPost] ; [] |279| 
    1636                      .dwpsn  file "C:/Users/wmj/Desktop/BM1000_v1.1/sw/drivers/drvic/modbus/mb.c",line 282,column 11,is_st
    1637 0000005c 9B00          MOVB      AH,#0                 ; [CPU_] |282| 
    1638 0000005d 9A01          MOVB      AL,#1                 ; [CPU_] |282| 
TMS320C2000 Assembler PC v15.12.3 Wed Nov 22 01:55:15 2017

Tools Copyright (c) 1996-2015 Texas Instruments Incorporated
C:\Users\wmj\AppData\Local\Temp\1239610                              PAGE   31

    1639              $C$DW$117       .dwtag  DW_TAG_TI_branch
    1640                      .dwattr $C$DW$117, DW_AT_low_pc(0x00)
    1641                      .dwattr $C$DW$117, DW_AT_name("_MB_PortSerialEnable")
    1642                      .dwattr $C$DW$117, DW_AT_TI_call
    1643              
    1644 0000005e 7640'         LCR       #_MB_PortSerialEnable ; [CPU_] |282| 
         0000005f 0017 
    1645                      ; call occurs [#_MB_PortSerialEnable] ; [] |282| 
    1646                      .dwpsn  file "C:/Users/wmj/Desktop/BM1000_v1.1/sw/drivers/drvic/modbus/mb.c",line 284,column 11,is_st
    1647 00000060 D01B          MOVB      XAR0,#27              ; [CPU_] |284| 
    1648 00000061 2B91          MOV       *+XAR1[AR0],#0        ; [CPU_] |284| 
    1649 00000062 6F12          B         $C$L8,UNC             ; [CPU_] |284| 
    1650                      ; branch occurs ; [] |284| 
    1651 00000063       $C$L6:    
    1652                      .dwpsn  file "C:/Users/wmj/Desktop/BM1000_v1.1/sw/drivers/drvic/modbus/mb.c",line 273,column 12,is_st
    1653 00000063 DC16          ADDB      XAR4,#22              ; [CPU_] |273| 
    1654 00000064 0201          MOVB      ACC,#1                ; [CPU_] |273| 
    1655                      .dwpsn  file "C:/Users/wmj/Desktop/BM1000_v1.1/sw/drivers/drvic/modbus/mb.c",line 274,column 12,is_st
    1656 00000065 D016          MOVB      XAR0,#22              ; [CPU_] |274| 
    1657                      .dwpsn  file "C:/Users/wmj/Desktop/BM1000_v1.1/sw/drivers/drvic/modbus/mb.c",line 273,column 12,is_st
    1658 00000066 5601          ADDL      *+XAR4[0],ACC         ; [CPU_] |273| 
         00000067 00C4 
    1659                      .dwpsn  file "C:/Users/wmj/Desktop/BM1000_v1.1/sw/drivers/drvic/modbus/mb.c",line 274,column 12,is_st
    1660 00000068 8A91          MOVL      XAR4,*+XAR1[AR0]      ; [CPU_] |274| 
    1661 00000069 92C4          MOV       AL,*+XAR4[0]          ; [CPU_] |274| 
    1662 0000006a 8AA1          MOVL      XAR4,XAR1             ; [CPU_] |274| 
    1663              $C$DW$118       .dwtag  DW_TAG_TI_branch
    1664                      .dwattr $C$DW$118, DW_AT_low_pc(0x00)
    1665                      .dwattr $C$DW$118, DW_AT_name("_MB_PortSerialPutByte")
    1666                      .dwattr $C$DW$118, DW_AT_TI_call
    1667              
    1668 0000006b 7640'         LCR       #_MB_PortSerialPutByte ; [CPU_] |274| 
         0000006c 0045 
    1669                      ; call occurs [#_MB_PortSerialPutByte] ; [] |274| 
    1670                      .dwpsn  file "C:/Users/wmj/Desktop/BM1000_v1.1/sw/drivers/drvic/modbus/mb.c",line 275,column 12,is_st
    1671 0000006d D918          ADDB      XAR1,#24              ; [CPU_] |275| 
    1672 0000006e 0BC1          DEC       *+XAR1[0]             ; [CPU_] |275| 
    1673                      .dwpsn  file "C:/Users/wmj/Desktop/BM1000_v1.1/sw/drivers/drvic/modbus/mb.c",line 276,column 10,is_st
    1674 0000006f 6F05          B         $C$L8,UNC             ; [CPU_] |276| 
    1675                      ; branch occurs ; [] |276| 
    1676 00000070       $C$L7:    
    1677                      .dwpsn  file "C:/Users/wmj/Desktop/BM1000_v1.1/sw/drivers/drvic/modbus/mb.c",line 267,column 9,is_stm
    1678 00000070 9A01          MOVB      AL,#1                 ; [CPU_] |267| 
    1679 00000071 9B00          MOVB      AH,#0                 ; [CPU_] |267| 
    1680              $C$DW$119       .dwtag  DW_TAG_TI_branch
    1681                      .dwattr $C$DW$119, DW_AT_low_pc(0x00)
    1682                      .dwattr $C$DW$119, DW_AT_name("_MB_PortSerialEnable")
    1683                      .dwattr $C$DW$119, DW_AT_TI_call
    1684              
    1685 00000072 7640'         LCR       #_MB_PortSerialEnable ; [CPU_] |267| 
         00000073 0017 
    1686                      ; call occurs [#_MB_PortSerialEnable] ; [] |267| 
    1687 00000074       $C$L8:    
    1688 00000074 8BBE          MOVL      XAR1,*--SP            ; [CPU_] 
    1689                      .dwcfi  cfa_offset, -2
TMS320C2000 Assembler PC v15.12.3 Wed Nov 22 01:55:15 2017

Tools Copyright (c) 1996-2015 Texas Instruments Incorporated
C:\Users\wmj\AppData\Local\Temp\1239610                              PAGE   32

    1690                      .dwcfi  restore_reg, 7
    1691              $C$DW$120       .dwtag  DW_TAG_TI_branch
    1692                      .dwattr $C$DW$120, DW_AT_low_pc(0x00)
    1693                      .dwattr $C$DW$120, DW_AT_TI_return
    1694              
    1695 00000075 0006          LRETR     ; [CPU_] 
    1696                      ; return occurs ; [] 
    1697                      .dwattr $C$DW$113, DW_AT_TI_end_file("C:/Users/wmj/Desktop/BM1000_v1.1/sw/drivers/drvic/modbus/mb.c")
    1698                      .dwattr $C$DW$113, DW_AT_TI_end_line(0x122)
    1699                      .dwattr $C$DW$113, DW_AT_TI_end_column(0x01)
    1700                      .dwendentry
    1701                      .dwendtag $C$DW$113
    1702              
    1703 00000076               .sect   ".text"
    1704                      .clink
    1705                      .global _MB_PortTimersDisable
    1706              
    1707              $C$DW$121       .dwtag  DW_TAG_subprogram
    1708                      .dwattr $C$DW$121, DW_AT_name("MB_PortTimersDisable")
    1709                      .dwattr $C$DW$121, DW_AT_low_pc(_MB_PortTimersDisable)
    1710                      .dwattr $C$DW$121, DW_AT_high_pc(0x00)
    1711                      .dwattr $C$DW$121, DW_AT_TI_symbol_name("_MB_PortTimersDisable")
    1712                      .dwattr $C$DW$121, DW_AT_external
    1713                      .dwattr $C$DW$121, DW_AT_TI_begin_file("C:/Users/wmj/Desktop/BM1000_v1.1/sw/drivers/drvic/modbus/mb.c
    1714                      .dwattr $C$DW$121, DW_AT_TI_begin_line(0x93)
    1715                      .dwattr $C$DW$121, DW_AT_TI_begin_column(0x06)
    1716                      .dwattr $C$DW$121, DW_AT_TI_max_frame_size(-2)
    1717                      .dwpsn  file "C:/Users/wmj/Desktop/BM1000_v1.1/sw/drivers/drvic/modbus/mb.c",line 148,column 1,is_stm
    1718              
    1719                      .dwfde $C$DW$CIE, _MB_PortTimersDisable
    1720              $C$DW$122       .dwtag  DW_TAG_formal_parameter
    1721                      .dwattr $C$DW$122, DW_AT_name("handle")
    1722                      .dwattr $C$DW$122, DW_AT_TI_symbol_name("_handle")
    1723                      .dwattr $C$DW$122, DW_AT_type(*$C$DW$T$178)
    1724                      .dwattr $C$DW$122, DW_AT_location[DW_OP_reg12]
    1725              
    1726              
    1727              ;***************************************************************
    1728              ;* FNAME: _MB_PortTimersDisable         FR SIZE:   0           *
    1729              ;*                                                             *
    1730              ;* FUNCTION ENVIRONMENT                                        *
    1731              ;*                                                             *
    1732              ;* FUNCTION PROPERTIES                                         *
    1733              ;*                            0 Parameter,  0 Auto,  0 SOE     *
    1734              ;***************************************************************
    1735              
    1736              _MB_PortTimersDisable:
    1737              ;* AR4   assigned to _handle
    1738              $C$DW$123       .dwtag  DW_TAG_variable
    1739                      .dwattr $C$DW$123, DW_AT_name("handle")
    1740                      .dwattr $C$DW$123, DW_AT_TI_symbol_name("_handle")
    1741                      .dwattr $C$DW$123, DW_AT_type(*$C$DW$T$200)
    1742                      .dwattr $C$DW$123, DW_AT_location[DW_OP_reg12]
    1743              
    1744                      .dwcfi  cfa_offset, -2
TMS320C2000 Assembler PC v15.12.3 Wed Nov 22 01:55:15 2017

Tools Copyright (c) 1996-2015 Texas Instruments Incorporated
C:\Users\wmj\AppData\Local\Temp\1239610                              PAGE   33

    1745                      .dwcfi  save_reg_to_mem, 26, 0
    1746                      .dwpsn  file "C:/Users/wmj/Desktop/BM1000_v1.1/sw/drivers/timer/src/32b/f28x/f2802x/timer.h",line 276
    1747 00000076 8AF4          MOVL      XAR4,*+XAR4[6]        ; [CPU_] |276| 
    1748 00000077 1AE4          OR        *+XAR4[4],#0x0010     ; [CPU_] |276| 
         00000078 0010 
    1749              $C$DW$124       .dwtag  DW_TAG_TI_branch
    1750                      .dwattr $C$DW$124, DW_AT_low_pc(0x00)
    1751                      .dwattr $C$DW$124, DW_AT_TI_return
    1752              
    1753 00000079 0006          LRETR     ; [CPU_] 
    1754                      ; return occurs ; [] 
    1755                      .dwattr $C$DW$121, DW_AT_TI_end_file("C:/Users/wmj/Desktop/BM1000_v1.1/sw/drivers/drvic/modbus/mb.c")
    1756                      .dwattr $C$DW$121, DW_AT_TI_end_line(0x9a)
    1757                      .dwattr $C$DW$121, DW_AT_TI_end_column(0x01)
    1758                      .dwendentry
    1759                      .dwendtag $C$DW$121
    1760              
    1761 0000007a               .sect   ".text"
    1762                      .clink
    1763                      .global _MB_RTUTimerFSM
    1764              
    1765              $C$DW$125       .dwtag  DW_TAG_subprogram
    1766                      .dwattr $C$DW$125, DW_AT_name("MB_RTUTimerFSM")
    1767                      .dwattr $C$DW$125, DW_AT_low_pc(_MB_RTUTimerFSM)
    1768                      .dwattr $C$DW$125, DW_AT_high_pc(0x00)
    1769                      .dwattr $C$DW$125, DW_AT_TI_symbol_name("_MB_RTUTimerFSM")
    1770                      .dwattr $C$DW$125, DW_AT_external
    1771                      .dwattr $C$DW$125, DW_AT_TI_begin_file("C:/Users/wmj/Desktop/BM1000_v1.1/sw/drivers/drvic/modbus/mb.c
    1772                      .dwattr $C$DW$125, DW_AT_TI_begin_line(0xee)
    1773                      .dwattr $C$DW$125, DW_AT_TI_begin_column(0x06)
    1774                      .dwattr $C$DW$125, DW_AT_TI_max_frame_size(-2)
    1775                      .dwpsn  file "C:/Users/wmj/Desktop/BM1000_v1.1/sw/drivers/drvic/modbus/mb.c",line 239,column 1,is_stm
    1776              
    1777                      .dwfde $C$DW$CIE, _MB_RTUTimerFSM
    1778              $C$DW$126       .dwtag  DW_TAG_formal_parameter
    1779                      .dwattr $C$DW$126, DW_AT_name("handle")
    1780                      .dwattr $C$DW$126, DW_AT_TI_symbol_name("_handle")
    1781                      .dwattr $C$DW$126, DW_AT_type(*$C$DW$T$178)
    1782                      .dwattr $C$DW$126, DW_AT_location[DW_OP_reg12]
    1783              
    1784              
    1785              ;***************************************************************
    1786              ;* FNAME: _MB_RTUTimerFSM               FR SIZE:   0           *
    1787              ;*                                                             *
    1788              ;* FUNCTION ENVIRONMENT                                        *
    1789              ;*                                                             *
    1790              ;* FUNCTION PROPERTIES                                         *
    1791              ;*                            0 Parameter,  0 Auto,  0 SOE     *
    1792              ;***************************************************************
    1793              
    1794              _MB_RTUTimerFSM:
    1795              ;* AR5   assigned to _handle
    1796              $C$DW$127       .dwtag  DW_TAG_variable
    1797                      .dwattr $C$DW$127, DW_AT_name("handle")
    1798                      .dwattr $C$DW$127, DW_AT_TI_symbol_name("_handle")
TMS320C2000 Assembler PC v15.12.3 Wed Nov 22 01:55:15 2017

Tools Copyright (c) 1996-2015 Texas Instruments Incorporated
C:\Users\wmj\AppData\Local\Temp\1239610                              PAGE   34

    1799                      .dwattr $C$DW$127, DW_AT_type(*$C$DW$T$200)
    1800                      .dwattr $C$DW$127, DW_AT_location[DW_OP_reg14]
    1801              
    1802                      .dwcfi  cfa_offset, -2
    1803                      .dwcfi  save_reg_to_mem, 26, 0
    1804 0000007a 83A4          MOVL      XAR5,XAR4             ; [CPU_] |239| 
    1805                      .dwpsn  file "C:/Users/wmj/Desktop/BM1000_v1.1/sw/drivers/drvic/modbus/mb.c",line 242,column 5,is_stm
    1806 0000007b D01C          MOVB      XAR0,#28              ; [CPU_] |242| 
    1807 0000007c 9295          MOV       AL,*+XAR5[AR0]        ; [CPU_] |242| 
    1808 0000007d 6105          B         $C$L9,EQ              ; [CPU_] |242| 
    1809                      ; branchcc occurs ; [] |242| 
    1810 0000007e 5202          CMPB      AL,#2                 ; [CPU_] |242| 
    1811 0000007f 6006          B         $C$L11,NEQ            ; [CPU_] |242| 
    1812                      ; branchcc occurs ; [] |242| 
    1813                      .dwpsn  file "C:/Users/wmj/Desktop/BM1000_v1.1/sw/drivers/drvic/modbus/mb.c",line 246,column 25,is_st
    1814 00000080 9A01          MOVB      AL,#1                 ; [CPU_] |246| 
    1815                      .dwpsn  file "C:/Users/wmj/Desktop/BM1000_v1.1/sw/drivers/drvic/modbus/mb.c",line 246,column 70,is_st
    1816 00000081 6F02          B         $C$L10,UNC            ; [CPU_] |246| 
    1817                      ; branch occurs ; [] |246| 
    1818 00000082       $C$L9:    
    1819                      .dwpsn  file "C:/Users/wmj/Desktop/BM1000_v1.1/sw/drivers/drvic/modbus/mb.c",line 245,column 25,is_st
    1820 00000082 9A00          MOVB      AL,#0                 ; [CPU_] |245| 
    1821              $C$L10:    
    1822              $C$DW$128       .dwtag  DW_TAG_TI_branch
    1823                      .dwattr $C$DW$128, DW_AT_low_pc(0x00)
    1824                      .dwattr $C$DW$128, DW_AT_name("_MB_PortEventPost")
    1825                      .dwattr $C$DW$128, DW_AT_TI_call
    1826              
    1827 00000083 7640'         LCR       #_MB_PortEventPost    ; [CPU_] |245| 
         00000084 0011 
    1828                      ; call occurs [#_MB_PortEventPost] ; [] |245| 
    1829 00000085       $C$L11:    
    1830                      .dwpsn  file "C:/Users/wmj/Desktop/BM1000_v1.1/sw/drivers/drvic/modbus/mb.c",line 251,column 5,is_stm
    1831              $C$DW$129       .dwtag  DW_TAG_TI_branch
    1832                      .dwattr $C$DW$129, DW_AT_low_pc(0x00)
    1833                      .dwattr $C$DW$129, DW_AT_name("_MB_PortTimersDisable")
    1834                      .dwattr $C$DW$129, DW_AT_TI_call
    1835              
    1836 00000085 7640'         LCR       #_MB_PortTimersDisable ; [CPU_] |251| 
         00000086 0076 
    1837                      ; call occurs [#_MB_PortTimersDisable] ; [] |251| 
    1838                      .dwpsn  file "C:/Users/wmj/Desktop/BM1000_v1.1/sw/drivers/drvic/modbus/mb.c",line 252,column 5,is_stm
    1839 00000087 D01C          MOVB      XAR0,#28              ; [CPU_] |252| 
    1840 00000088 56BF          MOVB      *+XAR5[AR0],#1,UNC    ; [CPU_] |252| 
         00000089 0195 
    1841              $C$DW$130       .dwtag  DW_TAG_TI_branch
    1842                      .dwattr $C$DW$130, DW_AT_low_pc(0x00)
    1843                      .dwattr $C$DW$130, DW_AT_TI_return
    1844              
    1845 0000008a 0006          LRETR     ; [CPU_] 
    1846                      ; return occurs ; [] 
    1847                      .dwattr $C$DW$125, DW_AT_TI_end_file("C:/Users/wmj/Desktop/BM1000_v1.1/sw/drivers/drvic/modbus/mb.c")
    1848                      .dwattr $C$DW$125, DW_AT_TI_end_line(0xff)
    1849                      .dwattr $C$DW$125, DW_AT_TI_end_column(0x01)
    1850                      .dwendentry
TMS320C2000 Assembler PC v15.12.3 Wed Nov 22 01:55:15 2017

Tools Copyright (c) 1996-2015 Texas Instruments Incorporated
C:\Users\wmj\AppData\Local\Temp\1239610                              PAGE   35

    1851                      .dwendtag $C$DW$125
    1852              
    1853 0000008b               .sect   ".text"
    1854                      .clink
    1855                      .global _MB_CRC16
    1856              
    1857              $C$DW$131       .dwtag  DW_TAG_subprogram
    1858                      .dwattr $C$DW$131, DW_AT_name("MB_CRC16")
    1859                      .dwattr $C$DW$131, DW_AT_low_pc(_MB_CRC16)
    1860                      .dwattr $C$DW$131, DW_AT_high_pc(0x00)
    1861                      .dwattr $C$DW$131, DW_AT_TI_symbol_name("_MB_CRC16")
    1862                      .dwattr $C$DW$131, DW_AT_external
    1863                      .dwattr $C$DW$131, DW_AT_type(*$C$DW$T$21)
    1864                      .dwattr $C$DW$131, DW_AT_TI_begin_file("C:/Users/wmj/Desktop/BM1000_v1.1/sw/drivers/drvic/modbus/mb.c
    1865                      .dwattr $C$DW$131, DW_AT_TI_begin_line(0x3b)
    1866                      .dwattr $C$DW$131, DW_AT_TI_begin_column(0x0a)
    1867                      .dwattr $C$DW$131, DW_AT_TI_max_frame_size(-2)
    1868                      .dwpsn  file "C:/Users/wmj/Desktop/BM1000_v1.1/sw/drivers/drvic/modbus/mb.c",line 60,column 1,is_stmt
    1869              
    1870                      .dwfde $C$DW$CIE, _MB_CRC16
    1871              $C$DW$132       .dwtag  DW_TAG_formal_parameter
    1872                      .dwattr $C$DW$132, DW_AT_name("PDU_Frame")
    1873                      .dwattr $C$DW$132, DW_AT_TI_symbol_name("_PDU_Frame")
    1874                      .dwattr $C$DW$132, DW_AT_type(*$C$DW$T$250)
    1875                      .dwattr $C$DW$132, DW_AT_location[DW_OP_reg12]
    1876              
    1877              $C$DW$133       .dwtag  DW_TAG_formal_parameter
    1878                      .dwattr $C$DW$133, DW_AT_name("Length")
    1879                      .dwattr $C$DW$133, DW_AT_TI_symbol_name("_Length")
    1880                      .dwattr $C$DW$133, DW_AT_type(*$C$DW$T$21)
    1881                      .dwattr $C$DW$133, DW_AT_location[DW_OP_reg0]
    1882              
    1883              
    1884              ;***************************************************************
    1885              ;* FNAME: _MB_CRC16                     FR SIZE:   0           *
    1886              ;*                                                             *
    1887              ;* FUNCTION ENVIRONMENT                                        *
    1888              ;*                                                             *
    1889              ;* FUNCTION PROPERTIES                                         *
    1890              ;*                            0 Parameter,  0 Auto,  0 SOE     *
    1891              ;***************************************************************
    1892              
    1893              _MB_CRC16:
    1894              ;* AR7   assigned to _iIndex
    1895              $C$DW$134       .dwtag  DW_TAG_variable
    1896                      .dwattr $C$DW$134, DW_AT_name("iIndex")
    1897                      .dwattr $C$DW$134, DW_AT_TI_symbol_name("_iIndex")
    1898                      .dwattr $C$DW$134, DW_AT_type(*$C$DW$T$10)
    1899                      .dwattr $C$DW$134, DW_AT_location[DW_OP_reg18]
    1900              
    1901              ;* PH    assigned to _ucCRCLo
    1902              $C$DW$135       .dwtag  DW_TAG_variable
    1903                      .dwattr $C$DW$135, DW_AT_name("ucCRCLo")
    1904                      .dwattr $C$DW$135, DW_AT_TI_symbol_name("_ucCRCLo")
    1905                      .dwattr $C$DW$135, DW_AT_type(*$C$DW$T$6)
TMS320C2000 Assembler PC v15.12.3 Wed Nov 22 01:55:15 2017

Tools Copyright (c) 1996-2015 Texas Instruments Incorporated
C:\Users\wmj\AppData\Local\Temp\1239610                              PAGE   36

    1906                      .dwattr $C$DW$135, DW_AT_location[DW_OP_reg3]
    1907              
    1908              ;* PL    assigned to _ucCRCHi
    1909              $C$DW$136       .dwtag  DW_TAG_variable
    1910                      .dwattr $C$DW$136, DW_AT_name("ucCRCHi")
    1911                      .dwattr $C$DW$136, DW_AT_TI_symbol_name("_ucCRCHi")
    1912                      .dwattr $C$DW$136, DW_AT_type(*$C$DW$T$6)
    1913                      .dwattr $C$DW$136, DW_AT_location[DW_OP_reg2]
    1914              
    1915              ;* AL    assigned to _Length
    1916              $C$DW$137       .dwtag  DW_TAG_variable
    1917                      .dwattr $C$DW$137, DW_AT_name("Length")
    1918                      .dwattr $C$DW$137, DW_AT_TI_symbol_name("_Length")
    1919                      .dwattr $C$DW$137, DW_AT_type(*$C$DW$T$21)
    1920                      .dwattr $C$DW$137, DW_AT_location[DW_OP_reg0]
    1921              
    1922              ;* AR4   assigned to _PDU_Frame
    1923              $C$DW$138       .dwtag  DW_TAG_variable
    1924                      .dwattr $C$DW$138, DW_AT_name("PDU_Frame")
    1925                      .dwattr $C$DW$138, DW_AT_TI_symbol_name("_PDU_Frame")
    1926                      .dwattr $C$DW$138, DW_AT_type(*$C$DW$T$250)
    1927                      .dwattr $C$DW$138, DW_AT_location[DW_OP_reg12]
    1928              
    1929                      .dwcfi  cfa_offset, -2
    1930                      .dwcfi  save_reg_to_mem, 26, 0
    1931                      .dwpsn  file "C:/Users/wmj/Desktop/BM1000_v1.1/sw/drivers/drvic/modbus/mb.c",line 65,column 5,is_stmt
    1932 0000008b 5200          CMPB      AL,#0                 ; [CPU_] |65| 
    1933                      .dwpsn  file "C:/Users/wmj/Desktop/BM1000_v1.1/sw/drivers/drvic/modbus/mb.c",line 61,column 29,is_stm
    1934 0000008c 28AB          MOV       PL,#255               ; [CPU_] |61| 
         0000008d 00FF 
    1935                      .dwpsn  file "C:/Users/wmj/Desktop/BM1000_v1.1/sw/drivers/drvic/modbus/mb.c",line 62,column 29,is_stm
    1936 0000008e 28AA          MOV       PH,#255               ; [CPU_] |62| 
         0000008f 00FF 
    1937                      .dwpsn  file "C:/Users/wmj/Desktop/BM1000_v1.1/sw/drivers/drvic/modbus/mb.c",line 65,column 5,is_stmt
    1938 00000090 6117          B         $C$L13,EQ             ; [CPU_] |65| 
    1939                      ; branchcc occurs ; [] |65| 
    1940 00000091 88A9          MOVZ      AR6,AL                ; [CPU_] 
    1941 00000092 3B01          SETC      SXM                   ; [CPU_] 
    1942 00000093 DE81          SUBB      XAR6,#1               ; [CPU_U] 
    1943 00000094       $C$L12:    
    1944                      .dwpsn  file "C:/Users/wmj/Desktop/BM1000_v1.1/sw/drivers/drvic/modbus/mb.c",line 67,column 9,is_stmt
    1945 00000094 92AA          MOV       AL,PH                 ; [CPU_] |67| 
    1946 00000095 7084          XOR       AL,*XAR4++            ; [CPU_] |67| 
    1947 00000096 80A9          MOVZ      AR7,AL                ; [CPU_] |67| 
    1948                      .dwpsn  file "C:/Users/wmj/Desktop/BM1000_v1.1/sw/drivers/drvic/modbus/mb.c",line 68,column 9,is_stmt
    1949 00000097 8F40+         MOVL      XAR5,#_aucCRCHi       ; [CPU_U] |68| 
         00000098 0000 
    1950 00000099 A0A9          MOVL      ACC,XAR5              ; [CPU_] |68| 
    1951 0000009a 81A7          ADD       ACC,AR7               ; [CPU_] |68| 
    1952 0000009b 83A9          MOVL      XAR5,ACC              ; [CPU_] |68| 
    1953 0000009c 92AB          MOV       AL,PL                 ; [CPU_] |68| 
    1954 0000009d 70C5          XOR       AL,*+XAR5[0]          ; [CPU_] |68| 
    1955 0000009e 2FA9          MOV       PH,AL                 ; [CPU_] |68| 
    1956                      .dwpsn  file "C:/Users/wmj/Desktop/BM1000_v1.1/sw/drivers/drvic/modbus/mb.c",line 69,column 9,is_stmt
    1957 0000009f 8F40+         MOVL      XAR5,#_aucCRCLo       ; [CPU_U] |69| 
TMS320C2000 Assembler PC v15.12.3 Wed Nov 22 01:55:15 2017

Tools Copyright (c) 1996-2015 Texas Instruments Incorporated
C:\Users\wmj\AppData\Local\Temp\1239610                              PAGE   37

         000000a0 0000 
    1958 000000a1 A0A9          MOVL      ACC,XAR5              ; [CPU_] |69| 
    1959 000000a2 81A7          ADD       ACC,AR7               ; [CPU_] |69| 
    1960 000000a3 83A9          MOVL      XAR5,ACC              ; [CPU_] |69| 
    1961 000000a4 27C5          MOV       PL,*+XAR5[0]          ; [CPU_] |69| 
    1962                      .dwpsn  file "C:/Users/wmj/Desktop/BM1000_v1.1/sw/drivers/drvic/modbus/mb.c",line 65,column 5,is_stmt
    1963 000000a5 000E          BANZ      $C$L12,AR6--          ; [CPU_] |65| 
         000000a6 FFEF 
    1964                      ; branchcc occurs ; [] |65| 
    1965 000000a7       $C$L13:    
    1966                      .dwpsn  file "C:/Users/wmj/Desktop/BM1000_v1.1/sw/drivers/drvic/modbus/mb.c",line 71,column 5,is_stmt
    1967 000000a7 5603          MOV       ACC,PL << #8          ; [CPU_] |71| 
         000000a8 08AB 
    1968 000000a9 CAAA          OR        AL,PH                 ; [CPU_] |71| 
    1969              $C$DW$139       .dwtag  DW_TAG_TI_branch
    1970                      .dwattr $C$DW$139, DW_AT_low_pc(0x00)
    1971                      .dwattr $C$DW$139, DW_AT_TI_return
    1972              
    1973 000000aa 0006          LRETR     ; [CPU_] 
    1974                      ; return occurs ; [] 
    1975                      .dwattr $C$DW$131, DW_AT_TI_end_file("C:/Users/wmj/Desktop/BM1000_v1.1/sw/drivers/drvic/modbus/mb.c")
    1976                      .dwattr $C$DW$131, DW_AT_TI_end_line(0x48)
    1977                      .dwattr $C$DW$131, DW_AT_TI_end_column(0x01)
    1978                      .dwendentry
    1979                      .dwendtag $C$DW$131
    1980              
    1981 000000ab               .sect   ".text"
    1982                      .clink
    1983                      .global _MB_RTUSend
    1984              
    1985              $C$DW$140       .dwtag  DW_TAG_subprogram
    1986                      .dwattr $C$DW$140, DW_AT_name("MB_RTUSend")
    1987                      .dwattr $C$DW$140, DW_AT_low_pc(_MB_RTUSend)
    1988                      .dwattr $C$DW$140, DW_AT_high_pc(0x00)
    1989                      .dwattr $C$DW$140, DW_AT_TI_symbol_name("_MB_RTUSend")
    1990                      .dwattr $C$DW$140, DW_AT_external
    1991                      .dwattr $C$DW$140, DW_AT_type(*$C$DW$T$129)
    1992                      .dwattr $C$DW$140, DW_AT_TI_begin_file("C:/Users/wmj/Desktop/BM1000_v1.1/sw/drivers/drvic/modbus/mb.c
    1993                      .dwattr $C$DW$140, DW_AT_TI_begin_line(0x15e)
    1994                      .dwattr $C$DW$140, DW_AT_TI_begin_column(0x0e)
    1995                      .dwattr $C$DW$140, DW_AT_TI_max_frame_size(-4)
    1996                      .dwpsn  file "C:/Users/wmj/Desktop/BM1000_v1.1/sw/drivers/drvic/modbus/mb.c",line 351,column 1,is_stm
    1997              
    1998                      .dwfde $C$DW$CIE, _MB_RTUSend
    1999              $C$DW$141       .dwtag  DW_TAG_formal_parameter
    2000                      .dwattr $C$DW$141, DW_AT_name("handle")
    2001                      .dwattr $C$DW$141, DW_AT_TI_symbol_name("_handle")
    2002                      .dwattr $C$DW$141, DW_AT_type(*$C$DW$T$178)
    2003                      .dwattr $C$DW$141, DW_AT_location[DW_OP_reg12]
    2004              
    2005              
    2006              ;***************************************************************
    2007              ;* FNAME: _MB_RTUSend                   FR SIZE:   2           *
    2008              ;*                                                             *
    2009              ;* FUNCTION ENVIRONMENT                                        *
TMS320C2000 Assembler PC v15.12.3 Wed Nov 22 01:55:15 2017

Tools Copyright (c) 1996-2015 Texas Instruments Incorporated
C:\Users\wmj\AppData\Local\Temp\1239610                              PAGE   38

    2010              ;*                                                             *
    2011              ;* FUNCTION PROPERTIES                                         *
    2012              ;*                            0 Parameter,  0 Auto,  2 SOE     *
    2013              ;***************************************************************
    2014              
    2015              _MB_RTUSend:
    2016              ;* T     assigned to $O$C3
    2017              ;* AR6   assigned to _usCRC16
    2018              $C$DW$142       .dwtag  DW_TAG_variable
    2019                      .dwattr $C$DW$142, DW_AT_name("usCRC16")
    2020                      .dwattr $C$DW$142, DW_AT_TI_symbol_name("_usCRC16")
    2021                      .dwattr $C$DW$142, DW_AT_type(*$C$DW$T$127)
    2022                      .dwattr $C$DW$142, DW_AT_location[DW_OP_reg16]
    2023              
    2024              ;* AR1   assigned to _handle
    2025              $C$DW$143       .dwtag  DW_TAG_variable
    2026                      .dwattr $C$DW$143, DW_AT_name("handle")
    2027                      .dwattr $C$DW$143, DW_AT_TI_symbol_name("_handle")
    2028                      .dwattr $C$DW$143, DW_AT_type(*$C$DW$T$200)
    2029                      .dwattr $C$DW$143, DW_AT_location[DW_OP_reg6]
    2030              
    2031              ;* T     assigned to $O$T2
    2032              ;* AR7   assigned to $O$T1
    2033                      .dwcfi  cfa_offset, -2
    2034                      .dwcfi  save_reg_to_mem, 26, 0
    2035 000000ab B2BD          MOVL      *SP++,XAR1            ; [CPU_] 
    2036                      .dwcfi  save_reg_to_mem, 7, 2
    2037                      .dwcfi  cfa_offset, -4
    2038 000000ac 8BA4          MOVL      XAR1,XAR4             ; [CPU_] |351| 
    2039                      .dwpsn  file "C:/Users/wmj/Desktop/BM1000_v1.1/sw/drivers/drvic/modbus/mb.c",line 357,column 5,is_stm
    2040 000000ad D01C          MOVB      XAR0,#28              ; [CPU_] |357| 
    2041 000000ae 9291          MOV       AL,*+XAR1[AR0]        ; [CPU_] |357| 
    2042 000000af 5201          CMPB      AL,#1                 ; [CPU_] |357| 
    2043 000000b0 6103          B         $C$L14,EQ             ; [CPU_] |357| 
    2044                      ; branchcc occurs ; [] |357| 
    2045                      .dwpsn  file "C:/Users/wmj/Desktop/BM1000_v1.1/sw/drivers/drvic/modbus/mb.c",line 383,column 9,is_stm
    2046 000000b1 9A05          MOVB      AL,#5                 ; [CPU_] |383| 
    2047 000000b2 6F41          B         $C$L15,UNC            ; [CPU_] |383| 
    2048                      ; branch occurs ; [] |383| 
    2049 000000b3       $C$L14:    
    2050                      .dwpsn  file "C:/Users/wmj/Desktop/BM1000_v1.1/sw/drivers/drvic/modbus/mb.c",line 360,column 6,is_stm
    2051 000000b3 B2A9          MOVL      ACC,XAR1              ; [CPU_] |360| 
    2052 000000b4 D016          MOVB      XAR0,#22              ; [CPU_] |360| 
    2053                      .dwpsn  file "C:/Users/wmj/Desktop/BM1000_v1.1/sw/drivers/drvic/modbus/mb.c",line 363,column 6,is_stm
    2054 000000b5 C5A1          MOVL      XAR7,XAR1             ; [CPU_] |363| 
    2055                      .dwpsn  file "C:/Users/wmj/Desktop/BM1000_v1.1/sw/drivers/drvic/modbus/mb.c",line 367,column 6,is_stm
    2056 000000b6 DC18          ADDB      XAR4,#24              ; [CPU_] |367| 
    2057                      .dwpsn  file "C:/Users/wmj/Desktop/BM1000_v1.1/sw/drivers/drvic/modbus/mb.c",line 360,column 6,is_stm
    2058 000000b7 090C          ADDB      ACC,#12               ; [CPU_] |360| 
    2059 000000b8 1E91          MOVL      *+XAR1[AR0],ACC       ; [CPU_] |360| 
    2060                      .dwpsn  file "C:/Users/wmj/Desktop/BM1000_v1.1/sw/drivers/drvic/modbus/mb.c",line 363,column 6,is_stm
    2061 000000b9 D00C          MOVB      XAR0,#12              ; [CPU_] |363| 
    2062 000000ba DF19          ADDB      XAR7,#25              ; [CPU_] |363| 
    2063 000000bb 92C7          MOV       AL,*XAR7              ; [CPU_] |363| 
    2064 000000bc 9691          MOV       *+XAR1[AR0],AL        ; [CPU_] |363| 
TMS320C2000 Assembler PC v15.12.3 Wed Nov 22 01:55:15 2017

Tools Copyright (c) 1996-2015 Texas Instruments Incorporated
C:\Users\wmj\AppData\Local\Temp\1239610                              PAGE   39

    2065                      .dwpsn  file "C:/Users/wmj/Desktop/BM1000_v1.1/sw/drivers/drvic/modbus/mb.c",line 364,column 6,is_stm
    2066 000000bd D018          MOVB      XAR0,#24              ; [CPU_] |364| 
    2067 000000be 56BF          MOVB      *+XAR1[AR0],#1,UNC    ; [CPU_] |364| 
         000000bf 0191 
    2068                      .dwpsn  file "C:/Users/wmj/Desktop/BM1000_v1.1/sw/drivers/drvic/modbus/mb.c",line 367,column 6,is_stm
    2069 000000c0 0AC4          INC       *+XAR4[0]             ; [CPU_] |367| 
    2070                      .dwpsn  file "C:/Users/wmj/Desktop/BM1000_v1.1/sw/drivers/drvic/modbus/mb.c",line 368,column 6,is_stm
    2071 000000c1 8AA1          MOVL      XAR4,XAR1             ; [CPU_] |368| 
    2072                      .dwpsn  file "C:/Users/wmj/Desktop/BM1000_v1.1/sw/drivers/drvic/modbus/mb.c",line 371,column 9,is_stm
    2073 000000c2 D018          MOVB      XAR0,#24              ; [CPU_] |371| 
    2074                      .dwpsn  file "C:/Users/wmj/Desktop/BM1000_v1.1/sw/drivers/drvic/modbus/mb.c",line 368,column 6,is_stm
    2075 000000c3 DC18          ADDB      XAR4,#24              ; [CPU_] |368| 
    2076 000000c4 08C4          ADD       *+XAR4[0],#4          ; [CPU_] |368| 
         000000c5 0004 
    2077                      .dwpsn  file "C:/Users/wmj/Desktop/BM1000_v1.1/sw/drivers/drvic/modbus/mb.c",line 371,column 9,is_stm
    2078 000000c6 2D91          MOV       T,*+XAR1[AR0]         ; [CPU_] |371| 
    2079 000000c7 D016          MOVB      XAR0,#22              ; [CPU_] |371| 
    2080 000000c8 92AC          MOV       AL,T                  ; [CPU_] |371| 
    2081 000000c9 8A91          MOVL      XAR4,*+XAR1[AR0]      ; [CPU_] |371| 
    2082              $C$DW$144       .dwtag  DW_TAG_TI_branch
    2083                      .dwattr $C$DW$144, DW_AT_low_pc(0x00)
    2084                      .dwattr $C$DW$144, DW_AT_name("_MB_CRC16")
    2085                      .dwattr $C$DW$144, DW_AT_TI_call
    2086              
    2087 000000ca 7640'         LCR       #_MB_CRC16            ; [CPU_] |371| 
         000000cb 008B 
    2088                      ; call occurs [#_MB_CRC16] ; [] |371| 
    2089                      .dwpsn  file "C:/Users/wmj/Desktop/BM1000_v1.1/sw/drivers/drvic/modbus/mb.c",line 372,column 9,is_stm
    2090 000000cc D018          MOVB      XAR0,#24              ; [CPU_] |372| 
    2091 000000cd 9B01          MOVB      AH,#1                 ; [CPU_] |372| 
    2092                      .dwpsn  file "C:/Users/wmj/Desktop/BM1000_v1.1/sw/drivers/drvic/modbus/mb.c",line 371,column 9,is_stm
    2093 000000ce 88A9          MOVZ      AR6,AL                ; [CPU_] |371| 
    2094                      .dwpsn  file "C:/Users/wmj/Desktop/BM1000_v1.1/sw/drivers/drvic/modbus/mb.c",line 372,column 9,is_stm
    2095 000000cf 95AC          ADD       AH,T                  ; [CPU_] |372| 
    2096 000000d0 9791          MOV       *+XAR1[AR0],AH        ; [CPU_] |372| 
    2097 000000d1 B2A9          MOVL      ACC,XAR1              ; [CPU_] |372| 
    2098 000000d2 0DAC          ADDU      ACC,T                 ; [CPU_] |372| 
    2099 000000d3 8AA9          MOVL      XAR4,ACC              ; [CPU_] |372| 
    2100 000000d4 D00C          MOVB      XAR0,#12              ; [CPU_] |372| 
    2101 000000d5 CCA6          AND       AL,AR6,#0x00ff        ; [CPU_] |372| 
         000000d6 00FF 
    2102 000000d7 9694          MOV       *+XAR4[AR0],AL        ; [CPU_] |372| 
    2103                      .dwpsn  file "C:/Users/wmj/Desktop/BM1000_v1.1/sw/drivers/drvic/modbus/mb.c",line 373,column 9,is_stm
    2104 000000d8 D018          MOVB      XAR0,#24              ; [CPU_] |373| 
    2105 000000d9 8091          MOVZ      AR7,*+XAR1[AR0]       ; [CPU_] |373| 
    2106 000000da 9B01          MOVB      AH,#1                 ; [CPU_] |373| 
    2107 000000db D018          MOVB      XAR0,#24              ; [CPU_] |373| 
    2108 000000dc 95A7          ADD       AH,AR7                ; [CPU_] |373| 
    2109 000000dd 9791          MOV       *+XAR1[AR0],AH        ; [CPU_] |373| 
    2110 000000de B2A9          MOVL      ACC,XAR1              ; [CPU_] |373| 
    2111 000000df D00C          MOVB      XAR0,#12              ; [CPU_] |373| 
    2112 000000e0 0DA7          ADDU      ACC,AR7               ; [CPU_] |373| 
    2113 000000e1 8AA9          MOVL      XAR4,ACC              ; [CPU_] |373| 
    2114 000000e2 92A6          MOV       AL,AR6                ; [CPU_] |373| 
    2115                      .dwpsn  file "C:/Users/wmj/Desktop/BM1000_v1.1/sw/drivers/drvic/modbus/mb.c",line 377,column 9,is_stm
TMS320C2000 Assembler PC v15.12.3 Wed Nov 22 01:55:15 2017

Tools Copyright (c) 1996-2015 Texas Instruments Incorporated
C:\Users\wmj\AppData\Local\Temp\1239610                              PAGE   40

    2116 000000e3 9B01          MOVB      AH,#1                 ; [CPU_] |377| 
    2117                      .dwpsn  file "C:/Users/wmj/Desktop/BM1000_v1.1/sw/drivers/drvic/modbus/mb.c",line 373,column 9,is_stm
    2118 000000e4 FFC7          LSR       AL,8                  ; [CPU_] |373| 
    2119 000000e5 9694          MOV       *+XAR4[AR0],AL        ; [CPU_] |373| 
    2120                      .dwpsn  file "C:/Users/wmj/Desktop/BM1000_v1.1/sw/drivers/drvic/modbus/mb.c",line 376,column 9,is_stm
    2121 000000e6 D01B          MOVB      XAR0,#27              ; [CPU_] |376| 
    2122                      .dwpsn  file "C:/Users/wmj/Desktop/BM1000_v1.1/sw/drivers/drvic/modbus/mb.c",line 377,column 9,is_stm
    2123 000000e7 9A00          MOVB      AL,#0                 ; [CPU_] |377| 
    2124 000000e8 8AA1          MOVL      XAR4,XAR1             ; [CPU_] |377| 
    2125                      .dwpsn  file "C:/Users/wmj/Desktop/BM1000_v1.1/sw/drivers/drvic/modbus/mb.c",line 376,column 9,is_stm
    2126 000000e9 56BF          MOVB      *+XAR1[AR0],#1,UNC    ; [CPU_] |376| 
         000000ea 0191 
    2127                      .dwpsn  file "C:/Users/wmj/Desktop/BM1000_v1.1/sw/drivers/drvic/modbus/mb.c",line 377,column 9,is_stm
    2128              $C$DW$145       .dwtag  DW_TAG_TI_branch
    2129                      .dwattr $C$DW$145, DW_AT_low_pc(0x00)
    2130                      .dwattr $C$DW$145, DW_AT_name("_MB_PortSerialEnable")
    2131                      .dwattr $C$DW$145, DW_AT_TI_call
    2132              
    2133 000000eb 7640'         LCR       #_MB_PortSerialEnable ; [CPU_] |377| 
         000000ec 0017 
    2134                      ; call occurs [#_MB_PortSerialEnable] ; [] |377| 
    2135                      .dwpsn  file "C:/Users/wmj/Desktop/BM1000_v1.1/sw/drivers/drvic/modbus/mb.c",line 378,column 9,is_stm
    2136 000000ed D00C          MOVB      XAR0,#12              ; [CPU_] |378| 
    2137 000000ee 8AA1          MOVL      XAR4,XAR1             ; [CPU_] |378| 
    2138 000000ef 9291          MOV       AL,*+XAR1[AR0]        ; [CPU_] |378| 
    2139              $C$DW$146       .dwtag  DW_TAG_TI_branch
    2140                      .dwattr $C$DW$146, DW_AT_low_pc(0x00)
    2141                      .dwattr $C$DW$146, DW_AT_name("_MB_PortSerialPutByte")
    2142                      .dwattr $C$DW$146, DW_AT_TI_call
    2143              
    2144 000000f0 7640'         LCR       #_MB_PortSerialPutByte ; [CPU_] |378| 
         000000f1 0045 
    2145                      ; call occurs [#_MB_PortSerialPutByte] ; [] |378| 
    2146                      .dwpsn  file "C:/Users/wmj/Desktop/BM1000_v1.1/sw/drivers/drvic/modbus/mb.c",line 354,column 29,is_st
    2147 000000f2 9A00          MOVB      AL,#0                 ; [CPU_] |354| 
    2148 000000f3       $C$L15:    
    2149 000000f3 8BBE          MOVL      XAR1,*--SP            ; [CPU_] 
    2150                      .dwcfi  cfa_offset, -2
    2151                      .dwcfi  restore_reg, 7
    2152              $C$DW$147       .dwtag  DW_TAG_TI_branch
    2153                      .dwattr $C$DW$147, DW_AT_low_pc(0x00)
    2154                      .dwattr $C$DW$147, DW_AT_TI_return
    2155              
    2156 000000f4 0006          LRETR     ; [CPU_] 
    2157                      ; return occurs ; [] 
    2158                      .dwattr $C$DW$140, DW_AT_TI_end_file("C:/Users/wmj/Desktop/BM1000_v1.1/sw/drivers/drvic/modbus/mb.c")
    2159                      .dwattr $C$DW$140, DW_AT_TI_end_line(0x182)
    2160                      .dwattr $C$DW$140, DW_AT_TI_end_column(0x01)
    2161                      .dwendentry
    2162                      .dwendtag $C$DW$140
    2163              
    2164 000000f5               .sect   ".text"
    2165                      .clink
    2166                      .global _MB_PortSerialGetByte
    2167              
TMS320C2000 Assembler PC v15.12.3 Wed Nov 22 01:55:15 2017

Tools Copyright (c) 1996-2015 Texas Instruments Incorporated
C:\Users\wmj\AppData\Local\Temp\1239610                              PAGE   41

    2168              $C$DW$148       .dwtag  DW_TAG_subprogram
    2169                      .dwattr $C$DW$148, DW_AT_name("MB_PortSerialGetByte")
    2170                      .dwattr $C$DW$148, DW_AT_low_pc(_MB_PortSerialGetByte)
    2171                      .dwattr $C$DW$148, DW_AT_high_pc(0x00)
    2172                      .dwattr $C$DW$148, DW_AT_TI_symbol_name("_MB_PortSerialGetByte")
    2173                      .dwattr $C$DW$148, DW_AT_external
    2174                      .dwattr $C$DW$148, DW_AT_type(*$C$DW$T$59)
    2175                      .dwattr $C$DW$148, DW_AT_TI_begin_file("C:/Users/wmj/Desktop/BM1000_v1.1/sw/drivers/drvic/modbus/mb.c
    2176                      .dwattr $C$DW$148, DW_AT_TI_begin_line(0xc4)
    2177                      .dwattr $C$DW$148, DW_AT_TI_begin_column(0x06)
    2178                      .dwattr $C$DW$148, DW_AT_TI_max_frame_size(-6)
    2179                      .dwpsn  file "C:/Users/wmj/Desktop/BM1000_v1.1/sw/drivers/drvic/modbus/mb.c",line 197,column 1,is_stm
    2180              
    2181                      .dwfde $C$DW$CIE, _MB_PortSerialGetByte
    2182              $C$DW$149       .dwtag  DW_TAG_formal_parameter
    2183                      .dwattr $C$DW$149, DW_AT_name("handle")
    2184                      .dwattr $C$DW$149, DW_AT_TI_symbol_name("_handle")
    2185                      .dwattr $C$DW$149, DW_AT_type(*$C$DW$T$178)
    2186                      .dwattr $C$DW$149, DW_AT_location[DW_OP_reg12]
    2187              
    2188              $C$DW$150       .dwtag  DW_TAG_formal_parameter
    2189                      .dwattr $C$DW$150, DW_AT_name("getByte")
    2190                      .dwattr $C$DW$150, DW_AT_TI_symbol_name("_getByte")
    2191                      .dwattr $C$DW$150, DW_AT_type(*$C$DW$T$279)
    2192                      .dwattr $C$DW$150, DW_AT_location[DW_OP_reg14]
    2193              
    2194              
    2195              ;***************************************************************
    2196              ;* FNAME: _MB_PortSerialGetByte         FR SIZE:   4           *
    2197              ;*                                                             *
    2198              ;* FUNCTION ENVIRONMENT                                        *
    2199              ;*                                                             *
    2200              ;* FUNCTION PROPERTIES                                         *
    2201              ;*                            0 Parameter,  1 Auto,  2 SOE     *
    2202              ;***************************************************************
    2203              
    2204              _MB_PortSerialGetByte:
    2205              ;* AR4   assigned to _handle
    2206              $C$DW$151       .dwtag  DW_TAG_variable
    2207                      .dwattr $C$DW$151, DW_AT_name("handle")
    2208                      .dwattr $C$DW$151, DW_AT_TI_symbol_name("_handle")
    2209                      .dwattr $C$DW$151, DW_AT_type(*$C$DW$T$200)
    2210                      .dwattr $C$DW$151, DW_AT_location[DW_OP_reg12]
    2211              
    2212              ;* AR1   assigned to _getByte
    2213              $C$DW$152       .dwtag  DW_TAG_variable
    2214                      .dwattr $C$DW$152, DW_AT_name("getByte")
    2215                      .dwattr $C$DW$152, DW_AT_TI_symbol_name("_getByte")
    2216                      .dwattr $C$DW$152, DW_AT_type(*$C$DW$T$311)
    2217                      .dwattr $C$DW$152, DW_AT_location[DW_OP_reg6]
    2218              
    2219              $C$DW$153       .dwtag  DW_TAG_variable
    2220                      .dwattr $C$DW$153, DW_AT_name("getData_state")
    2221                      .dwattr $C$DW$153, DW_AT_TI_symbol_name("_getData_state")
    2222                      .dwattr $C$DW$153, DW_AT_type(*$C$DW$T$21)
TMS320C2000 Assembler PC v15.12.3 Wed Nov 22 01:55:15 2017

Tools Copyright (c) 1996-2015 Texas Instruments Incorporated
C:\Users\wmj\AppData\Local\Temp\1239610                              PAGE   42

    2223                      .dwattr $C$DW$153, DW_AT_location[DW_OP_breg20 -1]
    2224              
    2225                      .dwcfi  cfa_offset, -2
    2226                      .dwcfi  save_reg_to_mem, 26, 0
    2227 000000f5 B2BD          MOVL      *SP++,XAR1            ; [CPU_] 
    2228                      .dwcfi  save_reg_to_mem, 7, 2
    2229                      .dwcfi  cfa_offset, -4
    2230 000000f6 FE02          ADDB      SP,#2                 ; [CPU_U] 
    2231                      .dwcfi  cfa_offset, -6
    2232 000000f7 8BA5          MOVL      XAR1,XAR5             ; [CPU_] |197| 
    2233                      .dwpsn  file "C:/Users/wmj/Desktop/BM1000_v1.1/sw/drivers/drvic/modbus/mb.c",line 201,column 5,is_stm
    2234 000000f8 5DAD          MOVZ      AR5,SP                ; [CPU_] |201| 
    2235 000000f9 D008          MOVB      XAR0,#8               ; [CPU_] |201| 
    2236 000000fa 8A94          MOVL      XAR4,*+XAR4[AR0]      ; [CPU_] |201| 
    2237 000000fb DD81          SUBB      XAR5,#1               ; [CPU_U] |201| 
    2238 000000fc 5DA5          MOVZ      AR5,AR5               ; [CPU_] |201| 
    2239              $C$DW$154       .dwtag  DW_TAG_TI_branch
    2240                      .dwattr $C$DW$154, DW_AT_low_pc(0x00)
    2241                      .dwattr $C$DW$154, DW_AT_name("_SCI_getDataNonBlocking")
    2242                      .dwattr $C$DW$154, DW_AT_TI_call
    2243              
    2244 000000fd 7640!         LCR       #_SCI_getDataNonBlocking ; [CPU_] |201| 
         000000fe 0000 
    2245                      ; call occurs [#_SCI_getDataNonBlocking] ; [] |201| 
    2246 000000ff 96C1          MOV       *+XAR1[0],AL          ; [CPU_] |201| 
    2247                      .dwpsn  file "C:/Users/wmj/Desktop/BM1000_v1.1/sw/drivers/drvic/modbus/mb.c",line 203,column 5,is_stm
    2248 00000100 9A00          MOVB      AL,#0                 ; [CPU_] |203| 
    2249 00000101 9341          MOV       AH,*-SP[1]            ; [CPU_] |203| 
    2250 00000102 56B0          MOVB      AL,#1,NEQ             ; [CPU_] |203| 
         00000103 01A9 
    2251 00000104 FE82          SUBB      SP,#2                 ; [CPU_U] 
    2252                      .dwcfi  cfa_offset, -4
    2253 00000105 8BBE          MOVL      XAR1,*--SP            ; [CPU_] 
    2254                      .dwcfi  cfa_offset, -2
    2255                      .dwcfi  restore_reg, 7
    2256              $C$DW$155       .dwtag  DW_TAG_TI_branch
    2257                      .dwattr $C$DW$155, DW_AT_low_pc(0x00)
    2258                      .dwattr $C$DW$155, DW_AT_TI_return
    2259              
    2260 00000106 0006          LRETR     ; [CPU_] 
    2261                      ; return occurs ; [] 
    2262                      .dwattr $C$DW$148, DW_AT_TI_end_file("C:/Users/wmj/Desktop/BM1000_v1.1/sw/drivers/drvic/modbus/mb.c")
    2263                      .dwattr $C$DW$148, DW_AT_TI_end_line(0xcc)
    2264                      .dwattr $C$DW$148, DW_AT_TI_end_column(0x01)
    2265                      .dwendentry
    2266                      .dwendtag $C$DW$148
    2267              
    2268 00000107               .sect   ".text"
    2269                      .clink
    2270                      .global _MB_PortTimersEnable
    2271              
    2272              $C$DW$156       .dwtag  DW_TAG_subprogram
    2273                      .dwattr $C$DW$156, DW_AT_name("MB_PortTimersEnable")
    2274                      .dwattr $C$DW$156, DW_AT_low_pc(_MB_PortTimersEnable)
    2275                      .dwattr $C$DW$156, DW_AT_high_pc(0x00)
TMS320C2000 Assembler PC v15.12.3 Wed Nov 22 01:55:15 2017

Tools Copyright (c) 1996-2015 Texas Instruments Incorporated
C:\Users\wmj\AppData\Local\Temp\1239610                              PAGE   43

    2276                      .dwattr $C$DW$156, DW_AT_TI_symbol_name("_MB_PortTimersEnable")
    2277                      .dwattr $C$DW$156, DW_AT_external
    2278                      .dwattr $C$DW$156, DW_AT_TI_begin_file("C:/Users/wmj/Desktop/BM1000_v1.1/sw/drivers/drvic/modbus/mb.c
    2279                      .dwattr $C$DW$156, DW_AT_TI_begin_line(0x88)
    2280                      .dwattr $C$DW$156, DW_AT_TI_begin_column(0x06)
    2281                      .dwattr $C$DW$156, DW_AT_TI_max_frame_size(-4)
    2282                      .dwpsn  file "C:/Users/wmj/Desktop/BM1000_v1.1/sw/drivers/drvic/modbus/mb.c",line 137,column 1,is_stm
    2283              
    2284                      .dwfde $C$DW$CIE, _MB_PortTimersEnable
    2285              $C$DW$157       .dwtag  DW_TAG_formal_parameter
    2286                      .dwattr $C$DW$157, DW_AT_name("handle")
    2287                      .dwattr $C$DW$157, DW_AT_TI_symbol_name("_handle")
    2288                      .dwattr $C$DW$157, DW_AT_type(*$C$DW$T$178)
    2289                      .dwattr $C$DW$157, DW_AT_location[DW_OP_reg12]
    2290              
    2291              
    2292              ;***************************************************************
    2293              ;* FNAME: _MB_PortTimersEnable          FR SIZE:   2           *
    2294              ;*                                                             *
    2295              ;* FUNCTION ENVIRONMENT                                        *
    2296              ;*                                                             *
    2297              ;* FUNCTION PROPERTIES                                         *
    2298              ;*                            0 Parameter,  0 Auto,  2 SOE     *
    2299              ;***************************************************************
    2300              
    2301              _MB_PortTimersEnable:
    2302              ;* AR1   assigned to _handle
    2303              $C$DW$158       .dwtag  DW_TAG_variable
    2304                      .dwattr $C$DW$158, DW_AT_name("handle")
    2305                      .dwattr $C$DW$158, DW_AT_TI_symbol_name("_handle")
    2306                      .dwattr $C$DW$158, DW_AT_type(*$C$DW$T$200)
    2307                      .dwattr $C$DW$158, DW_AT_location[DW_OP_reg6]
    2308              
    2309                      .dwcfi  cfa_offset, -2
    2310                      .dwcfi  save_reg_to_mem, 26, 0
    2311 00000107 B2BD          MOVL      *SP++,XAR1            ; [CPU_] 
    2312                      .dwcfi  save_reg_to_mem, 7, 2
    2313                      .dwcfi  cfa_offset, -4
    2314 00000108 8BA4          MOVL      XAR1,XAR4             ; [CPU_] |137| 
    2315                      .dwpsn  file "C:/Users/wmj/Desktop/BM1000_v1.1/sw/drivers/drvic/modbus/mb.c",line 140,column 3,is_stm
    2316 00000109 8AF1          MOVL      XAR4,*+XAR1[6]        ; [CPU_] |140| 
    2317              $C$DW$159       .dwtag  DW_TAG_TI_branch
    2318                      .dwattr $C$DW$159, DW_AT_low_pc(0x00)
    2319                      .dwattr $C$DW$159, DW_AT_name("_TIMER_clearFlag")
    2320                      .dwattr $C$DW$159, DW_AT_TI_call
    2321              
    2322 0000010a 7640!         LCR       #_TIMER_clearFlag     ; [CPU_] |140| 
         0000010b 0000 
    2323                      ; call occurs [#_TIMER_clearFlag] ; [] |140| 
    2324                      .dwpsn  file "C:/Users/wmj/Desktop/BM1000_v1.1/sw/drivers/timer/src/32b/f28x/f2802x/timer.h",line 196
    2325 0000010c 8AF1          MOVL      XAR4,*+XAR1[6]        ; [CPU_] |196| 
    2326 0000010d 1AE4          OR        *+XAR4[4],#0x0020     ; [CPU_] |196| 
         0000010e 0020 
    2327                      .dwpsn  file "C:/Users/wmj/Desktop/BM1000_v1.1/sw/drivers/timer/src/32b/f28x/f2802x/timer.h",line 262
    2328 0000010f 8AF1          MOVL      XAR4,*+XAR1[6]        ; [CPU_] |262| 
TMS320C2000 Assembler PC v15.12.3 Wed Nov 22 01:55:15 2017

Tools Copyright (c) 1996-2015 Texas Instruments Incorporated
C:\Users\wmj\AppData\Local\Temp\1239610                              PAGE   44

    2329 00000110 18E4          AND       *+XAR4[4],#0xffef     ; [CPU_] |262| 
         00000111 FFEF 
    2330 00000112 8BBE          MOVL      XAR1,*--SP            ; [CPU_] 
    2331                      .dwcfi  cfa_offset, -2
    2332                      .dwcfi  restore_reg, 7
    2333              $C$DW$160       .dwtag  DW_TAG_TI_branch
    2334                      .dwattr $C$DW$160, DW_AT_low_pc(0x00)
    2335                      .dwattr $C$DW$160, DW_AT_TI_return
    2336              
    2337 00000113 0006          LRETR     ; [CPU_] 
    2338                      ; return occurs ; [] 
    2339                      .dwattr $C$DW$156, DW_AT_TI_end_file("C:/Users/wmj/Desktop/BM1000_v1.1/sw/drivers/drvic/modbus/mb.c")
    2340                      .dwattr $C$DW$156, DW_AT_TI_end_line(0x91)
    2341                      .dwattr $C$DW$156, DW_AT_TI_end_column(0x01)
    2342                      .dwendentry
    2343                      .dwendtag $C$DW$156
    2344              
    2345 00000114               .sect   ".text"
    2346                      .clink
    2347                      .global _MB_RTUReceiveFSM
    2348              
    2349              $C$DW$161       .dwtag  DW_TAG_subprogram
    2350                      .dwattr $C$DW$161, DW_AT_name("MB_RTUReceiveFSM")
    2351                      .dwattr $C$DW$161, DW_AT_low_pc(_MB_RTUReceiveFSM)
    2352                      .dwattr $C$DW$161, DW_AT_high_pc(0x00)
    2353                      .dwattr $C$DW$161, DW_AT_TI_symbol_name("_MB_RTUReceiveFSM")
    2354                      .dwattr $C$DW$161, DW_AT_external
    2355                      .dwattr $C$DW$161, DW_AT_TI_begin_file("C:/Users/wmj/Desktop/BM1000_v1.1/sw/drivers/drvic/modbus/mb.c
    2356                      .dwattr $C$DW$161, DW_AT_TI_begin_line(0x124)
    2357                      .dwattr $C$DW$161, DW_AT_TI_begin_column(0x06)
    2358                      .dwattr $C$DW$161, DW_AT_TI_max_frame_size(-6)
    2359                      .dwpsn  file "C:/Users/wmj/Desktop/BM1000_v1.1/sw/drivers/drvic/modbus/mb.c",line 293,column 1,is_stm
    2360              
    2361                      .dwfde $C$DW$CIE, _MB_RTUReceiveFSM
    2362              $C$DW$162       .dwtag  DW_TAG_formal_parameter
    2363                      .dwattr $C$DW$162, DW_AT_name("handle")
    2364                      .dwattr $C$DW$162, DW_AT_TI_symbol_name("_handle")
    2365                      .dwattr $C$DW$162, DW_AT_type(*$C$DW$T$178)
    2366                      .dwattr $C$DW$162, DW_AT_location[DW_OP_reg12]
    2367              
    2368              
    2369              ;***************************************************************
    2370              ;* FNAME: _MB_RTUReceiveFSM             FR SIZE:   4           *
    2371              ;*                                                             *
    2372              ;* FUNCTION ENVIRONMENT                                        *
    2373              ;*                                                             *
    2374              ;* FUNCTION PROPERTIES                                         *
    2375              ;*                            0 Parameter,  1 Auto,  2 SOE     *
    2376              ;***************************************************************
    2377              
    2378              _MB_RTUReceiveFSM:
    2379              $C$DW$163       .dwtag  DW_TAG_variable
    2380                      .dwattr $C$DW$163, DW_AT_name("ucByte")
    2381                      .dwattr $C$DW$163, DW_AT_TI_symbol_name("_ucByte")
    2382                      .dwattr $C$DW$163, DW_AT_type(*$C$DW$T$124)
TMS320C2000 Assembler PC v15.12.3 Wed Nov 22 01:55:15 2017

Tools Copyright (c) 1996-2015 Texas Instruments Incorporated
C:\Users\wmj\AppData\Local\Temp\1239610                              PAGE   45

    2383                      .dwattr $C$DW$163, DW_AT_location[DW_OP_breg20 -1]
    2384              
    2385              ;* AR1   assigned to _handle
    2386              $C$DW$164       .dwtag  DW_TAG_variable
    2387                      .dwattr $C$DW$164, DW_AT_name("handle")
    2388                      .dwattr $C$DW$164, DW_AT_TI_symbol_name("_handle")
    2389                      .dwattr $C$DW$164, DW_AT_type(*$C$DW$T$200)
    2390                      .dwattr $C$DW$164, DW_AT_location[DW_OP_reg6]
    2391              
    2392              ;* AR6   assigned to $O$U6
    2393                      .dwcfi  cfa_offset, -2
    2394                      .dwcfi  save_reg_to_mem, 26, 0
    2395 00000114 B2BD          MOVL      *SP++,XAR1            ; [CPU_] 
    2396                      .dwcfi  save_reg_to_mem, 7, 2
    2397                      .dwcfi  cfa_offset, -4
    2398 00000115 FE02          ADDB      SP,#2                 ; [CPU_U] 
    2399                      .dwcfi  cfa_offset, -6
    2400                      .dwpsn  file "C:/Users/wmj/Desktop/BM1000_v1.1/sw/drivers/drvic/modbus/mb.c",line 299,column 5,is_stm
    2401 00000116 5DAD          MOVZ      AR5,SP                ; [CPU_] |299| 
    2402                      .dwpsn  file "C:/Users/wmj/Desktop/BM1000_v1.1/sw/drivers/drvic/modbus/mb.c",line 293,column 1,is_stm
    2403 00000117 8BA4          MOVL      XAR1,XAR4             ; [CPU_] |293| 
    2404                      .dwpsn  file "C:/Users/wmj/Desktop/BM1000_v1.1/sw/drivers/drvic/modbus/mb.c",line 299,column 5,is_stm
    2405 00000118 DD81          SUBB      XAR5,#1               ; [CPU_U] |299| 
    2406 00000119 5DA5          MOVZ      AR5,AR5               ; [CPU_] |299| 
    2407              $C$DW$165       .dwtag  DW_TAG_TI_branch
    2408                      .dwattr $C$DW$165, DW_AT_low_pc(0x00)
    2409                      .dwattr $C$DW$165, DW_AT_name("_MB_PortSerialGetByte")
    2410                      .dwattr $C$DW$165, DW_AT_TI_call
    2411              
    2412 0000011a 7640'         LCR       #_MB_PortSerialGetByte ; [CPU_] |299| 
         0000011b 00F5 
    2413                      ; call occurs [#_MB_PortSerialGetByte] ; [] |299| 
    2414                      .dwpsn  file "C:/Users/wmj/Desktop/BM1000_v1.1/sw/drivers/drvic/modbus/mb.c",line 301,column 5,is_stm
    2415 0000011c D01C          MOVB      XAR0,#28              ; [CPU_] |301| 
    2416 0000011d 9291          MOV       AL,*+XAR1[AR0]        ; [CPU_] |301| 
    2417 0000011e 6124          B         $C$L18,EQ             ; [CPU_] |301| 
    2418                      ; branchcc occurs ; [] |301| 
    2419 0000011f 5201          CMPB      AL,#1                 ; [CPU_] |301| 
    2420 00000120 6119          B         $C$L17,EQ             ; [CPU_] |301| 
    2421                      ; branchcc occurs ; [] |301| 
    2422 00000121 5202          CMPB      AL,#2                 ; [CPU_] |301| 
    2423 00000122 6104          B         $C$L16,EQ             ; [CPU_] |301| 
    2424                      ; branchcc occurs ; [] |301| 
    2425 00000123 5203          CMPB      AL,#3                 ; [CPU_] |301| 
    2426 00000124 611E          B         $C$L18,EQ             ; [CPU_] |301| 
    2427                      ; branchcc occurs ; [] |301| 
    2428 00000125 6F20          B         $C$L19,UNC            ; [CPU_] |301| 
    2429                      ; branch occurs ; [] |301| 
    2430 00000126       $C$L16:    
    2431                      .dwpsn  file "C:/Users/wmj/Desktop/BM1000_v1.1/sw/drivers/drvic/modbus/mb.c",line 315,column 9,is_stm
    2432 00000126 D014          MOVB      XAR0,#20              ; [CPU_] |315| 
    2433 00000127 8891          MOVZ      AR6,*+XAR1[AR0]       ; [CPU_] |315| 
    2434 00000128 92A6          MOV       AL,AR6                ; [CPU_] |315| 
    2435 00000129 5208          CMPB      AL,#8                 ; [CPU_] |315| 
    2436                      .dwpsn  file "C:/Users/wmj/Desktop/BM1000_v1.1/sw/drivers/drvic/modbus/mb.c",line 321,column 11,is_st
TMS320C2000 Assembler PC v15.12.3 Wed Nov 22 01:55:15 2017

Tools Copyright (c) 1996-2015 Texas Instruments Incorporated
C:\Users\wmj\AppData\Local\Temp\1239610                              PAGE   46

    2437 0000012a 56B7          MOVB      XAR0,#28,HIS          ; [CPU_] |321| 
         0000012b 1CA0 
    2438 0000012c 56B7          MOVB      *+XAR1[AR0],#3,HIS    ; [CPU_] |321| 
         0000012d 0391 
    2439 0000012e 6714          B         $C$L18,HIS            ; [CPU_] |321| 
    2440                      ; branchcc occurs ; [] |321| 
    2441                      .dwpsn  file "C:/Users/wmj/Desktop/BM1000_v1.1/sw/drivers/drvic/modbus/mb.c",line 317,column 11,is_st
    2442 0000012f 8AA1          MOVL      XAR4,XAR1             ; [CPU_] |317| 
    2443 00000130 B2A9          MOVL      ACC,XAR1              ; [CPU_] |317| 
    2444 00000131 0DA6          ADDU      ACC,AR6               ; [CPU_] |317| 
    2445 00000132 DC14          ADDB      XAR4,#20              ; [CPU_] |317| 
    2446 00000133 0AC4          INC       *+XAR4[0]             ; [CPU_] |317| 
    2447 00000134 8841          MOVZ      AR6,*-SP[1]           ; [CPU_] |317| 
    2448 00000135 8AA9          MOVL      XAR4,ACC              ; [CPU_] |317| 
    2449 00000136 D00C          MOVB      XAR0,#12              ; [CPU_] |317| 
    2450 00000137 7E94          MOV       *+XAR4[AR0],AR6       ; [CPU_] |317| 
    2451                      .dwpsn  file "C:/Users/wmj/Desktop/BM1000_v1.1/sw/drivers/drvic/modbus/mb.c",line 303,column 56,is_st
    2452 00000138 6F0A          B         $C$L18,UNC            ; [CPU_] |303| 
    2453                      ; branch occurs ; [] |303| 
    2454 00000139       $C$L17:    
    2455                      .dwpsn  file "C:/Users/wmj/Desktop/BM1000_v1.1/sw/drivers/drvic/modbus/mb.c",line 308,column 6,is_stm
    2456 00000139 D014          MOVB      XAR0,#20              ; [CPU_] |308| 
    2457 0000013a 56BF          MOVB      *+XAR1[AR0],#1,UNC    ; [CPU_] |308| 
         0000013b 0191 
    2458 0000013c 9241          MOV       AL,*-SP[1]            ; [CPU_] |308| 
    2459 0000013d D00C          MOVB      XAR0,#12              ; [CPU_] |308| 
    2460 0000013e 9691          MOV       *+XAR1[AR0],AL        ; [CPU_] |308| 
    2461                      .dwpsn  file "C:/Users/wmj/Desktop/BM1000_v1.1/sw/drivers/drvic/modbus/mb.c",line 309,column 9,is_stm
    2462 0000013f D01C          MOVB      XAR0,#28              ; [CPU_] |309| 
    2463 00000140 56BF          MOVB      *+XAR1[AR0],#2,UNC    ; [CPU_] |309| 
         00000141 0291 
    2464 00000142       $C$L18:    
    2465                      .dwpsn  file "C:/Users/wmj/Desktop/BM1000_v1.1/sw/drivers/drvic/modbus/mb.c",line 311,column 9,is_stm
    2466 00000142 8AA1          MOVL      XAR4,XAR1             ; [CPU_] |311| 
    2467              $C$DW$166       .dwtag  DW_TAG_TI_branch
    2468                      .dwattr $C$DW$166, DW_AT_low_pc(0x00)
    2469                      .dwattr $C$DW$166, DW_AT_name("_MB_PortTimersEnable")
    2470                      .dwattr $C$DW$166, DW_AT_TI_call
    2471              
    2472 00000143 7640'         LCR       #_MB_PortTimersEnable ; [CPU_] |311| 
         00000144 0107 
    2473                      ; call occurs [#_MB_PortTimersEnable] ; [] |311| 
    2474 00000145       $C$L19:    
    2475 00000145 FE82          SUBB      SP,#2                 ; [CPU_U] 
    2476                      .dwcfi  cfa_offset, -4
    2477 00000146 8BBE          MOVL      XAR1,*--SP            ; [CPU_] 
    2478                      .dwcfi  cfa_offset, -2
    2479                      .dwcfi  restore_reg, 7
    2480              $C$DW$167       .dwtag  DW_TAG_TI_branch
    2481                      .dwattr $C$DW$167, DW_AT_low_pc(0x00)
    2482                      .dwattr $C$DW$167, DW_AT_TI_return
    2483              
    2484 00000147 0006          LRETR     ; [CPU_] 
    2485                      ; return occurs ; [] 
    2486                      .dwattr $C$DW$161, DW_AT_TI_end_file("C:/Users/wmj/Desktop/BM1000_v1.1/sw/drivers/drvic/modbus/mb.c")
TMS320C2000 Assembler PC v15.12.3 Wed Nov 22 01:55:15 2017

Tools Copyright (c) 1996-2015 Texas Instruments Incorporated
C:\Users\wmj\AppData\Local\Temp\1239610                              PAGE   47

    2487                      .dwattr $C$DW$161, DW_AT_TI_end_line(0x148)
    2488                      .dwattr $C$DW$161, DW_AT_TI_end_column(0x01)
    2489                      .dwendentry
    2490                      .dwendtag $C$DW$161
    2491              
    2492 00000148               .sect   ".text"
    2493                      .clink
    2494                      .global _MB_RTUReceive
    2495              
    2496              $C$DW$168       .dwtag  DW_TAG_subprogram
    2497                      .dwattr $C$DW$168, DW_AT_name("MB_RTUReceive")
    2498                      .dwattr $C$DW$168, DW_AT_low_pc(_MB_RTUReceive)
    2499                      .dwattr $C$DW$168, DW_AT_high_pc(0x00)
    2500                      .dwattr $C$DW$168, DW_AT_TI_symbol_name("_MB_RTUReceive")
    2501                      .dwattr $C$DW$168, DW_AT_external
    2502                      .dwattr $C$DW$168, DW_AT_type(*$C$DW$T$129)
    2503                      .dwattr $C$DW$168, DW_AT_TI_begin_file("C:/Users/wmj/Desktop/BM1000_v1.1/sw/drivers/drvic/modbus/mb.c
    2504                      .dwattr $C$DW$168, DW_AT_TI_begin_line(0x14a)
    2505                      .dwattr $C$DW$168, DW_AT_TI_begin_column(0x0e)
    2506                      .dwattr $C$DW$168, DW_AT_TI_max_frame_size(-4)
    2507                      .dwpsn  file "C:/Users/wmj/Desktop/BM1000_v1.1/sw/drivers/drvic/modbus/mb.c",line 331,column 1,is_stm
    2508              
    2509                      .dwfde $C$DW$CIE, _MB_RTUReceive
    2510              $C$DW$169       .dwtag  DW_TAG_formal_parameter
    2511                      .dwattr $C$DW$169, DW_AT_name("handle")
    2512                      .dwattr $C$DW$169, DW_AT_TI_symbol_name("_handle")
    2513                      .dwattr $C$DW$169, DW_AT_type(*$C$DW$T$178)
    2514                      .dwattr $C$DW$169, DW_AT_location[DW_OP_reg12]
    2515              
    2516              
    2517              ;***************************************************************
    2518              ;* FNAME: _MB_RTUReceive                FR SIZE:   2           *
    2519              ;*                                                             *
    2520              ;* FUNCTION ENVIRONMENT                                        *
    2521              ;*                                                             *
    2522              ;* FUNCTION PROPERTIES                                         *
    2523              ;*                            0 Parameter,  0 Auto,  2 SOE     *
    2524              ;***************************************************************
    2525              
    2526              _MB_RTUReceive:
    2527              ;* AL    assigned to $O$C1
    2528              ;* AR1   assigned to _handle
    2529              $C$DW$170       .dwtag  DW_TAG_variable
    2530                      .dwattr $C$DW$170, DW_AT_name("handle")
    2531                      .dwattr $C$DW$170, DW_AT_TI_symbol_name("_handle")
    2532                      .dwattr $C$DW$170, DW_AT_type(*$C$DW$T$200)
    2533                      .dwattr $C$DW$170, DW_AT_location[DW_OP_reg6]
    2534              
    2535                      .dwcfi  cfa_offset, -2
    2536                      .dwcfi  save_reg_to_mem, 26, 0
    2537 00000148 B2BD          MOVL      *SP++,XAR1            ; [CPU_] 
    2538                      .dwcfi  save_reg_to_mem, 7, 2
    2539                      .dwcfi  cfa_offset, -4
    2540 00000149 8BA4          MOVL      XAR1,XAR4             ; [CPU_] |331| 
    2541                      .dwpsn  file "C:/Users/wmj/Desktop/BM1000_v1.1/sw/drivers/drvic/modbus/mb.c",line 337,column 5,is_stm
TMS320C2000 Assembler PC v15.12.3 Wed Nov 22 01:55:15 2017

Tools Copyright (c) 1996-2015 Texas Instruments Incorporated
C:\Users\wmj\AppData\Local\Temp\1239610                              PAGE   48

    2542 0000014a D014          MOVB      XAR0,#20              ; [CPU_] |337| 
    2543 0000014b 9291          MOV       AL,*+XAR1[AR0]        ; [CPU_] |337| 
    2544 0000014c 5208          CMPB      AL,#8                 ; [CPU_] |337| 
    2545 0000014d 600C          B         $C$L20,NEQ            ; [CPU_] |337| 
    2546                      ; branchcc occurs ; [] |337| 
    2547 0000014e DC0C          ADDB      XAR4,#12              ; [CPU_] |337| 
    2548              $C$DW$171       .dwtag  DW_TAG_TI_branch
    2549                      .dwattr $C$DW$171, DW_AT_low_pc(0x00)
    2550                      .dwattr $C$DW$171, DW_AT_name("_MB_CRC16")
    2551                      .dwattr $C$DW$171, DW_AT_TI_call
    2552              
    2553 0000014f 7640'         LCR       #_MB_CRC16            ; [CPU_] |337| 
         00000150 008B 
    2554                      ; call occurs [#_MB_CRC16] ; [] |337| 
    2555 00000151 5200          CMPB      AL,#0                 ; [CPU_] |337| 
    2556 00000152 6007          B         $C$L20,NEQ            ; [CPU_] |337| 
    2557                      ; branchcc occurs ; [] |337| 
    2558                      .dwpsn  file "C:/Users/wmj/Desktop/BM1000_v1.1/sw/drivers/drvic/modbus/mb.c",line 340,column 9,is_stm
    2559 00000153 B2A9          MOVL      ACC,XAR1              ; [CPU_] |340| 
    2560 00000154 D00A          MOVB      XAR0,#10              ; [CPU_] |340| 
    2561 00000155 090C          ADDB      ACC,#12               ; [CPU_] |340| 
    2562 00000156 1E91          MOVL      *+XAR1[AR0],ACC       ; [CPU_] |340| 
    2563                      .dwpsn  file "C:/Users/wmj/Desktop/BM1000_v1.1/sw/drivers/drvic/modbus/mb.c",line 334,column 28,is_st
    2564 00000157 9A00          MOVB      AL,#0                 ; [CPU_] |334| 
    2565                      .dwpsn  file "C:/Users/wmj/Desktop/BM1000_v1.1/sw/drivers/drvic/modbus/mb.c",line 341,column 5,is_stm
    2566 00000158 6F02          B         $C$L21,UNC            ; [CPU_] |341| 
    2567                      ; branch occurs ; [] |341| 
    2568 00000159       $C$L20:    
    2569                      .dwpsn  file "C:/Users/wmj/Desktop/BM1000_v1.1/sw/drivers/drvic/modbus/mb.c",line 344,column 9,is_stm
    2570 00000159 9A05          MOVB      AL,#5                 ; [CPU_] |344| 
    2571 0000015a       $C$L21:    
    2572 0000015a 8BBE          MOVL      XAR1,*--SP            ; [CPU_] 
    2573                      .dwcfi  cfa_offset, -2
    2574                      .dwcfi  restore_reg, 7
    2575              $C$DW$172       .dwtag  DW_TAG_TI_branch
    2576                      .dwattr $C$DW$172, DW_AT_low_pc(0x00)
    2577                      .dwattr $C$DW$172, DW_AT_TI_return
    2578              
    2579 0000015b 0006          LRETR     ; [CPU_] 
    2580                      ; return occurs ; [] 
    2581                      .dwattr $C$DW$168, DW_AT_TI_end_file("C:/Users/wmj/Desktop/BM1000_v1.1/sw/drivers/drvic/modbus/mb.c")
    2582                      .dwattr $C$DW$168, DW_AT_TI_end_line(0x15c)
    2583                      .dwattr $C$DW$168, DW_AT_TI_end_column(0x01)
    2584                      .dwendentry
    2585                      .dwendtag $C$DW$168
    2586              
    2587 0000015c               .sect   ".text"
    2588                      .clink
    2589                      .global _MB_PortEventInit
    2590              
    2591              $C$DW$173       .dwtag  DW_TAG_subprogram
    2592                      .dwattr $C$DW$173, DW_AT_name("MB_PortEventInit")
    2593                      .dwattr $C$DW$173, DW_AT_low_pc(_MB_PortEventInit)
    2594                      .dwattr $C$DW$173, DW_AT_high_pc(0x00)
    2595                      .dwattr $C$DW$173, DW_AT_TI_symbol_name("_MB_PortEventInit")
TMS320C2000 Assembler PC v15.12.3 Wed Nov 22 01:55:15 2017

Tools Copyright (c) 1996-2015 Texas Instruments Incorporated
C:\Users\wmj\AppData\Local\Temp\1239610                              PAGE   49

    2596                      .dwattr $C$DW$173, DW_AT_external
    2597                      .dwattr $C$DW$173, DW_AT_TI_begin_file("C:/Users/wmj/Desktop/BM1000_v1.1/sw/drivers/drvic/modbus/mb.c
    2598                      .dwattr $C$DW$173, DW_AT_TI_begin_line(0xce)
    2599                      .dwattr $C$DW$173, DW_AT_TI_begin_column(0x06)
    2600                      .dwattr $C$DW$173, DW_AT_TI_max_frame_size(-2)
    2601                      .dwpsn  file "C:/Users/wmj/Desktop/BM1000_v1.1/sw/drivers/drvic/modbus/mb.c",line 207,column 1,is_stm
    2602              
    2603                      .dwfde $C$DW$CIE, _MB_PortEventInit
    2604              $C$DW$174       .dwtag  DW_TAG_formal_parameter
    2605                      .dwattr $C$DW$174, DW_AT_name("handle")
    2606                      .dwattr $C$DW$174, DW_AT_TI_symbol_name("_handle")
    2607                      .dwattr $C$DW$174, DW_AT_type(*$C$DW$T$178)
    2608                      .dwattr $C$DW$174, DW_AT_location[DW_OP_reg12]
    2609              
    2610              
    2611              ;***************************************************************
    2612              ;* FNAME: _MB_PortEventInit             FR SIZE:   0           *
    2613              ;*                                                             *
    2614              ;* FUNCTION ENVIRONMENT                                        *
    2615              ;*                                                             *
    2616              ;* FUNCTION PROPERTIES                                         *
    2617              ;*                            0 Parameter,  0 Auto,  0 SOE     *
    2618              ;***************************************************************
    2619              
    2620              _MB_PortEventInit:
    2621              ;* AR4   assigned to _handle
    2622              $C$DW$175       .dwtag  DW_TAG_variable
    2623                      .dwattr $C$DW$175, DW_AT_name("handle")
    2624                      .dwattr $C$DW$175, DW_AT_TI_symbol_name("_handle")
    2625                      .dwattr $C$DW$175, DW_AT_type(*$C$DW$T$200)
    2626                      .dwattr $C$DW$175, DW_AT_location[DW_OP_reg12]
    2627              
    2628                      .dwcfi  cfa_offset, -2
    2629                      .dwcfi  save_reg_to_mem, 26, 0
    2630                      .dwpsn  file "C:/Users/wmj/Desktop/BM1000_v1.1/sw/drivers/drvic/modbus/mb.c",line 210,column 5,is_stm
    2631 0000015c D01D          MOVB      XAR0,#29              ; [CPU_] |210| 
    2632 0000015d 2B94          MOV       *+XAR4[AR0],#0        ; [CPU_] |210| 
    2633              $C$DW$176       .dwtag  DW_TAG_TI_branch
    2634                      .dwattr $C$DW$176, DW_AT_low_pc(0x00)
    2635                      .dwattr $C$DW$176, DW_AT_TI_return
    2636              
    2637 0000015e 0006          LRETR     ; [CPU_] 
    2638                      ; return occurs ; [] 
    2639                      .dwattr $C$DW$173, DW_AT_TI_end_file("C:/Users/wmj/Desktop/BM1000_v1.1/sw/drivers/drvic/modbus/mb.c")
    2640                      .dwattr $C$DW$173, DW_AT_TI_end_line(0xd5)
    2641                      .dwattr $C$DW$173, DW_AT_TI_end_column(0x01)
    2642                      .dwendentry
    2643                      .dwendtag $C$DW$173
    2644              
    2645 0000015f               .sect   ".text"
    2646                      .clink
    2647                      .global _MB_PortEventGet
    2648              
    2649              $C$DW$177       .dwtag  DW_TAG_subprogram
    2650                      .dwattr $C$DW$177, DW_AT_name("MB_PortEventGet")
TMS320C2000 Assembler PC v15.12.3 Wed Nov 22 01:55:15 2017

Tools Copyright (c) 1996-2015 Texas Instruments Incorporated
C:\Users\wmj\AppData\Local\Temp\1239610                              PAGE   50

    2651                      .dwattr $C$DW$177, DW_AT_low_pc(_MB_PortEventGet)
    2652                      .dwattr $C$DW$177, DW_AT_high_pc(0x00)
    2653                      .dwattr $C$DW$177, DW_AT_TI_symbol_name("_MB_PortEventGet")
    2654                      .dwattr $C$DW$177, DW_AT_external
    2655                      .dwattr $C$DW$177, DW_AT_type(*$C$DW$T$59)
    2656                      .dwattr $C$DW$177, DW_AT_TI_begin_file("C:/Users/wmj/Desktop/BM1000_v1.1/sw/drivers/drvic/modbus/mb.c
    2657                      .dwattr $C$DW$177, DW_AT_TI_begin_line(0xdf)
    2658                      .dwattr $C$DW$177, DW_AT_TI_begin_column(0x06)
    2659                      .dwattr $C$DW$177, DW_AT_TI_max_frame_size(-2)
    2660                      .dwpsn  file "C:/Users/wmj/Desktop/BM1000_v1.1/sw/drivers/drvic/modbus/mb.c",line 224,column 1,is_stm
    2661              
    2662                      .dwfde $C$DW$CIE, _MB_PortEventGet
    2663              $C$DW$178       .dwtag  DW_TAG_formal_parameter
    2664                      .dwattr $C$DW$178, DW_AT_name("handle")
    2665                      .dwattr $C$DW$178, DW_AT_TI_symbol_name("_handle")
    2666                      .dwattr $C$DW$178, DW_AT_type(*$C$DW$T$178)
    2667                      .dwattr $C$DW$178, DW_AT_location[DW_OP_reg12]
    2668              
    2669              $C$DW$179       .dwtag  DW_TAG_formal_parameter
    2670                      .dwattr $C$DW$179, DW_AT_name("eEvent")
    2671                      .dwattr $C$DW$179, DW_AT_TI_symbol_name("_eEvent")
    2672                      .dwattr $C$DW$179, DW_AT_type(*$C$DW$T$184)
    2673                      .dwattr $C$DW$179, DW_AT_location[DW_OP_reg14]
    2674              
    2675              
    2676              ;***************************************************************
    2677              ;* FNAME: _MB_PortEventGet              FR SIZE:   0           *
    2678              ;*                                                             *
    2679              ;* FUNCTION ENVIRONMENT                                        *
    2680              ;*                                                             *
    2681              ;* FUNCTION PROPERTIES                                         *
    2682              ;*                            0 Parameter,  0 Auto,  0 SOE     *
    2683              ;***************************************************************
    2684              
    2685              _MB_PortEventGet:
    2686              ;* AR5   assigned to _eEvent
    2687              $C$DW$180       .dwtag  DW_TAG_variable
    2688                      .dwattr $C$DW$180, DW_AT_name("eEvent")
    2689                      .dwattr $C$DW$180, DW_AT_TI_symbol_name("_eEvent")
    2690                      .dwattr $C$DW$180, DW_AT_type(*$C$DW$T$185)
    2691                      .dwattr $C$DW$180, DW_AT_location[DW_OP_reg14]
    2692              
    2693              ;* AR4   assigned to _handle
    2694              $C$DW$181       .dwtag  DW_TAG_variable
    2695                      .dwattr $C$DW$181, DW_AT_name("handle")
    2696                      .dwattr $C$DW$181, DW_AT_TI_symbol_name("_handle")
    2697                      .dwattr $C$DW$181, DW_AT_type(*$C$DW$T$200)
    2698                      .dwattr $C$DW$181, DW_AT_location[DW_OP_reg12]
    2699              
    2700                      .dwcfi  cfa_offset, -2
    2701                      .dwcfi  save_reg_to_mem, 26, 0
    2702                      .dwpsn  file "C:/Users/wmj/Desktop/BM1000_v1.1/sw/drivers/drvic/modbus/mb.c",line 228,column 5,is_stm
    2703 0000015f D01D          MOVB      XAR0,#29              ; [CPU_] |228| 
    2704 00000160 9294          MOV       AL,*+XAR4[AR0]        ; [CPU_] |228| 
    2705 00000161 6003          B         $C$L22,NEQ            ; [CPU_] |228| 
TMS320C2000 Assembler PC v15.12.3 Wed Nov 22 01:55:15 2017

Tools Copyright (c) 1996-2015 Texas Instruments Incorporated
C:\Users\wmj\AppData\Local\Temp\1239610                              PAGE   51

    2706                      ; branchcc occurs ; [] |228| 
    2707                      .dwcfi  remember_state
    2708                      .dwpsn  file "C:/Users/wmj/Desktop/BM1000_v1.1/sw/drivers/drvic/modbus/mb.c",line 226,column 26,is_st
    2709 00000162 9A00          MOVB      AL,#0                 ; [CPU_] |226| 
    2710              $C$DW$182       .dwtag  DW_TAG_TI_branch
    2711                      .dwattr $C$DW$182, DW_AT_low_pc(0x00)
    2712                      .dwattr $C$DW$182, DW_AT_TI_return
    2713              
    2714 00000163 0006          LRETR     ; [CPU_] 
    2715                      ; return occurs ; [] 
    2716                      .dwcfi  restore_state
    2717 00000164       $C$L22:    
    2718                      .dwpsn  file "C:/Users/wmj/Desktop/BM1000_v1.1/sw/drivers/drvic/modbus/mb.c",line 230,column 9,is_stm
    2719 00000164 C5A4          MOVL      XAR7,XAR4             ; [CPU_] |230| 
    2720 00000165 DF1E          ADDB      XAR7,#30              ; [CPU_] |230| 
    2721 00000166 92C7          MOV       AL,*XAR7              ; [CPU_] |230| 
    2722 00000167 96C5          MOV       *+XAR5[0],AL          ; [CPU_] |230| 
    2723                      .dwpsn  file "C:/Users/wmj/Desktop/BM1000_v1.1/sw/drivers/drvic/modbus/mb.c",line 232,column 9,is_stm
    2724 00000168 9A01          MOVB      AL,#1                 ; [CPU_] |232| 
    2725                      .dwpsn  file "C:/Users/wmj/Desktop/BM1000_v1.1/sw/drivers/drvic/modbus/mb.c",line 231,column 9,is_stm
    2726 00000169 D01D          MOVB      XAR0,#29              ; [CPU_] |231| 
    2727 0000016a 2B94          MOV       *+XAR4[AR0],#0        ; [CPU_] |231| 
    2728              $C$DW$183       .dwtag  DW_TAG_TI_branch
    2729                      .dwattr $C$DW$183, DW_AT_low_pc(0x00)
    2730                      .dwattr $C$DW$183, DW_AT_TI_return
    2731              
    2732 0000016b 0006          LRETR     ; [CPU_] 
    2733                      ; return occurs ; [] 
    2734                      .dwattr $C$DW$177, DW_AT_TI_end_file("C:/Users/wmj/Desktop/BM1000_v1.1/sw/drivers/drvic/modbus/mb.c")
    2735                      .dwattr $C$DW$177, DW_AT_TI_end_line(0xec)
    2736                      .dwattr $C$DW$177, DW_AT_TI_end_column(0x01)
    2737                      .dwendentry
    2738                      .dwendtag $C$DW$177
    2739              
    2740 0000016c               .sect   ".text"
    2741                      .clink
    2742                      .global _MB_FuncWriteHoldingRegister
    2743              
    2744              $C$DW$184       .dwtag  DW_TAG_subprogram
    2745                      .dwattr $C$DW$184, DW_AT_name("MB_FuncWriteHoldingRegister")
    2746                      .dwattr $C$DW$184, DW_AT_low_pc(_MB_FuncWriteHoldingRegister)
    2747                      .dwattr $C$DW$184, DW_AT_high_pc(0x00)
    2748                      .dwattr $C$DW$184, DW_AT_TI_symbol_name("_MB_FuncWriteHoldingRegister")
    2749                      .dwattr $C$DW$184, DW_AT_external
    2750                      .dwattr $C$DW$184, DW_AT_TI_begin_file("C:/Users/wmj/Desktop/BM1000_v1.1/sw/drivers/drvic/modbus/mb.c
    2751                      .dwattr $C$DW$184, DW_AT_TI_begin_line(0x279)
    2752                      .dwattr $C$DW$184, DW_AT_TI_begin_column(0x06)
    2753                      .dwattr $C$DW$184, DW_AT_TI_max_frame_size(-6)
    2754                      .dwpsn  file "C:/Users/wmj/Desktop/BM1000_v1.1/sw/drivers/drvic/modbus/mb.c",line 634,column 1,is_stm
    2755              
    2756                      .dwfde $C$DW$CIE, _MB_FuncWriteHoldingRegister
    2757              $C$DW$185       .dwtag  DW_TAG_formal_parameter
    2758                      .dwattr $C$DW$185, DW_AT_name("handle")
    2759                      .dwattr $C$DW$185, DW_AT_TI_symbol_name("_handle")
    2760                      .dwattr $C$DW$185, DW_AT_type(*$C$DW$T$178)
TMS320C2000 Assembler PC v15.12.3 Wed Nov 22 01:55:15 2017

Tools Copyright (c) 1996-2015 Texas Instruments Incorporated
C:\Users\wmj\AppData\Local\Temp\1239610                              PAGE   52

    2761                      .dwattr $C$DW$185, DW_AT_location[DW_OP_reg12]
    2762              
    2763              
    2764              ;***************************************************************
    2765              ;* FNAME: _MB_FuncWriteHoldingRegister  FR SIZE:   4           *
    2766              ;*                                                             *
    2767              ;* FUNCTION ENVIRONMENT                                        *
    2768              ;*                                                             *
    2769              ;* FUNCTION PROPERTIES                                         *
    2770              ;*                            0 Parameter,  0 Auto,  4 SOE     *
    2771              ;***************************************************************
    2772              
    2773              _MB_FuncWriteHoldingRegister:
    2774              ;* AR6   assigned to $O$C12
    2775              ;* AR5   assigned to $O$C13
    2776              ;* AR2   assigned to _obj
    2777              $C$DW$186       .dwtag  DW_TAG_variable
    2778                      .dwattr $C$DW$186, DW_AT_name("obj")
    2779                      .dwattr $C$DW$186, DW_AT_TI_symbol_name("_obj")
    2780                      .dwattr $C$DW$186, DW_AT_type(*$C$DW$T$194)
    2781                      .dwattr $C$DW$186, DW_AT_location[DW_OP_reg8]
    2782              
    2783              ;* AR2   assigned to _obj
    2784              $C$DW$187       .dwtag  DW_TAG_variable
    2785                      .dwattr $C$DW$187, DW_AT_name("obj")
    2786                      .dwattr $C$DW$187, DW_AT_TI_symbol_name("_obj")
    2787                      .dwattr $C$DW$187, DW_AT_type(*$C$DW$T$194)
    2788                      .dwattr $C$DW$187, DW_AT_location[DW_OP_reg8]
    2789              
    2790              ;* AR1   assigned to _Temp_Frac
    2791              $C$DW$188       .dwtag  DW_TAG_variable
    2792                      .dwattr $C$DW$188, DW_AT_name("Temp_Frac")
    2793                      .dwattr $C$DW$188, DW_AT_TI_symbol_name("_Temp_Frac")
    2794                      .dwattr $C$DW$188, DW_AT_type(*$C$DW$T$10)
    2795                      .dwattr $C$DW$188, DW_AT_location[DW_OP_reg6]
    2796              
    2797              ;* AR6   assigned to _RegData
    2798              $C$DW$189       .dwtag  DW_TAG_variable
    2799                      .dwattr $C$DW$189, DW_AT_name("RegData")
    2800                      .dwattr $C$DW$189, DW_AT_TI_symbol_name("_RegData")
    2801                      .dwattr $C$DW$189, DW_AT_type(*$C$DW$T$21)
    2802                      .dwattr $C$DW$189, DW_AT_location[DW_OP_reg16]
    2803              
    2804              ;* AR4   assigned to _handle
    2805              $C$DW$190       .dwtag  DW_TAG_variable
    2806                      .dwattr $C$DW$190, DW_AT_name("handle")
    2807                      .dwattr $C$DW$190, DW_AT_TI_symbol_name("_handle")
    2808                      .dwattr $C$DW$190, DW_AT_type(*$C$DW$T$200)
    2809                      .dwattr $C$DW$190, DW_AT_location[DW_OP_reg12]
    2810              
    2811                      .dwcfi  cfa_offset, -2
    2812                      .dwcfi  save_reg_to_mem, 26, 0
    2813 0000016c B2BD          MOVL      *SP++,XAR1            ; [CPU_] 
    2814                      .dwcfi  save_reg_to_mem, 7, 2
    2815                      .dwcfi  cfa_offset, -4
TMS320C2000 Assembler PC v15.12.3 Wed Nov 22 01:55:15 2017

Tools Copyright (c) 1996-2015 Texas Instruments Incorporated
C:\Users\wmj\AppData\Local\Temp\1239610                              PAGE   53

    2816                      .dwpsn  file "C:/Users/wmj/Desktop/BM1000_v1.1/sw/drivers/drvic/modbus/mb.c",line 647,column 3,is_stm
    2817 0000016d D00A          MOVB      XAR0,#10              ; [CPU_] |647| 
    2818 0000016e AABD          MOVL      *SP++,XAR2            ; [CPU_] 
    2819                      .dwcfi  save_reg_to_mem, 9, 4
    2820                      .dwcfi  cfa_offset, -6
    2821 0000016f 8394          MOVL      XAR5,*+XAR4[AR0]      ; [CPU_] |647| 
    2822 00000170 5603          MOV       ACC,*+XAR5[4] << #8   ; [CPU_] |647| 
         00000171 08E5 
    2823 00000172 CAED          OR        AL,*+XAR5[5]          ; [CPU_] |647| 
    2824 00000173 88A9          MOVZ      AR6,AL                ; [CPU_] |647| 
    2825                      .dwpsn  file "C:/Users/wmj/Desktop/BM1000_v1.1/sw/drivers/drvic/modbus/mb.c",line 650,column 3,is_stm
    2826 00000174 5603          MOV       ACC,*+XAR5[2] << #8   ; [CPU_] |650| 
         00000175 08D5 
    2827 00000176 CADD          OR        AL,*+XAR5[3]          ; [CPU_] |650| 
    2828 00000177 80A9          MOVZ      AR7,AL                ; [CPU_] |650| 
    2829 00000178 93A7          MOV       AH,AR7                ; [CPU_] |650| 
    2830 00000179 5342          CMPB      AH,#66                ; [CPU_] |650| 
    2831 0000017a 6221          B         $C$L24,GT             ; [CPU_] |650| 
    2832                      ; branchcc occurs ; [] |650| 
    2833 0000017b 5342          CMPB      AH,#66                ; [CPU_] |650| 
    2834 0000017c 617E          B         $C$L35,EQ             ; [CPU_] |650| 
    2835                      ; branchcc occurs ; [] |650| 
    2836 0000017d 5333          CMPB      AH,#51                ; [CPU_] |650| 
    2837 0000017e 6212          B         $C$L23,GT             ; [CPU_] |650| 
    2838                      ; branchcc occurs ; [] |650| 
    2839 0000017f 5333          CMPB      AH,#51                ; [CPU_] |650| 
    2840 00000180 FFE1          B         $C$L41,EQ             ; [CPU_] |650| 
         00000181 00A6 
    2841                      ; branchcc occurs ; [] |650| 
    2842 00000182 5304          CMPB      AH,#4                 ; [CPU_] |650| 
    2843 00000183 FFE1          B         $C$L47,EQ             ; [CPU_] |650| 
         00000184 00BB 
    2844                      ; branchcc occurs ; [] |650| 
    2845 00000185 5330          CMPB      AH,#48                ; [CPU_] |650| 
    2846 00000186 FFE1          B         $C$L46,EQ             ; [CPU_] |650| 
         00000187 00B6 
    2847                      ; branchcc occurs ; [] |650| 
    2848 00000188 5331          CMPB      AH,#49                ; [CPU_] |650| 
    2849 00000189 FFE1          B         $C$L43,EQ             ; [CPU_] |650| 
         0000018a 00A9 
    2850                      ; branchcc occurs ; [] |650| 
    2851 0000018b 5332          CMPB      AH,#50                ; [CPU_] |650| 
    2852 0000018c FFE1          B         $C$L42,EQ             ; [CPU_] |650| 
         0000018d 00A4 
    2853                      ; branchcc occurs ; [] |650| 
    2854 0000018e FFEF          B         $C$L48,UNC            ; [CPU_] |650| 
         0000018f 00B4 
    2855                      ; branch occurs ; [] |650| 
    2856 00000190       $C$L23:    
    2857 00000190 5334          CMPB      AH,#52                ; [CPU_] |650| 
    2858 00000191 FFE1          B         $C$L40,EQ             ; [CPU_] |650| 
         00000192 0085 
    2859                      ; branchcc occurs ; [] |650| 
    2860 00000193 5335          CMPB      AH,#53                ; [CPU_] |650| 
    2861 00000194 616C          B         $C$L38,EQ             ; [CPU_] |650| 
TMS320C2000 Assembler PC v15.12.3 Wed Nov 22 01:55:15 2017

Tools Copyright (c) 1996-2015 Texas Instruments Incorporated
C:\Users\wmj\AppData\Local\Temp\1239610                              PAGE   54

    2862                      ; branchcc occurs ; [] |650| 
    2863 00000195 5340          CMPB      AH,#64                ; [CPU_] |650| 
    2864 00000196 6168          B         $C$L37,EQ             ; [CPU_] |650| 
    2865                      ; branchcc occurs ; [] |650| 
    2866 00000197 5341          CMPB      AH,#65                ; [CPU_] |650| 
    2867 00000198 6164          B         $C$L36,EQ             ; [CPU_] |650| 
    2868                      ; branchcc occurs ; [] |650| 
    2869 00000199 FFEF          B         $C$L48,UNC            ; [CPU_] |650| 
         0000019a 00A9 
    2870                      ; branch occurs ; [] |650| 
    2871 0000019b       $C$L24:    
    2872 0000019b 1BA7          CMP       AR7,#261              ; [CPU_] |650| 
         0000019c 0105 
    2873 0000019d 621A          B         $C$L25,GT             ; [CPU_] |650| 
    2874                      ; branchcc occurs ; [] |650| 
    2875 0000019e 1BA7          CMP       AR7,#261              ; [CPU_] |650| 
         0000019f 0105 
    2876 000001a0 614A          B         $C$L29,EQ             ; [CPU_] |650| 
    2877                      ; branchcc occurs ; [] |650| 
    2878 000001a1 5343          CMPB      AH,#67                ; [CPU_] |650| 
    2879 000001a2 6156          B         $C$L34,EQ             ; [CPU_] |650| 
    2880                      ; branchcc occurs ; [] |650| 
    2881 000001a3 8F40          MOVL      XAR5,#258             ; [CPU_U] |650| 
         000001a4 0102 
    2882 000001a5 27A7          MOV       PL,AR7                ; [CPU_] |650| 
    2883 000001a6 2BAA          MOV       PH,#0                 ; [CPU_] |650| 
    2884 000001a7 A0A9          MOVL      ACC,XAR5              ; [CPU_] |650| 
    2885 000001a8 0FAB          CMPL      ACC,P                 ; [CPU_] |650| 
    2886 000001a9 614D          B         $C$L33,EQ             ; [CPU_] |650| 
    2887                      ; branchcc occurs ; [] |650| 
    2888 000001aa 8F40          MOVL      XAR5,#259             ; [CPU_U] |650| 
         000001ab 0103 
    2889 000001ac A0A9          MOVL      ACC,XAR5              ; [CPU_] |650| 
    2890 000001ad 0FAB          CMPL      ACC,P                 ; [CPU_] |650| 
    2891 000001ae 6146          B         $C$L32,EQ             ; [CPU_] |650| 
    2892                      ; branchcc occurs ; [] |650| 
    2893 000001af 80A7          MOVZ      AR7,AR7               ; [CPU_] |650| 
    2894 000001b0 8F40          MOVL      XAR5,#260             ; [CPU_U] |650| 
         000001b1 0104 
    2895 000001b2 A0A9          MOVL      ACC,XAR5              ; [CPU_] |650| 
    2896 000001b3 0FA7          CMPL      ACC,XAR7              ; [CPU_] |650| 
    2897 000001b4 613B          B         $C$L31,EQ             ; [CPU_] |650| 
    2898                      ; branchcc occurs ; [] |650| 
    2899 000001b5 FFEF          B         $C$L48,UNC            ; [CPU_] |650| 
         000001b6 008D 
    2900                      ; branch occurs ; [] |650| 
    2901 000001b7       $C$L25:    
    2902 000001b7 8F40          MOVL      XAR5,#512             ; [CPU_U] |650| 
         000001b8 0200 
    2903 000001b9 27A7          MOV       PL,AR7                ; [CPU_] |650| 
    2904 000001ba 2BAA          MOV       PH,#0                 ; [CPU_] |650| 
    2905 000001bb A0A9          MOVL      ACC,XAR5              ; [CPU_] |650| 
    2906 000001bc 0FAB          CMPL      ACC,P                 ; [CPU_] |650| 
    2907 000001bd 6127          B         $C$L28,EQ             ; [CPU_] |650| 
    2908                      ; branchcc occurs ; [] |650| 
TMS320C2000 Assembler PC v15.12.3 Wed Nov 22 01:55:15 2017

Tools Copyright (c) 1996-2015 Texas Instruments Incorporated
C:\Users\wmj\AppData\Local\Temp\1239610                              PAGE   55

    2909 000001be 8F40          MOVL      XAR5,#513             ; [CPU_U] |650| 
         000001bf 0201 
    2910 000001c0 A0A9          MOVL      ACC,XAR5              ; [CPU_] |650| 
    2911 000001c1 0FAB          CMPL      ACC,P                 ; [CPU_] |650| 
    2912 000001c2 6119          B         $C$L27,EQ             ; [CPU_] |650| 
    2913                      ; branchcc occurs ; [] |650| 
    2914 000001c3 80A7          MOVZ      AR7,AR7               ; [CPU_] |650| 
    2915 000001c4 8F40          MOVL      XAR5,#514             ; [CPU_U] |650| 
         000001c5 0202 
    2916 000001c6 A0A9          MOVL      ACC,XAR5              ; [CPU_] |650| 
    2917 000001c7 0FA7          CMPL      ACC,XAR7              ; [CPU_] |650| 
    2918 000001c8 607A          B         $C$L48,NEQ            ; [CPU_] |650| 
    2919                      ; branchcc occurs ; [] |650| 
    2920 000001c9 3B01          SETC      SXM                   ; [CPU_] 
    2921                      .dwpsn  file "C:/Users/wmj/Desktop/BM1000_v1.1/sw/drivers/drvic/fsm.h",line 601,column 16,is_stmt,isa
    2922 000001ca 86D4          MOVL      XAR2,*+XAR4[2]        ; [CPU_] |601| 
    2923                      .dwpsn  file "C:/Users/wmj/Desktop/BM1000_v1.1/sw/drivers/drvic/fsm.h",line 604,column 3,is_stmt,isa 
    2924 000001cb 59A6          MOVZ      AR1,AR6               ; [CPU_] |604| 
    2925                      .dwpsn  file "C:/Users/wmj/Desktop/BM1000_v1.1/sw/drivers/drvic/fsm.h",line 606,column 3,is_stmt,isa 
    2926 000001cc 85A6          MOV       ACC,AR6               ; [CPU_] |606| 
    2927              $C$DW$191       .dwtag  DW_TAG_TI_branch
    2928                      .dwattr $C$DW$191, DW_AT_low_pc(0x00)
    2929                      .dwattr $C$DW$191, DW_AT_name("__IQ7int")
    2930                      .dwattr $C$DW$191, DW_AT_TI_call
    2931              
    2932 000001cd 7640!         LCR       #__IQ7int             ; [CPU_] |606| 
         000001ce 0000 
    2933                      ; call occurs [#__IQ7int] ; [] |606| 
    2934 000001cf D01A          MOVB      XAR0,#26              ; [CPU_] |606| 
    2935 000001d0 3B01          SETC      SXM                   ; [CPU_] 
    2936 000001d1 1E92          MOVL      *+XAR2[AR0],ACC       ; [CPU_] |606| 
    2937                      .dwpsn  file "C:/Users/wmj/Desktop/BM1000_v1.1/sw/drivers/drvic/fsm.h",line 607,column 3,is_stmt,isa 
    2938 000001d2 85A1          MOV       ACC,AR1               ; [CPU_] |607| 
    2939              $C$DW$192       .dwtag  DW_TAG_TI_branch
    2940                      .dwattr $C$DW$192, DW_AT_low_pc(0x00)
    2941                      .dwattr $C$DW$192, DW_AT_name("__IQ7frac")
    2942                      .dwattr $C$DW$192, DW_AT_TI_call
    2943              
    2944 000001d3 7640!         LCR       #__IQ7frac            ; [CPU_] |607| 
         000001d4 0000 
    2945                      ; call occurs [#__IQ7frac] ; [] |607| 
    2946 000001d5 28AC          MOV       T,#17                 ; [CPU_] |607| 
         000001d6 0011 
    2947 000001d7 563B          LSLL      ACC,T                 ; [CPU_] |607| 
    2948 000001d8       $C$L26:    
    2949 000001d8 D01C          MOVB      XAR0,#28              ; [CPU_] |607| 
    2950 000001d9 1E92          MOVL      *+XAR2[AR0],ACC       ; [CPU_] |607| 
    2951                      .dwpsn  file "C:/Users/wmj/Desktop/BM1000_v1.1/sw/drivers/drvic/fsm.h",line 609,column 3,is_stmt,isa 
    2952 000001da 6F68          B         $C$L48,UNC            ; [CPU_] |609| 
    2953                      ; branch occurs ; [] |609| 
    2954 000001db       $C$L27:    
    2955 000001db 3B01          SETC      SXM                   ; [CPU_] 
    2956                      .dwpsn  file "C:/Users/wmj/Desktop/BM1000_v1.1/sw/drivers/drvic/fsm.h",line 594,column 3,is_stmt,isa 
    2957 000001dc 28AC          MOV       T,#17                 ; [CPU_] |594| 
         000001dd 0011 
TMS320C2000 Assembler PC v15.12.3 Wed Nov 22 01:55:15 2017

Tools Copyright (c) 1996-2015 Texas Instruments Incorporated
C:\Users\wmj\AppData\Local\Temp\1239610                              PAGE   56

    2958                      .dwpsn  file "C:/Users/wmj/Desktop/BM1000_v1.1/sw/drivers/drvic/fsm.h",line 592,column 16,is_stmt,isa
    2959 000001de 86D4          MOVL      XAR2,*+XAR4[2]        ; [CPU_] |592| 
    2960                      .dwpsn  file "C:/Users/wmj/Desktop/BM1000_v1.1/sw/drivers/drvic/fsm.h",line 594,column 3,is_stmt,isa 
    2961 000001df 85A6          MOV       ACC,AR6               ; [CPU_] |594| 
    2962 000001e0 563B          LSLL      ACC,T                 ; [CPU_] |594| 
    2963              $C$DW$193       .dwtag  DW_TAG_TI_branch
    2964                      .dwattr $C$DW$193, DW_AT_low_pc(0x00)
    2965                      .dwattr $C$DW$193, DW_AT_name("__IQ24frac")
    2966                      .dwattr $C$DW$193, DW_AT_TI_call
    2967              
    2968 000001e1 7640!         LCR       #__IQ24frac           ; [CPU_] |594| 
         000001e2 0000 
    2969                      ; call occurs [#__IQ24frac] ; [] |594| 
    2970                      .dwpsn  file "C:/Users/wmj/Desktop/BM1000_v1.1/sw/drivers/drvic/fsm.h",line 596,column 3,is_stmt,isa 
    2971 000001e3 6FF5          B         $C$L26,UNC            ; [CPU_] |596| 
    2972                      ; branch occurs ; [] |596| 
    2973 000001e4       $C$L28:    
    2974                      .dwpsn  file "C:/Users/wmj/Desktop/BM1000_v1.1/sw/drivers/drvic/fsm.h",line 585,column 3,is_stmt,isa 
    2975 000001e4 021A          MOVB      ACC,#26               ; [CPU_] |585| 
    2976 000001e5 07D4          ADDL      ACC,*+XAR4[2]         ; [CPU_] |585| 
    2977 000001e6 8AA9          MOVL      XAR4,ACC              ; [CPU_] |585| 
    2978 000001e7 3B01          SETC      SXM                   ; [CPU_] 
    2979 000001e8 85A6          MOV       ACC,AR6               ; [CPU_] |585| 
    2980                      .dwpsn  file "C:/Users/wmj/Desktop/BM1000_v1.1/sw/drivers/drvic/fsm.h",line 587,column 3,is_stmt,isa 
    2981 000001e9 6F51          B         $C$L45,UNC            ; [CPU_] |587| 
    2982                      ; branch occurs ; [] |587| 
    2983 000001ea       $C$L29:    
    2984                      .dwpsn  file "C:/Users/wmj/Desktop/BM1000_v1.1/sw/drivers/drvic/fsm.h",line 536,column 3,is_stmt,isa 
    2985 000001ea 0211          MOVB      ACC,#17               ; [CPU_] |536| 
    2986 000001eb       $C$L30:    
    2987 000001eb 07D4          ADDL      ACC,*+XAR4[2]         ; [CPU_] |536| 
    2988 000001ec 8AA9          MOVL      XAR4,ACC              ; [CPU_] |536| 
    2989 000001ed 7EC4          MOV       *+XAR4[0],AR6         ; [CPU_] |536| 
    2990                      .dwpsn  file "C:/Users/wmj/Desktop/BM1000_v1.1/sw/drivers/drvic/fsm.h",line 538,column 3,is_stmt,isa 
    2991 000001ee 6F54          B         $C$L48,UNC            ; [CPU_] |538| 
    2992                      ; branch occurs ; [] |538| 
    2993 000001ef       $C$L31:    
    2994                      .dwpsn  file "C:/Users/wmj/Desktop/BM1000_v1.1/sw/drivers/drvic/modbus/mb.c",line 686,column 34,is_st
    2995 000001ef 8AD4          MOVL      XAR4,*+XAR4[2]        ; [CPU_] |686| 
    2996 000001f0 92A6          MOV       AL,AR6                ; [CPU_] |686| 
    2997              $C$DW$194       .dwtag  DW_TAG_TI_branch
    2998                      .dwattr $C$DW$194, DW_AT_low_pc(0x00)
    2999                      .dwattr $C$DW$194, DW_AT_name("_FSM_485Edit_State_Box")
    3000                      .dwattr $C$DW$194, DW_AT_TI_call
    3001              
    3002 000001f1 7640!         LCR       #_FSM_485Edit_State_Box ; [CPU_] |686| 
         000001f2 0000 
    3003                      ; call occurs [#_FSM_485Edit_State_Box] ; [] |686| 
    3004                      .dwpsn  file "C:/Users/wmj/Desktop/BM1000_v1.1/sw/drivers/drvic/modbus/mb.c",line 686,column 83,is_st
    3005 000001f3 6F4F          B         $C$L48,UNC            ; [CPU_] |686| 
    3006                      ; branch occurs ; [] |686| 
    3007 000001f4       $C$L32:    
    3008                      .dwpsn  file "C:/Users/wmj/Desktop/BM1000_v1.1/sw/drivers/drvic/fsm.h",line 520,column 3,is_stmt,isa 
    3009 000001f4 0210          MOVB      ACC,#16               ; [CPU_] |520| 
    3010                      .dwpsn  file "C:/Users/wmj/Desktop/BM1000_v1.1/sw/drivers/drvic/fsm.h",line 522,column 3,is_stmt,isa 
TMS320C2000 Assembler PC v15.12.3 Wed Nov 22 01:55:15 2017

Tools Copyright (c) 1996-2015 Texas Instruments Incorporated
C:\Users\wmj\AppData\Local\Temp\1239610                              PAGE   57

    3011 000001f5 6FF6          B         $C$L30,UNC            ; [CPU_] |522| 
    3012                      ; branch occurs ; [] |522| 
    3013 000001f6       $C$L33:    
    3014                      .dwpsn  file "C:/Users/wmj/Desktop/BM1000_v1.1/sw/drivers/drvic/fsm.h",line 553,column 3,is_stmt,isa 
    3015 000001f6 020F          MOVB      ACC,#15               ; [CPU_] |553| 
    3016                      .dwpsn  file "C:/Users/wmj/Desktop/BM1000_v1.1/sw/drivers/drvic/fsm.h",line 555,column 3,is_stmt,isa 
    3017 000001f7 6FF4          B         $C$L30,UNC            ; [CPU_] |555| 
    3018                      ; branch occurs ; [] |555| 
    3019 000001f8       $C$L34:    
    3020                      .dwpsn  file "C:/Users/wmj/Desktop/BM1000_v1.1/sw/drivers/drvic/motor.h",line 616,column 3,is_stmt,is
    3021 000001f8 0244          MOVB      ACC,#68               ; [CPU_] |616| 
    3022                      .dwpsn  file "C:/Users/wmj/Desktop/BM1000_v1.1/sw/drivers/drvic/motor.h",line 618,column 3,is_stmt,is
    3023 000001f9 6F3A          B         $C$L44,UNC            ; [CPU_] |618| 
    3024                      ; branch occurs ; [] |618| 
    3025 000001fa       $C$L35:    
    3026                      .dwpsn  file "C:/Users/wmj/Desktop/BM1000_v1.1/sw/drivers/drvic/motor.h",line 607,column 3,is_stmt,is
    3027 000001fa 0242          MOVB      ACC,#66               ; [CPU_] |607| 
    3028                      .dwpsn  file "C:/Users/wmj/Desktop/BM1000_v1.1/sw/drivers/drvic/motor.h",line 609,column 3,is_stmt,is
    3029 000001fb 6F38          B         $C$L44,UNC            ; [CPU_] |609| 
    3030                      ; branch occurs ; [] |609| 
    3031 000001fc       $C$L36:    
    3032                      .dwpsn  file "C:/Users/wmj/Desktop/BM1000_v1.1/sw/drivers/drvic/motor.h",line 634,column 3,is_stmt,is
    3033 000001fc 0240          MOVB      ACC,#64               ; [CPU_] |634| 
    3034                      .dwpsn  file "C:/Users/wmj/Desktop/BM1000_v1.1/sw/drivers/drvic/motor.h",line 636,column 3,is_stmt,is
    3035 000001fd 6F36          B         $C$L44,UNC            ; [CPU_] |636| 
    3036                      ; branch occurs ; [] |636| 
    3037 000001fe       $C$L37:    
    3038                      .dwpsn  file "C:/Users/wmj/Desktop/BM1000_v1.1/sw/drivers/drvic/motor.h",line 625,column 3,is_stmt,is
    3039 000001fe 023E          MOVB      ACC,#62               ; [CPU_] |625| 
    3040                      .dwpsn  file "C:/Users/wmj/Desktop/BM1000_v1.1/sw/drivers/drvic/motor.h",line 627,column 3,is_stmt,is
    3041 000001ff 6F34          B         $C$L44,UNC            ; [CPU_] |627| 
    3042                      ; branch occurs ; [] |627| 
    3043 00000200       $C$L38:    
    3044 00000200 3B01          SETC      SXM                   ; [CPU_] 
    3045                      .dwpsn  file "C:/Users/wmj/Desktop/BM1000_v1.1/sw/drivers/drvic/motor.h",line 682,column 3,is_stmt,is
    3046 00000201 2BAB          MOV       PL,#0                 ; [CPU_] |682| 
    3047 00000202 28AA          MOV       PH,#384               ; [CPU_] |682| 
         00000203 0180 
    3048 00000204 85A6          MOV       ACC,AR6               ; [CPU_] |682| 
    3049 00000205 28AC          MOV       T,#17                 ; [CPU_] |682| 
         00000206 0011 
    3050 00000207 A9A6          MOVL      XAR6,P                ; [CPU_] |682| 
    3051 00000208 2BAB          MOV       PL,#0                 ; [CPU_] |682| 
    3052 00000209 28AA          MOV       PH,#65152             ; [CPU_] |682| 
         0000020a FE80 
    3053 0000020b 563B          LSLL      ACC,T                 ; [CPU_] |682| 
    3054 0000020c 5650          MINL      ACC,XAR6              ; [CPU_] |682| 
         0000020d 00A6 
    3055 0000020e 5661          MAXL      ACC,P                 ; [CPU_] |682| 
         0000020f 00AB 
    3056 00000210 1EA6          MOVL      XAR6,ACC              ; [CPU_] |682| 
    3057 00000211 0256          MOVB      ACC,#86               ; [CPU_] |682| 
    3058 00000212       $C$L39:    
    3059 00000212 07C4          ADDL      ACC,*+XAR4[0]         ; [CPU_] |682| 
    3060 00000213 8AA9          MOVL      XAR4,ACC              ; [CPU_] |682| 
TMS320C2000 Assembler PC v15.12.3 Wed Nov 22 01:55:15 2017

Tools Copyright (c) 1996-2015 Texas Instruments Incorporated
C:\Users\wmj\AppData\Local\Temp\1239610                              PAGE   58

    3061 00000214 C2C4          MOVL      *+XAR4[0],XAR6        ; [CPU_] |682| 
    3062                      .dwpsn  file "C:/Users/wmj/Desktop/BM1000_v1.1/sw/drivers/drvic/motor.h",line 684,column 3,is_stmt,is
    3063 00000215 6F2D          B         $C$L48,UNC            ; [CPU_] |684| 
    3064                      ; branch occurs ; [] |684| 
    3065 00000216       $C$L40:    
    3066 00000216 3B01          SETC      SXM                   ; [CPU_] 
    3067                      .dwpsn  file "C:/Users/wmj/Desktop/BM1000_v1.1/sw/drivers/drvic/motor.h",line 700,column 3,is_stmt,is
    3068 00000217 85A6          MOV       ACC,AR6               ; [CPU_] |700| 
    3069 00000218 28AC          MOV       T,#17                 ; [CPU_] |700| 
         00000219 0011 
    3070 0000021a 2BAB          MOV       PL,#0                 ; [CPU_] |700| 
    3071 0000021b BE00          MOVB      XAR6,#0               ; [CPU_] |700| 
    3072 0000021c 28AA          MOV       PH,#896               ; [CPU_] |700| 
         0000021d 0380 
    3073 0000021e 563B          LSLL      ACC,T                 ; [CPU_] |700| 
    3074 0000021f 5650          MINL      ACC,P                 ; [CPU_] |700| 
         00000220 00AB 
    3075 00000221 5661          MAXL      ACC,XAR6              ; [CPU_] |700| 
         00000222 00A6 
    3076 00000223 1EA6          MOVL      XAR6,ACC              ; [CPU_] |700| 
    3077 00000224 0222          MOVB      ACC,#34               ; [CPU_] |700| 
    3078                      .dwpsn  file "C:/Users/wmj/Desktop/BM1000_v1.1/sw/drivers/drvic/motor.h",line 702,column 3,is_stmt,is
    3079 00000225 6FED          B         $C$L39,UNC            ; [CPU_] |702| 
    3080                      ; branch occurs ; [] |702| 
    3081 00000226       $C$L41:    
    3082                      .dwpsn  file "C:/Users/wmj/Desktop/BM1000_v1.1/sw/drivers/drvic/motor.h",line 597,column 3,is_stmt,is
    3083 00000226 0220          MOVB      ACC,#32               ; [CPU_] |597| 
    3084 00000227 3B01          SETC      SXM                   ; [CPU_] 
    3085 00000228 28AC          MOV       T,#17                 ; [CPU_] |597| 
         00000229 0011 
    3086 0000022a 07C4          ADDL      ACC,*+XAR4[0]         ; [CPU_] |597| 
    3087 0000022b 8AA9          MOVL      XAR4,ACC              ; [CPU_] |597| 
    3088 0000022c 85A6          MOV       ACC,AR6               ; [CPU_] |597| 
    3089 0000022d 563B          LSLL      ACC,T                 ; [CPU_] |597| 
    3090 0000022e FF43          SFR       ACC,4                 ; [CPU_] |597| 
    3091                      .dwpsn  file "C:/Users/wmj/Desktop/BM1000_v1.1/sw/drivers/drvic/motor.h",line 599,column 3,is_stmt,is
    3092 0000022f 6F0B          B         $C$L45,UNC            ; [CPU_] |599| 
    3093                      ; branch occurs ; [] |599| 
    3094 00000230       $C$L42:    
    3095                      .dwpsn  file "C:/Users/wmj/Desktop/BM1000_v1.1/sw/drivers/drvic/motor.h",line 588,column 3,is_stmt,is
    3096 00000230 021E          MOVB      ACC,#30               ; [CPU_] |588| 
    3097                      .dwpsn  file "C:/Users/wmj/Desktop/BM1000_v1.1/sw/drivers/drvic/motor.h",line 590,column 3,is_stmt,is
    3098 00000231 6F02          B         $C$L44,UNC            ; [CPU_] |590| 
    3099                      ; branch occurs ; [] |590| 
    3100 00000232       $C$L43:    
    3101                      .dwpsn  file "C:/Users/wmj/Desktop/BM1000_v1.1/sw/drivers/drvic/motor.h",line 579,column 3,is_stmt,is
    3102 00000232 021C          MOVB      ACC,#28               ; [CPU_] |579| 
    3103 00000233       $C$L44:    
    3104 00000233 07C4          ADDL      ACC,*+XAR4[0]         ; [CPU_] |579| 
    3105 00000234 3B01          SETC      SXM                   ; [CPU_] 
    3106 00000235 8AA9          MOVL      XAR4,ACC              ; [CPU_] |579| 
    3107 00000236 28AC          MOV       T,#17                 ; [CPU_] |579| 
         00000237 0011 
    3108 00000238 85A6          MOV       ACC,AR6               ; [CPU_] |579| 
    3109 00000239 563B          LSLL      ACC,T                 ; [CPU_] |579| 
TMS320C2000 Assembler PC v15.12.3 Wed Nov 22 01:55:15 2017

Tools Copyright (c) 1996-2015 Texas Instruments Incorporated
C:\Users\wmj\AppData\Local\Temp\1239610                              PAGE   59

    3110 0000023a       $C$L45:    
    3111 0000023a 1EC4          MOVL      *+XAR4[0],ACC         ; [CPU_] |579| 
    3112                      .dwpsn  file "C:/Users/wmj/Desktop/BM1000_v1.1/sw/drivers/drvic/motor.h",line 581,column 3,is_stmt,is
    3113 0000023b 6F07          B         $C$L48,UNC            ; [CPU_] |581| 
    3114                      ; branch occurs ; [] |581| 
    3115 0000023c       $C$L46:    
    3116                      .dwpsn  file "C:/Users/wmj/Desktop/BM1000_v1.1/sw/drivers/drvic/motor.h",line 539,column 4,is_stmt,is
    3117 0000023c 021A          MOVB      ACC,#26               ; [CPU_] |539| 
    3118                      .dwpsn  file "C:/Users/wmj/Desktop/BM1000_v1.1/sw/drivers/drvic/motor.h",line 541,column 4,is_stmt,is
    3119 0000023d 6FF6          B         $C$L44,UNC            ; [CPU_] |541| 
    3120                      ; branch occurs ; [] |541| 
    3121 0000023e       $C$L47:    
    3122                      .dwpsn  file "C:/Users/wmj/Desktop/BM1000_v1.1/sw/drivers/drvic/modbus/mb.c",line 654,column 30,is_st
    3123 0000023e 8AC4          MOVL      XAR4,*+XAR4[0]        ; [CPU_] |654| 
    3124 0000023f 92A6          MOV       AL,AR6                ; [CPU_] |654| 
    3125              $C$DW$195       .dwtag  DW_TAG_TI_branch
    3126                      .dwattr $C$DW$195, DW_AT_low_pc(0x00)
    3127                      .dwattr $C$DW$195, DW_AT_name("_MOTOR_setMotorFlag")
    3128                      .dwattr $C$DW$195, DW_AT_TI_call
    3129              
    3130 00000240 7640!         LCR       #_MOTOR_setMotorFlag  ; [CPU_] |654| 
         00000241 0000 
    3131                      ; call occurs [#_MOTOR_setMotorFlag] ; [] |654| 
    3132 00000242       $C$L48:    
    3133 00000242 86BE          MOVL      XAR2,*--SP            ; [CPU_] 
    3134                      .dwcfi  cfa_offset, -4
    3135                      .dwcfi  restore_reg, 9
    3136 00000243 8BBE          MOVL      XAR1,*--SP            ; [CPU_] 
    3137                      .dwcfi  cfa_offset, -2
    3138                      .dwcfi  restore_reg, 7
    3139              $C$DW$196       .dwtag  DW_TAG_TI_branch
    3140                      .dwattr $C$DW$196, DW_AT_low_pc(0x00)
    3141                      .dwattr $C$DW$196, DW_AT_TI_return
    3142              
    3143 00000244 0006          LRETR     ; [CPU_] 
    3144                      ; return occurs ; [] 
    3145                      .dwattr $C$DW$184, DW_AT_TI_end_file("C:/Users/wmj/Desktop/BM1000_v1.1/sw/drivers/drvic/modbus/mb.c")
    3146                      .dwattr $C$DW$184, DW_AT_TI_end_line(0x2c4)
    3147                      .dwattr $C$DW$184, DW_AT_TI_end_column(0x01)
    3148                      .dwendentry
    3149                      .dwendtag $C$DW$184
    3150              
    3151 00000245               .sect   ".text"
    3152                      .clink
    3153                      .global _MB_FuncWriteCoilsRegister
    3154              
    3155              $C$DW$197       .dwtag  DW_TAG_subprogram
    3156                      .dwattr $C$DW$197, DW_AT_name("MB_FuncWriteCoilsRegister")
    3157                      .dwattr $C$DW$197, DW_AT_low_pc(_MB_FuncWriteCoilsRegister)
    3158                      .dwattr $C$DW$197, DW_AT_high_pc(0x00)
    3159                      .dwattr $C$DW$197, DW_AT_TI_symbol_name("_MB_FuncWriteCoilsRegister")
    3160                      .dwattr $C$DW$197, DW_AT_external
    3161                      .dwattr $C$DW$197, DW_AT_TI_begin_file("C:/Users/wmj/Desktop/BM1000_v1.1/sw/drivers/drvic/modbus/mb.c
    3162                      .dwattr $C$DW$197, DW_AT_TI_begin_line(0x2c7)
    3163                      .dwattr $C$DW$197, DW_AT_TI_begin_column(0x06)
TMS320C2000 Assembler PC v15.12.3 Wed Nov 22 01:55:15 2017

Tools Copyright (c) 1996-2015 Texas Instruments Incorporated
C:\Users\wmj\AppData\Local\Temp\1239610                              PAGE   60

    3164                      .dwattr $C$DW$197, DW_AT_TI_max_frame_size(-2)
    3165                      .dwpsn  file "C:/Users/wmj/Desktop/BM1000_v1.1/sw/drivers/drvic/modbus/mb.c",line 712,column 1,is_stm
    3166              
    3167                      .dwfde $C$DW$CIE, _MB_FuncWriteCoilsRegister
    3168              $C$DW$198       .dwtag  DW_TAG_formal_parameter
    3169                      .dwattr $C$DW$198, DW_AT_name("handle")
    3170                      .dwattr $C$DW$198, DW_AT_TI_symbol_name("_handle")
    3171                      .dwattr $C$DW$198, DW_AT_type(*$C$DW$T$178)
    3172                      .dwattr $C$DW$198, DW_AT_location[DW_OP_reg12]
    3173              
    3174              
    3175              ;***************************************************************
    3176              ;* FNAME: _MB_FuncWriteCoilsRegister    FR SIZE:   0           *
    3177              ;*                                                             *
    3178              ;* FUNCTION ENVIRONMENT                                        *
    3179              ;*                                                             *
    3180              ;* FUNCTION PROPERTIES                                         *
    3181              ;*                            0 Parameter,  0 Auto,  0 SOE     *
    3182              ;***************************************************************
    3183              
    3184              _MB_FuncWriteCoilsRegister:
    3185              ;* AR4   assigned to $O$C1
    3186              ;* AR4   assigned to $O$C2
    3187              ;* AR5   assigned to $O$C3
    3188              ;* AR4   assigned to _handle
    3189              $C$DW$199       .dwtag  DW_TAG_variable
    3190                      .dwattr $C$DW$199, DW_AT_name("handle")
    3191                      .dwattr $C$DW$199, DW_AT_TI_symbol_name("_handle")
    3192                      .dwattr $C$DW$199, DW_AT_type(*$C$DW$T$200)
    3193                      .dwattr $C$DW$199, DW_AT_location[DW_OP_reg12]
    3194              
    3195                      .dwcfi  cfa_offset, -2
    3196                      .dwcfi  save_reg_to_mem, 26, 0
    3197                      .dwpsn  file "C:/Users/wmj/Desktop/BM1000_v1.1/sw/drivers/drvic/modbus/mb.c",line 728,column 3,is_stm
    3198 00000245 D00A          MOVB      XAR0,#10              ; [CPU_] |728| 
    3199 00000246 8394          MOVL      XAR5,*+XAR4[AR0]      ; [CPU_] |728| 
    3200 00000247 5603          MOV       ACC,*+XAR5[2] << #8   ; [CPU_] |728| 
         00000248 08D5 
    3201 00000249 CADD          OR        AL,*+XAR5[3]          ; [CPU_] |728| 
    3202 0000024a 88A9          MOVZ      AR6,AL                ; [CPU_] |728| 
    3203 0000024b 1BA6          CMP       AR6,#8210             ; [CPU_] |728| 
         0000024c 2012 
    3204 0000024d 6230          B         $C$L50,GT             ; [CPU_] |728| 
    3205                      ; branchcc occurs ; [] |728| 
    3206 0000024e 1BA6          CMP       AR6,#8210             ; [CPU_] |728| 
         0000024f 2012 
    3207 00000250 615F          B         $C$L53,EQ             ; [CPU_] |728| 
    3208                      ; branchcc occurs ; [] |728| 
    3209 00000251 1BA6          CMP       AR6,#8195             ; [CPU_] |728| 
         00000252 2003 
    3210 00000253 6217          B         $C$L49,GT             ; [CPU_] |728| 
    3211                      ; branchcc occurs ; [] |728| 
    3212 00000254 1BA6          CMP       AR6,#8195             ; [CPU_] |728| 
         00000255 2003 
    3213 00000256 6179          B         $C$L65,EQ             ; [CPU_] |728| 
TMS320C2000 Assembler PC v15.12.3 Wed Nov 22 01:55:15 2017

Tools Copyright (c) 1996-2015 Texas Instruments Incorporated
C:\Users\wmj\AppData\Local\Temp\1239610                              PAGE   61

    3214                      ; branchcc occurs ; [] |728| 
    3215 00000257 80A6          MOVZ      AR7,AR6               ; [CPU_] |728| 
    3216 00000258 8F40          MOVL      XAR5,#8192            ; [CPU_U] |728| 
         00000259 2000 
    3217 0000025a A0A9          MOVL      ACC,XAR5              ; [CPU_] |728| 
    3218 0000025b 0FA7          CMPL      ACC,XAR7              ; [CPU_] |728| 
    3219 0000025c 617E          B         $C$L71,EQ             ; [CPU_] |728| 
    3220                      ; branchcc occurs ; [] |728| 
    3221 0000025d 80A6          MOVZ      AR7,AR6               ; [CPU_] |728| 
    3222 0000025e 8F40          MOVL      XAR5,#8193            ; [CPU_U] |728| 
         0000025f 2001 
    3223 00000260 A0A9          MOVL      ACC,XAR5              ; [CPU_] |728| 
    3224 00000261 0FA7          CMPL      ACC,XAR7              ; [CPU_] |728| 
    3225 00000262 6173          B         $C$L67,EQ             ; [CPU_] |728| 
    3226                      ; branchcc occurs ; [] |728| 
    3227 00000263 88A6          MOVZ      AR6,AR6               ; [CPU_] |728| 
    3228 00000264 8F40          MOVL      XAR5,#8194            ; [CPU_U] |728| 
         00000265 2002 
    3229 00000266 A0A9          MOVL      ACC,XAR5              ; [CPU_] |728| 
    3230 00000267 0FA6          CMPL      ACC,XAR6              ; [CPU_] |728| 
    3231 00000268 616B          B         $C$L66,EQ             ; [CPU_] |728| 
    3232                      ; branchcc occurs ; [] |728| 
    3233                      .dwcfi  remember_state
    3234              $C$DW$200       .dwtag  DW_TAG_TI_branch
    3235                      .dwattr $C$DW$200, DW_AT_low_pc(0x00)
    3236                      .dwattr $C$DW$200, DW_AT_TI_return
    3237              
    3238 00000269 0006          LRETR     ; [CPU_] 
    3239                      ; return occurs ; [] 
    3240                      .dwcfi  restore_state
    3241 0000026a       $C$L49:    
    3242 0000026a 80A6          MOVZ      AR7,AR6               ; [CPU_] |728| 
    3243 0000026b 8F40          MOVL      XAR5,#8196            ; [CPU_U] |728| 
         0000026c 2004 
    3244 0000026d A0A9          MOVL      ACC,XAR5              ; [CPU_] |728| 
    3245 0000026e 0FA7          CMPL      ACC,XAR7              ; [CPU_] |728| 
    3246 0000026f 615C          B         $C$L64,EQ             ; [CPU_] |728| 
    3247                      ; branchcc occurs ; [] |728| 
    3248 00000270 80A6          MOVZ      AR7,AR6               ; [CPU_] |728| 
    3249 00000271 8F40          MOVL      XAR5,#8208            ; [CPU_U] |728| 
         00000272 2010 
    3250 00000273 A0A9          MOVL      ACC,XAR5              ; [CPU_] |728| 
    3251 00000274 0FA7          CMPL      ACC,XAR7              ; [CPU_] |728| 
    3252 00000275 6154          B         $C$L63,EQ             ; [CPU_] |728| 
    3253                      ; branchcc occurs ; [] |728| 
    3254 00000276 88A6          MOVZ      AR6,AR6               ; [CPU_] |728| 
    3255 00000277 8F40          MOVL      XAR5,#8209            ; [CPU_U] |728| 
         00000278 2011 
    3256 00000279 A0A9          MOVL      ACC,XAR5              ; [CPU_] |728| 
    3257 0000027a 0FA6          CMPL      ACC,XAR6              ; [CPU_] |728| 
    3258 0000027b 614A          B         $C$L62,EQ             ; [CPU_] |728| 
    3259                      ; branchcc occurs ; [] |728| 
    3260                      .dwcfi  remember_state
    3261              $C$DW$201       .dwtag  DW_TAG_TI_branch
    3262                      .dwattr $C$DW$201, DW_AT_low_pc(0x00)
TMS320C2000 Assembler PC v15.12.3 Wed Nov 22 01:55:15 2017

Tools Copyright (c) 1996-2015 Texas Instruments Incorporated
C:\Users\wmj\AppData\Local\Temp\1239610                              PAGE   62

    3263                      .dwattr $C$DW$201, DW_AT_TI_return
    3264              
    3265 0000027c 0006          LRETR     ; [CPU_] 
    3266                      ; return occurs ; [] 
    3267                      .dwcfi  restore_state
    3268 0000027d       $C$L50:    
    3269 0000027d 1BA6          CMP       AR6,#8225             ; [CPU_] |728| 
         0000027e 2021 
    3270 0000027f 6217          B         $C$L51,GT             ; [CPU_] |728| 
    3271                      ; branchcc occurs ; [] |728| 
    3272 00000280 1BA6          CMP       AR6,#8225             ; [CPU_] |728| 
         00000281 2021 
    3273 00000282 6139          B         $C$L57,EQ             ; [CPU_] |728| 
    3274                      ; branchcc occurs ; [] |728| 
    3275 00000283 80A6          MOVZ      AR7,AR6               ; [CPU_] |728| 
    3276 00000284 8F40          MOVL      XAR5,#8217            ; [CPU_U] |728| 
         00000285 2019 
    3277 00000286 A0A9          MOVL      ACC,XAR5              ; [CPU_] |728| 
    3278 00000287 0FA7          CMPL      ACC,XAR7              ; [CPU_] |728| 
    3279 00000288 613A          B         $C$L60,EQ             ; [CPU_] |728| 
    3280                      ; branchcc occurs ; [] |728| 
    3281 00000289 80A6          MOVZ      AR7,AR6               ; [CPU_] |728| 
    3282 0000028a 8F40          MOVL      XAR5,#8220            ; [CPU_U] |728| 
         0000028b 201C 
    3283 0000028c A0A9          MOVL      ACC,XAR5              ; [CPU_] |728| 
    3284 0000028d 0FA7          CMPL      ACC,XAR7              ; [CPU_] |728| 
    3285 0000028e 6132          B         $C$L59,EQ             ; [CPU_] |728| 
    3286                      ; branchcc occurs ; [] |728| 
    3287 0000028f 88A6          MOVZ      AR6,AR6               ; [CPU_] |728| 
    3288 00000290 8F40          MOVL      XAR5,#8224            ; [CPU_U] |728| 
         00000291 2020 
    3289 00000292 A0A9          MOVL      ACC,XAR5              ; [CPU_] |728| 
    3290 00000293 0FA6          CMPL      ACC,XAR6              ; [CPU_] |728| 
    3291 00000294 612A          B         $C$L58,EQ             ; [CPU_] |728| 
    3292                      ; branchcc occurs ; [] |728| 
    3293                      .dwcfi  remember_state
    3294              $C$DW$202       .dwtag  DW_TAG_TI_branch
    3295                      .dwattr $C$DW$202, DW_AT_low_pc(0x00)
    3296                      .dwattr $C$DW$202, DW_AT_TI_return
    3297              
    3298 00000295 0006          LRETR     ; [CPU_] 
    3299                      ; return occurs ; [] 
    3300                      .dwcfi  restore_state
    3301 00000296       $C$L51:    
    3302 00000296 80A6          MOVZ      AR7,AR6               ; [CPU_] |728| 
    3303 00000297 8F40          MOVL      XAR5,#8226            ; [CPU_U] |728| 
         00000298 2022 
    3304 00000299 A0A9          MOVL      ACC,XAR5              ; [CPU_] |728| 
    3305 0000029a 0FA7          CMPL      ACC,XAR7              ; [CPU_] |728| 
    3306 0000029b 610E          B         $C$L52,EQ             ; [CPU_] |728| 
    3307                      ; branchcc occurs ; [] |728| 
    3308 0000029c 80A6          MOVZ      AR7,AR6               ; [CPU_] |728| 
    3309 0000029d 8F40          MOVL      XAR5,#8233            ; [CPU_U] |728| 
         0000029e 2029 
    3310 0000029f A0A9          MOVL      ACC,XAR5              ; [CPU_] |728| 
TMS320C2000 Assembler PC v15.12.3 Wed Nov 22 01:55:15 2017

Tools Copyright (c) 1996-2015 Texas Instruments Incorporated
C:\Users\wmj\AppData\Local\Temp\1239610                              PAGE   63

    3311 000002a0 0FA7          CMPL      ACC,XAR7              ; [CPU_] |728| 
    3312 000002a1 6117          B         $C$L55,EQ             ; [CPU_] |728| 
    3313                      ; branchcc occurs ; [] |728| 
    3314 000002a2 88A6          MOVZ      AR6,AR6               ; [CPU_] |728| 
    3315 000002a3 8F40          MOVL      XAR5,#8236            ; [CPU_U] |728| 
         000002a4 202C 
    3316 000002a5 A0A9          MOVL      ACC,XAR5              ; [CPU_] |728| 
    3317 000002a6 0FA6          CMPL      ACC,XAR6              ; [CPU_] |728| 
    3318 000002a7 610F          B         $C$L54,EQ             ; [CPU_] |728| 
    3319                      ; branchcc occurs ; [] |728| 
    3320                      .dwcfi  remember_state
    3321              $C$DW$203       .dwtag  DW_TAG_TI_branch
    3322                      .dwattr $C$DW$203, DW_AT_low_pc(0x00)
    3323                      .dwattr $C$DW$203, DW_AT_TI_return
    3324              
    3325 000002a8 0006          LRETR     ; [CPU_] 
    3326                      ; return occurs ; [] 
    3327                      .dwcfi  restore_state
    3328 000002a9       $C$L52:    
    3329                      .dwpsn  file "C:/Users/wmj/Desktop/BM1000_v1.1/sw/drivers/drvic/motor.h",line 532,column 3,is_stmt,is
    3330 000002a9 8AC4          MOVL      XAR4,*+XAR4[0]        ; [CPU_] |532| 
    3331 000002aa 92C4          MOV       AL,*+XAR4[0]          ; [CPU_] |532| 
    3332 000002ab 6034          B         $C$L74,NEQ            ; [CPU_] |532| 
    3333                      ; branchcc occurs ; [] |532| 
    3334                      .dwcfi  remember_state
    3335                      .dwpsn  file "C:/Users/wmj/Desktop/BM1000_v1.1/sw/drivers/drvic/motor.h",line 506,column 3,is_stmt,is
    3336 000002ac D011          MOVB      XAR0,#17              ; [CPU_] |506| 
    3337 000002ad 2B94          MOV       *+XAR4[AR0],#0        ; [CPU_] |506| 
    3338              $C$DW$204       .dwtag  DW_TAG_TI_branch
    3339                      .dwattr $C$DW$204, DW_AT_low_pc(0x00)
    3340                      .dwattr $C$DW$204, DW_AT_TI_return
    3341              
    3342 000002ae 0006          LRETR     ; [CPU_] 
    3343                      ; return occurs ; [] 
    3344                      .dwcfi  restore_state
    3345 000002af       $C$L53:    
    3346                      .dwcfi  remember_state
    3347                      .dwpsn  file "C:/Users/wmj/Desktop/BM1000_v1.1/sw/drivers/drvic/motor.h",line 532,column 3,is_stmt,is
    3348 000002af 8AC4          MOVL      XAR4,*+XAR4[0]        ; [CPU_] |532| 
    3349 000002b0 92C4          MOV       AL,*+XAR4[0]          ; [CPU_] |532| 
    3350                      .dwpsn  file "C:/Users/wmj/Desktop/BM1000_v1.1/sw/drivers/drvic/motor.h",line 497,column 3,is_stmt,is
    3351 000002b1 56B1          MOVB      XAR0,#17,EQ           ; [CPU_] |497| 
         000002b2 11A0 
    3352 000002b3 56B1          MOVB      *+XAR4[AR0],#1,EQ     ; [CPU_] |497| 
         000002b4 0194 
    3353              $C$DW$205       .dwtag  DW_TAG_TI_branch
    3354                      .dwattr $C$DW$205, DW_AT_low_pc(0x00)
    3355                      .dwattr $C$DW$205, DW_AT_TI_return
    3356              
    3357 000002b5 0006          LRETR     ; [CPU_] 
    3358                      ; return occurs ; [] 
    3359                      .dwcfi  restore_state
    3360 000002b6       $C$L54:    
    3361                      .dwpsn  file "C:/Users/wmj/Desktop/BM1000_v1.1/sw/drivers/drvic/motor.h",line 469,column 3,is_stmt,is
    3362 000002b6 020C          MOVB      ACC,#12               ; [CPU_] |469| 
TMS320C2000 Assembler PC v15.12.3 Wed Nov 22 01:55:15 2017

Tools Copyright (c) 1996-2015 Texas Instruments Incorporated
C:\Users\wmj\AppData\Local\Temp\1239610                              PAGE   64

    3363                      .dwpsn  file "C:/Users/wmj/Desktop/BM1000_v1.1/sw/drivers/drvic/motor.h",line 471,column 3,is_stmt,is
    3364 000002b7 6F02          B         $C$L56,UNC            ; [CPU_] |471| 
    3365                      ; branch occurs ; [] |471| 
    3366 000002b8       $C$L55:    
    3367                      .dwpsn  file "C:/Users/wmj/Desktop/BM1000_v1.1/sw/drivers/drvic/motor.h",line 450,column 3,is_stmt,is
    3368 000002b8 0208          MOVB      ACC,#8                ; [CPU_] |450| 
    3369 000002b9       $C$L56:    
    3370 000002b9 07C4          ADDL      ACC,*+XAR4[0]         ; [CPU_] |450| 
    3371                      .dwpsn  file "C:/Users/wmj/Desktop/BM1000_v1.1/sw/drivers/drvic/motor.h",line 452,column 3,is_stmt,is
    3372 000002ba 6F1D          B         $C$L69,UNC            ; [CPU_] |452| 
    3373                      ; branch occurs ; [] |452| 
    3374 000002bb       $C$L57:    
    3375                      .dwcfi  remember_state
    3376                      .dwpsn  file "C:/Users/wmj/Desktop/BM1000_v1.1/sw/drivers/drvic/motor.h",line 430,column 3,is_stmt,is
    3377 000002bb 8AC4          MOVL      XAR4,*+XAR4[0]        ; [CPU_] |430| 
    3378 000002bc 2BCC          MOV       *+XAR4[1],#0          ; [CPU_] |430| 
    3379              $C$DW$206       .dwtag  DW_TAG_TI_branch
    3380                      .dwattr $C$DW$206, DW_AT_low_pc(0x00)
    3381                      .dwattr $C$DW$206, DW_AT_TI_return
    3382              
    3383 000002bd 0006          LRETR     ; [CPU_] 
    3384                      ; return occurs ; [] 
    3385                      .dwcfi  restore_state
    3386 000002be       $C$L58:    
    3387                      .dwpsn  file "C:/Users/wmj/Desktop/BM1000_v1.1/sw/drivers/drvic/motor.h",line 412,column 3,is_stmt,is
    3388 000002be 8AC4          MOVL      XAR4,*+XAR4[0]        ; [CPU_] |412| 
    3389                      .dwpsn  file "C:/Users/wmj/Desktop/BM1000_v1.1/sw/drivers/drvic/motor.h",line 414,column 3,is_stmt,is
    3390 000002bf 6F19          B         $C$L70,UNC            ; [CPU_] |414| 
    3391                      ; branch occurs ; [] |414| 
    3392 000002c0       $C$L59:    
    3393                      .dwpsn  file "C:/Users/wmj/Desktop/BM1000_v1.1/sw/drivers/drvic/motor.h",line 460,column 3,is_stmt,is
    3394 000002c0 020C          MOVB      ACC,#12               ; [CPU_] |460| 
    3395                      .dwpsn  file "C:/Users/wmj/Desktop/BM1000_v1.1/sw/drivers/drvic/motor.h",line 462,column 3,is_stmt,is
    3396 000002c1 6F02          B         $C$L61,UNC            ; [CPU_] |462| 
    3397                      ; branch occurs ; [] |462| 
    3398 000002c2       $C$L60:    
    3399                      .dwpsn  file "C:/Users/wmj/Desktop/BM1000_v1.1/sw/drivers/drvic/motor.h",line 440,column 3,is_stmt,is
    3400 000002c2 0208          MOVB      ACC,#8                ; [CPU_] |440| 
    3401 000002c3       $C$L61:    
    3402 000002c3 07C4          ADDL      ACC,*+XAR4[0]         ; [CPU_] |440| 
    3403                      .dwpsn  file "C:/Users/wmj/Desktop/BM1000_v1.1/sw/drivers/drvic/motor.h",line 442,column 3,is_stmt,is
    3404 000002c4 6F18          B         $C$L72,UNC            ; [CPU_] |442| 
    3405                      ; branch occurs ; [] |442| 
    3406 000002c5       $C$L62:    
    3407                      .dwcfi  remember_state
    3408                      .dwpsn  file "C:/Users/wmj/Desktop/BM1000_v1.1/sw/drivers/drvic/motor.h",line 421,column 3,is_stmt,is
    3409 000002c5 8AC4          MOVL      XAR4,*+XAR4[0]        ; [CPU_] |421| 
    3410 000002c6 56BF          MOVB      *+XAR4[1],#1,UNC      ; [CPU_] |421| 
         000002c7 01CC 
    3411              $C$DW$207       .dwtag  DW_TAG_TI_branch
    3412                      .dwattr $C$DW$207, DW_AT_low_pc(0x00)
    3413                      .dwattr $C$DW$207, DW_AT_TI_return
    3414              
    3415 000002c8 0006          LRETR     ; [CPU_] 
    3416                      ; return occurs ; [] 
TMS320C2000 Assembler PC v15.12.3 Wed Nov 22 01:55:15 2017

Tools Copyright (c) 1996-2015 Texas Instruments Incorporated
C:\Users\wmj\AppData\Local\Temp\1239610                              PAGE   65

    3417                      .dwcfi  restore_state
    3418 000002c9       $C$L63:    
    3419                      .dwpsn  file "C:/Users/wmj/Desktop/BM1000_v1.1/sw/drivers/drvic/motor.h",line 403,column 3,is_stmt,is
    3420 000002c9 8AC4          MOVL      XAR4,*+XAR4[0]        ; [CPU_] |403| 
    3421                      .dwpsn  file "C:/Users/wmj/Desktop/BM1000_v1.1/sw/drivers/drvic/motor.h",line 405,column 3,is_stmt,is
    3422 000002ca 6F13          B         $C$L73,UNC            ; [CPU_] |405| 
    3423                      ; branch occurs ; [] |405| 
    3424 000002cb       $C$L64:    
    3425                      .dwcfi  remember_state
    3426                      .dwpsn  file "C:/Users/wmj/Desktop/BM1000_v1.1/sw/drivers/drvic/modbus/mb.c",line 736,column 32,is_st
    3427 000002cb 8AD4          MOVL      XAR4,*+XAR4[2]        ; [CPU_] |736| 
    3428              $C$DW$208       .dwtag  DW_TAG_TI_branch
    3429                      .dwattr $C$DW$208, DW_AT_low_pc(0x00)
    3430                      .dwattr $C$DW$208, DW_AT_name("_FSM_ShutDowm")
    3431                      .dwattr $C$DW$208, DW_AT_TI_call
    3432              
    3433 000002cc 7640!         LCR       #_FSM_ShutDowm        ; [CPU_] |736| 
         000002cd 0000 
    3434                      ; call occurs [#_FSM_ShutDowm] ; [] |736| 
    3435              $C$DW$209       .dwtag  DW_TAG_TI_branch
    3436                      .dwattr $C$DW$209, DW_AT_low_pc(0x00)
    3437                      .dwattr $C$DW$209, DW_AT_TI_return
    3438              
    3439 000002ce 0006          LRETR     ; [CPU_] 
    3440                      ; return occurs ; [] 
    3441                      .dwcfi  restore_state
    3442 000002cf       $C$L65:    
    3443                      .dwcfi  remember_state
    3444                      .dwpsn  file "C:/Users/wmj/Desktop/BM1000_v1.1/sw/drivers/drvic/modbus/mb.c",line 735,column 38,is_st
    3445 000002cf 8AD4          MOVL      XAR4,*+XAR4[2]        ; [CPU_] |735| 
    3446              $C$DW$210       .dwtag  DW_TAG_TI_branch
    3447                      .dwattr $C$DW$210, DW_AT_low_pc(0x00)
    3448                      .dwattr $C$DW$210, DW_AT_name("_FSM_clrOverCurrentReg")
    3449                      .dwattr $C$DW$210, DW_AT_TI_call
    3450              
    3451 000002d0 7640!         LCR       #_FSM_clrOverCurrentReg ; [CPU_] |735| 
         000002d1 0000 
    3452                      ; call occurs [#_FSM_clrOverCurrentReg] ; [] |735| 
    3453              $C$DW$211       .dwtag  DW_TAG_TI_branch
    3454                      .dwattr $C$DW$211, DW_AT_low_pc(0x00)
    3455                      .dwattr $C$DW$211, DW_AT_TI_return
    3456              
    3457 000002d2 0006          LRETR     ; [CPU_] 
    3458                      ; return occurs ; [] 
    3459                      .dwcfi  restore_state
    3460 000002d3       $C$L66:    
    3461                      .dwpsn  file "C:/Users/wmj/Desktop/BM1000_v1.1/sw/drivers/drvic/fsm.h",line 504,column 3,is_stmt,isa 
    3462 000002d3 020B          MOVB      ACC,#11               ; [CPU_] |504| 
    3463                      .dwpsn  file "C:/Users/wmj/Desktop/BM1000_v1.1/sw/drivers/drvic/fsm.h",line 506,column 3,is_stmt,isa 
    3464 000002d4 6F02          B         $C$L68,UNC            ; [CPU_] |506| 
    3465                      ; branch occurs ; [] |506| 
    3466 000002d5       $C$L67:    
    3467                      .dwcfi  remember_state
    3468                      .dwpsn  file "C:/Users/wmj/Desktop/BM1000_v1.1/sw/drivers/drvic/fsm.h",line 486,column 3,is_stmt,isa 
    3469 000002d5 021E          MOVB      ACC,#30               ; [CPU_] |486| 
TMS320C2000 Assembler PC v15.12.3 Wed Nov 22 01:55:15 2017

Tools Copyright (c) 1996-2015 Texas Instruments Incorporated
C:\Users\wmj\AppData\Local\Temp\1239610                              PAGE   66

    3470 000002d6       $C$L68:    
    3471 000002d6 07D4          ADDL      ACC,*+XAR4[2]         ; [CPU_] |486| 
    3472 000002d7       $C$L69:    
    3473 000002d7 8AA9          MOVL      XAR4,ACC              ; [CPU_] |486| 
    3474 000002d8       $C$L70:    
    3475 000002d8 2BC4          MOV       *+XAR4[0],#0          ; [CPU_] |486| 
    3476              $C$DW$212       .dwtag  DW_TAG_TI_branch
    3477                      .dwattr $C$DW$212, DW_AT_low_pc(0x00)
    3478                      .dwattr $C$DW$212, DW_AT_TI_return
    3479              
    3480 000002d9 0006          LRETR     ; [CPU_] 
    3481                      ; return occurs ; [] 
    3482                      .dwcfi  restore_state
    3483 000002da       $C$L71:    
    3484                      .dwpsn  file "C:/Users/wmj/Desktop/BM1000_v1.1/sw/drivers/drvic/fsm.h",line 477,column 3,is_stmt,isa 
    3485 000002da 021E          MOVB      ACC,#30               ; [CPU_] |477| 
    3486 000002db 07D4          ADDL      ACC,*+XAR4[2]         ; [CPU_] |477| 
    3487 000002dc       $C$L72:    
    3488 000002dc 8AA9          MOVL      XAR4,ACC              ; [CPU_] |477| 
    3489 000002dd       $C$L73:    
    3490 000002dd 56BF          MOVB      *+XAR4[0],#1,UNC      ; [CPU_] |477| 
         000002de 01C4 
    3491              $C$L74:    
    3492              $C$DW$213       .dwtag  DW_TAG_TI_branch
    3493                      .dwattr $C$DW$213, DW_AT_low_pc(0x00)
    3494                      .dwattr $C$DW$213, DW_AT_TI_return
    3495              
    3496 000002df 0006          LRETR     ; [CPU_] 
    3497                      ; return occurs ; [] 
    3498                      .dwattr $C$DW$197, DW_AT_TI_end_file("C:/Users/wmj/Desktop/BM1000_v1.1/sw/drivers/drvic/modbus/mb.c")
    3499                      .dwattr $C$DW$197, DW_AT_TI_end_line(0x314)
    3500                      .dwattr $C$DW$197, DW_AT_TI_end_column(0x01)
    3501                      .dwendentry
    3502                      .dwendtag $C$DW$197
    3503              
    3504 000002e0               .sect   ".text"
    3505                      .clink
    3506                      .global _MB_FloatTransToInt
    3507              
    3508              $C$DW$214       .dwtag  DW_TAG_subprogram
    3509                      .dwattr $C$DW$214, DW_AT_name("MB_FloatTransToInt")
    3510                      .dwattr $C$DW$214, DW_AT_low_pc(_MB_FloatTransToInt)
    3511                      .dwattr $C$DW$214, DW_AT_high_pc(0x00)
    3512                      .dwattr $C$DW$214, DW_AT_TI_symbol_name("_MB_FloatTransToInt")
    3513                      .dwattr $C$DW$214, DW_AT_external
    3514                      .dwattr $C$DW$214, DW_AT_type(*$C$DW$T$63)
    3515                      .dwattr $C$DW$214, DW_AT_TI_begin_file("C:/Users/wmj/Desktop/BM1000_v1.1/sw/drivers/drvic/modbus/mb.c
    3516                      .dwattr $C$DW$214, DW_AT_TI_begin_line(0x211)
    3517                      .dwattr $C$DW$214, DW_AT_TI_begin_column(0x09)
    3518                      .dwattr $C$DW$214, DW_AT_TI_max_frame_size(-10)
    3519                      .dwpsn  file "C:/Users/wmj/Desktop/BM1000_v1.1/sw/drivers/drvic/modbus/mb.c",line 530,column 1,is_stm
    3520              
    3521                      .dwfde $C$DW$CIE, _MB_FloatTransToInt
    3522              $C$DW$215       .dwtag  DW_TAG_formal_parameter
    3523                      .dwattr $C$DW$215, DW_AT_name("Data")
TMS320C2000 Assembler PC v15.12.3 Wed Nov 22 01:55:15 2017

Tools Copyright (c) 1996-2015 Texas Instruments Incorporated
C:\Users\wmj\AppData\Local\Temp\1239610                              PAGE   67

    3524                      .dwattr $C$DW$215, DW_AT_TI_symbol_name("_Data")
    3525                      .dwattr $C$DW$215, DW_AT_type(*$C$DW$T$16)
    3526                      .dwattr $C$DW$215, DW_AT_location[DW_OP_reg0]
    3527              
    3528              
    3529              ;***************************************************************
    3530              ;* FNAME: _MB_FloatTransToInt           FR SIZE:   8           *
    3531              ;*                                                             *
    3532              ;* FUNCTION ENVIRONMENT                                        *
    3533              ;*                                                             *
    3534              ;* FUNCTION PROPERTIES                                         *
    3535              ;*                            0 Parameter,  8 Auto,  0 SOE     *
    3536              ;***************************************************************
    3537              
    3538 000002e0       _MB_FloatTransToInt:
    3539                      .dwcfi  cfa_offset, -2
    3540                      .dwcfi  save_reg_to_mem, 26, 0
    3541 000002e0 FE08          ADDB      SP,#8                 ; [CPU_U] 
    3542                      .dwcfi  cfa_offset, -10
    3543                      .dwpsn  file "C:/Users/wmj/Desktop/BM1000_v1.1/sw/drivers/drvic/modbus/mb.c",line 535,column 4,is_stm
    3544 000002e1 5CAD          MOVZ      AR4,SP                ; [CPU_] |535| 
    3545 000002e2 DC88          SUBB      XAR4,#8               ; [CPU_U] |535| 
    3546 000002e3 88A4          MOVZ      AR6,AR4               ; [CPU_] |535| 
    3547              $C$DW$216       .dwtag  DW_TAG_TI_branch
    3548                      .dwattr $C$DW$216, DW_AT_low_pc(0x00)
    3549                      .dwattr $C$DW$216, DW_AT_name("FS$$TOFD")
    3550                      .dwattr $C$DW$216, DW_AT_TI_call
    3551              
    3552 000002e4 7640!         LCR       #FS$$TOFD             ; [CPU_] |535| 
         000002e5 0000 
    3553                      ; call occurs [#FS$$TOFD] ; [] |535| 
    3554 000002e6 5DAD          MOVZ      AR5,SP                ; [CPU_] |535| 
    3555 000002e7 5CAD          MOVZ      AR4,SP                ; [CPU_] |535| 
    3556 000002e8 DD84          SUBB      XAR5,#4               ; [CPU_U] |535| 
    3557 000002e9 DC88          SUBB      XAR4,#8               ; [CPU_U] |535| 
    3558 000002ea 88A5          MOVZ      AR6,AR5               ; [CPU_] |535| 
    3559 000002eb 5CA4          MOVZ      AR4,AR4               ; [CPU_] |535| 
    3560 000002ec 8F40+         MOVL      XAR5,#$C$FL1          ; [CPU_U] |535| 
         000002ed 0000 
    3561              $C$DW$217       .dwtag  DW_TAG_TI_branch
    3562                      .dwattr $C$DW$217, DW_AT_low_pc(0x00)
    3563                      .dwattr $C$DW$217, DW_AT_name("FD$$MPY")
    3564                      .dwattr $C$DW$217, DW_AT_TI_call
    3565              
    3566 000002ee 7640!         LCR       #FD$$MPY              ; [CPU_] |535| 
         000002ef 0000 
    3567                      ; call occurs [#FD$$MPY] ; [] |535| 
    3568 000002f0 5CAD          MOVZ      AR4,SP                ; [CPU_] |535| 
    3569 000002f1 DC84          SUBB      XAR4,#4               ; [CPU_U] |535| 
    3570 000002f2 5CA4          MOVZ      AR4,AR4               ; [CPU_] |535| 
    3571              $C$DW$218       .dwtag  DW_TAG_TI_branch
    3572                      .dwattr $C$DW$218, DW_AT_low_pc(0x00)
    3573                      .dwattr $C$DW$218, DW_AT_name("FD$$TOL")
    3574                      .dwattr $C$DW$218, DW_AT_TI_call
    3575              
TMS320C2000 Assembler PC v15.12.3 Wed Nov 22 01:55:15 2017

Tools Copyright (c) 1996-2015 Texas Instruments Incorporated
C:\Users\wmj\AppData\Local\Temp\1239610                              PAGE   68

    3576 000002f3 7640!         LCR       #FD$$TOL              ; [CPU_] |535| 
         000002f4 0000 
    3577                      ; call occurs [#FD$$TOL] ; [] |535| 
    3578 000002f5 0EA8          MOVU      ACC,AH                ; [CPU_] |535| 
    3579 000002f6 FE88          SUBB      SP,#8                 ; [CPU_U] 
    3580                      .dwcfi  cfa_offset, -2
    3581              $C$DW$219       .dwtag  DW_TAG_TI_branch
    3582                      .dwattr $C$DW$219, DW_AT_low_pc(0x00)
    3583                      .dwattr $C$DW$219, DW_AT_TI_return
    3584              
    3585 000002f7 0006          LRETR     ; [CPU_] 
    3586                      ; return occurs ; [] 
    3587                      .dwattr $C$DW$214, DW_AT_TI_end_file("C:/Users/wmj/Desktop/BM1000_v1.1/sw/drivers/drvic/modbus/mb.c")
    3588                      .dwattr $C$DW$214, DW_AT_TI_end_line(0x218)
    3589                      .dwattr $C$DW$214, DW_AT_TI_end_column(0x01)
    3590                      .dwendentry
    3591                      .dwendtag $C$DW$214
    3592              
    3593 000002f8               .sect   ".text"
    3594                      .clink
    3595                      .global _MB_FuncReadHoldingRegister
    3596              
    3597              $C$DW$220       .dwtag  DW_TAG_subprogram
    3598                      .dwattr $C$DW$220, DW_AT_name("MB_FuncReadHoldingRegister")
    3599                      .dwattr $C$DW$220, DW_AT_low_pc(_MB_FuncReadHoldingRegister)
    3600                      .dwattr $C$DW$220, DW_AT_high_pc(0x00)
    3601                      .dwattr $C$DW$220, DW_AT_TI_symbol_name("_MB_FuncReadHoldingRegister")
    3602                      .dwattr $C$DW$220, DW_AT_external
    3603                      .dwattr $C$DW$220, DW_AT_TI_begin_file("C:/Users/wmj/Desktop/BM1000_v1.1/sw/drivers/drvic/modbus/mb.c
    3604                      .dwattr $C$DW$220, DW_AT_TI_begin_line(0x21d)
    3605                      .dwattr $C$DW$220, DW_AT_TI_begin_column(0x06)
    3606                      .dwattr $C$DW$220, DW_AT_TI_max_frame_size(-6)
    3607                      .dwpsn  file "C:/Users/wmj/Desktop/BM1000_v1.1/sw/drivers/drvic/modbus/mb.c",line 542,column 1,is_stm
    3608              
    3609                      .dwfde $C$DW$CIE, _MB_FuncReadHoldingRegister
    3610              $C$DW$221       .dwtag  DW_TAG_formal_parameter
    3611                      .dwattr $C$DW$221, DW_AT_name("handle")
    3612                      .dwattr $C$DW$221, DW_AT_TI_symbol_name("_handle")
    3613                      .dwattr $C$DW$221, DW_AT_type(*$C$DW$T$178)
    3614                      .dwattr $C$DW$221, DW_AT_location[DW_OP_reg12]
    3615              
    3616              
    3617              ;***************************************************************
    3618              ;* FNAME: _MB_FuncReadHoldingRegister   FR SIZE:   4           *
    3619              ;*                                                             *
    3620              ;* FUNCTION ENVIRONMENT                                        *
    3621              ;*                                                             *
    3622              ;* FUNCTION PROPERTIES                                         *
    3623              ;*                            0 Parameter,  0 Auto,  4 SOE     *
    3624              ;***************************************************************
    3625              
    3626              _MB_FuncReadHoldingRegister:
    3627              ;* AR4   assigned to $O$C23
    3628              ;* AR4   assigned to $O$C24
    3629              ;* AR4   assigned to $O$C25
TMS320C2000 Assembler PC v15.12.3 Wed Nov 22 01:55:15 2017

Tools Copyright (c) 1996-2015 Texas Instruments Incorporated
C:\Users\wmj\AppData\Local\Temp\1239610                              PAGE   69

    3630              ;* AR6   assigned to _Temp_int
    3631              $C$DW$222       .dwtag  DW_TAG_variable
    3632                      .dwattr $C$DW$222, DW_AT_name("Temp_int")
    3633                      .dwattr $C$DW$222, DW_AT_TI_symbol_name("_Temp_int")
    3634                      .dwattr $C$DW$222, DW_AT_type(*$C$DW$T$63)
    3635                      .dwattr $C$DW$222, DW_AT_location[DW_OP_reg16]
    3636              
    3637              ;* AR6   assigned to _Temp_int
    3638              $C$DW$223       .dwtag  DW_TAG_variable
    3639                      .dwattr $C$DW$223, DW_AT_name("Temp_int")
    3640                      .dwattr $C$DW$223, DW_AT_TI_symbol_name("_Temp_int")
    3641                      .dwattr $C$DW$223, DW_AT_type(*$C$DW$T$63)
    3642                      .dwattr $C$DW$223, DW_AT_location[DW_OP_reg16]
    3643              
    3644              ;* AR6   assigned to _RegData
    3645              $C$DW$224       .dwtag  DW_TAG_variable
    3646                      .dwattr $C$DW$224, DW_AT_name("RegData")
    3647                      .dwattr $C$DW$224, DW_AT_TI_symbol_name("_RegData")
    3648                      .dwattr $C$DW$224, DW_AT_type(*$C$DW$T$21)
    3649                      .dwattr $C$DW$224, DW_AT_location[DW_OP_reg16]
    3650              
    3651              ;* AR2   assigned to _handle
    3652              $C$DW$225       .dwtag  DW_TAG_variable
    3653                      .dwattr $C$DW$225, DW_AT_name("handle")
    3654                      .dwattr $C$DW$225, DW_AT_TI_symbol_name("_handle")
    3655                      .dwattr $C$DW$225, DW_AT_type(*$C$DW$T$200)
    3656                      .dwattr $C$DW$225, DW_AT_location[DW_OP_reg8]
    3657              
    3658              ;* AR1   assigned to $O$U2
    3659                      .dwcfi  cfa_offset, -2
    3660                      .dwcfi  save_reg_to_mem, 26, 0
    3661 000002f8 B2BD          MOVL      *SP++,XAR1            ; [CPU_] 
    3662                      .dwcfi  save_reg_to_mem, 7, 2
    3663                      .dwcfi  cfa_offset, -4
    3664 000002f9 AABD          MOVL      *SP++,XAR2            ; [CPU_] 
    3665                      .dwcfi  save_reg_to_mem, 9, 4
    3666                      .dwcfi  cfa_offset, -6
    3667 000002fa 86A4          MOVL      XAR2,XAR4             ; [CPU_] |542| 
    3668                      .dwpsn  file "C:/Users/wmj/Desktop/BM1000_v1.1/sw/drivers/drvic/modbus/mb.c",line 553,column 3,is_stm
    3669 000002fb D00A          MOVB      XAR0,#10              ; [CPU_] |553| 
    3670 000002fc 8A92          MOVL      XAR4,*+XAR2[AR0]      ; [CPU_] |553| 
    3671 000002fd 8BA4          MOVL      XAR1,XAR4             ; [CPU_] |553| 
    3672 000002fe 5603          MOV       ACC,*+XAR4[2] << #8   ; [CPU_] |553| 
         000002ff 08D4 
    3673 00000300 D903          ADDB      XAR1,#3               ; [CPU_] |553| 
    3674 00000301 CAC1          OR        AL,*+XAR1[0]          ; [CPU_] |553| 
    3675 00000302 88A9          MOVZ      AR6,AL                ; [CPU_] |553| 
    3676 00000303 5231          CMPB      AL,#49                ; [CPU_] |553| 
    3677 00000304 6259          B         $C$L80,GT             ; [CPU_] |553| 
    3678                      ; branchcc occurs ; [] |553| 
    3679 00000305 5231          CMPB      AL,#49                ; [CPU_] |553| 
    3680 00000306 FFE1          B         $C$L107,EQ            ; [CPU_] |553| 
         00000307 0102 
    3681                      ; branchcc occurs ; [] |553| 
    3682 00000308 5212          CMPB      AL,#18                ; [CPU_] |553| 
TMS320C2000 Assembler PC v15.12.3 Wed Nov 22 01:55:15 2017

Tools Copyright (c) 1996-2015 Texas Instruments Incorporated
C:\Users\wmj\AppData\Local\Temp\1239610                              PAGE   70

    3683 00000309 622C          B         $C$L77,GT             ; [CPU_] |553| 
    3684                      ; branchcc occurs ; [] |553| 
    3685 0000030a 5212          CMPB      AL,#18                ; [CPU_] |553| 
    3686 0000030b FFE1          B         $C$L121,EQ            ; [CPU_] |553| 
         0000030c 0123 
    3687                      ; branchcc occurs ; [] |553| 
    3688 0000030d 5205          CMPB      AL,#5                 ; [CPU_] |553| 
    3689 0000030e 6219          B         $C$L76,GT             ; [CPU_] |553| 
    3690                      ; branchcc occurs ; [] |553| 
    3691 0000030f 5205          CMPB      AL,#5                 ; [CPU_] |553| 
    3692 00000310 FFE1          B         $C$L128,EQ            ; [CPU_] |553| 
         00000311 012E 
    3693                      ; branchcc occurs ; [] |553| 
    3694 00000312 5202          CMPB      AL,#2                 ; [CPU_] |553| 
    3695 00000313 620C          B         $C$L75,GT             ; [CPU_] |553| 
    3696                      ; branchcc occurs ; [] |553| 
    3697 00000314 5202          CMPB      AL,#2                 ; [CPU_] |553| 
    3698 00000315 FFE1          B         $C$L132,EQ            ; [CPU_] |553| 
         00000316 0136 
    3699                      ; branchcc occurs ; [] |553| 
    3700 00000317 5200          CMPB      AL,#0                 ; [CPU_] |553| 
    3701 00000318 FFE1          B         $C$L136,EQ            ; [CPU_] |553| 
         00000319 013A 
    3702                      ; branchcc occurs ; [] |553| 
    3703 0000031a 5201          CMPB      AL,#1                 ; [CPU_] |553| 
    3704 0000031b FFE1          B         $C$L133,EQ            ; [CPU_] |553| 
         0000031c 0132 
    3705                      ; branchcc occurs ; [] |553| 
    3706 0000031d FFEF          B         $C$L137,UNC           ; [CPU_] |553| 
         0000031e 0137 
    3707                      ; branch occurs ; [] |553| 
    3708 0000031f       $C$L75:    
    3709 0000031f 5203          CMPB      AL,#3                 ; [CPU_] |553| 
    3710 00000320 FFE1          B         $C$L131,EQ            ; [CPU_] |553| 
         00000321 0129 
    3711                      ; branchcc occurs ; [] |553| 
    3712 00000322 5204          CMPB      AL,#4                 ; [CPU_] |553| 
    3713 00000323 FFE1          B         $C$L129,EQ            ; [CPU_] |553| 
         00000324 011D 
    3714                      ; branchcc occurs ; [] |553| 
    3715 00000325 FFEF          B         $C$L137,UNC           ; [CPU_] |553| 
         00000326 012F 
    3716                      ; branch occurs ; [] |553| 
    3717 00000327       $C$L76:    
    3718 00000327 5206          CMPB      AL,#6                 ; [CPU_] |553| 
    3719 00000328 FFE1          B         $C$L127,EQ            ; [CPU_] |553| 
         00000329 0114 
    3720                      ; branchcc occurs ; [] |553| 
    3721 0000032a 5207          CMPB      AL,#7                 ; [CPU_] |553| 
    3722 0000032b FFE1          B         $C$L126,EQ            ; [CPU_] |553| 
         0000032c 010F 
    3723                      ; branchcc occurs ; [] |553| 
    3724 0000032d 5210          CMPB      AL,#16                ; [CPU_] |553| 
    3725 0000032e FFE1          B         $C$L125,EQ            ; [CPU_] |553| 
         0000032f 010A 
TMS320C2000 Assembler PC v15.12.3 Wed Nov 22 01:55:15 2017

Tools Copyright (c) 1996-2015 Texas Instruments Incorporated
C:\Users\wmj\AppData\Local\Temp\1239610                              PAGE   71

    3726                      ; branchcc occurs ; [] |553| 
    3727 00000330 5211          CMPB      AL,#17                ; [CPU_] |553| 
    3728 00000331 FFE1          B         $C$L122,EQ            ; [CPU_] |553| 
         00000332 00FF 
    3729                      ; branchcc occurs ; [] |553| 
    3730 00000333 FFEF          B         $C$L137,UNC           ; [CPU_] |553| 
         00000334 0121 
    3731                      ; branch occurs ; [] |553| 
    3732 00000335       $C$L77:    
    3733 00000335 5222          CMPB      AL,#34                ; [CPU_] |553| 
    3734 00000336 6219          B         $C$L79,GT             ; [CPU_] |553| 
    3735                      ; branchcc occurs ; [] |553| 
    3736 00000337 5222          CMPB      AL,#34                ; [CPU_] |553| 
    3737 00000338 FFE1          B         $C$L114,EQ            ; [CPU_] |553| 
         00000339 00E5 
    3738                      ; branchcc occurs ; [] |553| 
    3739 0000033a 5215          CMPB      AL,#21                ; [CPU_] |553| 
    3740 0000033b 620C          B         $C$L78,GT             ; [CPU_] |553| 
    3741                      ; branchcc occurs ; [] |553| 
    3742 0000033c 5215          CMPB      AL,#21                ; [CPU_] |553| 
    3743 0000033d FFE1          B         $C$L118,EQ            ; [CPU_] |553| 
         0000033e 00EB 
    3744                      ; branchcc occurs ; [] |553| 
    3745 0000033f 5213          CMPB      AL,#19                ; [CPU_] |553| 
    3746 00000340 FFE1          B         $C$L120,EQ            ; [CPU_] |553| 
         00000341 00EC 
    3747                      ; branchcc occurs ; [] |553| 
    3748 00000342 5214          CMPB      AL,#20                ; [CPU_] |553| 
    3749 00000343 FFE1          B         $C$L119,EQ            ; [CPU_] |553| 
         00000344 00E7 
    3750                      ; branchcc occurs ; [] |553| 
    3751 00000345 FFEF          B         $C$L137,UNC           ; [CPU_] |553| 
         00000346 010F 
    3752                      ; branch occurs ; [] |553| 
    3753 00000347       $C$L78:    
    3754 00000347 5220          CMPB      AL,#32                ; [CPU_] |553| 
    3755 00000348 FFE1          B         $C$L117,EQ            ; [CPU_] |553| 
         00000349 00DE 
    3756                      ; branchcc occurs ; [] |553| 
    3757 0000034a 5221          CMPB      AL,#33                ; [CPU_] |553| 
    3758 0000034b FFE1          B         $C$L116,EQ            ; [CPU_] |553| 
         0000034c 00D9 
    3759                      ; branchcc occurs ; [] |553| 
    3760 0000034d FFEF          B         $C$L137,UNC           ; [CPU_] |553| 
         0000034e 0107 
    3761                      ; branch occurs ; [] |553| 
    3762 0000034f       $C$L79:    
    3763 0000034f 5223          CMPB      AL,#35                ; [CPU_] |553| 
    3764 00000350 FFE1          B         $C$L112,EQ            ; [CPU_] |553| 
         00000351 00C6 
    3765                      ; branchcc occurs ; [] |553| 
    3766 00000352 5224          CMPB      AL,#36                ; [CPU_] |553| 
    3767 00000353 FFE1          B         $C$L111,EQ            ; [CPU_] |553| 
         00000354 00C1 
    3768                      ; branchcc occurs ; [] |553| 
TMS320C2000 Assembler PC v15.12.3 Wed Nov 22 01:55:15 2017

Tools Copyright (c) 1996-2015 Texas Instruments Incorporated
C:\Users\wmj\AppData\Local\Temp\1239610                              PAGE   72

    3769 00000355 5225          CMPB      AL,#37                ; [CPU_] |553| 
    3770 00000356 FFE1          B         $C$L110,EQ            ; [CPU_] |553| 
         00000357 00BC 
    3771                      ; branchcc occurs ; [] |553| 
    3772 00000358 5230          CMPB      AL,#48                ; [CPU_] |553| 
    3773 00000359 FFE1          B         $C$L109,EQ            ; [CPU_] |553| 
         0000035a 00B7 
    3774                      ; branchcc occurs ; [] |553| 
    3775 0000035b FFEF          B         $C$L137,UNC           ; [CPU_] |553| 
         0000035c 00F9 
    3776                      ; branch occurs ; [] |553| 
    3777 0000035d       $C$L80:    
    3778 0000035d 1BA6          CMP       AR6,#258              ; [CPU_] |553| 
         0000035e 0102 
    3779 0000035f 6231          B         $C$L83,GT             ; [CPU_] |553| 
    3780                      ; branchcc occurs ; [] |553| 
    3781 00000360 1BA6          CMP       AR6,#258              ; [CPU_] |553| 
         00000361 0102 
    3782 00000362 FFE1          B         $C$L95,EQ             ; [CPU_] |553| 
         00000363 008E 
    3783                      ; branchcc occurs ; [] |553| 
    3784 00000364 5241          CMPB      AL,#65                ; [CPU_] |553| 
    3785 00000365 6219          B         $C$L82,GT             ; [CPU_] |553| 
    3786                      ; branchcc occurs ; [] |553| 
    3787 00000366 5241          CMPB      AL,#65                ; [CPU_] |553| 
    3788 00000367 FFE1          B         $C$L101,EQ            ; [CPU_] |553| 
         00000368 0095 
    3789                      ; branchcc occurs ; [] |553| 
    3790 00000369 5234          CMPB      AL,#52                ; [CPU_] |553| 
    3791 0000036a 620C          B         $C$L81,GT             ; [CPU_] |553| 
    3792                      ; branchcc occurs ; [] |553| 
    3793 0000036b 5234          CMPB      AL,#52                ; [CPU_] |553| 
    3794 0000036c FFE1          B         $C$L104,EQ            ; [CPU_] |553| 
         0000036d 0096 
    3795                      ; branchcc occurs ; [] |553| 
    3796 0000036e 5232          CMPB      AL,#50                ; [CPU_] |553| 
    3797 0000036f FFE1          B         $C$L106,EQ            ; [CPU_] |553| 
         00000370 0097 
    3798                      ; branchcc occurs ; [] |553| 
    3799 00000371 5233          CMPB      AL,#51                ; [CPU_] |553| 
    3800 00000372 FFE1          B         $C$L105,EQ            ; [CPU_] |553| 
         00000373 0092 
    3801                      ; branchcc occurs ; [] |553| 
    3802 00000374 FFEF          B         $C$L137,UNC           ; [CPU_] |553| 
         00000375 00E0 
    3803                      ; branch occurs ; [] |553| 
    3804 00000376       $C$L81:    
    3805 00000376 5235          CMPB      AL,#53                ; [CPU_] |553| 
    3806 00000377 FFE1          B         $C$L103,EQ            ; [CPU_] |553| 
         00000378 0089 
    3807                      ; branchcc occurs ; [] |553| 
    3808 00000379 5240          CMPB      AL,#64                ; [CPU_] |553| 
    3809 0000037a FFE1          B         $C$L102,EQ            ; [CPU_] |553| 
         0000037b 0084 
    3810                      ; branchcc occurs ; [] |553| 
TMS320C2000 Assembler PC v15.12.3 Wed Nov 22 01:55:15 2017

Tools Copyright (c) 1996-2015 Texas Instruments Incorporated
C:\Users\wmj\AppData\Local\Temp\1239610                              PAGE   73

    3811 0000037c FFEF          B         $C$L137,UNC           ; [CPU_] |553| 
         0000037d 00D8 
    3812                      ; branch occurs ; [] |553| 
    3813 0000037e       $C$L82:    
    3814 0000037e 5242          CMPB      AL,#66                ; [CPU_] |553| 
    3815 0000037f 617B          B         $C$L100,EQ            ; [CPU_] |553| 
    3816                      ; branchcc occurs ; [] |553| 
    3817 00000380 5243          CMPB      AL,#67                ; [CPU_] |553| 
    3818 00000381 6177          B         $C$L99,EQ             ; [CPU_] |553| 
    3819                      ; branchcc occurs ; [] |553| 
    3820 00000382 80A6          MOVZ      AR7,AR6               ; [CPU_] |553| 
    3821 00000383 8F00          MOVL      XAR4,#256             ; [CPU_U] |553| 
         00000384 0100 
    3822 00000385 A8A9          MOVL      ACC,XAR4              ; [CPU_] |553| 
    3823 00000386 0FA7          CMPL      ACC,XAR7              ; [CPU_] |553| 
    3824 00000387 616E          B         $C$L98,EQ             ; [CPU_] |553| 
    3825                      ; branchcc occurs ; [] |553| 
    3826 00000388 88A6          MOVZ      AR6,AR6               ; [CPU_] |553| 
    3827 00000389 8F00          MOVL      XAR4,#257             ; [CPU_U] |553| 
         0000038a 0101 
    3828 0000038b A8A9          MOVL      ACC,XAR4              ; [CPU_] |553| 
    3829 0000038c 0FA6          CMPL      ACC,XAR6              ; [CPU_] |553| 
    3830 0000038d 6166          B         $C$L97,EQ             ; [CPU_] |553| 
    3831                      ; branchcc occurs ; [] |553| 
    3832 0000038e FFEF          B         $C$L137,UNC           ; [CPU_] |553| 
         0000038f 00C6 
    3833                      ; branch occurs ; [] |553| 
    3834 00000390       $C$L83:    
    3835 00000390 1BA6          CMP       AR6,#513              ; [CPU_] |553| 
         00000391 0201 
    3836 00000392 621E          B         $C$L84,GT             ; [CPU_] |553| 
    3837                      ; branchcc occurs ; [] |553| 
    3838 00000393 1BA6          CMP       AR6,#513              ; [CPU_] |553| 
         00000394 0201 
    3839 00000395 614A          B         $C$L89,EQ             ; [CPU_] |553| 
    3840                      ; branchcc occurs ; [] |553| 
    3841 00000396 80A6          MOVZ      AR7,AR6               ; [CPU_] |553| 
    3842 00000397 8F00          MOVL      XAR4,#259             ; [CPU_U] |553| 
         00000398 0103 
    3843 00000399 A8A9          MOVL      ACC,XAR4              ; [CPU_] |553| 
    3844 0000039a 0FA7          CMPL      ACC,XAR7              ; [CPU_] |553| 
    3845 0000039b 6153          B         $C$L94,EQ             ; [CPU_] |553| 
    3846                      ; branchcc occurs ; [] |553| 
    3847 0000039c 80A6          MOVZ      AR7,AR6               ; [CPU_] |553| 
    3848 0000039d 8F00          MOVL      XAR4,#260             ; [CPU_U] |553| 
         0000039e 0104 
    3849 0000039f A8A9          MOVL      ACC,XAR4              ; [CPU_] |553| 
    3850 000003a0 0FA7          CMPL      ACC,XAR7              ; [CPU_] |553| 
    3851 000003a1 6149          B         $C$L93,EQ             ; [CPU_] |553| 
    3852                      ; branchcc occurs ; [] |553| 
    3853 000003a2 80A6          MOVZ      AR7,AR6               ; [CPU_] |553| 
    3854 000003a3 8F00          MOVL      XAR4,#261             ; [CPU_U] |553| 
         000003a4 0105 
    3855 000003a5 A8A9          MOVL      ACC,XAR4              ; [CPU_] |553| 
    3856 000003a6 0FA7          CMPL      ACC,XAR7              ; [CPU_] |553| 
TMS320C2000 Assembler PC v15.12.3 Wed Nov 22 01:55:15 2017

Tools Copyright (c) 1996-2015 Texas Instruments Incorporated
C:\Users\wmj\AppData\Local\Temp\1239610                              PAGE   74

    3857 000003a7 6141          B         $C$L92,EQ             ; [CPU_] |553| 
    3858                      ; branchcc occurs ; [] |553| 
    3859 000003a8 88A6          MOVZ      AR6,AR6               ; [CPU_] |553| 
    3860 000003a9 8F00          MOVL      XAR4,#512             ; [CPU_U] |553| 
         000003aa 0200 
    3861 000003ab A8A9          MOVL      ACC,XAR4              ; [CPU_] |553| 
    3862 000003ac 0FA6          CMPL      ACC,XAR6              ; [CPU_] |553| 
    3863 000003ad 6139          B         $C$L91,EQ             ; [CPU_] |553| 
    3864                      ; branchcc occurs ; [] |553| 
    3865 000003ae FFEF          B         $C$L137,UNC           ; [CPU_] |553| 
         000003af 00A6 
    3866                      ; branch occurs ; [] |553| 
    3867 000003b0       $C$L84:    
    3868 000003b0 80A6          MOVZ      AR7,AR6               ; [CPU_] |553| 
    3869 000003b1 8F00          MOVL      XAR4,#514             ; [CPU_U] |553| 
         000003b2 0202 
    3870 000003b3 A8A9          MOVL      ACC,XAR4              ; [CPU_] |553| 
    3871 000003b4 0FA7          CMPL      ACC,XAR7              ; [CPU_] |553| 
    3872 000003b5 611D          B         $C$L87,EQ             ; [CPU_] |553| 
    3873                      ; branchcc occurs ; [] |553| 
    3874 000003b6 80A6          MOVZ      AR7,AR6               ; [CPU_] |553| 
    3875 000003b7 8F00          MOVL      XAR4,#515             ; [CPU_U] |553| 
         000003b8 0203 
    3876 000003b9 A8A9          MOVL      ACC,XAR4              ; [CPU_] |553| 
    3877 000003ba 0FA7          CMPL      ACC,XAR7              ; [CPU_] |553| 
    3878 000003bb 6115          B         $C$L86,EQ             ; [CPU_] |553| 
    3879                      ; branchcc occurs ; [] |553| 
    3880 000003bc 80A6          MOVZ      AR7,AR6               ; [CPU_] |553| 
    3881 000003bd 8F00          MOVL      XAR4,#516             ; [CPU_U] |553| 
         000003be 0204 
    3882 000003bf A8A9          MOVL      ACC,XAR4              ; [CPU_] |553| 
    3883 000003c0 0FA7          CMPL      ACC,XAR7              ; [CPU_] |553| 
    3884 000003c1 610D          B         $C$L85,EQ             ; [CPU_] |553| 
    3885                      ; branchcc occurs ; [] |553| 
    3886 000003c2 88A6          MOVZ      AR6,AR6               ; [CPU_] |553| 
    3887 000003c3 8F00          MOVL      XAR4,#517             ; [CPU_U] |553| 
         000003c4 0205 
    3888 000003c5 A8A9          MOVL      ACC,XAR4              ; [CPU_] |553| 
    3889 000003c6 0FA6          CMPL      ACC,XAR6              ; [CPU_] |553| 
    3890 000003c7 FFE0          B         $C$L137,NEQ           ; [CPU_] |553| 
         000003c8 008D 
    3891                      ; branchcc occurs ; [] |553| 
    3892                      .dwpsn  file "C:/Users/wmj/Desktop/BM1000_v1.1/sw/drivers/drvic/fsm.h",line 675,column 3,is_stmt,isa 
    3893 000003c9 8AD2          MOVL      XAR4,*+XAR2[2]        ; [CPU_] |675| 
    3894 000003ca D016          MOVB      XAR0,#22              ; [CPU_] |675| 
    3895 000003cb 8894          MOVZ      AR6,*+XAR4[AR0]       ; [CPU_] |675| 
    3896                      .dwpsn  file "C:/Users/wmj/Desktop/BM1000_v1.1/sw/drivers/drvic/fsm.h",line 679,column 3,is_stmt,isa 
    3897 000003cc D018          MOVB      XAR0,#24              ; [CPU_] |679| 
    3898 000003cd 6F09          B         $C$L88,UNC            ; [CPU_] |679| 
    3899                      ; branch occurs ; [] |679| 
    3900 000003ce       $C$L85:    
    3901                      .dwpsn  file "C:/Users/wmj/Desktop/BM1000_v1.1/sw/drivers/drvic/fsm.h",line 667,column 3,is_stmt,isa 
    3902 000003ce 0218          MOVB      ACC,#24               ; [CPU_] |667| 
    3903 000003cf 6F11          B         $C$L90,UNC            ; [CPU_] |667| 
    3904                      ; branch occurs ; [] |667| 
TMS320C2000 Assembler PC v15.12.3 Wed Nov 22 01:55:15 2017

Tools Copyright (c) 1996-2015 Texas Instruments Incorporated
C:\Users\wmj\AppData\Local\Temp\1239610                              PAGE   75

    3905 000003d0       $C$L86:    
    3906                      .dwpsn  file "C:/Users/wmj/Desktop/BM1000_v1.1/sw/drivers/drvic/fsm.h",line 655,column 3,is_stmt,isa 
    3907 000003d0 0216          MOVB      ACC,#22               ; [CPU_] |655| 
    3908 000003d1 6F20          B         $C$L96,UNC            ; [CPU_] |655| 
    3909                      ; branch occurs ; [] |655| 
    3910 000003d2       $C$L87:    
    3911                      .dwpsn  file "C:/Users/wmj/Desktop/BM1000_v1.1/sw/drivers/drvic/fsm.h",line 640,column 3,is_stmt,isa 
    3912 000003d2 8AD2          MOVL      XAR4,*+XAR2[2]        ; [CPU_] |640| 
    3913 000003d3 D01A          MOVB      XAR0,#26              ; [CPU_] |640| 
    3914 000003d4 8894          MOVZ      AR6,*+XAR4[AR0]       ; [CPU_] |640| 
    3915                      .dwpsn  file "C:/Users/wmj/Desktop/BM1000_v1.1/sw/drivers/drvic/fsm.h",line 644,column 3,is_stmt,isa 
    3916 000003d5 D01C          MOVB      XAR0,#28              ; [CPU_] |644| 
    3917 000003d6       $C$L88:    
    3918 000003d6 0694          MOVL      ACC,*+XAR4[AR0]       ; [CPU_] |644| 
    3919 000003d7 28AC          MOV       T,#17                 ; [CPU_] |644| 
         000003d8 0011 
    3920 000003d9 5610          ASRL      ACC,T                 ; [CPU_] |644| 
    3921 000003da 93A6          MOV       AH,AR6                ; [CPU_] |644| 
    3922 000003db FF96          LSL       AH,7                  ; [CPU_] |644| 
    3923 000003dc 88A8          MOVZ      AR6,AH                ; [CPU_] |644| 
    3924 000003dd 94A6          ADD       AL,AR6                ; [CPU_] |644| 
    3925 000003de 6F58          B         $C$L124,UNC           ; [CPU_] |644| 
    3926                      ; branch occurs ; [] |644| 
    3927 000003df       $C$L89:    
    3928                      .dwpsn  file "C:/Users/wmj/Desktop/BM1000_v1.1/sw/drivers/drvic/fsm.h",line 632,column 3,is_stmt,isa 
    3929 000003df 021C          MOVB      ACC,#28               ; [CPU_] |632| 
    3930 000003e0       $C$L90:    
    3931 000003e0 07D2          ADDL      ACC,*+XAR2[2]         ; [CPU_] |632| 
    3932 000003e1 8AA9          MOVL      XAR4,ACC              ; [CPU_] |632| 
    3933 000003e2 3B01          SETC      SXM                   ; [CPU_] 
    3934 000003e3 06C4          MOVL      ACC,*+XAR4[0]         ; [CPU_] |632| 
    3935 000003e4 FF48          SFR       ACC,9                 ; [CPU_] |632| 
    3936 000003e5 6F51          B         $C$L124,UNC           ; [CPU_] |632| 
    3937                      ; branch occurs ; [] |632| 
    3938 000003e6       $C$L91:    
    3939                      .dwpsn  file "C:/Users/wmj/Desktop/BM1000_v1.1/sw/drivers/drvic/fsm.h",line 619,column 3,is_stmt,isa 
    3940 000003e6 021A          MOVB      ACC,#26               ; [CPU_] |619| 
    3941 000003e7 6F0A          B         $C$L96,UNC            ; [CPU_] |619| 
    3942                      ; branch occurs ; [] |619| 
    3943 000003e8       $C$L92:    
    3944                      .dwpsn  file "C:/Users/wmj/Desktop/BM1000_v1.1/sw/drivers/drvic/modbus/mb.c",line 481,column 3,is_stm
    3945 000003e8 BE00          MOVB      XAR6,#0               ; [CPU_] |481| 
    3946 000003e9 6F6B          B         $C$L137,UNC           ; [CPU_] |481| 
    3947                      ; branch occurs ; [] |481| 
    3948 000003ea       $C$L93:    
    3949                      .dwpsn  file "C:/Users/wmj/Desktop/BM1000_v1.1/sw/drivers/drvic/modbus/mb.c",line 607,column 34,is_st
    3950 000003ea 8AD2          MOVL      XAR4,*+XAR2[2]        ; [CPU_] |607| 
    3951              $C$DW$226       .dwtag  DW_TAG_TI_branch
    3952                      .dwattr $C$DW$226, DW_AT_low_pc(0x00)
    3953                      .dwattr $C$DW$226, DW_AT_name("_FSM_485Read_State_Box")
    3954                      .dwattr $C$DW$226, DW_AT_TI_call
    3955              
    3956 000003eb 7640!         LCR       #_FSM_485Read_State_Box ; [CPU_] |607| 
         000003ec 0000 
    3957                      ; call occurs [#_FSM_485Read_State_Box] ; [] |607| 
TMS320C2000 Assembler PC v15.12.3 Wed Nov 22 01:55:15 2017

Tools Copyright (c) 1996-2015 Texas Instruments Incorporated
C:\Users\wmj\AppData\Local\Temp\1239610                              PAGE   76

    3958                      .dwpsn  file "C:/Users/wmj/Desktop/BM1000_v1.1/sw/drivers/drvic/modbus/mb.c",line 607,column 83,is_st
    3959 000003ed 6F56          B         $C$L130,UNC           ; [CPU_] |607| 
    3960                      ; branch occurs ; [] |607| 
    3961 000003ee       $C$L94:    
    3962                      .dwpsn  file "C:/Users/wmj/Desktop/BM1000_v1.1/sw/drivers/drvic/fsm.h",line 529,column 3,is_stmt,isa 
    3963 000003ee 0210          MOVB      ACC,#16               ; [CPU_] |529| 
    3964 000003ef 6F02          B         $C$L96,UNC            ; [CPU_] |529| 
    3965                      ; branch occurs ; [] |529| 
    3966 000003f0       $C$L95:    
    3967                      .dwpsn  file "C:/Users/wmj/Desktop/BM1000_v1.1/sw/drivers/drvic/fsm.h",line 562,column 3,is_stmt,isa 
    3968 000003f0 020F          MOVB      ACC,#15               ; [CPU_] |562| 
    3969 000003f1       $C$L96:    
    3970 000003f1 07D2          ADDL      ACC,*+XAR2[2]         ; [CPU_] |562| 
    3971 000003f2 6F5D          B         $C$L135,UNC           ; [CPU_] |562| 
    3972                      ; branch occurs ; [] |562| 
    3973 000003f3       $C$L97:    
    3974                      .dwpsn  file "C:/Users/wmj/Desktop/BM1000_v1.1/sw/drivers/drvic/fsm.h",line 513,column 3,is_stmt,isa 
    3975 000003f3 020B          MOVB      ACC,#11               ; [CPU_] |513| 
    3976 000003f4 6FFD          B         $C$L96,UNC            ; [CPU_] |513| 
    3977                      ; branch occurs ; [] |513| 
    3978 000003f5       $C$L98:    
    3979                      .dwpsn  file "C:/Users/wmj/Desktop/BM1000_v1.1/sw/drivers/drvic/fsm.h",line 418,column 4,is_stmt,isa 
    3980 000003f5 8AD2          MOVL      XAR4,*+XAR2[2]        ; [CPU_] |418| 
    3981 000003f6 88F4          MOVZ      AR6,*+XAR4[6]         ; [CPU_] |418| 
    3982 000003f7 6F5D          B         $C$L137,UNC           ; [CPU_] |418| 
    3983                      ; branch occurs ; [] |418| 
    3984 000003f8       $C$L99:    
    3985                      .dwpsn  file "C:/Users/wmj/Desktop/BM1000_v1.1/sw/drivers/drvic/modbus/mb.c",line 481,column 3,is_stm
    3986 000003f8 0244          MOVB      ACC,#68               ; [CPU_] |481| 
    3987 000003f9 6F10          B         $C$L108,UNC           ; [CPU_] |481| 
    3988                      ; branch occurs ; [] |481| 
    3989 000003fa       $C$L100:    
    3990 000003fa 0242          MOVB      ACC,#66               ; [CPU_] |481| 
    3991 000003fb 6F0E          B         $C$L108,UNC           ; [CPU_] |481| 
    3992                      ; branch occurs ; [] |481| 
    3993 000003fc       $C$L101:    
    3994 000003fc 0240          MOVB      ACC,#64               ; [CPU_] |481| 
    3995 000003fd 6F0C          B         $C$L108,UNC           ; [CPU_] |481| 
    3996                      ; branch occurs ; [] |481| 
    3997 000003fe       $C$L102:    
    3998 000003fe 023E          MOVB      ACC,#62               ; [CPU_] |481| 
    3999 000003ff 6F0A          B         $C$L108,UNC           ; [CPU_] |481| 
    4000                      ; branch occurs ; [] |481| 
    4001 00000400       $C$L103:    
    4002                      .dwpsn  file "C:/Users/wmj/Desktop/BM1000_v1.1/sw/drivers/drvic/modbus/mb.c",line 499,column 3,is_stm
    4003 00000400 0256          MOVB      ACC,#86               ; [CPU_] |499| 
    4004 00000401 6F1D          B         $C$L115,UNC           ; [CPU_] |499| 
    4005                      ; branch occurs ; [] |499| 
    4006 00000402       $C$L104:    
    4007                      .dwpsn  file "C:/Users/wmj/Desktop/BM1000_v1.1/sw/drivers/drvic/modbus/mb.c",line 481,column 3,is_stm
    4008 00000402 0222          MOVB      ACC,#34               ; [CPU_] |481| 
    4009 00000403 6F06          B         $C$L108,UNC           ; [CPU_] |481| 
    4010                      ; branch occurs ; [] |481| 
    4011 00000404       $C$L105:    
    4012                      .dwpsn  file "C:/Users/wmj/Desktop/BM1000_v1.1/sw/drivers/drvic/modbus/mb.c",line 490,column 3,is_stm
TMS320C2000 Assembler PC v15.12.3 Wed Nov 22 01:55:15 2017

Tools Copyright (c) 1996-2015 Texas Instruments Incorporated
C:\Users\wmj\AppData\Local\Temp\1239610                              PAGE   77

    4013 00000404 0220          MOVB      ACC,#32               ; [CPU_] |490| 
    4014 00000405 6F12          B         $C$L113,UNC           ; [CPU_] |490| 
    4015                      ; branch occurs ; [] |490| 
    4016 00000406       $C$L106:    
    4017                      .dwpsn  file "C:/Users/wmj/Desktop/BM1000_v1.1/sw/drivers/drvic/modbus/mb.c",line 481,column 3,is_stm
    4018 00000406 021E          MOVB      ACC,#30               ; [CPU_] |481| 
    4019 00000407 6F02          B         $C$L108,UNC           ; [CPU_] |481| 
    4020                      ; branch occurs ; [] |481| 
    4021 00000408       $C$L107:    
    4022 00000408 021C          MOVB      ACC,#28               ; [CPU_] |481| 
    4023 00000409       $C$L108:    
    4024 00000409 07C2          ADDL      ACC,*+XAR2[0]         ; [CPU_] |481| 
    4025 0000040a 8AA9          MOVL      XAR4,ACC              ; [CPU_] |481| 
    4026 0000040b 28AC          MOV       T,#17                 ; [CPU_] |481| 
         0000040c 0011 
    4027 0000040d 06C4          MOVL      ACC,*+XAR4[0]         ; [CPU_] |481| 
    4028 0000040e 5610          ASRL      ACC,T                 ; [CPU_] |481| 
    4029 0000040f 6F27          B         $C$L124,UNC           ; [CPU_] |481| 
    4030                      ; branch occurs ; [] |481| 
    4031 00000410       $C$L109:    
    4032 00000410 021A          MOVB      ACC,#26               ; [CPU_] |481| 
    4033 00000411 6FF8          B         $C$L108,UNC           ; [CPU_] |481| 
    4034                      ; branch occurs ; [] |481| 
    4035 00000412       $C$L110:    
    4036                      .dwpsn  file "C:/Users/wmj/Desktop/BM1000_v1.1/sw/drivers/drvic/modbus/mb.c",line 508,column 3,is_stm
    4037 00000412 0266          MOVB      ACC,#102              ; [CPU_] |508| 
    4038 00000413 6F3B          B         $C$L134,UNC           ; [CPU_] |508| 
    4039                      ; branch occurs ; [] |508| 
    4040 00000414       $C$L111:    
    4041 00000414 0264          MOVB      ACC,#100              ; [CPU_] |508| 
    4042 00000415 6F39          B         $C$L134,UNC           ; [CPU_] |508| 
    4043                      ; branch occurs ; [] |508| 
    4044 00000416       $C$L112:    
    4045                      .dwpsn  file "C:/Users/wmj/Desktop/BM1000_v1.1/sw/drivers/drvic/modbus/mb.c",line 490,column 3,is_stm
    4046 00000416 026A          MOVB      ACC,#106              ; [CPU_] |490| 
    4047 00000417       $C$L113:    
    4048 00000417 07C2          ADDL      ACC,*+XAR2[0]         ; [CPU_] |490| 
    4049 00000418 8AA9          MOVL      XAR4,ACC              ; [CPU_] |490| 
    4050 00000419 3B01          SETC      SXM                   ; [CPU_] 
    4051 0000041a 06C4          MOVL      ACC,*+XAR4[0]         ; [CPU_] |490| 
    4052 0000041b FF4C          SFR       ACC,13                ; [CPU_] |490| 
    4053 0000041c 6F1A          B         $C$L124,UNC           ; [CPU_] |490| 
    4054                      ; branch occurs ; [] |490| 
    4055 0000041d       $C$L114:    
    4056                      .dwpsn  file "C:/Users/wmj/Desktop/BM1000_v1.1/sw/drivers/drvic/modbus/mb.c",line 499,column 3,is_stm
    4057 0000041d 026C          MOVB      ACC,#108              ; [CPU_] |499| 
    4058 0000041e       $C$L115:    
    4059 0000041e 07C2          ADDL      ACC,*+XAR2[0]         ; [CPU_] |499| 
    4060 0000041f 8AA9          MOVL      XAR4,ACC              ; [CPU_] |499| 
    4061 00000420 3B01          SETC      SXM                   ; [CPU_] 
    4062 00000421 06C4          MOVL      ACC,*+XAR4[0]         ; [CPU_] |499| 
    4063 00000422 FF49          SFR       ACC,10                ; [CPU_] |499| 
    4064 00000423 6F13          B         $C$L124,UNC           ; [CPU_] |499| 
    4065                      ; branch occurs ; [] |499| 
    4066 00000424       $C$L116:    
TMS320C2000 Assembler PC v15.12.3 Wed Nov 22 01:55:15 2017

Tools Copyright (c) 1996-2015 Texas Instruments Incorporated
C:\Users\wmj\AppData\Local\Temp\1239610                              PAGE   78

    4067                      .dwpsn  file "C:/Users/wmj/Desktop/BM1000_v1.1/sw/drivers/drvic/modbus/mb.c",line 481,column 3,is_stm
    4068 00000424 0228          MOVB      ACC,#40               ; [CPU_] |481| 
    4069 00000425 6FE4          B         $C$L108,UNC           ; [CPU_] |481| 
    4070                      ; branch occurs ; [] |481| 
    4071 00000426       $C$L117:    
    4072 00000426 0224          MOVB      ACC,#36               ; [CPU_] |481| 
    4073 00000427 6FE2          B         $C$L108,UNC           ; [CPU_] |481| 
    4074                      ; branch occurs ; [] |481| 
    4075 00000428       $C$L118:    
    4076                      .dwpsn  file "C:/Users/wmj/Desktop/BM1000_v1.1/sw/drivers/drvic/modbus/mb.c",line 572,column 33,is_st
    4077 00000428 0232          MOVB      ACC,#50               ; [CPU_] |572| 
    4078                      .dwpsn  file "C:/Users/wmj/Desktop/BM1000_v1.1/sw/drivers/drvic/modbus/mb.c",line 572,column 106,is_s
    4079 00000429 6F08          B         $C$L123,UNC           ; [CPU_] |572| 
    4080                      ; branch occurs ; [] |572| 
    4081 0000042a       $C$L119:    
    4082                      .dwpsn  file "C:/Users/wmj/Desktop/BM1000_v1.1/sw/drivers/drvic/modbus/mb.c",line 571,column 33,is_st
    4083 0000042a 0230          MOVB      ACC,#48               ; [CPU_] |571| 
    4084                      .dwpsn  file "C:/Users/wmj/Desktop/BM1000_v1.1/sw/drivers/drvic/modbus/mb.c",line 571,column 102,is_s
    4085 0000042b 6F06          B         $C$L123,UNC           ; [CPU_] |571| 
    4086                      ; branch occurs ; [] |571| 
    4087 0000042c       $C$L120:    
    4088                      .dwpsn  file "C:/Users/wmj/Desktop/BM1000_v1.1/sw/drivers/drvic/modbus/mb.c",line 570,column 33,is_st
    4089 0000042c 022E          MOVB      ACC,#46               ; [CPU_] |570| 
    4090                      .dwpsn  file "C:/Users/wmj/Desktop/BM1000_v1.1/sw/drivers/drvic/modbus/mb.c",line 570,column 102,is_s
    4091 0000042d 6F04          B         $C$L123,UNC           ; [CPU_] |570| 
    4092                      ; branch occurs ; [] |570| 
    4093 0000042e       $C$L121:    
    4094                      .dwpsn  file "C:/Users/wmj/Desktop/BM1000_v1.1/sw/drivers/drvic/modbus/mb.c",line 569,column 31,is_st
    4095 0000042e 022C          MOVB      ACC,#44               ; [CPU_] |569| 
    4096                      .dwpsn  file "C:/Users/wmj/Desktop/BM1000_v1.1/sw/drivers/drvic/modbus/mb.c",line 569,column 101,is_s
    4097 0000042f 6F02          B         $C$L123,UNC           ; [CPU_] |569| 
    4098                      ; branch occurs ; [] |569| 
    4099 00000430       $C$L122:    
    4100                      .dwpsn  file "C:/Users/wmj/Desktop/BM1000_v1.1/sw/drivers/drvic/modbus/mb.c",line 568,column 31,is_st
    4101 00000430 022A          MOVB      ACC,#42               ; [CPU_] |568| 
    4102 00000431       $C$L123:    
    4103 00000431 07C2          ADDL      ACC,*+XAR2[0]         ; [CPU_] |568| 
    4104 00000432 8AA9          MOVL      XAR4,ACC              ; [CPU_] |568| 
    4105 00000433 06C4          MOVL      ACC,*+XAR4[0]         ; [CPU_] |568| 
    4106              $C$DW$227       .dwtag  DW_TAG_TI_branch
    4107                      .dwattr $C$DW$227, DW_AT_low_pc(0x00)
    4108                      .dwattr $C$DW$227, DW_AT_name("_MB_FloatTransToInt")
    4109                      .dwattr $C$DW$227, DW_AT_TI_call
    4110              
    4111 00000434 7640'         LCR       #_MB_FloatTransToInt  ; [CPU_] |568| 
         00000435 02E0 
    4112                      ; call occurs [#_MB_FloatTransToInt] ; [] |568| 
    4113 00000436       $C$L124:    
    4114 00000436 88A9          MOVZ      AR6,AL                ; [CPU_] |568| 
    4115                      .dwpsn  file "C:/Users/wmj/Desktop/BM1000_v1.1/sw/drivers/drvic/modbus/mb.c",line 568,column 101,is_s
    4116 00000437 6F1D          B         $C$L137,UNC           ; [CPU_] |568| 
    4117                      ; branch occurs ; [] |568| 
    4118 00000438       $C$L125:    
    4119                      .dwpsn  file "C:/Users/wmj/Desktop/BM1000_v1.1/sw/drivers/drvic/motor.h",line 374,column 3,is_stmt,is
    4120 00000438 026E          MOVB      ACC,#110              ; [CPU_] |374| 
TMS320C2000 Assembler PC v15.12.3 Wed Nov 22 01:55:15 2017

Tools Copyright (c) 1996-2015 Texas Instruments Incorporated
C:\Users\wmj\AppData\Local\Temp\1239610                              PAGE   79

    4121 00000439 6F15          B         $C$L134,UNC           ; [CPU_] |374| 
    4122                      ; branch occurs ; [] |374| 
    4123 0000043a       $C$L126:    
    4124                      .dwpsn  file "C:/Users/wmj/Desktop/BM1000_v1.1/sw/drivers/drvic/motor.h",line 197,column 3,is_stmt,is
    4125 0000043a 0214          MOVB      ACC,#20               ; [CPU_] |197| 
    4126 0000043b 6F13          B         $C$L134,UNC           ; [CPU_] |197| 
    4127                      ; branch occurs ; [] |197| 
    4128 0000043c       $C$L127:    
    4129                      .dwpsn  file "C:/Users/wmj/Desktop/BM1000_v1.1/sw/drivers/drvic/motor.h",line 716,column 3,is_stmt,is
    4130 0000043c 0213          MOVB      ACC,#19               ; [CPU_] |716| 
    4131 0000043d 6F11          B         $C$L134,UNC           ; [CPU_] |716| 
    4132                      ; branch occurs ; [] |716| 
    4133 0000043e       $C$L128:    
    4134                      .dwpsn  file "C:/Users/wmj/Desktop/BM1000_v1.1/sw/drivers/drvic/motor.h",line 709,column 3,is_stmt,is
    4135 0000043e 0212          MOVB      ACC,#18               ; [CPU_] |709| 
    4136 0000043f 6F0F          B         $C$L134,UNC           ; [CPU_] |709| 
    4137                      ; branch occurs ; [] |709| 
    4138 00000440       $C$L129:    
    4139                      .dwpsn  file "C:/Users/wmj/Desktop/BM1000_v1.1/sw/drivers/drvic/modbus/mb.c",line 561,column 30,is_st
    4140 00000440 8AC2          MOVL      XAR4,*+XAR2[0]        ; [CPU_] |561| 
    4141              $C$DW$228       .dwtag  DW_TAG_TI_branch
    4142                      .dwattr $C$DW$228, DW_AT_low_pc(0x00)
    4143                      .dwattr $C$DW$228, DW_AT_name("_MOTOR_getMotorFlag")
    4144                      .dwattr $C$DW$228, DW_AT_TI_call
    4145              
    4146 00000441 7640!         LCR       #_MOTOR_getMotorFlag  ; [CPU_] |561| 
         00000442 0000 
    4147                      ; call occurs [#_MOTOR_getMotorFlag] ; [] |561| 
    4148 00000443       $C$L130:    
    4149 00000443 88A9          MOVZ      AR6,AL                ; [CPU_] |561| 
    4150 00000444 D00A          MOVB      XAR0,#10              ; [CPU_] 
    4151 00000445 0203          MOVB      ACC,#3                ; [CPU_] 
    4152 00000446 0792          ADDL      ACC,*+XAR2[AR0]       ; [CPU_] 
    4153 00000447 8BA9          MOVL      XAR1,ACC              ; [CPU_] 
    4154                      .dwpsn  file "C:/Users/wmj/Desktop/BM1000_v1.1/sw/drivers/drvic/modbus/mb.c",line 561,column 78,is_st
    4155 00000448 6F0C          B         $C$L137,UNC           ; [CPU_] |561| 
    4156                      ; branch occurs ; [] |561| 
    4157 00000449       $C$L131:    
    4158                      .dwpsn  file "C:/Users/wmj/Desktop/BM1000_v1.1/sw/drivers/drvic/motor.h",line 737,column 3,is_stmt,is
    4159 00000449 0218          MOVB      ACC,#24               ; [CPU_] |737| 
    4160 0000044a 6F04          B         $C$L134,UNC           ; [CPU_] |737| 
    4161                      ; branch occurs ; [] |737| 
    4162 0000044b       $C$L132:    
    4163                      .dwpsn  file "C:/Users/wmj/Desktop/BM1000_v1.1/sw/drivers/drvic/motor.h",line 730,column 3,is_stmt,is
    4164 0000044b 0217          MOVB      ACC,#23               ; [CPU_] |730| 
    4165 0000044c 6F02          B         $C$L134,UNC           ; [CPU_] |730| 
    4166                      ; branch occurs ; [] |730| 
    4167 0000044d       $C$L133:    
    4168                      .dwpsn  file "C:/Users/wmj/Desktop/BM1000_v1.1/sw/drivers/drvic/motor.h",line 723,column 3,is_stmt,is
    4169 0000044d 0216          MOVB      ACC,#22               ; [CPU_] |723| 
    4170 0000044e       $C$L134:    
    4171 0000044e 07C2          ADDL      ACC,*+XAR2[0]         ; [CPU_] |723| 
    4172 0000044f       $C$L135:    
    4173 0000044f 8AA9          MOVL      XAR4,ACC              ; [CPU_] |723| 
    4174 00000450 88C4          MOVZ      AR6,*+XAR4[0]         ; [CPU_] |723| 
TMS320C2000 Assembler PC v15.12.3 Wed Nov 22 01:55:15 2017

Tools Copyright (c) 1996-2015 Texas Instruments Incorporated
C:\Users\wmj\AppData\Local\Temp\1239610                              PAGE   80

    4175 00000451 6F03          B         $C$L137,UNC           ; [CPU_] |723| 
    4176                      ; branch occurs ; [] |723| 
    4177 00000452       $C$L136:    
    4178                      .dwpsn  file "C:/Users/wmj/Desktop/BM1000_v1.1/sw/drivers/drvic/modbus/mb.c",line 557,column 34,is_st
    4179 00000452 7680          MOVL      XAR6,#256             ; [CPU_] |557| 
         00000453 0100 
    4180 00000454       $C$L137:    
    4181                      .dwpsn  file "C:/Users/wmj/Desktop/BM1000_v1.1/sw/drivers/drvic/modbus/mb.c",line 627,column 3,is_stm
    4182 00000454 CDA6          AND       AH,AR6,#0x00ff        ; [CPU_] |627| 
         00000455 00FF 
    4183                      .dwpsn  file "C:/Users/wmj/Desktop/BM1000_v1.1/sw/drivers/drvic/modbus/mb.c",line 628,column 3,is_stm
    4184 00000456 D00A          MOVB      XAR0,#10              ; [CPU_] |628| 
    4185                      .dwpsn  file "C:/Users/wmj/Desktop/BM1000_v1.1/sw/drivers/drvic/modbus/mb.c",line 627,column 3,is_stm
    4186 00000457 97D1          MOV       *+XAR1[2],AH          ; [CPU_] |627| 
    4187                      .dwpsn  file "C:/Users/wmj/Desktop/BM1000_v1.1/sw/drivers/drvic/modbus/mb.c",line 628,column 3,is_stm
    4188 00000458 8A92          MOVL      XAR4,*+XAR2[AR0]      ; [CPU_] |628| 
    4189 00000459 92A6          MOV       AL,AR6                ; [CPU_] |628| 
    4190 0000045a FFC7          LSR       AL,8                  ; [CPU_] |628| 
    4191 0000045b 96E4          MOV       *+XAR4[4],AL          ; [CPU_] |628| 
    4192 0000045c 86BE          MOVL      XAR2,*--SP            ; [CPU_] 
    4193                      .dwcfi  cfa_offset, -4
    4194                      .dwcfi  restore_reg, 9
    4195 0000045d 8BBE          MOVL      XAR1,*--SP            ; [CPU_] 
    4196                      .dwcfi  cfa_offset, -2
    4197                      .dwcfi  restore_reg, 7
    4198              $C$DW$229       .dwtag  DW_TAG_TI_branch
    4199                      .dwattr $C$DW$229, DW_AT_low_pc(0x00)
    4200                      .dwattr $C$DW$229, DW_AT_TI_return
    4201              
    4202 0000045e 0006          LRETR     ; [CPU_] 
    4203                      ; return occurs ; [] 
    4204                      .dwattr $C$DW$220, DW_AT_TI_end_file("C:/Users/wmj/Desktop/BM1000_v1.1/sw/drivers/drvic/modbus/mb.c")
    4205                      .dwattr $C$DW$220, DW_AT_TI_end_line(0x277)
    4206                      .dwattr $C$DW$220, DW_AT_TI_end_column(0x01)
    4207                      .dwendentry
    4208                      .dwendtag $C$DW$220
    4209              
    4210 0000045f               .sect   ".text"
    4211                      .clink
    4212                      .global _MB_Poll
    4213              
    4214              $C$DW$230       .dwtag  DW_TAG_subprogram
    4215                      .dwattr $C$DW$230, DW_AT_name("MB_Poll")
    4216                      .dwattr $C$DW$230, DW_AT_low_pc(_MB_Poll)
    4217                      .dwattr $C$DW$230, DW_AT_high_pc(0x00)
    4218                      .dwattr $C$DW$230, DW_AT_TI_symbol_name("_MB_Poll")
    4219                      .dwattr $C$DW$230, DW_AT_external
    4220                      .dwattr $C$DW$230, DW_AT_type(*$C$DW$T$129)
    4221                      .dwattr $C$DW$230, DW_AT_TI_begin_file("C:/Users/wmj/Desktop/BM1000_v1.1/sw/drivers/drvic/modbus/mb.c
    4222                      .dwattr $C$DW$230, DW_AT_TI_begin_line(0x184)
    4223                      .dwattr $C$DW$230, DW_AT_TI_begin_column(0x0e)
    4224                      .dwattr $C$DW$230, DW_AT_TI_max_frame_size(-4)
    4225                      .dwpsn  file "C:/Users/wmj/Desktop/BM1000_v1.1/sw/drivers/drvic/modbus/mb.c",line 389,column 1,is_stm
    4226              
    4227                      .dwfde $C$DW$CIE, _MB_Poll
TMS320C2000 Assembler PC v15.12.3 Wed Nov 22 01:55:15 2017

Tools Copyright (c) 1996-2015 Texas Instruments Incorporated
C:\Users\wmj\AppData\Local\Temp\1239610                              PAGE   81

    4228              $C$DW$231       .dwtag  DW_TAG_formal_parameter
    4229                      .dwattr $C$DW$231, DW_AT_name("handle")
    4230                      .dwattr $C$DW$231, DW_AT_TI_symbol_name("_handle")
    4231                      .dwattr $C$DW$231, DW_AT_type(*$C$DW$T$178)
    4232                      .dwattr $C$DW$231, DW_AT_location[DW_OP_reg12]
    4233              
    4234              
    4235              ;***************************************************************
    4236              ;* FNAME: _MB_Poll                      FR SIZE:   2           *
    4237              ;*                                                             *
    4238              ;* FUNCTION ENVIRONMENT                                        *
    4239              ;*                                                             *
    4240              ;* FUNCTION PROPERTIES                                         *
    4241              ;*                            0 Parameter,  0 Auto,  2 SOE     *
    4242              ;***************************************************************
    4243              
    4244              _MB_Poll:
    4245              ;* AR6   assigned to $O$C1
    4246              ;* AR1   assigned to _handle
    4247              $C$DW$232       .dwtag  DW_TAG_variable
    4248                      .dwattr $C$DW$232, DW_AT_name("handle")
    4249                      .dwattr $C$DW$232, DW_AT_TI_symbol_name("_handle")
    4250                      .dwattr $C$DW$232, DW_AT_type(*$C$DW$T$200)
    4251                      .dwattr $C$DW$232, DW_AT_location[DW_OP_reg6]
    4252              
    4253              ;* AR4   assigned to $O$U7
    4254                      .dwcfi  cfa_offset, -2
    4255                      .dwcfi  save_reg_to_mem, 26, 0
    4256 0000045f 83A4          MOVL      XAR5,XAR4             ; [CPU_] |389| 
    4257 00000460 B2BD          MOVL      *SP++,XAR1            ; [CPU_] 
    4258                      .dwcfi  save_reg_to_mem, 7, 2
    4259                      .dwcfi  cfa_offset, -4
    4260                      .dwpsn  file "C:/Users/wmj/Desktop/BM1000_v1.1/sw/drivers/drvic/modbus/mb.c",line 402,column 5,is_stm
    4261 00000461 DD1E          ADDB      XAR5,#30              ; [CPU_] |402| 
    4262              $C$DW$233       .dwtag  DW_TAG_TI_branch
    4263                      .dwattr $C$DW$233, DW_AT_low_pc(0x00)
    4264                      .dwattr $C$DW$233, DW_AT_name("_MB_PortEventGet")
    4265                      .dwattr $C$DW$233, DW_AT_TI_call
    4266              
    4267 00000462 7640'         LCR       #_MB_PortEventGet     ; [CPU_] |402| 
         00000463 015F 
    4268                      ; call occurs [#_MB_PortEventGet] ; [] |402| 
    4269                      .dwpsn  file "C:/Users/wmj/Desktop/BM1000_v1.1/sw/drivers/drvic/modbus/mb.c",line 389,column 1,is_stm
    4270 00000464 8BA4          MOVL      XAR1,XAR4             ; [CPU_] |389| 
    4271                      .dwpsn  file "C:/Users/wmj/Desktop/BM1000_v1.1/sw/drivers/drvic/modbus/mb.c",line 402,column 5,is_stm
    4272 00000465 5201          CMPB      AL,#1                 ; [CPU_] |402| 
    4273 00000466 6040          B         $C$L144,NEQ           ; [CPU_] |402| 
    4274                      ; branchcc occurs ; [] |402| 
    4275 00000467 D01E          MOVB      XAR0,#30              ; [CPU_] |402| 
    4276 00000468 9291          MOV       AL,*+XAR1[AR0]        ; [CPU_] |402| 
    4277 00000469 5201          CMPB      AL,#1                 ; [CPU_] |402| 
    4278 0000046a 6126          B         $C$L142,EQ            ; [CPU_] |402| 
    4279                      ; branchcc occurs ; [] |402| 
    4280 0000046b 5202          CMPB      AL,#2                 ; [CPU_] |402| 
    4281 0000046c 603A          B         $C$L144,NEQ           ; [CPU_] |402| 
TMS320C2000 Assembler PC v15.12.3 Wed Nov 22 01:55:15 2017

Tools Copyright (c) 1996-2015 Texas Instruments Incorporated
C:\Users\wmj\AppData\Local\Temp\1239610                              PAGE   82

    4282                      ; branchcc occurs ; [] |402| 
    4283                      .dwpsn  file "C:/Users/wmj/Desktop/BM1000_v1.1/sw/drivers/drvic/modbus/mb.c",line 422,column 6,is_stm
    4284 0000046d D00A          MOVB      XAR0,#10              ; [CPU_] |422| 
    4285 0000046e 8A91          MOVL      XAR4,*+XAR1[AR0]      ; [CPU_] |422| 
    4286 0000046f 92CC          MOV       AL,*+XAR4[1]          ; [CPU_] |422| 
    4287 00000470 5203          CMPB      AL,#3                 ; [CPU_] |422| 
    4288 00000471 610D          B         $C$L139,EQ            ; [CPU_] |422| 
    4289                      ; branchcc occurs ; [] |422| 
    4290 00000472 5205          CMPB      AL,#5                 ; [CPU_] |422| 
    4291 00000473 6107          B         $C$L138,EQ            ; [CPU_] |422| 
    4292                      ; branchcc occurs ; [] |422| 
    4293 00000474 5206          CMPB      AL,#6                 ; [CPU_] |422| 
    4294 00000475 600E          B         $C$L141,NEQ           ; [CPU_] |422| 
    4295                      ; branchcc occurs ; [] |422| 
    4296                      .dwpsn  file "C:/Users/wmj/Desktop/BM1000_v1.1/sw/drivers/drvic/modbus/mb.c",line 438,column 9,is_stm
    4297 00000476 8AA1          MOVL      XAR4,XAR1             ; [CPU_] |438| 
    4298              $C$DW$234       .dwtag  DW_TAG_TI_branch
    4299                      .dwattr $C$DW$234, DW_AT_low_pc(0x00)
    4300                      .dwattr $C$DW$234, DW_AT_name("_MB_FuncWriteHoldingRegister")
    4301                      .dwattr $C$DW$234, DW_AT_TI_call
    4302              
    4303 00000477 7640'         LCR       #_MB_FuncWriteHoldingRegister ; [CPU_] |438| 
         00000478 016C 
    4304                      ; call occurs [#_MB_FuncWriteHoldingRegister] ; [] |438| 
    4305                      .dwpsn  file "C:/Users/wmj/Desktop/BM1000_v1.1/sw/drivers/drvic/modbus/mb.c",line 439,column 5,is_stm
    4306 00000479 6F08          B         $C$L140,UNC           ; [CPU_] |439| 
    4307                      ; branch occurs ; [] |439| 
    4308 0000047a       $C$L138:    
    4309                      .dwpsn  file "C:/Users/wmj/Desktop/BM1000_v1.1/sw/drivers/drvic/modbus/mb.c",line 435,column 24,is_st
    4310 0000047a 8AA1          MOVL      XAR4,XAR1             ; [CPU_] |435| 
    4311              $C$DW$235       .dwtag  DW_TAG_TI_branch
    4312                      .dwattr $C$DW$235, DW_AT_low_pc(0x00)
    4313                      .dwattr $C$DW$235, DW_AT_name("_MB_FuncWriteCoilsRegister")
    4314                      .dwattr $C$DW$235, DW_AT_TI_call
    4315              
    4316 0000047b 7640'         LCR       #_MB_FuncWriteCoilsRegister ; [CPU_] |435| 
         0000047c 0245 
    4317                      ; call occurs [#_MB_FuncWriteCoilsRegister] ; [] |435| 
    4318                      .dwpsn  file "C:/Users/wmj/Desktop/BM1000_v1.1/sw/drivers/drvic/modbus/mb.c",line 436,column 5,is_stm
    4319 0000047d 6F04          B         $C$L140,UNC           ; [CPU_] |436| 
    4320                      ; branch occurs ; [] |436| 
    4321 0000047e       $C$L139:    
    4322                      .dwpsn  file "C:/Users/wmj/Desktop/BM1000_v1.1/sw/drivers/drvic/modbus/mb.c",line 430,column 9,is_stm
    4323 0000047e 8AA1          MOVL      XAR4,XAR1             ; [CPU_] |430| 
    4324              $C$DW$236       .dwtag  DW_TAG_TI_branch
    4325                      .dwattr $C$DW$236, DW_AT_low_pc(0x00)
    4326                      .dwattr $C$DW$236, DW_AT_name("_MB_FuncReadHoldingRegister")
    4327                      .dwattr $C$DW$236, DW_AT_TI_call
    4328              
    4329 0000047f 7640'         LCR       #_MB_FuncReadHoldingRegister ; [CPU_] |430| 
         00000480 02F8 
    4330                      ; call occurs [#_MB_FuncReadHoldingRegister] ; [] |430| 
    4331 00000481       $C$L140:    
    4332 00000481 D00A          MOVB      XAR0,#10              ; [CPU_] 
    4333 00000482 8A91          MOVL      XAR4,*+XAR1[AR0]      ; [CPU_] 
TMS320C2000 Assembler PC v15.12.3 Wed Nov 22 01:55:15 2017

Tools Copyright (c) 1996-2015 Texas Instruments Incorporated
C:\Users\wmj\AppData\Local\Temp\1239610                              PAGE   83

    4334 00000483       $C$L141:    
    4335                      .dwpsn  file "C:/Users/wmj/Desktop/BM1000_v1.1/sw/drivers/drvic/modbus/mb.c",line 447,column 9,is_stm
    4336 00000483 92C4          MOV       AL,*+XAR4[0]          ; [CPU_] |447| 
    4337 00000484 5210          CMPB      AL,#16                ; [CPU_] |447| 
    4338 00000485 6121          B         $C$L144,EQ            ; [CPU_] |447| 
    4339                      ; branchcc occurs ; [] |447| 
    4340                      .dwpsn  file "C:/Users/wmj/Desktop/BM1000_v1.1/sw/drivers/drvic/modbus/mb.c",line 458,column 10,is_st
    4341 00000486 8AE1          MOVL      XAR4,*+XAR1[4]        ; [CPU_] |458| 
    4342 00000487 9A13          MOVB      AL,#19                ; [CPU_] |458| 
    4343              $C$DW$237       .dwtag  DW_TAG_TI_branch
    4344                      .dwattr $C$DW$237, DW_AT_low_pc(0x00)
    4345                      .dwattr $C$DW$237, DW_AT_name("_GPIO_setLow")
    4346                      .dwattr $C$DW$237, DW_AT_TI_call
    4347              
    4348 00000488 7640!         LCR       #_GPIO_setLow         ; [CPU_] |458| 
         00000489 0000 
    4349                      ; call occurs [#_GPIO_setLow] ; [] |458| 
    4350                      .dwpsn  file "C:/Users/wmj/Desktop/BM1000_v1.1/sw/drivers/drvic/modbus/mb.c",line 460,column 13,is_st
    4351 0000048a 8AA1          MOVL      XAR4,XAR1             ; [CPU_] |460| 
    4352              $C$DW$238       .dwtag  DW_TAG_TI_branch
    4353                      .dwattr $C$DW$238, DW_AT_low_pc(0x00)
    4354                      .dwattr $C$DW$238, DW_AT_name("_MB_RTUSend")
    4355                      .dwattr $C$DW$238, DW_AT_TI_call
    4356              
    4357 0000048b 7640'         LCR       #_MB_RTUSend          ; [CPU_] |460| 
         0000048c 00AB 
    4358                      ; call occurs [#_MB_RTUSend] ; [] |460| 
    4359 0000048d D01A          MOVB      XAR0,#26              ; [CPU_] |460| 
    4360 0000048e 9691          MOV       *+XAR1[AR0],AL        ; [CPU_] |460| 
    4361 0000048f 6F17          B         $C$L144,UNC           ; [CPU_] |460| 
    4362                      ; branch occurs ; [] |460| 
    4363 00000490       $C$L142:    
    4364                      .dwpsn  file "C:/Users/wmj/Desktop/BM1000_v1.1/sw/drivers/drvic/modbus/mb.c",line 407,column 6,is_stm
    4365              $C$DW$239       .dwtag  DW_TAG_TI_branch
    4366                      .dwattr $C$DW$239, DW_AT_low_pc(0x00)
    4367                      .dwattr $C$DW$239, DW_AT_name("_MB_RTUReceive")
    4368                      .dwattr $C$DW$239, DW_AT_TI_call
    4369              
    4370 00000490 7640'         LCR       #_MB_RTUReceive       ; [CPU_] |407| 
         00000491 0148 
    4371                      ; call occurs [#_MB_RTUReceive] ; [] |407| 
    4372 00000492 D01A          MOVB      XAR0,#26              ; [CPU_] |407| 
    4373 00000493 9691          MOV       *+XAR1[AR0],AL        ; [CPU_] |407| 
    4374                      .dwpsn  file "C:/Users/wmj/Desktop/BM1000_v1.1/sw/drivers/drvic/modbus/mb.c",line 408,column 6,is_stm
    4375 00000494 D01A          MOVB      XAR0,#26              ; [CPU_] |408| 
    4376 00000495 9291          MOV       AL,*+XAR1[AR0]        ; [CPU_] |408| 
    4377 00000496 6010          B         $C$L144,NEQ           ; [CPU_] |408| 
    4378                      ; branchcc occurs ; [] |408| 
    4379                      .dwpsn  file "C:/Users/wmj/Desktop/BM1000_v1.1/sw/drivers/drvic/modbus/mb.c",line 411,column 3,is_stm
    4380 00000497 D00A          MOVB      XAR0,#10              ; [CPU_] |411| 
    4381 00000498 8A91          MOVL      XAR4,*+XAR1[AR0]      ; [CPU_] |411| 
    4382 00000499 88C4          MOVZ      AR6,*+XAR4[0]         ; [CPU_] |411| 
    4383 0000049a 80A6          MOVZ      AR7,AR6               ; [CPU_] |411| 
    4384 0000049b D019          MOVB      XAR0,#25              ; [CPU_] |411| 
    4385 0000049c 0E91          MOVU      ACC,*+XAR1[AR0]       ; [CPU_] |411| 
TMS320C2000 Assembler PC v15.12.3 Wed Nov 22 01:55:15 2017

Tools Copyright (c) 1996-2015 Texas Instruments Incorporated
C:\Users\wmj\AppData\Local\Temp\1239610                              PAGE   84

    4386 0000049d 0FA7          CMPL      ACC,XAR7              ; [CPU_] |411| 
    4387 0000049e 6104          B         $C$L143,EQ            ; [CPU_] |411| 
    4388                      ; branchcc occurs ; [] |411| 
    4389 0000049f 92A6          MOV       AL,AR6                ; [CPU_] 
    4390 000004a0 5210          CMPB      AL,#16                ; [CPU_] |411| 
    4391 000004a1 6005          B         $C$L144,NEQ           ; [CPU_] |411| 
    4392                      ; branchcc occurs ; [] |411| 
    4393 000004a2       $C$L143:    
    4394                      .dwpsn  file "C:/Users/wmj/Desktop/BM1000_v1.1/sw/drivers/drvic/modbus/mb.c",line 413,column 4,is_stm
    4395 000004a2 8AA1          MOVL      XAR4,XAR1             ; [CPU_] |413| 
    4396 000004a3 9A02          MOVB      AL,#2                 ; [CPU_] |413| 
    4397              $C$DW$240       .dwtag  DW_TAG_TI_branch
    4398                      .dwattr $C$DW$240, DW_AT_low_pc(0x00)
    4399                      .dwattr $C$DW$240, DW_AT_name("_MB_PortEventPost")
    4400                      .dwattr $C$DW$240, DW_AT_TI_call
    4401              
    4402 000004a4 7640'         LCR       #_MB_PortEventPost    ; [CPU_] |413| 
         000004a5 0011 
    4403                      ; call occurs [#_MB_PortEventPost] ; [] |413| 
    4404 000004a6       $C$L144:    
    4405                      .dwpsn  file "C:/Users/wmj/Desktop/BM1000_v1.1/sw/drivers/drvic/modbus/mb.c",line 469,column 3,is_stm
    4406 000004a6 9A00          MOVB      AL,#0                 ; [CPU_] |469| 
    4407 000004a7 8BBE          MOVL      XAR1,*--SP            ; [CPU_] 
    4408                      .dwcfi  cfa_offset, -2
    4409                      .dwcfi  restore_reg, 7
    4410              $C$DW$241       .dwtag  DW_TAG_TI_branch
    4411                      .dwattr $C$DW$241, DW_AT_low_pc(0x00)
    4412                      .dwattr $C$DW$241, DW_AT_TI_return
    4413              
    4414 000004a8 0006          LRETR     ; [CPU_] 
    4415                      ; return occurs ; [] 
    4416                      .dwattr $C$DW$230, DW_AT_TI_end_file("C:/Users/wmj/Desktop/BM1000_v1.1/sw/drivers/drvic/modbus/mb.c")
    4417                      .dwattr $C$DW$230, DW_AT_TI_end_line(0x1d6)
    4418                      .dwattr $C$DW$230, DW_AT_TI_end_column(0x01)
    4419                      .dwendentry
    4420                      .dwendtag $C$DW$230
    4421              
    4422              ;***************************************************************
    4423              ;* FLOATING-POINT CONSTANTS                                    *
    4424              ;***************************************************************
    4425 00000000               .sect   ".econst"
    4426                      .align  2
    4427 00000000 0000  $C$FL1: .xldouble       $strtod("0x1p+24")
         00000001 0000 
         00000002 0000 
         00000003 4170 
    4428              ;**************************************************************
    4429              ;* UNDEFINED EXTERNAL REFERENCES                              *
    4430              ;**************************************************************
    4431                      .global _FSM_clrOverCurrentReg
    4432                      .global _FSM_ShutDowm
    4433                      .global _FSM_485Edit_State_Box
    4434                      .global _SCI_enableTx
    4435                      .global _SCI_disableTx
    4436                      .global _MOTOR_setMotorFlag
TMS320C2000 Assembler PC v15.12.3 Wed Nov 22 01:55:15 2017

Tools Copyright (c) 1996-2015 Texas Instruments Incorporated
C:\Users\wmj\AppData\Local\Temp\1239610                              PAGE   85

    4437                      .global _GPIO_setHigh
    4438                      .global _TIMER_clearFlag
    4439                      .global _SCI_enableRx
    4440                      .global _GPIO_setLow
    4441                      .global _SCI_disableRx
    4442                      .global _SCI_getDataNonBlocking
    4443                      .global _SCI_putDataNonBlocking
    4444                      .global _MOTOR_getMotorFlag
    4445                      .global _FSM_485Read_State_Box
    4446                      .global __IQ7int
    4447                      .global __IQ24frac
    4448                      .global __IQ7frac
    4449                      .global FD$$MPY
    4450                      .global FS$$TOFD
    4451                      .global FD$$TOL
    4452              
    4453              ;***************************************************************
    4454              ;* TYPE INFORMATION                                            *
    4455              ;***************************************************************
    4456              
    4457              $C$DW$T$34      .dwtag  DW_TAG_enumeration_type
    4458                      .dwattr $C$DW$T$34, DW_AT_byte_size(0x01)
    4459              $C$DW$242       .dwtag  DW_TAG_enumerator
    4460                      .dwattr $C$DW$242, DW_AT_name("CTRL_TargetProc_2806x")
    4461                      .dwattr $C$DW$242, DW_AT_const_value(0x00)
    4462              
    4463              $C$DW$243       .dwtag  DW_TAG_enumerator
    4464                      .dwattr $C$DW$243, DW_AT_name("CTRL_TargetProc_2805x")
    4465                      .dwattr $C$DW$243, DW_AT_const_value(0x01)
    4466              
    4467              $C$DW$244       .dwtag  DW_TAG_enumerator
    4468                      .dwattr $C$DW$244, DW_AT_name("CTRL_TargetProc_2803x")
    4469                      .dwattr $C$DW$244, DW_AT_const_value(0x02)
    4470              
    4471              $C$DW$245       .dwtag  DW_TAG_enumerator
    4472                      .dwattr $C$DW$245, DW_AT_name("CTRL_TargetProc_2802x")
    4473                      .dwattr $C$DW$245, DW_AT_const_value(0x03)
    4474              
    4475              $C$DW$246       .dwtag  DW_TAG_enumerator
    4476                      .dwattr $C$DW$246, DW_AT_name("CTRL_TargetProc_Unknown")
    4477                      .dwattr $C$DW$246, DW_AT_const_value(0x04)
    4478              
    4479                      .dwendtag $C$DW$T$34
    4480              
    4481              $C$DW$T$35      .dwtag  DW_TAG_typedef
    4482                      .dwattr $C$DW$T$35, DW_AT_name("CTRL_TargetProc_e")
    4483                      .dwattr $C$DW$T$35, DW_AT_type(*$C$DW$T$34)
    4484                      .dwattr $C$DW$T$35, DW_AT_language(DW_LANG_C)
    4485              
    4486              
    4487              $C$DW$T$46      .dwtag  DW_TAG_enumeration_type
    4488                      .dwattr $C$DW$T$46, DW_AT_byte_size(0x01)
    4489              $C$DW$247       .dwtag  DW_TAG_enumerator
    4490                      .dwattr $C$DW$247, DW_AT_name("Fsm_State_Idle")
    4491                      .dwattr $C$DW$247, DW_AT_const_value(0x00)
TMS320C2000 Assembler PC v15.12.3 Wed Nov 22 01:55:15 2017

Tools Copyright (c) 1996-2015 Texas Instruments Incorporated
C:\Users\wmj\AppData\Local\Temp\1239610                              PAGE   86

    4492              
    4493              $C$DW$248       .dwtag  DW_TAG_enumerator
    4494                      .dwattr $C$DW$248, DW_AT_name("Fsm_State_MotorFunc")
    4495                      .dwattr $C$DW$248, DW_AT_const_value(0x01)
    4496              
    4497              $C$DW$249       .dwtag  DW_TAG_enumerator
    4498                      .dwattr $C$DW$249, DW_AT_name("Fsm_State_Spinning")
    4499                      .dwattr $C$DW$249, DW_AT_const_value(0x02)
    4500              
    4501              $C$DW$250       .dwtag  DW_TAG_enumerator
    4502                      .dwattr $C$DW$250, DW_AT_name("Fsm_State_Reverse")
    4503                      .dwattr $C$DW$250, DW_AT_const_value(0x03)
    4504              
    4505              $C$DW$251       .dwtag  DW_TAG_enumerator
    4506                      .dwattr $C$DW$251, DW_AT_name("Fsm_State_Slowdown")
    4507                      .dwattr $C$DW$251, DW_AT_const_value(0x04)
    4508              
    4509              $C$DW$252       .dwtag  DW_TAG_enumerator
    4510                      .dwattr $C$DW$252, DW_AT_name("Fsm_State_ConstTorque")
    4511                      .dwattr $C$DW$252, DW_AT_const_value(0x05)
    4512              
    4513              $C$DW$253       .dwtag  DW_TAG_enumerator
    4514                      .dwattr $C$DW$253, DW_AT_name("Fsm_State_MagneticBrake")
    4515                      .dwattr $C$DW$253, DW_AT_const_value(0x06)
    4516              
    4517              $C$DW$254       .dwtag  DW_TAG_enumerator
    4518                      .dwattr $C$DW$254, DW_AT_name("Fsm_State_FullyClose")
    4519                      .dwattr $C$DW$254, DW_AT_const_value(0x07)
    4520              
    4521              $C$DW$255       .dwtag  DW_TAG_enumerator
    4522                      .dwattr $C$DW$255, DW_AT_name("Fsm_State_InchingOpen")
    4523                      .dwattr $C$DW$255, DW_AT_const_value(0x08)
    4524              
    4525              $C$DW$256       .dwtag  DW_TAG_enumerator
    4526                      .dwattr $C$DW$256, DW_AT_name("Fsm_State_FullyOpen")
    4527                      .dwattr $C$DW$256, DW_AT_const_value(0x09)
    4528              
    4529              $C$DW$257       .dwtag  DW_TAG_enumerator
    4530                      .dwattr $C$DW$257, DW_AT_name("Fsm_State_SharedState1")
    4531                      .dwattr $C$DW$257, DW_AT_const_value(0x0a)
    4532              
    4533              $C$DW$258       .dwtag  DW_TAG_enumerator
    4534                      .dwattr $C$DW$258, DW_AT_name("Fsm_State_SharedState2")
    4535                      .dwattr $C$DW$258, DW_AT_const_value(0x0b)
    4536              
    4537              $C$DW$259       .dwtag  DW_TAG_enumerator
    4538                      .dwattr $C$DW$259, DW_AT_name("Fsm_State_SharedState3")
    4539                      .dwattr $C$DW$259, DW_AT_const_value(0x0c)
    4540              
    4541              $C$DW$260       .dwtag  DW_TAG_enumerator
    4542                      .dwattr $C$DW$260, DW_AT_name("Fsm_State_NormWait")
    4543                      .dwattr $C$DW$260, DW_AT_const_value(0x0d)
    4544              
    4545              $C$DW$261       .dwtag  DW_TAG_enumerator
    4546                      .dwattr $C$DW$261, DW_AT_name("Fsm_State_STOP")
TMS320C2000 Assembler PC v15.12.3 Wed Nov 22 01:55:15 2017

Tools Copyright (c) 1996-2015 Texas Instruments Incorporated
C:\Users\wmj\AppData\Local\Temp\1239610                              PAGE   87

    4547                      .dwattr $C$DW$261, DW_AT_const_value(0x0e)
    4548              
    4549              $C$DW$262       .dwtag  DW_TAG_enumerator
    4550                      .dwattr $C$DW$262, DW_AT_name("Fsm_State_Num")
    4551                      .dwattr $C$DW$262, DW_AT_const_value(0x0f)
    4552              
    4553                      .dwendtag $C$DW$T$46
    4554              
    4555              $C$DW$T$47      .dwtag  DW_TAG_typedef
    4556                      .dwattr $C$DW$T$47, DW_AT_name("FSM_State_e")
    4557                      .dwattr $C$DW$T$47, DW_AT_type(*$C$DW$T$46)
    4558                      .dwattr $C$DW$T$47, DW_AT_language(DW_LANG_C)
    4559              
    4560              
    4561              $C$DW$T$70      .dwtag  DW_TAG_array_type
    4562                      .dwattr $C$DW$T$70, DW_AT_type(*$C$DW$T$47)
    4563                      .dwattr $C$DW$T$70, DW_AT_language(DW_LANG_C)
    4564                      .dwattr $C$DW$T$70, DW_AT_byte_size(0x0f)
    4565              $C$DW$263       .dwtag  DW_TAG_subrange_type
    4566                      .dwattr $C$DW$263, DW_AT_upper_bound(0x0e)
    4567              
    4568                      .dwendtag $C$DW$T$70
    4569              
    4570              
    4571              $C$DW$T$48      .dwtag  DW_TAG_enumeration_type
    4572                      .dwattr $C$DW$T$48, DW_AT_byte_size(0x01)
    4573              $C$DW$264       .dwtag  DW_TAG_enumerator
    4574                      .dwattr $C$DW$264, DW_AT_name("FSM_Trans_RetireState")
    4575                      .dwattr $C$DW$264, DW_AT_const_value(0x00)
    4576              
    4577              $C$DW$265       .dwtag  DW_TAG_enumerator
    4578                      .dwattr $C$DW$265, DW_AT_name("FSM_Trans_LoopForever")
    4579                      .dwattr $C$DW$265, DW_AT_const_value(0x01)
    4580              
    4581              $C$DW$266       .dwtag  DW_TAG_enumerator
    4582                      .dwattr $C$DW$266, DW_AT_name("FSM_Trans_JumpState1")
    4583                      .dwattr $C$DW$266, DW_AT_const_value(0x02)
    4584              
    4585              $C$DW$267       .dwtag  DW_TAG_enumerator
    4586                      .dwattr $C$DW$267, DW_AT_name("FSM_Trans_JumpState2")
    4587                      .dwattr $C$DW$267, DW_AT_const_value(0x03)
    4588              
    4589                      .dwendtag $C$DW$T$48
    4590              
    4591              $C$DW$T$49      .dwtag  DW_TAG_typedef
    4592                      .dwattr $C$DW$T$49, DW_AT_name("FSM_Trans_e")
    4593                      .dwattr $C$DW$T$49, DW_AT_type(*$C$DW$T$48)
    4594                      .dwattr $C$DW$T$49, DW_AT_language(DW_LANG_C)
    4595              
    4596              
    4597              $C$DW$T$50      .dwtag  DW_TAG_enumeration_type
    4598                      .dwattr $C$DW$T$50, DW_AT_byte_size(0x01)
    4599              $C$DW$268       .dwtag  DW_TAG_enumerator
    4600                      .dwattr $C$DW$268, DW_AT_name("FSM_Event_IDLE")
    4601                      .dwattr $C$DW$268, DW_AT_const_value(0x00)
TMS320C2000 Assembler PC v15.12.3 Wed Nov 22 01:55:15 2017

Tools Copyright (c) 1996-2015 Texas Instruments Incorporated
C:\Users\wmj\AppData\Local\Temp\1239610                              PAGE   88

    4602              
    4603              $C$DW$269       .dwtag  DW_TAG_enumerator
    4604                      .dwattr $C$DW$269, DW_AT_name("FSM_Event_MeetTime")
    4605                      .dwattr $C$DW$269, DW_AT_const_value(0x01)
    4606              
    4607              $C$DW$270       .dwtag  DW_TAG_enumerator
    4608                      .dwattr $C$DW$270, DW_AT_name("FSM_Event_ArriveRefSpd")
    4609                      .dwattr $C$DW$270, DW_AT_const_value(0x02)
    4610              
    4611              $C$DW$271       .dwtag  DW_TAG_enumerator
    4612                      .dwattr $C$DW$271, DW_AT_name("FSM_Event_485Start")
    4613                      .dwattr $C$DW$271, DW_AT_const_value(0x03)
    4614              
    4615              $C$DW$272       .dwtag  DW_TAG_enumerator
    4616                      .dwattr $C$DW$272, DW_AT_name("FSM_Event_Sensor0")
    4617                      .dwattr $C$DW$272, DW_AT_const_value(0x04)
    4618              
    4619              $C$DW$273       .dwtag  DW_TAG_enumerator
    4620                      .dwattr $C$DW$273, DW_AT_name("FSM_Event_Sensor1")
    4621                      .dwattr $C$DW$273, DW_AT_const_value(0x05)
    4622              
    4623              $C$DW$274       .dwtag  DW_TAG_enumerator
    4624                      .dwattr $C$DW$274, DW_AT_name("FSM_Event_arrive_point")
    4625                      .dwattr $C$DW$274, DW_AT_const_value(0x06)
    4626              
    4627              $C$DW$275       .dwtag  DW_TAG_enumerator
    4628                      .dwattr $C$DW$275, DW_AT_name("FSM_Event_ContactSensor")
    4629                      .dwattr $C$DW$275, DW_AT_const_value(0x07)
    4630              
    4631              $C$DW$276       .dwtag  DW_TAG_enumerator
    4632                      .dwattr $C$DW$276, DW_AT_name("FSM_Event_ZeroSpeed")
    4633                      .dwattr $C$DW$276, DW_AT_const_value(0x08)
    4634              
    4635              $C$DW$277       .dwtag  DW_TAG_enumerator
    4636                      .dwattr $C$DW$277, DW_AT_name("FSM_Event_MoveIdle")
    4637                      .dwattr $C$DW$277, DW_AT_const_value(0x09)
    4638              
    4639              $C$DW$278       .dwtag  DW_TAG_enumerator
    4640                      .dwattr $C$DW$278, DW_AT_name("FSM_Event_Num")
    4641                      .dwattr $C$DW$278, DW_AT_const_value(0x0a)
    4642              
    4643                      .dwendtag $C$DW$T$50
    4644              
    4645              $C$DW$T$51      .dwtag  DW_TAG_typedef
    4646                      .dwattr $C$DW$T$51, DW_AT_name("FSM_Event_e")
    4647                      .dwattr $C$DW$T$51, DW_AT_type(*$C$DW$T$50)
    4648                      .dwattr $C$DW$T$51, DW_AT_language(DW_LANG_C)
    4649              
    4650              
    4651              $C$DW$T$52      .dwtag  DW_TAG_enumeration_type
    4652                      .dwattr $C$DW$T$52, DW_AT_byte_size(0x01)
    4653              $C$DW$279       .dwtag  DW_TAG_enumerator
    4654                      .dwattr $C$DW$279, DW_AT_name("FSM_StateMode_Free_mode")
    4655                      .dwattr $C$DW$279, DW_AT_const_value(0x00)
    4656              
TMS320C2000 Assembler PC v15.12.3 Wed Nov 22 01:55:15 2017

Tools Copyright (c) 1996-2015 Texas Instruments Incorporated
C:\Users\wmj\AppData\Local\Temp\1239610                              PAGE   89

    4657              $C$DW$280       .dwtag  DW_TAG_enumerator
    4658                      .dwattr $C$DW$280, DW_AT_name("FSM_StateMode_Nipping_mode")
    4659                      .dwattr $C$DW$280, DW_AT_const_value(0x01)
    4660              
    4661              $C$DW$281       .dwtag  DW_TAG_enumerator
    4662                      .dwattr $C$DW$281, DW_AT_name("FSM_StateMode_Notching_mode")
    4663                      .dwattr $C$DW$281, DW_AT_const_value(0x02)
    4664              
    4665              $C$DW$282       .dwtag  DW_TAG_enumerator
    4666                      .dwattr $C$DW$282, DW_AT_name("FSM_StateMode_TrimPlat_mode")
    4667                      .dwattr $C$DW$282, DW_AT_const_value(0x03)
    4668              
    4669              $C$DW$283       .dwtag  DW_TAG_enumerator
    4670                      .dwattr $C$DW$283, DW_AT_name("FSM_StateMode_Clamper_mode")
    4671                      .dwattr $C$DW$283, DW_AT_const_value(0x04)
    4672              
    4673              $C$DW$284       .dwtag  DW_TAG_enumerator
    4674                      .dwattr $C$DW$284, DW_AT_name("FSM_StateMode_GlueTank_mode")
    4675                      .dwattr $C$DW$284, DW_AT_const_value(0x05)
    4676              
    4677              $C$DW$285       .dwtag  DW_TAG_enumerator
    4678                      .dwattr $C$DW$285, DW_AT_name("FSM_StateMode_BlowerFan_mode")
    4679                      .dwattr $C$DW$285, DW_AT_const_value(0x06)
    4680              
    4681              $C$DW$286       .dwtag  DW_TAG_enumerator
    4682                      .dwattr $C$DW$286, DW_AT_name("FSM_StateMode_Trolley_mode")
    4683                      .dwattr $C$DW$286, DW_AT_const_value(0x07)
    4684              
    4685              $C$DW$287       .dwtag  DW_TAG_enumerator
    4686                      .dwattr $C$DW$287, DW_AT_name("FSM_StateMode_Num")
    4687                      .dwattr $C$DW$287, DW_AT_const_value(0x08)
    4688              
    4689                      .dwendtag $C$DW$T$52
    4690              
    4691              $C$DW$T$53      .dwtag  DW_TAG_typedef
    4692                      .dwattr $C$DW$T$53, DW_AT_name("FSM_StateMode_e")
    4693                      .dwattr $C$DW$T$53, DW_AT_type(*$C$DW$T$52)
    4694                      .dwattr $C$DW$T$53, DW_AT_language(DW_LANG_C)
    4695              
    4696              
    4697              $C$DW$T$54      .dwtag  DW_TAG_enumeration_type
    4698                      .dwattr $C$DW$T$54, DW_AT_byte_size(0x01)
    4699              $C$DW$288       .dwtag  DW_TAG_enumerator
    4700                      .dwattr $C$DW$288, DW_AT_name("FSM_485EditOpt_RefSpeed")
    4701                      .dwattr $C$DW$288, DW_AT_const_value(0x00)
    4702              
    4703              $C$DW$289       .dwtag  DW_TAG_enumerator
    4704                      .dwattr $C$DW$289, DW_AT_name("FSM_485EditOpt_CondValue")
    4705                      .dwattr $C$DW$289, DW_AT_const_value(0x01)
    4706              
    4707              $C$DW$290       .dwtag  DW_TAG_enumerator
    4708                      .dwattr $C$DW$290, DW_AT_name("FSM_485EditOpt_Condition")
    4709                      .dwattr $C$DW$290, DW_AT_const_value(0x02)
    4710              
    4711              $C$DW$291       .dwtag  DW_TAG_enumerator
TMS320C2000 Assembler PC v15.12.3 Wed Nov 22 01:55:15 2017

Tools Copyright (c) 1996-2015 Texas Instruments Incorporated
C:\Users\wmj\AppData\Local\Temp\1239610                              PAGE   90

    4712                      .dwattr $C$DW$291, DW_AT_name("FSM_485EditOpt_RunAction")
    4713                      .dwattr $C$DW$291, DW_AT_const_value(0x03)
    4714              
    4715              $C$DW$292       .dwtag  DW_TAG_enumerator
    4716                      .dwattr $C$DW$292, DW_AT_name("FSM_485EditOpt_NextState")
    4717                      .dwattr $C$DW$292, DW_AT_const_value(0x04)
    4718              
    4719              $C$DW$293       .dwtag  DW_TAG_enumerator
    4720                      .dwattr $C$DW$293, DW_AT_name("FSM_485EditOpt_Num")
    4721                      .dwattr $C$DW$293, DW_AT_const_value(0x05)
    4722              
    4723                      .dwendtag $C$DW$T$54
    4724              
    4725              $C$DW$T$55      .dwtag  DW_TAG_typedef
    4726                      .dwattr $C$DW$T$55, DW_AT_name("FSM_EditOpt_e")
    4727                      .dwattr $C$DW$T$55, DW_AT_type(*$C$DW$T$54)
    4728                      .dwattr $C$DW$T$55, DW_AT_language(DW_LANG_C)
    4729              
    4730              
    4731              $C$DW$T$56      .dwtag  DW_TAG_enumeration_type
    4732                      .dwattr $C$DW$T$56, DW_AT_byte_size(0x01)
    4733              $C$DW$294       .dwtag  DW_TAG_enumerator
    4734                      .dwattr $C$DW$294, DW_AT_name("FSM_Condition_Times")
    4735                      .dwattr $C$DW$294, DW_AT_const_value(0x00)
    4736              
    4737              $C$DW$295       .dwtag  DW_TAG_enumerator
    4738                      .dwattr $C$DW$295, DW_AT_name("FSM_Condition_Speed")
    4739                      .dwattr $C$DW$295, DW_AT_const_value(0x01)
    4740              
    4741              $C$DW$296       .dwtag  DW_TAG_enumerator
    4742                      .dwattr $C$DW$296, DW_AT_name("FSM_Condition_485Cmd")
    4743                      .dwattr $C$DW$296, DW_AT_const_value(0x02)
    4744              
    4745              $C$DW$297       .dwtag  DW_TAG_enumerator
    4746                      .dwattr $C$DW$297, DW_AT_name("FSM_Condition_KeyS1")
    4747                      .dwattr $C$DW$297, DW_AT_const_value(0x03)
    4748              
    4749              $C$DW$298       .dwtag  DW_TAG_enumerator
    4750                      .dwattr $C$DW$298, DW_AT_name("FSM_Condition_KeyS2")
    4751                      .dwattr $C$DW$298, DW_AT_const_value(0x04)
    4752              
    4753              $C$DW$299       .dwtag  DW_TAG_enumerator
    4754                      .dwattr $C$DW$299, DW_AT_name("FSM_Condition_AnalogS1")
    4755                      .dwattr $C$DW$299, DW_AT_const_value(0x05)
    4756              
    4757              $C$DW$300       .dwtag  DW_TAG_enumerator
    4758                      .dwattr $C$DW$300, DW_AT_name("FSM_Condition_AnalogS2")
    4759                      .dwattr $C$DW$300, DW_AT_const_value(0x06)
    4760              
    4761              $C$DW$301       .dwtag  DW_TAG_enumerator
    4762                      .dwattr $C$DW$301, DW_AT_name("FSM_Condition_ContactS1")
    4763                      .dwattr $C$DW$301, DW_AT_const_value(0x07)
    4764              
    4765              $C$DW$302       .dwtag  DW_TAG_enumerator
    4766                      .dwattr $C$DW$302, DW_AT_name("FSM_Condition_ContactS2")
TMS320C2000 Assembler PC v15.12.3 Wed Nov 22 01:55:15 2017

Tools Copyright (c) 1996-2015 Texas Instruments Incorporated
C:\Users\wmj\AppData\Local\Temp\1239610                              PAGE   91

    4767                      .dwattr $C$DW$302, DW_AT_const_value(0x08)
    4768              
    4769              $C$DW$303       .dwtag  DW_TAG_enumerator
    4770                      .dwattr $C$DW$303, DW_AT_name("FSM_Condition_ZeroSpeed")
    4771                      .dwattr $C$DW$303, DW_AT_const_value(0x09)
    4772              
    4773              $C$DW$304       .dwtag  DW_TAG_enumerator
    4774                      .dwattr $C$DW$304, DW_AT_name("FSM_Condition_MoveStatus")
    4775                      .dwattr $C$DW$304, DW_AT_const_value(0x0a)
    4776              
    4777              $C$DW$305       .dwtag  DW_TAG_enumerator
    4778                      .dwattr $C$DW$305, DW_AT_name("FSM_Condition_Num")
    4779                      .dwattr $C$DW$305, DW_AT_const_value(0x0b)
    4780              
    4781                      .dwendtag $C$DW$T$56
    4782              
    4783              $C$DW$T$57      .dwtag  DW_TAG_typedef
    4784                      .dwattr $C$DW$T$57, DW_AT_name("FSM_Cond_e")
    4785                      .dwattr $C$DW$T$57, DW_AT_type(*$C$DW$T$56)
    4786                      .dwattr $C$DW$T$57, DW_AT_language(DW_LANG_C)
    4787              
    4788              
    4789              $C$DW$T$66      .dwtag  DW_TAG_array_type
    4790                      .dwattr $C$DW$T$66, DW_AT_type(*$C$DW$T$57)
    4791                      .dwattr $C$DW$T$66, DW_AT_language(DW_LANG_C)
    4792                      .dwattr $C$DW$T$66, DW_AT_byte_size(0x0f)
    4793              $C$DW$306       .dwtag  DW_TAG_subrange_type
    4794                      .dwattr $C$DW$306, DW_AT_upper_bound(0x0e)
    4795              
    4796                      .dwendtag $C$DW$T$66
    4797              
    4798              
    4799              $C$DW$T$67      .dwtag  DW_TAG_enumeration_type
    4800                      .dwattr $C$DW$T$67, DW_AT_byte_size(0x01)
    4801              $C$DW$307       .dwtag  DW_TAG_enumerator
    4802                      .dwattr $C$DW$307, DW_AT_name("FSM_Action_RunIDLE")
    4803                      .dwattr $C$DW$307, DW_AT_const_value(0x00)
    4804              
    4805              $C$DW$308       .dwtag  DW_TAG_enumerator
    4806                      .dwattr $C$DW$308, DW_AT_name("FSM_Action_calcSensorPos")
    4807                      .dwattr $C$DW$308, DW_AT_const_value(0x01)
    4808              
    4809              $C$DW$309       .dwtag  DW_TAG_enumerator
    4810                      .dwattr $C$DW$309, DW_AT_name("FSM_Action_calcRelativePos")
    4811                      .dwattr $C$DW$309, DW_AT_const_value(0x02)
    4812              
    4813              $C$DW$310       .dwtag  DW_TAG_enumerator
    4814                      .dwattr $C$DW$310, DW_AT_name("FSM_Action_CheckCoverSensor")
    4815                      .dwattr $C$DW$310, DW_AT_const_value(0x03)
    4816              
    4817              $C$DW$311       .dwtag  DW_TAG_enumerator
    4818                      .dwattr $C$DW$311, DW_AT_name("FSM_Action_SetPosStep")
    4819                      .dwattr $C$DW$311, DW_AT_const_value(0x04)
    4820              
    4821              $C$DW$312       .dwtag  DW_TAG_enumerator
TMS320C2000 Assembler PC v15.12.3 Wed Nov 22 01:55:15 2017

Tools Copyright (c) 1996-2015 Texas Instruments Incorporated
C:\Users\wmj\AppData\Local\Temp\1239610                              PAGE   92

    4822                      .dwattr $C$DW$312, DW_AT_name("FSM_Action_CheckPosition")
    4823                      .dwattr $C$DW$312, DW_AT_const_value(0x05)
    4824              
    4825              $C$DW$313       .dwtag  DW_TAG_enumerator
    4826                      .dwattr $C$DW$313, DW_AT_name("FSM_Action_VelTransToPos")
    4827                      .dwattr $C$DW$313, DW_AT_const_value(0x06)
    4828              
    4829              $C$DW$314       .dwtag  DW_TAG_enumerator
    4830                      .dwattr $C$DW$314, DW_AT_name("FSM_Action_SetVelocity")
    4831                      .dwattr $C$DW$314, DW_AT_const_value(0x07)
    4832              
    4833              $C$DW$315       .dwtag  DW_TAG_enumerator
    4834                      .dwattr $C$DW$315, DW_AT_name("FSM_Action_RunVelocityMode")
    4835                      .dwattr $C$DW$315, DW_AT_const_value(0x08)
    4836              
    4837              $C$DW$316       .dwtag  DW_TAG_enumerator
    4838                      .dwattr $C$DW$316, DW_AT_name("FSM_Action_ReleaseDcBrake")
    4839                      .dwattr $C$DW$316, DW_AT_const_value(0x09)
    4840              
    4841              $C$DW$317       .dwtag  DW_TAG_enumerator
    4842                      .dwattr $C$DW$317, DW_AT_name("FSM_Action_RunSTOP")
    4843                      .dwattr $C$DW$317, DW_AT_const_value(0x0a)
    4844              
    4845              $C$DW$318       .dwtag  DW_TAG_enumerator
    4846                      .dwattr $C$DW$318, DW_AT_name("FSM_Action_Num")
    4847                      .dwattr $C$DW$318, DW_AT_const_value(0x0b)
    4848              
    4849                      .dwendtag $C$DW$T$67
    4850              
    4851              $C$DW$T$68      .dwtag  DW_TAG_typedef
    4852                      .dwattr $C$DW$T$68, DW_AT_name("FSM_Action_e")
    4853                      .dwattr $C$DW$T$68, DW_AT_type(*$C$DW$T$67)
    4854                      .dwattr $C$DW$T$68, DW_AT_language(DW_LANG_C)
    4855              
    4856              
    4857              $C$DW$T$69      .dwtag  DW_TAG_array_type
    4858                      .dwattr $C$DW$T$69, DW_AT_type(*$C$DW$T$68)
    4859                      .dwattr $C$DW$T$69, DW_AT_language(DW_LANG_C)
    4860                      .dwattr $C$DW$T$69, DW_AT_byte_size(0x0f)
    4861              $C$DW$319       .dwtag  DW_TAG_subrange_type
    4862                      .dwattr $C$DW$319, DW_AT_upper_bound(0x0e)
    4863              
    4864                      .dwendtag $C$DW$T$69
    4865              
    4866              
    4867              $C$DW$T$115     .dwtag  DW_TAG_enumeration_type
    4868                      .dwattr $C$DW$T$115, DW_AT_byte_size(0x01)
    4869              $C$DW$320       .dwtag  DW_TAG_enumerator
    4870                      .dwattr $C$DW$320, DW_AT_name("HAL_BoardAddr_Motor1")
    4871                      .dwattr $C$DW$320, DW_AT_const_value(0x00)
    4872              
    4873              $C$DW$321       .dwtag  DW_TAG_enumerator
    4874                      .dwattr $C$DW$321, DW_AT_name("HAL_BoardAddr_Motor2")
    4875                      .dwattr $C$DW$321, DW_AT_const_value(0x01)
    4876              
TMS320C2000 Assembler PC v15.12.3 Wed Nov 22 01:55:15 2017

Tools Copyright (c) 1996-2015 Texas Instruments Incorporated
C:\Users\wmj\AppData\Local\Temp\1239610                              PAGE   93

    4877              $C$DW$322       .dwtag  DW_TAG_enumerator
    4878                      .dwattr $C$DW$322, DW_AT_name("HAL_BoardAddr_Motor3")
    4879                      .dwattr $C$DW$322, DW_AT_const_value(0x02)
    4880              
    4881              $C$DW$323       .dwtag  DW_TAG_enumerator
    4882                      .dwattr $C$DW$323, DW_AT_name("HAL_BoardAddr_Motor4")
    4883                      .dwattr $C$DW$323, DW_AT_const_value(0x03)
    4884              
    4885              $C$DW$324       .dwtag  DW_TAG_enumerator
    4886                      .dwattr $C$DW$324, DW_AT_name("HAL_BoardAddr_Motor5")
    4887                      .dwattr $C$DW$324, DW_AT_const_value(0x04)
    4888              
    4889              $C$DW$325       .dwtag  DW_TAG_enumerator
    4890                      .dwattr $C$DW$325, DW_AT_name("HAL_BoardAddr_Motor6")
    4891                      .dwattr $C$DW$325, DW_AT_const_value(0x05)
    4892              
    4893              $C$DW$326       .dwtag  DW_TAG_enumerator
    4894                      .dwattr $C$DW$326, DW_AT_name("HAL_BoardAddr_Motor7")
    4895                      .dwattr $C$DW$326, DW_AT_const_value(0x06)
    4896              
    4897              $C$DW$327       .dwtag  DW_TAG_enumerator
    4898                      .dwattr $C$DW$327, DW_AT_name("HAL_BoardAddr_Heater")
    4899                      .dwattr $C$DW$327, DW_AT_const_value(0x07)
    4900              
    4901              $C$DW$328       .dwtag  DW_TAG_enumerator
    4902                      .dwattr $C$DW$328, DW_AT_name("HAL_BoardAddr_OpenLoop")
    4903                      .dwattr $C$DW$328, DW_AT_const_value(0x08)
    4904              
    4905              $C$DW$329       .dwtag  DW_TAG_enumerator
    4906                      .dwattr $C$DW$329, DW_AT_name("HAL_BoardAddr_Short")
    4907                      .dwattr $C$DW$329, DW_AT_const_value(0x09)
    4908              
    4909                      .dwendtag $C$DW$T$115
    4910              
    4911              $C$DW$T$116     .dwtag  DW_TAG_typedef
    4912                      .dwattr $C$DW$T$116, DW_AT_name("HAL_BdAddr_e")
    4913                      .dwattr $C$DW$T$116, DW_AT_type(*$C$DW$T$115)
    4914                      .dwattr $C$DW$T$116, DW_AT_language(DW_LANG_C)
    4915              
    4916              
    4917              $C$DW$T$128     .dwtag  DW_TAG_enumeration_type
    4918                      .dwattr $C$DW$T$128, DW_AT_byte_size(0x01)
    4919              $C$DW$330       .dwtag  DW_TAG_enumerator
    4920                      .dwattr $C$DW$330, DW_AT_name("MB_ENOERR")
    4921                      .dwattr $C$DW$330, DW_AT_const_value(0x00)
    4922              
    4923              $C$DW$331       .dwtag  DW_TAG_enumerator
    4924                      .dwattr $C$DW$331, DW_AT_name("MB_ENOREG")
    4925                      .dwattr $C$DW$331, DW_AT_const_value(0x01)
    4926              
    4927              $C$DW$332       .dwtag  DW_TAG_enumerator
    4928                      .dwattr $C$DW$332, DW_AT_name("MB_EINVAL")
    4929                      .dwattr $C$DW$332, DW_AT_const_value(0x02)
    4930              
    4931              $C$DW$333       .dwtag  DW_TAG_enumerator
TMS320C2000 Assembler PC v15.12.3 Wed Nov 22 01:55:15 2017

Tools Copyright (c) 1996-2015 Texas Instruments Incorporated
C:\Users\wmj\AppData\Local\Temp\1239610                              PAGE   94

    4932                      .dwattr $C$DW$333, DW_AT_name("MB_EPORTERR")
    4933                      .dwattr $C$DW$333, DW_AT_const_value(0x03)
    4934              
    4935              $C$DW$334       .dwtag  DW_TAG_enumerator
    4936                      .dwattr $C$DW$334, DW_AT_name("MB_ENORES")
    4937                      .dwattr $C$DW$334, DW_AT_const_value(0x04)
    4938              
    4939              $C$DW$335       .dwtag  DW_TAG_enumerator
    4940                      .dwattr $C$DW$335, DW_AT_name("MB_EIO")
    4941                      .dwattr $C$DW$335, DW_AT_const_value(0x05)
    4942              
    4943              $C$DW$336       .dwtag  DW_TAG_enumerator
    4944                      .dwattr $C$DW$336, DW_AT_name("MB_EILLSTATE")
    4945                      .dwattr $C$DW$336, DW_AT_const_value(0x06)
    4946              
    4947              $C$DW$337       .dwtag  DW_TAG_enumerator
    4948                      .dwattr $C$DW$337, DW_AT_name("MB_ETIMEDOUT")
    4949                      .dwattr $C$DW$337, DW_AT_const_value(0x07)
    4950              
    4951                      .dwendtag $C$DW$T$128
    4952              
    4953              $C$DW$T$129     .dwtag  DW_TAG_typedef
    4954                      .dwattr $C$DW$T$129, DW_AT_name("eMBErrorCode")
    4955                      .dwattr $C$DW$T$129, DW_AT_type(*$C$DW$T$128)
    4956                      .dwattr $C$DW$T$129, DW_AT_language(DW_LANG_C)
    4957              
    4958              
    4959              $C$DW$T$130     .dwtag  DW_TAG_enumeration_type
    4960                      .dwattr $C$DW$T$130, DW_AT_byte_size(0x01)
    4961              $C$DW$338       .dwtag  DW_TAG_enumerator
    4962                      .dwattr $C$DW$338, DW_AT_name("STATE_TX_IDLE")
    4963                      .dwattr $C$DW$338, DW_AT_const_value(0x00)
    4964              
    4965              $C$DW$339       .dwtag  DW_TAG_enumerator
    4966                      .dwattr $C$DW$339, DW_AT_name("STATE_TX_XMIT")
    4967                      .dwattr $C$DW$339, DW_AT_const_value(0x01)
    4968              
    4969                      .dwendtag $C$DW$T$130
    4970              
    4971              $C$DW$T$131     .dwtag  DW_TAG_typedef
    4972                      .dwattr $C$DW$T$131, DW_AT_name("eMBSndState")
    4973                      .dwattr $C$DW$T$131, DW_AT_type(*$C$DW$T$130)
    4974                      .dwattr $C$DW$T$131, DW_AT_language(DW_LANG_C)
    4975              
    4976              
    4977              $C$DW$T$132     .dwtag  DW_TAG_enumeration_type
    4978                      .dwattr $C$DW$T$132, DW_AT_byte_size(0x01)
    4979              $C$DW$340       .dwtag  DW_TAG_enumerator
    4980                      .dwattr $C$DW$340, DW_AT_name("STATE_RX_INIT")
    4981                      .dwattr $C$DW$340, DW_AT_const_value(0x00)
    4982              
    4983              $C$DW$341       .dwtag  DW_TAG_enumerator
    4984                      .dwattr $C$DW$341, DW_AT_name("STATE_RX_IDLE")
    4985                      .dwattr $C$DW$341, DW_AT_const_value(0x01)
    4986              
TMS320C2000 Assembler PC v15.12.3 Wed Nov 22 01:55:15 2017

Tools Copyright (c) 1996-2015 Texas Instruments Incorporated
C:\Users\wmj\AppData\Local\Temp\1239610                              PAGE   95

    4987              $C$DW$342       .dwtag  DW_TAG_enumerator
    4988                      .dwattr $C$DW$342, DW_AT_name("STATE_RX_RCV")
    4989                      .dwattr $C$DW$342, DW_AT_const_value(0x02)
    4990              
    4991              $C$DW$343       .dwtag  DW_TAG_enumerator
    4992                      .dwattr $C$DW$343, DW_AT_name("STATE_RX_ERROR")
    4993                      .dwattr $C$DW$343, DW_AT_const_value(0x03)
    4994              
    4995                      .dwendtag $C$DW$T$132
    4996              
    4997              $C$DW$T$133     .dwtag  DW_TAG_typedef
    4998                      .dwattr $C$DW$T$133, DW_AT_name("eMBRcvState")
    4999                      .dwattr $C$DW$T$133, DW_AT_type(*$C$DW$T$132)
    5000                      .dwattr $C$DW$T$133, DW_AT_language(DW_LANG_C)
    5001              
    5002              
    5003              $C$DW$T$134     .dwtag  DW_TAG_enumeration_type
    5004                      .dwattr $C$DW$T$134, DW_AT_byte_size(0x01)
    5005              $C$DW$344       .dwtag  DW_TAG_enumerator
    5006                      .dwattr $C$DW$344, DW_AT_name("EV_READY")
    5007                      .dwattr $C$DW$344, DW_AT_const_value(0x00)
    5008              
    5009              $C$DW$345       .dwtag  DW_TAG_enumerator
    5010                      .dwattr $C$DW$345, DW_AT_name("EV_FRAME_RECEIVED")
    5011                      .dwattr $C$DW$345, DW_AT_const_value(0x01)
    5012              
    5013              $C$DW$346       .dwtag  DW_TAG_enumerator
    5014                      .dwattr $C$DW$346, DW_AT_name("EV_EXECUTE")
    5015                      .dwattr $C$DW$346, DW_AT_const_value(0x02)
    5016              
    5017              $C$DW$347       .dwtag  DW_TAG_enumerator
    5018                      .dwattr $C$DW$347, DW_AT_name("EV_FRAME_SENT")
    5019                      .dwattr $C$DW$347, DW_AT_const_value(0x03)
    5020              
    5021                      .dwendtag $C$DW$T$134
    5022              
    5023              $C$DW$T$135     .dwtag  DW_TAG_typedef
    5024                      .dwattr $C$DW$T$135, DW_AT_name("eMBEventType")
    5025                      .dwattr $C$DW$T$135, DW_AT_type(*$C$DW$T$134)
    5026                      .dwattr $C$DW$T$135, DW_AT_language(DW_LANG_C)
    5027              
    5028              $C$DW$T$184     .dwtag  DW_TAG_pointer_type
    5029                      .dwattr $C$DW$T$184, DW_AT_type(*$C$DW$T$135)
    5030                      .dwattr $C$DW$T$184, DW_AT_address_class(0x20)
    5031              
    5032              $C$DW$348       .dwtag  DW_TAG_TI_far_type
    5033                      .dwattr $C$DW$348, DW_AT_type(*$C$DW$T$184)
    5034              
    5035              $C$DW$T$185     .dwtag  DW_TAG_const_type
    5036                      .dwattr $C$DW$T$185, DW_AT_type(*$C$DW$348)
    5037              
    5038              $C$DW$349       .dwtag  DW_TAG_TI_far_type
    5039                      .dwattr $C$DW$349, DW_AT_type(*$C$DW$T$135)
    5040              
    5041              $C$DW$T$186     .dwtag  DW_TAG_const_type
TMS320C2000 Assembler PC v15.12.3 Wed Nov 22 01:55:15 2017

Tools Copyright (c) 1996-2015 Texas Instruments Incorporated
C:\Users\wmj\AppData\Local\Temp\1239610                              PAGE   96

    5042                      .dwattr $C$DW$T$186, DW_AT_type(*$C$DW$349)
    5043              
    5044              
    5045              $C$DW$T$139     .dwtag  DW_TAG_enumeration_type
    5046                      .dwattr $C$DW$T$139, DW_AT_byte_size(0x01)
    5047              $C$DW$350       .dwtag  DW_TAG_enumerator
    5048                      .dwattr $C$DW$350, DW_AT_name("CTRL_State_Error")
    5049                      .dwattr $C$DW$350, DW_AT_const_value(0x00)
    5050              
    5051              $C$DW$351       .dwtag  DW_TAG_enumerator
    5052                      .dwattr $C$DW$351, DW_AT_name("CTRL_State_Idle")
    5053                      .dwattr $C$DW$351, DW_AT_const_value(0x01)
    5054              
    5055              $C$DW$352       .dwtag  DW_TAG_enumerator
    5056                      .dwattr $C$DW$352, DW_AT_name("CTRL_State_OffLine")
    5057                      .dwattr $C$DW$352, DW_AT_const_value(0x02)
    5058              
    5059              $C$DW$353       .dwtag  DW_TAG_enumerator
    5060                      .dwattr $C$DW$353, DW_AT_name("CTRL_State_OnLine")
    5061                      .dwattr $C$DW$353, DW_AT_const_value(0x03)
    5062              
    5063              $C$DW$354       .dwtag  DW_TAG_enumerator
    5064                      .dwattr $C$DW$354, DW_AT_name("CTRL_numStates")
    5065                      .dwattr $C$DW$354, DW_AT_const_value(0x04)
    5066              
    5067                      .dwendtag $C$DW$T$139
    5068              
    5069              $C$DW$T$140     .dwtag  DW_TAG_typedef
    5070                      .dwattr $C$DW$T$140, DW_AT_name("CTRL_State_e")
    5071                      .dwattr $C$DW$T$140, DW_AT_type(*$C$DW$T$139)
    5072                      .dwattr $C$DW$T$140, DW_AT_language(DW_LANG_C)
    5073              
    5074              
    5075              $C$DW$T$141     .dwtag  DW_TAG_enumeration_type
    5076                      .dwattr $C$DW$T$141, DW_AT_byte_size(0x01)
    5077              $C$DW$355       .dwtag  DW_TAG_enumerator
    5078                      .dwattr $C$DW$355, DW_AT_name("EST_State_Error")
    5079                      .dwattr $C$DW$355, DW_AT_const_value(0x00)
    5080              
    5081              $C$DW$356       .dwtag  DW_TAG_enumerator
    5082                      .dwattr $C$DW$356, DW_AT_name("EST_State_Idle")
    5083                      .dwattr $C$DW$356, DW_AT_const_value(0x01)
    5084              
    5085              $C$DW$357       .dwtag  DW_TAG_enumerator
    5086                      .dwattr $C$DW$357, DW_AT_name("EST_State_RoverL")
    5087                      .dwattr $C$DW$357, DW_AT_const_value(0x02)
    5088              
    5089              $C$DW$358       .dwtag  DW_TAG_enumerator
    5090                      .dwattr $C$DW$358, DW_AT_name("EST_State_Rs")
    5091                      .dwattr $C$DW$358, DW_AT_const_value(0x03)
    5092              
    5093              $C$DW$359       .dwtag  DW_TAG_enumerator
    5094                      .dwattr $C$DW$359, DW_AT_name("EST_State_RampUp")
    5095                      .dwattr $C$DW$359, DW_AT_const_value(0x04)
    5096              
TMS320C2000 Assembler PC v15.12.3 Wed Nov 22 01:55:15 2017

Tools Copyright (c) 1996-2015 Texas Instruments Incorporated
C:\Users\wmj\AppData\Local\Temp\1239610                              PAGE   97

    5097              $C$DW$360       .dwtag  DW_TAG_enumerator
    5098                      .dwattr $C$DW$360, DW_AT_name("EST_State_IdRated")
    5099                      .dwattr $C$DW$360, DW_AT_const_value(0x05)
    5100              
    5101              $C$DW$361       .dwtag  DW_TAG_enumerator
    5102                      .dwattr $C$DW$361, DW_AT_name("EST_State_RatedFlux_OL")
    5103                      .dwattr $C$DW$361, DW_AT_const_value(0x06)
    5104              
    5105              $C$DW$362       .dwtag  DW_TAG_enumerator
    5106                      .dwattr $C$DW$362, DW_AT_name("EST_State_RatedFlux")
    5107                      .dwattr $C$DW$362, DW_AT_const_value(0x07)
    5108              
    5109              $C$DW$363       .dwtag  DW_TAG_enumerator
    5110                      .dwattr $C$DW$363, DW_AT_name("EST_State_RampDown")
    5111                      .dwattr $C$DW$363, DW_AT_const_value(0x08)
    5112              
    5113              $C$DW$364       .dwtag  DW_TAG_enumerator
    5114                      .dwattr $C$DW$364, DW_AT_name("EST_State_LockRotor")
    5115                      .dwattr $C$DW$364, DW_AT_const_value(0x09)
    5116              
    5117              $C$DW$365       .dwtag  DW_TAG_enumerator
    5118                      .dwattr $C$DW$365, DW_AT_name("EST_State_Ls")
    5119                      .dwattr $C$DW$365, DW_AT_const_value(0x0a)
    5120              
    5121              $C$DW$366       .dwtag  DW_TAG_enumerator
    5122                      .dwattr $C$DW$366, DW_AT_name("EST_State_Rr")
    5123                      .dwattr $C$DW$366, DW_AT_const_value(0x0b)
    5124              
    5125              $C$DW$367       .dwtag  DW_TAG_enumerator
    5126                      .dwattr $C$DW$367, DW_AT_name("EST_State_MotorIdentified")
    5127                      .dwattr $C$DW$367, DW_AT_const_value(0x0c)
    5128              
    5129              $C$DW$368       .dwtag  DW_TAG_enumerator
    5130                      .dwattr $C$DW$368, DW_AT_name("EST_State_OnLine")
    5131                      .dwattr $C$DW$368, DW_AT_const_value(0x0d)
    5132              
    5133              $C$DW$369       .dwtag  DW_TAG_enumerator
    5134                      .dwattr $C$DW$369, DW_AT_name("EST_numStates")
    5135                      .dwattr $C$DW$369, DW_AT_const_value(0x0e)
    5136              
    5137                      .dwendtag $C$DW$T$141
    5138              
    5139              $C$DW$T$142     .dwtag  DW_TAG_typedef
    5140                      .dwattr $C$DW$T$142, DW_AT_name("EST_State_e")
    5141                      .dwattr $C$DW$T$142, DW_AT_type(*$C$DW$T$141)
    5142                      .dwattr $C$DW$T$142, DW_AT_language(DW_LANG_C)
    5143              
    5144              
    5145              $C$DW$T$143     .dwtag  DW_TAG_enumeration_type
    5146                      .dwattr $C$DW$T$143, DW_AT_byte_size(0x01)
    5147              $C$DW$370       .dwtag  DW_TAG_enumerator
    5148                      .dwattr $C$DW$370, DW_AT_name("USER_ErrorCode_NoError")
    5149                      .dwattr $C$DW$370, DW_AT_const_value(0x00)
    5150              
    5151              $C$DW$371       .dwtag  DW_TAG_enumerator
TMS320C2000 Assembler PC v15.12.3 Wed Nov 22 01:55:15 2017

Tools Copyright (c) 1996-2015 Texas Instruments Incorporated
C:\Users\wmj\AppData\Local\Temp\1239610                              PAGE   98

    5152                      .dwattr $C$DW$371, DW_AT_name("USER_ErrorCode_iqFullScaleCurrent_A_High")
    5153                      .dwattr $C$DW$371, DW_AT_const_value(0x01)
    5154              
    5155              $C$DW$372       .dwtag  DW_TAG_enumerator
    5156                      .dwattr $C$DW$372, DW_AT_name("USER_ErrorCode_iqFullScaleCurrent_A_Low")
    5157                      .dwattr $C$DW$372, DW_AT_const_value(0x02)
    5158              
    5159              $C$DW$373       .dwtag  DW_TAG_enumerator
    5160                      .dwattr $C$DW$373, DW_AT_name("USER_ErrorCode_iqFullScaleVoltage_V_High")
    5161                      .dwattr $C$DW$373, DW_AT_const_value(0x03)
    5162              
    5163              $C$DW$374       .dwtag  DW_TAG_enumerator
    5164                      .dwattr $C$DW$374, DW_AT_name("USER_ErrorCode_iqFullScaleVoltage_V_Low")
    5165                      .dwattr $C$DW$374, DW_AT_const_value(0x04)
    5166              
    5167              $C$DW$375       .dwtag  DW_TAG_enumerator
    5168                      .dwattr $C$DW$375, DW_AT_name("USER_ErrorCode_iqFullScaleFreq_Hz_High")
    5169                      .dwattr $C$DW$375, DW_AT_const_value(0x05)
    5170              
    5171              $C$DW$376       .dwtag  DW_TAG_enumerator
    5172                      .dwattr $C$DW$376, DW_AT_name("USER_ErrorCode_iqFullScaleFreq_Hz_Low")
    5173                      .dwattr $C$DW$376, DW_AT_const_value(0x06)
    5174              
    5175              $C$DW$377       .dwtag  DW_TAG_enumerator
    5176                      .dwattr $C$DW$377, DW_AT_name("USER_ErrorCode_numPwmTicksPerIsrTick_High")
    5177                      .dwattr $C$DW$377, DW_AT_const_value(0x07)
    5178              
    5179              $C$DW$378       .dwtag  DW_TAG_enumerator
    5180                      .dwattr $C$DW$378, DW_AT_name("USER_ErrorCode_numPwmTicksPerIsrTick_Low")
    5181                      .dwattr $C$DW$378, DW_AT_const_value(0x08)
    5182              
    5183              $C$DW$379       .dwtag  DW_TAG_enumerator
    5184                      .dwattr $C$DW$379, DW_AT_name("USER_ErrorCode_numIsrTicksPerCtrlTick_High")
    5185                      .dwattr $C$DW$379, DW_AT_const_value(0x09)
    5186              
    5187              $C$DW$380       .dwtag  DW_TAG_enumerator
    5188                      .dwattr $C$DW$380, DW_AT_name("USER_ErrorCode_numIsrTicksPerCtrlTick_Low")
    5189                      .dwattr $C$DW$380, DW_AT_const_value(0x0a)
    5190              
    5191              $C$DW$381       .dwtag  DW_TAG_enumerator
    5192                      .dwattr $C$DW$381, DW_AT_name("USER_ErrorCode_numCtrlTicksPerCurrentTick_High")
    5193                      .dwattr $C$DW$381, DW_AT_const_value(0x0b)
    5194              
    5195              $C$DW$382       .dwtag  DW_TAG_enumerator
    5196                      .dwattr $C$DW$382, DW_AT_name("USER_ErrorCode_numCtrlTicksPerCurrentTick_Low")
    5197                      .dwattr $C$DW$382, DW_AT_const_value(0x0c)
    5198              
    5199              $C$DW$383       .dwtag  DW_TAG_enumerator
    5200                      .dwattr $C$DW$383, DW_AT_name("USER_ErrorCode_numCtrlTicksPerEstTick_High")
    5201                      .dwattr $C$DW$383, DW_AT_const_value(0x0d)
    5202              
    5203              $C$DW$384       .dwtag  DW_TAG_enumerator
    5204                      .dwattr $C$DW$384, DW_AT_name("USER_ErrorCode_numCtrlTicksPerEstTick_Low")
    5205                      .dwattr $C$DW$384, DW_AT_const_value(0x0e)
    5206              
TMS320C2000 Assembler PC v15.12.3 Wed Nov 22 01:55:15 2017

Tools Copyright (c) 1996-2015 Texas Instruments Incorporated
C:\Users\wmj\AppData\Local\Temp\1239610                              PAGE   99

    5207              $C$DW$385       .dwtag  DW_TAG_enumerator
    5208                      .dwattr $C$DW$385, DW_AT_name("USER_ErrorCode_numCtrlTicksPerSpeedTick_High")
    5209                      .dwattr $C$DW$385, DW_AT_const_value(0x0f)
    5210              
    5211              $C$DW$386       .dwtag  DW_TAG_enumerator
    5212                      .dwattr $C$DW$386, DW_AT_name("USER_ErrorCode_numCtrlTicksPerSpeedTick_Low")
    5213                      .dwattr $C$DW$386, DW_AT_const_value(0x10)
    5214              
    5215              $C$DW$387       .dwtag  DW_TAG_enumerator
    5216                      .dwattr $C$DW$387, DW_AT_name("USER_ErrorCode_numCtrlTicksPerTrajTick_High")
    5217                      .dwattr $C$DW$387, DW_AT_const_value(0x11)
    5218              
    5219              $C$DW$388       .dwtag  DW_TAG_enumerator
    5220                      .dwattr $C$DW$388, DW_AT_name("USER_ErrorCode_numCtrlTicksPerTrajTick_Low")
    5221                      .dwattr $C$DW$388, DW_AT_const_value(0x12)
    5222              
    5223              $C$DW$389       .dwtag  DW_TAG_enumerator
    5224                      .dwattr $C$DW$389, DW_AT_name("USER_ErrorCode_numCurrentSensors_High")
    5225                      .dwattr $C$DW$389, DW_AT_const_value(0x13)
    5226              
    5227              $C$DW$390       .dwtag  DW_TAG_enumerator
    5228                      .dwattr $C$DW$390, DW_AT_name("USER_ErrorCode_numCurrentSensors_Low")
    5229                      .dwattr $C$DW$390, DW_AT_const_value(0x14)
    5230              
    5231              $C$DW$391       .dwtag  DW_TAG_enumerator
    5232                      .dwattr $C$DW$391, DW_AT_name("USER_ErrorCode_numVoltageSensors_High")
    5233                      .dwattr $C$DW$391, DW_AT_const_value(0x15)
    5234              
    5235              $C$DW$392       .dwtag  DW_TAG_enumerator
    5236                      .dwattr $C$DW$392, DW_AT_name("USER_ErrorCode_numVoltageSensors_Low")
    5237                      .dwattr $C$DW$392, DW_AT_const_value(0x16)
    5238              
    5239              $C$DW$393       .dwtag  DW_TAG_enumerator
    5240                      .dwattr $C$DW$393, DW_AT_name("USER_ErrorCode_offsetPole_rps_High")
    5241                      .dwattr $C$DW$393, DW_AT_const_value(0x17)
    5242              
    5243              $C$DW$394       .dwtag  DW_TAG_enumerator
    5244                      .dwattr $C$DW$394, DW_AT_name("USER_ErrorCode_offsetPole_rps_Low")
    5245                      .dwattr $C$DW$394, DW_AT_const_value(0x18)
    5246              
    5247              $C$DW$395       .dwtag  DW_TAG_enumerator
    5248                      .dwattr $C$DW$395, DW_AT_name("USER_ErrorCode_fluxPole_rps_High")
    5249                      .dwattr $C$DW$395, DW_AT_const_value(0x19)
    5250              
    5251              $C$DW$396       .dwtag  DW_TAG_enumerator
    5252                      .dwattr $C$DW$396, DW_AT_name("USER_ErrorCode_fluxPole_rps_Low")
    5253                      .dwattr $C$DW$396, DW_AT_const_value(0x1a)
    5254              
    5255              $C$DW$397       .dwtag  DW_TAG_enumerator
    5256                      .dwattr $C$DW$397, DW_AT_name("USER_ErrorCode_zeroSpeedLimit_High")
    5257                      .dwattr $C$DW$397, DW_AT_const_value(0x1b)
    5258              
    5259              $C$DW$398       .dwtag  DW_TAG_enumerator
    5260                      .dwattr $C$DW$398, DW_AT_name("USER_ErrorCode_zeroSpeedLimit_Low")
    5261                      .dwattr $C$DW$398, DW_AT_const_value(0x1c)
TMS320C2000 Assembler PC v15.12.3 Wed Nov 22 01:55:15 2017

Tools Copyright (c) 1996-2015 Texas Instruments Incorporated
C:\Users\wmj\AppData\Local\Temp\1239610                              PAGE  100

    5262              
    5263              $C$DW$399       .dwtag  DW_TAG_enumerator
    5264                      .dwattr $C$DW$399, DW_AT_name("USER_ErrorCode_forceAngleFreq_Hz_High")
    5265                      .dwattr $C$DW$399, DW_AT_const_value(0x1d)
    5266              
    5267              $C$DW$400       .dwtag  DW_TAG_enumerator
    5268                      .dwattr $C$DW$400, DW_AT_name("USER_ErrorCode_forceAngleFreq_Hz_Low")
    5269                      .dwattr $C$DW$400, DW_AT_const_value(0x1e)
    5270              
    5271              $C$DW$401       .dwtag  DW_TAG_enumerator
    5272                      .dwattr $C$DW$401, DW_AT_name("USER_ErrorCode_maxAccel_Hzps_High")
    5273                      .dwattr $C$DW$401, DW_AT_const_value(0x1f)
    5274              
    5275              $C$DW$402       .dwtag  DW_TAG_enumerator
    5276                      .dwattr $C$DW$402, DW_AT_name("USER_ErrorCode_maxAccel_Hzps_Low")
    5277                      .dwattr $C$DW$402, DW_AT_const_value(0x20)
    5278              
    5279              $C$DW$403       .dwtag  DW_TAG_enumerator
    5280                      .dwattr $C$DW$403, DW_AT_name("USER_ErrorCode_maxAccel_est_Hzps_High")
    5281                      .dwattr $C$DW$403, DW_AT_const_value(0x21)
    5282              
    5283              $C$DW$404       .dwtag  DW_TAG_enumerator
    5284                      .dwattr $C$DW$404, DW_AT_name("USER_ErrorCode_maxAccel_est_Hzps_Low")
    5285                      .dwattr $C$DW$404, DW_AT_const_value(0x22)
    5286              
    5287              $C$DW$405       .dwtag  DW_TAG_enumerator
    5288                      .dwattr $C$DW$405, DW_AT_name("USER_ErrorCode_directionPole_rps_High")
    5289                      .dwattr $C$DW$405, DW_AT_const_value(0x23)
    5290              
    5291              $C$DW$406       .dwtag  DW_TAG_enumerator
    5292                      .dwattr $C$DW$406, DW_AT_name("USER_ErrorCode_directionPole_rps_Low")
    5293                      .dwattr $C$DW$406, DW_AT_const_value(0x24)
    5294              
    5295              $C$DW$407       .dwtag  DW_TAG_enumerator
    5296                      .dwattr $C$DW$407, DW_AT_name("USER_ErrorCode_speedPole_rps_High")
    5297                      .dwattr $C$DW$407, DW_AT_const_value(0x25)
    5298              
    5299              $C$DW$408       .dwtag  DW_TAG_enumerator
    5300                      .dwattr $C$DW$408, DW_AT_name("USER_ErrorCode_speedPole_rps_Low")
    5301                      .dwattr $C$DW$408, DW_AT_const_value(0x26)
    5302              
    5303              $C$DW$409       .dwtag  DW_TAG_enumerator
    5304                      .dwattr $C$DW$409, DW_AT_name("USER_ErrorCode_dcBusPole_rps_High")
    5305                      .dwattr $C$DW$409, DW_AT_const_value(0x27)
    5306              
    5307              $C$DW$410       .dwtag  DW_TAG_enumerator
    5308                      .dwattr $C$DW$410, DW_AT_name("USER_ErrorCode_dcBusPole_rps_Low")
    5309                      .dwattr $C$DW$410, DW_AT_const_value(0x28)
    5310              
    5311              $C$DW$411       .dwtag  DW_TAG_enumerator
    5312                      .dwattr $C$DW$411, DW_AT_name("USER_ErrorCode_fluxFraction_High")
    5313                      .dwattr $C$DW$411, DW_AT_const_value(0x29)
    5314              
    5315              $C$DW$412       .dwtag  DW_TAG_enumerator
    5316                      .dwattr $C$DW$412, DW_AT_name("USER_ErrorCode_fluxFraction_Low")
TMS320C2000 Assembler PC v15.12.3 Wed Nov 22 01:55:15 2017

Tools Copyright (c) 1996-2015 Texas Instruments Incorporated
C:\Users\wmj\AppData\Local\Temp\1239610                              PAGE  101

    5317                      .dwattr $C$DW$412, DW_AT_const_value(0x2a)
    5318              
    5319              $C$DW$413       .dwtag  DW_TAG_enumerator
    5320                      .dwattr $C$DW$413, DW_AT_name("USER_ErrorCode_indEst_speedMaxFraction_High")
    5321                      .dwattr $C$DW$413, DW_AT_const_value(0x2b)
    5322              
    5323              $C$DW$414       .dwtag  DW_TAG_enumerator
    5324                      .dwattr $C$DW$414, DW_AT_name("USER_ErrorCode_indEst_speedMaxFraction_Low")
    5325                      .dwattr $C$DW$414, DW_AT_const_value(0x2c)
    5326              
    5327              $C$DW$415       .dwtag  DW_TAG_enumerator
    5328                      .dwattr $C$DW$415, DW_AT_name("USER_ErrorCode_powerWarpGain_High")
    5329                      .dwattr $C$DW$415, DW_AT_const_value(0x2d)
    5330              
    5331              $C$DW$416       .dwtag  DW_TAG_enumerator
    5332                      .dwattr $C$DW$416, DW_AT_name("USER_ErrorCode_powerWarpGain_Low")
    5333                      .dwattr $C$DW$416, DW_AT_const_value(0x2e)
    5334              
    5335              $C$DW$417       .dwtag  DW_TAG_enumerator
    5336                      .dwattr $C$DW$417, DW_AT_name("USER_ErrorCode_systemFreq_MHz_High")
    5337                      .dwattr $C$DW$417, DW_AT_const_value(0x2f)
    5338              
    5339              $C$DW$418       .dwtag  DW_TAG_enumerator
    5340                      .dwattr $C$DW$418, DW_AT_name("USER_ErrorCode_systemFreq_MHz_Low")
    5341                      .dwattr $C$DW$418, DW_AT_const_value(0x30)
    5342              
    5343              $C$DW$419       .dwtag  DW_TAG_enumerator
    5344                      .dwattr $C$DW$419, DW_AT_name("USER_ErrorCode_pwmFreq_kHz_High")
    5345                      .dwattr $C$DW$419, DW_AT_const_value(0x31)
    5346              
    5347              $C$DW$420       .dwtag  DW_TAG_enumerator
    5348                      .dwattr $C$DW$420, DW_AT_name("USER_ErrorCode_pwmFreq_kHz_Low")
    5349                      .dwattr $C$DW$420, DW_AT_const_value(0x32)
    5350              
    5351              $C$DW$421       .dwtag  DW_TAG_enumerator
    5352                      .dwattr $C$DW$421, DW_AT_name("USER_ErrorCode_voltage_sf_High")
    5353                      .dwattr $C$DW$421, DW_AT_const_value(0x33)
    5354              
    5355              $C$DW$422       .dwtag  DW_TAG_enumerator
    5356                      .dwattr $C$DW$422, DW_AT_name("USER_ErrorCode_voltage_sf_Low")
    5357                      .dwattr $C$DW$422, DW_AT_const_value(0x34)
    5358              
    5359              $C$DW$423       .dwtag  DW_TAG_enumerator
    5360                      .dwattr $C$DW$423, DW_AT_name("USER_ErrorCode_current_sf_High")
    5361                      .dwattr $C$DW$423, DW_AT_const_value(0x35)
    5362              
    5363              $C$DW$424       .dwtag  DW_TAG_enumerator
    5364                      .dwattr $C$DW$424, DW_AT_name("USER_ErrorCode_current_sf_Low")
    5365                      .dwattr $C$DW$424, DW_AT_const_value(0x36)
    5366              
    5367              $C$DW$425       .dwtag  DW_TAG_enumerator
    5368                      .dwattr $C$DW$425, DW_AT_name("USER_ErrorCode_voltageFilterPole_Hz_High")
    5369                      .dwattr $C$DW$425, DW_AT_const_value(0x37)
    5370              
    5371              $C$DW$426       .dwtag  DW_TAG_enumerator
TMS320C2000 Assembler PC v15.12.3 Wed Nov 22 01:55:15 2017

Tools Copyright (c) 1996-2015 Texas Instruments Incorporated
C:\Users\wmj\AppData\Local\Temp\1239610                              PAGE  102

    5372                      .dwattr $C$DW$426, DW_AT_name("USER_ErrorCode_voltageFilterPole_Hz_Low")
    5373                      .dwattr $C$DW$426, DW_AT_const_value(0x38)
    5374              
    5375              $C$DW$427       .dwtag  DW_TAG_enumerator
    5376                      .dwattr $C$DW$427, DW_AT_name("USER_ErrorCode_maxVsMag_pu_High")
    5377                      .dwattr $C$DW$427, DW_AT_const_value(0x39)
    5378              
    5379              $C$DW$428       .dwtag  DW_TAG_enumerator
    5380                      .dwattr $C$DW$428, DW_AT_name("USER_ErrorCode_maxVsMag_pu_Low")
    5381                      .dwattr $C$DW$428, DW_AT_const_value(0x3a)
    5382              
    5383              $C$DW$429       .dwtag  DW_TAG_enumerator
    5384                      .dwattr $C$DW$429, DW_AT_name("USER_ErrorCode_estKappa_High")
    5385                      .dwattr $C$DW$429, DW_AT_const_value(0x3b)
    5386              
    5387              $C$DW$430       .dwtag  DW_TAG_enumerator
    5388                      .dwattr $C$DW$430, DW_AT_name("USER_ErrorCode_estKappa_Low")
    5389                      .dwattr $C$DW$430, DW_AT_const_value(0x3c)
    5390              
    5391              $C$DW$431       .dwtag  DW_TAG_enumerator
    5392                      .dwattr $C$DW$431, DW_AT_name("USER_ErrorCode_motor_type_Unknown")
    5393                      .dwattr $C$DW$431, DW_AT_const_value(0x3d)
    5394              
    5395              $C$DW$432       .dwtag  DW_TAG_enumerator
    5396                      .dwattr $C$DW$432, DW_AT_name("USER_ErrorCode_motor_numPolePairs_High")
    5397                      .dwattr $C$DW$432, DW_AT_const_value(0x3e)
    5398              
    5399              $C$DW$433       .dwtag  DW_TAG_enumerator
    5400                      .dwattr $C$DW$433, DW_AT_name("USER_ErrorCode_motor_numPolePairs_Low")
    5401                      .dwattr $C$DW$433, DW_AT_const_value(0x3f)
    5402              
    5403              $C$DW$434       .dwtag  DW_TAG_enumerator
    5404                      .dwattr $C$DW$434, DW_AT_name("USER_ErrorCode_motor_ratedFlux_High")
    5405                      .dwattr $C$DW$434, DW_AT_const_value(0x40)
    5406              
    5407              $C$DW$435       .dwtag  DW_TAG_enumerator
    5408                      .dwattr $C$DW$435, DW_AT_name("USER_ErrorCode_motor_ratedFlux_Low")
    5409                      .dwattr $C$DW$435, DW_AT_const_value(0x41)
    5410              
    5411              $C$DW$436       .dwtag  DW_TAG_enumerator
    5412                      .dwattr $C$DW$436, DW_AT_name("USER_ErrorCode_motor_Rr_High")
    5413                      .dwattr $C$DW$436, DW_AT_const_value(0x42)
    5414              
    5415              $C$DW$437       .dwtag  DW_TAG_enumerator
    5416                      .dwattr $C$DW$437, DW_AT_name("USER_ErrorCode_motor_Rr_Low")
    5417                      .dwattr $C$DW$437, DW_AT_const_value(0x43)
    5418              
    5419              $C$DW$438       .dwtag  DW_TAG_enumerator
    5420                      .dwattr $C$DW$438, DW_AT_name("USER_ErrorCode_motor_Rs_High")
    5421                      .dwattr $C$DW$438, DW_AT_const_value(0x44)
    5422              
    5423              $C$DW$439       .dwtag  DW_TAG_enumerator
    5424                      .dwattr $C$DW$439, DW_AT_name("USER_ErrorCode_motor_Rs_Low")
    5425                      .dwattr $C$DW$439, DW_AT_const_value(0x45)
    5426              
TMS320C2000 Assembler PC v15.12.3 Wed Nov 22 01:55:15 2017

Tools Copyright (c) 1996-2015 Texas Instruments Incorporated
C:\Users\wmj\AppData\Local\Temp\1239610                              PAGE  103

    5427              $C$DW$440       .dwtag  DW_TAG_enumerator
    5428                      .dwattr $C$DW$440, DW_AT_name("USER_ErrorCode_motor_Ls_d_High")
    5429                      .dwattr $C$DW$440, DW_AT_const_value(0x46)
    5430              
    5431              $C$DW$441       .dwtag  DW_TAG_enumerator
    5432                      .dwattr $C$DW$441, DW_AT_name("USER_ErrorCode_motor_Ls_d_Low")
    5433                      .dwattr $C$DW$441, DW_AT_const_value(0x47)
    5434              
    5435              $C$DW$442       .dwtag  DW_TAG_enumerator
    5436                      .dwattr $C$DW$442, DW_AT_name("USER_ErrorCode_motor_Ls_q_High")
    5437                      .dwattr $C$DW$442, DW_AT_const_value(0x48)
    5438              
    5439              $C$DW$443       .dwtag  DW_TAG_enumerator
    5440                      .dwattr $C$DW$443, DW_AT_name("USER_ErrorCode_motor_Ls_q_Low")
    5441                      .dwattr $C$DW$443, DW_AT_const_value(0x49)
    5442              
    5443              $C$DW$444       .dwtag  DW_TAG_enumerator
    5444                      .dwattr $C$DW$444, DW_AT_name("USER_ErrorCode_maxCurrent_High")
    5445                      .dwattr $C$DW$444, DW_AT_const_value(0x4a)
    5446              
    5447              $C$DW$445       .dwtag  DW_TAG_enumerator
    5448                      .dwattr $C$DW$445, DW_AT_name("USER_ErrorCode_maxCurrent_Low")
    5449                      .dwattr $C$DW$445, DW_AT_const_value(0x4b)
    5450              
    5451              $C$DW$446       .dwtag  DW_TAG_enumerator
    5452                      .dwattr $C$DW$446, DW_AT_name("USER_ErrorCode_maxCurrent_resEst_High")
    5453                      .dwattr $C$DW$446, DW_AT_const_value(0x4c)
    5454              
    5455              $C$DW$447       .dwtag  DW_TAG_enumerator
    5456                      .dwattr $C$DW$447, DW_AT_name("USER_ErrorCode_maxCurrent_resEst_Low")
    5457                      .dwattr $C$DW$447, DW_AT_const_value(0x4d)
    5458              
    5459              $C$DW$448       .dwtag  DW_TAG_enumerator
    5460                      .dwattr $C$DW$448, DW_AT_name("USER_ErrorCode_maxCurrent_indEst_High")
    5461                      .dwattr $C$DW$448, DW_AT_const_value(0x4e)
    5462              
    5463              $C$DW$449       .dwtag  DW_TAG_enumerator
    5464                      .dwattr $C$DW$449, DW_AT_name("USER_ErrorCode_maxCurrent_indEst_Low")
    5465                      .dwattr $C$DW$449, DW_AT_const_value(0x4f)
    5466              
    5467              $C$DW$450       .dwtag  DW_TAG_enumerator
    5468                      .dwattr $C$DW$450, DW_AT_name("USER_ErrorCode_maxCurrentSlope_High")
    5469                      .dwattr $C$DW$450, DW_AT_const_value(0x50)
    5470              
    5471              $C$DW$451       .dwtag  DW_TAG_enumerator
    5472                      .dwattr $C$DW$451, DW_AT_name("USER_ErrorCode_maxCurrentSlope_Low")
    5473                      .dwattr $C$DW$451, DW_AT_const_value(0x51)
    5474              
    5475              $C$DW$452       .dwtag  DW_TAG_enumerator
    5476                      .dwattr $C$DW$452, DW_AT_name("USER_ErrorCode_maxCurrentSlope_powerWarp_High")
    5477                      .dwattr $C$DW$452, DW_AT_const_value(0x52)
    5478              
    5479              $C$DW$453       .dwtag  DW_TAG_enumerator
    5480                      .dwattr $C$DW$453, DW_AT_name("USER_ErrorCode_maxCurrentSlope_powerWarp_Low")
    5481                      .dwattr $C$DW$453, DW_AT_const_value(0x53)
TMS320C2000 Assembler PC v15.12.3 Wed Nov 22 01:55:15 2017

Tools Copyright (c) 1996-2015 Texas Instruments Incorporated
C:\Users\wmj\AppData\Local\Temp\1239610                              PAGE  104

    5482              
    5483              $C$DW$454       .dwtag  DW_TAG_enumerator
    5484                      .dwattr $C$DW$454, DW_AT_name("USER_ErrorCode_IdRated_High")
    5485                      .dwattr $C$DW$454, DW_AT_const_value(0x54)
    5486              
    5487              $C$DW$455       .dwtag  DW_TAG_enumerator
    5488                      .dwattr $C$DW$455, DW_AT_name("USER_ErrorCode_IdRated_Low")
    5489                      .dwattr $C$DW$455, DW_AT_const_value(0x55)
    5490              
    5491              $C$DW$456       .dwtag  DW_TAG_enumerator
    5492                      .dwattr $C$DW$456, DW_AT_name("USER_ErrorCode_IdRatedFraction_indEst_High")
    5493                      .dwattr $C$DW$456, DW_AT_const_value(0x56)
    5494              
    5495              $C$DW$457       .dwtag  DW_TAG_enumerator
    5496                      .dwattr $C$DW$457, DW_AT_name("USER_ErrorCode_IdRatedFraction_indEst_Low")
    5497                      .dwattr $C$DW$457, DW_AT_const_value(0x57)
    5498              
    5499              $C$DW$458       .dwtag  DW_TAG_enumerator
    5500                      .dwattr $C$DW$458, DW_AT_name("USER_ErrorCode_IdRatedFraction_ratedFlux_High")
    5501                      .dwattr $C$DW$458, DW_AT_const_value(0x58)
    5502              
    5503              $C$DW$459       .dwtag  DW_TAG_enumerator
    5504                      .dwattr $C$DW$459, DW_AT_name("USER_ErrorCode_IdRatedFraction_ratedFlux_Low")
    5505                      .dwattr $C$DW$459, DW_AT_const_value(0x59)
    5506              
    5507              $C$DW$460       .dwtag  DW_TAG_enumerator
    5508                      .dwattr $C$DW$460, DW_AT_name("USER_ErrorCode_IdRated_delta_High")
    5509                      .dwattr $C$DW$460, DW_AT_const_value(0x5a)
    5510              
    5511              $C$DW$461       .dwtag  DW_TAG_enumerator
    5512                      .dwattr $C$DW$461, DW_AT_name("USER_ErrorCode_IdRated_delta_Low")
    5513                      .dwattr $C$DW$461, DW_AT_const_value(0x5b)
    5514              
    5515              $C$DW$462       .dwtag  DW_TAG_enumerator
    5516                      .dwattr $C$DW$462, DW_AT_name("USER_ErrorCode_fluxEstFreq_Hz_High")
    5517                      .dwattr $C$DW$462, DW_AT_const_value(0x5c)
    5518              
    5519              $C$DW$463       .dwtag  DW_TAG_enumerator
    5520                      .dwattr $C$DW$463, DW_AT_name("USER_ErrorCode_fluxEstFreq_Hz_Low")
    5521                      .dwattr $C$DW$463, DW_AT_const_value(0x5d)
    5522              
    5523              $C$DW$464       .dwtag  DW_TAG_enumerator
    5524                      .dwattr $C$DW$464, DW_AT_name("USER_ErrorCode_ctrlFreq_Hz_High")
    5525                      .dwattr $C$DW$464, DW_AT_const_value(0x5e)
    5526              
    5527              $C$DW$465       .dwtag  DW_TAG_enumerator
    5528                      .dwattr $C$DW$465, DW_AT_name("USER_ErrorCode_ctrlFreq_Hz_Low")
    5529                      .dwattr $C$DW$465, DW_AT_const_value(0x5f)
    5530              
    5531              $C$DW$466       .dwtag  DW_TAG_enumerator
    5532                      .dwattr $C$DW$466, DW_AT_name("USER_ErrorCode_estFreq_Hz_High")
    5533                      .dwattr $C$DW$466, DW_AT_const_value(0x60)
    5534              
    5535              $C$DW$467       .dwtag  DW_TAG_enumerator
    5536                      .dwattr $C$DW$467, DW_AT_name("USER_ErrorCode_estFreq_Hz_Low")
TMS320C2000 Assembler PC v15.12.3 Wed Nov 22 01:55:15 2017

Tools Copyright (c) 1996-2015 Texas Instruments Incorporated
C:\Users\wmj\AppData\Local\Temp\1239610                              PAGE  105

    5537                      .dwattr $C$DW$467, DW_AT_const_value(0x61)
    5538              
    5539              $C$DW$468       .dwtag  DW_TAG_enumerator
    5540                      .dwattr $C$DW$468, DW_AT_name("USER_ErrorCode_RoverL_estFreq_Hz_High")
    5541                      .dwattr $C$DW$468, DW_AT_const_value(0x62)
    5542              
    5543              $C$DW$469       .dwtag  DW_TAG_enumerator
    5544                      .dwattr $C$DW$469, DW_AT_name("USER_ErrorCode_RoverL_estFreq_Hz_Low")
    5545                      .dwattr $C$DW$469, DW_AT_const_value(0x63)
    5546              
    5547              $C$DW$470       .dwtag  DW_TAG_enumerator
    5548                      .dwattr $C$DW$470, DW_AT_name("USER_ErrorCode_trajFreq_Hz_High")
    5549                      .dwattr $C$DW$470, DW_AT_const_value(0x64)
    5550              
    5551              $C$DW$471       .dwtag  DW_TAG_enumerator
    5552                      .dwattr $C$DW$471, DW_AT_name("USER_ErrorCode_trajFreq_Hz_Low")
    5553                      .dwattr $C$DW$471, DW_AT_const_value(0x65)
    5554              
    5555              $C$DW$472       .dwtag  DW_TAG_enumerator
    5556                      .dwattr $C$DW$472, DW_AT_name("USER_ErrorCode_ctrlPeriod_sec_High")
    5557                      .dwattr $C$DW$472, DW_AT_const_value(0x66)
    5558              
    5559              $C$DW$473       .dwtag  DW_TAG_enumerator
    5560                      .dwattr $C$DW$473, DW_AT_name("USER_ErrorCode_ctrlPeriod_sec_Low")
    5561                      .dwattr $C$DW$473, DW_AT_const_value(0x67)
    5562              
    5563              $C$DW$474       .dwtag  DW_TAG_enumerator
    5564                      .dwattr $C$DW$474, DW_AT_name("USER_ErrorCode_maxNegativeIdCurrent_a_High")
    5565                      .dwattr $C$DW$474, DW_AT_const_value(0x68)
    5566              
    5567              $C$DW$475       .dwtag  DW_TAG_enumerator
    5568                      .dwattr $C$DW$475, DW_AT_name("USER_ErrorCode_maxNegativeIdCurrent_a_Low")
    5569                      .dwattr $C$DW$475, DW_AT_const_value(0x69)
    5570              
    5571              $C$DW$476       .dwtag  DW_TAG_enumerator
    5572                      .dwattr $C$DW$476, DW_AT_name("USER_numErrorCodes")
    5573                      .dwattr $C$DW$476, DW_AT_const_value(0x6a)
    5574              
    5575                      .dwendtag $C$DW$T$143
    5576              
    5577              $C$DW$T$144     .dwtag  DW_TAG_typedef
    5578                      .dwattr $C$DW$T$144, DW_AT_name("USER_ErrorCode_e")
    5579                      .dwattr $C$DW$T$144, DW_AT_type(*$C$DW$T$143)
    5580                      .dwattr $C$DW$T$144, DW_AT_language(DW_LANG_C)
    5581              
    5582              
    5583              $C$DW$T$190     .dwtag  DW_TAG_enumeration_type
    5584                      .dwattr $C$DW$T$190, DW_AT_byte_size(0x01)
    5585              $C$DW$477       .dwtag  DW_TAG_enumerator
    5586                      .dwattr $C$DW$477, DW_AT_name("GPIO_Number_0")
    5587                      .dwattr $C$DW$477, DW_AT_const_value(0x00)
    5588              
    5589              $C$DW$478       .dwtag  DW_TAG_enumerator
    5590                      .dwattr $C$DW$478, DW_AT_name("GPIO_Number_1")
    5591                      .dwattr $C$DW$478, DW_AT_const_value(0x01)
TMS320C2000 Assembler PC v15.12.3 Wed Nov 22 01:55:15 2017

Tools Copyright (c) 1996-2015 Texas Instruments Incorporated
C:\Users\wmj\AppData\Local\Temp\1239610                              PAGE  106

    5592              
    5593              $C$DW$479       .dwtag  DW_TAG_enumerator
    5594                      .dwattr $C$DW$479, DW_AT_name("GPIO_Number_2")
    5595                      .dwattr $C$DW$479, DW_AT_const_value(0x02)
    5596              
    5597              $C$DW$480       .dwtag  DW_TAG_enumerator
    5598                      .dwattr $C$DW$480, DW_AT_name("GPIO_Number_3")
    5599                      .dwattr $C$DW$480, DW_AT_const_value(0x03)
    5600              
    5601              $C$DW$481       .dwtag  DW_TAG_enumerator
    5602                      .dwattr $C$DW$481, DW_AT_name("GPIO_Number_4")
    5603                      .dwattr $C$DW$481, DW_AT_const_value(0x04)
    5604              
    5605              $C$DW$482       .dwtag  DW_TAG_enumerator
    5606                      .dwattr $C$DW$482, DW_AT_name("GPIO_Number_5")
    5607                      .dwattr $C$DW$482, DW_AT_const_value(0x05)
    5608              
    5609              $C$DW$483       .dwtag  DW_TAG_enumerator
    5610                      .dwattr $C$DW$483, DW_AT_name("GPIO_Number_6")
    5611                      .dwattr $C$DW$483, DW_AT_const_value(0x06)
    5612              
    5613              $C$DW$484       .dwtag  DW_TAG_enumerator
    5614                      .dwattr $C$DW$484, DW_AT_name("GPIO_Number_7")
    5615                      .dwattr $C$DW$484, DW_AT_const_value(0x07)
    5616              
    5617              $C$DW$485       .dwtag  DW_TAG_enumerator
    5618                      .dwattr $C$DW$485, DW_AT_name("GPIO_Rsvd_8")
    5619                      .dwattr $C$DW$485, DW_AT_const_value(0x08)
    5620              
    5621              $C$DW$486       .dwtag  DW_TAG_enumerator
    5622                      .dwattr $C$DW$486, DW_AT_name("GPIO_Rsvd_9")
    5623                      .dwattr $C$DW$486, DW_AT_const_value(0x09)
    5624              
    5625              $C$DW$487       .dwtag  DW_TAG_enumerator
    5626                      .dwattr $C$DW$487, DW_AT_name("GPIO_Rsvd_10")
    5627                      .dwattr $C$DW$487, DW_AT_const_value(0x0a)
    5628              
    5629              $C$DW$488       .dwtag  DW_TAG_enumerator
    5630                      .dwattr $C$DW$488, DW_AT_name("GPIO_Rsvd_11")
    5631                      .dwattr $C$DW$488, DW_AT_const_value(0x0b)
    5632              
    5633              $C$DW$489       .dwtag  DW_TAG_enumerator
    5634                      .dwattr $C$DW$489, DW_AT_name("GPIO_Number_12")
    5635                      .dwattr $C$DW$489, DW_AT_const_value(0x0c)
    5636              
    5637              $C$DW$490       .dwtag  DW_TAG_enumerator
    5638                      .dwattr $C$DW$490, DW_AT_name("GPIO_Rsvd_13")
    5639                      .dwattr $C$DW$490, DW_AT_const_value(0x0d)
    5640              
    5641              $C$DW$491       .dwtag  DW_TAG_enumerator
    5642                      .dwattr $C$DW$491, DW_AT_name("GPIO_Rsvd_14")
    5643                      .dwattr $C$DW$491, DW_AT_const_value(0x0e)
    5644              
    5645              $C$DW$492       .dwtag  DW_TAG_enumerator
    5646                      .dwattr $C$DW$492, DW_AT_name("GPIO_Rsvd_15")
TMS320C2000 Assembler PC v15.12.3 Wed Nov 22 01:55:15 2017

Tools Copyright (c) 1996-2015 Texas Instruments Incorporated
C:\Users\wmj\AppData\Local\Temp\1239610                              PAGE  107

    5647                      .dwattr $C$DW$492, DW_AT_const_value(0x0f)
    5648              
    5649              $C$DW$493       .dwtag  DW_TAG_enumerator
    5650                      .dwattr $C$DW$493, DW_AT_name("GPIO_Number_16")
    5651                      .dwattr $C$DW$493, DW_AT_const_value(0x10)
    5652              
    5653              $C$DW$494       .dwtag  DW_TAG_enumerator
    5654                      .dwattr $C$DW$494, DW_AT_name("GPIO_Number_17")
    5655                      .dwattr $C$DW$494, DW_AT_const_value(0x11)
    5656              
    5657              $C$DW$495       .dwtag  DW_TAG_enumerator
    5658                      .dwattr $C$DW$495, DW_AT_name("GPIO_Number_18")
    5659                      .dwattr $C$DW$495, DW_AT_const_value(0x12)
    5660              
    5661              $C$DW$496       .dwtag  DW_TAG_enumerator
    5662                      .dwattr $C$DW$496, DW_AT_name("GPIO_Number_19")
    5663                      .dwattr $C$DW$496, DW_AT_const_value(0x13)
    5664              
    5665              $C$DW$497       .dwtag  DW_TAG_enumerator
    5666                      .dwattr $C$DW$497, DW_AT_name("GPIO_Rsvd_20")
    5667                      .dwattr $C$DW$497, DW_AT_const_value(0x14)
    5668              
    5669              $C$DW$498       .dwtag  DW_TAG_enumerator
    5670                      .dwattr $C$DW$498, DW_AT_name("GPIO_Rsvd_21")
    5671                      .dwattr $C$DW$498, DW_AT_const_value(0x15)
    5672              
    5673              $C$DW$499       .dwtag  DW_TAG_enumerator
    5674                      .dwattr $C$DW$499, DW_AT_name("GPIO_Rsvd_22")
    5675                      .dwattr $C$DW$499, DW_AT_const_value(0x16)
    5676              
    5677              $C$DW$500       .dwtag  DW_TAG_enumerator
    5678                      .dwattr $C$DW$500, DW_AT_name("GPIO_Rsvd_23")
    5679                      .dwattr $C$DW$500, DW_AT_const_value(0x17)
    5680              
    5681              $C$DW$501       .dwtag  DW_TAG_enumerator
    5682                      .dwattr $C$DW$501, DW_AT_name("GPIO_Rsvd_24")
    5683                      .dwattr $C$DW$501, DW_AT_const_value(0x18)
    5684              
    5685              $C$DW$502       .dwtag  DW_TAG_enumerator
    5686                      .dwattr $C$DW$502, DW_AT_name("GPIO_Rsvd_25")
    5687                      .dwattr $C$DW$502, DW_AT_const_value(0x19)
    5688              
    5689              $C$DW$503       .dwtag  DW_TAG_enumerator
    5690                      .dwattr $C$DW$503, DW_AT_name("GPIO_Rsvd_26")
    5691                      .dwattr $C$DW$503, DW_AT_const_value(0x1a)
    5692              
    5693              $C$DW$504       .dwtag  DW_TAG_enumerator
    5694                      .dwattr $C$DW$504, DW_AT_name("GPIO_Rsvd_27")
    5695                      .dwattr $C$DW$504, DW_AT_const_value(0x1b)
    5696              
    5697              $C$DW$505       .dwtag  DW_TAG_enumerator
    5698                      .dwattr $C$DW$505, DW_AT_name("GPIO_Number_28")
    5699                      .dwattr $C$DW$505, DW_AT_const_value(0x1c)
    5700              
    5701              $C$DW$506       .dwtag  DW_TAG_enumerator
TMS320C2000 Assembler PC v15.12.3 Wed Nov 22 01:55:15 2017

Tools Copyright (c) 1996-2015 Texas Instruments Incorporated
C:\Users\wmj\AppData\Local\Temp\1239610                              PAGE  108

    5702                      .dwattr $C$DW$506, DW_AT_name("GPIO_Number_29")
    5703                      .dwattr $C$DW$506, DW_AT_const_value(0x1d)
    5704              
    5705              $C$DW$507       .dwtag  DW_TAG_enumerator
    5706                      .dwattr $C$DW$507, DW_AT_name("GPIO_Rsvd_30")
    5707                      .dwattr $C$DW$507, DW_AT_const_value(0x1e)
    5708              
    5709              $C$DW$508       .dwtag  DW_TAG_enumerator
    5710                      .dwattr $C$DW$508, DW_AT_name("GPIO_Rsvd_31")
    5711                      .dwattr $C$DW$508, DW_AT_const_value(0x1f)
    5712              
    5713              $C$DW$509       .dwtag  DW_TAG_enumerator
    5714                      .dwattr $C$DW$509, DW_AT_name("GPIO_Number_32")
    5715                      .dwattr $C$DW$509, DW_AT_const_value(0x20)
    5716              
    5717              $C$DW$510       .dwtag  DW_TAG_enumerator
    5718                      .dwattr $C$DW$510, DW_AT_name("GPIO_Number_33")
    5719                      .dwattr $C$DW$510, DW_AT_const_value(0x21)
    5720              
    5721              $C$DW$511       .dwtag  DW_TAG_enumerator
    5722                      .dwattr $C$DW$511, DW_AT_name("GPIO_Number_34")
    5723                      .dwattr $C$DW$511, DW_AT_const_value(0x22)
    5724              
    5725              $C$DW$512       .dwtag  DW_TAG_enumerator
    5726                      .dwattr $C$DW$512, DW_AT_name("GPIO_Number_35")
    5727                      .dwattr $C$DW$512, DW_AT_const_value(0x23)
    5728              
    5729              $C$DW$513       .dwtag  DW_TAG_enumerator
    5730                      .dwattr $C$DW$513, DW_AT_name("GPIO_Number_36")
    5731                      .dwattr $C$DW$513, DW_AT_const_value(0x24)
    5732              
    5733              $C$DW$514       .dwtag  DW_TAG_enumerator
    5734                      .dwattr $C$DW$514, DW_AT_name("GPIO_Number_37")
    5735                      .dwattr $C$DW$514, DW_AT_const_value(0x25)
    5736              
    5737              $C$DW$515       .dwtag  DW_TAG_enumerator
    5738                      .dwattr $C$DW$515, DW_AT_name("GPIO_Number_38")
    5739                      .dwattr $C$DW$515, DW_AT_const_value(0x26)
    5740              
    5741              $C$DW$516       .dwtag  DW_TAG_enumerator
    5742                      .dwattr $C$DW$516, DW_AT_name("GPIO_numGpios")
    5743                      .dwattr $C$DW$516, DW_AT_const_value(0x27)
    5744              
    5745                      .dwendtag $C$DW$T$190
    5746              
    5747              $C$DW$T$191     .dwtag  DW_TAG_typedef
    5748                      .dwattr $C$DW$T$191, DW_AT_name("GPIO_Number_e")
    5749                      .dwattr $C$DW$T$191, DW_AT_type(*$C$DW$T$190)
    5750                      .dwattr $C$DW$T$191, DW_AT_language(DW_LANG_C)
    5751              
    5752              $C$DW$517       .dwtag  DW_TAG_TI_far_type
    5753                      .dwattr $C$DW$517, DW_AT_type(*$C$DW$T$191)
    5754              
    5755              $C$DW$T$192     .dwtag  DW_TAG_const_type
    5756                      .dwattr $C$DW$T$192, DW_AT_type(*$C$DW$517)
TMS320C2000 Assembler PC v15.12.3 Wed Nov 22 01:55:15 2017

Tools Copyright (c) 1996-2015 Texas Instruments Incorporated
C:\Users\wmj\AppData\Local\Temp\1239610                              PAGE  109

    5757              
    5758              
    5759              $C$DW$T$29      .dwtag  DW_TAG_structure_type
    5760                      .dwattr $C$DW$T$29, DW_AT_name("_ADC_Obj_")
    5761                      .dwattr $C$DW$T$29, DW_AT_byte_size(0x6650)
    5762              $C$DW$518       .dwtag  DW_TAG_member
    5763                      .dwattr $C$DW$518, DW_AT_type(*$C$DW$T$23)
    5764                      .dwattr $C$DW$518, DW_AT_name("ADCRESULT")
    5765                      .dwattr $C$DW$518, DW_AT_TI_symbol_name("_ADCRESULT")
    5766                      .dwattr $C$DW$518, DW_AT_data_member_location[DW_OP_plus_uconst 0x0]
    5767                      .dwattr $C$DW$518, DW_AT_accessibility(DW_ACCESS_public)
    5768              
    5769              $C$DW$519       .dwtag  DW_TAG_member
    5770                      .dwattr $C$DW$519, DW_AT_type(*$C$DW$T$24)
    5771                      .dwattr $C$DW$519, DW_AT_name("resvd_1")
    5772                      .dwattr $C$DW$519, DW_AT_TI_symbol_name("_resvd_1")
    5773                      .dwattr $C$DW$519, DW_AT_data_member_location[DW_OP_plus_uconst 0x10]
    5774                      .dwattr $C$DW$519, DW_AT_accessibility(DW_ACCESS_public)
    5775              
    5776              $C$DW$520       .dwtag  DW_TAG_member
    5777                      .dwattr $C$DW$520, DW_AT_type(*$C$DW$T$22)
    5778                      .dwattr $C$DW$520, DW_AT_name("ADCCTL1")
    5779                      .dwattr $C$DW$520, DW_AT_TI_symbol_name("_ADCCTL1")
    5780                      .dwattr $C$DW$520, DW_AT_data_member_location[DW_OP_plus_uconst 0x6600]
    5781                      .dwattr $C$DW$520, DW_AT_accessibility(DW_ACCESS_public)
    5782              
    5783              $C$DW$521       .dwtag  DW_TAG_member
    5784                      .dwattr $C$DW$521, DW_AT_type(*$C$DW$T$22)
    5785                      .dwattr $C$DW$521, DW_AT_name("ADCCTL2")
    5786                      .dwattr $C$DW$521, DW_AT_TI_symbol_name("_ADCCTL2")
    5787                      .dwattr $C$DW$521, DW_AT_data_member_location[DW_OP_plus_uconst 0x6601]
    5788                      .dwattr $C$DW$521, DW_AT_accessibility(DW_ACCESS_public)
    5789              
    5790              $C$DW$522       .dwtag  DW_TAG_member
    5791                      .dwattr $C$DW$522, DW_AT_type(*$C$DW$T$25)
    5792                      .dwattr $C$DW$522, DW_AT_name("rsvd_2")
    5793                      .dwattr $C$DW$522, DW_AT_TI_symbol_name("_rsvd_2")
    5794                      .dwattr $C$DW$522, DW_AT_data_member_location[DW_OP_plus_uconst 0x6602]
    5795                      .dwattr $C$DW$522, DW_AT_accessibility(DW_ACCESS_public)
    5796              
    5797              $C$DW$523       .dwtag  DW_TAG_member
    5798                      .dwattr $C$DW$523, DW_AT_type(*$C$DW$T$22)
    5799                      .dwattr $C$DW$523, DW_AT_name("ADCINTFLG")
    5800                      .dwattr $C$DW$523, DW_AT_TI_symbol_name("_ADCINTFLG")
    5801                      .dwattr $C$DW$523, DW_AT_data_member_location[DW_OP_plus_uconst 0x6604]
    5802                      .dwattr $C$DW$523, DW_AT_accessibility(DW_ACCESS_public)
    5803              
    5804              $C$DW$524       .dwtag  DW_TAG_member
    5805                      .dwattr $C$DW$524, DW_AT_type(*$C$DW$T$22)
    5806                      .dwattr $C$DW$524, DW_AT_name("ADCINTFLGCLR")
    5807                      .dwattr $C$DW$524, DW_AT_TI_symbol_name("_ADCINTFLGCLR")
    5808                      .dwattr $C$DW$524, DW_AT_data_member_location[DW_OP_plus_uconst 0x6605]
    5809                      .dwattr $C$DW$524, DW_AT_accessibility(DW_ACCESS_public)
    5810              
    5811              $C$DW$525       .dwtag  DW_TAG_member
TMS320C2000 Assembler PC v15.12.3 Wed Nov 22 01:55:15 2017

Tools Copyright (c) 1996-2015 Texas Instruments Incorporated
C:\Users\wmj\AppData\Local\Temp\1239610                              PAGE  110

    5812                      .dwattr $C$DW$525, DW_AT_type(*$C$DW$T$22)
    5813                      .dwattr $C$DW$525, DW_AT_name("ADCINTOVF")
    5814                      .dwattr $C$DW$525, DW_AT_TI_symbol_name("_ADCINTOVF")
    5815                      .dwattr $C$DW$525, DW_AT_data_member_location[DW_OP_plus_uconst 0x6606]
    5816                      .dwattr $C$DW$525, DW_AT_accessibility(DW_ACCESS_public)
    5817              
    5818              $C$DW$526       .dwtag  DW_TAG_member
    5819                      .dwattr $C$DW$526, DW_AT_type(*$C$DW$T$22)
    5820                      .dwattr $C$DW$526, DW_AT_name("ADCINTOVFCLR")
    5821                      .dwattr $C$DW$526, DW_AT_TI_symbol_name("_ADCINTOVFCLR")
    5822                      .dwattr $C$DW$526, DW_AT_data_member_location[DW_OP_plus_uconst 0x6607]
    5823                      .dwattr $C$DW$526, DW_AT_accessibility(DW_ACCESS_public)
    5824              
    5825              $C$DW$527       .dwtag  DW_TAG_member
    5826                      .dwattr $C$DW$527, DW_AT_type(*$C$DW$T$26)
    5827                      .dwattr $C$DW$527, DW_AT_name("INTSELxNy")
    5828                      .dwattr $C$DW$527, DW_AT_TI_symbol_name("_INTSELxNy")
    5829                      .dwattr $C$DW$527, DW_AT_data_member_location[DW_OP_plus_uconst 0x6608]
    5830                      .dwattr $C$DW$527, DW_AT_accessibility(DW_ACCESS_public)
    5831              
    5832              $C$DW$528       .dwtag  DW_TAG_member
    5833                      .dwattr $C$DW$528, DW_AT_type(*$C$DW$T$27)
    5834                      .dwattr $C$DW$528, DW_AT_name("rsvd_3")
    5835                      .dwattr $C$DW$528, DW_AT_TI_symbol_name("_rsvd_3")
    5836                      .dwattr $C$DW$528, DW_AT_data_member_location[DW_OP_plus_uconst 0x660d]
    5837                      .dwattr $C$DW$528, DW_AT_accessibility(DW_ACCESS_public)
    5838              
    5839              $C$DW$529       .dwtag  DW_TAG_member
    5840                      .dwattr $C$DW$529, DW_AT_type(*$C$DW$T$22)
    5841                      .dwattr $C$DW$529, DW_AT_name("SOCPRICTRL")
    5842                      .dwattr $C$DW$529, DW_AT_TI_symbol_name("_SOCPRICTRL")
    5843                      .dwattr $C$DW$529, DW_AT_data_member_location[DW_OP_plus_uconst 0x6610]
    5844                      .dwattr $C$DW$529, DW_AT_accessibility(DW_ACCESS_public)
    5845              
    5846              $C$DW$530       .dwtag  DW_TAG_member
    5847                      .dwattr $C$DW$530, DW_AT_type(*$C$DW$T$22)
    5848                      .dwattr $C$DW$530, DW_AT_name("rsvd_4")
    5849                      .dwattr $C$DW$530, DW_AT_TI_symbol_name("_rsvd_4")
    5850                      .dwattr $C$DW$530, DW_AT_data_member_location[DW_OP_plus_uconst 0x6611]
    5851                      .dwattr $C$DW$530, DW_AT_accessibility(DW_ACCESS_public)
    5852              
    5853              $C$DW$531       .dwtag  DW_TAG_member
    5854                      .dwattr $C$DW$531, DW_AT_type(*$C$DW$T$22)
    5855                      .dwattr $C$DW$531, DW_AT_name("ADCSAMPLEMODE")
    5856                      .dwattr $C$DW$531, DW_AT_TI_symbol_name("_ADCSAMPLEMODE")
    5857                      .dwattr $C$DW$531, DW_AT_data_member_location[DW_OP_plus_uconst 0x6612]
    5858                      .dwattr $C$DW$531, DW_AT_accessibility(DW_ACCESS_public)
    5859              
    5860              $C$DW$532       .dwtag  DW_TAG_member
    5861                      .dwattr $C$DW$532, DW_AT_type(*$C$DW$T$22)
    5862                      .dwattr $C$DW$532, DW_AT_name("rsvd_5")
    5863                      .dwattr $C$DW$532, DW_AT_TI_symbol_name("_rsvd_5")
    5864                      .dwattr $C$DW$532, DW_AT_data_member_location[DW_OP_plus_uconst 0x6613]
    5865                      .dwattr $C$DW$532, DW_AT_accessibility(DW_ACCESS_public)
    5866              
TMS320C2000 Assembler PC v15.12.3 Wed Nov 22 01:55:15 2017

Tools Copyright (c) 1996-2015 Texas Instruments Incorporated
C:\Users\wmj\AppData\Local\Temp\1239610                              PAGE  111

    5867              $C$DW$533       .dwtag  DW_TAG_member
    5868                      .dwattr $C$DW$533, DW_AT_type(*$C$DW$T$22)
    5869                      .dwattr $C$DW$533, DW_AT_name("ADCINTSOCSEL1")
    5870                      .dwattr $C$DW$533, DW_AT_TI_symbol_name("_ADCINTSOCSEL1")
    5871                      .dwattr $C$DW$533, DW_AT_data_member_location[DW_OP_plus_uconst 0x6614]
    5872                      .dwattr $C$DW$533, DW_AT_accessibility(DW_ACCESS_public)
    5873              
    5874              $C$DW$534       .dwtag  DW_TAG_member
    5875                      .dwattr $C$DW$534, DW_AT_type(*$C$DW$T$22)
    5876                      .dwattr $C$DW$534, DW_AT_name("ADCINTSOCSEL2")
    5877                      .dwattr $C$DW$534, DW_AT_TI_symbol_name("_ADCINTSOCSEL2")
    5878                      .dwattr $C$DW$534, DW_AT_data_member_location[DW_OP_plus_uconst 0x6615]
    5879                      .dwattr $C$DW$534, DW_AT_accessibility(DW_ACCESS_public)
    5880              
    5881              $C$DW$535       .dwtag  DW_TAG_member
    5882                      .dwattr $C$DW$535, DW_AT_type(*$C$DW$T$25)
    5883                      .dwattr $C$DW$535, DW_AT_name("rsvd_6")
    5884                      .dwattr $C$DW$535, DW_AT_TI_symbol_name("_rsvd_6")
    5885                      .dwattr $C$DW$535, DW_AT_data_member_location[DW_OP_plus_uconst 0x6616]
    5886                      .dwattr $C$DW$535, DW_AT_accessibility(DW_ACCESS_public)
    5887              
    5888              $C$DW$536       .dwtag  DW_TAG_member
    5889                      .dwattr $C$DW$536, DW_AT_type(*$C$DW$T$22)
    5890                      .dwattr $C$DW$536, DW_AT_name("ADCSOCFLG1")
    5891                      .dwattr $C$DW$536, DW_AT_TI_symbol_name("_ADCSOCFLG1")
    5892                      .dwattr $C$DW$536, DW_AT_data_member_location[DW_OP_plus_uconst 0x6618]
    5893                      .dwattr $C$DW$536, DW_AT_accessibility(DW_ACCESS_public)
    5894              
    5895              $C$DW$537       .dwtag  DW_TAG_member
    5896                      .dwattr $C$DW$537, DW_AT_type(*$C$DW$T$22)
    5897                      .dwattr $C$DW$537, DW_AT_name("rsvd_7")
    5898                      .dwattr $C$DW$537, DW_AT_TI_symbol_name("_rsvd_7")
    5899                      .dwattr $C$DW$537, DW_AT_data_member_location[DW_OP_plus_uconst 0x6619]
    5900                      .dwattr $C$DW$537, DW_AT_accessibility(DW_ACCESS_public)
    5901              
    5902              $C$DW$538       .dwtag  DW_TAG_member
    5903                      .dwattr $C$DW$538, DW_AT_type(*$C$DW$T$22)
    5904                      .dwattr $C$DW$538, DW_AT_name("ADCSOCFRC1")
    5905                      .dwattr $C$DW$538, DW_AT_TI_symbol_name("_ADCSOCFRC1")
    5906                      .dwattr $C$DW$538, DW_AT_data_member_location[DW_OP_plus_uconst 0x661a]
    5907                      .dwattr $C$DW$538, DW_AT_accessibility(DW_ACCESS_public)
    5908              
    5909              $C$DW$539       .dwtag  DW_TAG_member
    5910                      .dwattr $C$DW$539, DW_AT_type(*$C$DW$T$22)
    5911                      .dwattr $C$DW$539, DW_AT_name("rsvd_8")
    5912                      .dwattr $C$DW$539, DW_AT_TI_symbol_name("_rsvd_8")
    5913                      .dwattr $C$DW$539, DW_AT_data_member_location[DW_OP_plus_uconst 0x661b]
    5914                      .dwattr $C$DW$539, DW_AT_accessibility(DW_ACCESS_public)
    5915              
    5916              $C$DW$540       .dwtag  DW_TAG_member
    5917                      .dwattr $C$DW$540, DW_AT_type(*$C$DW$T$22)
    5918                      .dwattr $C$DW$540, DW_AT_name("ADCSOCOVF1")
    5919                      .dwattr $C$DW$540, DW_AT_TI_symbol_name("_ADCSOCOVF1")
    5920                      .dwattr $C$DW$540, DW_AT_data_member_location[DW_OP_plus_uconst 0x661c]
    5921                      .dwattr $C$DW$540, DW_AT_accessibility(DW_ACCESS_public)
TMS320C2000 Assembler PC v15.12.3 Wed Nov 22 01:55:15 2017

Tools Copyright (c) 1996-2015 Texas Instruments Incorporated
C:\Users\wmj\AppData\Local\Temp\1239610                              PAGE  112

    5922              
    5923              $C$DW$541       .dwtag  DW_TAG_member
    5924                      .dwattr $C$DW$541, DW_AT_type(*$C$DW$T$22)
    5925                      .dwattr $C$DW$541, DW_AT_name("rsvd_9")
    5926                      .dwattr $C$DW$541, DW_AT_TI_symbol_name("_rsvd_9")
    5927                      .dwattr $C$DW$541, DW_AT_data_member_location[DW_OP_plus_uconst 0x661d]
    5928                      .dwattr $C$DW$541, DW_AT_accessibility(DW_ACCESS_public)
    5929              
    5930              $C$DW$542       .dwtag  DW_TAG_member
    5931                      .dwattr $C$DW$542, DW_AT_type(*$C$DW$T$22)
    5932                      .dwattr $C$DW$542, DW_AT_name("ADCSOCOVFCLR1")
    5933                      .dwattr $C$DW$542, DW_AT_TI_symbol_name("_ADCSOCOVFCLR1")
    5934                      .dwattr $C$DW$542, DW_AT_data_member_location[DW_OP_plus_uconst 0x661e]
    5935                      .dwattr $C$DW$542, DW_AT_accessibility(DW_ACCESS_public)
    5936              
    5937              $C$DW$543       .dwtag  DW_TAG_member
    5938                      .dwattr $C$DW$543, DW_AT_type(*$C$DW$T$22)
    5939                      .dwattr $C$DW$543, DW_AT_name("rsvd_10")
    5940                      .dwattr $C$DW$543, DW_AT_TI_symbol_name("_rsvd_10")
    5941                      .dwattr $C$DW$543, DW_AT_data_member_location[DW_OP_plus_uconst 0x661f]
    5942                      .dwattr $C$DW$543, DW_AT_accessibility(DW_ACCESS_public)
    5943              
    5944              $C$DW$544       .dwtag  DW_TAG_member
    5945                      .dwattr $C$DW$544, DW_AT_type(*$C$DW$T$23)
    5946                      .dwattr $C$DW$544, DW_AT_name("ADCSOCxCTL")
    5947                      .dwattr $C$DW$544, DW_AT_TI_symbol_name("_ADCSOCxCTL")
    5948                      .dwattr $C$DW$544, DW_AT_data_member_location[DW_OP_plus_uconst 0x6620]
    5949                      .dwattr $C$DW$544, DW_AT_accessibility(DW_ACCESS_public)
    5950              
    5951              $C$DW$545       .dwtag  DW_TAG_member
    5952                      .dwattr $C$DW$545, DW_AT_type(*$C$DW$T$23)
    5953                      .dwattr $C$DW$545, DW_AT_name("rsvd_11")
    5954                      .dwattr $C$DW$545, DW_AT_TI_symbol_name("_rsvd_11")
    5955                      .dwattr $C$DW$545, DW_AT_data_member_location[DW_OP_plus_uconst 0x6630]
    5956                      .dwattr $C$DW$545, DW_AT_accessibility(DW_ACCESS_public)
    5957              
    5958              $C$DW$546       .dwtag  DW_TAG_member
    5959                      .dwattr $C$DW$546, DW_AT_type(*$C$DW$T$22)
    5960                      .dwattr $C$DW$546, DW_AT_name("ADCREFTRIM")
    5961                      .dwattr $C$DW$546, DW_AT_TI_symbol_name("_ADCREFTRIM")
    5962                      .dwattr $C$DW$546, DW_AT_data_member_location[DW_OP_plus_uconst 0x6640]
    5963                      .dwattr $C$DW$546, DW_AT_accessibility(DW_ACCESS_public)
    5964              
    5965              $C$DW$547       .dwtag  DW_TAG_member
    5966                      .dwattr $C$DW$547, DW_AT_type(*$C$DW$T$22)
    5967                      .dwattr $C$DW$547, DW_AT_name("ADCOFFTRIM")
    5968                      .dwattr $C$DW$547, DW_AT_TI_symbol_name("_ADCOFFTRIM")
    5969                      .dwattr $C$DW$547, DW_AT_data_member_location[DW_OP_plus_uconst 0x6641]
    5970                      .dwattr $C$DW$547, DW_AT_accessibility(DW_ACCESS_public)
    5971              
    5972              $C$DW$548       .dwtag  DW_TAG_member
    5973                      .dwattr $C$DW$548, DW_AT_type(*$C$DW$T$28)
    5974                      .dwattr $C$DW$548, DW_AT_name("resvd_12")
    5975                      .dwattr $C$DW$548, DW_AT_TI_symbol_name("_resvd_12")
    5976                      .dwattr $C$DW$548, DW_AT_data_member_location[DW_OP_plus_uconst 0x6642]
TMS320C2000 Assembler PC v15.12.3 Wed Nov 22 01:55:15 2017

Tools Copyright (c) 1996-2015 Texas Instruments Incorporated
C:\Users\wmj\AppData\Local\Temp\1239610                              PAGE  113

    5977                      .dwattr $C$DW$548, DW_AT_accessibility(DW_ACCESS_public)
    5978              
    5979              $C$DW$549       .dwtag  DW_TAG_member
    5980                      .dwattr $C$DW$549, DW_AT_type(*$C$DW$T$22)
    5981                      .dwattr $C$DW$549, DW_AT_name("ADCREV")
    5982                      .dwattr $C$DW$549, DW_AT_TI_symbol_name("_ADCREV")
    5983                      .dwattr $C$DW$549, DW_AT_data_member_location[DW_OP_plus_uconst 0x664f]
    5984                      .dwattr $C$DW$549, DW_AT_accessibility(DW_ACCESS_public)
    5985              
    5986                      .dwendtag $C$DW$T$29
    5987              
    5988              $C$DW$T$79      .dwtag  DW_TAG_pointer_type
    5989                      .dwattr $C$DW$T$79, DW_AT_type(*$C$DW$T$29)
    5990                      .dwattr $C$DW$T$79, DW_AT_address_class(0x20)
    5991              
    5992              $C$DW$T$80      .dwtag  DW_TAG_typedef
    5993                      .dwattr $C$DW$T$80, DW_AT_name("ADC_Handle")
    5994                      .dwattr $C$DW$T$80, DW_AT_type(*$C$DW$T$79)
    5995                      .dwattr $C$DW$T$80, DW_AT_language(DW_LANG_C)
    5996              
    5997              
    5998              $C$DW$T$31      .dwtag  DW_TAG_structure_type
    5999                      .dwattr $C$DW$T$31, DW_AT_name("_CLK_Obj_")
    6000                      .dwattr $C$DW$T$31, DW_AT_byte_size(0x11)
    6001              $C$DW$550       .dwtag  DW_TAG_member
    6002                      .dwattr $C$DW$550, DW_AT_type(*$C$DW$T$22)
    6003                      .dwattr $C$DW$550, DW_AT_name("XCLK")
    6004                      .dwattr $C$DW$550, DW_AT_TI_symbol_name("_XCLK")
    6005                      .dwattr $C$DW$550, DW_AT_data_member_location[DW_OP_plus_uconst 0x0]
    6006                      .dwattr $C$DW$550, DW_AT_accessibility(DW_ACCESS_public)
    6007              
    6008              $C$DW$551       .dwtag  DW_TAG_member
    6009                      .dwattr $C$DW$551, DW_AT_type(*$C$DW$T$22)
    6010                      .dwattr $C$DW$551, DW_AT_name("rsvd_1")
    6011                      .dwattr $C$DW$551, DW_AT_TI_symbol_name("_rsvd_1")
    6012                      .dwattr $C$DW$551, DW_AT_data_member_location[DW_OP_plus_uconst 0x1]
    6013                      .dwattr $C$DW$551, DW_AT_accessibility(DW_ACCESS_public)
    6014              
    6015              $C$DW$552       .dwtag  DW_TAG_member
    6016                      .dwattr $C$DW$552, DW_AT_type(*$C$DW$T$22)
    6017                      .dwattr $C$DW$552, DW_AT_name("CLKCTL")
    6018                      .dwattr $C$DW$552, DW_AT_TI_symbol_name("_CLKCTL")
    6019                      .dwattr $C$DW$552, DW_AT_data_member_location[DW_OP_plus_uconst 0x2]
    6020                      .dwattr $C$DW$552, DW_AT_accessibility(DW_ACCESS_public)
    6021              
    6022              $C$DW$553       .dwtag  DW_TAG_member
    6023                      .dwattr $C$DW$553, DW_AT_type(*$C$DW$T$30)
    6024                      .dwattr $C$DW$553, DW_AT_name("rsvd_2")
    6025                      .dwattr $C$DW$553, DW_AT_TI_symbol_name("_rsvd_2")
    6026                      .dwattr $C$DW$553, DW_AT_data_member_location[DW_OP_plus_uconst 0x3]
    6027                      .dwattr $C$DW$553, DW_AT_accessibility(DW_ACCESS_public)
    6028              
    6029              $C$DW$554       .dwtag  DW_TAG_member
    6030                      .dwattr $C$DW$554, DW_AT_type(*$C$DW$T$22)
    6031                      .dwattr $C$DW$554, DW_AT_name("LOSPCP")
TMS320C2000 Assembler PC v15.12.3 Wed Nov 22 01:55:15 2017

Tools Copyright (c) 1996-2015 Texas Instruments Incorporated
C:\Users\wmj\AppData\Local\Temp\1239610                              PAGE  114

    6032                      .dwattr $C$DW$554, DW_AT_TI_symbol_name("_LOSPCP")
    6033                      .dwattr $C$DW$554, DW_AT_data_member_location[DW_OP_plus_uconst 0xb]
    6034                      .dwattr $C$DW$554, DW_AT_accessibility(DW_ACCESS_public)
    6035              
    6036              $C$DW$555       .dwtag  DW_TAG_member
    6037                      .dwattr $C$DW$555, DW_AT_type(*$C$DW$T$22)
    6038                      .dwattr $C$DW$555, DW_AT_name("PCLKCR0")
    6039                      .dwattr $C$DW$555, DW_AT_TI_symbol_name("_PCLKCR0")
    6040                      .dwattr $C$DW$555, DW_AT_data_member_location[DW_OP_plus_uconst 0xc]
    6041                      .dwattr $C$DW$555, DW_AT_accessibility(DW_ACCESS_public)
    6042              
    6043              $C$DW$556       .dwtag  DW_TAG_member
    6044                      .dwattr $C$DW$556, DW_AT_type(*$C$DW$T$22)
    6045                      .dwattr $C$DW$556, DW_AT_name("PCLKCR1")
    6046                      .dwattr $C$DW$556, DW_AT_TI_symbol_name("_PCLKCR1")
    6047                      .dwattr $C$DW$556, DW_AT_data_member_location[DW_OP_plus_uconst 0xd]
    6048                      .dwattr $C$DW$556, DW_AT_accessibility(DW_ACCESS_public)
    6049              
    6050              $C$DW$557       .dwtag  DW_TAG_member
    6051                      .dwattr $C$DW$557, DW_AT_type(*$C$DW$T$25)
    6052                      .dwattr $C$DW$557, DW_AT_name("rsvd_3")
    6053                      .dwattr $C$DW$557, DW_AT_TI_symbol_name("_rsvd_3")
    6054                      .dwattr $C$DW$557, DW_AT_data_member_location[DW_OP_plus_uconst 0xe]
    6055                      .dwattr $C$DW$557, DW_AT_accessibility(DW_ACCESS_public)
    6056              
    6057              $C$DW$558       .dwtag  DW_TAG_member
    6058                      .dwattr $C$DW$558, DW_AT_type(*$C$DW$T$22)
    6059                      .dwattr $C$DW$558, DW_AT_name("PCLKCR3")
    6060                      .dwattr $C$DW$558, DW_AT_TI_symbol_name("_PCLKCR3")
    6061                      .dwattr $C$DW$558, DW_AT_data_member_location[DW_OP_plus_uconst 0x10]
    6062                      .dwattr $C$DW$558, DW_AT_accessibility(DW_ACCESS_public)
    6063              
    6064                      .dwendtag $C$DW$T$31
    6065              
    6066              $C$DW$T$81      .dwtag  DW_TAG_pointer_type
    6067                      .dwattr $C$DW$T$81, DW_AT_type(*$C$DW$T$31)
    6068                      .dwattr $C$DW$T$81, DW_AT_address_class(0x20)
    6069              
    6070              $C$DW$T$82      .dwtag  DW_TAG_typedef
    6071                      .dwattr $C$DW$T$82, DW_AT_name("CLK_Handle")
    6072                      .dwattr $C$DW$T$82, DW_AT_type(*$C$DW$T$81)
    6073                      .dwattr $C$DW$T$82, DW_AT_language(DW_LANG_C)
    6074              
    6075              
    6076              $C$DW$T$33      .dwtag  DW_TAG_structure_type
    6077                      .dwattr $C$DW$T$33, DW_AT_name("_CPU_Obj_")
    6078                      .dwattr $C$DW$T$33, DW_AT_byte_size(0x01)
    6079              $C$DW$559       .dwtag  DW_TAG_member
    6080                      .dwattr $C$DW$559, DW_AT_type(*$C$DW$T$32)
    6081                      .dwattr $C$DW$559, DW_AT_name("tmp")
    6082                      .dwattr $C$DW$559, DW_AT_TI_symbol_name("_tmp")
    6083                      .dwattr $C$DW$559, DW_AT_data_member_location[DW_OP_plus_uconst 0x0]
    6084                      .dwattr $C$DW$559, DW_AT_accessibility(DW_ACCESS_public)
    6085              
    6086                      .dwendtag $C$DW$T$33
TMS320C2000 Assembler PC v15.12.3 Wed Nov 22 01:55:15 2017

Tools Copyright (c) 1996-2015 Texas Instruments Incorporated
C:\Users\wmj\AppData\Local\Temp\1239610                              PAGE  115

    6087              
    6088              $C$DW$T$83      .dwtag  DW_TAG_pointer_type
    6089                      .dwattr $C$DW$T$83, DW_AT_type(*$C$DW$T$33)
    6090                      .dwattr $C$DW$T$83, DW_AT_address_class(0x20)
    6091              
    6092              $C$DW$T$84      .dwtag  DW_TAG_typedef
    6093                      .dwattr $C$DW$T$84, DW_AT_name("CPU_Handle")
    6094                      .dwattr $C$DW$T$84, DW_AT_type(*$C$DW$T$83)
    6095                      .dwattr $C$DW$T$84, DW_AT_language(DW_LANG_C)
    6096              
    6097              
    6098              $C$DW$T$36      .dwtag  DW_TAG_structure_type
    6099                      .dwattr $C$DW$T$36, DW_AT_name("_CTRL_Version_")
    6100                      .dwattr $C$DW$T$36, DW_AT_byte_size(0x04)
    6101              $C$DW$560       .dwtag  DW_TAG_member
    6102                      .dwattr $C$DW$560, DW_AT_type(*$C$DW$T$21)
    6103                      .dwattr $C$DW$560, DW_AT_name("rsvd")
    6104                      .dwattr $C$DW$560, DW_AT_TI_symbol_name("_rsvd")
    6105                      .dwattr $C$DW$560, DW_AT_data_member_location[DW_OP_plus_uconst 0x0]
    6106                      .dwattr $C$DW$560, DW_AT_accessibility(DW_ACCESS_public)
    6107              
    6108              $C$DW$561       .dwtag  DW_TAG_member
    6109                      .dwattr $C$DW$561, DW_AT_type(*$C$DW$T$35)
    6110                      .dwattr $C$DW$561, DW_AT_name("targetProc")
    6111                      .dwattr $C$DW$561, DW_AT_TI_symbol_name("_targetProc")
    6112                      .dwattr $C$DW$561, DW_AT_data_member_location[DW_OP_plus_uconst 0x1]
    6113                      .dwattr $C$DW$561, DW_AT_accessibility(DW_ACCESS_public)
    6114              
    6115              $C$DW$562       .dwtag  DW_TAG_member
    6116                      .dwattr $C$DW$562, DW_AT_type(*$C$DW$T$21)
    6117                      .dwattr $C$DW$562, DW_AT_name("major")
    6118                      .dwattr $C$DW$562, DW_AT_TI_symbol_name("_major")
    6119                      .dwattr $C$DW$562, DW_AT_data_member_location[DW_OP_plus_uconst 0x2]
    6120                      .dwattr $C$DW$562, DW_AT_accessibility(DW_ACCESS_public)
    6121              
    6122              $C$DW$563       .dwtag  DW_TAG_member
    6123                      .dwattr $C$DW$563, DW_AT_type(*$C$DW$T$21)
    6124                      .dwattr $C$DW$563, DW_AT_name("minor")
    6125                      .dwattr $C$DW$563, DW_AT_TI_symbol_name("_minor")
    6126                      .dwattr $C$DW$563, DW_AT_data_member_location[DW_OP_plus_uconst 0x3]
    6127                      .dwattr $C$DW$563, DW_AT_accessibility(DW_ACCESS_public)
    6128              
    6129                      .dwendtag $C$DW$T$36
    6130              
    6131              $C$DW$T$145     .dwtag  DW_TAG_typedef
    6132                      .dwattr $C$DW$T$145, DW_AT_name("CTRL_Version")
    6133                      .dwattr $C$DW$T$145, DW_AT_type(*$C$DW$T$36)
    6134                      .dwattr $C$DW$T$145, DW_AT_language(DW_LANG_C)
    6135              
    6136              
    6137              $C$DW$T$38      .dwtag  DW_TAG_structure_type
    6138                      .dwattr $C$DW$T$38, DW_AT_name("_FILTER_FO_")
    6139                      .dwattr $C$DW$T$38, DW_AT_byte_size(0x0a)
    6140              $C$DW$564       .dwtag  DW_TAG_member
    6141                      .dwattr $C$DW$564, DW_AT_type(*$C$DW$T$37)
TMS320C2000 Assembler PC v15.12.3 Wed Nov 22 01:55:15 2017

Tools Copyright (c) 1996-2015 Texas Instruments Incorporated
C:\Users\wmj\AppData\Local\Temp\1239610                              PAGE  116

    6142                      .dwattr $C$DW$564, DW_AT_name("a1")
    6143                      .dwattr $C$DW$564, DW_AT_TI_symbol_name("_a1")
    6144                      .dwattr $C$DW$564, DW_AT_data_member_location[DW_OP_plus_uconst 0x0]
    6145                      .dwattr $C$DW$564, DW_AT_accessibility(DW_ACCESS_public)
    6146              
    6147              $C$DW$565       .dwtag  DW_TAG_member
    6148                      .dwattr $C$DW$565, DW_AT_type(*$C$DW$T$37)
    6149                      .dwattr $C$DW$565, DW_AT_name("b0")
    6150                      .dwattr $C$DW$565, DW_AT_TI_symbol_name("_b0")
    6151                      .dwattr $C$DW$565, DW_AT_data_member_location[DW_OP_plus_uconst 0x2]
    6152                      .dwattr $C$DW$565, DW_AT_accessibility(DW_ACCESS_public)
    6153              
    6154              $C$DW$566       .dwtag  DW_TAG_member
    6155                      .dwattr $C$DW$566, DW_AT_type(*$C$DW$T$37)
    6156                      .dwattr $C$DW$566, DW_AT_name("b1")
    6157                      .dwattr $C$DW$566, DW_AT_TI_symbol_name("_b1")
    6158                      .dwattr $C$DW$566, DW_AT_data_member_location[DW_OP_plus_uconst 0x4]
    6159                      .dwattr $C$DW$566, DW_AT_accessibility(DW_ACCESS_public)
    6160              
    6161              $C$DW$567       .dwtag  DW_TAG_member
    6162                      .dwattr $C$DW$567, DW_AT_type(*$C$DW$T$37)
    6163                      .dwattr $C$DW$567, DW_AT_name("x1")
    6164                      .dwattr $C$DW$567, DW_AT_TI_symbol_name("_x1")
    6165                      .dwattr $C$DW$567, DW_AT_data_member_location[DW_OP_plus_uconst 0x6]
    6166                      .dwattr $C$DW$567, DW_AT_accessibility(DW_ACCESS_public)
    6167              
    6168              $C$DW$568       .dwtag  DW_TAG_member
    6169                      .dwattr $C$DW$568, DW_AT_type(*$C$DW$T$37)
    6170                      .dwattr $C$DW$568, DW_AT_name("y1")
    6171                      .dwattr $C$DW$568, DW_AT_TI_symbol_name("_y1")
    6172                      .dwattr $C$DW$568, DW_AT_data_member_location[DW_OP_plus_uconst 0x8]
    6173                      .dwattr $C$DW$568, DW_AT_accessibility(DW_ACCESS_public)
    6174              
    6175                      .dwendtag $C$DW$T$38
    6176              
    6177              $C$DW$T$149     .dwtag  DW_TAG_typedef
    6178                      .dwattr $C$DW$T$149, DW_AT_name("FILTER_FO_Obj")
    6179                      .dwattr $C$DW$T$149, DW_AT_type(*$C$DW$T$38)
    6180                      .dwattr $C$DW$T$149, DW_AT_language(DW_LANG_C)
    6181              
    6182              
    6183              $C$DW$T$19      .dwtag  DW_TAG_structure_type
    6184                      .dwattr $C$DW$T$19, DW_AT_name("_FILTER_FO_Obj_")
    6185                      .dwattr $C$DW$T$19, DW_AT_declaration
    6186                      .dwendtag $C$DW$T$19
    6187              
    6188              $C$DW$T$150     .dwtag  DW_TAG_pointer_type
    6189                      .dwattr $C$DW$T$150, DW_AT_type(*$C$DW$T$19)
    6190                      .dwattr $C$DW$T$150, DW_AT_address_class(0x20)
    6191              
    6192              $C$DW$T$151     .dwtag  DW_TAG_typedef
    6193                      .dwattr $C$DW$T$151, DW_AT_name("FILTER_FO_Handle")
    6194                      .dwattr $C$DW$T$151, DW_AT_type(*$C$DW$T$150)
    6195                      .dwattr $C$DW$T$151, DW_AT_language(DW_LANG_C)
    6196              
TMS320C2000 Assembler PC v15.12.3 Wed Nov 22 01:55:15 2017

Tools Copyright (c) 1996-2015 Texas Instruments Incorporated
C:\Users\wmj\AppData\Local\Temp\1239610                              PAGE  117

    6197              
    6198              $C$DW$T$39      .dwtag  DW_TAG_structure_type
    6199                      .dwattr $C$DW$T$39, DW_AT_name("_FLASH_Obj_")
    6200                      .dwattr $C$DW$T$39, DW_AT_byte_size(0x08)
    6201              $C$DW$569       .dwtag  DW_TAG_member
    6202                      .dwattr $C$DW$569, DW_AT_type(*$C$DW$T$22)
    6203                      .dwattr $C$DW$569, DW_AT_name("FOPT")
    6204                      .dwattr $C$DW$569, DW_AT_TI_symbol_name("_FOPT")
    6205                      .dwattr $C$DW$569, DW_AT_data_member_location[DW_OP_plus_uconst 0x0]
    6206                      .dwattr $C$DW$569, DW_AT_accessibility(DW_ACCESS_public)
    6207              
    6208              $C$DW$570       .dwtag  DW_TAG_member
    6209                      .dwattr $C$DW$570, DW_AT_type(*$C$DW$T$22)
    6210                      .dwattr $C$DW$570, DW_AT_name("rsvd_1")
    6211                      .dwattr $C$DW$570, DW_AT_TI_symbol_name("_rsvd_1")
    6212                      .dwattr $C$DW$570, DW_AT_data_member_location[DW_OP_plus_uconst 0x1]
    6213                      .dwattr $C$DW$570, DW_AT_accessibility(DW_ACCESS_public)
    6214              
    6215              $C$DW$571       .dwtag  DW_TAG_member
    6216                      .dwattr $C$DW$571, DW_AT_type(*$C$DW$T$22)
    6217                      .dwattr $C$DW$571, DW_AT_name("FPWR")
    6218                      .dwattr $C$DW$571, DW_AT_TI_symbol_name("_FPWR")
    6219                      .dwattr $C$DW$571, DW_AT_data_member_location[DW_OP_plus_uconst 0x2]
    6220                      .dwattr $C$DW$571, DW_AT_accessibility(DW_ACCESS_public)
    6221              
    6222              $C$DW$572       .dwtag  DW_TAG_member
    6223                      .dwattr $C$DW$572, DW_AT_type(*$C$DW$T$22)
    6224                      .dwattr $C$DW$572, DW_AT_name("FSTATUS")
    6225                      .dwattr $C$DW$572, DW_AT_TI_symbol_name("_FSTATUS")
    6226                      .dwattr $C$DW$572, DW_AT_data_member_location[DW_OP_plus_uconst 0x3]
    6227                      .dwattr $C$DW$572, DW_AT_accessibility(DW_ACCESS_public)
    6228              
    6229              $C$DW$573       .dwtag  DW_TAG_member
    6230                      .dwattr $C$DW$573, DW_AT_type(*$C$DW$T$22)
    6231                      .dwattr $C$DW$573, DW_AT_name("FSTDBYWAIT")
    6232                      .dwattr $C$DW$573, DW_AT_TI_symbol_name("_FSTDBYWAIT")
    6233                      .dwattr $C$DW$573, DW_AT_data_member_location[DW_OP_plus_uconst 0x4]
    6234                      .dwattr $C$DW$573, DW_AT_accessibility(DW_ACCESS_public)
    6235              
    6236              $C$DW$574       .dwtag  DW_TAG_member
    6237                      .dwattr $C$DW$574, DW_AT_type(*$C$DW$T$22)
    6238                      .dwattr $C$DW$574, DW_AT_name("FACTIVEWAIT")
    6239                      .dwattr $C$DW$574, DW_AT_TI_symbol_name("_FACTIVEWAIT")
    6240                      .dwattr $C$DW$574, DW_AT_data_member_location[DW_OP_plus_uconst 0x5]
    6241                      .dwattr $C$DW$574, DW_AT_accessibility(DW_ACCESS_public)
    6242              
    6243              $C$DW$575       .dwtag  DW_TAG_member
    6244                      .dwattr $C$DW$575, DW_AT_type(*$C$DW$T$22)
    6245                      .dwattr $C$DW$575, DW_AT_name("FBANKWAIT")
    6246                      .dwattr $C$DW$575, DW_AT_TI_symbol_name("_FBANKWAIT")
    6247                      .dwattr $C$DW$575, DW_AT_data_member_location[DW_OP_plus_uconst 0x6]
    6248                      .dwattr $C$DW$575, DW_AT_accessibility(DW_ACCESS_public)
    6249              
    6250              $C$DW$576       .dwtag  DW_TAG_member
    6251                      .dwattr $C$DW$576, DW_AT_type(*$C$DW$T$22)
TMS320C2000 Assembler PC v15.12.3 Wed Nov 22 01:55:15 2017

Tools Copyright (c) 1996-2015 Texas Instruments Incorporated
C:\Users\wmj\AppData\Local\Temp\1239610                              PAGE  118

    6252                      .dwattr $C$DW$576, DW_AT_name("FOTPWAIT")
    6253                      .dwattr $C$DW$576, DW_AT_TI_symbol_name("_FOTPWAIT")
    6254                      .dwattr $C$DW$576, DW_AT_data_member_location[DW_OP_plus_uconst 0x7]
    6255                      .dwattr $C$DW$576, DW_AT_accessibility(DW_ACCESS_public)
    6256              
    6257                      .dwendtag $C$DW$T$39
    6258              
    6259              $C$DW$T$85      .dwtag  DW_TAG_pointer_type
    6260                      .dwattr $C$DW$T$85, DW_AT_type(*$C$DW$T$39)
    6261                      .dwattr $C$DW$T$85, DW_AT_address_class(0x20)
    6262              
    6263              $C$DW$T$86      .dwtag  DW_TAG_typedef
    6264                      .dwattr $C$DW$T$86, DW_AT_name("FLASH_Handle")
    6265                      .dwattr $C$DW$T$86, DW_AT_type(*$C$DW$T$85)
    6266                      .dwattr $C$DW$T$86, DW_AT_language(DW_LANG_C)
    6267              
    6268              
    6269              $C$DW$T$60      .dwtag  DW_TAG_structure_type
    6270                      .dwattr $C$DW$T$60, DW_AT_name("_FSM_Obj_")
    6271                      .dwattr $C$DW$T$60, DW_AT_byte_size(0x26)
    6272              $C$DW$577       .dwtag  DW_TAG_member
    6273                      .dwattr $C$DW$577, DW_AT_type(*$C$DW$T$41)
    6274                      .dwattr $C$DW$577, DW_AT_name("motorHandle")
    6275                      .dwattr $C$DW$577, DW_AT_TI_symbol_name("_motorHandle")
    6276                      .dwattr $C$DW$577, DW_AT_data_member_location[DW_OP_plus_uconst 0x0]
    6277                      .dwattr $C$DW$577, DW_AT_accessibility(DW_ACCESS_public)
    6278              
    6279              $C$DW$578       .dwtag  DW_TAG_member
    6280                      .dwattr $C$DW$578, DW_AT_type(*$C$DW$T$43)
    6281                      .dwattr $C$DW$578, DW_AT_name("halHandle")
    6282                      .dwattr $C$DW$578, DW_AT_TI_symbol_name("_halHandle")
    6283                      .dwattr $C$DW$578, DW_AT_data_member_location[DW_OP_plus_uconst 0x2]
    6284                      .dwattr $C$DW$578, DW_AT_accessibility(DW_ACCESS_public)
    6285              
    6286              $C$DW$579       .dwtag  DW_TAG_member
    6287                      .dwattr $C$DW$579, DW_AT_type(*$C$DW$T$45)
    6288                      .dwattr $C$DW$579, DW_AT_name("StBoxHandle")
    6289                      .dwattr $C$DW$579, DW_AT_TI_symbol_name("_StBoxHandle")
    6290                      .dwattr $C$DW$579, DW_AT_data_member_location[DW_OP_plus_uconst 0x4]
    6291                      .dwattr $C$DW$579, DW_AT_accessibility(DW_ACCESS_public)
    6292              
    6293              $C$DW$580       .dwtag  DW_TAG_member
    6294                      .dwattr $C$DW$580, DW_AT_type(*$C$DW$T$47)
    6295                      .dwattr $C$DW$580, DW_AT_name("FSM_State")
    6296                      .dwattr $C$DW$580, DW_AT_TI_symbol_name("_FSM_State")
    6297                      .dwattr $C$DW$580, DW_AT_data_member_location[DW_OP_plus_uconst 0x6]
    6298                      .dwattr $C$DW$580, DW_AT_accessibility(DW_ACCESS_public)
    6299              
    6300              $C$DW$581       .dwtag  DW_TAG_member
    6301                      .dwattr $C$DW$581, DW_AT_type(*$C$DW$T$47)
    6302                      .dwattr $C$DW$581, DW_AT_name("FSM_CurState")
    6303                      .dwattr $C$DW$581, DW_AT_TI_symbol_name("_FSM_CurState")
    6304                      .dwattr $C$DW$581, DW_AT_data_member_location[DW_OP_plus_uconst 0x7]
    6305                      .dwattr $C$DW$581, DW_AT_accessibility(DW_ACCESS_public)
    6306              
TMS320C2000 Assembler PC v15.12.3 Wed Nov 22 01:55:15 2017

Tools Copyright (c) 1996-2015 Texas Instruments Incorporated
C:\Users\wmj\AppData\Local\Temp\1239610                              PAGE  119

    6307              $C$DW$582       .dwtag  DW_TAG_member
    6308                      .dwattr $C$DW$582, DW_AT_type(*$C$DW$T$49)
    6309                      .dwattr $C$DW$582, DW_AT_name("FSM_Trans")
    6310                      .dwattr $C$DW$582, DW_AT_TI_symbol_name("_FSM_Trans")
    6311                      .dwattr $C$DW$582, DW_AT_data_member_location[DW_OP_plus_uconst 0x8]
    6312                      .dwattr $C$DW$582, DW_AT_accessibility(DW_ACCESS_public)
    6313              
    6314              $C$DW$583       .dwtag  DW_TAG_member
    6315                      .dwattr $C$DW$583, DW_AT_type(*$C$DW$T$51)
    6316                      .dwattr $C$DW$583, DW_AT_name("FSM_Event")
    6317                      .dwattr $C$DW$583, DW_AT_TI_symbol_name("_FSM_Event")
    6318                      .dwattr $C$DW$583, DW_AT_data_member_location[DW_OP_plus_uconst 0x9]
    6319                      .dwattr $C$DW$583, DW_AT_accessibility(DW_ACCESS_public)
    6320              
    6321              $C$DW$584       .dwtag  DW_TAG_member
    6322                      .dwattr $C$DW$584, DW_AT_type(*$C$DW$T$53)
    6323                      .dwattr $C$DW$584, DW_AT_name("FSM_StMode")
    6324                      .dwattr $C$DW$584, DW_AT_TI_symbol_name("_FSM_StMode")
    6325                      .dwattr $C$DW$584, DW_AT_data_member_location[DW_OP_plus_uconst 0xa]
    6326                      .dwattr $C$DW$584, DW_AT_accessibility(DW_ACCESS_public)
    6327              
    6328              $C$DW$585       .dwtag  DW_TAG_member
    6329                      .dwattr $C$DW$585, DW_AT_type(*$C$DW$T$21)
    6330                      .dwattr $C$DW$585, DW_AT_name("FSM_ErrFlg")
    6331                      .dwattr $C$DW$585, DW_AT_TI_symbol_name("_FSM_ErrFlg")
    6332                      .dwattr $C$DW$585, DW_AT_data_member_location[DW_OP_plus_uconst 0xb]
    6333                      .dwattr $C$DW$585, DW_AT_accessibility(DW_ACCESS_public)
    6334              
    6335              $C$DW$586       .dwtag  DW_TAG_member
    6336                      .dwattr $C$DW$586, DW_AT_type(*$C$DW$T$21)
    6337                      .dwattr $C$DW$586, DW_AT_name("FSM_ErrMask")
    6338                      .dwattr $C$DW$586, DW_AT_TI_symbol_name("_FSM_ErrMask")
    6339                      .dwattr $C$DW$586, DW_AT_data_member_location[DW_OP_plus_uconst 0xc]
    6340                      .dwattr $C$DW$586, DW_AT_accessibility(DW_ACCESS_public)
    6341              
    6342              $C$DW$587       .dwtag  DW_TAG_member
    6343                      .dwattr $C$DW$587, DW_AT_type(*$C$DW$T$21)
    6344                      .dwattr $C$DW$587, DW_AT_name("FSM_runTime")
    6345                      .dwattr $C$DW$587, DW_AT_TI_symbol_name("_FSM_runTime")
    6346                      .dwattr $C$DW$587, DW_AT_data_member_location[DW_OP_plus_uconst 0xd]
    6347                      .dwattr $C$DW$587, DW_AT_accessibility(DW_ACCESS_public)
    6348              
    6349              $C$DW$588       .dwtag  DW_TAG_member
    6350                      .dwattr $C$DW$588, DW_AT_type(*$C$DW$T$21)
    6351                      .dwattr $C$DW$588, DW_AT_name("FSM_485Cmd")
    6352                      .dwattr $C$DW$588, DW_AT_TI_symbol_name("_FSM_485Cmd")
    6353                      .dwattr $C$DW$588, DW_AT_data_member_location[DW_OP_plus_uconst 0xe]
    6354                      .dwattr $C$DW$588, DW_AT_accessibility(DW_ACCESS_public)
    6355              
    6356              $C$DW$589       .dwtag  DW_TAG_member
    6357                      .dwattr $C$DW$589, DW_AT_type(*$C$DW$T$47)
    6358                      .dwattr $C$DW$589, DW_AT_name("FSM_485EditState")
    6359                      .dwattr $C$DW$589, DW_AT_TI_symbol_name("_FSM_485EditState")
    6360                      .dwattr $C$DW$589, DW_AT_data_member_location[DW_OP_plus_uconst 0xf]
    6361                      .dwattr $C$DW$589, DW_AT_accessibility(DW_ACCESS_public)
TMS320C2000 Assembler PC v15.12.3 Wed Nov 22 01:55:15 2017

Tools Copyright (c) 1996-2015 Texas Instruments Incorporated
C:\Users\wmj\AppData\Local\Temp\1239610                              PAGE  120

    6362              
    6363              $C$DW$590       .dwtag  DW_TAG_member
    6364                      .dwattr $C$DW$590, DW_AT_type(*$C$DW$T$55)
    6365                      .dwattr $C$DW$590, DW_AT_name("FSM_485EditOpt")
    6366                      .dwattr $C$DW$590, DW_AT_TI_symbol_name("_FSM_485EditOpt")
    6367                      .dwattr $C$DW$590, DW_AT_data_member_location[DW_OP_plus_uconst 0x10]
    6368                      .dwattr $C$DW$590, DW_AT_accessibility(DW_ACCESS_public)
    6369              
    6370              $C$DW$591       .dwtag  DW_TAG_member
    6371                      .dwattr $C$DW$591, DW_AT_type(*$C$DW$T$21)
    6372                      .dwattr $C$DW$591, DW_AT_name("FSM_485RefSpeed")
    6373                      .dwattr $C$DW$591, DW_AT_TI_symbol_name("_FSM_485RefSpeed")
    6374                      .dwattr $C$DW$591, DW_AT_data_member_location[DW_OP_plus_uconst 0x11]
    6375                      .dwattr $C$DW$591, DW_AT_accessibility(DW_ACCESS_public)
    6376              
    6377              $C$DW$592       .dwtag  DW_TAG_member
    6378                      .dwattr $C$DW$592, DW_AT_type(*$C$DW$T$37)
    6379                      .dwattr $C$DW$592, DW_AT_name("MaxTorque_Nm")
    6380                      .dwattr $C$DW$592, DW_AT_TI_symbol_name("_MaxTorque_Nm")
    6381                      .dwattr $C$DW$592, DW_AT_data_member_location[DW_OP_plus_uconst 0x12]
    6382                      .dwattr $C$DW$592, DW_AT_accessibility(DW_ACCESS_public)
    6383              
    6384              $C$DW$593       .dwtag  DW_TAG_member
    6385                      .dwattr $C$DW$593, DW_AT_type(*$C$DW$T$57)
    6386                      .dwattr $C$DW$593, DW_AT_name("FSM_CheckCond")
    6387                      .dwattr $C$DW$593, DW_AT_TI_symbol_name("_FSM_CheckCond")
    6388                      .dwattr $C$DW$593, DW_AT_data_member_location[DW_OP_plus_uconst 0x14]
    6389                      .dwattr $C$DW$593, DW_AT_accessibility(DW_ACCESS_public)
    6390              
    6391              $C$DW$594       .dwtag  DW_TAG_member
    6392                      .dwattr $C$DW$594, DW_AT_type(*$C$DW$T$21)
    6393                      .dwattr $C$DW$594, DW_AT_name("FSM_CondValue")
    6394                      .dwattr $C$DW$594, DW_AT_TI_symbol_name("_FSM_CondValue")
    6395                      .dwattr $C$DW$594, DW_AT_data_member_location[DW_OP_plus_uconst 0x15]
    6396                      .dwattr $C$DW$594, DW_AT_accessibility(DW_ACCESS_public)
    6397              
    6398              $C$DW$595       .dwtag  DW_TAG_member
    6399                      .dwattr $C$DW$595, DW_AT_type(*$C$DW$T$58)
    6400                      .dwattr $C$DW$595, DW_AT_name("OldAbsPos")
    6401                      .dwattr $C$DW$595, DW_AT_TI_symbol_name("_OldAbsPos")
    6402                      .dwattr $C$DW$595, DW_AT_data_member_location[DW_OP_plus_uconst 0x16]
    6403                      .dwattr $C$DW$595, DW_AT_accessibility(DW_ACCESS_public)
    6404              
    6405              $C$DW$596       .dwtag  DW_TAG_member
    6406                      .dwattr $C$DW$596, DW_AT_type(*$C$DW$T$58)
    6407                      .dwattr $C$DW$596, DW_AT_name("NewAbsPos")
    6408                      .dwattr $C$DW$596, DW_AT_TI_symbol_name("_NewAbsPos")
    6409                      .dwattr $C$DW$596, DW_AT_data_member_location[DW_OP_plus_uconst 0x1a]
    6410                      .dwattr $C$DW$596, DW_AT_accessibility(DW_ACCESS_public)
    6411              
    6412              $C$DW$597       .dwtag  DW_TAG_member
    6413                      .dwattr $C$DW$597, DW_AT_type(*$C$DW$T$59)
    6414                      .dwattr $C$DW$597, DW_AT_name("Flag_485StartMotor")
    6415                      .dwattr $C$DW$597, DW_AT_TI_symbol_name("_Flag_485StartMotor")
    6416                      .dwattr $C$DW$597, DW_AT_data_member_location[DW_OP_plus_uconst 0x1e]
TMS320C2000 Assembler PC v15.12.3 Wed Nov 22 01:55:15 2017

Tools Copyright (c) 1996-2015 Texas Instruments Incorporated
C:\Users\wmj\AppData\Local\Temp\1239610                              PAGE  121

    6417                      .dwattr $C$DW$597, DW_AT_accessibility(DW_ACCESS_public)
    6418              
    6419              $C$DW$598       .dwtag  DW_TAG_member
    6420                      .dwattr $C$DW$598, DW_AT_type(*$C$DW$T$59)
    6421                      .dwattr $C$DW$598, DW_AT_name("Flag_MaxTimeLimit")
    6422                      .dwattr $C$DW$598, DW_AT_TI_symbol_name("_Flag_MaxTimeLimit")
    6423                      .dwattr $C$DW$598, DW_AT_data_member_location[DW_OP_plus_uconst 0x1f]
    6424                      .dwattr $C$DW$598, DW_AT_accessibility(DW_ACCESS_public)
    6425              
    6426              $C$DW$599       .dwtag  DW_TAG_member
    6427                      .dwattr $C$DW$599, DW_AT_type(*$C$DW$T$59)
    6428                      .dwattr $C$DW$599, DW_AT_name("runTime_Enable")
    6429                      .dwattr $C$DW$599, DW_AT_TI_symbol_name("_runTime_Enable")
    6430                      .dwattr $C$DW$599, DW_AT_data_member_location[DW_OP_plus_uconst 0x20]
    6431                      .dwattr $C$DW$599, DW_AT_accessibility(DW_ACCESS_public)
    6432              
    6433              $C$DW$600       .dwtag  DW_TAG_member
    6434                      .dwattr $C$DW$600, DW_AT_type(*$C$DW$T$59)
    6435                      .dwattr $C$DW$600, DW_AT_name("Flag_StallEnable")
    6436                      .dwattr $C$DW$600, DW_AT_TI_symbol_name("_Flag_StallEnable")
    6437                      .dwattr $C$DW$600, DW_AT_data_member_location[DW_OP_plus_uconst 0x21]
    6438                      .dwattr $C$DW$600, DW_AT_accessibility(DW_ACCESS_public)
    6439              
    6440              $C$DW$601       .dwtag  DW_TAG_member
    6441                      .dwattr $C$DW$601, DW_AT_type(*$C$DW$T$59)
    6442                      .dwattr $C$DW$601, DW_AT_name("Flag_ReportState")
    6443                      .dwattr $C$DW$601, DW_AT_TI_symbol_name("_Flag_ReportState")
    6444                      .dwattr $C$DW$601, DW_AT_data_member_location[DW_OP_plus_uconst 0x22]
    6445                      .dwattr $C$DW$601, DW_AT_accessibility(DW_ACCESS_public)
    6446              
    6447              $C$DW$602       .dwtag  DW_TAG_member
    6448                      .dwattr $C$DW$602, DW_AT_type(*$C$DW$T$59)
    6449                      .dwattr $C$DW$602, DW_AT_name("Flag_RunMode")
    6450                      .dwattr $C$DW$602, DW_AT_TI_symbol_name("_Flag_RunMode")
    6451                      .dwattr $C$DW$602, DW_AT_data_member_location[DW_OP_plus_uconst 0x23]
    6452                      .dwattr $C$DW$602, DW_AT_accessibility(DW_ACCESS_public)
    6453              
    6454              $C$DW$603       .dwtag  DW_TAG_member
    6455                      .dwattr $C$DW$603, DW_AT_type(*$C$DW$T$59)
    6456                      .dwattr $C$DW$603, DW_AT_name("Flag_DcBrake")
    6457                      .dwattr $C$DW$603, DW_AT_TI_symbol_name("_Flag_DcBrake")
    6458                      .dwattr $C$DW$603, DW_AT_data_member_location[DW_OP_plus_uconst 0x24]
    6459                      .dwattr $C$DW$603, DW_AT_accessibility(DW_ACCESS_public)
    6460              
    6461                      .dwendtag $C$DW$T$60
    6462              
    6463              $C$DW$T$193     .dwtag  DW_TAG_typedef
    6464                      .dwattr $C$DW$T$193, DW_AT_name("FSM_Obj")
    6465                      .dwattr $C$DW$T$193, DW_AT_type(*$C$DW$T$60)
    6466                      .dwattr $C$DW$T$193, DW_AT_language(DW_LANG_C)
    6467              
    6468              $C$DW$T$194     .dwtag  DW_TAG_pointer_type
    6469                      .dwattr $C$DW$T$194, DW_AT_type(*$C$DW$T$193)
    6470                      .dwattr $C$DW$T$194, DW_AT_address_class(0x20)
    6471              
TMS320C2000 Assembler PC v15.12.3 Wed Nov 22 01:55:15 2017

Tools Copyright (c) 1996-2015 Texas Instruments Incorporated
C:\Users\wmj\AppData\Local\Temp\1239610                              PAGE  122

    6472              $C$DW$T$120     .dwtag  DW_TAG_pointer_type
    6473                      .dwattr $C$DW$T$120, DW_AT_type(*$C$DW$T$60)
    6474                      .dwattr $C$DW$T$120, DW_AT_address_class(0x20)
    6475              
    6476              $C$DW$T$121     .dwtag  DW_TAG_typedef
    6477                      .dwattr $C$DW$T$121, DW_AT_name("FSM_Handle")
    6478                      .dwattr $C$DW$T$121, DW_AT_type(*$C$DW$T$120)
    6479                      .dwattr $C$DW$T$121, DW_AT_language(DW_LANG_C)
    6480              
    6481              $C$DW$604       .dwtag  DW_TAG_TI_far_type
    6482                      .dwattr $C$DW$604, DW_AT_type(*$C$DW$T$121)
    6483              
    6484              $C$DW$T$195     .dwtag  DW_TAG_const_type
    6485                      .dwattr $C$DW$T$195, DW_AT_type(*$C$DW$604)
    6486              
    6487              
    6488              $C$DW$T$62      .dwtag  DW_TAG_structure_type
    6489                      .dwattr $C$DW$T$62, DW_AT_name("_FSM_Position_t_")
    6490                      .dwattr $C$DW$T$62, DW_AT_byte_size(0x04)
    6491              $C$DW$605       .dwtag  DW_TAG_member
    6492                      .dwattr $C$DW$605, DW_AT_type(*$C$DW$T$61)
    6493                      .dwattr $C$DW$605, DW_AT_name("PosInt_MRev")
    6494                      .dwattr $C$DW$605, DW_AT_TI_symbol_name("_PosInt_MRev")
    6495                      .dwattr $C$DW$605, DW_AT_data_member_location[DW_OP_plus_uconst 0x0]
    6496                      .dwattr $C$DW$605, DW_AT_accessibility(DW_ACCESS_public)
    6497              
    6498              $C$DW$606       .dwtag  DW_TAG_member
    6499                      .dwattr $C$DW$606, DW_AT_type(*$C$DW$T$37)
    6500                      .dwattr $C$DW$606, DW_AT_name("PosFrac_MRev")
    6501                      .dwattr $C$DW$606, DW_AT_TI_symbol_name("_PosFrac_MRev")
    6502                      .dwattr $C$DW$606, DW_AT_data_member_location[DW_OP_plus_uconst 0x2]
    6503                      .dwattr $C$DW$606, DW_AT_accessibility(DW_ACCESS_public)
    6504              
    6505                      .dwendtag $C$DW$T$62
    6506              
    6507              $C$DW$T$58      .dwtag  DW_TAG_typedef
    6508                      .dwattr $C$DW$T$58, DW_AT_name("FSM_Position_t")
    6509                      .dwattr $C$DW$T$58, DW_AT_type(*$C$DW$T$62)
    6510                      .dwattr $C$DW$T$58, DW_AT_language(DW_LANG_C)
    6511              
    6512              
    6513              $C$DW$T$71      .dwtag  DW_TAG_structure_type
    6514                      .dwattr $C$DW$T$71, DW_AT_name("_FSM_StatePool_t_")
    6515                      .dwattr $C$DW$T$71, DW_AT_byte_size(0x4b)
    6516              $C$DW$607       .dwtag  DW_TAG_member
    6517                      .dwattr $C$DW$607, DW_AT_type(*$C$DW$T$64)
    6518                      .dwattr $C$DW$607, DW_AT_name("FSM_RefSpeed")
    6519                      .dwattr $C$DW$607, DW_AT_TI_symbol_name("_FSM_RefSpeed")
    6520                      .dwattr $C$DW$607, DW_AT_data_member_location[DW_OP_plus_uconst 0x0]
    6521                      .dwattr $C$DW$607, DW_AT_accessibility(DW_ACCESS_public)
    6522              
    6523              $C$DW$608       .dwtag  DW_TAG_member
    6524                      .dwattr $C$DW$608, DW_AT_type(*$C$DW$T$65)
    6525                      .dwattr $C$DW$608, DW_AT_name("FSM_CondValue")
    6526                      .dwattr $C$DW$608, DW_AT_TI_symbol_name("_FSM_CondValue")
TMS320C2000 Assembler PC v15.12.3 Wed Nov 22 01:55:15 2017

Tools Copyright (c) 1996-2015 Texas Instruments Incorporated
C:\Users\wmj\AppData\Local\Temp\1239610                              PAGE  123

    6527                      .dwattr $C$DW$608, DW_AT_data_member_location[DW_OP_plus_uconst 0xf]
    6528                      .dwattr $C$DW$608, DW_AT_accessibility(DW_ACCESS_public)
    6529              
    6530              $C$DW$609       .dwtag  DW_TAG_member
    6531                      .dwattr $C$DW$609, DW_AT_type(*$C$DW$T$66)
    6532                      .dwattr $C$DW$609, DW_AT_name("FSM_Condition")
    6533                      .dwattr $C$DW$609, DW_AT_TI_symbol_name("_FSM_Condition")
    6534                      .dwattr $C$DW$609, DW_AT_data_member_location[DW_OP_plus_uconst 0x1e]
    6535                      .dwattr $C$DW$609, DW_AT_accessibility(DW_ACCESS_public)
    6536              
    6537              $C$DW$610       .dwtag  DW_TAG_member
    6538                      .dwattr $C$DW$610, DW_AT_type(*$C$DW$T$69)
    6539                      .dwattr $C$DW$610, DW_AT_name("FSM_RunAction")
    6540                      .dwattr $C$DW$610, DW_AT_TI_symbol_name("_FSM_RunAction")
    6541                      .dwattr $C$DW$610, DW_AT_data_member_location[DW_OP_plus_uconst 0x2d]
    6542                      .dwattr $C$DW$610, DW_AT_accessibility(DW_ACCESS_public)
    6543              
    6544              $C$DW$611       .dwtag  DW_TAG_member
    6545                      .dwattr $C$DW$611, DW_AT_type(*$C$DW$T$70)
    6546                      .dwattr $C$DW$611, DW_AT_name("FSM_NextState")
    6547                      .dwattr $C$DW$611, DW_AT_TI_symbol_name("_FSM_NextState")
    6548                      .dwattr $C$DW$611, DW_AT_data_member_location[DW_OP_plus_uconst 0x3c]
    6549                      .dwattr $C$DW$611, DW_AT_accessibility(DW_ACCESS_public)
    6550              
    6551                      .dwendtag $C$DW$T$71
    6552              
    6553              $C$DW$T$44      .dwtag  DW_TAG_pointer_type
    6554                      .dwattr $C$DW$T$44, DW_AT_type(*$C$DW$T$71)
    6555                      .dwattr $C$DW$T$44, DW_AT_address_class(0x20)
    6556              
    6557              $C$DW$T$45      .dwtag  DW_TAG_typedef
    6558                      .dwattr $C$DW$T$45, DW_AT_name("StPool_Handle")
    6559                      .dwattr $C$DW$T$45, DW_AT_type(*$C$DW$T$44)
    6560                      .dwattr $C$DW$T$45, DW_AT_language(DW_LANG_C)
    6561              
    6562              
    6563              $C$DW$T$76      .dwtag  DW_TAG_structure_type
    6564                      .dwattr $C$DW$T$76, DW_AT_name("_GPIO_Obj_")
    6565                      .dwattr $C$DW$T$76, DW_AT_byte_size(0x6a)
    6566              $C$DW$612       .dwtag  DW_TAG_member
    6567                      .dwattr $C$DW$612, DW_AT_type(*$C$DW$T$73)
    6568                      .dwattr $C$DW$612, DW_AT_name("GPACTRL")
    6569                      .dwattr $C$DW$612, DW_AT_TI_symbol_name("_GPACTRL")
    6570                      .dwattr $C$DW$612, DW_AT_data_member_location[DW_OP_plus_uconst 0x0]
    6571                      .dwattr $C$DW$612, DW_AT_accessibility(DW_ACCESS_public)
    6572              
    6573              $C$DW$613       .dwtag  DW_TAG_member
    6574                      .dwattr $C$DW$613, DW_AT_type(*$C$DW$T$73)
    6575                      .dwattr $C$DW$613, DW_AT_name("GPAQSEL1")
    6576                      .dwattr $C$DW$613, DW_AT_TI_symbol_name("_GPAQSEL1")
    6577                      .dwattr $C$DW$613, DW_AT_data_member_location[DW_OP_plus_uconst 0x2]
    6578                      .dwattr $C$DW$613, DW_AT_accessibility(DW_ACCESS_public)
    6579              
    6580              $C$DW$614       .dwtag  DW_TAG_member
    6581                      .dwattr $C$DW$614, DW_AT_type(*$C$DW$T$73)
TMS320C2000 Assembler PC v15.12.3 Wed Nov 22 01:55:15 2017

Tools Copyright (c) 1996-2015 Texas Instruments Incorporated
C:\Users\wmj\AppData\Local\Temp\1239610                              PAGE  124

    6582                      .dwattr $C$DW$614, DW_AT_name("GPAQSEL2")
    6583                      .dwattr $C$DW$614, DW_AT_TI_symbol_name("_GPAQSEL2")
    6584                      .dwattr $C$DW$614, DW_AT_data_member_location[DW_OP_plus_uconst 0x4]
    6585                      .dwattr $C$DW$614, DW_AT_accessibility(DW_ACCESS_public)
    6586              
    6587              $C$DW$615       .dwtag  DW_TAG_member
    6588                      .dwattr $C$DW$615, DW_AT_type(*$C$DW$T$73)
    6589                      .dwattr $C$DW$615, DW_AT_name("GPAMUX1")
    6590                      .dwattr $C$DW$615, DW_AT_TI_symbol_name("_GPAMUX1")
    6591                      .dwattr $C$DW$615, DW_AT_data_member_location[DW_OP_plus_uconst 0x6]
    6592                      .dwattr $C$DW$615, DW_AT_accessibility(DW_ACCESS_public)
    6593              
    6594              $C$DW$616       .dwtag  DW_TAG_member
    6595                      .dwattr $C$DW$616, DW_AT_type(*$C$DW$T$73)
    6596                      .dwattr $C$DW$616, DW_AT_name("GPAMUX2")
    6597                      .dwattr $C$DW$616, DW_AT_TI_symbol_name("_GPAMUX2")
    6598                      .dwattr $C$DW$616, DW_AT_data_member_location[DW_OP_plus_uconst 0x8]
    6599                      .dwattr $C$DW$616, DW_AT_accessibility(DW_ACCESS_public)
    6600              
    6601              $C$DW$617       .dwtag  DW_TAG_member
    6602                      .dwattr $C$DW$617, DW_AT_type(*$C$DW$T$73)
    6603                      .dwattr $C$DW$617, DW_AT_name("GPADIR")
    6604                      .dwattr $C$DW$617, DW_AT_TI_symbol_name("_GPADIR")
    6605                      .dwattr $C$DW$617, DW_AT_data_member_location[DW_OP_plus_uconst 0xa]
    6606                      .dwattr $C$DW$617, DW_AT_accessibility(DW_ACCESS_public)
    6607              
    6608              $C$DW$618       .dwtag  DW_TAG_member
    6609                      .dwattr $C$DW$618, DW_AT_type(*$C$DW$T$73)
    6610                      .dwattr $C$DW$618, DW_AT_name("GPAPUD")
    6611                      .dwattr $C$DW$618, DW_AT_TI_symbol_name("_GPAPUD")
    6612                      .dwattr $C$DW$618, DW_AT_data_member_location[DW_OP_plus_uconst 0xc]
    6613                      .dwattr $C$DW$618, DW_AT_accessibility(DW_ACCESS_public)
    6614              
    6615              $C$DW$619       .dwtag  DW_TAG_member
    6616                      .dwattr $C$DW$619, DW_AT_type(*$C$DW$T$25)
    6617                      .dwattr $C$DW$619, DW_AT_name("rsvd_1")
    6618                      .dwattr $C$DW$619, DW_AT_TI_symbol_name("_rsvd_1")
    6619                      .dwattr $C$DW$619, DW_AT_data_member_location[DW_OP_plus_uconst 0xe]
    6620                      .dwattr $C$DW$619, DW_AT_accessibility(DW_ACCESS_public)
    6621              
    6622              $C$DW$620       .dwtag  DW_TAG_member
    6623                      .dwattr $C$DW$620, DW_AT_type(*$C$DW$T$73)
    6624                      .dwattr $C$DW$620, DW_AT_name("GPBCTRL")
    6625                      .dwattr $C$DW$620, DW_AT_TI_symbol_name("_GPBCTRL")
    6626                      .dwattr $C$DW$620, DW_AT_data_member_location[DW_OP_plus_uconst 0x10]
    6627                      .dwattr $C$DW$620, DW_AT_accessibility(DW_ACCESS_public)
    6628              
    6629              $C$DW$621       .dwtag  DW_TAG_member
    6630                      .dwattr $C$DW$621, DW_AT_type(*$C$DW$T$73)
    6631                      .dwattr $C$DW$621, DW_AT_name("GPBQSEL1")
    6632                      .dwattr $C$DW$621, DW_AT_TI_symbol_name("_GPBQSEL1")
    6633                      .dwattr $C$DW$621, DW_AT_data_member_location[DW_OP_plus_uconst 0x12]
    6634                      .dwattr $C$DW$621, DW_AT_accessibility(DW_ACCESS_public)
    6635              
    6636              $C$DW$622       .dwtag  DW_TAG_member
TMS320C2000 Assembler PC v15.12.3 Wed Nov 22 01:55:15 2017

Tools Copyright (c) 1996-2015 Texas Instruments Incorporated
C:\Users\wmj\AppData\Local\Temp\1239610                              PAGE  125

    6637                      .dwattr $C$DW$622, DW_AT_type(*$C$DW$T$25)
    6638                      .dwattr $C$DW$622, DW_AT_name("rsvd_2")
    6639                      .dwattr $C$DW$622, DW_AT_TI_symbol_name("_rsvd_2")
    6640                      .dwattr $C$DW$622, DW_AT_data_member_location[DW_OP_plus_uconst 0x14]
    6641                      .dwattr $C$DW$622, DW_AT_accessibility(DW_ACCESS_public)
    6642              
    6643              $C$DW$623       .dwtag  DW_TAG_member
    6644                      .dwattr $C$DW$623, DW_AT_type(*$C$DW$T$73)
    6645                      .dwattr $C$DW$623, DW_AT_name("GPBMUX1")
    6646                      .dwattr $C$DW$623, DW_AT_TI_symbol_name("_GPBMUX1")
    6647                      .dwattr $C$DW$623, DW_AT_data_member_location[DW_OP_plus_uconst 0x16]
    6648                      .dwattr $C$DW$623, DW_AT_accessibility(DW_ACCESS_public)
    6649              
    6650              $C$DW$624       .dwtag  DW_TAG_member
    6651                      .dwattr $C$DW$624, DW_AT_type(*$C$DW$T$25)
    6652                      .dwattr $C$DW$624, DW_AT_name("rsvd_3")
    6653                      .dwattr $C$DW$624, DW_AT_TI_symbol_name("_rsvd_3")
    6654                      .dwattr $C$DW$624, DW_AT_data_member_location[DW_OP_plus_uconst 0x18]
    6655                      .dwattr $C$DW$624, DW_AT_accessibility(DW_ACCESS_public)
    6656              
    6657              $C$DW$625       .dwtag  DW_TAG_member
    6658                      .dwattr $C$DW$625, DW_AT_type(*$C$DW$T$73)
    6659                      .dwattr $C$DW$625, DW_AT_name("GPBDIR")
    6660                      .dwattr $C$DW$625, DW_AT_TI_symbol_name("_GPBDIR")
    6661                      .dwattr $C$DW$625, DW_AT_data_member_location[DW_OP_plus_uconst 0x1a]
    6662                      .dwattr $C$DW$625, DW_AT_accessibility(DW_ACCESS_public)
    6663              
    6664              $C$DW$626       .dwtag  DW_TAG_member
    6665                      .dwattr $C$DW$626, DW_AT_type(*$C$DW$T$73)
    6666                      .dwattr $C$DW$626, DW_AT_name("GPBPUD")
    6667                      .dwattr $C$DW$626, DW_AT_TI_symbol_name("_GPBPUD")
    6668                      .dwattr $C$DW$626, DW_AT_data_member_location[DW_OP_plus_uconst 0x1c]
    6669                      .dwattr $C$DW$626, DW_AT_accessibility(DW_ACCESS_public)
    6670              
    6671              $C$DW$627       .dwtag  DW_TAG_member
    6672                      .dwattr $C$DW$627, DW_AT_type(*$C$DW$T$74)
    6673                      .dwattr $C$DW$627, DW_AT_name("rsvd_4")
    6674                      .dwattr $C$DW$627, DW_AT_TI_symbol_name("_rsvd_4")
    6675                      .dwattr $C$DW$627, DW_AT_data_member_location[DW_OP_plus_uconst 0x1e]
    6676                      .dwattr $C$DW$627, DW_AT_accessibility(DW_ACCESS_public)
    6677              
    6678              $C$DW$628       .dwtag  DW_TAG_member
    6679                      .dwattr $C$DW$628, DW_AT_type(*$C$DW$T$73)
    6680                      .dwattr $C$DW$628, DW_AT_name("AIOMUX1")
    6681                      .dwattr $C$DW$628, DW_AT_TI_symbol_name("_AIOMUX1")
    6682                      .dwattr $C$DW$628, DW_AT_data_member_location[DW_OP_plus_uconst 0x36]
    6683                      .dwattr $C$DW$628, DW_AT_accessibility(DW_ACCESS_public)
    6684              
    6685              $C$DW$629       .dwtag  DW_TAG_member
    6686                      .dwattr $C$DW$629, DW_AT_type(*$C$DW$T$25)
    6687                      .dwattr $C$DW$629, DW_AT_name("rsvd_5")
    6688                      .dwattr $C$DW$629, DW_AT_TI_symbol_name("_rsvd_5")
    6689                      .dwattr $C$DW$629, DW_AT_data_member_location[DW_OP_plus_uconst 0x38]
    6690                      .dwattr $C$DW$629, DW_AT_accessibility(DW_ACCESS_public)
    6691              
TMS320C2000 Assembler PC v15.12.3 Wed Nov 22 01:55:15 2017

Tools Copyright (c) 1996-2015 Texas Instruments Incorporated
C:\Users\wmj\AppData\Local\Temp\1239610                              PAGE  126

    6692              $C$DW$630       .dwtag  DW_TAG_member
    6693                      .dwattr $C$DW$630, DW_AT_type(*$C$DW$T$73)
    6694                      .dwattr $C$DW$630, DW_AT_name("AIODIR")
    6695                      .dwattr $C$DW$630, DW_AT_TI_symbol_name("_AIODIR")
    6696                      .dwattr $C$DW$630, DW_AT_data_member_location[DW_OP_plus_uconst 0x3a]
    6697                      .dwattr $C$DW$630, DW_AT_accessibility(DW_ACCESS_public)
    6698              
    6699              $C$DW$631       .dwtag  DW_TAG_member
    6700                      .dwattr $C$DW$631, DW_AT_type(*$C$DW$T$75)
    6701                      .dwattr $C$DW$631, DW_AT_name("rsvd_6")
    6702                      .dwattr $C$DW$631, DW_AT_TI_symbol_name("_rsvd_6")
    6703                      .dwattr $C$DW$631, DW_AT_data_member_location[DW_OP_plus_uconst 0x3c]
    6704                      .dwattr $C$DW$631, DW_AT_accessibility(DW_ACCESS_public)
    6705              
    6706              $C$DW$632       .dwtag  DW_TAG_member
    6707                      .dwattr $C$DW$632, DW_AT_type(*$C$DW$T$73)
    6708                      .dwattr $C$DW$632, DW_AT_name("GPADAT")
    6709                      .dwattr $C$DW$632, DW_AT_TI_symbol_name("_GPADAT")
    6710                      .dwattr $C$DW$632, DW_AT_data_member_location[DW_OP_plus_uconst 0x40]
    6711                      .dwattr $C$DW$632, DW_AT_accessibility(DW_ACCESS_public)
    6712              
    6713              $C$DW$633       .dwtag  DW_TAG_member
    6714                      .dwattr $C$DW$633, DW_AT_type(*$C$DW$T$73)
    6715                      .dwattr $C$DW$633, DW_AT_name("GPASET")
    6716                      .dwattr $C$DW$633, DW_AT_TI_symbol_name("_GPASET")
    6717                      .dwattr $C$DW$633, DW_AT_data_member_location[DW_OP_plus_uconst 0x42]
    6718                      .dwattr $C$DW$633, DW_AT_accessibility(DW_ACCESS_public)
    6719              
    6720              $C$DW$634       .dwtag  DW_TAG_member
    6721                      .dwattr $C$DW$634, DW_AT_type(*$C$DW$T$73)
    6722                      .dwattr $C$DW$634, DW_AT_name("GPACLEAR")
    6723                      .dwattr $C$DW$634, DW_AT_TI_symbol_name("_GPACLEAR")
    6724                      .dwattr $C$DW$634, DW_AT_data_member_location[DW_OP_plus_uconst 0x44]
    6725                      .dwattr $C$DW$634, DW_AT_accessibility(DW_ACCESS_public)
    6726              
    6727              $C$DW$635       .dwtag  DW_TAG_member
    6728                      .dwattr $C$DW$635, DW_AT_type(*$C$DW$T$73)
    6729                      .dwattr $C$DW$635, DW_AT_name("GPATOGGLE")
    6730                      .dwattr $C$DW$635, DW_AT_TI_symbol_name("_GPATOGGLE")
    6731                      .dwattr $C$DW$635, DW_AT_data_member_location[DW_OP_plus_uconst 0x46]
    6732                      .dwattr $C$DW$635, DW_AT_accessibility(DW_ACCESS_public)
    6733              
    6734              $C$DW$636       .dwtag  DW_TAG_member
    6735                      .dwattr $C$DW$636, DW_AT_type(*$C$DW$T$73)
    6736                      .dwattr $C$DW$636, DW_AT_name("GPBDAT")
    6737                      .dwattr $C$DW$636, DW_AT_TI_symbol_name("_GPBDAT")
    6738                      .dwattr $C$DW$636, DW_AT_data_member_location[DW_OP_plus_uconst 0x48]
    6739                      .dwattr $C$DW$636, DW_AT_accessibility(DW_ACCESS_public)
    6740              
    6741              $C$DW$637       .dwtag  DW_TAG_member
    6742                      .dwattr $C$DW$637, DW_AT_type(*$C$DW$T$73)
    6743                      .dwattr $C$DW$637, DW_AT_name("GPBSET")
    6744                      .dwattr $C$DW$637, DW_AT_TI_symbol_name("_GPBSET")
    6745                      .dwattr $C$DW$637, DW_AT_data_member_location[DW_OP_plus_uconst 0x4a]
    6746                      .dwattr $C$DW$637, DW_AT_accessibility(DW_ACCESS_public)
TMS320C2000 Assembler PC v15.12.3 Wed Nov 22 01:55:15 2017

Tools Copyright (c) 1996-2015 Texas Instruments Incorporated
C:\Users\wmj\AppData\Local\Temp\1239610                              PAGE  127

    6747              
    6748              $C$DW$638       .dwtag  DW_TAG_member
    6749                      .dwattr $C$DW$638, DW_AT_type(*$C$DW$T$73)
    6750                      .dwattr $C$DW$638, DW_AT_name("GPBCLEAR")
    6751                      .dwattr $C$DW$638, DW_AT_TI_symbol_name("_GPBCLEAR")
    6752                      .dwattr $C$DW$638, DW_AT_data_member_location[DW_OP_plus_uconst 0x4c]
    6753                      .dwattr $C$DW$638, DW_AT_accessibility(DW_ACCESS_public)
    6754              
    6755              $C$DW$639       .dwtag  DW_TAG_member
    6756                      .dwattr $C$DW$639, DW_AT_type(*$C$DW$T$73)
    6757                      .dwattr $C$DW$639, DW_AT_name("GPBTOGGLE")
    6758                      .dwattr $C$DW$639, DW_AT_TI_symbol_name("_GPBTOGGLE")
    6759                      .dwattr $C$DW$639, DW_AT_data_member_location[DW_OP_plus_uconst 0x4e]
    6760                      .dwattr $C$DW$639, DW_AT_accessibility(DW_ACCESS_public)
    6761              
    6762              $C$DW$640       .dwtag  DW_TAG_member
    6763                      .dwattr $C$DW$640, DW_AT_type(*$C$DW$T$30)
    6764                      .dwattr $C$DW$640, DW_AT_name("rsvd_7")
    6765                      .dwattr $C$DW$640, DW_AT_TI_symbol_name("_rsvd_7")
    6766                      .dwattr $C$DW$640, DW_AT_data_member_location[DW_OP_plus_uconst 0x50]
    6767                      .dwattr $C$DW$640, DW_AT_accessibility(DW_ACCESS_public)
    6768              
    6769              $C$DW$641       .dwtag  DW_TAG_member
    6770                      .dwattr $C$DW$641, DW_AT_type(*$C$DW$T$73)
    6771                      .dwattr $C$DW$641, DW_AT_name("AIODAT")
    6772                      .dwattr $C$DW$641, DW_AT_TI_symbol_name("_AIODAT")
    6773                      .dwattr $C$DW$641, DW_AT_data_member_location[DW_OP_plus_uconst 0x58]
    6774                      .dwattr $C$DW$641, DW_AT_accessibility(DW_ACCESS_public)
    6775              
    6776              $C$DW$642       .dwtag  DW_TAG_member
    6777                      .dwattr $C$DW$642, DW_AT_type(*$C$DW$T$73)
    6778                      .dwattr $C$DW$642, DW_AT_name("AIOSET")
    6779                      .dwattr $C$DW$642, DW_AT_TI_symbol_name("_AIOSET")
    6780                      .dwattr $C$DW$642, DW_AT_data_member_location[DW_OP_plus_uconst 0x5a]
    6781                      .dwattr $C$DW$642, DW_AT_accessibility(DW_ACCESS_public)
    6782              
    6783              $C$DW$643       .dwtag  DW_TAG_member
    6784                      .dwattr $C$DW$643, DW_AT_type(*$C$DW$T$73)
    6785                      .dwattr $C$DW$643, DW_AT_name("AIOCLEAR")
    6786                      .dwattr $C$DW$643, DW_AT_TI_symbol_name("_AIOCLEAR")
    6787                      .dwattr $C$DW$643, DW_AT_data_member_location[DW_OP_plus_uconst 0x5c]
    6788                      .dwattr $C$DW$643, DW_AT_accessibility(DW_ACCESS_public)
    6789              
    6790              $C$DW$644       .dwtag  DW_TAG_member
    6791                      .dwattr $C$DW$644, DW_AT_type(*$C$DW$T$73)
    6792                      .dwattr $C$DW$644, DW_AT_name("AIOTOGGLE")
    6793                      .dwattr $C$DW$644, DW_AT_TI_symbol_name("_AIOTOGGLE")
    6794                      .dwattr $C$DW$644, DW_AT_data_member_location[DW_OP_plus_uconst 0x5e]
    6795                      .dwattr $C$DW$644, DW_AT_accessibility(DW_ACCESS_public)
    6796              
    6797              $C$DW$645       .dwtag  DW_TAG_member
    6798                      .dwattr $C$DW$645, DW_AT_type(*$C$DW$T$27)
    6799                      .dwattr $C$DW$645, DW_AT_name("GPIOXINTnSEL")
    6800                      .dwattr $C$DW$645, DW_AT_TI_symbol_name("_GPIOXINTnSEL")
    6801                      .dwattr $C$DW$645, DW_AT_data_member_location[DW_OP_plus_uconst 0x60]
TMS320C2000 Assembler PC v15.12.3 Wed Nov 22 01:55:15 2017

Tools Copyright (c) 1996-2015 Texas Instruments Incorporated
C:\Users\wmj\AppData\Local\Temp\1239610                              PAGE  128

    6802                      .dwattr $C$DW$645, DW_AT_accessibility(DW_ACCESS_public)
    6803              
    6804              $C$DW$646       .dwtag  DW_TAG_member
    6805                      .dwattr $C$DW$646, DW_AT_type(*$C$DW$T$26)
    6806                      .dwattr $C$DW$646, DW_AT_name("rsvd_8")
    6807                      .dwattr $C$DW$646, DW_AT_TI_symbol_name("_rsvd_8")
    6808                      .dwattr $C$DW$646, DW_AT_data_member_location[DW_OP_plus_uconst 0x63]
    6809                      .dwattr $C$DW$646, DW_AT_accessibility(DW_ACCESS_public)
    6810              
    6811              $C$DW$647       .dwtag  DW_TAG_member
    6812                      .dwattr $C$DW$647, DW_AT_type(*$C$DW$T$73)
    6813                      .dwattr $C$DW$647, DW_AT_name("GPIOLPMSEL")
    6814                      .dwattr $C$DW$647, DW_AT_TI_symbol_name("_GPIOLPMSEL")
    6815                      .dwattr $C$DW$647, DW_AT_data_member_location[DW_OP_plus_uconst 0x68]
    6816                      .dwattr $C$DW$647, DW_AT_accessibility(DW_ACCESS_public)
    6817              
    6818                      .dwendtag $C$DW$T$76
    6819              
    6820              $C$DW$T$87      .dwtag  DW_TAG_pointer_type
    6821                      .dwattr $C$DW$T$87, DW_AT_type(*$C$DW$T$76)
    6822                      .dwattr $C$DW$T$87, DW_AT_address_class(0x20)
    6823              
    6824              $C$DW$T$88      .dwtag  DW_TAG_typedef
    6825                      .dwattr $C$DW$T$88, DW_AT_name("GPIO_Handle")
    6826                      .dwattr $C$DW$T$88, DW_AT_type(*$C$DW$T$87)
    6827                      .dwattr $C$DW$T$88, DW_AT_language(DW_LANG_C)
    6828              
    6829              $C$DW$648       .dwtag  DW_TAG_TI_far_type
    6830                      .dwattr $C$DW$648, DW_AT_type(*$C$DW$T$88)
    6831              
    6832              $C$DW$T$197     .dwtag  DW_TAG_const_type
    6833                      .dwattr $C$DW$T$197, DW_AT_type(*$C$DW$648)
    6834              
    6835              
    6836              $C$DW$T$78      .dwtag  DW_TAG_structure_type
    6837                      .dwattr $C$DW$T$78, DW_AT_name("_HAL_AdcData_t_")
    6838                      .dwattr $C$DW$T$78, DW_AT_byte_size(0x16)
    6839              $C$DW$649       .dwtag  DW_TAG_member
    6840                      .dwattr $C$DW$649, DW_AT_type(*$C$DW$T$77)
    6841                      .dwattr $C$DW$649, DW_AT_name("I")
    6842                      .dwattr $C$DW$649, DW_AT_TI_symbol_name("_I")
    6843                      .dwattr $C$DW$649, DW_AT_data_member_location[DW_OP_plus_uconst 0x0]
    6844                      .dwattr $C$DW$649, DW_AT_accessibility(DW_ACCESS_public)
    6845              
    6846              $C$DW$650       .dwtag  DW_TAG_member
    6847                      .dwattr $C$DW$650, DW_AT_type(*$C$DW$T$77)
    6848                      .dwattr $C$DW$650, DW_AT_name("V")
    6849                      .dwattr $C$DW$650, DW_AT_TI_symbol_name("_V")
    6850                      .dwattr $C$DW$650, DW_AT_data_member_location[DW_OP_plus_uconst 0x6]
    6851                      .dwattr $C$DW$650, DW_AT_accessibility(DW_ACCESS_public)
    6852              
    6853              $C$DW$651       .dwtag  DW_TAG_member
    6854                      .dwattr $C$DW$651, DW_AT_type(*$C$DW$T$37)
    6855                      .dwattr $C$DW$651, DW_AT_name("dcBus")
    6856                      .dwattr $C$DW$651, DW_AT_TI_symbol_name("_dcBus")
TMS320C2000 Assembler PC v15.12.3 Wed Nov 22 01:55:15 2017

Tools Copyright (c) 1996-2015 Texas Instruments Incorporated
C:\Users\wmj\AppData\Local\Temp\1239610                              PAGE  129

    6857                      .dwattr $C$DW$651, DW_AT_data_member_location[DW_OP_plus_uconst 0xc]
    6858                      .dwattr $C$DW$651, DW_AT_accessibility(DW_ACCESS_public)
    6859              
    6860              $C$DW$652       .dwtag  DW_TAG_member
    6861                      .dwattr $C$DW$652, DW_AT_type(*$C$DW$T$37)
    6862                      .dwattr $C$DW$652, DW_AT_name("analogSensor1")
    6863                      .dwattr $C$DW$652, DW_AT_TI_symbol_name("_analogSensor1")
    6864                      .dwattr $C$DW$652, DW_AT_data_member_location[DW_OP_plus_uconst 0xe]
    6865                      .dwattr $C$DW$652, DW_AT_accessibility(DW_ACCESS_public)
    6866              
    6867              $C$DW$653       .dwtag  DW_TAG_member
    6868                      .dwattr $C$DW$653, DW_AT_type(*$C$DW$T$37)
    6869                      .dwattr $C$DW$653, DW_AT_name("analogSensor2")
    6870                      .dwattr $C$DW$653, DW_AT_TI_symbol_name("_analogSensor2")
    6871                      .dwattr $C$DW$653, DW_AT_data_member_location[DW_OP_plus_uconst 0x10]
    6872                      .dwattr $C$DW$653, DW_AT_accessibility(DW_ACCESS_public)
    6873              
    6874              $C$DW$654       .dwtag  DW_TAG_member
    6875                      .dwattr $C$DW$654, DW_AT_type(*$C$DW$T$37)
    6876                      .dwattr $C$DW$654, DW_AT_name("igbtNTC")
    6877                      .dwattr $C$DW$654, DW_AT_TI_symbol_name("_igbtNTC")
    6878                      .dwattr $C$DW$654, DW_AT_data_member_location[DW_OP_plus_uconst 0x12]
    6879                      .dwattr $C$DW$654, DW_AT_accessibility(DW_ACCESS_public)
    6880              
    6881              $C$DW$655       .dwtag  DW_TAG_member
    6882                      .dwattr $C$DW$655, DW_AT_type(*$C$DW$T$37)
    6883                      .dwattr $C$DW$655, DW_AT_name("boardAddr")
    6884                      .dwattr $C$DW$655, DW_AT_TI_symbol_name("_boardAddr")
    6885                      .dwattr $C$DW$655, DW_AT_data_member_location[DW_OP_plus_uconst 0x14]
    6886                      .dwattr $C$DW$655, DW_AT_accessibility(DW_ACCESS_public)
    6887              
    6888                      .dwendtag $C$DW$T$78
    6889              
    6890              $C$DW$T$114     .dwtag  DW_TAG_typedef
    6891                      .dwattr $C$DW$T$114, DW_AT_name("HAL_AdcData_t")
    6892                      .dwattr $C$DW$T$114, DW_AT_type(*$C$DW$T$78)
    6893                      .dwattr $C$DW$T$114, DW_AT_language(DW_LANG_C)
    6894              
    6895              
    6896              $C$DW$T$117     .dwtag  DW_TAG_structure_type
    6897                      .dwattr $C$DW$T$117, DW_AT_name("_HAL_Obj_")
    6898                      .dwattr $C$DW$T$117, DW_AT_byte_size(0xb4)
    6899              $C$DW$656       .dwtag  DW_TAG_member
    6900                      .dwattr $C$DW$656, DW_AT_type(*$C$DW$T$80)
    6901                      .dwattr $C$DW$656, DW_AT_name("adcHandle")
    6902                      .dwattr $C$DW$656, DW_AT_TI_symbol_name("_adcHandle")
    6903                      .dwattr $C$DW$656, DW_AT_data_member_location[DW_OP_plus_uconst 0x0]
    6904                      .dwattr $C$DW$656, DW_AT_accessibility(DW_ACCESS_public)
    6905              
    6906              $C$DW$657       .dwtag  DW_TAG_member
    6907                      .dwattr $C$DW$657, DW_AT_type(*$C$DW$T$82)
    6908                      .dwattr $C$DW$657, DW_AT_name("clkHandle")
    6909                      .dwattr $C$DW$657, DW_AT_TI_symbol_name("_clkHandle")
    6910                      .dwattr $C$DW$657, DW_AT_data_member_location[DW_OP_plus_uconst 0x2]
    6911                      .dwattr $C$DW$657, DW_AT_accessibility(DW_ACCESS_public)
TMS320C2000 Assembler PC v15.12.3 Wed Nov 22 01:55:15 2017

Tools Copyright (c) 1996-2015 Texas Instruments Incorporated
C:\Users\wmj\AppData\Local\Temp\1239610                              PAGE  130

    6912              
    6913              $C$DW$658       .dwtag  DW_TAG_member
    6914                      .dwattr $C$DW$658, DW_AT_type(*$C$DW$T$84)
    6915                      .dwattr $C$DW$658, DW_AT_name("cpuHandle")
    6916                      .dwattr $C$DW$658, DW_AT_TI_symbol_name("_cpuHandle")
    6917                      .dwattr $C$DW$658, DW_AT_data_member_location[DW_OP_plus_uconst 0x4]
    6918                      .dwattr $C$DW$658, DW_AT_accessibility(DW_ACCESS_public)
    6919              
    6920              $C$DW$659       .dwtag  DW_TAG_member
    6921                      .dwattr $C$DW$659, DW_AT_type(*$C$DW$T$86)
    6922                      .dwattr $C$DW$659, DW_AT_name("flashHandle")
    6923                      .dwattr $C$DW$659, DW_AT_TI_symbol_name("_flashHandle")
    6924                      .dwattr $C$DW$659, DW_AT_data_member_location[DW_OP_plus_uconst 0x6]
    6925                      .dwattr $C$DW$659, DW_AT_accessibility(DW_ACCESS_public)
    6926              
    6927              $C$DW$660       .dwtag  DW_TAG_member
    6928                      .dwattr $C$DW$660, DW_AT_type(*$C$DW$T$88)
    6929                      .dwattr $C$DW$660, DW_AT_name("gpioHandle")
    6930                      .dwattr $C$DW$660, DW_AT_TI_symbol_name("_gpioHandle")
    6931                      .dwattr $C$DW$660, DW_AT_data_member_location[DW_OP_plus_uconst 0x8]
    6932                      .dwattr $C$DW$660, DW_AT_accessibility(DW_ACCESS_public)
    6933              
    6934              $C$DW$661       .dwtag  DW_TAG_member
    6935                      .dwattr $C$DW$661, DW_AT_type(*$C$DW$T$91)
    6936                      .dwattr $C$DW$661, DW_AT_name("offsetHandle_I")
    6937                      .dwattr $C$DW$661, DW_AT_TI_symbol_name("_offsetHandle_I")
    6938                      .dwattr $C$DW$661, DW_AT_data_member_location[DW_OP_plus_uconst 0xa]
    6939                      .dwattr $C$DW$661, DW_AT_accessibility(DW_ACCESS_public)
    6940              
    6941              $C$DW$662       .dwtag  DW_TAG_member
    6942                      .dwattr $C$DW$662, DW_AT_type(*$C$DW$T$93)
    6943                      .dwattr $C$DW$662, DW_AT_name("offset_I")
    6944                      .dwattr $C$DW$662, DW_AT_TI_symbol_name("_offset_I")
    6945                      .dwattr $C$DW$662, DW_AT_data_member_location[DW_OP_plus_uconst 0x10]
    6946                      .dwattr $C$DW$662, DW_AT_accessibility(DW_ACCESS_public)
    6947              
    6948              $C$DW$663       .dwtag  DW_TAG_member
    6949                      .dwattr $C$DW$663, DW_AT_type(*$C$DW$T$91)
    6950                      .dwattr $C$DW$663, DW_AT_name("offsetHandle_V")
    6951                      .dwattr $C$DW$663, DW_AT_TI_symbol_name("_offsetHandle_V")
    6952                      .dwattr $C$DW$663, DW_AT_data_member_location[DW_OP_plus_uconst 0x40]
    6953                      .dwattr $C$DW$663, DW_AT_accessibility(DW_ACCESS_public)
    6954              
    6955              $C$DW$664       .dwtag  DW_TAG_member
    6956                      .dwattr $C$DW$664, DW_AT_type(*$C$DW$T$93)
    6957                      .dwattr $C$DW$664, DW_AT_name("offset_V")
    6958                      .dwattr $C$DW$664, DW_AT_TI_symbol_name("_offset_V")
    6959                      .dwattr $C$DW$664, DW_AT_data_member_location[DW_OP_plus_uconst 0x46]
    6960                      .dwattr $C$DW$664, DW_AT_accessibility(DW_ACCESS_public)
    6961              
    6962              $C$DW$665       .dwtag  DW_TAG_member
    6963                      .dwattr $C$DW$665, DW_AT_type(*$C$DW$T$95)
    6964                      .dwattr $C$DW$665, DW_AT_name("oscHandle")
    6965                      .dwattr $C$DW$665, DW_AT_TI_symbol_name("_oscHandle")
    6966                      .dwattr $C$DW$665, DW_AT_data_member_location[DW_OP_plus_uconst 0x76]
TMS320C2000 Assembler PC v15.12.3 Wed Nov 22 01:55:15 2017

Tools Copyright (c) 1996-2015 Texas Instruments Incorporated
C:\Users\wmj\AppData\Local\Temp\1239610                              PAGE  131

    6967                      .dwattr $C$DW$665, DW_AT_accessibility(DW_ACCESS_public)
    6968              
    6969              $C$DW$666       .dwtag  DW_TAG_member
    6970                      .dwattr $C$DW$666, DW_AT_type(*$C$DW$T$97)
    6971                      .dwattr $C$DW$666, DW_AT_name("pieHandle")
    6972                      .dwattr $C$DW$666, DW_AT_TI_symbol_name("_pieHandle")
    6973                      .dwattr $C$DW$666, DW_AT_data_member_location[DW_OP_plus_uconst 0x78]
    6974                      .dwattr $C$DW$666, DW_AT_accessibility(DW_ACCESS_public)
    6975              
    6976              $C$DW$667       .dwtag  DW_TAG_member
    6977                      .dwattr $C$DW$667, DW_AT_type(*$C$DW$T$99)
    6978                      .dwattr $C$DW$667, DW_AT_name("pllHandle")
    6979                      .dwattr $C$DW$667, DW_AT_TI_symbol_name("_pllHandle")
    6980                      .dwattr $C$DW$667, DW_AT_data_member_location[DW_OP_plus_uconst 0x7a]
    6981                      .dwattr $C$DW$667, DW_AT_accessibility(DW_ACCESS_public)
    6982              
    6983              $C$DW$668       .dwtag  DW_TAG_member
    6984                      .dwattr $C$DW$668, DW_AT_type(*$C$DW$T$102)
    6985                      .dwattr $C$DW$668, DW_AT_name("pwmHandle")
    6986                      .dwattr $C$DW$668, DW_AT_TI_symbol_name("_pwmHandle")
    6987                      .dwattr $C$DW$668, DW_AT_data_member_location[DW_OP_plus_uconst 0x7c]
    6988                      .dwattr $C$DW$668, DW_AT_accessibility(DW_ACCESS_public)
    6989              
    6990              $C$DW$669       .dwtag  DW_TAG_member
    6991                      .dwattr $C$DW$669, DW_AT_type(*$C$DW$T$102)
    6992                      .dwattr $C$DW$669, DW_AT_name("pwmDacHandle")
    6993                      .dwattr $C$DW$669, DW_AT_TI_symbol_name("_pwmDacHandle")
    6994                      .dwattr $C$DW$669, DW_AT_data_member_location[DW_OP_plus_uconst 0x82]
    6995                      .dwattr $C$DW$669, DW_AT_accessibility(DW_ACCESS_public)
    6996              
    6997              $C$DW$670       .dwtag  DW_TAG_member
    6998                      .dwattr $C$DW$670, DW_AT_type(*$C$DW$T$104)
    6999                      .dwattr $C$DW$670, DW_AT_name("pwrHandle")
    7000                      .dwattr $C$DW$670, DW_AT_TI_symbol_name("_pwrHandle")
    7001                      .dwattr $C$DW$670, DW_AT_data_member_location[DW_OP_plus_uconst 0x88]
    7002                      .dwattr $C$DW$670, DW_AT_accessibility(DW_ACCESS_public)
    7003              
    7004              $C$DW$671       .dwtag  DW_TAG_member
    7005                      .dwattr $C$DW$671, DW_AT_type(*$C$DW$T$107)
    7006                      .dwattr $C$DW$671, DW_AT_name("timerHandle")
    7007                      .dwattr $C$DW$671, DW_AT_TI_symbol_name("_timerHandle")
    7008                      .dwattr $C$DW$671, DW_AT_data_member_location[DW_OP_plus_uconst 0x8a]
    7009                      .dwattr $C$DW$671, DW_AT_accessibility(DW_ACCESS_public)
    7010              
    7011              $C$DW$672       .dwtag  DW_TAG_member
    7012                      .dwattr $C$DW$672, DW_AT_type(*$C$DW$T$109)
    7013                      .dwattr $C$DW$672, DW_AT_name("spiAHandle")
    7014                      .dwattr $C$DW$672, DW_AT_TI_symbol_name("_spiAHandle")
    7015                      .dwattr $C$DW$672, DW_AT_data_member_location[DW_OP_plus_uconst 0x90]
    7016                      .dwattr $C$DW$672, DW_AT_accessibility(DW_ACCESS_public)
    7017              
    7018              $C$DW$673       .dwtag  DW_TAG_member
    7019                      .dwattr $C$DW$673, DW_AT_type(*$C$DW$T$111)
    7020                      .dwattr $C$DW$673, DW_AT_name("wdogHandle")
    7021                      .dwattr $C$DW$673, DW_AT_TI_symbol_name("_wdogHandle")
TMS320C2000 Assembler PC v15.12.3 Wed Nov 22 01:55:15 2017

Tools Copyright (c) 1996-2015 Texas Instruments Incorporated
C:\Users\wmj\AppData\Local\Temp\1239610                              PAGE  132

    7022                      .dwattr $C$DW$673, DW_AT_data_member_location[DW_OP_plus_uconst 0x92]
    7023                      .dwattr $C$DW$673, DW_AT_accessibility(DW_ACCESS_public)
    7024              
    7025              $C$DW$674       .dwtag  DW_TAG_member
    7026                      .dwattr $C$DW$674, DW_AT_type(*$C$DW$T$113)
    7027                      .dwattr $C$DW$674, DW_AT_name("sciHandle")
    7028                      .dwattr $C$DW$674, DW_AT_TI_symbol_name("_sciHandle")
    7029                      .dwattr $C$DW$674, DW_AT_data_member_location[DW_OP_plus_uconst 0x94]
    7030                      .dwattr $C$DW$674, DW_AT_accessibility(DW_ACCESS_public)
    7031              
    7032              $C$DW$675       .dwtag  DW_TAG_member
    7033                      .dwattr $C$DW$675, DW_AT_type(*$C$DW$T$114)
    7034                      .dwattr $C$DW$675, DW_AT_name("adcBias")
    7035                      .dwattr $C$DW$675, DW_AT_TI_symbol_name("_adcBias")
    7036                      .dwattr $C$DW$675, DW_AT_data_member_location[DW_OP_plus_uconst 0x96]
    7037                      .dwattr $C$DW$675, DW_AT_accessibility(DW_ACCESS_public)
    7038              
    7039              $C$DW$676       .dwtag  DW_TAG_member
    7040                      .dwattr $C$DW$676, DW_AT_type(*$C$DW$T$37)
    7041                      .dwattr $C$DW$676, DW_AT_name("current_sf")
    7042                      .dwattr $C$DW$676, DW_AT_TI_symbol_name("_current_sf")
    7043                      .dwattr $C$DW$676, DW_AT_data_member_location[DW_OP_plus_uconst 0xac]
    7044                      .dwattr $C$DW$676, DW_AT_accessibility(DW_ACCESS_public)
    7045              
    7046              $C$DW$677       .dwtag  DW_TAG_member
    7047                      .dwattr $C$DW$677, DW_AT_type(*$C$DW$T$37)
    7048                      .dwattr $C$DW$677, DW_AT_name("voltage_sf")
    7049                      .dwattr $C$DW$677, DW_AT_TI_symbol_name("_voltage_sf")
    7050                      .dwattr $C$DW$677, DW_AT_data_member_location[DW_OP_plus_uconst 0xae]
    7051                      .dwattr $C$DW$677, DW_AT_accessibility(DW_ACCESS_public)
    7052              
    7053              $C$DW$678       .dwtag  DW_TAG_member
    7054                      .dwattr $C$DW$678, DW_AT_type(*$C$DW$T$32)
    7055                      .dwattr $C$DW$678, DW_AT_name("numCurrentSensors")
    7056                      .dwattr $C$DW$678, DW_AT_TI_symbol_name("_numCurrentSensors")
    7057                      .dwattr $C$DW$678, DW_AT_data_member_location[DW_OP_plus_uconst 0xb0]
    7058                      .dwattr $C$DW$678, DW_AT_accessibility(DW_ACCESS_public)
    7059              
    7060              $C$DW$679       .dwtag  DW_TAG_member
    7061                      .dwattr $C$DW$679, DW_AT_type(*$C$DW$T$32)
    7062                      .dwattr $C$DW$679, DW_AT_name("numVoltageSensors")
    7063                      .dwattr $C$DW$679, DW_AT_TI_symbol_name("_numVoltageSensors")
    7064                      .dwattr $C$DW$679, DW_AT_data_member_location[DW_OP_plus_uconst 0xb1]
    7065                      .dwattr $C$DW$679, DW_AT_accessibility(DW_ACCESS_public)
    7066              
    7067              $C$DW$680       .dwtag  DW_TAG_member
    7068                      .dwattr $C$DW$680, DW_AT_type(*$C$DW$T$116)
    7069                      .dwattr $C$DW$680, DW_AT_name("boardAddress")
    7070                      .dwattr $C$DW$680, DW_AT_TI_symbol_name("_boardAddress")
    7071                      .dwattr $C$DW$680, DW_AT_data_member_location[DW_OP_plus_uconst 0xb2]
    7072                      .dwattr $C$DW$680, DW_AT_accessibility(DW_ACCESS_public)
    7073              
    7074                      .dwendtag $C$DW$T$117
    7075              
    7076              $C$DW$T$42      .dwtag  DW_TAG_pointer_type
TMS320C2000 Assembler PC v15.12.3 Wed Nov 22 01:55:15 2017

Tools Copyright (c) 1996-2015 Texas Instruments Incorporated
C:\Users\wmj\AppData\Local\Temp\1239610                              PAGE  133

    7077                      .dwattr $C$DW$T$42, DW_AT_type(*$C$DW$T$117)
    7078                      .dwattr $C$DW$T$42, DW_AT_address_class(0x20)
    7079              
    7080              $C$DW$T$43      .dwtag  DW_TAG_typedef
    7081                      .dwattr $C$DW$T$43, DW_AT_name("HAL_Handle")
    7082                      .dwattr $C$DW$T$43, DW_AT_type(*$C$DW$T$42)
    7083                      .dwattr $C$DW$T$43, DW_AT_language(DW_LANG_C)
    7084              
    7085              
    7086              $C$DW$T$119     .dwtag  DW_TAG_structure_type
    7087                      .dwattr $C$DW$T$119, DW_AT_name("_MATH_vec3_")
    7088                      .dwattr $C$DW$T$119, DW_AT_byte_size(0x06)
    7089              $C$DW$681       .dwtag  DW_TAG_member
    7090                      .dwattr $C$DW$681, DW_AT_type(*$C$DW$T$118)
    7091                      .dwattr $C$DW$681, DW_AT_name("value")
    7092                      .dwattr $C$DW$681, DW_AT_TI_symbol_name("_value")
    7093                      .dwattr $C$DW$681, DW_AT_data_member_location[DW_OP_plus_uconst 0x0]
    7094                      .dwattr $C$DW$681, DW_AT_accessibility(DW_ACCESS_public)
    7095              
    7096                      .dwendtag $C$DW$T$119
    7097              
    7098              $C$DW$T$77      .dwtag  DW_TAG_typedef
    7099                      .dwattr $C$DW$T$77, DW_AT_name("MATH_vec3")
    7100                      .dwattr $C$DW$T$77, DW_AT_type(*$C$DW$T$119)
    7101                      .dwattr $C$DW$T$77, DW_AT_language(DW_LANG_C)
    7102              
    7103              
    7104              $C$DW$T$136     .dwtag  DW_TAG_structure_type
    7105                      .dwattr $C$DW$T$136, DW_AT_name("_MB_Obj_")
    7106                      .dwattr $C$DW$T$136, DW_AT_byte_size(0x20)
    7107              $C$DW$682       .dwtag  DW_TAG_member
    7108                      .dwattr $C$DW$682, DW_AT_type(*$C$DW$T$41)
    7109                      .dwattr $C$DW$682, DW_AT_name("motorHandle")
    7110                      .dwattr $C$DW$682, DW_AT_TI_symbol_name("_motorHandle")
    7111                      .dwattr $C$DW$682, DW_AT_data_member_location[DW_OP_plus_uconst 0x0]
    7112                      .dwattr $C$DW$682, DW_AT_accessibility(DW_ACCESS_public)
    7113              
    7114              $C$DW$683       .dwtag  DW_TAG_member
    7115                      .dwattr $C$DW$683, DW_AT_type(*$C$DW$T$121)
    7116                      .dwattr $C$DW$683, DW_AT_name("fsmHandle")
    7117                      .dwattr $C$DW$683, DW_AT_TI_symbol_name("_fsmHandle")
    7118                      .dwattr $C$DW$683, DW_AT_data_member_location[DW_OP_plus_uconst 0x2]
    7119                      .dwattr $C$DW$683, DW_AT_accessibility(DW_ACCESS_public)
    7120              
    7121              $C$DW$684       .dwtag  DW_TAG_member
    7122                      .dwattr $C$DW$684, DW_AT_type(*$C$DW$T$88)
    7123                      .dwattr $C$DW$684, DW_AT_name("gpioHandle")
    7124                      .dwattr $C$DW$684, DW_AT_TI_symbol_name("_gpioHandle")
    7125                      .dwattr $C$DW$684, DW_AT_data_member_location[DW_OP_plus_uconst 0x4]
    7126                      .dwattr $C$DW$684, DW_AT_accessibility(DW_ACCESS_public)
    7127              
    7128              $C$DW$685       .dwtag  DW_TAG_member
    7129                      .dwattr $C$DW$685, DW_AT_type(*$C$DW$T$106)
    7130                      .dwattr $C$DW$685, DW_AT_name("timerHandle")
    7131                      .dwattr $C$DW$685, DW_AT_TI_symbol_name("_timerHandle")
TMS320C2000 Assembler PC v15.12.3 Wed Nov 22 01:55:15 2017

Tools Copyright (c) 1996-2015 Texas Instruments Incorporated
C:\Users\wmj\AppData\Local\Temp\1239610                              PAGE  134

    7132                      .dwattr $C$DW$685, DW_AT_data_member_location[DW_OP_plus_uconst 0x6]
    7133                      .dwattr $C$DW$685, DW_AT_accessibility(DW_ACCESS_public)
    7134              
    7135              $C$DW$686       .dwtag  DW_TAG_member
    7136                      .dwattr $C$DW$686, DW_AT_type(*$C$DW$T$113)
    7137                      .dwattr $C$DW$686, DW_AT_name("sciHandle")
    7138                      .dwattr $C$DW$686, DW_AT_TI_symbol_name("_sciHandle")
    7139                      .dwattr $C$DW$686, DW_AT_data_member_location[DW_OP_plus_uconst 0x8]
    7140                      .dwattr $C$DW$686, DW_AT_accessibility(DW_ACCESS_public)
    7141              
    7142              $C$DW$687       .dwtag  DW_TAG_member
    7143                      .dwattr $C$DW$687, DW_AT_type(*$C$DW$T$123)
    7144                      .dwattr $C$DW$687, DW_AT_name("RTU_Frame")
    7145                      .dwattr $C$DW$687, DW_AT_TI_symbol_name("_RTU_Frame")
    7146                      .dwattr $C$DW$687, DW_AT_data_member_location[DW_OP_plus_uconst 0xa]
    7147                      .dwattr $C$DW$687, DW_AT_accessibility(DW_ACCESS_public)
    7148              
    7149              $C$DW$688       .dwtag  DW_TAG_member
    7150                      .dwattr $C$DW$688, DW_AT_type(*$C$DW$T$125)
    7151                      .dwattr $C$DW$688, DW_AT_name("RTUBuf")
    7152                      .dwattr $C$DW$688, DW_AT_TI_symbol_name("_RTUBuf")
    7153                      .dwattr $C$DW$688, DW_AT_data_member_location[DW_OP_plus_uconst 0xc]
    7154                      .dwattr $C$DW$688, DW_AT_accessibility(DW_ACCESS_public)
    7155              
    7156              $C$DW$689       .dwtag  DW_TAG_member
    7157                      .dwattr $C$DW$689, DW_AT_type(*$C$DW$T$124)
    7158                      .dwattr $C$DW$689, DW_AT_name("RcvBufferPos")
    7159                      .dwattr $C$DW$689, DW_AT_TI_symbol_name("_RcvBufferPos")
    7160                      .dwattr $C$DW$689, DW_AT_data_member_location[DW_OP_plus_uconst 0x14]
    7161                      .dwattr $C$DW$689, DW_AT_accessibility(DW_ACCESS_public)
    7162              
    7163              $C$DW$690       .dwtag  DW_TAG_member
    7164                      .dwattr $C$DW$690, DW_AT_type(*$C$DW$T$126)
    7165                      .dwattr $C$DW$690, DW_AT_name("SndBufferCur")
    7166                      .dwattr $C$DW$690, DW_AT_TI_symbol_name("_SndBufferCur")
    7167                      .dwattr $C$DW$690, DW_AT_data_member_location[DW_OP_plus_uconst 0x16]
    7168                      .dwattr $C$DW$690, DW_AT_accessibility(DW_ACCESS_public)
    7169              
    7170              $C$DW$691       .dwtag  DW_TAG_member
    7171                      .dwattr $C$DW$691, DW_AT_type(*$C$DW$T$127)
    7172                      .dwattr $C$DW$691, DW_AT_name("SndBufferCount")
    7173                      .dwattr $C$DW$691, DW_AT_TI_symbol_name("_SndBufferCount")
    7174                      .dwattr $C$DW$691, DW_AT_data_member_location[DW_OP_plus_uconst 0x18]
    7175                      .dwattr $C$DW$691, DW_AT_accessibility(DW_ACCESS_public)
    7176              
    7177              $C$DW$692       .dwtag  DW_TAG_member
    7178                      .dwattr $C$DW$692, DW_AT_type(*$C$DW$T$124)
    7179                      .dwattr $C$DW$692, DW_AT_name("SlaveAddress")
    7180                      .dwattr $C$DW$692, DW_AT_TI_symbol_name("_SlaveAddress")
    7181                      .dwattr $C$DW$692, DW_AT_data_member_location[DW_OP_plus_uconst 0x19]
    7182                      .dwattr $C$DW$692, DW_AT_accessibility(DW_ACCESS_public)
    7183              
    7184              $C$DW$693       .dwtag  DW_TAG_member
    7185                      .dwattr $C$DW$693, DW_AT_type(*$C$DW$T$129)
    7186                      .dwattr $C$DW$693, DW_AT_name("eStatus")
TMS320C2000 Assembler PC v15.12.3 Wed Nov 22 01:55:15 2017

Tools Copyright (c) 1996-2015 Texas Instruments Incorporated
C:\Users\wmj\AppData\Local\Temp\1239610                              PAGE  135

    7187                      .dwattr $C$DW$693, DW_AT_TI_symbol_name("_eStatus")
    7188                      .dwattr $C$DW$693, DW_AT_data_member_location[DW_OP_plus_uconst 0x1a]
    7189                      .dwattr $C$DW$693, DW_AT_accessibility(DW_ACCESS_public)
    7190              
    7191              $C$DW$694       .dwtag  DW_TAG_member
    7192                      .dwattr $C$DW$694, DW_AT_type(*$C$DW$T$131)
    7193                      .dwattr $C$DW$694, DW_AT_name("eSndState")
    7194                      .dwattr $C$DW$694, DW_AT_TI_symbol_name("_eSndState")
    7195                      .dwattr $C$DW$694, DW_AT_data_member_location[DW_OP_plus_uconst 0x1b]
    7196                      .dwattr $C$DW$694, DW_AT_accessibility(DW_ACCESS_public)
    7197              
    7198              $C$DW$695       .dwtag  DW_TAG_member
    7199                      .dwattr $C$DW$695, DW_AT_type(*$C$DW$T$133)
    7200                      .dwattr $C$DW$695, DW_AT_name("eRcvState")
    7201                      .dwattr $C$DW$695, DW_AT_TI_symbol_name("_eRcvState")
    7202                      .dwattr $C$DW$695, DW_AT_data_member_location[DW_OP_plus_uconst 0x1c]
    7203                      .dwattr $C$DW$695, DW_AT_accessibility(DW_ACCESS_public)
    7204              
    7205              $C$DW$696       .dwtag  DW_TAG_member
    7206                      .dwattr $C$DW$696, DW_AT_type(*$C$DW$T$59)
    7207                      .dwattr $C$DW$696, DW_AT_name("xEventInQueue")
    7208                      .dwattr $C$DW$696, DW_AT_TI_symbol_name("_xEventInQueue")
    7209                      .dwattr $C$DW$696, DW_AT_data_member_location[DW_OP_plus_uconst 0x1d]
    7210                      .dwattr $C$DW$696, DW_AT_accessibility(DW_ACCESS_public)
    7211              
    7212              $C$DW$697       .dwtag  DW_TAG_member
    7213                      .dwattr $C$DW$697, DW_AT_type(*$C$DW$T$135)
    7214                      .dwattr $C$DW$697, DW_AT_name("eQueuedEvent")
    7215                      .dwattr $C$DW$697, DW_AT_TI_symbol_name("_eQueuedEvent")
    7216                      .dwattr $C$DW$697, DW_AT_data_member_location[DW_OP_plus_uconst 0x1e]
    7217                      .dwattr $C$DW$697, DW_AT_accessibility(DW_ACCESS_public)
    7218              
    7219                      .dwendtag $C$DW$T$136
    7220              
    7221              $C$DW$T$199     .dwtag  DW_TAG_typedef
    7222                      .dwattr $C$DW$T$199, DW_AT_name("MB_Obj")
    7223                      .dwattr $C$DW$T$199, DW_AT_type(*$C$DW$T$136)
    7224                      .dwattr $C$DW$T$199, DW_AT_language(DW_LANG_C)
    7225              
    7226              $C$DW$T$177     .dwtag  DW_TAG_pointer_type
    7227                      .dwattr $C$DW$T$177, DW_AT_type(*$C$DW$T$136)
    7228                      .dwattr $C$DW$T$177, DW_AT_address_class(0x20)
    7229              
    7230              $C$DW$T$178     .dwtag  DW_TAG_typedef
    7231                      .dwattr $C$DW$T$178, DW_AT_name("MB_Handle")
    7232                      .dwattr $C$DW$T$178, DW_AT_type(*$C$DW$T$177)
    7233                      .dwattr $C$DW$T$178, DW_AT_language(DW_LANG_C)
    7234              
    7235              $C$DW$698       .dwtag  DW_TAG_TI_far_type
    7236                      .dwattr $C$DW$698, DW_AT_type(*$C$DW$T$178)
    7237              
    7238              $C$DW$T$200     .dwtag  DW_TAG_const_type
    7239                      .dwattr $C$DW$T$200, DW_AT_type(*$C$DW$698)
    7240              
    7241              
TMS320C2000 Assembler PC v15.12.3 Wed Nov 22 01:55:15 2017

Tools Copyright (c) 1996-2015 Texas Instruments Incorporated
C:\Users\wmj\AppData\Local\Temp\1239610                              PAGE  136

    7242              $C$DW$T$138     .dwtag  DW_TAG_structure_type
    7243                      .dwattr $C$DW$T$138, DW_AT_name("_MB_RTU_t_")
    7244                      .dwattr $C$DW$T$138, DW_AT_byte_size(0x08)
    7245              $C$DW$699       .dwtag  DW_TAG_member
    7246                      .dwattr $C$DW$699, DW_AT_type(*$C$DW$T$124)
    7247                      .dwattr $C$DW$699, DW_AT_name("PDU_Address")
    7248                      .dwattr $C$DW$699, DW_AT_TI_symbol_name("_PDU_Address")
    7249                      .dwattr $C$DW$699, DW_AT_data_member_location[DW_OP_plus_uconst 0x0]
    7250                      .dwattr $C$DW$699, DW_AT_accessibility(DW_ACCESS_public)
    7251              
    7252              $C$DW$700       .dwtag  DW_TAG_member
    7253                      .dwattr $C$DW$700, DW_AT_type(*$C$DW$T$124)
    7254                      .dwattr $C$DW$700, DW_AT_name("PDU_FunctionCode")
    7255                      .dwattr $C$DW$700, DW_AT_TI_symbol_name("_PDU_FunctionCode")
    7256                      .dwattr $C$DW$700, DW_AT_data_member_location[DW_OP_plus_uconst 0x1]
    7257                      .dwattr $C$DW$700, DW_AT_accessibility(DW_ACCESS_public)
    7258              
    7259              $C$DW$701       .dwtag  DW_TAG_member
    7260                      .dwattr $C$DW$701, DW_AT_type(*$C$DW$T$137)
    7261                      .dwattr $C$DW$701, DW_AT_name("PDU_RegAddress")
    7262                      .dwattr $C$DW$701, DW_AT_TI_symbol_name("_PDU_RegAddress")
    7263                      .dwattr $C$DW$701, DW_AT_data_member_location[DW_OP_plus_uconst 0x2]
    7264                      .dwattr $C$DW$701, DW_AT_accessibility(DW_ACCESS_public)
    7265              
    7266              $C$DW$702       .dwtag  DW_TAG_member
    7267                      .dwattr $C$DW$702, DW_AT_type(*$C$DW$T$137)
    7268                      .dwattr $C$DW$702, DW_AT_name("PDU_Data")
    7269                      .dwattr $C$DW$702, DW_AT_TI_symbol_name("_PDU_Data")
    7270                      .dwattr $C$DW$702, DW_AT_data_member_location[DW_OP_plus_uconst 0x4]
    7271                      .dwattr $C$DW$702, DW_AT_accessibility(DW_ACCESS_public)
    7272              
    7273              $C$DW$703       .dwtag  DW_TAG_member
    7274                      .dwattr $C$DW$703, DW_AT_type(*$C$DW$T$124)
    7275                      .dwattr $C$DW$703, DW_AT_name("PDU_CRC_LByte")
    7276                      .dwattr $C$DW$703, DW_AT_TI_symbol_name("_PDU_CRC_LByte")
    7277                      .dwattr $C$DW$703, DW_AT_data_member_location[DW_OP_plus_uconst 0x6]
    7278                      .dwattr $C$DW$703, DW_AT_accessibility(DW_ACCESS_public)
    7279              
    7280              $C$DW$704       .dwtag  DW_TAG_member
    7281                      .dwattr $C$DW$704, DW_AT_type(*$C$DW$T$124)
    7282                      .dwattr $C$DW$704, DW_AT_name("PDU_CRC_HByte")
    7283                      .dwattr $C$DW$704, DW_AT_TI_symbol_name("_PDU_CRC_HByte")
    7284                      .dwattr $C$DW$704, DW_AT_data_member_location[DW_OP_plus_uconst 0x7]
    7285                      .dwattr $C$DW$704, DW_AT_accessibility(DW_ACCESS_public)
    7286              
    7287                      .dwendtag $C$DW$T$138
    7288              
    7289              $C$DW$T$122     .dwtag  DW_TAG_pointer_type
    7290                      .dwattr $C$DW$T$122, DW_AT_type(*$C$DW$T$138)
    7291                      .dwattr $C$DW$T$122, DW_AT_address_class(0x20)
    7292              
    7293              $C$DW$T$123     .dwtag  DW_TAG_typedef
    7294                      .dwattr $C$DW$T$123, DW_AT_name("RTU_Frame")
    7295                      .dwattr $C$DW$T$123, DW_AT_type(*$C$DW$T$122)
    7296                      .dwattr $C$DW$T$123, DW_AT_language(DW_LANG_C)
TMS320C2000 Assembler PC v15.12.3 Wed Nov 22 01:55:15 2017

Tools Copyright (c) 1996-2015 Texas Instruments Incorporated
C:\Users\wmj\AppData\Local\Temp\1239610                              PAGE  137

    7297              
    7298              
    7299              $C$DW$T$148     .dwtag  DW_TAG_structure_type
    7300                      .dwattr $C$DW$T$148, DW_AT_name("_MOTOR_Obj_")
    7301                      .dwattr $C$DW$T$148, DW_AT_byte_size(0x70)
    7302              $C$DW$705       .dwtag  DW_TAG_member
    7303                      .dwattr $C$DW$705, DW_AT_type(*$C$DW$T$59)
    7304                      .dwattr $C$DW$705, DW_AT_name("Flag_enableSys")
    7305                      .dwattr $C$DW$705, DW_AT_TI_symbol_name("_Flag_enableSys")
    7306                      .dwattr $C$DW$705, DW_AT_data_member_location[DW_OP_plus_uconst 0x0]
    7307                      .dwattr $C$DW$705, DW_AT_accessibility(DW_ACCESS_public)
    7308              
    7309              $C$DW$706       .dwtag  DW_TAG_member
    7310                      .dwattr $C$DW$706, DW_AT_type(*$C$DW$T$59)
    7311                      .dwattr $C$DW$706, DW_AT_name("Flag_Run_Identify")
    7312                      .dwattr $C$DW$706, DW_AT_TI_symbol_name("_Flag_Run_Identify")
    7313                      .dwattr $C$DW$706, DW_AT_data_member_location[DW_OP_plus_uconst 0x1]
    7314                      .dwattr $C$DW$706, DW_AT_accessibility(DW_ACCESS_public)
    7315              
    7316              $C$DW$707       .dwtag  DW_TAG_member
    7317                      .dwattr $C$DW$707, DW_AT_type(*$C$DW$T$59)
    7318                      .dwattr $C$DW$707, DW_AT_name("Flag_MotorIdentified")
    7319                      .dwattr $C$DW$707, DW_AT_TI_symbol_name("_Flag_MotorIdentified")
    7320                      .dwattr $C$DW$707, DW_AT_data_member_location[DW_OP_plus_uconst 0x2]
    7321                      .dwattr $C$DW$707, DW_AT_accessibility(DW_ACCESS_public)
    7322              
    7323              $C$DW$708       .dwtag  DW_TAG_member
    7324                      .dwattr $C$DW$708, DW_AT_type(*$C$DW$T$59)
    7325                      .dwattr $C$DW$708, DW_AT_name("Flag_enableForceAngle")
    7326                      .dwattr $C$DW$708, DW_AT_TI_symbol_name("_Flag_enableForceAngle")
    7327                      .dwattr $C$DW$708, DW_AT_data_member_location[DW_OP_plus_uconst 0x3]
    7328                      .dwattr $C$DW$708, DW_AT_accessibility(DW_ACCESS_public)
    7329              
    7330              $C$DW$709       .dwtag  DW_TAG_member
    7331                      .dwattr $C$DW$709, DW_AT_type(*$C$DW$T$59)
    7332                      .dwattr $C$DW$709, DW_AT_name("Flag_ZeroPiont_Identify")
    7333                      .dwattr $C$DW$709, DW_AT_TI_symbol_name("_Flag_ZeroPiont_Identify")
    7334                      .dwattr $C$DW$709, DW_AT_data_member_location[DW_OP_plus_uconst 0x4]
    7335                      .dwattr $C$DW$709, DW_AT_accessibility(DW_ACCESS_public)
    7336              
    7337              $C$DW$710       .dwtag  DW_TAG_member
    7338                      .dwattr $C$DW$710, DW_AT_type(*$C$DW$T$59)
    7339                      .dwattr $C$DW$710, DW_AT_name("Flag_enableRsRecalc")
    7340                      .dwattr $C$DW$710, DW_AT_TI_symbol_name("_Flag_enableRsRecalc")
    7341                      .dwattr $C$DW$710, DW_AT_data_member_location[DW_OP_plus_uconst 0x5]
    7342                      .dwattr $C$DW$710, DW_AT_accessibility(DW_ACCESS_public)
    7343              
    7344              $C$DW$711       .dwtag  DW_TAG_member
    7345                      .dwattr $C$DW$711, DW_AT_type(*$C$DW$T$59)
    7346                      .dwattr $C$DW$711, DW_AT_name("Flag_enableUserParams")
    7347                      .dwattr $C$DW$711, DW_AT_TI_symbol_name("_Flag_enableUserParams")
    7348                      .dwattr $C$DW$711, DW_AT_data_member_location[DW_OP_plus_uconst 0x6]
    7349                      .dwattr $C$DW$711, DW_AT_accessibility(DW_ACCESS_public)
    7350              
    7351              $C$DW$712       .dwtag  DW_TAG_member
TMS320C2000 Assembler PC v15.12.3 Wed Nov 22 01:55:15 2017

Tools Copyright (c) 1996-2015 Texas Instruments Incorporated
C:\Users\wmj\AppData\Local\Temp\1239610                              PAGE  138

    7352                      .dwattr $C$DW$712, DW_AT_type(*$C$DW$T$59)
    7353                      .dwattr $C$DW$712, DW_AT_name("Flag_enableOffsetcalc")
    7354                      .dwattr $C$DW$712, DW_AT_TI_symbol_name("_Flag_enableOffsetcalc")
    7355                      .dwattr $C$DW$712, DW_AT_data_member_location[DW_OP_plus_uconst 0x7]
    7356                      .dwattr $C$DW$712, DW_AT_accessibility(DW_ACCESS_public)
    7357              
    7358              $C$DW$713       .dwtag  DW_TAG_member
    7359                      .dwattr $C$DW$713, DW_AT_type(*$C$DW$T$59)
    7360                      .dwattr $C$DW$713, DW_AT_name("Flag_enablePowerWarp")
    7361                      .dwattr $C$DW$713, DW_AT_TI_symbol_name("_Flag_enablePowerWarp")
    7362                      .dwattr $C$DW$713, DW_AT_data_member_location[DW_OP_plus_uconst 0x8]
    7363                      .dwattr $C$DW$713, DW_AT_accessibility(DW_ACCESS_public)
    7364              
    7365              $C$DW$714       .dwtag  DW_TAG_member
    7366                      .dwattr $C$DW$714, DW_AT_type(*$C$DW$T$59)
    7367                      .dwattr $C$DW$714, DW_AT_name("Flag_enableSpeedCtrl")
    7368                      .dwattr $C$DW$714, DW_AT_TI_symbol_name("_Flag_enableSpeedCtrl")
    7369                      .dwattr $C$DW$714, DW_AT_data_member_location[DW_OP_plus_uconst 0x9]
    7370                      .dwattr $C$DW$714, DW_AT_accessibility(DW_ACCESS_public)
    7371              
    7372              $C$DW$715       .dwtag  DW_TAG_member
    7373                      .dwattr $C$DW$715, DW_AT_type(*$C$DW$T$59)
    7374                      .dwattr $C$DW$715, DW_AT_name("Flag_enableRun")
    7375                      .dwattr $C$DW$715, DW_AT_TI_symbol_name("_Flag_enableRun")
    7376                      .dwattr $C$DW$715, DW_AT_data_member_location[DW_OP_plus_uconst 0xa]
    7377                      .dwattr $C$DW$715, DW_AT_accessibility(DW_ACCESS_public)
    7378              
    7379              $C$DW$716       .dwtag  DW_TAG_member
    7380                      .dwattr $C$DW$716, DW_AT_type(*$C$DW$T$59)
    7381                      .dwattr $C$DW$716, DW_AT_name("Flag_RunState")
    7382                      .dwattr $C$DW$716, DW_AT_TI_symbol_name("_Flag_RunState")
    7383                      .dwattr $C$DW$716, DW_AT_data_member_location[DW_OP_plus_uconst 0xb]
    7384                      .dwattr $C$DW$716, DW_AT_accessibility(DW_ACCESS_public)
    7385              
    7386              $C$DW$717       .dwtag  DW_TAG_member
    7387                      .dwattr $C$DW$717, DW_AT_type(*$C$DW$T$59)
    7388                      .dwattr $C$DW$717, DW_AT_name("Flag_enableFlyingStart")
    7389                      .dwattr $C$DW$717, DW_AT_TI_symbol_name("_Flag_enableFlyingStart")
    7390                      .dwattr $C$DW$717, DW_AT_data_member_location[DW_OP_plus_uconst 0xc]
    7391                      .dwattr $C$DW$717, DW_AT_accessibility(DW_ACCESS_public)
    7392              
    7393              $C$DW$718       .dwtag  DW_TAG_member
    7394                      .dwattr $C$DW$718, DW_AT_type(*$C$DW$T$59)
    7395                      .dwattr $C$DW$718, DW_AT_name("Flag_ContactSensor")
    7396                      .dwattr $C$DW$718, DW_AT_TI_symbol_name("_Flag_ContactSensor")
    7397                      .dwattr $C$DW$718, DW_AT_data_member_location[DW_OP_plus_uconst 0xd]
    7398                      .dwattr $C$DW$718, DW_AT_accessibility(DW_ACCESS_public)
    7399              
    7400              $C$DW$719       .dwtag  DW_TAG_member
    7401                      .dwattr $C$DW$719, DW_AT_type(*$C$DW$T$59)
    7402                      .dwattr $C$DW$719, DW_AT_name("RunPositionProfile")
    7403                      .dwattr $C$DW$719, DW_AT_TI_symbol_name("_RunPositionProfile")
    7404                      .dwattr $C$DW$719, DW_AT_data_member_location[DW_OP_plus_uconst 0xe]
    7405                      .dwattr $C$DW$719, DW_AT_accessibility(DW_ACCESS_public)
    7406              
TMS320C2000 Assembler PC v15.12.3 Wed Nov 22 01:55:15 2017

Tools Copyright (c) 1996-2015 Texas Instruments Incorporated
C:\Users\wmj\AppData\Local\Temp\1239610                              PAGE  139

    7407              $C$DW$720       .dwtag  DW_TAG_member
    7408                      .dwattr $C$DW$720, DW_AT_type(*$C$DW$T$59)
    7409                      .dwattr $C$DW$720, DW_AT_name("getSensor")
    7410                      .dwattr $C$DW$720, DW_AT_TI_symbol_name("_getSensor")
    7411                      .dwattr $C$DW$720, DW_AT_data_member_location[DW_OP_plus_uconst 0xf]
    7412                      .dwattr $C$DW$720, DW_AT_accessibility(DW_ACCESS_public)
    7413              
    7414              $C$DW$721       .dwtag  DW_TAG_member
    7415                      .dwattr $C$DW$721, DW_AT_type(*$C$DW$T$59)
    7416                      .dwattr $C$DW$721, DW_AT_name("Flag_UseSpinTAC")
    7417                      .dwattr $C$DW$721, DW_AT_TI_symbol_name("_Flag_UseSpinTAC")
    7418                      .dwattr $C$DW$721, DW_AT_data_member_location[DW_OP_plus_uconst 0x10]
    7419                      .dwattr $C$DW$721, DW_AT_accessibility(DW_ACCESS_public)
    7420              
    7421              $C$DW$722       .dwtag  DW_TAG_member
    7422                      .dwattr $C$DW$722, DW_AT_type(*$C$DW$T$59)
    7423                      .dwattr $C$DW$722, DW_AT_name("Flag_MotorParamsEst")
    7424                      .dwattr $C$DW$722, DW_AT_TI_symbol_name("_Flag_MotorParamsEst")
    7425                      .dwattr $C$DW$722, DW_AT_data_member_location[DW_OP_plus_uconst 0x11]
    7426                      .dwattr $C$DW$722, DW_AT_accessibility(DW_ACCESS_public)
    7427              
    7428              $C$DW$723       .dwtag  DW_TAG_member
    7429                      .dwattr $C$DW$723, DW_AT_type(*$C$DW$T$140)
    7430                      .dwattr $C$DW$723, DW_AT_name("CtrlState")
    7431                      .dwattr $C$DW$723, DW_AT_TI_symbol_name("_CtrlState")
    7432                      .dwattr $C$DW$723, DW_AT_data_member_location[DW_OP_plus_uconst 0x12]
    7433                      .dwattr $C$DW$723, DW_AT_accessibility(DW_ACCESS_public)
    7434              
    7435              $C$DW$724       .dwtag  DW_TAG_member
    7436                      .dwattr $C$DW$724, DW_AT_type(*$C$DW$T$142)
    7437                      .dwattr $C$DW$724, DW_AT_name("EstState")
    7438                      .dwattr $C$DW$724, DW_AT_TI_symbol_name("_EstState")
    7439                      .dwattr $C$DW$724, DW_AT_data_member_location[DW_OP_plus_uconst 0x13]
    7440                      .dwattr $C$DW$724, DW_AT_accessibility(DW_ACCESS_public)
    7441              
    7442              $C$DW$725       .dwtag  DW_TAG_member
    7443                      .dwattr $C$DW$725, DW_AT_type(*$C$DW$T$144)
    7444                      .dwattr $C$DW$725, DW_AT_name("UserErrorCode")
    7445                      .dwattr $C$DW$725, DW_AT_TI_symbol_name("_UserErrorCode")
    7446                      .dwattr $C$DW$725, DW_AT_data_member_location[DW_OP_plus_uconst 0x14]
    7447                      .dwattr $C$DW$725, DW_AT_accessibility(DW_ACCESS_public)
    7448              
    7449              $C$DW$726       .dwtag  DW_TAG_member
    7450                      .dwattr $C$DW$726, DW_AT_type(*$C$DW$T$145)
    7451                      .dwattr $C$DW$726, DW_AT_name("CtrlVersion")
    7452                      .dwattr $C$DW$726, DW_AT_TI_symbol_name("_CtrlVersion")
    7453                      .dwattr $C$DW$726, DW_AT_data_member_location[DW_OP_plus_uconst 0x15]
    7454                      .dwattr $C$DW$726, DW_AT_accessibility(DW_ACCESS_public)
    7455              
    7456              $C$DW$727       .dwtag  DW_TAG_member
    7457                      .dwattr $C$DW$727, DW_AT_type(*$C$DW$T$37)
    7458                      .dwattr $C$DW$727, DW_AT_name("SpeedRef_krpm")
    7459                      .dwattr $C$DW$727, DW_AT_TI_symbol_name("_SpeedRef_krpm")
    7460                      .dwattr $C$DW$727, DW_AT_data_member_location[DW_OP_plus_uconst 0x1a]
    7461                      .dwattr $C$DW$727, DW_AT_accessibility(DW_ACCESS_public)
TMS320C2000 Assembler PC v15.12.3 Wed Nov 22 01:55:15 2017

Tools Copyright (c) 1996-2015 Texas Instruments Incorporated
C:\Users\wmj\AppData\Local\Temp\1239610                              PAGE  140

    7462              
    7463              $C$DW$728       .dwtag  DW_TAG_member
    7464                      .dwattr $C$DW$728, DW_AT_type(*$C$DW$T$37)
    7465                      .dwattr $C$DW$728, DW_AT_name("MaxAccel_krpmps")
    7466                      .dwattr $C$DW$728, DW_AT_TI_symbol_name("_MaxAccel_krpmps")
    7467                      .dwattr $C$DW$728, DW_AT_data_member_location[DW_OP_plus_uconst 0x1c]
    7468                      .dwattr $C$DW$728, DW_AT_accessibility(DW_ACCESS_public)
    7469              
    7470              $C$DW$729       .dwtag  DW_TAG_member
    7471                      .dwattr $C$DW$729, DW_AT_type(*$C$DW$T$37)
    7472                      .dwattr $C$DW$729, DW_AT_name("MaxDecel_krpmps")
    7473                      .dwattr $C$DW$729, DW_AT_TI_symbol_name("_MaxDecel_krpmps")
    7474                      .dwattr $C$DW$729, DW_AT_data_member_location[DW_OP_plus_uconst 0x1e]
    7475                      .dwattr $C$DW$729, DW_AT_accessibility(DW_ACCESS_public)
    7476              
    7477              $C$DW$730       .dwtag  DW_TAG_member
    7478                      .dwattr $C$DW$730, DW_AT_type(*$C$DW$T$146)
    7479                      .dwattr $C$DW$730, DW_AT_name("MaxJrk_krpmps2")
    7480                      .dwattr $C$DW$730, DW_AT_TI_symbol_name("_MaxJrk_krpmps2")
    7481                      .dwattr $C$DW$730, DW_AT_data_member_location[DW_OP_plus_uconst 0x20]
    7482                      .dwattr $C$DW$730, DW_AT_accessibility(DW_ACCESS_public)
    7483              
    7484              $C$DW$731       .dwtag  DW_TAG_member
    7485                      .dwattr $C$DW$731, DW_AT_type(*$C$DW$T$37)
    7486                      .dwattr $C$DW$731, DW_AT_name("MaxCurrentRatio_pu")
    7487                      .dwattr $C$DW$731, DW_AT_TI_symbol_name("_MaxCurrentRatio_pu")
    7488                      .dwattr $C$DW$731, DW_AT_data_member_location[DW_OP_plus_uconst 0x22]
    7489                      .dwattr $C$DW$731, DW_AT_accessibility(DW_ACCESS_public)
    7490              
    7491              $C$DW$732       .dwtag  DW_TAG_member
    7492                      .dwattr $C$DW$732, DW_AT_type(*$C$DW$T$37)
    7493                      .dwattr $C$DW$732, DW_AT_name("Speed_krpm")
    7494                      .dwattr $C$DW$732, DW_AT_TI_symbol_name("_Speed_krpm")
    7495                      .dwattr $C$DW$732, DW_AT_data_member_location[DW_OP_plus_uconst 0x24]
    7496                      .dwattr $C$DW$732, DW_AT_accessibility(DW_ACCESS_public)
    7497              
    7498              $C$DW$733       .dwtag  DW_TAG_member
    7499                      .dwattr $C$DW$733, DW_AT_type(*$C$DW$T$37)
    7500                      .dwattr $C$DW$733, DW_AT_name("Flux_Wb")
    7501                      .dwattr $C$DW$733, DW_AT_TI_symbol_name("_Flux_Wb")
    7502                      .dwattr $C$DW$733, DW_AT_data_member_location[DW_OP_plus_uconst 0x26]
    7503                      .dwattr $C$DW$733, DW_AT_accessibility(DW_ACCESS_public)
    7504              
    7505              $C$DW$734       .dwtag  DW_TAG_member
    7506                      .dwattr $C$DW$734, DW_AT_type(*$C$DW$T$37)
    7507                      .dwattr $C$DW$734, DW_AT_name("Torque_Nm")
    7508                      .dwattr $C$DW$734, DW_AT_TI_symbol_name("_Torque_Nm")
    7509                      .dwattr $C$DW$734, DW_AT_data_member_location[DW_OP_plus_uconst 0x28]
    7510                      .dwattr $C$DW$734, DW_AT_accessibility(DW_ACCESS_public)
    7511              
    7512              $C$DW$735       .dwtag  DW_TAG_member
    7513                      .dwattr $C$DW$735, DW_AT_type(*$C$DW$T$147)
    7514                      .dwattr $C$DW$735, DW_AT_name("Rr_Ohm")
    7515                      .dwattr $C$DW$735, DW_AT_TI_symbol_name("_Rr_Ohm")
    7516                      .dwattr $C$DW$735, DW_AT_data_member_location[DW_OP_plus_uconst 0x2a]
TMS320C2000 Assembler PC v15.12.3 Wed Nov 22 01:55:15 2017

Tools Copyright (c) 1996-2015 Texas Instruments Incorporated
C:\Users\wmj\AppData\Local\Temp\1239610                              PAGE  141

    7517                      .dwattr $C$DW$735, DW_AT_accessibility(DW_ACCESS_public)
    7518              
    7519              $C$DW$736       .dwtag  DW_TAG_member
    7520                      .dwattr $C$DW$736, DW_AT_type(*$C$DW$T$147)
    7521                      .dwattr $C$DW$736, DW_AT_name("Rs_Ohm")
    7522                      .dwattr $C$DW$736, DW_AT_TI_symbol_name("_Rs_Ohm")
    7523                      .dwattr $C$DW$736, DW_AT_data_member_location[DW_OP_plus_uconst 0x2c]
    7524                      .dwattr $C$DW$736, DW_AT_accessibility(DW_ACCESS_public)
    7525              
    7526              $C$DW$737       .dwtag  DW_TAG_member
    7527                      .dwattr $C$DW$737, DW_AT_type(*$C$DW$T$147)
    7528                      .dwattr $C$DW$737, DW_AT_name("Lsd_H")
    7529                      .dwattr $C$DW$737, DW_AT_TI_symbol_name("_Lsd_H")
    7530                      .dwattr $C$DW$737, DW_AT_data_member_location[DW_OP_plus_uconst 0x2e]
    7531                      .dwattr $C$DW$737, DW_AT_accessibility(DW_ACCESS_public)
    7532              
    7533              $C$DW$738       .dwtag  DW_TAG_member
    7534                      .dwattr $C$DW$738, DW_AT_type(*$C$DW$T$147)
    7535                      .dwattr $C$DW$738, DW_AT_name("Lsq_H")
    7536                      .dwattr $C$DW$738, DW_AT_TI_symbol_name("_Lsq_H")
    7537                      .dwattr $C$DW$738, DW_AT_data_member_location[DW_OP_plus_uconst 0x30]
    7538                      .dwattr $C$DW$738, DW_AT_accessibility(DW_ACCESS_public)
    7539              
    7540              $C$DW$739       .dwtag  DW_TAG_member
    7541                      .dwattr $C$DW$739, DW_AT_type(*$C$DW$T$147)
    7542                      .dwattr $C$DW$739, DW_AT_name("MaxCurr_A")
    7543                      .dwattr $C$DW$739, DW_AT_TI_symbol_name("_MaxCurr_A")
    7544                      .dwattr $C$DW$739, DW_AT_data_member_location[DW_OP_plus_uconst 0x32]
    7545                      .dwattr $C$DW$739, DW_AT_accessibility(DW_ACCESS_public)
    7546              
    7547              $C$DW$740       .dwtag  DW_TAG_member
    7548                      .dwattr $C$DW$740, DW_AT_type(*$C$DW$T$147)
    7549                      .dwattr $C$DW$740, DW_AT_name("MagnCurr_A")
    7550                      .dwattr $C$DW$740, DW_AT_TI_symbol_name("_MagnCurr_A")
    7551                      .dwattr $C$DW$740, DW_AT_data_member_location[DW_OP_plus_uconst 0x34]
    7552                      .dwattr $C$DW$740, DW_AT_accessibility(DW_ACCESS_public)
    7553              
    7554              $C$DW$741       .dwtag  DW_TAG_member
    7555                      .dwattr $C$DW$741, DW_AT_type(*$C$DW$T$147)
    7556                      .dwattr $C$DW$741, DW_AT_name("Flux_VpHz")
    7557                      .dwattr $C$DW$741, DW_AT_TI_symbol_name("_Flux_VpHz")
    7558                      .dwattr $C$DW$741, DW_AT_data_member_location[DW_OP_plus_uconst 0x36]
    7559                      .dwattr $C$DW$741, DW_AT_accessibility(DW_ACCESS_public)
    7560              
    7561              $C$DW$742       .dwtag  DW_TAG_member
    7562                      .dwattr $C$DW$742, DW_AT_type(*$C$DW$T$147)
    7563                      .dwattr $C$DW$742, DW_AT_name("RsOnLine_Ohm")
    7564                      .dwattr $C$DW$742, DW_AT_TI_symbol_name("_RsOnLine_Ohm")
    7565                      .dwattr $C$DW$742, DW_AT_data_member_location[DW_OP_plus_uconst 0x38]
    7566                      .dwattr $C$DW$742, DW_AT_accessibility(DW_ACCESS_public)
    7567              
    7568              $C$DW$743       .dwtag  DW_TAG_member
    7569                      .dwattr $C$DW$743, DW_AT_type(*$C$DW$T$37)
    7570                      .dwattr $C$DW$743, DW_AT_name("OverModulation")
    7571                      .dwattr $C$DW$743, DW_AT_TI_symbol_name("_OverModulation")
TMS320C2000 Assembler PC v15.12.3 Wed Nov 22 01:55:15 2017

Tools Copyright (c) 1996-2015 Texas Instruments Incorporated
C:\Users\wmj\AppData\Local\Temp\1239610                              PAGE  142

    7572                      .dwattr $C$DW$743, DW_AT_data_member_location[DW_OP_plus_uconst 0x3a]
    7573                      .dwattr $C$DW$743, DW_AT_accessibility(DW_ACCESS_public)
    7574              
    7575              $C$DW$744       .dwtag  DW_TAG_member
    7576                      .dwattr $C$DW$744, DW_AT_type(*$C$DW$T$37)
    7577                      .dwattr $C$DW$744, DW_AT_name("RsOnLineCurrent_A")
    7578                      .dwattr $C$DW$744, DW_AT_TI_symbol_name("_RsOnLineCurrent_A")
    7579                      .dwattr $C$DW$744, DW_AT_data_member_location[DW_OP_plus_uconst 0x3c]
    7580                      .dwattr $C$DW$744, DW_AT_accessibility(DW_ACCESS_public)
    7581              
    7582              $C$DW$745       .dwtag  DW_TAG_member
    7583                      .dwattr $C$DW$745, DW_AT_type(*$C$DW$T$37)
    7584                      .dwattr $C$DW$745, DW_AT_name("Kp_Idq")
    7585                      .dwattr $C$DW$745, DW_AT_TI_symbol_name("_Kp_Idq")
    7586                      .dwattr $C$DW$745, DW_AT_data_member_location[DW_OP_plus_uconst 0x3e]
    7587                      .dwattr $C$DW$745, DW_AT_accessibility(DW_ACCESS_public)
    7588              
    7589              $C$DW$746       .dwtag  DW_TAG_member
    7590                      .dwattr $C$DW$746, DW_AT_type(*$C$DW$T$37)
    7591                      .dwattr $C$DW$746, DW_AT_name("Ki_Idq")
    7592                      .dwattr $C$DW$746, DW_AT_TI_symbol_name("_Ki_Idq")
    7593                      .dwattr $C$DW$746, DW_AT_data_member_location[DW_OP_plus_uconst 0x40]
    7594                      .dwattr $C$DW$746, DW_AT_accessibility(DW_ACCESS_public)
    7595              
    7596              $C$DW$747       .dwtag  DW_TAG_member
    7597                      .dwattr $C$DW$747, DW_AT_type(*$C$DW$T$37)
    7598                      .dwattr $C$DW$747, DW_AT_name("Kp_spd")
    7599                      .dwattr $C$DW$747, DW_AT_TI_symbol_name("_Kp_spd")
    7600                      .dwattr $C$DW$747, DW_AT_data_member_location[DW_OP_plus_uconst 0x42]
    7601                      .dwattr $C$DW$747, DW_AT_accessibility(DW_ACCESS_public)
    7602              
    7603              $C$DW$748       .dwtag  DW_TAG_member
    7604                      .dwattr $C$DW$748, DW_AT_type(*$C$DW$T$37)
    7605                      .dwattr $C$DW$748, DW_AT_name("Ki_spd")
    7606                      .dwattr $C$DW$748, DW_AT_TI_symbol_name("_Ki_spd")
    7607                      .dwattr $C$DW$748, DW_AT_data_member_location[DW_OP_plus_uconst 0x44]
    7608                      .dwattr $C$DW$748, DW_AT_accessibility(DW_ACCESS_public)
    7609              
    7610              $C$DW$749       .dwtag  DW_TAG_member
    7611                      .dwattr $C$DW$749, DW_AT_type(*$C$DW$T$37)
    7612                      .dwattr $C$DW$749, DW_AT_name("Vd")
    7613                      .dwattr $C$DW$749, DW_AT_TI_symbol_name("_Vd")
    7614                      .dwattr $C$DW$749, DW_AT_data_member_location[DW_OP_plus_uconst 0x46]
    7615                      .dwattr $C$DW$749, DW_AT_accessibility(DW_ACCESS_public)
    7616              
    7617              $C$DW$750       .dwtag  DW_TAG_member
    7618                      .dwattr $C$DW$750, DW_AT_type(*$C$DW$T$37)
    7619                      .dwattr $C$DW$750, DW_AT_name("Vq")
    7620                      .dwattr $C$DW$750, DW_AT_TI_symbol_name("_Vq")
    7621                      .dwattr $C$DW$750, DW_AT_data_member_location[DW_OP_plus_uconst 0x48]
    7622                      .dwattr $C$DW$750, DW_AT_accessibility(DW_ACCESS_public)
    7623              
    7624              $C$DW$751       .dwtag  DW_TAG_member
    7625                      .dwattr $C$DW$751, DW_AT_type(*$C$DW$T$37)
    7626                      .dwattr $C$DW$751, DW_AT_name("Vs")
TMS320C2000 Assembler PC v15.12.3 Wed Nov 22 01:55:15 2017

Tools Copyright (c) 1996-2015 Texas Instruments Incorporated
C:\Users\wmj\AppData\Local\Temp\1239610                              PAGE  143

    7627                      .dwattr $C$DW$751, DW_AT_TI_symbol_name("_Vs")
    7628                      .dwattr $C$DW$751, DW_AT_data_member_location[DW_OP_plus_uconst 0x4a]
    7629                      .dwattr $C$DW$751, DW_AT_accessibility(DW_ACCESS_public)
    7630              
    7631              $C$DW$752       .dwtag  DW_TAG_member
    7632                      .dwattr $C$DW$752, DW_AT_type(*$C$DW$T$37)
    7633                      .dwattr $C$DW$752, DW_AT_name("Id_A")
    7634                      .dwattr $C$DW$752, DW_AT_TI_symbol_name("_Id_A")
    7635                      .dwattr $C$DW$752, DW_AT_data_member_location[DW_OP_plus_uconst 0x4c]
    7636                      .dwattr $C$DW$752, DW_AT_accessibility(DW_ACCESS_public)
    7637              
    7638              $C$DW$753       .dwtag  DW_TAG_member
    7639                      .dwattr $C$DW$753, DW_AT_type(*$C$DW$T$37)
    7640                      .dwattr $C$DW$753, DW_AT_name("Iq_A")
    7641                      .dwattr $C$DW$753, DW_AT_TI_symbol_name("_Iq_A")
    7642                      .dwattr $C$DW$753, DW_AT_data_member_location[DW_OP_plus_uconst 0x4e]
    7643                      .dwattr $C$DW$753, DW_AT_accessibility(DW_ACCESS_public)
    7644              
    7645              $C$DW$754       .dwtag  DW_TAG_member
    7646                      .dwattr $C$DW$754, DW_AT_type(*$C$DW$T$37)
    7647                      .dwattr $C$DW$754, DW_AT_name("Is_A")
    7648                      .dwattr $C$DW$754, DW_AT_TI_symbol_name("_Is_A")
    7649                      .dwattr $C$DW$754, DW_AT_data_member_location[DW_OP_plus_uconst 0x50]
    7650                      .dwattr $C$DW$754, DW_AT_accessibility(DW_ACCESS_public)
    7651              
    7652              $C$DW$755       .dwtag  DW_TAG_member
    7653                      .dwattr $C$DW$755, DW_AT_type(*$C$DW$T$37)
    7654                      .dwattr $C$DW$755, DW_AT_name("IdRef_A")
    7655                      .dwattr $C$DW$755, DW_AT_TI_symbol_name("_IdRef_A")
    7656                      .dwattr $C$DW$755, DW_AT_data_member_location[DW_OP_plus_uconst 0x52]
    7657                      .dwattr $C$DW$755, DW_AT_accessibility(DW_ACCESS_public)
    7658              
    7659              $C$DW$756       .dwtag  DW_TAG_member
    7660                      .dwattr $C$DW$756, DW_AT_type(*$C$DW$T$37)
    7661                      .dwattr $C$DW$756, DW_AT_name("IqRef_A")
    7662                      .dwattr $C$DW$756, DW_AT_TI_symbol_name("_IqRef_A")
    7663                      .dwattr $C$DW$756, DW_AT_data_member_location[DW_OP_plus_uconst 0x54]
    7664                      .dwattr $C$DW$756, DW_AT_accessibility(DW_ACCESS_public)
    7665              
    7666              $C$DW$757       .dwtag  DW_TAG_member
    7667                      .dwattr $C$DW$757, DW_AT_type(*$C$DW$T$37)
    7668                      .dwattr $C$DW$757, DW_AT_name("Ibrake_Ratio")
    7669                      .dwattr $C$DW$757, DW_AT_TI_symbol_name("_Ibrake_Ratio")
    7670                      .dwattr $C$DW$757, DW_AT_data_member_location[DW_OP_plus_uconst 0x56]
    7671                      .dwattr $C$DW$757, DW_AT_accessibility(DW_ACCESS_public)
    7672              
    7673              $C$DW$758       .dwtag  DW_TAG_member
    7674                      .dwattr $C$DW$758, DW_AT_type(*$C$DW$T$77)
    7675                      .dwattr $C$DW$758, DW_AT_name("I_bias")
    7676                      .dwattr $C$DW$758, DW_AT_TI_symbol_name("_I_bias")
    7677                      .dwattr $C$DW$758, DW_AT_data_member_location[DW_OP_plus_uconst 0x58]
    7678                      .dwattr $C$DW$758, DW_AT_accessibility(DW_ACCESS_public)
    7679              
    7680              $C$DW$759       .dwtag  DW_TAG_member
    7681                      .dwattr $C$DW$759, DW_AT_type(*$C$DW$T$77)
TMS320C2000 Assembler PC v15.12.3 Wed Nov 22 01:55:15 2017

Tools Copyright (c) 1996-2015 Texas Instruments Incorporated
C:\Users\wmj\AppData\Local\Temp\1239610                              PAGE  144

    7682                      .dwattr $C$DW$759, DW_AT_name("V_bias")
    7683                      .dwattr $C$DW$759, DW_AT_TI_symbol_name("_V_bias")
    7684                      .dwattr $C$DW$759, DW_AT_data_member_location[DW_OP_plus_uconst 0x5e]
    7685                      .dwattr $C$DW$759, DW_AT_accessibility(DW_ACCESS_public)
    7686              
    7687              $C$DW$760       .dwtag  DW_TAG_member
    7688                      .dwattr $C$DW$760, DW_AT_type(*$C$DW$T$37)
    7689                      .dwattr $C$DW$760, DW_AT_name("Sensor0_Value")
    7690                      .dwattr $C$DW$760, DW_AT_TI_symbol_name("_Sensor0_Value")
    7691                      .dwattr $C$DW$760, DW_AT_data_member_location[DW_OP_plus_uconst 0x64]
    7692                      .dwattr $C$DW$760, DW_AT_accessibility(DW_ACCESS_public)
    7693              
    7694              $C$DW$761       .dwtag  DW_TAG_member
    7695                      .dwattr $C$DW$761, DW_AT_type(*$C$DW$T$37)
    7696                      .dwattr $C$DW$761, DW_AT_name("Sensor1_Value")
    7697                      .dwattr $C$DW$761, DW_AT_TI_symbol_name("_Sensor1_Value")
    7698                      .dwattr $C$DW$761, DW_AT_data_member_location[DW_OP_plus_uconst 0x66]
    7699                      .dwattr $C$DW$761, DW_AT_accessibility(DW_ACCESS_public)
    7700              
    7701              $C$DW$762       .dwtag  DW_TAG_member
    7702                      .dwattr $C$DW$762, DW_AT_type(*$C$DW$T$37)
    7703                      .dwattr $C$DW$762, DW_AT_name("ZeroPoint_Value")
    7704                      .dwattr $C$DW$762, DW_AT_TI_symbol_name("_ZeroPoint_Value")
    7705                      .dwattr $C$DW$762, DW_AT_data_member_location[DW_OP_plus_uconst 0x68]
    7706                      .dwattr $C$DW$762, DW_AT_accessibility(DW_ACCESS_public)
    7707              
    7708              $C$DW$763       .dwtag  DW_TAG_member
    7709                      .dwattr $C$DW$763, DW_AT_type(*$C$DW$T$146)
    7710                      .dwattr $C$DW$763, DW_AT_name("ChipTemp")
    7711                      .dwattr $C$DW$763, DW_AT_TI_symbol_name("_ChipTemp")
    7712                      .dwattr $C$DW$763, DW_AT_data_member_location[DW_OP_plus_uconst 0x6a]
    7713                      .dwattr $C$DW$763, DW_AT_accessibility(DW_ACCESS_public)
    7714              
    7715              $C$DW$764       .dwtag  DW_TAG_member
    7716                      .dwattr $C$DW$764, DW_AT_type(*$C$DW$T$37)
    7717                      .dwattr $C$DW$764, DW_AT_name("VdcBus_kV")
    7718                      .dwattr $C$DW$764, DW_AT_TI_symbol_name("_VdcBus_kV")
    7719                      .dwattr $C$DW$764, DW_AT_data_member_location[DW_OP_plus_uconst 0x6c]
    7720                      .dwattr $C$DW$764, DW_AT_accessibility(DW_ACCESS_public)
    7721              
    7722              $C$DW$765       .dwtag  DW_TAG_member
    7723                      .dwattr $C$DW$765, DW_AT_type(*$C$DW$T$21)
    7724                      .dwattr $C$DW$765, DW_AT_name("MotorID")
    7725                      .dwattr $C$DW$765, DW_AT_TI_symbol_name("_MotorID")
    7726                      .dwattr $C$DW$765, DW_AT_data_member_location[DW_OP_plus_uconst 0x6e]
    7727                      .dwattr $C$DW$765, DW_AT_accessibility(DW_ACCESS_public)
    7728              
    7729                      .dwendtag $C$DW$T$148
    7730              
    7731              $C$DW$T$206     .dwtag  DW_TAG_typedef
    7732                      .dwattr $C$DW$T$206, DW_AT_name("MOTOR_Obj")
    7733                      .dwattr $C$DW$T$206, DW_AT_type(*$C$DW$T$148)
    7734                      .dwattr $C$DW$T$206, DW_AT_language(DW_LANG_C)
    7735              
    7736              $C$DW$T$40      .dwtag  DW_TAG_pointer_type
TMS320C2000 Assembler PC v15.12.3 Wed Nov 22 01:55:15 2017

Tools Copyright (c) 1996-2015 Texas Instruments Incorporated
C:\Users\wmj\AppData\Local\Temp\1239610                              PAGE  145

    7737                      .dwattr $C$DW$T$40, DW_AT_type(*$C$DW$T$148)
    7738                      .dwattr $C$DW$T$40, DW_AT_address_class(0x20)
    7739              
    7740              $C$DW$T$41      .dwtag  DW_TAG_typedef
    7741                      .dwattr $C$DW$T$41, DW_AT_name("MOTOR_Handle")
    7742                      .dwattr $C$DW$T$41, DW_AT_type(*$C$DW$T$40)
    7743                      .dwattr $C$DW$T$41, DW_AT_language(DW_LANG_C)
    7744              
    7745              $C$DW$766       .dwtag  DW_TAG_TI_far_type
    7746                      .dwattr $C$DW$766, DW_AT_type(*$C$DW$T$41)
    7747              
    7748              $C$DW$T$207     .dwtag  DW_TAG_const_type
    7749                      .dwattr $C$DW$T$207, DW_AT_type(*$C$DW$766)
    7750              
    7751              
    7752              $C$DW$T$152     .dwtag  DW_TAG_structure_type
    7753                      .dwattr $C$DW$T$152, DW_AT_name("_OFFSET_")
    7754                      .dwattr $C$DW$T$152, DW_AT_byte_size(0x10)
    7755              $C$DW$767       .dwtag  DW_TAG_member
    7756                      .dwattr $C$DW$767, DW_AT_type(*$C$DW$T$37)
    7757                      .dwattr $C$DW$767, DW_AT_name("value")
    7758                      .dwattr $C$DW$767, DW_AT_TI_symbol_name("_value")
    7759                      .dwattr $C$DW$767, DW_AT_data_member_location[DW_OP_plus_uconst 0x0]
    7760                      .dwattr $C$DW$767, DW_AT_accessibility(DW_ACCESS_public)
    7761              
    7762              $C$DW$768       .dwtag  DW_TAG_member
    7763                      .dwattr $C$DW$768, DW_AT_type(*$C$DW$T$37)
    7764                      .dwattr $C$DW$768, DW_AT_name("bias")
    7765                      .dwattr $C$DW$768, DW_AT_TI_symbol_name("_bias")
    7766                      .dwattr $C$DW$768, DW_AT_data_member_location[DW_OP_plus_uconst 0x2]
    7767                      .dwattr $C$DW$768, DW_AT_accessibility(DW_ACCESS_public)
    7768              
    7769              $C$DW$769       .dwtag  DW_TAG_member
    7770                      .dwattr $C$DW$769, DW_AT_type(*$C$DW$T$149)
    7771                      .dwattr $C$DW$769, DW_AT_name("filter")
    7772                      .dwattr $C$DW$769, DW_AT_TI_symbol_name("_filter")
    7773                      .dwattr $C$DW$769, DW_AT_data_member_location[DW_OP_plus_uconst 0x4]
    7774                      .dwattr $C$DW$769, DW_AT_accessibility(DW_ACCESS_public)
    7775              
    7776              $C$DW$770       .dwtag  DW_TAG_member
    7777                      .dwattr $C$DW$770, DW_AT_type(*$C$DW$T$151)
    7778                      .dwattr $C$DW$770, DW_AT_name("filterHandle")
    7779                      .dwattr $C$DW$770, DW_AT_TI_symbol_name("_filterHandle")
    7780                      .dwattr $C$DW$770, DW_AT_data_member_location[DW_OP_plus_uconst 0xe]
    7781                      .dwattr $C$DW$770, DW_AT_accessibility(DW_ACCESS_public)
    7782              
    7783                      .dwendtag $C$DW$T$152
    7784              
    7785              $C$DW$T$92      .dwtag  DW_TAG_typedef
    7786                      .dwattr $C$DW$T$92, DW_AT_name("OFFSET_Obj")
    7787                      .dwattr $C$DW$T$92, DW_AT_type(*$C$DW$T$152)
    7788                      .dwattr $C$DW$T$92, DW_AT_language(DW_LANG_C)
    7789              
    7790              
    7791              $C$DW$T$93      .dwtag  DW_TAG_array_type
TMS320C2000 Assembler PC v15.12.3 Wed Nov 22 01:55:15 2017

Tools Copyright (c) 1996-2015 Texas Instruments Incorporated
C:\Users\wmj\AppData\Local\Temp\1239610                              PAGE  146

    7792                      .dwattr $C$DW$T$93, DW_AT_type(*$C$DW$T$92)
    7793                      .dwattr $C$DW$T$93, DW_AT_language(DW_LANG_C)
    7794                      .dwattr $C$DW$T$93, DW_AT_byte_size(0x30)
    7795              $C$DW$771       .dwtag  DW_TAG_subrange_type
    7796                      .dwattr $C$DW$771, DW_AT_upper_bound(0x02)
    7797              
    7798                      .dwendtag $C$DW$T$93
    7799              
    7800              
    7801              $C$DW$T$20      .dwtag  DW_TAG_structure_type
    7802                      .dwattr $C$DW$T$20, DW_AT_name("_OFFSET_Obj_")
    7803                      .dwattr $C$DW$T$20, DW_AT_declaration
    7804                      .dwendtag $C$DW$T$20
    7805              
    7806              $C$DW$T$89      .dwtag  DW_TAG_pointer_type
    7807                      .dwattr $C$DW$T$89, DW_AT_type(*$C$DW$T$20)
    7808                      .dwattr $C$DW$T$89, DW_AT_address_class(0x20)
    7809              
    7810              $C$DW$T$90      .dwtag  DW_TAG_typedef
    7811                      .dwattr $C$DW$T$90, DW_AT_name("OFFSET_Handle")
    7812                      .dwattr $C$DW$T$90, DW_AT_type(*$C$DW$T$89)
    7813                      .dwattr $C$DW$T$90, DW_AT_language(DW_LANG_C)
    7814              
    7815              
    7816              $C$DW$T$91      .dwtag  DW_TAG_array_type
    7817                      .dwattr $C$DW$T$91, DW_AT_type(*$C$DW$T$90)
    7818                      .dwattr $C$DW$T$91, DW_AT_language(DW_LANG_C)
    7819                      .dwattr $C$DW$T$91, DW_AT_byte_size(0x06)
    7820              $C$DW$772       .dwtag  DW_TAG_subrange_type
    7821                      .dwattr $C$DW$772, DW_AT_upper_bound(0x02)
    7822              
    7823                      .dwendtag $C$DW$T$91
    7824              
    7825              
    7826              $C$DW$T$153     .dwtag  DW_TAG_structure_type
    7827                      .dwattr $C$DW$T$153, DW_AT_name("_OSC_Obj_")
    7828                      .dwattr $C$DW$T$153, DW_AT_byte_size(0x03)
    7829              $C$DW$773       .dwtag  DW_TAG_member
    7830                      .dwattr $C$DW$773, DW_AT_type(*$C$DW$T$22)
    7831                      .dwattr $C$DW$773, DW_AT_name("INTOSC1TRIM")
    7832                      .dwattr $C$DW$773, DW_AT_TI_symbol_name("_INTOSC1TRIM")
    7833                      .dwattr $C$DW$773, DW_AT_data_member_location[DW_OP_plus_uconst 0x0]
    7834                      .dwattr $C$DW$773, DW_AT_accessibility(DW_ACCESS_public)
    7835              
    7836              $C$DW$774       .dwtag  DW_TAG_member
    7837                      .dwattr $C$DW$774, DW_AT_type(*$C$DW$T$22)
    7838                      .dwattr $C$DW$774, DW_AT_name("rsvd_1")
    7839                      .dwattr $C$DW$774, DW_AT_TI_symbol_name("_rsvd_1")
    7840                      .dwattr $C$DW$774, DW_AT_data_member_location[DW_OP_plus_uconst 0x1]
    7841                      .dwattr $C$DW$774, DW_AT_accessibility(DW_ACCESS_public)
    7842              
    7843              $C$DW$775       .dwtag  DW_TAG_member
    7844                      .dwattr $C$DW$775, DW_AT_type(*$C$DW$T$22)
    7845                      .dwattr $C$DW$775, DW_AT_name("INTOSC2TRIM")
    7846                      .dwattr $C$DW$775, DW_AT_TI_symbol_name("_INTOSC2TRIM")
TMS320C2000 Assembler PC v15.12.3 Wed Nov 22 01:55:15 2017

Tools Copyright (c) 1996-2015 Texas Instruments Incorporated
C:\Users\wmj\AppData\Local\Temp\1239610                              PAGE  147

    7847                      .dwattr $C$DW$775, DW_AT_data_member_location[DW_OP_plus_uconst 0x2]
    7848                      .dwattr $C$DW$775, DW_AT_accessibility(DW_ACCESS_public)
    7849              
    7850                      .dwendtag $C$DW$T$153
    7851              
    7852              $C$DW$T$94      .dwtag  DW_TAG_pointer_type
    7853                      .dwattr $C$DW$T$94, DW_AT_type(*$C$DW$T$153)
    7854                      .dwattr $C$DW$T$94, DW_AT_address_class(0x20)
    7855              
    7856              $C$DW$T$95      .dwtag  DW_TAG_typedef
    7857                      .dwattr $C$DW$T$95, DW_AT_name("OSC_Handle")
    7858                      .dwattr $C$DW$T$95, DW_AT_type(*$C$DW$T$94)
    7859                      .dwattr $C$DW$T$95, DW_AT_language(DW_LANG_C)
    7860              
    7861              
    7862              $C$DW$T$154     .dwtag  DW_TAG_structure_type
    7863                      .dwattr $C$DW$T$154, DW_AT_name("_PIE_IERIFR_t")
    7864                      .dwattr $C$DW$T$154, DW_AT_byte_size(0x02)
    7865              $C$DW$776       .dwtag  DW_TAG_member
    7866                      .dwattr $C$DW$776, DW_AT_type(*$C$DW$T$22)
    7867                      .dwattr $C$DW$776, DW_AT_name("IER")
    7868                      .dwattr $C$DW$776, DW_AT_TI_symbol_name("_IER")
    7869                      .dwattr $C$DW$776, DW_AT_data_member_location[DW_OP_plus_uconst 0x0]
    7870                      .dwattr $C$DW$776, DW_AT_accessibility(DW_ACCESS_public)
    7871              
    7872              $C$DW$777       .dwtag  DW_TAG_member
    7873                      .dwattr $C$DW$777, DW_AT_type(*$C$DW$T$22)
    7874                      .dwattr $C$DW$777, DW_AT_name("IFR")
    7875                      .dwattr $C$DW$777, DW_AT_TI_symbol_name("_IFR")
    7876                      .dwattr $C$DW$777, DW_AT_data_member_location[DW_OP_plus_uconst 0x1]
    7877                      .dwattr $C$DW$777, DW_AT_accessibility(DW_ACCESS_public)
    7878              
    7879                      .dwendtag $C$DW$T$154
    7880              
    7881              $C$DW$T$155     .dwtag  DW_TAG_typedef
    7882                      .dwattr $C$DW$T$155, DW_AT_name("PIE_IERIFR_t")
    7883                      .dwattr $C$DW$T$155, DW_AT_type(*$C$DW$T$154)
    7884                      .dwattr $C$DW$T$155, DW_AT_language(DW_LANG_C)
    7885              
    7886              $C$DW$778       .dwtag  DW_TAG_TI_far_type
    7887                      .dwattr $C$DW$778, DW_AT_type(*$C$DW$T$155)
    7888              
    7889              $C$DW$T$156     .dwtag  DW_TAG_volatile_type
    7890                      .dwattr $C$DW$T$156, DW_AT_type(*$C$DW$778)
    7891              
    7892              
    7893              $C$DW$T$157     .dwtag  DW_TAG_array_type
    7894                      .dwattr $C$DW$T$157, DW_AT_type(*$C$DW$T$156)
    7895                      .dwattr $C$DW$T$157, DW_AT_language(DW_LANG_C)
    7896                      .dwattr $C$DW$T$157, DW_AT_byte_size(0x18)
    7897              $C$DW$779       .dwtag  DW_TAG_subrange_type
    7898                      .dwattr $C$DW$779, DW_AT_upper_bound(0x0b)
    7899              
    7900                      .dwendtag $C$DW$T$157
    7901              
TMS320C2000 Assembler PC v15.12.3 Wed Nov 22 01:55:15 2017

Tools Copyright (c) 1996-2015 Texas Instruments Incorporated
C:\Users\wmj\AppData\Local\Temp\1239610                              PAGE  148

    7902              
    7903              $C$DW$T$164     .dwtag  DW_TAG_structure_type
    7904                      .dwattr $C$DW$T$164, DW_AT_name("_PIE_Obj_")
    7905                      .dwattr $C$DW$T$164, DW_AT_byte_size(0x639c)
    7906              $C$DW$780       .dwtag  DW_TAG_member
    7907                      .dwattr $C$DW$780, DW_AT_type(*$C$DW$T$22)
    7908                      .dwattr $C$DW$780, DW_AT_name("PIECTRL")
    7909                      .dwattr $C$DW$780, DW_AT_TI_symbol_name("_PIECTRL")
    7910                      .dwattr $C$DW$780, DW_AT_data_member_location[DW_OP_plus_uconst 0x0]
    7911                      .dwattr $C$DW$780, DW_AT_accessibility(DW_ACCESS_public)
    7912              
    7913              $C$DW$781       .dwtag  DW_TAG_member
    7914                      .dwattr $C$DW$781, DW_AT_type(*$C$DW$T$22)
    7915                      .dwattr $C$DW$781, DW_AT_name("PIEACK")
    7916                      .dwattr $C$DW$781, DW_AT_TI_symbol_name("_PIEACK")
    7917                      .dwattr $C$DW$781, DW_AT_data_member_location[DW_OP_plus_uconst 0x1]
    7918                      .dwattr $C$DW$781, DW_AT_accessibility(DW_ACCESS_public)
    7919              
    7920              $C$DW$782       .dwtag  DW_TAG_member
    7921                      .dwattr $C$DW$782, DW_AT_type(*$C$DW$T$157)
    7922                      .dwattr $C$DW$782, DW_AT_name("PIEIER_PIEIFR")
    7923                      .dwattr $C$DW$782, DW_AT_TI_symbol_name("_PIEIER_PIEIFR")
    7924                      .dwattr $C$DW$782, DW_AT_data_member_location[DW_OP_plus_uconst 0x2]
    7925                      .dwattr $C$DW$782, DW_AT_accessibility(DW_ACCESS_public)
    7926              
    7927              $C$DW$783       .dwtag  DW_TAG_member
    7928                      .dwattr $C$DW$783, DW_AT_type(*$C$DW$T$158)
    7929                      .dwattr $C$DW$783, DW_AT_name("rsvd_1")
    7930                      .dwattr $C$DW$783, DW_AT_TI_symbol_name("_rsvd_1")
    7931                      .dwattr $C$DW$783, DW_AT_data_member_location[DW_OP_plus_uconst 0x1a]
    7932                      .dwattr $C$DW$783, DW_AT_accessibility(DW_ACCESS_public)
    7933              
    7934              $C$DW$784       .dwtag  DW_TAG_member
    7935                      .dwattr $C$DW$784, DW_AT_type(*$C$DW$T$162)
    7936                      .dwattr $C$DW$784, DW_AT_name("Reset")
    7937                      .dwattr $C$DW$784, DW_AT_TI_symbol_name("_Reset")
    7938                      .dwattr $C$DW$784, DW_AT_data_member_location[DW_OP_plus_uconst 0x20]
    7939                      .dwattr $C$DW$784, DW_AT_accessibility(DW_ACCESS_public)
    7940              
    7941              $C$DW$785       .dwtag  DW_TAG_member
    7942                      .dwattr $C$DW$785, DW_AT_type(*$C$DW$T$162)
    7943                      .dwattr $C$DW$785, DW_AT_name("INT1")
    7944                      .dwattr $C$DW$785, DW_AT_TI_symbol_name("_INT1")
    7945                      .dwattr $C$DW$785, DW_AT_data_member_location[DW_OP_plus_uconst 0x22]
    7946                      .dwattr $C$DW$785, DW_AT_accessibility(DW_ACCESS_public)
    7947              
    7948              $C$DW$786       .dwtag  DW_TAG_member
    7949                      .dwattr $C$DW$786, DW_AT_type(*$C$DW$T$162)
    7950                      .dwattr $C$DW$786, DW_AT_name("INT2")
    7951                      .dwattr $C$DW$786, DW_AT_TI_symbol_name("_INT2")
    7952                      .dwattr $C$DW$786, DW_AT_data_member_location[DW_OP_plus_uconst 0x24]
    7953                      .dwattr $C$DW$786, DW_AT_accessibility(DW_ACCESS_public)
    7954              
    7955              $C$DW$787       .dwtag  DW_TAG_member
    7956                      .dwattr $C$DW$787, DW_AT_type(*$C$DW$T$162)
TMS320C2000 Assembler PC v15.12.3 Wed Nov 22 01:55:15 2017

Tools Copyright (c) 1996-2015 Texas Instruments Incorporated
C:\Users\wmj\AppData\Local\Temp\1239610                              PAGE  149

    7957                      .dwattr $C$DW$787, DW_AT_name("INT3")
    7958                      .dwattr $C$DW$787, DW_AT_TI_symbol_name("_INT3")
    7959                      .dwattr $C$DW$787, DW_AT_data_member_location[DW_OP_plus_uconst 0x26]
    7960                      .dwattr $C$DW$787, DW_AT_accessibility(DW_ACCESS_public)
    7961              
    7962              $C$DW$788       .dwtag  DW_TAG_member
    7963                      .dwattr $C$DW$788, DW_AT_type(*$C$DW$T$162)
    7964                      .dwattr $C$DW$788, DW_AT_name("INT4")
    7965                      .dwattr $C$DW$788, DW_AT_TI_symbol_name("_INT4")
    7966                      .dwattr $C$DW$788, DW_AT_data_member_location[DW_OP_plus_uconst 0x28]
    7967                      .dwattr $C$DW$788, DW_AT_accessibility(DW_ACCESS_public)
    7968              
    7969              $C$DW$789       .dwtag  DW_TAG_member
    7970                      .dwattr $C$DW$789, DW_AT_type(*$C$DW$T$162)
    7971                      .dwattr $C$DW$789, DW_AT_name("INT5")
    7972                      .dwattr $C$DW$789, DW_AT_TI_symbol_name("_INT5")
    7973                      .dwattr $C$DW$789, DW_AT_data_member_location[DW_OP_plus_uconst 0x2a]
    7974                      .dwattr $C$DW$789, DW_AT_accessibility(DW_ACCESS_public)
    7975              
    7976              $C$DW$790       .dwtag  DW_TAG_member
    7977                      .dwattr $C$DW$790, DW_AT_type(*$C$DW$T$162)
    7978                      .dwattr $C$DW$790, DW_AT_name("INT6")
    7979                      .dwattr $C$DW$790, DW_AT_TI_symbol_name("_INT6")
    7980                      .dwattr $C$DW$790, DW_AT_data_member_location[DW_OP_plus_uconst 0x2c]
    7981                      .dwattr $C$DW$790, DW_AT_accessibility(DW_ACCESS_public)
    7982              
    7983              $C$DW$791       .dwtag  DW_TAG_member
    7984                      .dwattr $C$DW$791, DW_AT_type(*$C$DW$T$162)
    7985                      .dwattr $C$DW$791, DW_AT_name("INT7")
    7986                      .dwattr $C$DW$791, DW_AT_TI_symbol_name("_INT7")
    7987                      .dwattr $C$DW$791, DW_AT_data_member_location[DW_OP_plus_uconst 0x2e]
    7988                      .dwattr $C$DW$791, DW_AT_accessibility(DW_ACCESS_public)
    7989              
    7990              $C$DW$792       .dwtag  DW_TAG_member
    7991                      .dwattr $C$DW$792, DW_AT_type(*$C$DW$T$162)
    7992                      .dwattr $C$DW$792, DW_AT_name("INT8")
    7993                      .dwattr $C$DW$792, DW_AT_TI_symbol_name("_INT8")
    7994                      .dwattr $C$DW$792, DW_AT_data_member_location[DW_OP_plus_uconst 0x30]
    7995                      .dwattr $C$DW$792, DW_AT_accessibility(DW_ACCESS_public)
    7996              
    7997              $C$DW$793       .dwtag  DW_TAG_member
    7998                      .dwattr $C$DW$793, DW_AT_type(*$C$DW$T$162)
    7999                      .dwattr $C$DW$793, DW_AT_name("INT9")
    8000                      .dwattr $C$DW$793, DW_AT_TI_symbol_name("_INT9")
    8001                      .dwattr $C$DW$793, DW_AT_data_member_location[DW_OP_plus_uconst 0x32]
    8002                      .dwattr $C$DW$793, DW_AT_accessibility(DW_ACCESS_public)
    8003              
    8004              $C$DW$794       .dwtag  DW_TAG_member
    8005                      .dwattr $C$DW$794, DW_AT_type(*$C$DW$T$162)
    8006                      .dwattr $C$DW$794, DW_AT_name("INT10")
    8007                      .dwattr $C$DW$794, DW_AT_TI_symbol_name("_INT10")
    8008                      .dwattr $C$DW$794, DW_AT_data_member_location[DW_OP_plus_uconst 0x34]
    8009                      .dwattr $C$DW$794, DW_AT_accessibility(DW_ACCESS_public)
    8010              
    8011              $C$DW$795       .dwtag  DW_TAG_member
TMS320C2000 Assembler PC v15.12.3 Wed Nov 22 01:55:15 2017

Tools Copyright (c) 1996-2015 Texas Instruments Incorporated
C:\Users\wmj\AppData\Local\Temp\1239610                              PAGE  150

    8012                      .dwattr $C$DW$795, DW_AT_type(*$C$DW$T$162)
    8013                      .dwattr $C$DW$795, DW_AT_name("INT11")
    8014                      .dwattr $C$DW$795, DW_AT_TI_symbol_name("_INT11")
    8015                      .dwattr $C$DW$795, DW_AT_data_member_location[DW_OP_plus_uconst 0x36]
    8016                      .dwattr $C$DW$795, DW_AT_accessibility(DW_ACCESS_public)
    8017              
    8018              $C$DW$796       .dwtag  DW_TAG_member
    8019                      .dwattr $C$DW$796, DW_AT_type(*$C$DW$T$162)
    8020                      .dwattr $C$DW$796, DW_AT_name("INT12")
    8021                      .dwattr $C$DW$796, DW_AT_TI_symbol_name("_INT12")
    8022                      .dwattr $C$DW$796, DW_AT_data_member_location[DW_OP_plus_uconst 0x38]
    8023                      .dwattr $C$DW$796, DW_AT_accessibility(DW_ACCESS_public)
    8024              
    8025              $C$DW$797       .dwtag  DW_TAG_member
    8026                      .dwattr $C$DW$797, DW_AT_type(*$C$DW$T$162)
    8027                      .dwattr $C$DW$797, DW_AT_name("TINT1")
    8028                      .dwattr $C$DW$797, DW_AT_TI_symbol_name("_TINT1")
    8029                      .dwattr $C$DW$797, DW_AT_data_member_location[DW_OP_plus_uconst 0x3a]
    8030                      .dwattr $C$DW$797, DW_AT_accessibility(DW_ACCESS_public)
    8031              
    8032              $C$DW$798       .dwtag  DW_TAG_member
    8033                      .dwattr $C$DW$798, DW_AT_type(*$C$DW$T$162)
    8034                      .dwattr $C$DW$798, DW_AT_name("TINT2")
    8035                      .dwattr $C$DW$798, DW_AT_TI_symbol_name("_TINT2")
    8036                      .dwattr $C$DW$798, DW_AT_data_member_location[DW_OP_plus_uconst 0x3c]
    8037                      .dwattr $C$DW$798, DW_AT_accessibility(DW_ACCESS_public)
    8038              
    8039              $C$DW$799       .dwtag  DW_TAG_member
    8040                      .dwattr $C$DW$799, DW_AT_type(*$C$DW$T$162)
    8041                      .dwattr $C$DW$799, DW_AT_name("DATALOG")
    8042                      .dwattr $C$DW$799, DW_AT_TI_symbol_name("_DATALOG")
    8043                      .dwattr $C$DW$799, DW_AT_data_member_location[DW_OP_plus_uconst 0x3e]
    8044                      .dwattr $C$DW$799, DW_AT_accessibility(DW_ACCESS_public)
    8045              
    8046              $C$DW$800       .dwtag  DW_TAG_member
    8047                      .dwattr $C$DW$800, DW_AT_type(*$C$DW$T$162)
    8048                      .dwattr $C$DW$800, DW_AT_name("RTOSINT")
    8049                      .dwattr $C$DW$800, DW_AT_TI_symbol_name("_RTOSINT")
    8050                      .dwattr $C$DW$800, DW_AT_data_member_location[DW_OP_plus_uconst 0x40]
    8051                      .dwattr $C$DW$800, DW_AT_accessibility(DW_ACCESS_public)
    8052              
    8053              $C$DW$801       .dwtag  DW_TAG_member
    8054                      .dwattr $C$DW$801, DW_AT_type(*$C$DW$T$162)
    8055                      .dwattr $C$DW$801, DW_AT_name("EMUINT")
    8056                      .dwattr $C$DW$801, DW_AT_TI_symbol_name("_EMUINT")
    8057                      .dwattr $C$DW$801, DW_AT_data_member_location[DW_OP_plus_uconst 0x42]
    8058                      .dwattr $C$DW$801, DW_AT_accessibility(DW_ACCESS_public)
    8059              
    8060              $C$DW$802       .dwtag  DW_TAG_member
    8061                      .dwattr $C$DW$802, DW_AT_type(*$C$DW$T$162)
    8062                      .dwattr $C$DW$802, DW_AT_name("NMI")
    8063                      .dwattr $C$DW$802, DW_AT_TI_symbol_name("_NMI")
    8064                      .dwattr $C$DW$802, DW_AT_data_member_location[DW_OP_plus_uconst 0x44]
    8065                      .dwattr $C$DW$802, DW_AT_accessibility(DW_ACCESS_public)
    8066              
TMS320C2000 Assembler PC v15.12.3 Wed Nov 22 01:55:15 2017

Tools Copyright (c) 1996-2015 Texas Instruments Incorporated
C:\Users\wmj\AppData\Local\Temp\1239610                              PAGE  151

    8067              $C$DW$803       .dwtag  DW_TAG_member
    8068                      .dwattr $C$DW$803, DW_AT_type(*$C$DW$T$162)
    8069                      .dwattr $C$DW$803, DW_AT_name("ILLEGAL")
    8070                      .dwattr $C$DW$803, DW_AT_TI_symbol_name("_ILLEGAL")
    8071                      .dwattr $C$DW$803, DW_AT_data_member_location[DW_OP_plus_uconst 0x46]
    8072                      .dwattr $C$DW$803, DW_AT_accessibility(DW_ACCESS_public)
    8073              
    8074              $C$DW$804       .dwtag  DW_TAG_member
    8075                      .dwattr $C$DW$804, DW_AT_type(*$C$DW$T$162)
    8076                      .dwattr $C$DW$804, DW_AT_name("USER1")
    8077                      .dwattr $C$DW$804, DW_AT_TI_symbol_name("_USER1")
    8078                      .dwattr $C$DW$804, DW_AT_data_member_location[DW_OP_plus_uconst 0x48]
    8079                      .dwattr $C$DW$804, DW_AT_accessibility(DW_ACCESS_public)
    8080              
    8081              $C$DW$805       .dwtag  DW_TAG_member
    8082                      .dwattr $C$DW$805, DW_AT_type(*$C$DW$T$162)
    8083                      .dwattr $C$DW$805, DW_AT_name("USER2")
    8084                      .dwattr $C$DW$805, DW_AT_TI_symbol_name("_USER2")
    8085                      .dwattr $C$DW$805, DW_AT_data_member_location[DW_OP_plus_uconst 0x4a]
    8086                      .dwattr $C$DW$805, DW_AT_accessibility(DW_ACCESS_public)
    8087              
    8088              $C$DW$806       .dwtag  DW_TAG_member
    8089                      .dwattr $C$DW$806, DW_AT_type(*$C$DW$T$162)
    8090                      .dwattr $C$DW$806, DW_AT_name("USER3")
    8091                      .dwattr $C$DW$806, DW_AT_TI_symbol_name("_USER3")
    8092                      .dwattr $C$DW$806, DW_AT_data_member_location[DW_OP_plus_uconst 0x4c]
    8093                      .dwattr $C$DW$806, DW_AT_accessibility(DW_ACCESS_public)
    8094              
    8095              $C$DW$807       .dwtag  DW_TAG_member
    8096                      .dwattr $C$DW$807, DW_AT_type(*$C$DW$T$162)
    8097                      .dwattr $C$DW$807, DW_AT_name("USER4")
    8098                      .dwattr $C$DW$807, DW_AT_TI_symbol_name("_USER4")
    8099                      .dwattr $C$DW$807, DW_AT_data_member_location[DW_OP_plus_uconst 0x4e]
    8100                      .dwattr $C$DW$807, DW_AT_accessibility(DW_ACCESS_public)
    8101              
    8102              $C$DW$808       .dwtag  DW_TAG_member
    8103                      .dwattr $C$DW$808, DW_AT_type(*$C$DW$T$162)
    8104                      .dwattr $C$DW$808, DW_AT_name("USER5")
    8105                      .dwattr $C$DW$808, DW_AT_TI_symbol_name("_USER5")
    8106                      .dwattr $C$DW$808, DW_AT_data_member_location[DW_OP_plus_uconst 0x50]
    8107                      .dwattr $C$DW$808, DW_AT_accessibility(DW_ACCESS_public)
    8108              
    8109              $C$DW$809       .dwtag  DW_TAG_member
    8110                      .dwattr $C$DW$809, DW_AT_type(*$C$DW$T$162)
    8111                      .dwattr $C$DW$809, DW_AT_name("USER6")
    8112                      .dwattr $C$DW$809, DW_AT_TI_symbol_name("_USER6")
    8113                      .dwattr $C$DW$809, DW_AT_data_member_location[DW_OP_plus_uconst 0x52]
    8114                      .dwattr $C$DW$809, DW_AT_accessibility(DW_ACCESS_public)
    8115              
    8116              $C$DW$810       .dwtag  DW_TAG_member
    8117                      .dwattr $C$DW$810, DW_AT_type(*$C$DW$T$162)
    8118                      .dwattr $C$DW$810, DW_AT_name("USER7")
    8119                      .dwattr $C$DW$810, DW_AT_TI_symbol_name("_USER7")
    8120                      .dwattr $C$DW$810, DW_AT_data_member_location[DW_OP_plus_uconst 0x54]
    8121                      .dwattr $C$DW$810, DW_AT_accessibility(DW_ACCESS_public)
TMS320C2000 Assembler PC v15.12.3 Wed Nov 22 01:55:15 2017

Tools Copyright (c) 1996-2015 Texas Instruments Incorporated
C:\Users\wmj\AppData\Local\Temp\1239610                              PAGE  152

    8122              
    8123              $C$DW$811       .dwtag  DW_TAG_member
    8124                      .dwattr $C$DW$811, DW_AT_type(*$C$DW$T$162)
    8125                      .dwattr $C$DW$811, DW_AT_name("USER8")
    8126                      .dwattr $C$DW$811, DW_AT_TI_symbol_name("_USER8")
    8127                      .dwattr $C$DW$811, DW_AT_data_member_location[DW_OP_plus_uconst 0x56]
    8128                      .dwattr $C$DW$811, DW_AT_accessibility(DW_ACCESS_public)
    8129              
    8130              $C$DW$812       .dwtag  DW_TAG_member
    8131                      .dwattr $C$DW$812, DW_AT_type(*$C$DW$T$162)
    8132                      .dwattr $C$DW$812, DW_AT_name("USER9")
    8133                      .dwattr $C$DW$812, DW_AT_TI_symbol_name("_USER9")
    8134                      .dwattr $C$DW$812, DW_AT_data_member_location[DW_OP_plus_uconst 0x58]
    8135                      .dwattr $C$DW$812, DW_AT_accessibility(DW_ACCESS_public)
    8136              
    8137              $C$DW$813       .dwtag  DW_TAG_member
    8138                      .dwattr $C$DW$813, DW_AT_type(*$C$DW$T$162)
    8139                      .dwattr $C$DW$813, DW_AT_name("USER10")
    8140                      .dwattr $C$DW$813, DW_AT_TI_symbol_name("_USER10")
    8141                      .dwattr $C$DW$813, DW_AT_data_member_location[DW_OP_plus_uconst 0x5a]
    8142                      .dwattr $C$DW$813, DW_AT_accessibility(DW_ACCESS_public)
    8143              
    8144              $C$DW$814       .dwtag  DW_TAG_member
    8145                      .dwattr $C$DW$814, DW_AT_type(*$C$DW$T$162)
    8146                      .dwattr $C$DW$814, DW_AT_name("USER11")
    8147                      .dwattr $C$DW$814, DW_AT_TI_symbol_name("_USER11")
    8148                      .dwattr $C$DW$814, DW_AT_data_member_location[DW_OP_plus_uconst 0x5c]
    8149                      .dwattr $C$DW$814, DW_AT_accessibility(DW_ACCESS_public)
    8150              
    8151              $C$DW$815       .dwtag  DW_TAG_member
    8152                      .dwattr $C$DW$815, DW_AT_type(*$C$DW$T$162)
    8153                      .dwattr $C$DW$815, DW_AT_name("USER12")
    8154                      .dwattr $C$DW$815, DW_AT_TI_symbol_name("_USER12")
    8155                      .dwattr $C$DW$815, DW_AT_data_member_location[DW_OP_plus_uconst 0x5e]
    8156                      .dwattr $C$DW$815, DW_AT_accessibility(DW_ACCESS_public)
    8157              
    8158              $C$DW$816       .dwtag  DW_TAG_member
    8159                      .dwattr $C$DW$816, DW_AT_type(*$C$DW$T$162)
    8160                      .dwattr $C$DW$816, DW_AT_name("ADCINT1_HP")
    8161                      .dwattr $C$DW$816, DW_AT_TI_symbol_name("_ADCINT1_HP")
    8162                      .dwattr $C$DW$816, DW_AT_data_member_location[DW_OP_plus_uconst 0x60]
    8163                      .dwattr $C$DW$816, DW_AT_accessibility(DW_ACCESS_public)
    8164              
    8165              $C$DW$817       .dwtag  DW_TAG_member
    8166                      .dwattr $C$DW$817, DW_AT_type(*$C$DW$T$162)
    8167                      .dwattr $C$DW$817, DW_AT_name("ADCINT2_HP")
    8168                      .dwattr $C$DW$817, DW_AT_TI_symbol_name("_ADCINT2_HP")
    8169                      .dwattr $C$DW$817, DW_AT_data_member_location[DW_OP_plus_uconst 0x62]
    8170                      .dwattr $C$DW$817, DW_AT_accessibility(DW_ACCESS_public)
    8171              
    8172              $C$DW$818       .dwtag  DW_TAG_member
    8173                      .dwattr $C$DW$818, DW_AT_type(*$C$DW$T$162)
    8174                      .dwattr $C$DW$818, DW_AT_name("rsvd1_3")
    8175                      .dwattr $C$DW$818, DW_AT_TI_symbol_name("_rsvd1_3")
    8176                      .dwattr $C$DW$818, DW_AT_data_member_location[DW_OP_plus_uconst 0x64]
TMS320C2000 Assembler PC v15.12.3 Wed Nov 22 01:55:15 2017

Tools Copyright (c) 1996-2015 Texas Instruments Incorporated
C:\Users\wmj\AppData\Local\Temp\1239610                              PAGE  153

    8177                      .dwattr $C$DW$818, DW_AT_accessibility(DW_ACCESS_public)
    8178              
    8179              $C$DW$819       .dwtag  DW_TAG_member
    8180                      .dwattr $C$DW$819, DW_AT_type(*$C$DW$T$162)
    8181                      .dwattr $C$DW$819, DW_AT_name("XINT1")
    8182                      .dwattr $C$DW$819, DW_AT_TI_symbol_name("_XINT1")
    8183                      .dwattr $C$DW$819, DW_AT_data_member_location[DW_OP_plus_uconst 0x66]
    8184                      .dwattr $C$DW$819, DW_AT_accessibility(DW_ACCESS_public)
    8185              
    8186              $C$DW$820       .dwtag  DW_TAG_member
    8187                      .dwattr $C$DW$820, DW_AT_type(*$C$DW$T$162)
    8188                      .dwattr $C$DW$820, DW_AT_name("XINT2")
    8189                      .dwattr $C$DW$820, DW_AT_TI_symbol_name("_XINT2")
    8190                      .dwattr $C$DW$820, DW_AT_data_member_location[DW_OP_plus_uconst 0x68]
    8191                      .dwattr $C$DW$820, DW_AT_accessibility(DW_ACCESS_public)
    8192              
    8193              $C$DW$821       .dwtag  DW_TAG_member
    8194                      .dwattr $C$DW$821, DW_AT_type(*$C$DW$T$162)
    8195                      .dwattr $C$DW$821, DW_AT_name("ADCINT9")
    8196                      .dwattr $C$DW$821, DW_AT_TI_symbol_name("_ADCINT9")
    8197                      .dwattr $C$DW$821, DW_AT_data_member_location[DW_OP_plus_uconst 0x6a]
    8198                      .dwattr $C$DW$821, DW_AT_accessibility(DW_ACCESS_public)
    8199              
    8200              $C$DW$822       .dwtag  DW_TAG_member
    8201                      .dwattr $C$DW$822, DW_AT_type(*$C$DW$T$162)
    8202                      .dwattr $C$DW$822, DW_AT_name("TINT0")
    8203                      .dwattr $C$DW$822, DW_AT_TI_symbol_name("_TINT0")
    8204                      .dwattr $C$DW$822, DW_AT_data_member_location[DW_OP_plus_uconst 0x6c]
    8205                      .dwattr $C$DW$822, DW_AT_accessibility(DW_ACCESS_public)
    8206              
    8207              $C$DW$823       .dwtag  DW_TAG_member
    8208                      .dwattr $C$DW$823, DW_AT_type(*$C$DW$T$162)
    8209                      .dwattr $C$DW$823, DW_AT_name("WAKEINT")
    8210                      .dwattr $C$DW$823, DW_AT_TI_symbol_name("_WAKEINT")
    8211                      .dwattr $C$DW$823, DW_AT_data_member_location[DW_OP_plus_uconst 0x6e]
    8212                      .dwattr $C$DW$823, DW_AT_accessibility(DW_ACCESS_public)
    8213              
    8214              $C$DW$824       .dwtag  DW_TAG_member
    8215                      .dwattr $C$DW$824, DW_AT_type(*$C$DW$T$162)
    8216                      .dwattr $C$DW$824, DW_AT_name("EPWM1_TZINT")
    8217                      .dwattr $C$DW$824, DW_AT_TI_symbol_name("_EPWM1_TZINT")
    8218                      .dwattr $C$DW$824, DW_AT_data_member_location[DW_OP_plus_uconst 0x70]
    8219                      .dwattr $C$DW$824, DW_AT_accessibility(DW_ACCESS_public)
    8220              
    8221              $C$DW$825       .dwtag  DW_TAG_member
    8222                      .dwattr $C$DW$825, DW_AT_type(*$C$DW$T$162)
    8223                      .dwattr $C$DW$825, DW_AT_name("EPWM2_TZINT")
    8224                      .dwattr $C$DW$825, DW_AT_TI_symbol_name("_EPWM2_TZINT")
    8225                      .dwattr $C$DW$825, DW_AT_data_member_location[DW_OP_plus_uconst 0x72]
    8226                      .dwattr $C$DW$825, DW_AT_accessibility(DW_ACCESS_public)
    8227              
    8228              $C$DW$826       .dwtag  DW_TAG_member
    8229                      .dwattr $C$DW$826, DW_AT_type(*$C$DW$T$162)
    8230                      .dwattr $C$DW$826, DW_AT_name("EPWM3_TZINT")
    8231                      .dwattr $C$DW$826, DW_AT_TI_symbol_name("_EPWM3_TZINT")
TMS320C2000 Assembler PC v15.12.3 Wed Nov 22 01:55:15 2017

Tools Copyright (c) 1996-2015 Texas Instruments Incorporated
C:\Users\wmj\AppData\Local\Temp\1239610                              PAGE  154

    8232                      .dwattr $C$DW$826, DW_AT_data_member_location[DW_OP_plus_uconst 0x74]
    8233                      .dwattr $C$DW$826, DW_AT_accessibility(DW_ACCESS_public)
    8234              
    8235              $C$DW$827       .dwtag  DW_TAG_member
    8236                      .dwattr $C$DW$827, DW_AT_type(*$C$DW$T$162)
    8237                      .dwattr $C$DW$827, DW_AT_name("EPWM4_TZINT")
    8238                      .dwattr $C$DW$827, DW_AT_TI_symbol_name("_EPWM4_TZINT")
    8239                      .dwattr $C$DW$827, DW_AT_data_member_location[DW_OP_plus_uconst 0x76]
    8240                      .dwattr $C$DW$827, DW_AT_accessibility(DW_ACCESS_public)
    8241              
    8242              $C$DW$828       .dwtag  DW_TAG_member
    8243                      .dwattr $C$DW$828, DW_AT_type(*$C$DW$T$162)
    8244                      .dwattr $C$DW$828, DW_AT_name("rsvd2_5")
    8245                      .dwattr $C$DW$828, DW_AT_TI_symbol_name("_rsvd2_5")
    8246                      .dwattr $C$DW$828, DW_AT_data_member_location[DW_OP_plus_uconst 0x78]
    8247                      .dwattr $C$DW$828, DW_AT_accessibility(DW_ACCESS_public)
    8248              
    8249              $C$DW$829       .dwtag  DW_TAG_member
    8250                      .dwattr $C$DW$829, DW_AT_type(*$C$DW$T$162)
    8251                      .dwattr $C$DW$829, DW_AT_name("rsvd2_6")
    8252                      .dwattr $C$DW$829, DW_AT_TI_symbol_name("_rsvd2_6")
    8253                      .dwattr $C$DW$829, DW_AT_data_member_location[DW_OP_plus_uconst 0x7a]
    8254                      .dwattr $C$DW$829, DW_AT_accessibility(DW_ACCESS_public)
    8255              
    8256              $C$DW$830       .dwtag  DW_TAG_member
    8257                      .dwattr $C$DW$830, DW_AT_type(*$C$DW$T$162)
    8258                      .dwattr $C$DW$830, DW_AT_name("rsvd2_7")
    8259                      .dwattr $C$DW$830, DW_AT_TI_symbol_name("_rsvd2_7")
    8260                      .dwattr $C$DW$830, DW_AT_data_member_location[DW_OP_plus_uconst 0x7c]
    8261                      .dwattr $C$DW$830, DW_AT_accessibility(DW_ACCESS_public)
    8262              
    8263              $C$DW$831       .dwtag  DW_TAG_member
    8264                      .dwattr $C$DW$831, DW_AT_type(*$C$DW$T$162)
    8265                      .dwattr $C$DW$831, DW_AT_name("rsvd2_8")
    8266                      .dwattr $C$DW$831, DW_AT_TI_symbol_name("_rsvd2_8")
    8267                      .dwattr $C$DW$831, DW_AT_data_member_location[DW_OP_plus_uconst 0x7e]
    8268                      .dwattr $C$DW$831, DW_AT_accessibility(DW_ACCESS_public)
    8269              
    8270              $C$DW$832       .dwtag  DW_TAG_member
    8271                      .dwattr $C$DW$832, DW_AT_type(*$C$DW$T$162)
    8272                      .dwattr $C$DW$832, DW_AT_name("EPWM1_INT")
    8273                      .dwattr $C$DW$832, DW_AT_TI_symbol_name("_EPWM1_INT")
    8274                      .dwattr $C$DW$832, DW_AT_data_member_location[DW_OP_plus_uconst 0x80]
    8275                      .dwattr $C$DW$832, DW_AT_accessibility(DW_ACCESS_public)
    8276              
    8277              $C$DW$833       .dwtag  DW_TAG_member
    8278                      .dwattr $C$DW$833, DW_AT_type(*$C$DW$T$162)
    8279                      .dwattr $C$DW$833, DW_AT_name("EPWM2_INT")
    8280                      .dwattr $C$DW$833, DW_AT_TI_symbol_name("_EPWM2_INT")
    8281                      .dwattr $C$DW$833, DW_AT_data_member_location[DW_OP_plus_uconst 0x82]
    8282                      .dwattr $C$DW$833, DW_AT_accessibility(DW_ACCESS_public)
    8283              
    8284              $C$DW$834       .dwtag  DW_TAG_member
    8285                      .dwattr $C$DW$834, DW_AT_type(*$C$DW$T$162)
    8286                      .dwattr $C$DW$834, DW_AT_name("EPWM3_INT")
TMS320C2000 Assembler PC v15.12.3 Wed Nov 22 01:55:15 2017

Tools Copyright (c) 1996-2015 Texas Instruments Incorporated
C:\Users\wmj\AppData\Local\Temp\1239610                              PAGE  155

    8287                      .dwattr $C$DW$834, DW_AT_TI_symbol_name("_EPWM3_INT")
    8288                      .dwattr $C$DW$834, DW_AT_data_member_location[DW_OP_plus_uconst 0x84]
    8289                      .dwattr $C$DW$834, DW_AT_accessibility(DW_ACCESS_public)
    8290              
    8291              $C$DW$835       .dwtag  DW_TAG_member
    8292                      .dwattr $C$DW$835, DW_AT_type(*$C$DW$T$162)
    8293                      .dwattr $C$DW$835, DW_AT_name("EPWM4_INT")
    8294                      .dwattr $C$DW$835, DW_AT_TI_symbol_name("_EPWM4_INT")
    8295                      .dwattr $C$DW$835, DW_AT_data_member_location[DW_OP_plus_uconst 0x86]
    8296                      .dwattr $C$DW$835, DW_AT_accessibility(DW_ACCESS_public)
    8297              
    8298              $C$DW$836       .dwtag  DW_TAG_member
    8299                      .dwattr $C$DW$836, DW_AT_type(*$C$DW$T$162)
    8300                      .dwattr $C$DW$836, DW_AT_name("rsvd3_5")
    8301                      .dwattr $C$DW$836, DW_AT_TI_symbol_name("_rsvd3_5")
    8302                      .dwattr $C$DW$836, DW_AT_data_member_location[DW_OP_plus_uconst 0x88]
    8303                      .dwattr $C$DW$836, DW_AT_accessibility(DW_ACCESS_public)
    8304              
    8305              $C$DW$837       .dwtag  DW_TAG_member
    8306                      .dwattr $C$DW$837, DW_AT_type(*$C$DW$T$162)
    8307                      .dwattr $C$DW$837, DW_AT_name("rsvd3_6")
    8308                      .dwattr $C$DW$837, DW_AT_TI_symbol_name("_rsvd3_6")
    8309                      .dwattr $C$DW$837, DW_AT_data_member_location[DW_OP_plus_uconst 0x8a]
    8310                      .dwattr $C$DW$837, DW_AT_accessibility(DW_ACCESS_public)
    8311              
    8312              $C$DW$838       .dwtag  DW_TAG_member
    8313                      .dwattr $C$DW$838, DW_AT_type(*$C$DW$T$162)
    8314                      .dwattr $C$DW$838, DW_AT_name("rsvd3_7")
    8315                      .dwattr $C$DW$838, DW_AT_TI_symbol_name("_rsvd3_7")
    8316                      .dwattr $C$DW$838, DW_AT_data_member_location[DW_OP_plus_uconst 0x8c]
    8317                      .dwattr $C$DW$838, DW_AT_accessibility(DW_ACCESS_public)
    8318              
    8319              $C$DW$839       .dwtag  DW_TAG_member
    8320                      .dwattr $C$DW$839, DW_AT_type(*$C$DW$T$162)
    8321                      .dwattr $C$DW$839, DW_AT_name("rsvd3_8")
    8322                      .dwattr $C$DW$839, DW_AT_TI_symbol_name("_rsvd3_8")
    8323                      .dwattr $C$DW$839, DW_AT_data_member_location[DW_OP_plus_uconst 0x8e]
    8324                      .dwattr $C$DW$839, DW_AT_accessibility(DW_ACCESS_public)
    8325              
    8326              $C$DW$840       .dwtag  DW_TAG_member
    8327                      .dwattr $C$DW$840, DW_AT_type(*$C$DW$T$162)
    8328                      .dwattr $C$DW$840, DW_AT_name("ECAP1_INT")
    8329                      .dwattr $C$DW$840, DW_AT_TI_symbol_name("_ECAP1_INT")
    8330                      .dwattr $C$DW$840, DW_AT_data_member_location[DW_OP_plus_uconst 0x90]
    8331                      .dwattr $C$DW$840, DW_AT_accessibility(DW_ACCESS_public)
    8332              
    8333              $C$DW$841       .dwtag  DW_TAG_member
    8334                      .dwattr $C$DW$841, DW_AT_type(*$C$DW$T$162)
    8335                      .dwattr $C$DW$841, DW_AT_name("rsvd4_2")
    8336                      .dwattr $C$DW$841, DW_AT_TI_symbol_name("_rsvd4_2")
    8337                      .dwattr $C$DW$841, DW_AT_data_member_location[DW_OP_plus_uconst 0x92]
    8338                      .dwattr $C$DW$841, DW_AT_accessibility(DW_ACCESS_public)
    8339              
    8340              $C$DW$842       .dwtag  DW_TAG_member
    8341                      .dwattr $C$DW$842, DW_AT_type(*$C$DW$T$162)
TMS320C2000 Assembler PC v15.12.3 Wed Nov 22 01:55:15 2017

Tools Copyright (c) 1996-2015 Texas Instruments Incorporated
C:\Users\wmj\AppData\Local\Temp\1239610                              PAGE  156

    8342                      .dwattr $C$DW$842, DW_AT_name("rsvd4_3")
    8343                      .dwattr $C$DW$842, DW_AT_TI_symbol_name("_rsvd4_3")
    8344                      .dwattr $C$DW$842, DW_AT_data_member_location[DW_OP_plus_uconst 0x94]
    8345                      .dwattr $C$DW$842, DW_AT_accessibility(DW_ACCESS_public)
    8346              
    8347              $C$DW$843       .dwtag  DW_TAG_member
    8348                      .dwattr $C$DW$843, DW_AT_type(*$C$DW$T$162)
    8349                      .dwattr $C$DW$843, DW_AT_name("rsvd4_4")
    8350                      .dwattr $C$DW$843, DW_AT_TI_symbol_name("_rsvd4_4")
    8351                      .dwattr $C$DW$843, DW_AT_data_member_location[DW_OP_plus_uconst 0x96]
    8352                      .dwattr $C$DW$843, DW_AT_accessibility(DW_ACCESS_public)
    8353              
    8354              $C$DW$844       .dwtag  DW_TAG_member
    8355                      .dwattr $C$DW$844, DW_AT_type(*$C$DW$T$162)
    8356                      .dwattr $C$DW$844, DW_AT_name("rsvd4_5")
    8357                      .dwattr $C$DW$844, DW_AT_TI_symbol_name("_rsvd4_5")
    8358                      .dwattr $C$DW$844, DW_AT_data_member_location[DW_OP_plus_uconst 0x98]
    8359                      .dwattr $C$DW$844, DW_AT_accessibility(DW_ACCESS_public)
    8360              
    8361              $C$DW$845       .dwtag  DW_TAG_member
    8362                      .dwattr $C$DW$845, DW_AT_type(*$C$DW$T$162)
    8363                      .dwattr $C$DW$845, DW_AT_name("rsvd4_6")
    8364                      .dwattr $C$DW$845, DW_AT_TI_symbol_name("_rsvd4_6")
    8365                      .dwattr $C$DW$845, DW_AT_data_member_location[DW_OP_plus_uconst 0x9a]
    8366                      .dwattr $C$DW$845, DW_AT_accessibility(DW_ACCESS_public)
    8367              
    8368              $C$DW$846       .dwtag  DW_TAG_member
    8369                      .dwattr $C$DW$846, DW_AT_type(*$C$DW$T$162)
    8370                      .dwattr $C$DW$846, DW_AT_name("rsvd4_7")
    8371                      .dwattr $C$DW$846, DW_AT_TI_symbol_name("_rsvd4_7")
    8372                      .dwattr $C$DW$846, DW_AT_data_member_location[DW_OP_plus_uconst 0x9c]
    8373                      .dwattr $C$DW$846, DW_AT_accessibility(DW_ACCESS_public)
    8374              
    8375              $C$DW$847       .dwtag  DW_TAG_member
    8376                      .dwattr $C$DW$847, DW_AT_type(*$C$DW$T$162)
    8377                      .dwattr $C$DW$847, DW_AT_name("rsvd4_8")
    8378                      .dwattr $C$DW$847, DW_AT_TI_symbol_name("_rsvd4_8")
    8379                      .dwattr $C$DW$847, DW_AT_data_member_location[DW_OP_plus_uconst 0x9e]
    8380                      .dwattr $C$DW$847, DW_AT_accessibility(DW_ACCESS_public)
    8381              
    8382              $C$DW$848       .dwtag  DW_TAG_member
    8383                      .dwattr $C$DW$848, DW_AT_type(*$C$DW$T$162)
    8384                      .dwattr $C$DW$848, DW_AT_name("rsvd5_1")
    8385                      .dwattr $C$DW$848, DW_AT_TI_symbol_name("_rsvd5_1")
    8386                      .dwattr $C$DW$848, DW_AT_data_member_location[DW_OP_plus_uconst 0xa0]
    8387                      .dwattr $C$DW$848, DW_AT_accessibility(DW_ACCESS_public)
    8388              
    8389              $C$DW$849       .dwtag  DW_TAG_member
    8390                      .dwattr $C$DW$849, DW_AT_type(*$C$DW$T$162)
    8391                      .dwattr $C$DW$849, DW_AT_name("rsvd5_2")
    8392                      .dwattr $C$DW$849, DW_AT_TI_symbol_name("_rsvd5_2")
    8393                      .dwattr $C$DW$849, DW_AT_data_member_location[DW_OP_plus_uconst 0xa2]
    8394                      .dwattr $C$DW$849, DW_AT_accessibility(DW_ACCESS_public)
    8395              
    8396              $C$DW$850       .dwtag  DW_TAG_member
TMS320C2000 Assembler PC v15.12.3 Wed Nov 22 01:55:15 2017

Tools Copyright (c) 1996-2015 Texas Instruments Incorporated
C:\Users\wmj\AppData\Local\Temp\1239610                              PAGE  157

    8397                      .dwattr $C$DW$850, DW_AT_type(*$C$DW$T$162)
    8398                      .dwattr $C$DW$850, DW_AT_name("rsvd5_3")
    8399                      .dwattr $C$DW$850, DW_AT_TI_symbol_name("_rsvd5_3")
    8400                      .dwattr $C$DW$850, DW_AT_data_member_location[DW_OP_plus_uconst 0xa4]
    8401                      .dwattr $C$DW$850, DW_AT_accessibility(DW_ACCESS_public)
    8402              
    8403              $C$DW$851       .dwtag  DW_TAG_member
    8404                      .dwattr $C$DW$851, DW_AT_type(*$C$DW$T$162)
    8405                      .dwattr $C$DW$851, DW_AT_name("rsvd5_4")
    8406                      .dwattr $C$DW$851, DW_AT_TI_symbol_name("_rsvd5_4")
    8407                      .dwattr $C$DW$851, DW_AT_data_member_location[DW_OP_plus_uconst 0xa6]
    8408                      .dwattr $C$DW$851, DW_AT_accessibility(DW_ACCESS_public)
    8409              
    8410              $C$DW$852       .dwtag  DW_TAG_member
    8411                      .dwattr $C$DW$852, DW_AT_type(*$C$DW$T$162)
    8412                      .dwattr $C$DW$852, DW_AT_name("rsvd5_5")
    8413                      .dwattr $C$DW$852, DW_AT_TI_symbol_name("_rsvd5_5")
    8414                      .dwattr $C$DW$852, DW_AT_data_member_location[DW_OP_plus_uconst 0xa8]
    8415                      .dwattr $C$DW$852, DW_AT_accessibility(DW_ACCESS_public)
    8416              
    8417              $C$DW$853       .dwtag  DW_TAG_member
    8418                      .dwattr $C$DW$853, DW_AT_type(*$C$DW$T$162)
    8419                      .dwattr $C$DW$853, DW_AT_name("rsvd5_6")
    8420                      .dwattr $C$DW$853, DW_AT_TI_symbol_name("_rsvd5_6")
    8421                      .dwattr $C$DW$853, DW_AT_data_member_location[DW_OP_plus_uconst 0xaa]
    8422                      .dwattr $C$DW$853, DW_AT_accessibility(DW_ACCESS_public)
    8423              
    8424              $C$DW$854       .dwtag  DW_TAG_member
    8425                      .dwattr $C$DW$854, DW_AT_type(*$C$DW$T$162)
    8426                      .dwattr $C$DW$854, DW_AT_name("rsvd5_7")
    8427                      .dwattr $C$DW$854, DW_AT_TI_symbol_name("_rsvd5_7")
    8428                      .dwattr $C$DW$854, DW_AT_data_member_location[DW_OP_plus_uconst 0xac]
    8429                      .dwattr $C$DW$854, DW_AT_accessibility(DW_ACCESS_public)
    8430              
    8431              $C$DW$855       .dwtag  DW_TAG_member
    8432                      .dwattr $C$DW$855, DW_AT_type(*$C$DW$T$162)
    8433                      .dwattr $C$DW$855, DW_AT_name("rsvd5_8")
    8434                      .dwattr $C$DW$855, DW_AT_TI_symbol_name("_rsvd5_8")
    8435                      .dwattr $C$DW$855, DW_AT_data_member_location[DW_OP_plus_uconst 0xae]
    8436                      .dwattr $C$DW$855, DW_AT_accessibility(DW_ACCESS_public)
    8437              
    8438              $C$DW$856       .dwtag  DW_TAG_member
    8439                      .dwattr $C$DW$856, DW_AT_type(*$C$DW$T$162)
    8440                      .dwattr $C$DW$856, DW_AT_name("SPIRXINTA")
    8441                      .dwattr $C$DW$856, DW_AT_TI_symbol_name("_SPIRXINTA")
    8442                      .dwattr $C$DW$856, DW_AT_data_member_location[DW_OP_plus_uconst 0xb0]
    8443                      .dwattr $C$DW$856, DW_AT_accessibility(DW_ACCESS_public)
    8444              
    8445              $C$DW$857       .dwtag  DW_TAG_member
    8446                      .dwattr $C$DW$857, DW_AT_type(*$C$DW$T$162)
    8447                      .dwattr $C$DW$857, DW_AT_name("SPITXINTA")
    8448                      .dwattr $C$DW$857, DW_AT_TI_symbol_name("_SPITXINTA")
    8449                      .dwattr $C$DW$857, DW_AT_data_member_location[DW_OP_plus_uconst 0xb2]
    8450                      .dwattr $C$DW$857, DW_AT_accessibility(DW_ACCESS_public)
    8451              
TMS320C2000 Assembler PC v15.12.3 Wed Nov 22 01:55:15 2017

Tools Copyright (c) 1996-2015 Texas Instruments Incorporated
C:\Users\wmj\AppData\Local\Temp\1239610                              PAGE  158

    8452              $C$DW$858       .dwtag  DW_TAG_member
    8453                      .dwattr $C$DW$858, DW_AT_type(*$C$DW$T$162)
    8454                      .dwattr $C$DW$858, DW_AT_name("rsvd6_3")
    8455                      .dwattr $C$DW$858, DW_AT_TI_symbol_name("_rsvd6_3")
    8456                      .dwattr $C$DW$858, DW_AT_data_member_location[DW_OP_plus_uconst 0xb4]
    8457                      .dwattr $C$DW$858, DW_AT_accessibility(DW_ACCESS_public)
    8458              
    8459              $C$DW$859       .dwtag  DW_TAG_member
    8460                      .dwattr $C$DW$859, DW_AT_type(*$C$DW$T$162)
    8461                      .dwattr $C$DW$859, DW_AT_name("rsvd6_4")
    8462                      .dwattr $C$DW$859, DW_AT_TI_symbol_name("_rsvd6_4")
    8463                      .dwattr $C$DW$859, DW_AT_data_member_location[DW_OP_plus_uconst 0xb6]
    8464                      .dwattr $C$DW$859, DW_AT_accessibility(DW_ACCESS_public)
    8465              
    8466              $C$DW$860       .dwtag  DW_TAG_member
    8467                      .dwattr $C$DW$860, DW_AT_type(*$C$DW$T$162)
    8468                      .dwattr $C$DW$860, DW_AT_name("rsvd6_5")
    8469                      .dwattr $C$DW$860, DW_AT_TI_symbol_name("_rsvd6_5")
    8470                      .dwattr $C$DW$860, DW_AT_data_member_location[DW_OP_plus_uconst 0xb8]
    8471                      .dwattr $C$DW$860, DW_AT_accessibility(DW_ACCESS_public)
    8472              
    8473              $C$DW$861       .dwtag  DW_TAG_member
    8474                      .dwattr $C$DW$861, DW_AT_type(*$C$DW$T$162)
    8475                      .dwattr $C$DW$861, DW_AT_name("rsvd6_6")
    8476                      .dwattr $C$DW$861, DW_AT_TI_symbol_name("_rsvd6_6")
    8477                      .dwattr $C$DW$861, DW_AT_data_member_location[DW_OP_plus_uconst 0xba]
    8478                      .dwattr $C$DW$861, DW_AT_accessibility(DW_ACCESS_public)
    8479              
    8480              $C$DW$862       .dwtag  DW_TAG_member
    8481                      .dwattr $C$DW$862, DW_AT_type(*$C$DW$T$162)
    8482                      .dwattr $C$DW$862, DW_AT_name("rsvd6_7")
    8483                      .dwattr $C$DW$862, DW_AT_TI_symbol_name("_rsvd6_7")
    8484                      .dwattr $C$DW$862, DW_AT_data_member_location[DW_OP_plus_uconst 0xbc]
    8485                      .dwattr $C$DW$862, DW_AT_accessibility(DW_ACCESS_public)
    8486              
    8487              $C$DW$863       .dwtag  DW_TAG_member
    8488                      .dwattr $C$DW$863, DW_AT_type(*$C$DW$T$162)
    8489                      .dwattr $C$DW$863, DW_AT_name("rsvd6_8")
    8490                      .dwattr $C$DW$863, DW_AT_TI_symbol_name("_rsvd6_8")
    8491                      .dwattr $C$DW$863, DW_AT_data_member_location[DW_OP_plus_uconst 0xbe]
    8492                      .dwattr $C$DW$863, DW_AT_accessibility(DW_ACCESS_public)
    8493              
    8494              $C$DW$864       .dwtag  DW_TAG_member
    8495                      .dwattr $C$DW$864, DW_AT_type(*$C$DW$T$162)
    8496                      .dwattr $C$DW$864, DW_AT_name("rsvd7_1")
    8497                      .dwattr $C$DW$864, DW_AT_TI_symbol_name("_rsvd7_1")
    8498                      .dwattr $C$DW$864, DW_AT_data_member_location[DW_OP_plus_uconst 0xc0]
    8499                      .dwattr $C$DW$864, DW_AT_accessibility(DW_ACCESS_public)
    8500              
    8501              $C$DW$865       .dwtag  DW_TAG_member
    8502                      .dwattr $C$DW$865, DW_AT_type(*$C$DW$T$162)
    8503                      .dwattr $C$DW$865, DW_AT_name("rsvd7_2")
    8504                      .dwattr $C$DW$865, DW_AT_TI_symbol_name("_rsvd7_2")
    8505                      .dwattr $C$DW$865, DW_AT_data_member_location[DW_OP_plus_uconst 0xc2]
    8506                      .dwattr $C$DW$865, DW_AT_accessibility(DW_ACCESS_public)
TMS320C2000 Assembler PC v15.12.3 Wed Nov 22 01:55:15 2017

Tools Copyright (c) 1996-2015 Texas Instruments Incorporated
C:\Users\wmj\AppData\Local\Temp\1239610                              PAGE  159

    8507              
    8508              $C$DW$866       .dwtag  DW_TAG_member
    8509                      .dwattr $C$DW$866, DW_AT_type(*$C$DW$T$162)
    8510                      .dwattr $C$DW$866, DW_AT_name("rsvd7_3")
    8511                      .dwattr $C$DW$866, DW_AT_TI_symbol_name("_rsvd7_3")
    8512                      .dwattr $C$DW$866, DW_AT_data_member_location[DW_OP_plus_uconst 0xc4]
    8513                      .dwattr $C$DW$866, DW_AT_accessibility(DW_ACCESS_public)
    8514              
    8515              $C$DW$867       .dwtag  DW_TAG_member
    8516                      .dwattr $C$DW$867, DW_AT_type(*$C$DW$T$162)
    8517                      .dwattr $C$DW$867, DW_AT_name("rsvd7_4")
    8518                      .dwattr $C$DW$867, DW_AT_TI_symbol_name("_rsvd7_4")
    8519                      .dwattr $C$DW$867, DW_AT_data_member_location[DW_OP_plus_uconst 0xc6]
    8520                      .dwattr $C$DW$867, DW_AT_accessibility(DW_ACCESS_public)
    8521              
    8522              $C$DW$868       .dwtag  DW_TAG_member
    8523                      .dwattr $C$DW$868, DW_AT_type(*$C$DW$T$162)
    8524                      .dwattr $C$DW$868, DW_AT_name("rsvd7_5")
    8525                      .dwattr $C$DW$868, DW_AT_TI_symbol_name("_rsvd7_5")
    8526                      .dwattr $C$DW$868, DW_AT_data_member_location[DW_OP_plus_uconst 0xc8]
    8527                      .dwattr $C$DW$868, DW_AT_accessibility(DW_ACCESS_public)
    8528              
    8529              $C$DW$869       .dwtag  DW_TAG_member
    8530                      .dwattr $C$DW$869, DW_AT_type(*$C$DW$T$162)
    8531                      .dwattr $C$DW$869, DW_AT_name("rsvd7_6")
    8532                      .dwattr $C$DW$869, DW_AT_TI_symbol_name("_rsvd7_6")
    8533                      .dwattr $C$DW$869, DW_AT_data_member_location[DW_OP_plus_uconst 0xca]
    8534                      .dwattr $C$DW$869, DW_AT_accessibility(DW_ACCESS_public)
    8535              
    8536              $C$DW$870       .dwtag  DW_TAG_member
    8537                      .dwattr $C$DW$870, DW_AT_type(*$C$DW$T$162)
    8538                      .dwattr $C$DW$870, DW_AT_name("rsvd7_7")
    8539                      .dwattr $C$DW$870, DW_AT_TI_symbol_name("_rsvd7_7")
    8540                      .dwattr $C$DW$870, DW_AT_data_member_location[DW_OP_plus_uconst 0xcc]
    8541                      .dwattr $C$DW$870, DW_AT_accessibility(DW_ACCESS_public)
    8542              
    8543              $C$DW$871       .dwtag  DW_TAG_member
    8544                      .dwattr $C$DW$871, DW_AT_type(*$C$DW$T$162)
    8545                      .dwattr $C$DW$871, DW_AT_name("rsvd7_8")
    8546                      .dwattr $C$DW$871, DW_AT_TI_symbol_name("_rsvd7_8")
    8547                      .dwattr $C$DW$871, DW_AT_data_member_location[DW_OP_plus_uconst 0xce]
    8548                      .dwattr $C$DW$871, DW_AT_accessibility(DW_ACCESS_public)
    8549              
    8550              $C$DW$872       .dwtag  DW_TAG_member
    8551                      .dwattr $C$DW$872, DW_AT_type(*$C$DW$T$162)
    8552                      .dwattr $C$DW$872, DW_AT_name("I2CINT1A")
    8553                      .dwattr $C$DW$872, DW_AT_TI_symbol_name("_I2CINT1A")
    8554                      .dwattr $C$DW$872, DW_AT_data_member_location[DW_OP_plus_uconst 0xd0]
    8555                      .dwattr $C$DW$872, DW_AT_accessibility(DW_ACCESS_public)
    8556              
    8557              $C$DW$873       .dwtag  DW_TAG_member
    8558                      .dwattr $C$DW$873, DW_AT_type(*$C$DW$T$162)
    8559                      .dwattr $C$DW$873, DW_AT_name("I2CINT2A")
    8560                      .dwattr $C$DW$873, DW_AT_TI_symbol_name("_I2CINT2A")
    8561                      .dwattr $C$DW$873, DW_AT_data_member_location[DW_OP_plus_uconst 0xd2]
TMS320C2000 Assembler PC v15.12.3 Wed Nov 22 01:55:15 2017

Tools Copyright (c) 1996-2015 Texas Instruments Incorporated
C:\Users\wmj\AppData\Local\Temp\1239610                              PAGE  160

    8562                      .dwattr $C$DW$873, DW_AT_accessibility(DW_ACCESS_public)
    8563              
    8564              $C$DW$874       .dwtag  DW_TAG_member
    8565                      .dwattr $C$DW$874, DW_AT_type(*$C$DW$T$162)
    8566                      .dwattr $C$DW$874, DW_AT_name("rsvd8_3")
    8567                      .dwattr $C$DW$874, DW_AT_TI_symbol_name("_rsvd8_3")
    8568                      .dwattr $C$DW$874, DW_AT_data_member_location[DW_OP_plus_uconst 0xd4]
    8569                      .dwattr $C$DW$874, DW_AT_accessibility(DW_ACCESS_public)
    8570              
    8571              $C$DW$875       .dwtag  DW_TAG_member
    8572                      .dwattr $C$DW$875, DW_AT_type(*$C$DW$T$162)
    8573                      .dwattr $C$DW$875, DW_AT_name("rsvd8_4")
    8574                      .dwattr $C$DW$875, DW_AT_TI_symbol_name("_rsvd8_4")
    8575                      .dwattr $C$DW$875, DW_AT_data_member_location[DW_OP_plus_uconst 0xd6]
    8576                      .dwattr $C$DW$875, DW_AT_accessibility(DW_ACCESS_public)
    8577              
    8578              $C$DW$876       .dwtag  DW_TAG_member
    8579                      .dwattr $C$DW$876, DW_AT_type(*$C$DW$T$162)
    8580                      .dwattr $C$DW$876, DW_AT_name("rsvd8_5")
    8581                      .dwattr $C$DW$876, DW_AT_TI_symbol_name("_rsvd8_5")
    8582                      .dwattr $C$DW$876, DW_AT_data_member_location[DW_OP_plus_uconst 0xd8]
    8583                      .dwattr $C$DW$876, DW_AT_accessibility(DW_ACCESS_public)
    8584              
    8585              $C$DW$877       .dwtag  DW_TAG_member
    8586                      .dwattr $C$DW$877, DW_AT_type(*$C$DW$T$162)
    8587                      .dwattr $C$DW$877, DW_AT_name("rsvd8_6")
    8588                      .dwattr $C$DW$877, DW_AT_TI_symbol_name("_rsvd8_6")
    8589                      .dwattr $C$DW$877, DW_AT_data_member_location[DW_OP_plus_uconst 0xda]
    8590                      .dwattr $C$DW$877, DW_AT_accessibility(DW_ACCESS_public)
    8591              
    8592              $C$DW$878       .dwtag  DW_TAG_member
    8593                      .dwattr $C$DW$878, DW_AT_type(*$C$DW$T$162)
    8594                      .dwattr $C$DW$878, DW_AT_name("rsvd8_7")
    8595                      .dwattr $C$DW$878, DW_AT_TI_symbol_name("_rsvd8_7")
    8596                      .dwattr $C$DW$878, DW_AT_data_member_location[DW_OP_plus_uconst 0xdc]
    8597                      .dwattr $C$DW$878, DW_AT_accessibility(DW_ACCESS_public)
    8598              
    8599              $C$DW$879       .dwtag  DW_TAG_member
    8600                      .dwattr $C$DW$879, DW_AT_type(*$C$DW$T$162)
    8601                      .dwattr $C$DW$879, DW_AT_name("rsvd8_8")
    8602                      .dwattr $C$DW$879, DW_AT_TI_symbol_name("_rsvd8_8")
    8603                      .dwattr $C$DW$879, DW_AT_data_member_location[DW_OP_plus_uconst 0xde]
    8604                      .dwattr $C$DW$879, DW_AT_accessibility(DW_ACCESS_public)
    8605              
    8606              $C$DW$880       .dwtag  DW_TAG_member
    8607                      .dwattr $C$DW$880, DW_AT_type(*$C$DW$T$162)
    8608                      .dwattr $C$DW$880, DW_AT_name("SCIRXINTA")
    8609                      .dwattr $C$DW$880, DW_AT_TI_symbol_name("_SCIRXINTA")
    8610                      .dwattr $C$DW$880, DW_AT_data_member_location[DW_OP_plus_uconst 0xe0]
    8611                      .dwattr $C$DW$880, DW_AT_accessibility(DW_ACCESS_public)
    8612              
    8613              $C$DW$881       .dwtag  DW_TAG_member
    8614                      .dwattr $C$DW$881, DW_AT_type(*$C$DW$T$162)
    8615                      .dwattr $C$DW$881, DW_AT_name("SCITXINTA")
    8616                      .dwattr $C$DW$881, DW_AT_TI_symbol_name("_SCITXINTA")
TMS320C2000 Assembler PC v15.12.3 Wed Nov 22 01:55:15 2017

Tools Copyright (c) 1996-2015 Texas Instruments Incorporated
C:\Users\wmj\AppData\Local\Temp\1239610                              PAGE  161

    8617                      .dwattr $C$DW$881, DW_AT_data_member_location[DW_OP_plus_uconst 0xe2]
    8618                      .dwattr $C$DW$881, DW_AT_accessibility(DW_ACCESS_public)
    8619              
    8620              $C$DW$882       .dwtag  DW_TAG_member
    8621                      .dwattr $C$DW$882, DW_AT_type(*$C$DW$T$162)
    8622                      .dwattr $C$DW$882, DW_AT_name("rsvd9_3")
    8623                      .dwattr $C$DW$882, DW_AT_TI_symbol_name("_rsvd9_3")
    8624                      .dwattr $C$DW$882, DW_AT_data_member_location[DW_OP_plus_uconst 0xe4]
    8625                      .dwattr $C$DW$882, DW_AT_accessibility(DW_ACCESS_public)
    8626              
    8627              $C$DW$883       .dwtag  DW_TAG_member
    8628                      .dwattr $C$DW$883, DW_AT_type(*$C$DW$T$162)
    8629                      .dwattr $C$DW$883, DW_AT_name("rsvd9_4")
    8630                      .dwattr $C$DW$883, DW_AT_TI_symbol_name("_rsvd9_4")
    8631                      .dwattr $C$DW$883, DW_AT_data_member_location[DW_OP_plus_uconst 0xe6]
    8632                      .dwattr $C$DW$883, DW_AT_accessibility(DW_ACCESS_public)
    8633              
    8634              $C$DW$884       .dwtag  DW_TAG_member
    8635                      .dwattr $C$DW$884, DW_AT_type(*$C$DW$T$162)
    8636                      .dwattr $C$DW$884, DW_AT_name("rsvd9_5")
    8637                      .dwattr $C$DW$884, DW_AT_TI_symbol_name("_rsvd9_5")
    8638                      .dwattr $C$DW$884, DW_AT_data_member_location[DW_OP_plus_uconst 0xe8]
    8639                      .dwattr $C$DW$884, DW_AT_accessibility(DW_ACCESS_public)
    8640              
    8641              $C$DW$885       .dwtag  DW_TAG_member
    8642                      .dwattr $C$DW$885, DW_AT_type(*$C$DW$T$162)
    8643                      .dwattr $C$DW$885, DW_AT_name("rsvd9_6")
    8644                      .dwattr $C$DW$885, DW_AT_TI_symbol_name("_rsvd9_6")
    8645                      .dwattr $C$DW$885, DW_AT_data_member_location[DW_OP_plus_uconst 0xea]
    8646                      .dwattr $C$DW$885, DW_AT_accessibility(DW_ACCESS_public)
    8647              
    8648              $C$DW$886       .dwtag  DW_TAG_member
    8649                      .dwattr $C$DW$886, DW_AT_type(*$C$DW$T$162)
    8650                      .dwattr $C$DW$886, DW_AT_name("rsvd9_7")
    8651                      .dwattr $C$DW$886, DW_AT_TI_symbol_name("_rsvd9_7")
    8652                      .dwattr $C$DW$886, DW_AT_data_member_location[DW_OP_plus_uconst 0xec]
    8653                      .dwattr $C$DW$886, DW_AT_accessibility(DW_ACCESS_public)
    8654              
    8655              $C$DW$887       .dwtag  DW_TAG_member
    8656                      .dwattr $C$DW$887, DW_AT_type(*$C$DW$T$162)
    8657                      .dwattr $C$DW$887, DW_AT_name("rsvd9_8")
    8658                      .dwattr $C$DW$887, DW_AT_TI_symbol_name("_rsvd9_8")
    8659                      .dwattr $C$DW$887, DW_AT_data_member_location[DW_OP_plus_uconst 0xee]
    8660                      .dwattr $C$DW$887, DW_AT_accessibility(DW_ACCESS_public)
    8661              
    8662              $C$DW$888       .dwtag  DW_TAG_member
    8663                      .dwattr $C$DW$888, DW_AT_type(*$C$DW$T$162)
    8664                      .dwattr $C$DW$888, DW_AT_name("ADCINT1")
    8665                      .dwattr $C$DW$888, DW_AT_TI_symbol_name("_ADCINT1")
    8666                      .dwattr $C$DW$888, DW_AT_data_member_location[DW_OP_plus_uconst 0xf0]
    8667                      .dwattr $C$DW$888, DW_AT_accessibility(DW_ACCESS_public)
    8668              
    8669              $C$DW$889       .dwtag  DW_TAG_member
    8670                      .dwattr $C$DW$889, DW_AT_type(*$C$DW$T$162)
    8671                      .dwattr $C$DW$889, DW_AT_name("ADCINT2")
TMS320C2000 Assembler PC v15.12.3 Wed Nov 22 01:55:15 2017

Tools Copyright (c) 1996-2015 Texas Instruments Incorporated
C:\Users\wmj\AppData\Local\Temp\1239610                              PAGE  162

    8672                      .dwattr $C$DW$889, DW_AT_TI_symbol_name("_ADCINT2")
    8673                      .dwattr $C$DW$889, DW_AT_data_member_location[DW_OP_plus_uconst 0xf2]
    8674                      .dwattr $C$DW$889, DW_AT_accessibility(DW_ACCESS_public)
    8675              
    8676              $C$DW$890       .dwtag  DW_TAG_member
    8677                      .dwattr $C$DW$890, DW_AT_type(*$C$DW$T$162)
    8678                      .dwattr $C$DW$890, DW_AT_name("ADCINT3")
    8679                      .dwattr $C$DW$890, DW_AT_TI_symbol_name("_ADCINT3")
    8680                      .dwattr $C$DW$890, DW_AT_data_member_location[DW_OP_plus_uconst 0xf4]
    8681                      .dwattr $C$DW$890, DW_AT_accessibility(DW_ACCESS_public)
    8682              
    8683              $C$DW$891       .dwtag  DW_TAG_member
    8684                      .dwattr $C$DW$891, DW_AT_type(*$C$DW$T$162)
    8685                      .dwattr $C$DW$891, DW_AT_name("ADCINT4")
    8686                      .dwattr $C$DW$891, DW_AT_TI_symbol_name("_ADCINT4")
    8687                      .dwattr $C$DW$891, DW_AT_data_member_location[DW_OP_plus_uconst 0xf6]
    8688                      .dwattr $C$DW$891, DW_AT_accessibility(DW_ACCESS_public)
    8689              
    8690              $C$DW$892       .dwtag  DW_TAG_member
    8691                      .dwattr $C$DW$892, DW_AT_type(*$C$DW$T$162)
    8692                      .dwattr $C$DW$892, DW_AT_name("ADCINT5")
    8693                      .dwattr $C$DW$892, DW_AT_TI_symbol_name("_ADCINT5")
    8694                      .dwattr $C$DW$892, DW_AT_data_member_location[DW_OP_plus_uconst 0xf8]
    8695                      .dwattr $C$DW$892, DW_AT_accessibility(DW_ACCESS_public)
    8696              
    8697              $C$DW$893       .dwtag  DW_TAG_member
    8698                      .dwattr $C$DW$893, DW_AT_type(*$C$DW$T$162)
    8699                      .dwattr $C$DW$893, DW_AT_name("ADCINT6")
    8700                      .dwattr $C$DW$893, DW_AT_TI_symbol_name("_ADCINT6")
    8701                      .dwattr $C$DW$893, DW_AT_data_member_location[DW_OP_plus_uconst 0xfa]
    8702                      .dwattr $C$DW$893, DW_AT_accessibility(DW_ACCESS_public)
    8703              
    8704              $C$DW$894       .dwtag  DW_TAG_member
    8705                      .dwattr $C$DW$894, DW_AT_type(*$C$DW$T$162)
    8706                      .dwattr $C$DW$894, DW_AT_name("ADCINT7")
    8707                      .dwattr $C$DW$894, DW_AT_TI_symbol_name("_ADCINT7")
    8708                      .dwattr $C$DW$894, DW_AT_data_member_location[DW_OP_plus_uconst 0xfc]
    8709                      .dwattr $C$DW$894, DW_AT_accessibility(DW_ACCESS_public)
    8710              
    8711              $C$DW$895       .dwtag  DW_TAG_member
    8712                      .dwattr $C$DW$895, DW_AT_type(*$C$DW$T$162)
    8713                      .dwattr $C$DW$895, DW_AT_name("ADCINT8")
    8714                      .dwattr $C$DW$895, DW_AT_TI_symbol_name("_ADCINT8")
    8715                      .dwattr $C$DW$895, DW_AT_data_member_location[DW_OP_plus_uconst 0xfe]
    8716                      .dwattr $C$DW$895, DW_AT_accessibility(DW_ACCESS_public)
    8717              
    8718              $C$DW$896       .dwtag  DW_TAG_member
    8719                      .dwattr $C$DW$896, DW_AT_type(*$C$DW$T$162)
    8720                      .dwattr $C$DW$896, DW_AT_name("rsvd11_1")
    8721                      .dwattr $C$DW$896, DW_AT_TI_symbol_name("_rsvd11_1")
    8722                      .dwattr $C$DW$896, DW_AT_data_member_location[DW_OP_plus_uconst 0x100]
    8723                      .dwattr $C$DW$896, DW_AT_accessibility(DW_ACCESS_public)
    8724              
    8725              $C$DW$897       .dwtag  DW_TAG_member
    8726                      .dwattr $C$DW$897, DW_AT_type(*$C$DW$T$162)
TMS320C2000 Assembler PC v15.12.3 Wed Nov 22 01:55:15 2017

Tools Copyright (c) 1996-2015 Texas Instruments Incorporated
C:\Users\wmj\AppData\Local\Temp\1239610                              PAGE  163

    8727                      .dwattr $C$DW$897, DW_AT_name("rsvd11_2")
    8728                      .dwattr $C$DW$897, DW_AT_TI_symbol_name("_rsvd11_2")
    8729                      .dwattr $C$DW$897, DW_AT_data_member_location[DW_OP_plus_uconst 0x102]
    8730                      .dwattr $C$DW$897, DW_AT_accessibility(DW_ACCESS_public)
    8731              
    8732              $C$DW$898       .dwtag  DW_TAG_member
    8733                      .dwattr $C$DW$898, DW_AT_type(*$C$DW$T$162)
    8734                      .dwattr $C$DW$898, DW_AT_name("rsvd11_3")
    8735                      .dwattr $C$DW$898, DW_AT_TI_symbol_name("_rsvd11_3")
    8736                      .dwattr $C$DW$898, DW_AT_data_member_location[DW_OP_plus_uconst 0x104]
    8737                      .dwattr $C$DW$898, DW_AT_accessibility(DW_ACCESS_public)
    8738              
    8739              $C$DW$899       .dwtag  DW_TAG_member
    8740                      .dwattr $C$DW$899, DW_AT_type(*$C$DW$T$162)
    8741                      .dwattr $C$DW$899, DW_AT_name("rsvd11_4")
    8742                      .dwattr $C$DW$899, DW_AT_TI_symbol_name("_rsvd11_4")
    8743                      .dwattr $C$DW$899, DW_AT_data_member_location[DW_OP_plus_uconst 0x106]
    8744                      .dwattr $C$DW$899, DW_AT_accessibility(DW_ACCESS_public)
    8745              
    8746              $C$DW$900       .dwtag  DW_TAG_member
    8747                      .dwattr $C$DW$900, DW_AT_type(*$C$DW$T$162)
    8748                      .dwattr $C$DW$900, DW_AT_name("rsvd11_5")
    8749                      .dwattr $C$DW$900, DW_AT_TI_symbol_name("_rsvd11_5")
    8750                      .dwattr $C$DW$900, DW_AT_data_member_location[DW_OP_plus_uconst 0x108]
    8751                      .dwattr $C$DW$900, DW_AT_accessibility(DW_ACCESS_public)
    8752              
    8753              $C$DW$901       .dwtag  DW_TAG_member
    8754                      .dwattr $C$DW$901, DW_AT_type(*$C$DW$T$162)
    8755                      .dwattr $C$DW$901, DW_AT_name("rsvd11_6")
    8756                      .dwattr $C$DW$901, DW_AT_TI_symbol_name("_rsvd11_6")
    8757                      .dwattr $C$DW$901, DW_AT_data_member_location[DW_OP_plus_uconst 0x10a]
    8758                      .dwattr $C$DW$901, DW_AT_accessibility(DW_ACCESS_public)
    8759              
    8760              $C$DW$902       .dwtag  DW_TAG_member
    8761                      .dwattr $C$DW$902, DW_AT_type(*$C$DW$T$162)
    8762                      .dwattr $C$DW$902, DW_AT_name("rsvd11_7")
    8763                      .dwattr $C$DW$902, DW_AT_TI_symbol_name("_rsvd11_7")
    8764                      .dwattr $C$DW$902, DW_AT_data_member_location[DW_OP_plus_uconst 0x10c]
    8765                      .dwattr $C$DW$902, DW_AT_accessibility(DW_ACCESS_public)
    8766              
    8767              $C$DW$903       .dwtag  DW_TAG_member
    8768                      .dwattr $C$DW$903, DW_AT_type(*$C$DW$T$162)
    8769                      .dwattr $C$DW$903, DW_AT_name("rsvd11_8")
    8770                      .dwattr $C$DW$903, DW_AT_TI_symbol_name("_rsvd11_8")
    8771                      .dwattr $C$DW$903, DW_AT_data_member_location[DW_OP_plus_uconst 0x10e]
    8772                      .dwattr $C$DW$903, DW_AT_accessibility(DW_ACCESS_public)
    8773              
    8774              $C$DW$904       .dwtag  DW_TAG_member
    8775                      .dwattr $C$DW$904, DW_AT_type(*$C$DW$T$162)
    8776                      .dwattr $C$DW$904, DW_AT_name("XINT3")
    8777                      .dwattr $C$DW$904, DW_AT_TI_symbol_name("_XINT3")
    8778                      .dwattr $C$DW$904, DW_AT_data_member_location[DW_OP_plus_uconst 0x110]
    8779                      .dwattr $C$DW$904, DW_AT_accessibility(DW_ACCESS_public)
    8780              
    8781              $C$DW$905       .dwtag  DW_TAG_member
TMS320C2000 Assembler PC v15.12.3 Wed Nov 22 01:55:15 2017

Tools Copyright (c) 1996-2015 Texas Instruments Incorporated
C:\Users\wmj\AppData\Local\Temp\1239610                              PAGE  164

    8782                      .dwattr $C$DW$905, DW_AT_type(*$C$DW$T$162)
    8783                      .dwattr $C$DW$905, DW_AT_name("rsvd12_2")
    8784                      .dwattr $C$DW$905, DW_AT_TI_symbol_name("_rsvd12_2")
    8785                      .dwattr $C$DW$905, DW_AT_data_member_location[DW_OP_plus_uconst 0x112]
    8786                      .dwattr $C$DW$905, DW_AT_accessibility(DW_ACCESS_public)
    8787              
    8788              $C$DW$906       .dwtag  DW_TAG_member
    8789                      .dwattr $C$DW$906, DW_AT_type(*$C$DW$T$162)
    8790                      .dwattr $C$DW$906, DW_AT_name("rsvd12_3")
    8791                      .dwattr $C$DW$906, DW_AT_TI_symbol_name("_rsvd12_3")
    8792                      .dwattr $C$DW$906, DW_AT_data_member_location[DW_OP_plus_uconst 0x114]
    8793                      .dwattr $C$DW$906, DW_AT_accessibility(DW_ACCESS_public)
    8794              
    8795              $C$DW$907       .dwtag  DW_TAG_member
    8796                      .dwattr $C$DW$907, DW_AT_type(*$C$DW$T$162)
    8797                      .dwattr $C$DW$907, DW_AT_name("rsvd12_4")
    8798                      .dwattr $C$DW$907, DW_AT_TI_symbol_name("_rsvd12_4")
    8799                      .dwattr $C$DW$907, DW_AT_data_member_location[DW_OP_plus_uconst 0x116]
    8800                      .dwattr $C$DW$907, DW_AT_accessibility(DW_ACCESS_public)
    8801              
    8802              $C$DW$908       .dwtag  DW_TAG_member
    8803                      .dwattr $C$DW$908, DW_AT_type(*$C$DW$T$162)
    8804                      .dwattr $C$DW$908, DW_AT_name("rsvd12_5")
    8805                      .dwattr $C$DW$908, DW_AT_TI_symbol_name("_rsvd12_5")
    8806                      .dwattr $C$DW$908, DW_AT_data_member_location[DW_OP_plus_uconst 0x118]
    8807                      .dwattr $C$DW$908, DW_AT_accessibility(DW_ACCESS_public)
    8808              
    8809              $C$DW$909       .dwtag  DW_TAG_member
    8810                      .dwattr $C$DW$909, DW_AT_type(*$C$DW$T$162)
    8811                      .dwattr $C$DW$909, DW_AT_name("rsvd12_6")
    8812                      .dwattr $C$DW$909, DW_AT_TI_symbol_name("_rsvd12_6")
    8813                      .dwattr $C$DW$909, DW_AT_data_member_location[DW_OP_plus_uconst 0x11a]
    8814                      .dwattr $C$DW$909, DW_AT_accessibility(DW_ACCESS_public)
    8815              
    8816              $C$DW$910       .dwtag  DW_TAG_member
    8817                      .dwattr $C$DW$910, DW_AT_type(*$C$DW$T$162)
    8818                      .dwattr $C$DW$910, DW_AT_name("rsvd12_7")
    8819                      .dwattr $C$DW$910, DW_AT_TI_symbol_name("_rsvd12_7")
    8820                      .dwattr $C$DW$910, DW_AT_data_member_location[DW_OP_plus_uconst 0x11c]
    8821                      .dwattr $C$DW$910, DW_AT_accessibility(DW_ACCESS_public)
    8822              
    8823              $C$DW$911       .dwtag  DW_TAG_member
    8824                      .dwattr $C$DW$911, DW_AT_type(*$C$DW$T$162)
    8825                      .dwattr $C$DW$911, DW_AT_name("rsvd12_8")
    8826                      .dwattr $C$DW$911, DW_AT_TI_symbol_name("_rsvd12_8")
    8827                      .dwattr $C$DW$911, DW_AT_data_member_location[DW_OP_plus_uconst 0x11e]
    8828                      .dwattr $C$DW$911, DW_AT_accessibility(DW_ACCESS_public)
    8829              
    8830              $C$DW$912       .dwtag  DW_TAG_member
    8831                      .dwattr $C$DW$912, DW_AT_type(*$C$DW$T$163)
    8832                      .dwattr $C$DW$912, DW_AT_name("rsvd13")
    8833                      .dwattr $C$DW$912, DW_AT_TI_symbol_name("_rsvd13")
    8834                      .dwattr $C$DW$912, DW_AT_data_member_location[DW_OP_plus_uconst 0x120]
    8835                      .dwattr $C$DW$912, DW_AT_accessibility(DW_ACCESS_public)
    8836              
TMS320C2000 Assembler PC v15.12.3 Wed Nov 22 01:55:15 2017

Tools Copyright (c) 1996-2015 Texas Instruments Incorporated
C:\Users\wmj\AppData\Local\Temp\1239610                              PAGE  165

    8837              $C$DW$913       .dwtag  DW_TAG_member
    8838                      .dwattr $C$DW$913, DW_AT_type(*$C$DW$T$27)
    8839                      .dwattr $C$DW$913, DW_AT_name("XINTnCR")
    8840                      .dwattr $C$DW$913, DW_AT_TI_symbol_name("_XINTnCR")
    8841                      .dwattr $C$DW$913, DW_AT_data_member_location[DW_OP_plus_uconst 0x6390]
    8842                      .dwattr $C$DW$913, DW_AT_accessibility(DW_ACCESS_public)
    8843              
    8844              $C$DW$914       .dwtag  DW_TAG_member
    8845                      .dwattr $C$DW$914, DW_AT_type(*$C$DW$T$26)
    8846                      .dwattr $C$DW$914, DW_AT_name("rsvd14")
    8847                      .dwattr $C$DW$914, DW_AT_TI_symbol_name("_rsvd14")
    8848                      .dwattr $C$DW$914, DW_AT_data_member_location[DW_OP_plus_uconst 0x6393]
    8849                      .dwattr $C$DW$914, DW_AT_accessibility(DW_ACCESS_public)
    8850              
    8851              $C$DW$915       .dwtag  DW_TAG_member
    8852                      .dwattr $C$DW$915, DW_AT_type(*$C$DW$T$27)
    8853                      .dwattr $C$DW$915, DW_AT_name("XINTnCTR")
    8854                      .dwattr $C$DW$915, DW_AT_TI_symbol_name("_XINTnCTR")
    8855                      .dwattr $C$DW$915, DW_AT_data_member_location[DW_OP_plus_uconst 0x6398]
    8856                      .dwattr $C$DW$915, DW_AT_accessibility(DW_ACCESS_public)
    8857              
    8858                      .dwendtag $C$DW$T$164
    8859              
    8860              $C$DW$T$96      .dwtag  DW_TAG_pointer_type
    8861                      .dwattr $C$DW$T$96, DW_AT_type(*$C$DW$T$164)
    8862                      .dwattr $C$DW$T$96, DW_AT_address_class(0x20)
    8863              
    8864              $C$DW$T$97      .dwtag  DW_TAG_typedef
    8865                      .dwattr $C$DW$T$97, DW_AT_name("PIE_Handle")
    8866                      .dwattr $C$DW$T$97, DW_AT_type(*$C$DW$T$96)
    8867                      .dwattr $C$DW$T$97, DW_AT_language(DW_LANG_C)
    8868              
    8869              
    8870              $C$DW$T$165     .dwtag  DW_TAG_structure_type
    8871                      .dwattr $C$DW$T$165, DW_AT_name("_PLL_Obj_")
    8872                      .dwattr $C$DW$T$165, DW_AT_byte_size(0x11)
    8873              $C$DW$916       .dwtag  DW_TAG_member
    8874                      .dwattr $C$DW$916, DW_AT_type(*$C$DW$T$22)
    8875                      .dwattr $C$DW$916, DW_AT_name("PLLSTS")
    8876                      .dwattr $C$DW$916, DW_AT_TI_symbol_name("_PLLSTS")
    8877                      .dwattr $C$DW$916, DW_AT_data_member_location[DW_OP_plus_uconst 0x0]
    8878                      .dwattr $C$DW$916, DW_AT_accessibility(DW_ACCESS_public)
    8879              
    8880              $C$DW$917       .dwtag  DW_TAG_member
    8881                      .dwattr $C$DW$917, DW_AT_type(*$C$DW$T$22)
    8882                      .dwattr $C$DW$917, DW_AT_name("rsvd_1")
    8883                      .dwattr $C$DW$917, DW_AT_TI_symbol_name("_rsvd_1")
    8884                      .dwattr $C$DW$917, DW_AT_data_member_location[DW_OP_plus_uconst 0x1]
    8885                      .dwattr $C$DW$917, DW_AT_accessibility(DW_ACCESS_public)
    8886              
    8887              $C$DW$918       .dwtag  DW_TAG_member
    8888                      .dwattr $C$DW$918, DW_AT_type(*$C$DW$T$22)
    8889                      .dwattr $C$DW$918, DW_AT_name("PLLLOCKPRD")
    8890                      .dwattr $C$DW$918, DW_AT_TI_symbol_name("_PLLLOCKPRD")
    8891                      .dwattr $C$DW$918, DW_AT_data_member_location[DW_OP_plus_uconst 0x2]
TMS320C2000 Assembler PC v15.12.3 Wed Nov 22 01:55:15 2017

Tools Copyright (c) 1996-2015 Texas Instruments Incorporated
C:\Users\wmj\AppData\Local\Temp\1239610                              PAGE  166

    8892                      .dwattr $C$DW$918, DW_AT_accessibility(DW_ACCESS_public)
    8893              
    8894              $C$DW$919       .dwtag  DW_TAG_member
    8895                      .dwattr $C$DW$919, DW_AT_type(*$C$DW$T$28)
    8896                      .dwattr $C$DW$919, DW_AT_name("rsvd_2")
    8897                      .dwattr $C$DW$919, DW_AT_TI_symbol_name("_rsvd_2")
    8898                      .dwattr $C$DW$919, DW_AT_data_member_location[DW_OP_plus_uconst 0x3]
    8899                      .dwattr $C$DW$919, DW_AT_accessibility(DW_ACCESS_public)
    8900              
    8901              $C$DW$920       .dwtag  DW_TAG_member
    8902                      .dwattr $C$DW$920, DW_AT_type(*$C$DW$T$22)
    8903                      .dwattr $C$DW$920, DW_AT_name("PLLCR")
    8904                      .dwattr $C$DW$920, DW_AT_TI_symbol_name("_PLLCR")
    8905                      .dwattr $C$DW$920, DW_AT_data_member_location[DW_OP_plus_uconst 0x10]
    8906                      .dwattr $C$DW$920, DW_AT_accessibility(DW_ACCESS_public)
    8907              
    8908                      .dwendtag $C$DW$T$165
    8909              
    8910              $C$DW$T$98      .dwtag  DW_TAG_pointer_type
    8911                      .dwattr $C$DW$T$98, DW_AT_type(*$C$DW$T$165)
    8912                      .dwattr $C$DW$T$98, DW_AT_address_class(0x20)
    8913              
    8914              $C$DW$T$99      .dwtag  DW_TAG_typedef
    8915                      .dwattr $C$DW$T$99, DW_AT_name("PLL_Handle")
    8916                      .dwattr $C$DW$T$99, DW_AT_type(*$C$DW$T$98)
    8917                      .dwattr $C$DW$T$99, DW_AT_language(DW_LANG_C)
    8918              
    8919              
    8920              $C$DW$T$166     .dwtag  DW_TAG_structure_type
    8921                      .dwattr $C$DW$T$166, DW_AT_name("_PWM_Obj_")
    8922                      .dwattr $C$DW$T$166, DW_AT_byte_size(0x3a)
    8923              $C$DW$921       .dwtag  DW_TAG_member
    8924                      .dwattr $C$DW$921, DW_AT_type(*$C$DW$T$22)
    8925                      .dwattr $C$DW$921, DW_AT_name("TBCTL")
    8926                      .dwattr $C$DW$921, DW_AT_TI_symbol_name("_TBCTL")
    8927                      .dwattr $C$DW$921, DW_AT_data_member_location[DW_OP_plus_uconst 0x0]
    8928                      .dwattr $C$DW$921, DW_AT_accessibility(DW_ACCESS_public)
    8929              
    8930              $C$DW$922       .dwtag  DW_TAG_member
    8931                      .dwattr $C$DW$922, DW_AT_type(*$C$DW$T$22)
    8932                      .dwattr $C$DW$922, DW_AT_name("TBSTS")
    8933                      .dwattr $C$DW$922, DW_AT_TI_symbol_name("_TBSTS")
    8934                      .dwattr $C$DW$922, DW_AT_data_member_location[DW_OP_plus_uconst 0x1]
    8935                      .dwattr $C$DW$922, DW_AT_accessibility(DW_ACCESS_public)
    8936              
    8937              $C$DW$923       .dwtag  DW_TAG_member
    8938                      .dwattr $C$DW$923, DW_AT_type(*$C$DW$T$22)
    8939                      .dwattr $C$DW$923, DW_AT_name("TBPHSHR")
    8940                      .dwattr $C$DW$923, DW_AT_TI_symbol_name("_TBPHSHR")
    8941                      .dwattr $C$DW$923, DW_AT_data_member_location[DW_OP_plus_uconst 0x2]
    8942                      .dwattr $C$DW$923, DW_AT_accessibility(DW_ACCESS_public)
    8943              
    8944              $C$DW$924       .dwtag  DW_TAG_member
    8945                      .dwattr $C$DW$924, DW_AT_type(*$C$DW$T$22)
    8946                      .dwattr $C$DW$924, DW_AT_name("TBPHS")
TMS320C2000 Assembler PC v15.12.3 Wed Nov 22 01:55:15 2017

Tools Copyright (c) 1996-2015 Texas Instruments Incorporated
C:\Users\wmj\AppData\Local\Temp\1239610                              PAGE  167

    8947                      .dwattr $C$DW$924, DW_AT_TI_symbol_name("_TBPHS")
    8948                      .dwattr $C$DW$924, DW_AT_data_member_location[DW_OP_plus_uconst 0x3]
    8949                      .dwattr $C$DW$924, DW_AT_accessibility(DW_ACCESS_public)
    8950              
    8951              $C$DW$925       .dwtag  DW_TAG_member
    8952                      .dwattr $C$DW$925, DW_AT_type(*$C$DW$T$22)
    8953                      .dwattr $C$DW$925, DW_AT_name("TBCTR")
    8954                      .dwattr $C$DW$925, DW_AT_TI_symbol_name("_TBCTR")
    8955                      .dwattr $C$DW$925, DW_AT_data_member_location[DW_OP_plus_uconst 0x4]
    8956                      .dwattr $C$DW$925, DW_AT_accessibility(DW_ACCESS_public)
    8957              
    8958              $C$DW$926       .dwtag  DW_TAG_member
    8959                      .dwattr $C$DW$926, DW_AT_type(*$C$DW$T$22)
    8960                      .dwattr $C$DW$926, DW_AT_name("TBPRD")
    8961                      .dwattr $C$DW$926, DW_AT_TI_symbol_name("_TBPRD")
    8962                      .dwattr $C$DW$926, DW_AT_data_member_location[DW_OP_plus_uconst 0x5]
    8963                      .dwattr $C$DW$926, DW_AT_accessibility(DW_ACCESS_public)
    8964              
    8965              $C$DW$927       .dwtag  DW_TAG_member
    8966                      .dwattr $C$DW$927, DW_AT_type(*$C$DW$T$22)
    8967                      .dwattr $C$DW$927, DW_AT_name("TBPRDHR")
    8968                      .dwattr $C$DW$927, DW_AT_TI_symbol_name("_TBPRDHR")
    8969                      .dwattr $C$DW$927, DW_AT_data_member_location[DW_OP_plus_uconst 0x6]
    8970                      .dwattr $C$DW$927, DW_AT_accessibility(DW_ACCESS_public)
    8971              
    8972              $C$DW$928       .dwtag  DW_TAG_member
    8973                      .dwattr $C$DW$928, DW_AT_type(*$C$DW$T$22)
    8974                      .dwattr $C$DW$928, DW_AT_name("CMPCTL")
    8975                      .dwattr $C$DW$928, DW_AT_TI_symbol_name("_CMPCTL")
    8976                      .dwattr $C$DW$928, DW_AT_data_member_location[DW_OP_plus_uconst 0x7]
    8977                      .dwattr $C$DW$928, DW_AT_accessibility(DW_ACCESS_public)
    8978              
    8979              $C$DW$929       .dwtag  DW_TAG_member
    8980                      .dwattr $C$DW$929, DW_AT_type(*$C$DW$T$22)
    8981                      .dwattr $C$DW$929, DW_AT_name("CMPAHR")
    8982                      .dwattr $C$DW$929, DW_AT_TI_symbol_name("_CMPAHR")
    8983                      .dwattr $C$DW$929, DW_AT_data_member_location[DW_OP_plus_uconst 0x8]
    8984                      .dwattr $C$DW$929, DW_AT_accessibility(DW_ACCESS_public)
    8985              
    8986              $C$DW$930       .dwtag  DW_TAG_member
    8987                      .dwattr $C$DW$930, DW_AT_type(*$C$DW$T$22)
    8988                      .dwattr $C$DW$930, DW_AT_name("CMPA")
    8989                      .dwattr $C$DW$930, DW_AT_TI_symbol_name("_CMPA")
    8990                      .dwattr $C$DW$930, DW_AT_data_member_location[DW_OP_plus_uconst 0x9]
    8991                      .dwattr $C$DW$930, DW_AT_accessibility(DW_ACCESS_public)
    8992              
    8993              $C$DW$931       .dwtag  DW_TAG_member
    8994                      .dwattr $C$DW$931, DW_AT_type(*$C$DW$T$22)
    8995                      .dwattr $C$DW$931, DW_AT_name("CMPB")
    8996                      .dwattr $C$DW$931, DW_AT_TI_symbol_name("_CMPB")
    8997                      .dwattr $C$DW$931, DW_AT_data_member_location[DW_OP_plus_uconst 0xa]
    8998                      .dwattr $C$DW$931, DW_AT_accessibility(DW_ACCESS_public)
    8999              
    9000              $C$DW$932       .dwtag  DW_TAG_member
    9001                      .dwattr $C$DW$932, DW_AT_type(*$C$DW$T$22)
TMS320C2000 Assembler PC v15.12.3 Wed Nov 22 01:55:15 2017

Tools Copyright (c) 1996-2015 Texas Instruments Incorporated
C:\Users\wmj\AppData\Local\Temp\1239610                              PAGE  168

    9002                      .dwattr $C$DW$932, DW_AT_name("AQCTLA")
    9003                      .dwattr $C$DW$932, DW_AT_TI_symbol_name("_AQCTLA")
    9004                      .dwattr $C$DW$932, DW_AT_data_member_location[DW_OP_plus_uconst 0xb]
    9005                      .dwattr $C$DW$932, DW_AT_accessibility(DW_ACCESS_public)
    9006              
    9007              $C$DW$933       .dwtag  DW_TAG_member
    9008                      .dwattr $C$DW$933, DW_AT_type(*$C$DW$T$22)
    9009                      .dwattr $C$DW$933, DW_AT_name("AQCTLB")
    9010                      .dwattr $C$DW$933, DW_AT_TI_symbol_name("_AQCTLB")
    9011                      .dwattr $C$DW$933, DW_AT_data_member_location[DW_OP_plus_uconst 0xc]
    9012                      .dwattr $C$DW$933, DW_AT_accessibility(DW_ACCESS_public)
    9013              
    9014              $C$DW$934       .dwtag  DW_TAG_member
    9015                      .dwattr $C$DW$934, DW_AT_type(*$C$DW$T$22)
    9016                      .dwattr $C$DW$934, DW_AT_name("AQSFRC")
    9017                      .dwattr $C$DW$934, DW_AT_TI_symbol_name("_AQSFRC")
    9018                      .dwattr $C$DW$934, DW_AT_data_member_location[DW_OP_plus_uconst 0xd]
    9019                      .dwattr $C$DW$934, DW_AT_accessibility(DW_ACCESS_public)
    9020              
    9021              $C$DW$935       .dwtag  DW_TAG_member
    9022                      .dwattr $C$DW$935, DW_AT_type(*$C$DW$T$22)
    9023                      .dwattr $C$DW$935, DW_AT_name("AQCSFRC")
    9024                      .dwattr $C$DW$935, DW_AT_TI_symbol_name("_AQCSFRC")
    9025                      .dwattr $C$DW$935, DW_AT_data_member_location[DW_OP_plus_uconst 0xe]
    9026                      .dwattr $C$DW$935, DW_AT_accessibility(DW_ACCESS_public)
    9027              
    9028              $C$DW$936       .dwtag  DW_TAG_member
    9029                      .dwattr $C$DW$936, DW_AT_type(*$C$DW$T$22)
    9030                      .dwattr $C$DW$936, DW_AT_name("DBCTL")
    9031                      .dwattr $C$DW$936, DW_AT_TI_symbol_name("_DBCTL")
    9032                      .dwattr $C$DW$936, DW_AT_data_member_location[DW_OP_plus_uconst 0xf]
    9033                      .dwattr $C$DW$936, DW_AT_accessibility(DW_ACCESS_public)
    9034              
    9035              $C$DW$937       .dwtag  DW_TAG_member
    9036                      .dwattr $C$DW$937, DW_AT_type(*$C$DW$T$22)
    9037                      .dwattr $C$DW$937, DW_AT_name("DBRED")
    9038                      .dwattr $C$DW$937, DW_AT_TI_symbol_name("_DBRED")
    9039                      .dwattr $C$DW$937, DW_AT_data_member_location[DW_OP_plus_uconst 0x10]
    9040                      .dwattr $C$DW$937, DW_AT_accessibility(DW_ACCESS_public)
    9041              
    9042              $C$DW$938       .dwtag  DW_TAG_member
    9043                      .dwattr $C$DW$938, DW_AT_type(*$C$DW$T$22)
    9044                      .dwattr $C$DW$938, DW_AT_name("DBFED")
    9045                      .dwattr $C$DW$938, DW_AT_TI_symbol_name("_DBFED")
    9046                      .dwattr $C$DW$938, DW_AT_data_member_location[DW_OP_plus_uconst 0x11]
    9047                      .dwattr $C$DW$938, DW_AT_accessibility(DW_ACCESS_public)
    9048              
    9049              $C$DW$939       .dwtag  DW_TAG_member
    9050                      .dwattr $C$DW$939, DW_AT_type(*$C$DW$T$22)
    9051                      .dwattr $C$DW$939, DW_AT_name("TZSEL")
    9052                      .dwattr $C$DW$939, DW_AT_TI_symbol_name("_TZSEL")
    9053                      .dwattr $C$DW$939, DW_AT_data_member_location[DW_OP_plus_uconst 0x12]
    9054                      .dwattr $C$DW$939, DW_AT_accessibility(DW_ACCESS_public)
    9055              
    9056              $C$DW$940       .dwtag  DW_TAG_member
TMS320C2000 Assembler PC v15.12.3 Wed Nov 22 01:55:15 2017

Tools Copyright (c) 1996-2015 Texas Instruments Incorporated
C:\Users\wmj\AppData\Local\Temp\1239610                              PAGE  169

    9057                      .dwattr $C$DW$940, DW_AT_type(*$C$DW$T$22)
    9058                      .dwattr $C$DW$940, DW_AT_name("TZDCSEL")
    9059                      .dwattr $C$DW$940, DW_AT_TI_symbol_name("_TZDCSEL")
    9060                      .dwattr $C$DW$940, DW_AT_data_member_location[DW_OP_plus_uconst 0x13]
    9061                      .dwattr $C$DW$940, DW_AT_accessibility(DW_ACCESS_public)
    9062              
    9063              $C$DW$941       .dwtag  DW_TAG_member
    9064                      .dwattr $C$DW$941, DW_AT_type(*$C$DW$T$22)
    9065                      .dwattr $C$DW$941, DW_AT_name("TZCTL")
    9066                      .dwattr $C$DW$941, DW_AT_TI_symbol_name("_TZCTL")
    9067                      .dwattr $C$DW$941, DW_AT_data_member_location[DW_OP_plus_uconst 0x14]
    9068                      .dwattr $C$DW$941, DW_AT_accessibility(DW_ACCESS_public)
    9069              
    9070              $C$DW$942       .dwtag  DW_TAG_member
    9071                      .dwattr $C$DW$942, DW_AT_type(*$C$DW$T$22)
    9072                      .dwattr $C$DW$942, DW_AT_name("TZEINT")
    9073                      .dwattr $C$DW$942, DW_AT_TI_symbol_name("_TZEINT")
    9074                      .dwattr $C$DW$942, DW_AT_data_member_location[DW_OP_plus_uconst 0x15]
    9075                      .dwattr $C$DW$942, DW_AT_accessibility(DW_ACCESS_public)
    9076              
    9077              $C$DW$943       .dwtag  DW_TAG_member
    9078                      .dwattr $C$DW$943, DW_AT_type(*$C$DW$T$22)
    9079                      .dwattr $C$DW$943, DW_AT_name("TZFLG")
    9080                      .dwattr $C$DW$943, DW_AT_TI_symbol_name("_TZFLG")
    9081                      .dwattr $C$DW$943, DW_AT_data_member_location[DW_OP_plus_uconst 0x16]
    9082                      .dwattr $C$DW$943, DW_AT_accessibility(DW_ACCESS_public)
    9083              
    9084              $C$DW$944       .dwtag  DW_TAG_member
    9085                      .dwattr $C$DW$944, DW_AT_type(*$C$DW$T$22)
    9086                      .dwattr $C$DW$944, DW_AT_name("TZCLR")
    9087                      .dwattr $C$DW$944, DW_AT_TI_symbol_name("_TZCLR")
    9088                      .dwattr $C$DW$944, DW_AT_data_member_location[DW_OP_plus_uconst 0x17]
    9089                      .dwattr $C$DW$944, DW_AT_accessibility(DW_ACCESS_public)
    9090              
    9091              $C$DW$945       .dwtag  DW_TAG_member
    9092                      .dwattr $C$DW$945, DW_AT_type(*$C$DW$T$22)
    9093                      .dwattr $C$DW$945, DW_AT_name("TZFRC")
    9094                      .dwattr $C$DW$945, DW_AT_TI_symbol_name("_TZFRC")
    9095                      .dwattr $C$DW$945, DW_AT_data_member_location[DW_OP_plus_uconst 0x18]
    9096                      .dwattr $C$DW$945, DW_AT_accessibility(DW_ACCESS_public)
    9097              
    9098              $C$DW$946       .dwtag  DW_TAG_member
    9099                      .dwattr $C$DW$946, DW_AT_type(*$C$DW$T$22)
    9100                      .dwattr $C$DW$946, DW_AT_name("ETSEL")
    9101                      .dwattr $C$DW$946, DW_AT_TI_symbol_name("_ETSEL")
    9102                      .dwattr $C$DW$946, DW_AT_data_member_location[DW_OP_plus_uconst 0x19]
    9103                      .dwattr $C$DW$946, DW_AT_accessibility(DW_ACCESS_public)
    9104              
    9105              $C$DW$947       .dwtag  DW_TAG_member
    9106                      .dwattr $C$DW$947, DW_AT_type(*$C$DW$T$22)
    9107                      .dwattr $C$DW$947, DW_AT_name("ETPS")
    9108                      .dwattr $C$DW$947, DW_AT_TI_symbol_name("_ETPS")
    9109                      .dwattr $C$DW$947, DW_AT_data_member_location[DW_OP_plus_uconst 0x1a]
    9110                      .dwattr $C$DW$947, DW_AT_accessibility(DW_ACCESS_public)
    9111              
TMS320C2000 Assembler PC v15.12.3 Wed Nov 22 01:55:15 2017

Tools Copyright (c) 1996-2015 Texas Instruments Incorporated
C:\Users\wmj\AppData\Local\Temp\1239610                              PAGE  170

    9112              $C$DW$948       .dwtag  DW_TAG_member
    9113                      .dwattr $C$DW$948, DW_AT_type(*$C$DW$T$22)
    9114                      .dwattr $C$DW$948, DW_AT_name("ETFLG")
    9115                      .dwattr $C$DW$948, DW_AT_TI_symbol_name("_ETFLG")
    9116                      .dwattr $C$DW$948, DW_AT_data_member_location[DW_OP_plus_uconst 0x1b]
    9117                      .dwattr $C$DW$948, DW_AT_accessibility(DW_ACCESS_public)
    9118              
    9119              $C$DW$949       .dwtag  DW_TAG_member
    9120                      .dwattr $C$DW$949, DW_AT_type(*$C$DW$T$22)
    9121                      .dwattr $C$DW$949, DW_AT_name("ETCLR")
    9122                      .dwattr $C$DW$949, DW_AT_TI_symbol_name("_ETCLR")
    9123                      .dwattr $C$DW$949, DW_AT_data_member_location[DW_OP_plus_uconst 0x1c]
    9124                      .dwattr $C$DW$949, DW_AT_accessibility(DW_ACCESS_public)
    9125              
    9126              $C$DW$950       .dwtag  DW_TAG_member
    9127                      .dwattr $C$DW$950, DW_AT_type(*$C$DW$T$22)
    9128                      .dwattr $C$DW$950, DW_AT_name("ETFRC")
    9129                      .dwattr $C$DW$950, DW_AT_TI_symbol_name("_ETFRC")
    9130                      .dwattr $C$DW$950, DW_AT_data_member_location[DW_OP_plus_uconst 0x1d]
    9131                      .dwattr $C$DW$950, DW_AT_accessibility(DW_ACCESS_public)
    9132              
    9133              $C$DW$951       .dwtag  DW_TAG_member
    9134                      .dwattr $C$DW$951, DW_AT_type(*$C$DW$T$22)
    9135                      .dwattr $C$DW$951, DW_AT_name("PCCTL")
    9136                      .dwattr $C$DW$951, DW_AT_TI_symbol_name("_PCCTL")
    9137                      .dwattr $C$DW$951, DW_AT_data_member_location[DW_OP_plus_uconst 0x1e]
    9138                      .dwattr $C$DW$951, DW_AT_accessibility(DW_ACCESS_public)
    9139              
    9140              $C$DW$952       .dwtag  DW_TAG_member
    9141                      .dwattr $C$DW$952, DW_AT_type(*$C$DW$T$22)
    9142                      .dwattr $C$DW$952, DW_AT_name("rsvd_1")
    9143                      .dwattr $C$DW$952, DW_AT_TI_symbol_name("_rsvd_1")
    9144                      .dwattr $C$DW$952, DW_AT_data_member_location[DW_OP_plus_uconst 0x1f]
    9145                      .dwattr $C$DW$952, DW_AT_accessibility(DW_ACCESS_public)
    9146              
    9147              $C$DW$953       .dwtag  DW_TAG_member
    9148                      .dwattr $C$DW$953, DW_AT_type(*$C$DW$T$22)
    9149                      .dwattr $C$DW$953, DW_AT_name("HRCNFG")
    9150                      .dwattr $C$DW$953, DW_AT_TI_symbol_name("_HRCNFG")
    9151                      .dwattr $C$DW$953, DW_AT_data_member_location[DW_OP_plus_uconst 0x20]
    9152                      .dwattr $C$DW$953, DW_AT_accessibility(DW_ACCESS_public)
    9153              
    9154              $C$DW$954       .dwtag  DW_TAG_member
    9155                      .dwattr $C$DW$954, DW_AT_type(*$C$DW$T$22)
    9156                      .dwattr $C$DW$954, DW_AT_name("HRPWR")
    9157                      .dwattr $C$DW$954, DW_AT_TI_symbol_name("_HRPWR")
    9158                      .dwattr $C$DW$954, DW_AT_data_member_location[DW_OP_plus_uconst 0x21]
    9159                      .dwattr $C$DW$954, DW_AT_accessibility(DW_ACCESS_public)
    9160              
    9161              $C$DW$955       .dwtag  DW_TAG_member
    9162                      .dwattr $C$DW$955, DW_AT_type(*$C$DW$T$75)
    9163                      .dwattr $C$DW$955, DW_AT_name("rsvd_2")
    9164                      .dwattr $C$DW$955, DW_AT_TI_symbol_name("_rsvd_2")
    9165                      .dwattr $C$DW$955, DW_AT_data_member_location[DW_OP_plus_uconst 0x22]
    9166                      .dwattr $C$DW$955, DW_AT_accessibility(DW_ACCESS_public)
TMS320C2000 Assembler PC v15.12.3 Wed Nov 22 01:55:15 2017

Tools Copyright (c) 1996-2015 Texas Instruments Incorporated
C:\Users\wmj\AppData\Local\Temp\1239610                              PAGE  171

    9167              
    9168              $C$DW$956       .dwtag  DW_TAG_member
    9169                      .dwattr $C$DW$956, DW_AT_type(*$C$DW$T$22)
    9170                      .dwattr $C$DW$956, DW_AT_name("HRMSTEP")
    9171                      .dwattr $C$DW$956, DW_AT_TI_symbol_name("_HRMSTEP")
    9172                      .dwattr $C$DW$956, DW_AT_data_member_location[DW_OP_plus_uconst 0x26]
    9173                      .dwattr $C$DW$956, DW_AT_accessibility(DW_ACCESS_public)
    9174              
    9175              $C$DW$957       .dwtag  DW_TAG_member
    9176                      .dwattr $C$DW$957, DW_AT_type(*$C$DW$T$22)
    9177                      .dwattr $C$DW$957, DW_AT_name("rsvd_3")
    9178                      .dwattr $C$DW$957, DW_AT_TI_symbol_name("_rsvd_3")
    9179                      .dwattr $C$DW$957, DW_AT_data_member_location[DW_OP_plus_uconst 0x27]
    9180                      .dwattr $C$DW$957, DW_AT_accessibility(DW_ACCESS_public)
    9181              
    9182              $C$DW$958       .dwtag  DW_TAG_member
    9183                      .dwattr $C$DW$958, DW_AT_type(*$C$DW$T$22)
    9184                      .dwattr $C$DW$958, DW_AT_name("HRPCTL")
    9185                      .dwattr $C$DW$958, DW_AT_TI_symbol_name("_HRPCTL")
    9186                      .dwattr $C$DW$958, DW_AT_data_member_location[DW_OP_plus_uconst 0x28]
    9187                      .dwattr $C$DW$958, DW_AT_accessibility(DW_ACCESS_public)
    9188              
    9189              $C$DW$959       .dwtag  DW_TAG_member
    9190                      .dwattr $C$DW$959, DW_AT_type(*$C$DW$T$22)
    9191                      .dwattr $C$DW$959, DW_AT_name("rsvd_4")
    9192                      .dwattr $C$DW$959, DW_AT_TI_symbol_name("_rsvd_4")
    9193                      .dwattr $C$DW$959, DW_AT_data_member_location[DW_OP_plus_uconst 0x29]
    9194                      .dwattr $C$DW$959, DW_AT_accessibility(DW_ACCESS_public)
    9195              
    9196              $C$DW$960       .dwtag  DW_TAG_member
    9197                      .dwattr $C$DW$960, DW_AT_type(*$C$DW$T$22)
    9198                      .dwattr $C$DW$960, DW_AT_name("TBPRDHRM")
    9199                      .dwattr $C$DW$960, DW_AT_TI_symbol_name("_TBPRDHRM")
    9200                      .dwattr $C$DW$960, DW_AT_data_member_location[DW_OP_plus_uconst 0x2a]
    9201                      .dwattr $C$DW$960, DW_AT_accessibility(DW_ACCESS_public)
    9202              
    9203              $C$DW$961       .dwtag  DW_TAG_member
    9204                      .dwattr $C$DW$961, DW_AT_type(*$C$DW$T$22)
    9205                      .dwattr $C$DW$961, DW_AT_name("TBPRDM")
    9206                      .dwattr $C$DW$961, DW_AT_TI_symbol_name("_TBPRDM")
    9207                      .dwattr $C$DW$961, DW_AT_data_member_location[DW_OP_plus_uconst 0x2b]
    9208                      .dwattr $C$DW$961, DW_AT_accessibility(DW_ACCESS_public)
    9209              
    9210              $C$DW$962       .dwtag  DW_TAG_member
    9211                      .dwattr $C$DW$962, DW_AT_type(*$C$DW$T$22)
    9212                      .dwattr $C$DW$962, DW_AT_name("CMPAHRM")
    9213                      .dwattr $C$DW$962, DW_AT_TI_symbol_name("_CMPAHRM")
    9214                      .dwattr $C$DW$962, DW_AT_data_member_location[DW_OP_plus_uconst 0x2c]
    9215                      .dwattr $C$DW$962, DW_AT_accessibility(DW_ACCESS_public)
    9216              
    9217              $C$DW$963       .dwtag  DW_TAG_member
    9218                      .dwattr $C$DW$963, DW_AT_type(*$C$DW$T$22)
    9219                      .dwattr $C$DW$963, DW_AT_name("CMPAM")
    9220                      .dwattr $C$DW$963, DW_AT_TI_symbol_name("_CMPAM")
    9221                      .dwattr $C$DW$963, DW_AT_data_member_location[DW_OP_plus_uconst 0x2d]
TMS320C2000 Assembler PC v15.12.3 Wed Nov 22 01:55:15 2017

Tools Copyright (c) 1996-2015 Texas Instruments Incorporated
C:\Users\wmj\AppData\Local\Temp\1239610                              PAGE  172

    9222                      .dwattr $C$DW$963, DW_AT_accessibility(DW_ACCESS_public)
    9223              
    9224              $C$DW$964       .dwtag  DW_TAG_member
    9225                      .dwattr $C$DW$964, DW_AT_type(*$C$DW$T$25)
    9226                      .dwattr $C$DW$964, DW_AT_name("rsvd_5")
    9227                      .dwattr $C$DW$964, DW_AT_TI_symbol_name("_rsvd_5")
    9228                      .dwattr $C$DW$964, DW_AT_data_member_location[DW_OP_plus_uconst 0x2e]
    9229                      .dwattr $C$DW$964, DW_AT_accessibility(DW_ACCESS_public)
    9230              
    9231              $C$DW$965       .dwtag  DW_TAG_member
    9232                      .dwattr $C$DW$965, DW_AT_type(*$C$DW$T$22)
    9233                      .dwattr $C$DW$965, DW_AT_name("DCTRIPSEL")
    9234                      .dwattr $C$DW$965, DW_AT_TI_symbol_name("_DCTRIPSEL")
    9235                      .dwattr $C$DW$965, DW_AT_data_member_location[DW_OP_plus_uconst 0x30]
    9236                      .dwattr $C$DW$965, DW_AT_accessibility(DW_ACCESS_public)
    9237              
    9238              $C$DW$966       .dwtag  DW_TAG_member
    9239                      .dwattr $C$DW$966, DW_AT_type(*$C$DW$T$22)
    9240                      .dwattr $C$DW$966, DW_AT_name("DCACTL")
    9241                      .dwattr $C$DW$966, DW_AT_TI_symbol_name("_DCACTL")
    9242                      .dwattr $C$DW$966, DW_AT_data_member_location[DW_OP_plus_uconst 0x31]
    9243                      .dwattr $C$DW$966, DW_AT_accessibility(DW_ACCESS_public)
    9244              
    9245              $C$DW$967       .dwtag  DW_TAG_member
    9246                      .dwattr $C$DW$967, DW_AT_type(*$C$DW$T$22)
    9247                      .dwattr $C$DW$967, DW_AT_name("DCBCTL")
    9248                      .dwattr $C$DW$967, DW_AT_TI_symbol_name("_DCBCTL")
    9249                      .dwattr $C$DW$967, DW_AT_data_member_location[DW_OP_plus_uconst 0x32]
    9250                      .dwattr $C$DW$967, DW_AT_accessibility(DW_ACCESS_public)
    9251              
    9252              $C$DW$968       .dwtag  DW_TAG_member
    9253                      .dwattr $C$DW$968, DW_AT_type(*$C$DW$T$22)
    9254                      .dwattr $C$DW$968, DW_AT_name("DCFCTL")
    9255                      .dwattr $C$DW$968, DW_AT_TI_symbol_name("_DCFCTL")
    9256                      .dwattr $C$DW$968, DW_AT_data_member_location[DW_OP_plus_uconst 0x33]
    9257                      .dwattr $C$DW$968, DW_AT_accessibility(DW_ACCESS_public)
    9258              
    9259              $C$DW$969       .dwtag  DW_TAG_member
    9260                      .dwattr $C$DW$969, DW_AT_type(*$C$DW$T$22)
    9261                      .dwattr $C$DW$969, DW_AT_name("DCCAPCTL")
    9262                      .dwattr $C$DW$969, DW_AT_TI_symbol_name("_DCCAPCTL")
    9263                      .dwattr $C$DW$969, DW_AT_data_member_location[DW_OP_plus_uconst 0x34]
    9264                      .dwattr $C$DW$969, DW_AT_accessibility(DW_ACCESS_public)
    9265              
    9266              $C$DW$970       .dwtag  DW_TAG_member
    9267                      .dwattr $C$DW$970, DW_AT_type(*$C$DW$T$22)
    9268                      .dwattr $C$DW$970, DW_AT_name("DCFOFFSET")
    9269                      .dwattr $C$DW$970, DW_AT_TI_symbol_name("_DCFOFFSET")
    9270                      .dwattr $C$DW$970, DW_AT_data_member_location[DW_OP_plus_uconst 0x35]
    9271                      .dwattr $C$DW$970, DW_AT_accessibility(DW_ACCESS_public)
    9272              
    9273              $C$DW$971       .dwtag  DW_TAG_member
    9274                      .dwattr $C$DW$971, DW_AT_type(*$C$DW$T$22)
    9275                      .dwattr $C$DW$971, DW_AT_name("DCFOFFSETCNT")
    9276                      .dwattr $C$DW$971, DW_AT_TI_symbol_name("_DCFOFFSETCNT")
TMS320C2000 Assembler PC v15.12.3 Wed Nov 22 01:55:15 2017

Tools Copyright (c) 1996-2015 Texas Instruments Incorporated
C:\Users\wmj\AppData\Local\Temp\1239610                              PAGE  173

    9277                      .dwattr $C$DW$971, DW_AT_data_member_location[DW_OP_plus_uconst 0x36]
    9278                      .dwattr $C$DW$971, DW_AT_accessibility(DW_ACCESS_public)
    9279              
    9280              $C$DW$972       .dwtag  DW_TAG_member
    9281                      .dwattr $C$DW$972, DW_AT_type(*$C$DW$T$22)
    9282                      .dwattr $C$DW$972, DW_AT_name("DCFWINDOW")
    9283                      .dwattr $C$DW$972, DW_AT_TI_symbol_name("_DCFWINDOW")
    9284                      .dwattr $C$DW$972, DW_AT_data_member_location[DW_OP_plus_uconst 0x37]
    9285                      .dwattr $C$DW$972, DW_AT_accessibility(DW_ACCESS_public)
    9286              
    9287              $C$DW$973       .dwtag  DW_TAG_member
    9288                      .dwattr $C$DW$973, DW_AT_type(*$C$DW$T$22)
    9289                      .dwattr $C$DW$973, DW_AT_name("DCFWINDOWCNT")
    9290                      .dwattr $C$DW$973, DW_AT_TI_symbol_name("_DCFWINDOWCNT")
    9291                      .dwattr $C$DW$973, DW_AT_data_member_location[DW_OP_plus_uconst 0x38]
    9292                      .dwattr $C$DW$973, DW_AT_accessibility(DW_ACCESS_public)
    9293              
    9294              $C$DW$974       .dwtag  DW_TAG_member
    9295                      .dwattr $C$DW$974, DW_AT_type(*$C$DW$T$22)
    9296                      .dwattr $C$DW$974, DW_AT_name("DCCAP")
    9297                      .dwattr $C$DW$974, DW_AT_TI_symbol_name("_DCCAP")
    9298                      .dwattr $C$DW$974, DW_AT_data_member_location[DW_OP_plus_uconst 0x39]
    9299                      .dwattr $C$DW$974, DW_AT_accessibility(DW_ACCESS_public)
    9300              
    9301                      .dwendtag $C$DW$T$166
    9302              
    9303              $C$DW$T$100     .dwtag  DW_TAG_pointer_type
    9304                      .dwattr $C$DW$T$100, DW_AT_type(*$C$DW$T$166)
    9305                      .dwattr $C$DW$T$100, DW_AT_address_class(0x20)
    9306              
    9307              $C$DW$T$101     .dwtag  DW_TAG_typedef
    9308                      .dwattr $C$DW$T$101, DW_AT_name("PWM_Handle")
    9309                      .dwattr $C$DW$T$101, DW_AT_type(*$C$DW$T$100)
    9310                      .dwattr $C$DW$T$101, DW_AT_language(DW_LANG_C)
    9311              
    9312              
    9313              $C$DW$T$102     .dwtag  DW_TAG_array_type
    9314                      .dwattr $C$DW$T$102, DW_AT_type(*$C$DW$T$101)
    9315                      .dwattr $C$DW$T$102, DW_AT_language(DW_LANG_C)
    9316                      .dwattr $C$DW$T$102, DW_AT_byte_size(0x06)
    9317              $C$DW$975       .dwtag  DW_TAG_subrange_type
    9318                      .dwattr $C$DW$975, DW_AT_upper_bound(0x02)
    9319              
    9320                      .dwendtag $C$DW$T$102
    9321              
    9322              
    9323              $C$DW$T$168     .dwtag  DW_TAG_structure_type
    9324                      .dwattr $C$DW$T$168, DW_AT_name("_PWR_Obj_")
    9325                      .dwattr $C$DW$T$168, DW_AT_byte_size(0x669a)
    9326              $C$DW$976       .dwtag  DW_TAG_member
    9327                      .dwattr $C$DW$976, DW_AT_type(*$C$DW$T$22)
    9328                      .dwattr $C$DW$976, DW_AT_name("BORCFG")
    9329                      .dwattr $C$DW$976, DW_AT_TI_symbol_name("_BORCFG")
    9330                      .dwattr $C$DW$976, DW_AT_data_member_location[DW_OP_plus_uconst 0x0]
    9331                      .dwattr $C$DW$976, DW_AT_accessibility(DW_ACCESS_public)
TMS320C2000 Assembler PC v15.12.3 Wed Nov 22 01:55:15 2017

Tools Copyright (c) 1996-2015 Texas Instruments Incorporated
C:\Users\wmj\AppData\Local\Temp\1239610                              PAGE  174

    9332              
    9333              $C$DW$977       .dwtag  DW_TAG_member
    9334                      .dwattr $C$DW$977, DW_AT_type(*$C$DW$T$167)
    9335                      .dwattr $C$DW$977, DW_AT_name("rsvd_1")
    9336                      .dwattr $C$DW$977, DW_AT_TI_symbol_name("_rsvd_1")
    9337                      .dwattr $C$DW$977, DW_AT_data_member_location[DW_OP_plus_uconst 0x1]
    9338                      .dwattr $C$DW$977, DW_AT_accessibility(DW_ACCESS_public)
    9339              
    9340              $C$DW$978       .dwtag  DW_TAG_member
    9341                      .dwattr $C$DW$978, DW_AT_type(*$C$DW$T$22)
    9342                      .dwattr $C$DW$978, DW_AT_name("LPMCR0")
    9343                      .dwattr $C$DW$978, DW_AT_TI_symbol_name("_LPMCR0")
    9344                      .dwattr $C$DW$978, DW_AT_data_member_location[DW_OP_plus_uconst 0x6699]
    9345                      .dwattr $C$DW$978, DW_AT_accessibility(DW_ACCESS_public)
    9346              
    9347                      .dwendtag $C$DW$T$168
    9348              
    9349              $C$DW$T$103     .dwtag  DW_TAG_pointer_type
    9350                      .dwattr $C$DW$T$103, DW_AT_type(*$C$DW$T$168)
    9351                      .dwattr $C$DW$T$103, DW_AT_address_class(0x20)
    9352              
    9353              $C$DW$T$104     .dwtag  DW_TAG_typedef
    9354                      .dwattr $C$DW$T$104, DW_AT_name("PWR_Handle")
    9355                      .dwattr $C$DW$T$104, DW_AT_type(*$C$DW$T$103)
    9356                      .dwattr $C$DW$T$104, DW_AT_language(DW_LANG_C)
    9357              
    9358              
    9359              $C$DW$T$169     .dwtag  DW_TAG_structure_type
    9360                      .dwattr $C$DW$T$169, DW_AT_name("_SCI_Obj_")
    9361                      .dwattr $C$DW$T$169, DW_AT_byte_size(0x10)
    9362              $C$DW$979       .dwtag  DW_TAG_member
    9363                      .dwattr $C$DW$979, DW_AT_type(*$C$DW$T$22)
    9364                      .dwattr $C$DW$979, DW_AT_name("SCICCR")
    9365                      .dwattr $C$DW$979, DW_AT_TI_symbol_name("_SCICCR")
    9366                      .dwattr $C$DW$979, DW_AT_data_member_location[DW_OP_plus_uconst 0x0]
    9367                      .dwattr $C$DW$979, DW_AT_accessibility(DW_ACCESS_public)
    9368              
    9369              $C$DW$980       .dwtag  DW_TAG_member
    9370                      .dwattr $C$DW$980, DW_AT_type(*$C$DW$T$22)
    9371                      .dwattr $C$DW$980, DW_AT_name("SCICTL1")
    9372                      .dwattr $C$DW$980, DW_AT_TI_symbol_name("_SCICTL1")
    9373                      .dwattr $C$DW$980, DW_AT_data_member_location[DW_OP_plus_uconst 0x1]
    9374                      .dwattr $C$DW$980, DW_AT_accessibility(DW_ACCESS_public)
    9375              
    9376              $C$DW$981       .dwtag  DW_TAG_member
    9377                      .dwattr $C$DW$981, DW_AT_type(*$C$DW$T$22)
    9378                      .dwattr $C$DW$981, DW_AT_name("SCIHBAUD")
    9379                      .dwattr $C$DW$981, DW_AT_TI_symbol_name("_SCIHBAUD")
    9380                      .dwattr $C$DW$981, DW_AT_data_member_location[DW_OP_plus_uconst 0x2]
    9381                      .dwattr $C$DW$981, DW_AT_accessibility(DW_ACCESS_public)
    9382              
    9383              $C$DW$982       .dwtag  DW_TAG_member
    9384                      .dwattr $C$DW$982, DW_AT_type(*$C$DW$T$22)
    9385                      .dwattr $C$DW$982, DW_AT_name("SCILBAUD")
    9386                      .dwattr $C$DW$982, DW_AT_TI_symbol_name("_SCILBAUD")
TMS320C2000 Assembler PC v15.12.3 Wed Nov 22 01:55:15 2017

Tools Copyright (c) 1996-2015 Texas Instruments Incorporated
C:\Users\wmj\AppData\Local\Temp\1239610                              PAGE  175

    9387                      .dwattr $C$DW$982, DW_AT_data_member_location[DW_OP_plus_uconst 0x3]
    9388                      .dwattr $C$DW$982, DW_AT_accessibility(DW_ACCESS_public)
    9389              
    9390              $C$DW$983       .dwtag  DW_TAG_member
    9391                      .dwattr $C$DW$983, DW_AT_type(*$C$DW$T$22)
    9392                      .dwattr $C$DW$983, DW_AT_name("SCICTL2")
    9393                      .dwattr $C$DW$983, DW_AT_TI_symbol_name("_SCICTL2")
    9394                      .dwattr $C$DW$983, DW_AT_data_member_location[DW_OP_plus_uconst 0x4]
    9395                      .dwattr $C$DW$983, DW_AT_accessibility(DW_ACCESS_public)
    9396              
    9397              $C$DW$984       .dwtag  DW_TAG_member
    9398                      .dwattr $C$DW$984, DW_AT_type(*$C$DW$T$22)
    9399                      .dwattr $C$DW$984, DW_AT_name("SCIRXST")
    9400                      .dwattr $C$DW$984, DW_AT_TI_symbol_name("_SCIRXST")
    9401                      .dwattr $C$DW$984, DW_AT_data_member_location[DW_OP_plus_uconst 0x5]
    9402                      .dwattr $C$DW$984, DW_AT_accessibility(DW_ACCESS_public)
    9403              
    9404              $C$DW$985       .dwtag  DW_TAG_member
    9405                      .dwattr $C$DW$985, DW_AT_type(*$C$DW$T$22)
    9406                      .dwattr $C$DW$985, DW_AT_name("SCIRXEMU")
    9407                      .dwattr $C$DW$985, DW_AT_TI_symbol_name("_SCIRXEMU")
    9408                      .dwattr $C$DW$985, DW_AT_data_member_location[DW_OP_plus_uconst 0x6]
    9409                      .dwattr $C$DW$985, DW_AT_accessibility(DW_ACCESS_public)
    9410              
    9411              $C$DW$986       .dwtag  DW_TAG_member
    9412                      .dwattr $C$DW$986, DW_AT_type(*$C$DW$T$22)
    9413                      .dwattr $C$DW$986, DW_AT_name("SCIRXBUF")
    9414                      .dwattr $C$DW$986, DW_AT_TI_symbol_name("_SCIRXBUF")
    9415                      .dwattr $C$DW$986, DW_AT_data_member_location[DW_OP_plus_uconst 0x7]
    9416                      .dwattr $C$DW$986, DW_AT_accessibility(DW_ACCESS_public)
    9417              
    9418              $C$DW$987       .dwtag  DW_TAG_member
    9419                      .dwattr $C$DW$987, DW_AT_type(*$C$DW$T$22)
    9420                      .dwattr $C$DW$987, DW_AT_name("rsvd_1")
    9421                      .dwattr $C$DW$987, DW_AT_TI_symbol_name("_rsvd_1")
    9422                      .dwattr $C$DW$987, DW_AT_data_member_location[DW_OP_plus_uconst 0x8]
    9423                      .dwattr $C$DW$987, DW_AT_accessibility(DW_ACCESS_public)
    9424              
    9425              $C$DW$988       .dwtag  DW_TAG_member
    9426                      .dwattr $C$DW$988, DW_AT_type(*$C$DW$T$22)
    9427                      .dwattr $C$DW$988, DW_AT_name("SCITXBUF")
    9428                      .dwattr $C$DW$988, DW_AT_TI_symbol_name("_SCITXBUF")
    9429                      .dwattr $C$DW$988, DW_AT_data_member_location[DW_OP_plus_uconst 0x9]
    9430                      .dwattr $C$DW$988, DW_AT_accessibility(DW_ACCESS_public)
    9431              
    9432              $C$DW$989       .dwtag  DW_TAG_member
    9433                      .dwattr $C$DW$989, DW_AT_type(*$C$DW$T$22)
    9434                      .dwattr $C$DW$989, DW_AT_name("SCIFFTX")
    9435                      .dwattr $C$DW$989, DW_AT_TI_symbol_name("_SCIFFTX")
    9436                      .dwattr $C$DW$989, DW_AT_data_member_location[DW_OP_plus_uconst 0xa]
    9437                      .dwattr $C$DW$989, DW_AT_accessibility(DW_ACCESS_public)
    9438              
    9439              $C$DW$990       .dwtag  DW_TAG_member
    9440                      .dwattr $C$DW$990, DW_AT_type(*$C$DW$T$22)
    9441                      .dwattr $C$DW$990, DW_AT_name("SCIFFRX")
TMS320C2000 Assembler PC v15.12.3 Wed Nov 22 01:55:15 2017

Tools Copyright (c) 1996-2015 Texas Instruments Incorporated
C:\Users\wmj\AppData\Local\Temp\1239610                              PAGE  176

    9442                      .dwattr $C$DW$990, DW_AT_TI_symbol_name("_SCIFFRX")
    9443                      .dwattr $C$DW$990, DW_AT_data_member_location[DW_OP_plus_uconst 0xb]
    9444                      .dwattr $C$DW$990, DW_AT_accessibility(DW_ACCESS_public)
    9445              
    9446              $C$DW$991       .dwtag  DW_TAG_member
    9447                      .dwattr $C$DW$991, DW_AT_type(*$C$DW$T$22)
    9448                      .dwattr $C$DW$991, DW_AT_name("SCIFFCT")
    9449                      .dwattr $C$DW$991, DW_AT_TI_symbol_name("_SCIFFCT")
    9450                      .dwattr $C$DW$991, DW_AT_data_member_location[DW_OP_plus_uconst 0xc]
    9451                      .dwattr $C$DW$991, DW_AT_accessibility(DW_ACCESS_public)
    9452              
    9453              $C$DW$992       .dwtag  DW_TAG_member
    9454                      .dwattr $C$DW$992, DW_AT_type(*$C$DW$T$25)
    9455                      .dwattr $C$DW$992, DW_AT_name("rsvd_2")
    9456                      .dwattr $C$DW$992, DW_AT_TI_symbol_name("_rsvd_2")
    9457                      .dwattr $C$DW$992, DW_AT_data_member_location[DW_OP_plus_uconst 0xd]
    9458                      .dwattr $C$DW$992, DW_AT_accessibility(DW_ACCESS_public)
    9459              
    9460              $C$DW$993       .dwtag  DW_TAG_member
    9461                      .dwattr $C$DW$993, DW_AT_type(*$C$DW$T$22)
    9462                      .dwattr $C$DW$993, DW_AT_name("SCIPRI")
    9463                      .dwattr $C$DW$993, DW_AT_TI_symbol_name("_SCIPRI")
    9464                      .dwattr $C$DW$993, DW_AT_data_member_location[DW_OP_plus_uconst 0xf]
    9465                      .dwattr $C$DW$993, DW_AT_accessibility(DW_ACCESS_public)
    9466              
    9467                      .dwendtag $C$DW$T$169
    9468              
    9469              $C$DW$T$112     .dwtag  DW_TAG_pointer_type
    9470                      .dwattr $C$DW$T$112, DW_AT_type(*$C$DW$T$169)
    9471                      .dwattr $C$DW$T$112, DW_AT_address_class(0x20)
    9472              
    9473              $C$DW$T$113     .dwtag  DW_TAG_typedef
    9474                      .dwattr $C$DW$T$113, DW_AT_name("SCI_Handle")
    9475                      .dwattr $C$DW$T$113, DW_AT_type(*$C$DW$T$112)
    9476                      .dwattr $C$DW$T$113, DW_AT_language(DW_LANG_C)
    9477              
    9478              $C$DW$994       .dwtag  DW_TAG_TI_far_type
    9479                      .dwattr $C$DW$994, DW_AT_type(*$C$DW$T$113)
    9480              
    9481              $C$DW$T$209     .dwtag  DW_TAG_const_type
    9482                      .dwattr $C$DW$T$209, DW_AT_type(*$C$DW$994)
    9483              
    9484              
    9485              $C$DW$T$170     .dwtag  DW_TAG_structure_type
    9486                      .dwattr $C$DW$T$170, DW_AT_name("_SPI_Obj_")
    9487                      .dwattr $C$DW$T$170, DW_AT_byte_size(0x10)
    9488              $C$DW$995       .dwtag  DW_TAG_member
    9489                      .dwattr $C$DW$995, DW_AT_type(*$C$DW$T$22)
    9490                      .dwattr $C$DW$995, DW_AT_name("SPICCR")
    9491                      .dwattr $C$DW$995, DW_AT_TI_symbol_name("_SPICCR")
    9492                      .dwattr $C$DW$995, DW_AT_data_member_location[DW_OP_plus_uconst 0x0]
    9493                      .dwattr $C$DW$995, DW_AT_accessibility(DW_ACCESS_public)
    9494              
    9495              $C$DW$996       .dwtag  DW_TAG_member
    9496                      .dwattr $C$DW$996, DW_AT_type(*$C$DW$T$22)
TMS320C2000 Assembler PC v15.12.3 Wed Nov 22 01:55:15 2017

Tools Copyright (c) 1996-2015 Texas Instruments Incorporated
C:\Users\wmj\AppData\Local\Temp\1239610                              PAGE  177

    9497                      .dwattr $C$DW$996, DW_AT_name("SPICTL")
    9498                      .dwattr $C$DW$996, DW_AT_TI_symbol_name("_SPICTL")
    9499                      .dwattr $C$DW$996, DW_AT_data_member_location[DW_OP_plus_uconst 0x1]
    9500                      .dwattr $C$DW$996, DW_AT_accessibility(DW_ACCESS_public)
    9501              
    9502              $C$DW$997       .dwtag  DW_TAG_member
    9503                      .dwattr $C$DW$997, DW_AT_type(*$C$DW$T$22)
    9504                      .dwattr $C$DW$997, DW_AT_name("SPIST")
    9505                      .dwattr $C$DW$997, DW_AT_TI_symbol_name("_SPIST")
    9506                      .dwattr $C$DW$997, DW_AT_data_member_location[DW_OP_plus_uconst 0x2]
    9507                      .dwattr $C$DW$997, DW_AT_accessibility(DW_ACCESS_public)
    9508              
    9509              $C$DW$998       .dwtag  DW_TAG_member
    9510                      .dwattr $C$DW$998, DW_AT_type(*$C$DW$T$22)
    9511                      .dwattr $C$DW$998, DW_AT_name("rsvd_1")
    9512                      .dwattr $C$DW$998, DW_AT_TI_symbol_name("_rsvd_1")
    9513                      .dwattr $C$DW$998, DW_AT_data_member_location[DW_OP_plus_uconst 0x3]
    9514                      .dwattr $C$DW$998, DW_AT_accessibility(DW_ACCESS_public)
    9515              
    9516              $C$DW$999       .dwtag  DW_TAG_member
    9517                      .dwattr $C$DW$999, DW_AT_type(*$C$DW$T$22)
    9518                      .dwattr $C$DW$999, DW_AT_name("SPIBRR")
    9519                      .dwattr $C$DW$999, DW_AT_TI_symbol_name("_SPIBRR")
    9520                      .dwattr $C$DW$999, DW_AT_data_member_location[DW_OP_plus_uconst 0x4]
    9521                      .dwattr $C$DW$999, DW_AT_accessibility(DW_ACCESS_public)
    9522              
    9523              $C$DW$1000      .dwtag  DW_TAG_member
    9524                      .dwattr $C$DW$1000, DW_AT_type(*$C$DW$T$22)
    9525                      .dwattr $C$DW$1000, DW_AT_name("rsvd_2")
    9526                      .dwattr $C$DW$1000, DW_AT_TI_symbol_name("_rsvd_2")
    9527                      .dwattr $C$DW$1000, DW_AT_data_member_location[DW_OP_plus_uconst 0x5]
    9528                      .dwattr $C$DW$1000, DW_AT_accessibility(DW_ACCESS_public)
    9529              
    9530              $C$DW$1001      .dwtag  DW_TAG_member
    9531                      .dwattr $C$DW$1001, DW_AT_type(*$C$DW$T$22)
    9532                      .dwattr $C$DW$1001, DW_AT_name("SPIEMU")
    9533                      .dwattr $C$DW$1001, DW_AT_TI_symbol_name("_SPIEMU")
    9534                      .dwattr $C$DW$1001, DW_AT_data_member_location[DW_OP_plus_uconst 0x6]
    9535                      .dwattr $C$DW$1001, DW_AT_accessibility(DW_ACCESS_public)
    9536              
    9537              $C$DW$1002      .dwtag  DW_TAG_member
    9538                      .dwattr $C$DW$1002, DW_AT_type(*$C$DW$T$22)
    9539                      .dwattr $C$DW$1002, DW_AT_name("SPIRXBUF")
    9540                      .dwattr $C$DW$1002, DW_AT_TI_symbol_name("_SPIRXBUF")
    9541                      .dwattr $C$DW$1002, DW_AT_data_member_location[DW_OP_plus_uconst 0x7]
    9542                      .dwattr $C$DW$1002, DW_AT_accessibility(DW_ACCESS_public)
    9543              
    9544              $C$DW$1003      .dwtag  DW_TAG_member
    9545                      .dwattr $C$DW$1003, DW_AT_type(*$C$DW$T$22)
    9546                      .dwattr $C$DW$1003, DW_AT_name("SPITXBUF")
    9547                      .dwattr $C$DW$1003, DW_AT_TI_symbol_name("_SPITXBUF")
    9548                      .dwattr $C$DW$1003, DW_AT_data_member_location[DW_OP_plus_uconst 0x8]
    9549                      .dwattr $C$DW$1003, DW_AT_accessibility(DW_ACCESS_public)
    9550              
    9551              $C$DW$1004      .dwtag  DW_TAG_member
TMS320C2000 Assembler PC v15.12.3 Wed Nov 22 01:55:15 2017

Tools Copyright (c) 1996-2015 Texas Instruments Incorporated
C:\Users\wmj\AppData\Local\Temp\1239610                              PAGE  178

    9552                      .dwattr $C$DW$1004, DW_AT_type(*$C$DW$T$22)
    9553                      .dwattr $C$DW$1004, DW_AT_name("SPIDAT")
    9554                      .dwattr $C$DW$1004, DW_AT_TI_symbol_name("_SPIDAT")
    9555                      .dwattr $C$DW$1004, DW_AT_data_member_location[DW_OP_plus_uconst 0x9]
    9556                      .dwattr $C$DW$1004, DW_AT_accessibility(DW_ACCESS_public)
    9557              
    9558              $C$DW$1005      .dwtag  DW_TAG_member
    9559                      .dwattr $C$DW$1005, DW_AT_type(*$C$DW$T$22)
    9560                      .dwattr $C$DW$1005, DW_AT_name("SPIFFTX")
    9561                      .dwattr $C$DW$1005, DW_AT_TI_symbol_name("_SPIFFTX")
    9562                      .dwattr $C$DW$1005, DW_AT_data_member_location[DW_OP_plus_uconst 0xa]
    9563                      .dwattr $C$DW$1005, DW_AT_accessibility(DW_ACCESS_public)
    9564              
    9565              $C$DW$1006      .dwtag  DW_TAG_member
    9566                      .dwattr $C$DW$1006, DW_AT_type(*$C$DW$T$22)
    9567                      .dwattr $C$DW$1006, DW_AT_name("SPIFFRX")
    9568                      .dwattr $C$DW$1006, DW_AT_TI_symbol_name("_SPIFFRX")
    9569                      .dwattr $C$DW$1006, DW_AT_data_member_location[DW_OP_plus_uconst 0xb]
    9570                      .dwattr $C$DW$1006, DW_AT_accessibility(DW_ACCESS_public)
    9571              
    9572              $C$DW$1007      .dwtag  DW_TAG_member
    9573                      .dwattr $C$DW$1007, DW_AT_type(*$C$DW$T$22)
    9574                      .dwattr $C$DW$1007, DW_AT_name("SPIFFCT")
    9575                      .dwattr $C$DW$1007, DW_AT_TI_symbol_name("_SPIFFCT")
    9576                      .dwattr $C$DW$1007, DW_AT_data_member_location[DW_OP_plus_uconst 0xc]
    9577                      .dwattr $C$DW$1007, DW_AT_accessibility(DW_ACCESS_public)
    9578              
    9579              $C$DW$1008      .dwtag  DW_TAG_member
    9580                      .dwattr $C$DW$1008, DW_AT_type(*$C$DW$T$25)
    9581                      .dwattr $C$DW$1008, DW_AT_name("rsvd_3")
    9582                      .dwattr $C$DW$1008, DW_AT_TI_symbol_name("_rsvd_3")
    9583                      .dwattr $C$DW$1008, DW_AT_data_member_location[DW_OP_plus_uconst 0xd]
    9584                      .dwattr $C$DW$1008, DW_AT_accessibility(DW_ACCESS_public)
    9585              
    9586              $C$DW$1009      .dwtag  DW_TAG_member
    9587                      .dwattr $C$DW$1009, DW_AT_type(*$C$DW$T$22)
    9588                      .dwattr $C$DW$1009, DW_AT_name("SPIPRI")
    9589                      .dwattr $C$DW$1009, DW_AT_TI_symbol_name("_SPIPRI")
    9590                      .dwattr $C$DW$1009, DW_AT_data_member_location[DW_OP_plus_uconst 0xf]
    9591                      .dwattr $C$DW$1009, DW_AT_accessibility(DW_ACCESS_public)
    9592              
    9593                      .dwendtag $C$DW$T$170
    9594              
    9595              $C$DW$T$108     .dwtag  DW_TAG_pointer_type
    9596                      .dwattr $C$DW$T$108, DW_AT_type(*$C$DW$T$170)
    9597                      .dwattr $C$DW$T$108, DW_AT_address_class(0x20)
    9598              
    9599              $C$DW$T$109     .dwtag  DW_TAG_typedef
    9600                      .dwattr $C$DW$T$109, DW_AT_name("SPI_Handle")
    9601                      .dwattr $C$DW$T$109, DW_AT_type(*$C$DW$T$108)
    9602                      .dwattr $C$DW$T$109, DW_AT_language(DW_LANG_C)
    9603              
    9604              
    9605              $C$DW$T$171     .dwtag  DW_TAG_structure_type
    9606                      .dwattr $C$DW$T$171, DW_AT_name("_TIMER_Obj_")
TMS320C2000 Assembler PC v15.12.3 Wed Nov 22 01:55:15 2017

Tools Copyright (c) 1996-2015 Texas Instruments Incorporated
C:\Users\wmj\AppData\Local\Temp\1239610                              PAGE  179

    9607                      .dwattr $C$DW$T$171, DW_AT_byte_size(0x08)
    9608              $C$DW$1010      .dwtag  DW_TAG_member
    9609                      .dwattr $C$DW$1010, DW_AT_type(*$C$DW$T$73)
    9610                      .dwattr $C$DW$1010, DW_AT_name("TIM")
    9611                      .dwattr $C$DW$1010, DW_AT_TI_symbol_name("_TIM")
    9612                      .dwattr $C$DW$1010, DW_AT_data_member_location[DW_OP_plus_uconst 0x0]
    9613                      .dwattr $C$DW$1010, DW_AT_accessibility(DW_ACCESS_public)
    9614              
    9615              $C$DW$1011      .dwtag  DW_TAG_member
    9616                      .dwattr $C$DW$1011, DW_AT_type(*$C$DW$T$73)
    9617                      .dwattr $C$DW$1011, DW_AT_name("PRD")
    9618                      .dwattr $C$DW$1011, DW_AT_TI_symbol_name("_PRD")
    9619                      .dwattr $C$DW$1011, DW_AT_data_member_location[DW_OP_plus_uconst 0x2]
    9620                      .dwattr $C$DW$1011, DW_AT_accessibility(DW_ACCESS_public)
    9621              
    9622              $C$DW$1012      .dwtag  DW_TAG_member
    9623                      .dwattr $C$DW$1012, DW_AT_type(*$C$DW$T$22)
    9624                      .dwattr $C$DW$1012, DW_AT_name("TCR")
    9625                      .dwattr $C$DW$1012, DW_AT_TI_symbol_name("_TCR")
    9626                      .dwattr $C$DW$1012, DW_AT_data_member_location[DW_OP_plus_uconst 0x4]
    9627                      .dwattr $C$DW$1012, DW_AT_accessibility(DW_ACCESS_public)
    9628              
    9629              $C$DW$1013      .dwtag  DW_TAG_member
    9630                      .dwattr $C$DW$1013, DW_AT_type(*$C$DW$T$22)
    9631                      .dwattr $C$DW$1013, DW_AT_name("resvd_1")
    9632                      .dwattr $C$DW$1013, DW_AT_TI_symbol_name("_resvd_1")
    9633                      .dwattr $C$DW$1013, DW_AT_data_member_location[DW_OP_plus_uconst 0x5]
    9634                      .dwattr $C$DW$1013, DW_AT_accessibility(DW_ACCESS_public)
    9635              
    9636              $C$DW$1014      .dwtag  DW_TAG_member
    9637                      .dwattr $C$DW$1014, DW_AT_type(*$C$DW$T$73)
    9638                      .dwattr $C$DW$1014, DW_AT_name("TPR")
    9639                      .dwattr $C$DW$1014, DW_AT_TI_symbol_name("_TPR")
    9640                      .dwattr $C$DW$1014, DW_AT_data_member_location[DW_OP_plus_uconst 0x6]
    9641                      .dwattr $C$DW$1014, DW_AT_accessibility(DW_ACCESS_public)
    9642              
    9643                      .dwendtag $C$DW$T$171
    9644              
    9645              $C$DW$T$211     .dwtag  DW_TAG_typedef
    9646                      .dwattr $C$DW$T$211, DW_AT_name("TIMER_Obj")
    9647                      .dwattr $C$DW$T$211, DW_AT_type(*$C$DW$T$171)
    9648                      .dwattr $C$DW$T$211, DW_AT_language(DW_LANG_C)
    9649              
    9650              $C$DW$T$105     .dwtag  DW_TAG_pointer_type
    9651                      .dwattr $C$DW$T$105, DW_AT_type(*$C$DW$T$171)
    9652                      .dwattr $C$DW$T$105, DW_AT_address_class(0x20)
    9653              
    9654              $C$DW$T$106     .dwtag  DW_TAG_typedef
    9655                      .dwattr $C$DW$T$106, DW_AT_name("TIMER_Handle")
    9656                      .dwattr $C$DW$T$106, DW_AT_type(*$C$DW$T$105)
    9657                      .dwattr $C$DW$T$106, DW_AT_language(DW_LANG_C)
    9658              
    9659              $C$DW$1015      .dwtag  DW_TAG_TI_far_type
    9660                      .dwattr $C$DW$1015, DW_AT_type(*$C$DW$T$106)
    9661              
TMS320C2000 Assembler PC v15.12.3 Wed Nov 22 01:55:15 2017

Tools Copyright (c) 1996-2015 Texas Instruments Incorporated
C:\Users\wmj\AppData\Local\Temp\1239610                              PAGE  180

    9662              $C$DW$T$212     .dwtag  DW_TAG_const_type
    9663                      .dwattr $C$DW$T$212, DW_AT_type(*$C$DW$1015)
    9664              
    9665              
    9666              $C$DW$T$107     .dwtag  DW_TAG_array_type
    9667                      .dwattr $C$DW$T$107, DW_AT_type(*$C$DW$T$106)
    9668                      .dwattr $C$DW$T$107, DW_AT_language(DW_LANG_C)
    9669                      .dwattr $C$DW$T$107, DW_AT_byte_size(0x06)
    9670              $C$DW$1016      .dwtag  DW_TAG_subrange_type
    9671                      .dwattr $C$DW$1016, DW_AT_upper_bound(0x02)
    9672              
    9673                      .dwendtag $C$DW$T$107
    9674              
    9675              
    9676              $C$DW$T$172     .dwtag  DW_TAG_structure_type
    9677                      .dwattr $C$DW$T$172, DW_AT_name("_WDOG_Obj_")
    9678                      .dwattr $C$DW$T$172, DW_AT_byte_size(0x08)
    9679              $C$DW$1017      .dwtag  DW_TAG_member
    9680                      .dwattr $C$DW$1017, DW_AT_type(*$C$DW$T$22)
    9681                      .dwattr $C$DW$1017, DW_AT_name("SCSR")
    9682                      .dwattr $C$DW$1017, DW_AT_TI_symbol_name("_SCSR")
    9683                      .dwattr $C$DW$1017, DW_AT_data_member_location[DW_OP_plus_uconst 0x0]
    9684                      .dwattr $C$DW$1017, DW_AT_accessibility(DW_ACCESS_public)
    9685              
    9686              $C$DW$1018      .dwtag  DW_TAG_member
    9687                      .dwattr $C$DW$1018, DW_AT_type(*$C$DW$T$22)
    9688                      .dwattr $C$DW$1018, DW_AT_name("WDCNTR")
    9689                      .dwattr $C$DW$1018, DW_AT_TI_symbol_name("_WDCNTR")
    9690                      .dwattr $C$DW$1018, DW_AT_data_member_location[DW_OP_plus_uconst 0x1]
    9691                      .dwattr $C$DW$1018, DW_AT_accessibility(DW_ACCESS_public)
    9692              
    9693              $C$DW$1019      .dwtag  DW_TAG_member
    9694                      .dwattr $C$DW$1019, DW_AT_type(*$C$DW$T$22)
    9695                      .dwattr $C$DW$1019, DW_AT_name("rsvd_1")
    9696                      .dwattr $C$DW$1019, DW_AT_TI_symbol_name("_rsvd_1")
    9697                      .dwattr $C$DW$1019, DW_AT_data_member_location[DW_OP_plus_uconst 0x2]
    9698                      .dwattr $C$DW$1019, DW_AT_accessibility(DW_ACCESS_public)
    9699              
    9700              $C$DW$1020      .dwtag  DW_TAG_member
    9701                      .dwattr $C$DW$1020, DW_AT_type(*$C$DW$T$22)
    9702                      .dwattr $C$DW$1020, DW_AT_name("WDKEY")
    9703                      .dwattr $C$DW$1020, DW_AT_TI_symbol_name("_WDKEY")
    9704                      .dwattr $C$DW$1020, DW_AT_data_member_location[DW_OP_plus_uconst 0x3]
    9705                      .dwattr $C$DW$1020, DW_AT_accessibility(DW_ACCESS_public)
    9706              
    9707              $C$DW$1021      .dwtag  DW_TAG_member
    9708                      .dwattr $C$DW$1021, DW_AT_type(*$C$DW$T$27)
    9709                      .dwattr $C$DW$1021, DW_AT_name("rsvd_2")
    9710                      .dwattr $C$DW$1021, DW_AT_TI_symbol_name("_rsvd_2")
    9711                      .dwattr $C$DW$1021, DW_AT_data_member_location[DW_OP_plus_uconst 0x4]
    9712                      .dwattr $C$DW$1021, DW_AT_accessibility(DW_ACCESS_public)
    9713              
    9714              $C$DW$1022      .dwtag  DW_TAG_member
    9715                      .dwattr $C$DW$1022, DW_AT_type(*$C$DW$T$22)
    9716                      .dwattr $C$DW$1022, DW_AT_name("WDCR")
TMS320C2000 Assembler PC v15.12.3 Wed Nov 22 01:55:15 2017

Tools Copyright (c) 1996-2015 Texas Instruments Incorporated
C:\Users\wmj\AppData\Local\Temp\1239610                              PAGE  181

    9717                      .dwattr $C$DW$1022, DW_AT_TI_symbol_name("_WDCR")
    9718                      .dwattr $C$DW$1022, DW_AT_data_member_location[DW_OP_plus_uconst 0x7]
    9719                      .dwattr $C$DW$1022, DW_AT_accessibility(DW_ACCESS_public)
    9720              
    9721                      .dwendtag $C$DW$T$172
    9722              
    9723              $C$DW$T$110     .dwtag  DW_TAG_pointer_type
    9724                      .dwattr $C$DW$T$110, DW_AT_type(*$C$DW$T$172)
    9725                      .dwattr $C$DW$T$110, DW_AT_address_class(0x20)
    9726              
    9727              $C$DW$T$111     .dwtag  DW_TAG_typedef
    9728                      .dwattr $C$DW$T$111, DW_AT_name("WDOG_Handle")
    9729                      .dwattr $C$DW$T$111, DW_AT_type(*$C$DW$T$110)
    9730                      .dwattr $C$DW$T$111, DW_AT_language(DW_LANG_C)
    9731              
    9732              $C$DW$T$2       .dwtag  DW_TAG_unspecified_type
    9733                      .dwattr $C$DW$T$2, DW_AT_name("void")
    9734              
    9735              $C$DW$T$3       .dwtag  DW_TAG_pointer_type
    9736                      .dwattr $C$DW$T$3, DW_AT_type(*$C$DW$T$2)
    9737                      .dwattr $C$DW$T$3, DW_AT_address_class(0x20)
    9738              
    9739              
    9740              $C$DW$T$159     .dwtag  DW_TAG_subroutine_type
    9741                      .dwattr $C$DW$T$159, DW_AT_language(DW_LANG_C)
    9742                      .dwendtag $C$DW$T$159
    9743              
    9744              $C$DW$T$160     .dwtag  DW_TAG_pointer_type
    9745                      .dwattr $C$DW$T$160, DW_AT_type(*$C$DW$T$159)
    9746                      .dwattr $C$DW$T$160, DW_AT_address_class(0x20)
    9747              
    9748              $C$DW$T$161     .dwtag  DW_TAG_typedef
    9749                      .dwattr $C$DW$T$161, DW_AT_name("PIE_IntVec_t")
    9750                      .dwattr $C$DW$T$161, DW_AT_type(*$C$DW$T$160)
    9751                      .dwattr $C$DW$T$161, DW_AT_language(DW_LANG_C)
    9752              
    9753              $C$DW$1023      .dwtag  DW_TAG_TI_far_type
    9754                      .dwattr $C$DW$1023, DW_AT_type(*$C$DW$T$161)
    9755              
    9756              $C$DW$T$162     .dwtag  DW_TAG_volatile_type
    9757                      .dwattr $C$DW$T$162, DW_AT_type(*$C$DW$1023)
    9758              
    9759              $C$DW$T$4       .dwtag  DW_TAG_base_type
    9760                      .dwattr $C$DW$T$4, DW_AT_encoding(DW_ATE_boolean)
    9761                      .dwattr $C$DW$T$4, DW_AT_name("bool")
    9762                      .dwattr $C$DW$T$4, DW_AT_byte_size(0x01)
    9763              
    9764              $C$DW$T$5       .dwtag  DW_TAG_base_type
    9765                      .dwattr $C$DW$T$5, DW_AT_encoding(DW_ATE_signed_char)
    9766                      .dwattr $C$DW$T$5, DW_AT_name("signed char")
    9767                      .dwattr $C$DW$T$5, DW_AT_byte_size(0x01)
    9768              
    9769              $C$DW$T$6       .dwtag  DW_TAG_base_type
    9770                      .dwattr $C$DW$T$6, DW_AT_encoding(DW_ATE_unsigned_char)
    9771                      .dwattr $C$DW$T$6, DW_AT_name("unsigned char")
TMS320C2000 Assembler PC v15.12.3 Wed Nov 22 01:55:15 2017

Tools Copyright (c) 1996-2015 Texas Instruments Incorporated
C:\Users\wmj\AppData\Local\Temp\1239610                              PAGE  182

    9772                      .dwattr $C$DW$T$6, DW_AT_byte_size(0x01)
    9773              
    9774              $C$DW$T$124     .dwtag  DW_TAG_typedef
    9775                      .dwattr $C$DW$T$124, DW_AT_name("UCHAR")
    9776                      .dwattr $C$DW$T$124, DW_AT_type(*$C$DW$T$6)
    9777                      .dwattr $C$DW$T$124, DW_AT_language(DW_LANG_C)
    9778              
    9779              
    9780              $C$DW$T$125     .dwtag  DW_TAG_array_type
    9781                      .dwattr $C$DW$T$125, DW_AT_type(*$C$DW$T$124)
    9782                      .dwattr $C$DW$T$125, DW_AT_language(DW_LANG_C)
    9783                      .dwattr $C$DW$T$125, DW_AT_byte_size(0x08)
    9784              $C$DW$1024      .dwtag  DW_TAG_subrange_type
    9785                      .dwattr $C$DW$1024, DW_AT_upper_bound(0x07)
    9786              
    9787                      .dwendtag $C$DW$T$125
    9788              
    9789              $C$DW$T$126     .dwtag  DW_TAG_pointer_type
    9790                      .dwattr $C$DW$T$126, DW_AT_type(*$C$DW$T$124)
    9791                      .dwattr $C$DW$T$126, DW_AT_address_class(0x20)
    9792              
    9793              
    9794              $C$DW$T$137     .dwtag  DW_TAG_array_type
    9795                      .dwattr $C$DW$T$137, DW_AT_type(*$C$DW$T$124)
    9796                      .dwattr $C$DW$T$137, DW_AT_language(DW_LANG_C)
    9797                      .dwattr $C$DW$T$137, DW_AT_byte_size(0x02)
    9798              $C$DW$1025      .dwtag  DW_TAG_subrange_type
    9799                      .dwattr $C$DW$1025, DW_AT_upper_bound(0x01)
    9800              
    9801                      .dwendtag $C$DW$T$137
    9802              
    9803              $C$DW$T$250     .dwtag  DW_TAG_pointer_type
    9804                      .dwattr $C$DW$T$250, DW_AT_type(*$C$DW$T$6)
    9805                      .dwattr $C$DW$T$250, DW_AT_address_class(0x20)
    9806              
    9807              $C$DW$1026      .dwtag  DW_TAG_TI_far_type
    9808                      .dwattr $C$DW$1026, DW_AT_type(*$C$DW$T$6)
    9809              
    9810              $C$DW$T$251     .dwtag  DW_TAG_const_type
    9811                      .dwattr $C$DW$T$251, DW_AT_type(*$C$DW$1026)
    9812              
    9813              
    9814              $C$DW$T$252     .dwtag  DW_TAG_array_type
    9815                      .dwattr $C$DW$T$252, DW_AT_type(*$C$DW$T$251)
    9816                      .dwattr $C$DW$T$252, DW_AT_language(DW_LANG_C)
    9817                      .dwattr $C$DW$T$252, DW_AT_byte_size(0x100)
    9818              $C$DW$1027      .dwtag  DW_TAG_subrange_type
    9819                      .dwattr $C$DW$1027, DW_AT_upper_bound(0xff)
    9820              
    9821                      .dwendtag $C$DW$T$252
    9822              
    9823              $C$DW$T$7       .dwtag  DW_TAG_base_type
    9824                      .dwattr $C$DW$T$7, DW_AT_encoding(DW_ATE_signed_char)
    9825                      .dwattr $C$DW$T$7, DW_AT_name("wchar_t")
    9826                      .dwattr $C$DW$T$7, DW_AT_byte_size(0x01)
TMS320C2000 Assembler PC v15.12.3 Wed Nov 22 01:55:15 2017

Tools Copyright (c) 1996-2015 Texas Instruments Incorporated
C:\Users\wmj\AppData\Local\Temp\1239610                              PAGE  183

    9827              
    9828              $C$DW$T$8       .dwtag  DW_TAG_base_type
    9829                      .dwattr $C$DW$T$8, DW_AT_encoding(DW_ATE_signed)
    9830                      .dwattr $C$DW$T$8, DW_AT_name("short")
    9831                      .dwattr $C$DW$T$8, DW_AT_byte_size(0x01)
    9832              
    9833              $C$DW$T$9       .dwtag  DW_TAG_base_type
    9834                      .dwattr $C$DW$T$9, DW_AT_encoding(DW_ATE_unsigned)
    9835                      .dwattr $C$DW$T$9, DW_AT_name("unsigned short")
    9836                      .dwattr $C$DW$T$9, DW_AT_byte_size(0x01)
    9837              
    9838              $C$DW$T$10      .dwtag  DW_TAG_base_type
    9839                      .dwattr $C$DW$T$10, DW_AT_encoding(DW_ATE_signed)
    9840                      .dwattr $C$DW$T$10, DW_AT_name("int")
    9841                      .dwattr $C$DW$T$10, DW_AT_byte_size(0x01)
    9842              
    9843              $C$DW$T$63      .dwtag  DW_TAG_typedef
    9844                      .dwattr $C$DW$T$63, DW_AT_name("int16_t")
    9845                      .dwattr $C$DW$T$63, DW_AT_type(*$C$DW$T$10)
    9846                      .dwattr $C$DW$T$63, DW_AT_language(DW_LANG_C)
    9847              
    9848              
    9849              $C$DW$T$64      .dwtag  DW_TAG_array_type
    9850                      .dwattr $C$DW$T$64, DW_AT_type(*$C$DW$T$63)
    9851                      .dwattr $C$DW$T$64, DW_AT_language(DW_LANG_C)
    9852                      .dwattr $C$DW$T$64, DW_AT_byte_size(0x0f)
    9853              $C$DW$1028      .dwtag  DW_TAG_subrange_type
    9854                      .dwattr $C$DW$1028, DW_AT_upper_bound(0x0e)
    9855              
    9856                      .dwendtag $C$DW$T$64
    9857              
    9858              $C$DW$T$11      .dwtag  DW_TAG_base_type
    9859                      .dwattr $C$DW$T$11, DW_AT_encoding(DW_ATE_unsigned)
    9860                      .dwattr $C$DW$T$11, DW_AT_name("unsigned int")
    9861                      .dwattr $C$DW$T$11, DW_AT_byte_size(0x01)
    9862              
    9863              $C$DW$T$21      .dwtag  DW_TAG_typedef
    9864                      .dwattr $C$DW$T$21, DW_AT_name("uint16_t")
    9865                      .dwattr $C$DW$T$21, DW_AT_type(*$C$DW$T$11)
    9866                      .dwattr $C$DW$T$21, DW_AT_language(DW_LANG_C)
    9867              
    9868              $C$DW$T$127     .dwtag  DW_TAG_typedef
    9869                      .dwattr $C$DW$T$127, DW_AT_name("USHORT")
    9870                      .dwattr $C$DW$T$127, DW_AT_type(*$C$DW$T$21)
    9871                      .dwattr $C$DW$T$127, DW_AT_language(DW_LANG_C)
    9872              
    9873              
    9874              $C$DW$T$65      .dwtag  DW_TAG_array_type
    9875                      .dwattr $C$DW$T$65, DW_AT_type(*$C$DW$T$21)
    9876                      .dwattr $C$DW$T$65, DW_AT_language(DW_LANG_C)
    9877                      .dwattr $C$DW$T$65, DW_AT_byte_size(0x0f)
    9878              $C$DW$1029      .dwtag  DW_TAG_subrange_type
    9879                      .dwattr $C$DW$1029, DW_AT_upper_bound(0x0e)
    9880              
    9881                      .dwendtag $C$DW$T$65
TMS320C2000 Assembler PC v15.12.3 Wed Nov 22 01:55:15 2017

Tools Copyright (c) 1996-2015 Texas Instruments Incorporated
C:\Users\wmj\AppData\Local\Temp\1239610                              PAGE  184

    9882              
    9883              $C$DW$T$264     .dwtag  DW_TAG_pointer_type
    9884                      .dwattr $C$DW$T$264, DW_AT_type(*$C$DW$T$21)
    9885                      .dwattr $C$DW$T$264, DW_AT_address_class(0x20)
    9886              
    9887              $C$DW$1030      .dwtag  DW_TAG_TI_far_type
    9888                      .dwattr $C$DW$1030, DW_AT_type(*$C$DW$T$21)
    9889              
    9890              $C$DW$T$22      .dwtag  DW_TAG_volatile_type
    9891                      .dwattr $C$DW$T$22, DW_AT_type(*$C$DW$1030)
    9892              
    9893              
    9894              $C$DW$T$23      .dwtag  DW_TAG_array_type
    9895                      .dwattr $C$DW$T$23, DW_AT_type(*$C$DW$T$22)
    9896                      .dwattr $C$DW$T$23, DW_AT_language(DW_LANG_C)
    9897                      .dwattr $C$DW$T$23, DW_AT_byte_size(0x10)
    9898              $C$DW$1031      .dwtag  DW_TAG_subrange_type
    9899                      .dwattr $C$DW$1031, DW_AT_upper_bound(0x0f)
    9900              
    9901                      .dwendtag $C$DW$T$23
    9902              
    9903              
    9904              $C$DW$T$24      .dwtag  DW_TAG_array_type
    9905                      .dwattr $C$DW$T$24, DW_AT_type(*$C$DW$T$22)
    9906                      .dwattr $C$DW$T$24, DW_AT_language(DW_LANG_C)
    9907                      .dwattr $C$DW$T$24, DW_AT_byte_size(0x65f0)
    9908              $C$DW$1032      .dwtag  DW_TAG_subrange_type
    9909                      .dwattr $C$DW$1032, DW_AT_upper_bound(0x65ef)
    9910              
    9911                      .dwendtag $C$DW$T$24
    9912              
    9913              
    9914              $C$DW$T$25      .dwtag  DW_TAG_array_type
    9915                      .dwattr $C$DW$T$25, DW_AT_type(*$C$DW$T$22)
    9916                      .dwattr $C$DW$T$25, DW_AT_language(DW_LANG_C)
    9917                      .dwattr $C$DW$T$25, DW_AT_byte_size(0x02)
    9918              $C$DW$1033      .dwtag  DW_TAG_subrange_type
    9919                      .dwattr $C$DW$1033, DW_AT_upper_bound(0x01)
    9920              
    9921                      .dwendtag $C$DW$T$25
    9922              
    9923              
    9924              $C$DW$T$26      .dwtag  DW_TAG_array_type
    9925                      .dwattr $C$DW$T$26, DW_AT_type(*$C$DW$T$22)
    9926                      .dwattr $C$DW$T$26, DW_AT_language(DW_LANG_C)
    9927                      .dwattr $C$DW$T$26, DW_AT_byte_size(0x05)
    9928              $C$DW$1034      .dwtag  DW_TAG_subrange_type
    9929                      .dwattr $C$DW$1034, DW_AT_upper_bound(0x04)
    9930              
    9931                      .dwendtag $C$DW$T$26
    9932              
    9933              
    9934              $C$DW$T$27      .dwtag  DW_TAG_array_type
    9935                      .dwattr $C$DW$T$27, DW_AT_type(*$C$DW$T$22)
    9936                      .dwattr $C$DW$T$27, DW_AT_language(DW_LANG_C)
TMS320C2000 Assembler PC v15.12.3 Wed Nov 22 01:55:15 2017

Tools Copyright (c) 1996-2015 Texas Instruments Incorporated
C:\Users\wmj\AppData\Local\Temp\1239610                              PAGE  185

    9937                      .dwattr $C$DW$T$27, DW_AT_byte_size(0x03)
    9938              $C$DW$1035      .dwtag  DW_TAG_subrange_type
    9939                      .dwattr $C$DW$1035, DW_AT_upper_bound(0x02)
    9940              
    9941                      .dwendtag $C$DW$T$27
    9942              
    9943              
    9944              $C$DW$T$28      .dwtag  DW_TAG_array_type
    9945                      .dwattr $C$DW$T$28, DW_AT_type(*$C$DW$T$22)
    9946                      .dwattr $C$DW$T$28, DW_AT_language(DW_LANG_C)
    9947                      .dwattr $C$DW$T$28, DW_AT_byte_size(0x0d)
    9948              $C$DW$1036      .dwtag  DW_TAG_subrange_type
    9949                      .dwattr $C$DW$1036, DW_AT_upper_bound(0x0c)
    9950              
    9951                      .dwendtag $C$DW$T$28
    9952              
    9953              
    9954              $C$DW$T$30      .dwtag  DW_TAG_array_type
    9955                      .dwattr $C$DW$T$30, DW_AT_type(*$C$DW$T$22)
    9956                      .dwattr $C$DW$T$30, DW_AT_language(DW_LANG_C)
    9957                      .dwattr $C$DW$T$30, DW_AT_byte_size(0x08)
    9958              $C$DW$1037      .dwtag  DW_TAG_subrange_type
    9959                      .dwattr $C$DW$1037, DW_AT_upper_bound(0x07)
    9960              
    9961                      .dwendtag $C$DW$T$30
    9962              
    9963              
    9964              $C$DW$T$74      .dwtag  DW_TAG_array_type
    9965                      .dwattr $C$DW$T$74, DW_AT_type(*$C$DW$T$22)
    9966                      .dwattr $C$DW$T$74, DW_AT_language(DW_LANG_C)
    9967                      .dwattr $C$DW$T$74, DW_AT_byte_size(0x18)
    9968              $C$DW$1038      .dwtag  DW_TAG_subrange_type
    9969                      .dwattr $C$DW$1038, DW_AT_upper_bound(0x17)
    9970              
    9971                      .dwendtag $C$DW$T$74
    9972              
    9973              
    9974              $C$DW$T$75      .dwtag  DW_TAG_array_type
    9975                      .dwattr $C$DW$T$75, DW_AT_type(*$C$DW$T$22)
    9976                      .dwattr $C$DW$T$75, DW_AT_language(DW_LANG_C)
    9977                      .dwattr $C$DW$T$75, DW_AT_byte_size(0x04)
    9978              $C$DW$1039      .dwtag  DW_TAG_subrange_type
    9979                      .dwattr $C$DW$1039, DW_AT_upper_bound(0x03)
    9980              
    9981                      .dwendtag $C$DW$T$75
    9982              
    9983              
    9984              $C$DW$T$158     .dwtag  DW_TAG_array_type
    9985                      .dwattr $C$DW$T$158, DW_AT_type(*$C$DW$T$22)
    9986                      .dwattr $C$DW$T$158, DW_AT_language(DW_LANG_C)
    9987                      .dwattr $C$DW$T$158, DW_AT_byte_size(0x06)
    9988              $C$DW$1040      .dwtag  DW_TAG_subrange_type
    9989                      .dwattr $C$DW$1040, DW_AT_upper_bound(0x05)
    9990              
    9991                      .dwendtag $C$DW$T$158
TMS320C2000 Assembler PC v15.12.3 Wed Nov 22 01:55:15 2017

Tools Copyright (c) 1996-2015 Texas Instruments Incorporated
C:\Users\wmj\AppData\Local\Temp\1239610                              PAGE  186

    9992              
    9993              
    9994              $C$DW$T$163     .dwtag  DW_TAG_array_type
    9995                      .dwattr $C$DW$T$163, DW_AT_type(*$C$DW$T$22)
    9996                      .dwattr $C$DW$T$163, DW_AT_language(DW_LANG_C)
    9997                      .dwattr $C$DW$T$163, DW_AT_byte_size(0x6270)
    9998              $C$DW$1041      .dwtag  DW_TAG_subrange_type
    9999                      .dwattr $C$DW$1041, DW_AT_upper_bound(0x626f)
   10000              
   10001                      .dwendtag $C$DW$T$163
   10002              
   10003              
   10004              $C$DW$T$167     .dwtag  DW_TAG_array_type
   10005                      .dwattr $C$DW$T$167, DW_AT_type(*$C$DW$T$22)
   10006                      .dwattr $C$DW$T$167, DW_AT_language(DW_LANG_C)
   10007                      .dwattr $C$DW$T$167, DW_AT_byte_size(0x6698)
   10008              $C$DW$1042      .dwtag  DW_TAG_subrange_type
   10009                      .dwattr $C$DW$1042, DW_AT_upper_bound(0x6697)
   10010              
   10011                      .dwendtag $C$DW$T$167
   10012              
   10013              $C$DW$1043      .dwtag  DW_TAG_TI_far_type
   10014                      .dwattr $C$DW$1043, DW_AT_type(*$C$DW$T$21)
   10015              
   10016              $C$DW$T$221     .dwtag  DW_TAG_const_type
   10017                      .dwattr $C$DW$T$221, DW_AT_type(*$C$DW$1043)
   10018              
   10019              $C$DW$T$32      .dwtag  DW_TAG_typedef
   10020                      .dwattr $C$DW$T$32, DW_AT_name("uint_least8_t")
   10021                      .dwattr $C$DW$T$32, DW_AT_type(*$C$DW$T$21)
   10022                      .dwattr $C$DW$T$32, DW_AT_language(DW_LANG_C)
   10023              
   10024              $C$DW$T$12      .dwtag  DW_TAG_base_type
   10025                      .dwattr $C$DW$T$12, DW_AT_encoding(DW_ATE_signed)
   10026                      .dwattr $C$DW$T$12, DW_AT_name("long")
   10027                      .dwattr $C$DW$T$12, DW_AT_byte_size(0x02)
   10028              
   10029              $C$DW$T$37      .dwtag  DW_TAG_typedef
   10030                      .dwattr $C$DW$T$37, DW_AT_name("_iq")
   10031                      .dwattr $C$DW$T$37, DW_AT_type(*$C$DW$T$12)
   10032                      .dwattr $C$DW$T$37, DW_AT_language(DW_LANG_C)
   10033              
   10034              
   10035              $C$DW$T$118     .dwtag  DW_TAG_array_type
   10036                      .dwattr $C$DW$T$118, DW_AT_type(*$C$DW$T$37)
   10037                      .dwattr $C$DW$T$118, DW_AT_language(DW_LANG_C)
   10038                      .dwattr $C$DW$T$118, DW_AT_byte_size(0x06)
   10039              $C$DW$1044      .dwtag  DW_TAG_subrange_type
   10040                      .dwattr $C$DW$1044, DW_AT_upper_bound(0x02)
   10041              
   10042                      .dwendtag $C$DW$T$118
   10043              
   10044              $C$DW$T$298     .dwtag  DW_TAG_typedef
   10045                      .dwattr $C$DW$T$298, DW_AT_name("_iq15")
   10046                      .dwattr $C$DW$T$298, DW_AT_type(*$C$DW$T$12)
TMS320C2000 Assembler PC v15.12.3 Wed Nov 22 01:55:15 2017

Tools Copyright (c) 1996-2015 Texas Instruments Incorporated
C:\Users\wmj\AppData\Local\Temp\1239610                              PAGE  187

   10047                      .dwattr $C$DW$T$298, DW_AT_language(DW_LANG_C)
   10048              
   10049              $C$DW$T$146     .dwtag  DW_TAG_typedef
   10050                      .dwattr $C$DW$T$146, DW_AT_name("_iq20")
   10051                      .dwattr $C$DW$T$146, DW_AT_type(*$C$DW$T$12)
   10052                      .dwattr $C$DW$T$146, DW_AT_language(DW_LANG_C)
   10053              
   10054              $C$DW$T$301     .dwtag  DW_TAG_typedef
   10055                      .dwattr $C$DW$T$301, DW_AT_name("_iq7")
   10056                      .dwattr $C$DW$T$301, DW_AT_type(*$C$DW$T$12)
   10057                      .dwattr $C$DW$T$301, DW_AT_language(DW_LANG_C)
   10058              
   10059              $C$DW$T$61      .dwtag  DW_TAG_typedef
   10060                      .dwattr $C$DW$T$61, DW_AT_name("int32_t")
   10061                      .dwattr $C$DW$T$61, DW_AT_type(*$C$DW$T$12)
   10062                      .dwattr $C$DW$T$61, DW_AT_language(DW_LANG_C)
   10063              
   10064              $C$DW$T$13      .dwtag  DW_TAG_base_type
   10065                      .dwattr $C$DW$T$13, DW_AT_encoding(DW_ATE_unsigned)
   10066                      .dwattr $C$DW$T$13, DW_AT_name("unsigned long")
   10067                      .dwattr $C$DW$T$13, DW_AT_byte_size(0x02)
   10068              
   10069              $C$DW$T$201     .dwtag  DW_TAG_typedef
   10070                      .dwattr $C$DW$T$201, DW_AT_name("size_t")
   10071                      .dwattr $C$DW$T$201, DW_AT_type(*$C$DW$T$13)
   10072                      .dwattr $C$DW$T$201, DW_AT_language(DW_LANG_C)
   10073              
   10074              $C$DW$1045      .dwtag  DW_TAG_TI_far_type
   10075                      .dwattr $C$DW$1045, DW_AT_type(*$C$DW$T$201)
   10076              
   10077              $C$DW$T$202     .dwtag  DW_TAG_const_type
   10078                      .dwattr $C$DW$T$202, DW_AT_type(*$C$DW$1045)
   10079              
   10080              $C$DW$T$72      .dwtag  DW_TAG_typedef
   10081                      .dwattr $C$DW$T$72, DW_AT_name("uint32_t")
   10082                      .dwattr $C$DW$T$72, DW_AT_type(*$C$DW$T$13)
   10083                      .dwattr $C$DW$T$72, DW_AT_language(DW_LANG_C)
   10084              
   10085              $C$DW$1046      .dwtag  DW_TAG_TI_far_type
   10086                      .dwattr $C$DW$1046, DW_AT_type(*$C$DW$T$72)
   10087              
   10088              $C$DW$T$73      .dwtag  DW_TAG_volatile_type
   10089                      .dwattr $C$DW$T$73, DW_AT_type(*$C$DW$1046)
   10090              
   10091              $C$DW$T$14      .dwtag  DW_TAG_base_type
   10092                      .dwattr $C$DW$T$14, DW_AT_encoding(DW_ATE_signed)
   10093                      .dwattr $C$DW$T$14, DW_AT_name("long long")
   10094                      .dwattr $C$DW$T$14, DW_AT_byte_size(0x04)
   10095              
   10096              $C$DW$T$15      .dwtag  DW_TAG_base_type
   10097                      .dwattr $C$DW$T$15, DW_AT_encoding(DW_ATE_unsigned)
   10098                      .dwattr $C$DW$T$15, DW_AT_name("unsigned long long")
   10099                      .dwattr $C$DW$T$15, DW_AT_byte_size(0x04)
   10100              
   10101              $C$DW$T$16      .dwtag  DW_TAG_base_type
TMS320C2000 Assembler PC v15.12.3 Wed Nov 22 01:55:15 2017

Tools Copyright (c) 1996-2015 Texas Instruments Incorporated
C:\Users\wmj\AppData\Local\Temp\1239610                              PAGE  188

   10102                      .dwattr $C$DW$T$16, DW_AT_encoding(DW_ATE_float)
   10103                      .dwattr $C$DW$T$16, DW_AT_name("float")
   10104                      .dwattr $C$DW$T$16, DW_AT_byte_size(0x02)
   10105              
   10106              $C$DW$T$147     .dwtag  DW_TAG_typedef
   10107                      .dwattr $C$DW$T$147, DW_AT_name("float_t")
   10108                      .dwattr $C$DW$T$147, DW_AT_type(*$C$DW$T$16)
   10109                      .dwattr $C$DW$T$147, DW_AT_language(DW_LANG_C)
   10110              
   10111              $C$DW$T$17      .dwtag  DW_TAG_base_type
   10112                      .dwattr $C$DW$T$17, DW_AT_encoding(DW_ATE_float)
   10113                      .dwattr $C$DW$T$17, DW_AT_name("double")
   10114                      .dwattr $C$DW$T$17, DW_AT_byte_size(0x02)
   10115              
   10116              $C$DW$T$18      .dwtag  DW_TAG_base_type
   10117                      .dwattr $C$DW$T$18, DW_AT_encoding(DW_ATE_float)
   10118                      .dwattr $C$DW$T$18, DW_AT_name("long double")
   10119                      .dwattr $C$DW$T$18, DW_AT_byte_size(0x04)
   10120              
   10121              $C$DW$T$59      .dwtag  DW_TAG_base_type
   10122                      .dwattr $C$DW$T$59, DW_AT_encoding(DW_ATE_unsigned_char)
   10123                      .dwattr $C$DW$T$59, DW_AT_name("unsigned char")
   10124                      .dwattr $C$DW$T$59, DW_AT_byte_size(0x01)
   10125              
   10126              $C$DW$1047      .dwtag  DW_TAG_TI_far_type
   10127                      .dwattr $C$DW$1047, DW_AT_type(*$C$DW$T$59)
   10128              
   10129              $C$DW$T$309     .dwtag  DW_TAG_const_type
   10130                      .dwattr $C$DW$T$309, DW_AT_type(*$C$DW$1047)
   10131              
   10132              $C$DW$T$276     .dwtag  DW_TAG_typedef
   10133                      .dwattr $C$DW$T$276, DW_AT_name("CHAR")
   10134                      .dwattr $C$DW$T$276, DW_AT_type(*$C$DW$T$5)
   10135                      .dwattr $C$DW$T$276, DW_AT_language(DW_LANG_C)
   10136              
   10137              $C$DW$T$279     .dwtag  DW_TAG_pointer_type
   10138                      .dwattr $C$DW$T$279, DW_AT_type(*$C$DW$T$276)
   10139                      .dwattr $C$DW$T$279, DW_AT_address_class(0x20)
   10140              
   10141              $C$DW$1048      .dwtag  DW_TAG_TI_far_type
   10142                      .dwattr $C$DW$1048, DW_AT_type(*$C$DW$T$279)
   10143              
   10144              $C$DW$T$311     .dwtag  DW_TAG_const_type
   10145                      .dwattr $C$DW$T$311, DW_AT_type(*$C$DW$1048)
   10146              
   10147                      .dwattr $C$DW$CU, DW_AT_language(DW_LANG_C)
   10148              
   10149              ;***************************************************************
   10150              ;* DWARF CIE ENTRIES                                           *
   10151              ;***************************************************************
   10152              
   10153              $C$DW$CIE       .dwcie 26
   10154                      .dwcfi  cfa_register, 20
   10155                      .dwcfi  cfa_offset, 0
   10156                      .dwcfi  undefined, 0
TMS320C2000 Assembler PC v15.12.3 Wed Nov 22 01:55:15 2017

Tools Copyright (c) 1996-2015 Texas Instruments Incorporated
C:\Users\wmj\AppData\Local\Temp\1239610                              PAGE  189

   10157                      .dwcfi  undefined, 1
   10158                      .dwcfi  undefined, 2
   10159                      .dwcfi  undefined, 3
   10160                      .dwcfi  undefined, 20
   10161                      .dwcfi  undefined, 21
   10162                      .dwcfi  undefined, 22
   10163                      .dwcfi  undefined, 23
   10164                      .dwcfi  undefined, 24
   10165                      .dwcfi  undefined, 25
   10166                      .dwcfi  undefined, 26
   10167                      .dwcfi  same_value, 28
   10168                      .dwcfi  undefined, 29
   10169                      .dwcfi  undefined, 30
   10170                      .dwcfi  undefined, 31
   10171                      .dwcfi  undefined, 32
   10172                      .dwcfi  undefined, 33
   10173                      .dwcfi  undefined, 34
   10174                      .dwcfi  undefined, 35
   10175                      .dwcfi  undefined, 36
   10176                      .dwcfi  undefined, 37
   10177                      .dwcfi  undefined, 38
   10178                      .dwcfi  undefined, 75
   10179                      .dwcfi  undefined, 76
   10180                      .dwcfi  undefined, 77
   10181                      .dwcfi  undefined, 4
   10182                      .dwcfi  undefined, 5
   10183                      .dwcfi  same_value, 6
   10184                      .dwcfi  same_value, 7
   10185                      .dwcfi  same_value, 8
   10186                      .dwcfi  same_value, 9
   10187                      .dwcfi  same_value, 10
   10188                      .dwcfi  same_value, 11
   10189                      .dwcfi  undefined, 12
   10190                      .dwcfi  undefined, 13
   10191                      .dwcfi  undefined, 14
   10192                      .dwcfi  undefined, 15
   10193                      .dwcfi  undefined, 16
   10194                      .dwcfi  undefined, 17
   10195                      .dwcfi  undefined, 18
   10196                      .dwcfi  undefined, 19
   10197                      .dwendentry
   10198              
   10199              ;***************************************************************
   10200              ;* DWARF REGISTER MAP                                          *
   10201              ;***************************************************************
   10202              
   10203              $C$DW$1049      .dwtag  DW_TAG_TI_assign_register
   10204                      .dwattr $C$DW$1049, DW_AT_name("AL")
   10205                      .dwattr $C$DW$1049, DW_AT_location[DW_OP_reg0]
   10206              
   10207              $C$DW$1050      .dwtag  DW_TAG_TI_assign_register
   10208                      .dwattr $C$DW$1050, DW_AT_name("AH")
   10209                      .dwattr $C$DW$1050, DW_AT_location[DW_OP_reg1]
   10210              
   10211              $C$DW$1051      .dwtag  DW_TAG_TI_assign_register
TMS320C2000 Assembler PC v15.12.3 Wed Nov 22 01:55:15 2017

Tools Copyright (c) 1996-2015 Texas Instruments Incorporated
C:\Users\wmj\AppData\Local\Temp\1239610                              PAGE  190

   10212                      .dwattr $C$DW$1051, DW_AT_name("PL")
   10213                      .dwattr $C$DW$1051, DW_AT_location[DW_OP_reg2]
   10214              
   10215              $C$DW$1052      .dwtag  DW_TAG_TI_assign_register
   10216                      .dwattr $C$DW$1052, DW_AT_name("PH")
   10217                      .dwattr $C$DW$1052, DW_AT_location[DW_OP_reg3]
   10218              
   10219              $C$DW$1053      .dwtag  DW_TAG_TI_assign_register
   10220                      .dwattr $C$DW$1053, DW_AT_name("SP")
   10221                      .dwattr $C$DW$1053, DW_AT_location[DW_OP_reg20]
   10222              
   10223              $C$DW$1054      .dwtag  DW_TAG_TI_assign_register
   10224                      .dwattr $C$DW$1054, DW_AT_name("XT")
   10225                      .dwattr $C$DW$1054, DW_AT_location[DW_OP_reg21]
   10226              
   10227              $C$DW$1055      .dwtag  DW_TAG_TI_assign_register
   10228                      .dwattr $C$DW$1055, DW_AT_name("T")
   10229                      .dwattr $C$DW$1055, DW_AT_location[DW_OP_reg22]
   10230              
   10231              $C$DW$1056      .dwtag  DW_TAG_TI_assign_register
   10232                      .dwattr $C$DW$1056, DW_AT_name("ST0")
   10233                      .dwattr $C$DW$1056, DW_AT_location[DW_OP_reg23]
   10234              
   10235              $C$DW$1057      .dwtag  DW_TAG_TI_assign_register
   10236                      .dwattr $C$DW$1057, DW_AT_name("ST1")
   10237                      .dwattr $C$DW$1057, DW_AT_location[DW_OP_reg24]
   10238              
   10239              $C$DW$1058      .dwtag  DW_TAG_TI_assign_register
   10240                      .dwattr $C$DW$1058, DW_AT_name("PC")
   10241                      .dwattr $C$DW$1058, DW_AT_location[DW_OP_reg25]
   10242              
   10243              $C$DW$1059      .dwtag  DW_TAG_TI_assign_register
   10244                      .dwattr $C$DW$1059, DW_AT_name("RPC")
   10245                      .dwattr $C$DW$1059, DW_AT_location[DW_OP_reg26]
   10246              
   10247              $C$DW$1060      .dwtag  DW_TAG_TI_assign_register
   10248                      .dwattr $C$DW$1060, DW_AT_name("FP")
   10249                      .dwattr $C$DW$1060, DW_AT_location[DW_OP_reg28]
   10250              
   10251              $C$DW$1061      .dwtag  DW_TAG_TI_assign_register
   10252                      .dwattr $C$DW$1061, DW_AT_name("DP")
   10253                      .dwattr $C$DW$1061, DW_AT_location[DW_OP_reg29]
   10254              
   10255              $C$DW$1062      .dwtag  DW_TAG_TI_assign_register
   10256                      .dwattr $C$DW$1062, DW_AT_name("SXM")
   10257                      .dwattr $C$DW$1062, DW_AT_location[DW_OP_reg30]
   10258              
   10259              $C$DW$1063      .dwtag  DW_TAG_TI_assign_register
   10260                      .dwattr $C$DW$1063, DW_AT_name("PM")
   10261                      .dwattr $C$DW$1063, DW_AT_location[DW_OP_reg31]
   10262              
   10263              $C$DW$1064      .dwtag  DW_TAG_TI_assign_register
   10264                      .dwattr $C$DW$1064, DW_AT_name("OVM")
   10265                      .dwattr $C$DW$1064, DW_AT_location[DW_OP_regx 0x20]
   10266              
TMS320C2000 Assembler PC v15.12.3 Wed Nov 22 01:55:15 2017

Tools Copyright (c) 1996-2015 Texas Instruments Incorporated
C:\Users\wmj\AppData\Local\Temp\1239610                              PAGE  191

   10267              $C$DW$1065      .dwtag  DW_TAG_TI_assign_register
   10268                      .dwattr $C$DW$1065, DW_AT_name("PAGE0")
   10269                      .dwattr $C$DW$1065, DW_AT_location[DW_OP_regx 0x21]
   10270              
   10271              $C$DW$1066      .dwtag  DW_TAG_TI_assign_register
   10272                      .dwattr $C$DW$1066, DW_AT_name("AMODE")
   10273                      .dwattr $C$DW$1066, DW_AT_location[DW_OP_regx 0x22]
   10274              
   10275              $C$DW$1067      .dwtag  DW_TAG_TI_assign_register
   10276                      .dwattr $C$DW$1067, DW_AT_name("INTM")
   10277                      .dwattr $C$DW$1067, DW_AT_location[DW_OP_regx 0x23]
   10278              
   10279              $C$DW$1068      .dwtag  DW_TAG_TI_assign_register
   10280                      .dwattr $C$DW$1068, DW_AT_name("IFR")
   10281                      .dwattr $C$DW$1068, DW_AT_location[DW_OP_regx 0x24]
   10282              
   10283              $C$DW$1069      .dwtag  DW_TAG_TI_assign_register
   10284                      .dwattr $C$DW$1069, DW_AT_name("IER")
   10285                      .dwattr $C$DW$1069, DW_AT_location[DW_OP_regx 0x25]
   10286              
   10287              $C$DW$1070      .dwtag  DW_TAG_TI_assign_register
   10288                      .dwattr $C$DW$1070, DW_AT_name("V")
   10289                      .dwattr $C$DW$1070, DW_AT_location[DW_OP_regx 0x26]
   10290              
   10291              $C$DW$1071      .dwtag  DW_TAG_TI_assign_register
   10292                      .dwattr $C$DW$1071, DW_AT_name("PSEUDOH")
   10293                      .dwattr $C$DW$1071, DW_AT_location[DW_OP_regx 0x4c]
   10294              
   10295              $C$DW$1072      .dwtag  DW_TAG_TI_assign_register
   10296                      .dwattr $C$DW$1072, DW_AT_name("VOL")
   10297                      .dwattr $C$DW$1072, DW_AT_location[DW_OP_regx 0x4d]
   10298              
   10299              $C$DW$1073      .dwtag  DW_TAG_TI_assign_register
   10300                      .dwattr $C$DW$1073, DW_AT_name("AR0")
   10301                      .dwattr $C$DW$1073, DW_AT_location[DW_OP_reg4]
   10302              
   10303              $C$DW$1074      .dwtag  DW_TAG_TI_assign_register
   10304                      .dwattr $C$DW$1074, DW_AT_name("XAR0")
   10305                      .dwattr $C$DW$1074, DW_AT_location[DW_OP_reg5]
   10306              
   10307              $C$DW$1075      .dwtag  DW_TAG_TI_assign_register
   10308                      .dwattr $C$DW$1075, DW_AT_name("AR1")
   10309                      .dwattr $C$DW$1075, DW_AT_location[DW_OP_reg6]
   10310              
   10311              $C$DW$1076      .dwtag  DW_TAG_TI_assign_register
   10312                      .dwattr $C$DW$1076, DW_AT_name("XAR1")
   10313                      .dwattr $C$DW$1076, DW_AT_location[DW_OP_reg7]
   10314              
   10315              $C$DW$1077      .dwtag  DW_TAG_TI_assign_register
   10316                      .dwattr $C$DW$1077, DW_AT_name("AR2")
   10317                      .dwattr $C$DW$1077, DW_AT_location[DW_OP_reg8]
   10318              
   10319              $C$DW$1078      .dwtag  DW_TAG_TI_assign_register
   10320                      .dwattr $C$DW$1078, DW_AT_name("XAR2")
   10321                      .dwattr $C$DW$1078, DW_AT_location[DW_OP_reg9]
TMS320C2000 Assembler PC v15.12.3 Wed Nov 22 01:55:15 2017

Tools Copyright (c) 1996-2015 Texas Instruments Incorporated
C:\Users\wmj\AppData\Local\Temp\1239610                              PAGE  192

   10322              
   10323              $C$DW$1079      .dwtag  DW_TAG_TI_assign_register
   10324                      .dwattr $C$DW$1079, DW_AT_name("AR3")
   10325                      .dwattr $C$DW$1079, DW_AT_location[DW_OP_reg10]
   10326              
   10327              $C$DW$1080      .dwtag  DW_TAG_TI_assign_register
   10328                      .dwattr $C$DW$1080, DW_AT_name("XAR3")
   10329                      .dwattr $C$DW$1080, DW_AT_location[DW_OP_reg11]
   10330              
   10331              $C$DW$1081      .dwtag  DW_TAG_TI_assign_register
   10332                      .dwattr $C$DW$1081, DW_AT_name("AR4")
   10333                      .dwattr $C$DW$1081, DW_AT_location[DW_OP_reg12]
   10334              
   10335              $C$DW$1082      .dwtag  DW_TAG_TI_assign_register
   10336                      .dwattr $C$DW$1082, DW_AT_name("XAR4")
   10337                      .dwattr $C$DW$1082, DW_AT_location[DW_OP_reg13]
   10338              
   10339              $C$DW$1083      .dwtag  DW_TAG_TI_assign_register
   10340                      .dwattr $C$DW$1083, DW_AT_name("AR5")
   10341                      .dwattr $C$DW$1083, DW_AT_location[DW_OP_reg14]
   10342              
   10343              $C$DW$1084      .dwtag  DW_TAG_TI_assign_register
   10344                      .dwattr $C$DW$1084, DW_AT_name("XAR5")
   10345                      .dwattr $C$DW$1084, DW_AT_location[DW_OP_reg15]
   10346              
   10347              $C$DW$1085      .dwtag  DW_TAG_TI_assign_register
   10348                      .dwattr $C$DW$1085, DW_AT_name("AR6")
   10349                      .dwattr $C$DW$1085, DW_AT_location[DW_OP_reg16]
   10350              
   10351              $C$DW$1086      .dwtag  DW_TAG_TI_assign_register
   10352                      .dwattr $C$DW$1086, DW_AT_name("XAR6")
   10353                      .dwattr $C$DW$1086, DW_AT_location[DW_OP_reg17]
   10354              
   10355              $C$DW$1087      .dwtag  DW_TAG_TI_assign_register
   10356                      .dwattr $C$DW$1087, DW_AT_name("AR7")
   10357                      .dwattr $C$DW$1087, DW_AT_location[DW_OP_reg18]
   10358              
   10359              $C$DW$1088      .dwtag  DW_TAG_TI_assign_register
   10360                      .dwattr $C$DW$1088, DW_AT_name("XAR7")
   10361                      .dwattr $C$DW$1088, DW_AT_location[DW_OP_reg19]
   10362              
   10363                      .dwendtag $C$DW$CU
   10364              

No Assembly Errors, No Assembly Warnings
