TMS320C2000 Assembler PC v15.12.3 Wed Nov 22 01:55:16 2017

Tools Copyright (c) 1996-2015 Texas Instruments Incorporated
C:\Users\wmj\AppData\Local\Temp\1673210                              PAGE    1

       1              ;***************************************************************
       2              ;* TMS320C2000 C/C++ Codegen                   PC v15.12.3.LTS *
       3              ;* Date/Time created: Wed Nov 22 01:55:15 2017                 *
       4              ;***************************************************************
       5                      .compiler_opts --abi=coffabi --float_support=softlib --hll_source=on --mem_model:code=flat --mem_mode
       6        0002  FP      .set    XAR2
       7              
       8              $C$DW$CU        .dwtag  DW_TAG_compile_unit
       9                      .dwattr $C$DW$CU, DW_AT_name("C:/Users/wmj/Desktop/BM1000_v1.1/sw/drivers/drvic/process_ctrl.c")
      10                      .dwattr $C$DW$CU, DW_AT_producer("TI TMS320C2000 C/C++ Codegen PC v15.12.3.LTS Copyright (c) 1996-201
      11                      .dwattr $C$DW$CU, DW_AT_TI_version(0x01)
      12                      .dwattr $C$DW$CU, DW_AT_comp_dir("C:\Users\wmj\Desktop\BM1000_v1.1\sw\solutions\instaspin_foc\boards\
      13              ;**************************************************************
      14              ;* CINIT RECORDS                                              *
      15              ;**************************************************************
      16 00000000               .sect   ".cinit"
      17                      .align  1
      18 00000000 FFFF          .field          -1,16
      19 00000001 0000-         .field          _Flag_Latch_softwareUpdate$1+0,32
         00000002 0000 
      20 00000003 0001          .bits   1,16                    ; _Flag_Latch_softwareUpdate$1 @ 0
      21              
      22 00000004               .sect   ".cinit"
      23                      .align  1
      24 00000004 FFFE          .field          -2,16
      25 00000005 0002-         .field          _Sum$6+0,32
         00000006 0000 
      26 00000007 0000          .bits   1073741824,32                   ; _Sum$6 @ 0
         00000008 4000 
      27              
      28 00000009               .sect   ".cinit"
      29                      .align  1
      30 00000009 FFFE          .field          -2,16
      31 0000000a 0004-         .field          _Avage$5+0,32
         0000000b 0000 
      32 0000000c 0000          .bits   67108864,32                     ; _Avage$5 @ 0
         0000000d 0400 
      33              
      34 0000000e               .sect   ".cinit"
      35                      .align  1
      36 0000000e FFFE          .field          -2,16
      37 0000000f 0006-         .field          _p_Last1$4+0,32
         00000010 0000 
      38 00000011 0000          .bits   0,32                    ; _p_Last1$4 @ 0
         00000012 0000 
      39              
      40 00000013               .sect   ".cinit"
      41                      .align  1
      42 00000013 FFFE          .field          -2,16
      43 00000014 0008-         .field          _Avage$7+0,32
         00000015 0000 
      44 00000016 2000          .bits   8192,32                 ; _Avage$7 @ 0
         00000017 0000 
      45              
      46 00000018               .sect   ".cinit"
TMS320C2000 Assembler PC v15.12.3 Wed Nov 22 01:55:16 2017

Tools Copyright (c) 1996-2015 Texas Instruments Incorporated
C:\Users\wmj\AppData\Local\Temp\1673210                              PAGE    2

      47                      .align  1
      48 00000018 FFFE          .field          -2,16
      49 00000019 000A-         .field          _Sum$8+0,32
         0000001a 0000 
      50 0000001b 8000          .bits   32768,32                        ; _Sum$8 @ 0
         0000001c 0000 
      51              
      52 0000001d               .sect   ".cinit"
      53                      .align  1
      54 0000001d FFFE          .field          -2,16
      55 0000001e 000C-         .field          _p_Last0$3+0,32
         0000001f 0000 
      56 00000020 0000          .bits   0,32                    ; _p_Last0$3 @ 0
         00000021 0000 
      57              
      58 00000022               .sect   ".cinit"
      59                      .align  1
      60 00000022 FFFE          .field          -2,16
      61 00000023 000E-         .field          _gMaxCurrentSlope$2+0,32
         00000024 0000 
      62 00000025 0000          .bits   0,32                    ; _gMaxCurrentSlope$2 @ 0
         00000026 0000 
      63              
      64              
      65              $C$DW$1 .dwtag  DW_TAG_subprogram
      66                      .dwattr $C$DW$1, DW_AT_name("MB_setSciHandle")
      67                      .dwattr $C$DW$1, DW_AT_TI_symbol_name("_MB_setSciHandle")
      68                      .dwattr $C$DW$1, DW_AT_declaration
      69                      .dwattr $C$DW$1, DW_AT_external
      70              $C$DW$2 .dwtag  DW_TAG_formal_parameter
      71                      .dwattr $C$DW$2, DW_AT_type(*$C$DW$T$219)
      72              
      73              $C$DW$3 .dwtag  DW_TAG_formal_parameter
      74                      .dwattr $C$DW$3, DW_AT_type(*$C$DW$T$152)
      75              
      76                      .dwendtag $C$DW$1
      77              
      78              
      79              $C$DW$4 .dwtag  DW_TAG_subprogram
      80                      .dwattr $C$DW$4, DW_AT_name("FSM_Run")
      81                      .dwattr $C$DW$4, DW_AT_TI_symbol_name("_FSM_Run")
      82                      .dwattr $C$DW$4, DW_AT_declaration
      83                      .dwattr $C$DW$4, DW_AT_external
      84              $C$DW$5 .dwtag  DW_TAG_formal_parameter
      85                      .dwattr $C$DW$5, DW_AT_type(*$C$DW$T$164)
      86              
      87                      .dwendtag $C$DW$4
      88              
      89              
      90              $C$DW$6 .dwtag  DW_TAG_subprogram
      91                      .dwattr $C$DW$6, DW_AT_name("MB_setGpioHandle")
      92                      .dwattr $C$DW$6, DW_AT_TI_symbol_name("_MB_setGpioHandle")
      93                      .dwattr $C$DW$6, DW_AT_declaration
      94                      .dwattr $C$DW$6, DW_AT_external
      95              $C$DW$7 .dwtag  DW_TAG_formal_parameter
TMS320C2000 Assembler PC v15.12.3 Wed Nov 22 01:55:16 2017

Tools Copyright (c) 1996-2015 Texas Instruments Incorporated
C:\Users\wmj\AppData\Local\Temp\1673210                              PAGE    3

      96                      .dwattr $C$DW$7, DW_AT_type(*$C$DW$T$219)
      97              
      98              $C$DW$8 .dwtag  DW_TAG_formal_parameter
      99                      .dwattr $C$DW$8, DW_AT_type(*$C$DW$T$127)
     100              
     101                      .dwendtag $C$DW$6
     102              
     103              
     104              $C$DW$9 .dwtag  DW_TAG_subprogram
     105                      .dwattr $C$DW$9, DW_AT_name("MB_setTimHandle")
     106                      .dwattr $C$DW$9, DW_AT_TI_symbol_name("_MB_setTimHandle")
     107                      .dwattr $C$DW$9, DW_AT_declaration
     108                      .dwattr $C$DW$9, DW_AT_external
     109              $C$DW$10        .dwtag  DW_TAG_formal_parameter
     110                      .dwattr $C$DW$10, DW_AT_type(*$C$DW$T$219)
     111              
     112              $C$DW$11        .dwtag  DW_TAG_formal_parameter
     113                      .dwattr $C$DW$11, DW_AT_type(*$C$DW$T$145)
     114              
     115                      .dwendtag $C$DW$9
     116              
     117              
     118              $C$DW$12        .dwtag  DW_TAG_subprogram
     119                      .dwattr $C$DW$12, DW_AT_name("MOTOR_MotorVars_Init")
     120                      .dwattr $C$DW$12, DW_AT_TI_symbol_name("_MOTOR_MotorVars_Init")
     121                      .dwattr $C$DW$12, DW_AT_declaration
     122                      .dwattr $C$DW$12, DW_AT_external
     123              $C$DW$13        .dwtag  DW_TAG_formal_parameter
     124                      .dwattr $C$DW$13, DW_AT_type(*$C$DW$T$81)
     125              
     126                      .dwendtag $C$DW$12
     127              
     128              
     129              $C$DW$14        .dwtag  DW_TAG_subprogram
     130                      .dwattr $C$DW$14, DW_AT_name("FSM_setHalHandle")
     131                      .dwattr $C$DW$14, DW_AT_TI_symbol_name("_FSM_setHalHandle")
     132                      .dwattr $C$DW$14, DW_AT_declaration
     133                      .dwattr $C$DW$14, DW_AT_external
     134              $C$DW$15        .dwtag  DW_TAG_formal_parameter
     135                      .dwattr $C$DW$15, DW_AT_type(*$C$DW$T$164)
     136              
     137              $C$DW$16        .dwtag  DW_TAG_formal_parameter
     138                      .dwattr $C$DW$16, DW_AT_type(*$C$DW$T$83)
     139              
     140                      .dwendtag $C$DW$14
     141              
     142              
     143              $C$DW$17        .dwtag  DW_TAG_subprogram
     144                      .dwattr $C$DW$17, DW_AT_name("MB_setMotorHandle")
     145                      .dwattr $C$DW$17, DW_AT_TI_symbol_name("_MB_setMotorHandle")
     146                      .dwattr $C$DW$17, DW_AT_declaration
     147                      .dwattr $C$DW$17, DW_AT_external
     148              $C$DW$18        .dwtag  DW_TAG_formal_parameter
     149                      .dwattr $C$DW$18, DW_AT_type(*$C$DW$T$219)
     150              
TMS320C2000 Assembler PC v15.12.3 Wed Nov 22 01:55:16 2017

Tools Copyright (c) 1996-2015 Texas Instruments Incorporated
C:\Users\wmj\AppData\Local\Temp\1673210                              PAGE    4

     151              $C$DW$19        .dwtag  DW_TAG_formal_parameter
     152                      .dwattr $C$DW$19, DW_AT_type(*$C$DW$T$81)
     153              
     154                      .dwendtag $C$DW$17
     155              
     156              
     157              $C$DW$20        .dwtag  DW_TAG_subprogram
     158                      .dwattr $C$DW$20, DW_AT_name("FSM_setMotorHandle")
     159                      .dwattr $C$DW$20, DW_AT_TI_symbol_name("_FSM_setMotorHandle")
     160                      .dwattr $C$DW$20, DW_AT_declaration
     161                      .dwattr $C$DW$20, DW_AT_external
     162              $C$DW$21        .dwtag  DW_TAG_formal_parameter
     163                      .dwattr $C$DW$21, DW_AT_type(*$C$DW$T$164)
     164              
     165              $C$DW$22        .dwtag  DW_TAG_formal_parameter
     166                      .dwattr $C$DW$22, DW_AT_type(*$C$DW$T$81)
     167              
     168                      .dwendtag $C$DW$20
     169              
     170              
     171              $C$DW$23        .dwtag  DW_TAG_subprogram
     172                      .dwattr $C$DW$23, DW_AT_name("CTRL_setSpd_ref_krpm")
     173                      .dwattr $C$DW$23, DW_AT_TI_symbol_name("_CTRL_setSpd_ref_krpm")
     174                      .dwattr $C$DW$23, DW_AT_declaration
     175                      .dwattr $C$DW$23, DW_AT_external
     176              $C$DW$24        .dwtag  DW_TAG_formal_parameter
     177                      .dwattr $C$DW$24, DW_AT_type(*$C$DW$T$211)
     178              
     179              $C$DW$25        .dwtag  DW_TAG_formal_parameter
     180                      .dwattr $C$DW$25, DW_AT_type(*$C$DW$T$302)
     181              
     182                      .dwendtag $C$DW$23
     183              
     184              
     185              $C$DW$26        .dwtag  DW_TAG_subprogram
     186                      .dwattr $C$DW$26, DW_AT_name("MB_setFsmHandle")
     187                      .dwattr $C$DW$26, DW_AT_TI_symbol_name("_MB_setFsmHandle")
     188                      .dwattr $C$DW$26, DW_AT_declaration
     189                      .dwattr $C$DW$26, DW_AT_external
     190              $C$DW$27        .dwtag  DW_TAG_formal_parameter
     191                      .dwattr $C$DW$27, DW_AT_type(*$C$DW$T$219)
     192              
     193              $C$DW$28        .dwtag  DW_TAG_formal_parameter
     194                      .dwattr $C$DW$28, DW_AT_type(*$C$DW$T$164)
     195              
     196                      .dwendtag $C$DW$26
     197              
     198              
     199              $C$DW$29        .dwtag  DW_TAG_subprogram
     200                      .dwattr $C$DW$29, DW_AT_name("USER_softwareUpdate1p6")
     201                      .dwattr $C$DW$29, DW_AT_TI_symbol_name("_USER_softwareUpdate1p6")
     202                      .dwattr $C$DW$29, DW_AT_declaration
     203                      .dwattr $C$DW$29, DW_AT_external
     204              $C$DW$30        .dwtag  DW_TAG_formal_parameter
     205                      .dwattr $C$DW$30, DW_AT_type(*$C$DW$T$211)
TMS320C2000 Assembler PC v15.12.3 Wed Nov 22 01:55:16 2017

Tools Copyright (c) 1996-2015 Texas Instruments Incorporated
C:\Users\wmj\AppData\Local\Temp\1673210                              PAGE    5

     206              
     207              $C$DW$31        .dwtag  DW_TAG_formal_parameter
     208                      .dwattr $C$DW$31, DW_AT_type(*$C$DW$T$297)
     209              
     210                      .dwendtag $C$DW$29
     211              
     212              
     213              $C$DW$32        .dwtag  DW_TAG_subprogram
     214                      .dwattr $C$DW$32, DW_AT_name("USER_calcPIgains")
     215                      .dwattr $C$DW$32, DW_AT_TI_symbol_name("_USER_calcPIgains")
     216                      .dwattr $C$DW$32, DW_AT_declaration
     217                      .dwattr $C$DW$32, DW_AT_external
     218              $C$DW$33        .dwtag  DW_TAG_formal_parameter
     219                      .dwattr $C$DW$33, DW_AT_type(*$C$DW$T$211)
     220              
     221              $C$DW$34        .dwtag  DW_TAG_formal_parameter
     222                      .dwattr $C$DW$34, DW_AT_type(*$C$DW$T$297)
     223              
     224                      .dwendtag $C$DW$32
     225              
     226              
     227              $C$DW$35        .dwtag  DW_TAG_subprogram
     228                      .dwattr $C$DW$35, DW_AT_name("EST_setFlag_enableForceAngle")
     229                      .dwattr $C$DW$35, DW_AT_TI_symbol_name("_EST_setFlag_enableForceAngle")
     230                      .dwattr $C$DW$35, DW_AT_declaration
     231                      .dwattr $C$DW$35, DW_AT_external
     232              $C$DW$36        .dwtag  DW_TAG_formal_parameter
     233                      .dwattr $C$DW$36, DW_AT_type(*$C$DW$T$49)
     234              
     235              $C$DW$37        .dwtag  DW_TAG_formal_parameter
     236                      .dwattr $C$DW$37, DW_AT_type(*$C$DW$T$304)
     237              
     238                      .dwendtag $C$DW$35
     239              
     240              
     241              $C$DW$38        .dwtag  DW_TAG_subprogram
     242                      .dwattr $C$DW$38, DW_AT_name("EST_setMaxCurrentSlope_pu")
     243                      .dwattr $C$DW$38, DW_AT_TI_symbol_name("_EST_setMaxCurrentSlope_pu")
     244                      .dwattr $C$DW$38, DW_AT_declaration
     245                      .dwattr $C$DW$38, DW_AT_external
     246              $C$DW$39        .dwtag  DW_TAG_formal_parameter
     247                      .dwattr $C$DW$39, DW_AT_type(*$C$DW$T$49)
     248              
     249              $C$DW$40        .dwtag  DW_TAG_formal_parameter
     250                      .dwattr $C$DW$40, DW_AT_type(*$C$DW$T$302)
     251              
     252                      .dwendtag $C$DW$38
     253              
     254              
     255              $C$DW$41        .dwtag  DW_TAG_subprogram
     256                      .dwattr $C$DW$41, DW_AT_name("EST_setFe_neg_max_pu")
     257                      .dwattr $C$DW$41, DW_AT_TI_symbol_name("_EST_setFe_neg_max_pu")
     258                      .dwattr $C$DW$41, DW_AT_declaration
     259                      .dwattr $C$DW$41, DW_AT_external
     260              $C$DW$42        .dwtag  DW_TAG_formal_parameter
TMS320C2000 Assembler PC v15.12.3 Wed Nov 22 01:55:16 2017

Tools Copyright (c) 1996-2015 Texas Instruments Incorporated
C:\Users\wmj\AppData\Local\Temp\1673210                              PAGE    6

     261                      .dwattr $C$DW$42, DW_AT_type(*$C$DW$T$49)
     262              
     263              $C$DW$43        .dwtag  DW_TAG_formal_parameter
     264                      .dwattr $C$DW$43, DW_AT_type(*$C$DW$T$302)
     265              
     266                      .dwendtag $C$DW$41
     267              
     268              
     269              $C$DW$44        .dwtag  DW_TAG_subprogram
     270                      .dwattr $C$DW$44, DW_AT_name("EST_setFe_pos_min_pu")
     271                      .dwattr $C$DW$44, DW_AT_TI_symbol_name("_EST_setFe_pos_min_pu")
     272                      .dwattr $C$DW$44, DW_AT_declaration
     273                      .dwattr $C$DW$44, DW_AT_external
     274              $C$DW$45        .dwtag  DW_TAG_formal_parameter
     275                      .dwattr $C$DW$45, DW_AT_type(*$C$DW$T$49)
     276              
     277              $C$DW$46        .dwtag  DW_TAG_formal_parameter
     278                      .dwattr $C$DW$46, DW_AT_type(*$C$DW$T$302)
     279              
     280                      .dwendtag $C$DW$44
     281              
     282              
     283              $C$DW$47        .dwtag  DW_TAG_subprogram
     284                      .dwattr $C$DW$47, DW_AT_name("EST_setDir_qFmt")
     285                      .dwattr $C$DW$47, DW_AT_TI_symbol_name("_EST_setDir_qFmt")
     286                      .dwattr $C$DW$47, DW_AT_declaration
     287                      .dwattr $C$DW$47, DW_AT_external
     288              $C$DW$48        .dwtag  DW_TAG_formal_parameter
     289                      .dwattr $C$DW$48, DW_AT_type(*$C$DW$T$49)
     290              
     291              $C$DW$49        .dwtag  DW_TAG_formal_parameter
     292                      .dwattr $C$DW$49, DW_AT_type(*$C$DW$T$309)
     293              
     294                      .dwendtag $C$DW$47
     295              
     296              
     297              $C$DW$50        .dwtag  DW_TAG_subprogram
     298                      .dwattr $C$DW$50, DW_AT_name("CTRL_updateState")
     299                      .dwattr $C$DW$50, DW_AT_TI_symbol_name("_CTRL_updateState")
     300                      .dwattr $C$DW$50, DW_AT_type(*$C$DW$T$33)
     301                      .dwattr $C$DW$50, DW_AT_declaration
     302                      .dwattr $C$DW$50, DW_AT_external
     303              $C$DW$51        .dwtag  DW_TAG_formal_parameter
     304                      .dwattr $C$DW$51, DW_AT_type(*$C$DW$T$211)
     305              
     306                      .dwendtag $C$DW$50
     307              
     308              
     309              $C$DW$52        .dwtag  DW_TAG_subprogram
     310                      .dwattr $C$DW$52, DW_AT_name("EST_isMotorIdentified")
     311                      .dwattr $C$DW$52, DW_AT_TI_symbol_name("_EST_isMotorIdentified")
     312                      .dwattr $C$DW$52, DW_AT_type(*$C$DW$T$33)
     313                      .dwattr $C$DW$52, DW_AT_declaration
     314                      .dwattr $C$DW$52, DW_AT_external
     315              $C$DW$53        .dwtag  DW_TAG_formal_parameter
TMS320C2000 Assembler PC v15.12.3 Wed Nov 22 01:55:16 2017

Tools Copyright (c) 1996-2015 Texas Instruments Incorporated
C:\Users\wmj\AppData\Local\Temp\1673210                              PAGE    7

     316                      .dwattr $C$DW$53, DW_AT_type(*$C$DW$T$49)
     317              
     318                      .dwendtag $C$DW$52
     319              
     320              
     321              $C$DW$54        .dwtag  DW_TAG_subprogram
     322                      .dwattr $C$DW$54, DW_AT_name("EST_getState")
     323                      .dwattr $C$DW$54, DW_AT_TI_symbol_name("_EST_getState")
     324                      .dwattr $C$DW$54, DW_AT_type(*$C$DW$T$183)
     325                      .dwattr $C$DW$54, DW_AT_declaration
     326                      .dwattr $C$DW$54, DW_AT_external
     327              $C$DW$55        .dwtag  DW_TAG_formal_parameter
     328                      .dwattr $C$DW$55, DW_AT_type(*$C$DW$T$49)
     329              
     330                      .dwendtag $C$DW$54
     331              
     332              
     333              $C$DW$56        .dwtag  DW_TAG_subprogram
     334                      .dwattr $C$DW$56, DW_AT_name("EST_computeDirection_qFmt")
     335                      .dwattr $C$DW$56, DW_AT_TI_symbol_name("_EST_computeDirection_qFmt")
     336                      .dwattr $C$DW$56, DW_AT_type(*$C$DW$T$35)
     337                      .dwattr $C$DW$56, DW_AT_declaration
     338                      .dwattr $C$DW$56, DW_AT_external
     339              $C$DW$57        .dwtag  DW_TAG_formal_parameter
     340                      .dwattr $C$DW$57, DW_AT_type(*$C$DW$T$49)
     341              
     342              $C$DW$58        .dwtag  DW_TAG_formal_parameter
     343                      .dwattr $C$DW$58, DW_AT_type(*$C$DW$T$323)
     344              
     345                      .dwendtag $C$DW$56
     346              
     347 00000000       _Flag_Latch_softwareUpdate$1:   .usect  ".ebss",1,1,0
     348 00000002       _Sum$6: .usect  ".ebss",2,1,1
     349              
     350              $C$DW$59        .dwtag  DW_TAG_subprogram
     351                      .dwattr $C$DW$59, DW_AT_name("EST_getMaxCurrentSlope_pu")
     352                      .dwattr $C$DW$59, DW_AT_TI_symbol_name("_EST_getMaxCurrentSlope_pu")
     353                      .dwattr $C$DW$59, DW_AT_type(*$C$DW$T$31)
     354                      .dwattr $C$DW$59, DW_AT_declaration
     355                      .dwattr $C$DW$59, DW_AT_external
     356              $C$DW$60        .dwtag  DW_TAG_formal_parameter
     357                      .dwattr $C$DW$60, DW_AT_type(*$C$DW$T$49)
     358              
     359                      .dwendtag $C$DW$59
     360              
     361              
     362              $C$DW$61        .dwtag  DW_TAG_subprogram
     363                      .dwattr $C$DW$61, DW_AT_name("EST_getFlux_VpHz")
     364                      .dwattr $C$DW$61, DW_AT_TI_symbol_name("_EST_getFlux_VpHz")
     365                      .dwattr $C$DW$61, DW_AT_type(*$C$DW$T$70)
     366                      .dwattr $C$DW$61, DW_AT_declaration
     367                      .dwattr $C$DW$61, DW_AT_external
     368              $C$DW$62        .dwtag  DW_TAG_formal_parameter
     369                      .dwattr $C$DW$62, DW_AT_type(*$C$DW$T$49)
     370              
TMS320C2000 Assembler PC v15.12.3 Wed Nov 22 01:55:16 2017

Tools Copyright (c) 1996-2015 Texas Instruments Incorporated
C:\Users\wmj\AppData\Local\Temp\1673210                              PAGE    8

     371                      .dwendtag $C$DW$61
     372              
     373 00000004       _Avage$5:       .usect  ".ebss",2,1,1
     374 00000006       _p_Last1$4:     .usect  ".ebss",2,1,1
     375 00000008       _Avage$7:       .usect  ".ebss",2,1,1
     376 0000000a       _Sum$8: .usect  ".ebss",2,1,1
     377              
     378              $C$DW$63        .dwtag  DW_TAG_subprogram
     379                      .dwattr $C$DW$63, DW_AT_name("EST_getLs_d_H")
     380                      .dwattr $C$DW$63, DW_AT_TI_symbol_name("_EST_getLs_d_H")
     381                      .dwattr $C$DW$63, DW_AT_type(*$C$DW$T$70)
     382                      .dwattr $C$DW$63, DW_AT_declaration
     383                      .dwattr $C$DW$63, DW_AT_external
     384              $C$DW$64        .dwtag  DW_TAG_formal_parameter
     385                      .dwattr $C$DW$64, DW_AT_type(*$C$DW$T$49)
     386              
     387                      .dwendtag $C$DW$63
     388              
     389              
     390              $C$DW$65        .dwtag  DW_TAG_subprogram
     391                      .dwattr $C$DW$65, DW_AT_name("EST_getIdRated")
     392                      .dwattr $C$DW$65, DW_AT_TI_symbol_name("_EST_getIdRated")
     393                      .dwattr $C$DW$65, DW_AT_type(*$C$DW$T$70)
     394                      .dwattr $C$DW$65, DW_AT_declaration
     395                      .dwattr $C$DW$65, DW_AT_external
     396              $C$DW$66        .dwtag  DW_TAG_formal_parameter
     397                      .dwattr $C$DW$66, DW_AT_type(*$C$DW$T$49)
     398              
     399                      .dwendtag $C$DW$65
     400              
     401              
     402              $C$DW$67        .dwtag  DW_TAG_subprogram
     403                      .dwattr $C$DW$67, DW_AT_name("_IQ24sqrt")
     404                      .dwattr $C$DW$67, DW_AT_TI_symbol_name("__IQ24sqrt")
     405                      .dwattr $C$DW$67, DW_AT_type(*$C$DW$T$12)
     406                      .dwattr $C$DW$67, DW_AT_declaration
     407                      .dwattr $C$DW$67, DW_AT_external
     408              $C$DW$68        .dwtag  DW_TAG_formal_parameter
     409                      .dwattr $C$DW$68, DW_AT_type(*$C$DW$T$12)
     410              
     411                      .dwendtag $C$DW$67
     412              
     413              
     414              $C$DW$69        .dwtag  DW_TAG_subprogram
     415                      .dwattr $C$DW$69, DW_AT_name("__IQsat")
     416                      .dwattr $C$DW$69, DW_AT_TI_symbol_name("___IQsat")
     417                      .dwattr $C$DW$69, DW_AT_type(*$C$DW$T$12)
     418                      .dwattr $C$DW$69, DW_AT_declaration
     419                      .dwattr $C$DW$69, DW_AT_external
     420              $C$DW$70        .dwtag  DW_TAG_formal_parameter
     421                      .dwattr $C$DW$70, DW_AT_type(*$C$DW$T$12)
     422              
     423              $C$DW$71        .dwtag  DW_TAG_formal_parameter
     424                      .dwattr $C$DW$71, DW_AT_type(*$C$DW$T$12)
     425              
TMS320C2000 Assembler PC v15.12.3 Wed Nov 22 01:55:16 2017

Tools Copyright (c) 1996-2015 Texas Instruments Incorporated
C:\Users\wmj\AppData\Local\Temp\1673210                              PAGE    9

     426              $C$DW$72        .dwtag  DW_TAG_formal_parameter
     427                      .dwattr $C$DW$72, DW_AT_type(*$C$DW$T$12)
     428              
     429                      .dwendtag $C$DW$69
     430              
     431              
     432              $C$DW$73        .dwtag  DW_TAG_subprogram
     433                      .dwattr $C$DW$73, DW_AT_name("_IQ24div")
     434                      .dwattr $C$DW$73, DW_AT_TI_symbol_name("__IQ24div")
     435                      .dwattr $C$DW$73, DW_AT_type(*$C$DW$T$12)
     436                      .dwattr $C$DW$73, DW_AT_declaration
     437                      .dwattr $C$DW$73, DW_AT_external
     438              $C$DW$74        .dwtag  DW_TAG_formal_parameter
     439                      .dwattr $C$DW$74, DW_AT_type(*$C$DW$T$12)
     440              
     441              $C$DW$75        .dwtag  DW_TAG_formal_parameter
     442                      .dwattr $C$DW$75, DW_AT_type(*$C$DW$T$12)
     443              
     444                      .dwendtag $C$DW$73
     445              
     446              
     447              $C$DW$76        .dwtag  DW_TAG_subprogram
     448                      .dwattr $C$DW$76, DW_AT_name("EST_get_krpm_to_pu_sf")
     449                      .dwattr $C$DW$76, DW_AT_TI_symbol_name("_EST_get_krpm_to_pu_sf")
     450                      .dwattr $C$DW$76, DW_AT_type(*$C$DW$T$31)
     451                      .dwattr $C$DW$76, DW_AT_declaration
     452                      .dwattr $C$DW$76, DW_AT_external
     453              $C$DW$77        .dwtag  DW_TAG_formal_parameter
     454                      .dwattr $C$DW$77, DW_AT_type(*$C$DW$T$49)
     455              
     456                      .dwendtag $C$DW$76
     457              
     458              
     459              $C$DW$78        .dwtag  DW_TAG_subprogram
     460                      .dwattr $C$DW$78, DW_AT_name("EST_getLs_q_H")
     461                      .dwattr $C$DW$78, DW_AT_TI_symbol_name("_EST_getLs_q_H")
     462                      .dwattr $C$DW$78, DW_AT_type(*$C$DW$T$70)
     463                      .dwattr $C$DW$78, DW_AT_declaration
     464                      .dwattr $C$DW$78, DW_AT_external
     465              $C$DW$79        .dwtag  DW_TAG_formal_parameter
     466                      .dwattr $C$DW$79, DW_AT_type(*$C$DW$T$49)
     467              
     468                      .dwendtag $C$DW$78
     469              
     470 0000000c       _p_Last0$3:     .usect  ".ebss",2,1,1
     471              
     472              $C$DW$80        .dwtag  DW_TAG_subprogram
     473                      .dwattr $C$DW$80, DW_AT_name("labs")
     474                      .dwattr $C$DW$80, DW_AT_TI_symbol_name("_labs")
     475                      .dwattr $C$DW$80, DW_AT_type(*$C$DW$T$12)
     476                      .dwattr $C$DW$80, DW_AT_declaration
     477                      .dwattr $C$DW$80, DW_AT_external
     478              $C$DW$81        .dwtag  DW_TAG_formal_parameter
     479                      .dwattr $C$DW$81, DW_AT_type(*$C$DW$T$12)
     480              
TMS320C2000 Assembler PC v15.12.3 Wed Nov 22 01:55:16 2017

Tools Copyright (c) 1996-2015 Texas Instruments Incorporated
C:\Users\wmj\AppData\Local\Temp\1673210                              PAGE   10

     481                      .dwendtag $C$DW$80
     482              
     483 0000000e       _gMaxCurrentSlope$2:    .usect  ".ebss",2,1,1
     484              
     485              $C$DW$82        .dwtag  DW_TAG_subprogram
     486                      .dwattr $C$DW$82, DW_AT_name("__IQmpy")
     487                      .dwattr $C$DW$82, DW_AT_TI_symbol_name("___IQmpy")
     488                      .dwattr $C$DW$82, DW_AT_type(*$C$DW$T$12)
     489                      .dwattr $C$DW$82, DW_AT_declaration
     490                      .dwattr $C$DW$82, DW_AT_external
     491              $C$DW$83        .dwtag  DW_TAG_formal_parameter
     492                      .dwattr $C$DW$83, DW_AT_type(*$C$DW$T$12)
     493              
     494              $C$DW$84        .dwtag  DW_TAG_formal_parameter
     495                      .dwattr $C$DW$84, DW_AT_type(*$C$DW$T$12)
     496              
     497              $C$DW$85        .dwtag  DW_TAG_formal_parameter
     498                      .dwattr $C$DW$85, DW_AT_type(*$C$DW$T$10)
     499              
     500                      .dwendtag $C$DW$82
     501              
     502              
     503              $C$DW$86        .dwtag  DW_TAG_subprogram
     504                      .dwattr $C$DW$86, DW_AT_name("MB_init")
     505                      .dwattr $C$DW$86, DW_AT_TI_symbol_name("_MB_init")
     506                      .dwattr $C$DW$86, DW_AT_type(*$C$DW$T$219)
     507                      .dwattr $C$DW$86, DW_AT_declaration
     508                      .dwattr $C$DW$86, DW_AT_external
     509              $C$DW$87        .dwtag  DW_TAG_formal_parameter
     510                      .dwattr $C$DW$87, DW_AT_type(*$C$DW$T$3)
     511              
     512              $C$DW$88        .dwtag  DW_TAG_formal_parameter
     513                      .dwattr $C$DW$88, DW_AT_type(*$C$DW$T$252)
     514              
     515                      .dwendtag $C$DW$86
     516              
     517              
     518              $C$DW$89        .dwtag  DW_TAG_subprogram
     519                      .dwattr $C$DW$89, DW_AT_name("USER_computeTorque_Nm")
     520                      .dwattr $C$DW$89, DW_AT_TI_symbol_name("_USER_computeTorque_Nm")
     521                      .dwattr $C$DW$89, DW_AT_type(*$C$DW$T$31)
     522                      .dwattr $C$DW$89, DW_AT_declaration
     523                      .dwattr $C$DW$89, DW_AT_external
     524              $C$DW$90        .dwtag  DW_TAG_formal_parameter
     525                      .dwattr $C$DW$90, DW_AT_type(*$C$DW$T$211)
     526              
     527              $C$DW$91        .dwtag  DW_TAG_formal_parameter
     528                      .dwattr $C$DW$91, DW_AT_type(*$C$DW$T$302)
     529              
     530              $C$DW$92        .dwtag  DW_TAG_formal_parameter
     531                      .dwattr $C$DW$92, DW_AT_type(*$C$DW$T$302)
     532              
     533                      .dwendtag $C$DW$89
     534              
     535              
TMS320C2000 Assembler PC v15.12.3 Wed Nov 22 01:55:16 2017

Tools Copyright (c) 1996-2015 Texas Instruments Incorporated
C:\Users\wmj\AppData\Local\Temp\1673210                              PAGE   11

     536              $C$DW$93        .dwtag  DW_TAG_subprogram
     537                      .dwattr $C$DW$93, DW_AT_name("USER_computeFlux_pu_to_VpHz_sf")
     538                      .dwattr $C$DW$93, DW_AT_TI_symbol_name("_USER_computeFlux_pu_to_VpHz_sf")
     539                      .dwattr $C$DW$93, DW_AT_type(*$C$DW$T$31)
     540                      .dwattr $C$DW$93, DW_AT_declaration
     541                      .dwattr $C$DW$93, DW_AT_external
     542              $C$DW$94        .dwtag  DW_TAG_formal_parameter
     543                      .dwattr $C$DW$94, DW_AT_type(*$C$DW$T$297)
     544              
     545                      .dwendtag $C$DW$93
     546              
     547              
     548              $C$DW$95        .dwtag  DW_TAG_subprogram
     549                      .dwattr $C$DW$95, DW_AT_name("USER_computeFlux")
     550                      .dwattr $C$DW$95, DW_AT_TI_symbol_name("_USER_computeFlux")
     551                      .dwattr $C$DW$95, DW_AT_type(*$C$DW$T$31)
     552                      .dwattr $C$DW$95, DW_AT_declaration
     553                      .dwattr $C$DW$95, DW_AT_external
     554              $C$DW$96        .dwtag  DW_TAG_formal_parameter
     555                      .dwattr $C$DW$96, DW_AT_type(*$C$DW$T$211)
     556              
     557              $C$DW$97        .dwtag  DW_TAG_formal_parameter
     558                      .dwattr $C$DW$97, DW_AT_type(*$C$DW$T$302)
     559              
     560                      .dwendtag $C$DW$95
     561              
     562              
     563              $C$DW$98        .dwtag  DW_TAG_subprogram
     564                      .dwattr $C$DW$98, DW_AT_name("Motor_init")
     565                      .dwattr $C$DW$98, DW_AT_TI_symbol_name("_Motor_init")
     566                      .dwattr $C$DW$98, DW_AT_type(*$C$DW$T$81)
     567                      .dwattr $C$DW$98, DW_AT_declaration
     568                      .dwattr $C$DW$98, DW_AT_external
     569              $C$DW$99        .dwtag  DW_TAG_formal_parameter
     570                      .dwattr $C$DW$99, DW_AT_type(*$C$DW$T$3)
     571              
     572              $C$DW$100       .dwtag  DW_TAG_formal_parameter
     573                      .dwattr $C$DW$100, DW_AT_type(*$C$DW$T$252)
     574              
     575                      .dwendtag $C$DW$98
     576              
     577              
     578              $C$DW$101       .dwtag  DW_TAG_subprogram
     579                      .dwattr $C$DW$101, DW_AT_name("FSM_init")
     580                      .dwattr $C$DW$101, DW_AT_TI_symbol_name("_FSM_init")
     581                      .dwattr $C$DW$101, DW_AT_type(*$C$DW$T$164)
     582                      .dwattr $C$DW$101, DW_AT_declaration
     583                      .dwattr $C$DW$101, DW_AT_external
     584              $C$DW$102       .dwtag  DW_TAG_formal_parameter
     585                      .dwattr $C$DW$102, DW_AT_type(*$C$DW$T$3)
     586              
     587              $C$DW$103       .dwtag  DW_TAG_formal_parameter
     588                      .dwattr $C$DW$103, DW_AT_type(*$C$DW$T$252)
     589              
     590                      .dwendtag $C$DW$101
TMS320C2000 Assembler PC v15.12.3 Wed Nov 22 01:55:16 2017

Tools Copyright (c) 1996-2015 Texas Instruments Incorporated
C:\Users\wmj\AppData\Local\Temp\1673210                              PAGE   12

     591              
     592              
     593              $C$DW$104       .dwtag  DW_TAG_subprogram
     594                      .dwattr $C$DW$104, DW_AT_name("USER_computeFlux_pu_to_Wb_sf")
     595                      .dwattr $C$DW$104, DW_AT_TI_symbol_name("_USER_computeFlux_pu_to_Wb_sf")
     596                      .dwattr $C$DW$104, DW_AT_type(*$C$DW$T$31)
     597                      .dwattr $C$DW$104, DW_AT_declaration
     598                      .dwattr $C$DW$104, DW_AT_external
     599              $C$DW$105       .dwtag  DW_TAG_formal_parameter
     600                      .dwattr $C$DW$105, DW_AT_type(*$C$DW$T$297)
     601              
     602                      .dwendtag $C$DW$104
     603              
     604              
     605              $C$DW$106       .dwtag  DW_TAG_subprogram
     606                      .dwattr $C$DW$106, DW_AT_name("FS_init")
     607                      .dwattr $C$DW$106, DW_AT_TI_symbol_name("_FS_init")
     608                      .dwattr $C$DW$106, DW_AT_type(*$C$DW$T$216)
     609                      .dwattr $C$DW$106, DW_AT_declaration
     610                      .dwattr $C$DW$106, DW_AT_external
     611              $C$DW$107       .dwtag  DW_TAG_formal_parameter
     612                      .dwattr $C$DW$107, DW_AT_type(*$C$DW$T$3)
     613              
     614              $C$DW$108       .dwtag  DW_TAG_formal_parameter
     615                      .dwattr $C$DW$108, DW_AT_type(*$C$DW$T$252)
     616              
     617                      .dwendtag $C$DW$106
     618              
     619              
     620              $C$DW$109       .dwtag  DW_TAG_subprogram
     621                      .dwattr $C$DW$109, DW_AT_name("EST_getRs_Ohm")
     622                      .dwattr $C$DW$109, DW_AT_TI_symbol_name("_EST_getRs_Ohm")
     623                      .dwattr $C$DW$109, DW_AT_type(*$C$DW$T$70)
     624                      .dwattr $C$DW$109, DW_AT_declaration
     625                      .dwattr $C$DW$109, DW_AT_external
     626              $C$DW$110       .dwtag  DW_TAG_formal_parameter
     627                      .dwattr $C$DW$110, DW_AT_type(*$C$DW$T$49)
     628              
     629                      .dwendtag $C$DW$109
     630              
     631              
     632              $C$DW$111       .dwtag  DW_TAG_subprogram
     633                      .dwattr $C$DW$111, DW_AT_name("EST_getSpeed_krpm")
     634                      .dwattr $C$DW$111, DW_AT_TI_symbol_name("_EST_getSpeed_krpm")
     635                      .dwattr $C$DW$111, DW_AT_type(*$C$DW$T$31)
     636                      .dwattr $C$DW$111, DW_AT_declaration
     637                      .dwattr $C$DW$111, DW_AT_external
     638              $C$DW$112       .dwtag  DW_TAG_formal_parameter
     639                      .dwattr $C$DW$112, DW_AT_type(*$C$DW$T$49)
     640              
     641                      .dwendtag $C$DW$111
     642              
     643              
     644              $C$DW$113       .dwtag  DW_TAG_subprogram
     645                      .dwattr $C$DW$113, DW_AT_name("EST_getRr_Ohm")
TMS320C2000 Assembler PC v15.12.3 Wed Nov 22 01:55:16 2017

Tools Copyright (c) 1996-2015 Texas Instruments Incorporated
C:\Users\wmj\AppData\Local\Temp\1673210                              PAGE   13

     646                      .dwattr $C$DW$113, DW_AT_TI_symbol_name("_EST_getRr_Ohm")
     647                      .dwattr $C$DW$113, DW_AT_type(*$C$DW$T$70)
     648                      .dwattr $C$DW$113, DW_AT_declaration
     649                      .dwattr $C$DW$113, DW_AT_external
     650              $C$DW$114       .dwtag  DW_TAG_formal_parameter
     651                      .dwattr $C$DW$114, DW_AT_type(*$C$DW$T$49)
     652              
     653                      .dwendtag $C$DW$113
     654              
     655              
     656              $C$DW$115       .dwtag  DW_TAG_subprogram
     657                      .dwattr $C$DW$115, DW_AT_name("USER_computeTorque_Flux_Iq_pu_to_Nm_sf")
     658                      .dwattr $C$DW$115, DW_AT_TI_symbol_name("_USER_computeTorque_Flux_Iq_pu_to_Nm_sf")
     659                      .dwattr $C$DW$115, DW_AT_type(*$C$DW$T$31)
     660                      .dwattr $C$DW$115, DW_AT_declaration
     661                      .dwattr $C$DW$115, DW_AT_external
     662              $C$DW$116       .dwtag  DW_TAG_formal_parameter
     663                      .dwattr $C$DW$116, DW_AT_type(*$C$DW$T$297)
     664              
     665                      .dwendtag $C$DW$115
     666              
     667              
     668              $C$DW$117       .dwtag  DW_TAG_subprogram
     669                      .dwattr $C$DW$117, DW_AT_name("USER_computeTorque_Ls_Id_Iq_pu_to_Nm_sf")
     670                      .dwattr $C$DW$117, DW_AT_TI_symbol_name("_USER_computeTorque_Ls_Id_Iq_pu_to_Nm_sf")
     671                      .dwattr $C$DW$117, DW_AT_type(*$C$DW$T$31)
     672                      .dwattr $C$DW$117, DW_AT_declaration
     673                      .dwattr $C$DW$117, DW_AT_external
     674              $C$DW$118       .dwtag  DW_TAG_formal_parameter
     675                      .dwattr $C$DW$118, DW_AT_type(*$C$DW$T$297)
     676              
     677                      .dwendtag $C$DW$117
     678              
     679                      .global _DE5_Board_Bias
     680 00000000               .sect   ".econst:_DE5_Board_Bias"
     681                      .clink
     682                      .align  2
     683 00000000       _DE5_Board_Bias:
     684 00000000 5417          .xfloat $strtod("0x1.f8a82ep-1")                ; _DE5_Board_Bias[0] @ 0
         00000001 3F7C 
     685 00000002 0CD9          .xfloat $strtod("0x1.f819b2p-1")                ; _DE5_Board_Bias[1] @ 32
         00000003 3F7C 
     686 00000004 7A20          .xfloat $strtod("0x1.f6f44p-1")         ; _DE5_Board_Bias[2] @ 64
         00000005 3F7B 
     687 00000006 4E1A          .xfloat $strtod("0x1.649c34p-2")                ; _DE5_Board_Bias[3] @ 96
         00000007 3EB2 
     688 00000008 663A          .xfloat $strtod("0x1.64cc74p-2")                ; _DE5_Board_Bias[4] @ 128
         00000009 3EB2 
     689 0000000a 6EA2          .xfloat $strtod("0x1.64dd44p-2")                ; _DE5_Board_Bias[5] @ 160
         0000000b 3EB2 
     690              
     691              $C$DW$119       .dwtag  DW_TAG_variable
     692                      .dwattr $C$DW$119, DW_AT_name("DE5_Board_Bias")
     693                      .dwattr $C$DW$119, DW_AT_TI_symbol_name("_DE5_Board_Bias")
     694                      .dwattr $C$DW$119, DW_AT_location[DW_OP_addr _DE5_Board_Bias]
TMS320C2000 Assembler PC v15.12.3 Wed Nov 22 01:55:16 2017

Tools Copyright (c) 1996-2015 Texas Instruments Incorporated
C:\Users\wmj\AppData\Local\Temp\1673210                              PAGE   14

     695                      .dwattr $C$DW$119, DW_AT_type(*$C$DW$T$402)
     696                      .dwattr $C$DW$119, DW_AT_external
     697              
     698              ;       C:\ti\ccsv6\tools\compiler\c2000_15.12.3.LTS\bin\opt2000.exe C:\\Users\\wmj\\AppData\\Local\\Temp\\16
     699              ;       C:\ti\ccsv6\tools\compiler\c2000_15.12.3.LTS\bin\ac2000.exe -@C:\\Users\\wmj\\AppData\\Local\\Temp\\1
     700 00000000               .sect   ".text"
     701                      .clink
     702                      .global _setFeLimitZero
     703              
     704              $C$DW$120       .dwtag  DW_TAG_subprogram
     705                      .dwattr $C$DW$120, DW_AT_name("setFeLimitZero")
     706                      .dwattr $C$DW$120, DW_AT_low_pc(_setFeLimitZero)
     707                      .dwattr $C$DW$120, DW_AT_high_pc(0x00)
     708                      .dwattr $C$DW$120, DW_AT_TI_symbol_name("_setFeLimitZero")
     709                      .dwattr $C$DW$120, DW_AT_external
     710                      .dwattr $C$DW$120, DW_AT_TI_begin_file("C:/Users/wmj/Desktop/BM1000_v1.1/sw/drivers/drvic/process_ctr
     711                      .dwattr $C$DW$120, DW_AT_TI_begin_line(0xc9)
     712                      .dwattr $C$DW$120, DW_AT_TI_begin_column(0x06)
     713                      .dwattr $C$DW$120, DW_AT_TI_max_frame_size(-6)
     714                      .dwpsn  file "C:/Users/wmj/Desktop/BM1000_v1.1/sw/drivers/drvic/process_ctrl.c",line 202,column 1,is_
     715              
     716                      .dwfde $C$DW$CIE, _setFeLimitZero
     717              $C$DW$121       .dwtag  DW_TAG_formal_parameter
     718                      .dwattr $C$DW$121, DW_AT_name("handle")
     719                      .dwattr $C$DW$121, DW_AT_TI_symbol_name("_handle")
     720                      .dwattr $C$DW$121, DW_AT_type(*$C$DW$T$211)
     721                      .dwattr $C$DW$121, DW_AT_location[DW_OP_reg12]
     722              
     723              
     724              ;***************************************************************
     725              ;* FNAME: _setFeLimitZero               FR SIZE:   4           *
     726              ;*                                                             *
     727              ;* FUNCTION ENVIRONMENT                                        *
     728              ;*                                                             *
     729              ;* FUNCTION PROPERTIES                                         *
     730              ;*                            0 Parameter,  0 Auto,  4 SOE     *
     731              ;***************************************************************
     732              
     733              _setFeLimitZero:
     734              ;* AR1   assigned to _fe_pos_min_pu
     735              $C$DW$122       .dwtag  DW_TAG_variable
     736                      .dwattr $C$DW$122, DW_AT_name("fe_pos_min_pu")
     737                      .dwattr $C$DW$122, DW_AT_TI_symbol_name("_fe_pos_min_pu")
     738                      .dwattr $C$DW$122, DW_AT_type(*$C$DW$T$31)
     739                      .dwattr $C$DW$122, DW_AT_location[DW_OP_reg6]
     740              
     741              ;* AR2   assigned to _handle
     742              $C$DW$123       .dwtag  DW_TAG_variable
     743                      .dwattr $C$DW$123, DW_AT_name("handle")
     744                      .dwattr $C$DW$123, DW_AT_TI_symbol_name("_handle")
     745                      .dwattr $C$DW$123, DW_AT_type(*$C$DW$T$249)
     746                      .dwattr $C$DW$123, DW_AT_location[DW_OP_reg8]
     747              
     748                      .dwcfi  cfa_offset, -2
     749                      .dwcfi  save_reg_to_mem, 26, 0
TMS320C2000 Assembler PC v15.12.3 Wed Nov 22 01:55:16 2017

Tools Copyright (c) 1996-2015 Texas Instruments Incorporated
C:\Users\wmj\AppData\Local\Temp\1673210                              PAGE   15

     750 00000000 B2BD          MOVL      *SP++,XAR1            ; [CPU_] 
     751                      .dwcfi  save_reg_to_mem, 7, 2
     752                      .dwcfi  cfa_offset, -4
     753 00000001 AABD          MOVL      *SP++,XAR2            ; [CPU_] 
     754                      .dwcfi  save_reg_to_mem, 9, 4
     755                      .dwcfi  cfa_offset, -6
     756 00000002 86A4          MOVL      XAR2,XAR4             ; [CPU_] |202| 
     757                      .dwpsn  file "C:/Users/wmj/Desktop/BM1000_v1.1/sw/drivers/drvic/process_ctrl.c",line 204,column 24,is
     758 00000003 D018          MOVB      XAR0,#24              ; [CPU_] |204| 
     759 00000004 8A92          MOVL      XAR4,*+XAR2[AR0]      ; [CPU_] |204| 
     760              $C$DW$124       .dwtag  DW_TAG_TI_branch
     761                      .dwattr $C$DW$124, DW_AT_low_pc(0x00)
     762                      .dwattr $C$DW$124, DW_AT_name("_EST_getState")
     763                      .dwattr $C$DW$124, DW_AT_TI_call
     764              
     765 00000005 7640!         LCR       #_EST_getState        ; [CPU_] |204| 
         00000006 0000 
     766                      ; call occurs [#_EST_getState] ; [] |204| 
     767                      .dwpsn  file "C:/Users/wmj/Desktop/BM1000_v1.1/sw/drivers/drvic/process_ctrl.c",line 209,column 3,is_
     768 00000007 D018          MOVB      XAR0,#24              ; [CPU_] |209| 
     769 00000008 8A92          MOVL      XAR4,*+XAR2[AR0]      ; [CPU_] |209| 
     770              $C$DW$125       .dwtag  DW_TAG_TI_branch
     771                      .dwattr $C$DW$125, DW_AT_low_pc(0x00)
     772                      .dwattr $C$DW$125, DW_AT_name("_EST_isMotorIdentified")
     773                      .dwattr $C$DW$125, DW_AT_TI_call
     774              
     775 00000009 7640!         LCR       #_EST_isMotorIdentified ; [CPU_] |209| 
         0000000a 0000 
     776                      ; call occurs [#_EST_isMotorIdentified] ; [] |209| 
     777 0000000b 5200          CMPB      AL,#0                 ; [CPU_] |209| 
     778 0000000c 6007          B         $C$L1,NEQ             ; [CPU_] |209| 
     779                      ; branchcc occurs ; [] |209| 
     780 0000000d D084          MOVB      XAR0,#132             ; [CPU_] |209| 
     781 0000000e 9292          MOV       AL,*+XAR2[AR0]        ; [CPU_] |209| 
     782 0000000f 6004          B         $C$L1,NEQ             ; [CPU_] |209| 
     783                      ; branchcc occurs ; [] |209| 
     784                      .dwpsn  file "C:/Users/wmj/Desktop/BM1000_v1.1/sw/drivers/drvic/process_ctrl.c",line 211,column 4,is_
     785 00000010 0200          MOVB      ACC,#0                ; [CPU_] |211| 
     786                      .dwpsn  file "C:/Users/wmj/Desktop/BM1000_v1.1/sw/drivers/drvic/process_ctrl.c",line 213,column 4,is_
     787 00000011 D100          MOVB      XAR1,#0               ; [CPU_] |213| 
     788                      .dwpsn  file "C:/Users/wmj/Desktop/BM1000_v1.1/sw/drivers/drvic/process_ctrl.c",line 214,column 5,is_
     789 00000012 6F0A          B         $C$L2,UNC             ; [CPU_] |214| 
     790                      ; branch occurs ; [] |214| 
     791 00000013       $C$L1:    
     792                      .dwpsn  file "C:/Users/wmj/Desktop/BM1000_v1.1/sw/drivers/drvic/process_ctrl.c",line 219,column 4,is_
     793 00000013 28AB          MOV       PL,#60293             ; [CPU_] |219| 
         00000014 EB85 
     794 00000015 28AA          MOV       PH,#81                ; [CPU_] |219| 
         00000016 0051 
     795                      .dwpsn  file "C:/Users/wmj/Desktop/BM1000_v1.1/sw/drivers/drvic/process_ctrl.c",line 217,column 4,is_
     796 00000017 28A9          MOV       AL,#5243              ; [CPU_] |217| 
         00000018 147B 
     797 00000019 28A8          MOV       AH,#65454             ; [CPU_] |217| 
         0000001a FFAE 
     798                      .dwpsn  file "C:/Users/wmj/Desktop/BM1000_v1.1/sw/drivers/drvic/process_ctrl.c",line 219,column 4,is_
TMS320C2000 Assembler PC v15.12.3 Wed Nov 22 01:55:16 2017

Tools Copyright (c) 1996-2015 Texas Instruments Incorporated
C:\Users\wmj\AppData\Local\Temp\1673210                              PAGE   16

     799 0000001b A9A1          MOVL      XAR1,P                ; [CPU_] |219| 
     800 0000001c       $C$L2:    
     801                      .dwpsn  file "C:/Users/wmj/Desktop/BM1000_v1.1/sw/drivers/drvic/process_ctrl.c",line 222,column 3,is_
     802 0000001c D018          MOVB      XAR0,#24              ; [CPU_] |222| 
     803 0000001d 8A92          MOVL      XAR4,*+XAR2[AR0]      ; [CPU_] |222| 
     804              $C$DW$126       .dwtag  DW_TAG_TI_branch
     805                      .dwattr $C$DW$126, DW_AT_low_pc(0x00)
     806                      .dwattr $C$DW$126, DW_AT_name("_EST_setFe_neg_max_pu")
     807                      .dwattr $C$DW$126, DW_AT_TI_call
     808              
     809 0000001e 7640!         LCR       #_EST_setFe_neg_max_pu ; [CPU_] |222| 
         0000001f 0000 
     810                      ; call occurs [#_EST_setFe_neg_max_pu] ; [] |222| 
     811                      .dwpsn  file "C:/Users/wmj/Desktop/BM1000_v1.1/sw/drivers/drvic/process_ctrl.c",line 224,column 3,is_
     812 00000020 D018          MOVB      XAR0,#24              ; [CPU_] |224| 
     813 00000021 B2A9          MOVL      ACC,XAR1              ; [CPU_] |224| 
     814 00000022 8A92          MOVL      XAR4,*+XAR2[AR0]      ; [CPU_] |224| 
     815              $C$DW$127       .dwtag  DW_TAG_TI_branch
     816                      .dwattr $C$DW$127, DW_AT_low_pc(0x00)
     817                      .dwattr $C$DW$127, DW_AT_name("_EST_setFe_pos_min_pu")
     818                      .dwattr $C$DW$127, DW_AT_TI_call
     819              
     820 00000023 7640!         LCR       #_EST_setFe_pos_min_pu ; [CPU_] |224| 
         00000024 0000 
     821                      ; call occurs [#_EST_setFe_pos_min_pu] ; [] |224| 
     822 00000025 86BE          MOVL      XAR2,*--SP            ; [CPU_] 
     823                      .dwcfi  cfa_offset, -4
     824                      .dwcfi  restore_reg, 9
     825 00000026 8BBE          MOVL      XAR1,*--SP            ; [CPU_] 
     826                      .dwcfi  cfa_offset, -2
     827                      .dwcfi  restore_reg, 7
     828              $C$DW$128       .dwtag  DW_TAG_TI_branch
     829                      .dwattr $C$DW$128, DW_AT_low_pc(0x00)
     830                      .dwattr $C$DW$128, DW_AT_TI_return
     831              
     832 00000027 0006          LRETR     ; [CPU_] 
     833                      ; return occurs ; [] 
     834                      .dwattr $C$DW$120, DW_AT_TI_end_file("C:/Users/wmj/Desktop/BM1000_v1.1/sw/drivers/drvic/process_ctrl.
     835                      .dwattr $C$DW$120, DW_AT_TI_end_line(0xe3)
     836                      .dwattr $C$DW$120, DW_AT_TI_end_column(0x01)
     837                      .dwendentry
     838                      .dwendtag $C$DW$120
     839              
     840 00000028               .sect   ".text"
     841                      .clink
     842                      .global _recalcKpKi
     843              
     844              $C$DW$129       .dwtag  DW_TAG_subprogram
     845                      .dwattr $C$DW$129, DW_AT_name("recalcKpKi")
     846                      .dwattr $C$DW$129, DW_AT_low_pc(_recalcKpKi)
     847                      .dwattr $C$DW$129, DW_AT_high_pc(0x00)
     848                      .dwattr $C$DW$129, DW_AT_TI_symbol_name("_recalcKpKi")
     849                      .dwattr $C$DW$129, DW_AT_external
     850                      .dwattr $C$DW$129, DW_AT_TI_begin_file("C:/Users/wmj/Desktop/BM1000_v1.1/sw/drivers/drvic/process_ctr
     851                      .dwattr $C$DW$129, DW_AT_TI_begin_line(0xa8)
TMS320C2000 Assembler PC v15.12.3 Wed Nov 22 01:55:16 2017

Tools Copyright (c) 1996-2015 Texas Instruments Incorporated
C:\Users\wmj\AppData\Local\Temp\1673210                              PAGE   17

     852                      .dwattr $C$DW$129, DW_AT_TI_begin_column(0x06)
     853                      .dwattr $C$DW$129, DW_AT_TI_max_frame_size(-20)
     854                      .dwpsn  file "C:/Users/wmj/Desktop/BM1000_v1.1/sw/drivers/drvic/process_ctrl.c",line 169,column 1,is_
     855              
     856                      .dwfde $C$DW$CIE, _recalcKpKi
     857              $C$DW$130       .dwtag  DW_TAG_formal_parameter
     858                      .dwattr $C$DW$130, DW_AT_name("handle")
     859                      .dwattr $C$DW$130, DW_AT_TI_symbol_name("_handle")
     860                      .dwattr $C$DW$130, DW_AT_type(*$C$DW$T$211)
     861                      .dwattr $C$DW$130, DW_AT_location[DW_OP_reg12]
     862              
     863              $C$DW$131       .dwtag  DW_TAG_formal_parameter
     864                      .dwattr $C$DW$131, DW_AT_name("pUserParams")
     865                      .dwattr $C$DW$131, DW_AT_TI_symbol_name("_pUserParams")
     866                      .dwattr $C$DW$131, DW_AT_type(*$C$DW$T$297)
     867                      .dwattr $C$DW$131, DW_AT_location[DW_OP_reg14]
     868              
     869              
     870              ;***************************************************************
     871              ;* FNAME: _recalcKpKi                   FR SIZE:  18           *
     872              ;*                                                             *
     873              ;* FUNCTION ENVIRONMENT                                        *
     874              ;*                                                             *
     875              ;* FUNCTION PROPERTIES                                         *
     876              ;*                            2 Parameter, 10 Auto,  6 SOE     *
     877              ;***************************************************************
     878              
     879              _recalcKpKi:
     880              ;* AR1   assigned to $O$C1
     881              ;* AR1   assigned to $O$C2
     882              ;* AR2   assigned to _handle
     883              $C$DW$132       .dwtag  DW_TAG_variable
     884                      .dwattr $C$DW$132, DW_AT_name("handle")
     885                      .dwattr $C$DW$132, DW_AT_TI_symbol_name("_handle")
     886                      .dwattr $C$DW$132, DW_AT_type(*$C$DW$T$249)
     887                      .dwattr $C$DW$132, DW_AT_location[DW_OP_reg8]
     888              
     889              ;* AR3   assigned to _pUserParams
     890              $C$DW$133       .dwtag  DW_TAG_variable
     891                      .dwattr $C$DW$133, DW_AT_name("pUserParams")
     892                      .dwattr $C$DW$133, DW_AT_TI_symbol_name("_pUserParams")
     893                      .dwattr $C$DW$133, DW_AT_type(*$C$DW$T$298)
     894                      .dwattr $C$DW$133, DW_AT_location[DW_OP_reg10]
     895              
     896              ;* AR1   assigned to _EstState
     897              $C$DW$134       .dwtag  DW_TAG_variable
     898                      .dwattr $C$DW$134, DW_AT_name("EstState")
     899                      .dwattr $C$DW$134, DW_AT_TI_symbol_name("_EstState")
     900                      .dwattr $C$DW$134, DW_AT_type(*$C$DW$T$183)
     901                      .dwattr $C$DW$134, DW_AT_location[DW_OP_reg6]
     902              
     903              ;* AR3   assigned to _Kp
     904              $C$DW$135       .dwtag  DW_TAG_variable
     905                      .dwattr $C$DW$135, DW_AT_name("Kp")
     906                      .dwattr $C$DW$135, DW_AT_TI_symbol_name("_Kp")
TMS320C2000 Assembler PC v15.12.3 Wed Nov 22 01:55:16 2017

Tools Copyright (c) 1996-2015 Texas Instruments Incorporated
C:\Users\wmj\AppData\Local\Temp\1673210                              PAGE   18

     907                      .dwattr $C$DW$135, DW_AT_type(*$C$DW$T$31)
     908                      .dwattr $C$DW$135, DW_AT_location[DW_OP_reg10]
     909              
     910              ;* AL    assigned to _Ki
     911              $C$DW$136       .dwtag  DW_TAG_variable
     912                      .dwattr $C$DW$136, DW_AT_name("Ki")
     913                      .dwattr $C$DW$136, DW_AT_TI_symbol_name("_Ki")
     914                      .dwattr $C$DW$136, DW_AT_type(*$C$DW$T$31)
     915                      .dwattr $C$DW$136, DW_AT_location[DW_OP_reg0]
     916              
     917                      .dwcfi  cfa_offset, -2
     918                      .dwcfi  save_reg_to_mem, 26, 0
     919 00000028 B2BD          MOVL      *SP++,XAR1            ; [CPU_] 
     920                      .dwcfi  save_reg_to_mem, 7, 2
     921                      .dwcfi  cfa_offset, -4
     922 00000029 AABD          MOVL      *SP++,XAR2            ; [CPU_] 
     923                      .dwcfi  save_reg_to_mem, 9, 4
     924                      .dwcfi  cfa_offset, -6
     925 0000002a A2BD          MOVL      *SP++,XAR3            ; [CPU_] 
     926                      .dwcfi  save_reg_to_mem, 11, 6
     927                      .dwcfi  cfa_offset, -8
     928 0000002b FE0C          ADDB      SP,#12                ; [CPU_U] 
     929                      .dwcfi  cfa_offset, -20
     930 0000002c 86A4          MOVL      XAR2,XAR4             ; [CPU_] |169| 
     931                      .dwpsn  file "C:/Users/wmj/Desktop/BM1000_v1.1/sw/drivers/drvic/process_ctrl.c",line 171,column 24,is
     932 0000002d D018          MOVB      XAR0,#24              ; [CPU_] |171| 
     933                      .dwpsn  file "C:/Users/wmj/Desktop/BM1000_v1.1/sw/drivers/drvic/process_ctrl.c",line 169,column 1,is_
     934 0000002e 82A5          MOVL      XAR3,XAR5             ; [CPU_] |169| 
     935                      .dwpsn  file "C:/Users/wmj/Desktop/BM1000_v1.1/sw/drivers/drvic/process_ctrl.c",line 171,column 24,is
     936 0000002f 8A92          MOVL      XAR4,*+XAR2[AR0]      ; [CPU_] |171| 
     937              $C$DW$137       .dwtag  DW_TAG_TI_branch
     938                      .dwattr $C$DW$137, DW_AT_low_pc(0x00)
     939                      .dwattr $C$DW$137, DW_AT_name("_EST_getState")
     940                      .dwattr $C$DW$137, DW_AT_TI_call
     941              
     942 00000030 7640!         LCR       #_EST_getState        ; [CPU_] |171| 
         00000031 0000 
     943                      ; call occurs [#_EST_getState] ; [] |171| 
     944                      .dwpsn  file "C:/Users/wmj/Desktop/BM1000_v1.1/sw/drivers/drvic/process_ctrl.c",line 173,column 3,is_
     945 00000032 D018          MOVB      XAR0,#24              ; [CPU_] |173| 
     946                      .dwpsn  file "C:/Users/wmj/Desktop/BM1000_v1.1/sw/drivers/drvic/process_ctrl.c",line 171,column 24,is
     947 00000033 59A9          MOVZ      AR1,AL                ; [CPU_] |171| 
     948                      .dwpsn  file "C:/Users/wmj/Desktop/BM1000_v1.1/sw/drivers/drvic/process_ctrl.c",line 173,column 3,is_
     949 00000034 8A92          MOVL      XAR4,*+XAR2[AR0]      ; [CPU_] |173| 
     950              $C$DW$138       .dwtag  DW_TAG_TI_branch
     951                      .dwattr $C$DW$138, DW_AT_low_pc(0x00)
     952                      .dwattr $C$DW$138, DW_AT_name("_EST_isMotorIdentified")
     953                      .dwattr $C$DW$138, DW_AT_TI_call
     954              
     955 00000035 7640!         LCR       #_EST_isMotorIdentified ; [CPU_] |173| 
         00000036 0000 
     956                      ; call occurs [#_EST_isMotorIdentified] ; [] |173| 
     957 00000037 5200          CMPB      AL,#0                 ; [CPU_] |173| 
     958 00000038 6064          B         $C$L3,NEQ             ; [CPU_] |173| 
     959                      ; branchcc occurs ; [] |173| 
TMS320C2000 Assembler PC v15.12.3 Wed Nov 22 01:55:16 2017

Tools Copyright (c) 1996-2015 Texas Instruments Incorporated
C:\Users\wmj\AppData\Local\Temp\1673210                              PAGE   19

     960 00000039 92A1          MOV       AL,AR1                ; [CPU_] 
     961 0000003a 5203          CMPB      AL,#3                 ; [CPU_] |173| 
     962 0000003b 6061          B         $C$L3,NEQ             ; [CPU_] |173| 
     963                      ; branchcc occurs ; [] |173| 
     964                      .dwpsn  file "C:/Users/wmj/Desktop/BM1000_v1.1/sw/drivers/drvic/process_ctrl.c",line 178,column 14,is
     965 0000003c D0C6          MOVB      XAR0,#198             ; [CPU_] |178| 
     966 0000003d 8B92          MOVL      XAR1,*+XAR2[AR0]      ; [CPU_] |178| 
     967 0000003e FF2F          MOV       ACC,#32000 << 15      ; [CPU_] |178| 
         0000003f 7D00 
     968 00000040 1E42          MOVL      *-SP[2],ACC           ; [CPU_] |178| 
     969 00000041 B2A9          MOVL      ACC,XAR1              ; [CPU_] |178| 
     970              $C$DW$139       .dwtag  DW_TAG_TI_branch
     971                      .dwattr $C$DW$139, DW_AT_low_pc(0x00)
     972                      .dwattr $C$DW$139, DW_AT_name("FS$$MPY")
     973                      .dwattr $C$DW$139, DW_AT_TI_call
     974              
     975 00000042 7640!         LCR       #FS$$MPY              ; [CPU_] |178| 
         00000043 0000 
     976                      ; call occurs [#FS$$MPY] ; [] |178| 
     977 00000044 C4C3          MOVL      XAR6,*+XAR3[0]        ; [CPU_] |178| 
     978 00000045 C242          MOVL      *-SP[2],XAR6          ; [CPU_] |178| 
     979              $C$DW$140       .dwtag  DW_TAG_TI_branch
     980                      .dwattr $C$DW$140, DW_AT_low_pc(0x00)
     981                      .dwattr $C$DW$140, DW_AT_name("FS$$MPY")
     982                      .dwattr $C$DW$140, DW_AT_TI_call
     983              
     984 00000046 7640!         LCR       #FS$$MPY              ; [CPU_] |178| 
         00000047 0000 
     985                      ; call occurs [#FS$$MPY] ; [] |178| 
     986 00000048 1E4C          MOVL      *-SP[12],ACC          ; [CPU_] |178| 
     987 00000049 28A9          MOV       AL,#46871             ; [CPU_] |178| 
         0000004a B717 
     988 0000004b 28A8          MOV       AH,#14673             ; [CPU_] |178| 
         0000004c 3951 
     989 0000004d 1E42          MOVL      *-SP[2],ACC           ; [CPU_] |178| 
     990 0000004e 06D3          MOVL      ACC,*+XAR3[2]         ; [CPU_] |178| 
     991              $C$DW$141       .dwtag  DW_TAG_TI_branch
     992                      .dwattr $C$DW$141, DW_AT_low_pc(0x00)
     993                      .dwattr $C$DW$141, DW_AT_name("FS$$MPY")
     994                      .dwattr $C$DW$141, DW_AT_TI_call
     995              
     996 0000004f 7640!         LCR       #FS$$MPY              ; [CPU_] |178| 
         00000050 0000 
     997                      ; call occurs [#FS$$MPY] ; [] |178| 
     998 00000051 1E42          MOVL      *-SP[2],ACC           ; [CPU_] |178| 
     999 00000052 064C          MOVL      ACC,*-SP[12]          ; [CPU_] |178| 
    1000              $C$DW$142       .dwtag  DW_TAG_TI_branch
    1001                      .dwattr $C$DW$142, DW_AT_low_pc(0x00)
    1002                      .dwattr $C$DW$142, DW_AT_name("FS$$DIV")
    1003                      .dwattr $C$DW$142, DW_AT_TI_call
    1004              
    1005 00000053 7640!         LCR       #FS$$DIV              ; [CPU_] |178| 
         00000054 0000 
    1006                      ; call occurs [#FS$$DIV] ; [] |178| 
    1007 00000055 5CAD          MOVZ      AR4,SP                ; [CPU_] |178| 
TMS320C2000 Assembler PC v15.12.3 Wed Nov 22 01:55:16 2017

Tools Copyright (c) 1996-2015 Texas Instruments Incorporated
C:\Users\wmj\AppData\Local\Temp\1673210                              PAGE   20

    1008 00000056 DC8A          SUBB      XAR4,#10              ; [CPU_U] |178| 
    1009 00000057 88A4          MOVZ      AR6,AR4               ; [CPU_] |178| 
    1010              $C$DW$143       .dwtag  DW_TAG_TI_branch
    1011                      .dwattr $C$DW$143, DW_AT_low_pc(0x00)
    1012                      .dwattr $C$DW$143, DW_AT_name("FS$$TOFD")
    1013                      .dwattr $C$DW$143, DW_AT_TI_call
    1014              
    1015 00000058 7640!         LCR       #FS$$TOFD             ; [CPU_] |178| 
         00000059 0000 
    1016                      ; call occurs [#FS$$TOFD] ; [] |178| 
    1017 0000005a 5DAD          MOVZ      AR5,SP                ; [CPU_] |178| 
    1018 0000005b 5CAD          MOVZ      AR4,SP                ; [CPU_] |178| 
    1019 0000005c DD86          SUBB      XAR5,#6               ; [CPU_U] |178| 
    1020 0000005d DC8A          SUBB      XAR4,#10              ; [CPU_U] |178| 
    1021 0000005e 88A5          MOVZ      AR6,AR5               ; [CPU_] |178| 
    1022 0000005f 5CA4          MOVZ      AR4,AR4               ; [CPU_] |178| 
    1023 00000060 8F40+         MOVL      XAR5,#$C$FL1          ; [CPU_U] |178| 
         00000061 0000 
    1024              $C$DW$144       .dwtag  DW_TAG_TI_branch
    1025                      .dwattr $C$DW$144, DW_AT_low_pc(0x00)
    1026                      .dwattr $C$DW$144, DW_AT_name("FD$$MPY")
    1027                      .dwattr $C$DW$144, DW_AT_TI_call
    1028              
    1029 00000062 7640!         LCR       #FD$$MPY              ; [CPU_] |178| 
         00000063 0000 
    1030                      ; call occurs [#FD$$MPY] ; [] |178| 
    1031 00000064 5CAD          MOVZ      AR4,SP                ; [CPU_] |178| 
    1032 00000065 DC86          SUBB      XAR4,#6               ; [CPU_U] |178| 
    1033 00000066 5CA4          MOVZ      AR4,AR4               ; [CPU_] |178| 
    1034              $C$DW$145       .dwtag  DW_TAG_TI_branch
    1035                      .dwattr $C$DW$145, DW_AT_low_pc(0x00)
    1036                      .dwattr $C$DW$145, DW_AT_name("FD$$TOL")
    1037                      .dwattr $C$DW$145, DW_AT_TI_call
    1038              
    1039 00000067 7640!         LCR       #FD$$TOL              ; [CPU_] |178| 
         00000068 0000 
    1040                      ; call occurs [#FD$$TOL] ; [] |178| 
    1041                      .dwpsn  file "C:/Users/wmj/Desktop/BM1000_v1.1/sw/drivers/drvic/process_ctrl.c",line 179,column 14,is
    1042 00000069 B242          MOVL      *-SP[2],XAR1          ; [CPU_] |179| 
    1043 0000006a D0C4          MOVB      XAR0,#196             ; [CPU_] |179| 
    1044                      .dwpsn  file "C:/Users/wmj/Desktop/BM1000_v1.1/sw/drivers/drvic/process_ctrl.c",line 178,column 14,is
    1045 0000006b 82A9          MOVL      XAR3,ACC              ; [CPU_] |178| 
    1046                      .dwpsn  file "C:/Users/wmj/Desktop/BM1000_v1.1/sw/drivers/drvic/process_ctrl.c",line 179,column 14,is
    1047 0000006c 0692          MOVL      ACC,*+XAR2[AR0]       ; [CPU_] |179| 
    1048              $C$DW$146       .dwtag  DW_TAG_TI_branch
    1049                      .dwattr $C$DW$146, DW_AT_low_pc(0x00)
    1050                      .dwattr $C$DW$146, DW_AT_name("FS$$DIV")
    1051                      .dwattr $C$DW$146, DW_AT_TI_call
    1052              
    1053 0000006d 7640!         LCR       #FS$$DIV              ; [CPU_] |179| 
         0000006e 0000 
    1054                      ; call occurs [#FS$$DIV] ; [] |179| 
    1055 0000006f 8BA9          MOVL      XAR1,ACC              ; [CPU_] |179| 
    1056 00000070 28A9          MOV       AL,#46871             ; [CPU_] |179| 
         00000071 B717 
TMS320C2000 Assembler PC v15.12.3 Wed Nov 22 01:55:16 2017

Tools Copyright (c) 1996-2015 Texas Instruments Incorporated
C:\Users\wmj\AppData\Local\Temp\1673210                              PAGE   21

    1057 00000072 28A8          MOV       AH,#14673             ; [CPU_] |179| 
         00000073 3951 
    1058 00000074 1E42          MOVL      *-SP[2],ACC           ; [CPU_] |179| 
    1059 00000075 B2A9          MOVL      ACC,XAR1              ; [CPU_] |179| 
    1060              $C$DW$147       .dwtag  DW_TAG_TI_branch
    1061                      .dwattr $C$DW$147, DW_AT_low_pc(0x00)
    1062                      .dwattr $C$DW$147, DW_AT_name("FS$$MPY")
    1063                      .dwattr $C$DW$147, DW_AT_TI_call
    1064              
    1065 00000076 7640!         LCR       #FS$$MPY              ; [CPU_] |179| 
         00000077 0000 
    1066                      ; call occurs [#FS$$MPY] ; [] |179| 
    1067 00000078 5CAD          MOVZ      AR4,SP                ; [CPU_] |179| 
    1068 00000079 DC8A          SUBB      XAR4,#10              ; [CPU_U] |179| 
    1069 0000007a 88A4          MOVZ      AR6,AR4               ; [CPU_] |179| 
    1070              $C$DW$148       .dwtag  DW_TAG_TI_branch
    1071                      .dwattr $C$DW$148, DW_AT_low_pc(0x00)
    1072                      .dwattr $C$DW$148, DW_AT_name("FS$$TOFD")
    1073                      .dwattr $C$DW$148, DW_AT_TI_call
    1074              
    1075 0000007b 7640!         LCR       #FS$$TOFD             ; [CPU_] |179| 
         0000007c 0000 
    1076                      ; call occurs [#FS$$TOFD] ; [] |179| 
    1077 0000007d 5DAD          MOVZ      AR5,SP                ; [CPU_] |179| 
    1078 0000007e 5CAD          MOVZ      AR4,SP                ; [CPU_] |179| 
    1079 0000007f DD86          SUBB      XAR5,#6               ; [CPU_U] |179| 
    1080 00000080 DC8A          SUBB      XAR4,#10              ; [CPU_U] |179| 
    1081 00000081 88A5          MOVZ      AR6,AR5               ; [CPU_] |179| 
    1082 00000082 5CA4          MOVZ      AR4,AR4               ; [CPU_] |179| 
    1083 00000083 8F40+         MOVL      XAR5,#$C$FL1          ; [CPU_U] |179| 
         00000084 0000 
    1084              $C$DW$149       .dwtag  DW_TAG_TI_branch
    1085                      .dwattr $C$DW$149, DW_AT_low_pc(0x00)
    1086                      .dwattr $C$DW$149, DW_AT_name("FD$$MPY")
    1087                      .dwattr $C$DW$149, DW_AT_TI_call
    1088              
    1089 00000085 7640!         LCR       #FD$$MPY              ; [CPU_] |179| 
         00000086 0000 
    1090                      ; call occurs [#FD$$MPY] ; [] |179| 
    1091 00000087 5CAD          MOVZ      AR4,SP                ; [CPU_] |179| 
    1092 00000088 DC86          SUBB      XAR4,#6               ; [CPU_U] |179| 
    1093 00000089 5CA4          MOVZ      AR4,AR4               ; [CPU_] |179| 
    1094              $C$DW$150       .dwtag  DW_TAG_TI_branch
    1095                      .dwattr $C$DW$150, DW_AT_low_pc(0x00)
    1096                      .dwattr $C$DW$150, DW_AT_name("FD$$TOL")
    1097                      .dwattr $C$DW$150, DW_AT_TI_call
    1098              
    1099 0000008a 7640!         LCR       #FD$$TOL              ; [CPU_] |179| 
         0000008b 0000 
    1100                      ; call occurs [#FD$$TOL] ; [] |179| 
    1101                      .dwpsn  file "C:/Users/wmj/Desktop/BM1000_v1.1/sw/modules/ctrl/src/32b/ctrl.h",line 1752,column 3,is_
    1102 0000008c D0C8          MOVB      XAR0,#200             ; [CPU_] |1752| 
    1103 0000008d B292          MOVL      *+XAR2[AR0],XAR1      ; [CPU_] |1752| 
    1104                      .dwpsn  file "C:/Users/wmj/Desktop/BM1000_v1.1/sw/modules/ctrl/src/32b/ctrl.h",line 1546,column 7,is_
    1105 0000008e D0CA          MOVB      XAR0,#202             ; [CPU_] |1546| 
TMS320C2000 Assembler PC v15.12.3 Wed Nov 22 01:55:16 2017

Tools Copyright (c) 1996-2015 Texas Instruments Incorporated
C:\Users\wmj\AppData\Local\Temp\1673210                              PAGE   22

    1106 0000008f A292          MOVL      *+XAR2[AR0],XAR3      ; [CPU_] |1546| 
    1107                      .dwpsn  file "C:/Users/wmj/Desktop/BM1000_v1.1/sw/modules/ctrl/src/32b/ctrl.h",line 1550,column 7,is_
    1108 00000090 D0CC          MOVB      XAR0,#204             ; [CPU_] |1550| 
    1109 00000091 A292          MOVL      *+XAR2[AR0],XAR3      ; [CPU_] |1550| 
    1110                      .dwpsn  file "C:/Users/wmj/Desktop/BM1000_v1.1/sw/modules/ctrl/src/32b/ctrl.h",line 1521,column 7,is_
    1111 00000092 D0D0          MOVB      XAR0,#208             ; [CPU_] |1521| 
    1112 00000093 1E92          MOVL      *+XAR2[AR0],ACC       ; [CPU_] |1521| 
    1113                      .dwpsn  file "C:/Users/wmj/Desktop/BM1000_v1.1/sw/modules/pid/src/32b/pid.h",line 333,column 3,is_stm
    1114 00000094 D020          MOVB      XAR0,#32              ; [CPU_] |333| 
    1115 00000095 8A92          MOVL      XAR4,*+XAR2[AR0]      ; [CPU_] |333| 
    1116                      .dwpsn  file "C:/Users/wmj/Desktop/BM1000_v1.1/sw/modules/ctrl/src/32b/ctrl.h",line 1525,column 7,is_
    1117 00000096 D0D2          MOVB      XAR0,#210             ; [CPU_] |1525| 
    1118                      .dwpsn  file "C:/Users/wmj/Desktop/BM1000_v1.1/sw/modules/pid/src/32b/pid.h",line 333,column 3,is_stm
    1119 00000097 1ED4          MOVL      *+XAR4[2],ACC         ; [CPU_] |333| 
    1120                      .dwpsn  file "C:/Users/wmj/Desktop/BM1000_v1.1/sw/modules/ctrl/src/32b/ctrl.h",line 1525,column 7,is_
    1121 00000098 1E92          MOVL      *+XAR2[AR0],ACC       ; [CPU_] |1525| 
    1122                      .dwpsn  file "C:/Users/wmj/Desktop/BM1000_v1.1/sw/modules/pid/src/32b/pid.h",line 333,column 3,is_stm
    1123 00000099 D032          MOVB      XAR0,#50              ; [CPU_] |333| 
    1124 0000009a 8A92          MOVL      XAR4,*+XAR2[AR0]      ; [CPU_] |333| 
    1125 0000009b 1ED4          MOVL      *+XAR4[2],ACC         ; [CPU_] |333| 
    1126 0000009c       $C$L3:    
    1127 0000009c FE8C          SUBB      SP,#12                ; [CPU_U] 
    1128                      .dwcfi  cfa_offset, -8
    1129 0000009d 82BE          MOVL      XAR3,*--SP            ; [CPU_] 
    1130                      .dwcfi  cfa_offset, -6
    1131                      .dwcfi  restore_reg, 11
    1132 0000009e 86BE          MOVL      XAR2,*--SP            ; [CPU_] 
    1133                      .dwcfi  cfa_offset, -4
    1134                      .dwcfi  restore_reg, 9
    1135 0000009f 8BBE          MOVL      XAR1,*--SP            ; [CPU_] 
    1136                      .dwcfi  cfa_offset, -2
    1137                      .dwcfi  restore_reg, 7
    1138              $C$DW$151       .dwtag  DW_TAG_TI_branch
    1139                      .dwattr $C$DW$151, DW_AT_low_pc(0x00)
    1140                      .dwattr $C$DW$151, DW_AT_TI_return
    1141              
    1142 000000a0 0006          LRETR     ; [CPU_] 
    1143                      ; return occurs ; [] 
    1144                      .dwattr $C$DW$129, DW_AT_TI_end_file("C:/Users/wmj/Desktop/BM1000_v1.1/sw/drivers/drvic/process_ctrl.
    1145                      .dwattr $C$DW$129, DW_AT_TI_end_line(0xc6)
    1146                      .dwattr $C$DW$129, DW_AT_TI_end_column(0x01)
    1147                      .dwendentry
    1148                      .dwendtag $C$DW$129
    1149              
    1150 000000a1               .sect   ".text"
    1151                      .clink
    1152                      .global _motor_StopCtrl
    1153              
    1154              $C$DW$152       .dwtag  DW_TAG_subprogram
    1155                      .dwattr $C$DW$152, DW_AT_name("motor_StopCtrl")
    1156                      .dwattr $C$DW$152, DW_AT_low_pc(_motor_StopCtrl)
    1157                      .dwattr $C$DW$152, DW_AT_high_pc(0x00)
    1158                      .dwattr $C$DW$152, DW_AT_TI_symbol_name("_motor_StopCtrl")
    1159                      .dwattr $C$DW$152, DW_AT_external
    1160                      .dwattr $C$DW$152, DW_AT_TI_begin_file("C:/Users/wmj/Desktop/BM1000_v1.1/sw/drivers/drvic/process_ctr
TMS320C2000 Assembler PC v15.12.3 Wed Nov 22 01:55:16 2017

Tools Copyright (c) 1996-2015 Texas Instruments Incorporated
C:\Users\wmj\AppData\Local\Temp\1673210                              PAGE   23

    1161                      .dwattr $C$DW$152, DW_AT_TI_begin_line(0x14e)
    1162                      .dwattr $C$DW$152, DW_AT_TI_begin_column(0x06)
    1163                      .dwattr $C$DW$152, DW_AT_TI_max_frame_size(-2)
    1164                      .dwpsn  file "C:/Users/wmj/Desktop/BM1000_v1.1/sw/drivers/drvic/process_ctrl.c",line 335,column 1,is_
    1165              
    1166                      .dwfde $C$DW$CIE, _motor_StopCtrl
    1167              $C$DW$153       .dwtag  DW_TAG_formal_parameter
    1168                      .dwattr $C$DW$153, DW_AT_name("handle")
    1169                      .dwattr $C$DW$153, DW_AT_TI_symbol_name("_handle")
    1170                      .dwattr $C$DW$153, DW_AT_type(*$C$DW$T$211)
    1171                      .dwattr $C$DW$153, DW_AT_location[DW_OP_reg12]
    1172              
    1173              
    1174              ;***************************************************************
    1175              ;* FNAME: _motor_StopCtrl               FR SIZE:   0           *
    1176              ;*                                                             *
    1177              ;* FUNCTION ENVIRONMENT                                        *
    1178              ;*                                                             *
    1179              ;* FUNCTION PROPERTIES                                         *
    1180              ;*                            0 Parameter,  0 Auto,  0 SOE     *
    1181              ;***************************************************************
    1182              
    1183              _motor_StopCtrl:
    1184              ;* AR4   assigned to _handle
    1185              $C$DW$154       .dwtag  DW_TAG_variable
    1186                      .dwattr $C$DW$154, DW_AT_name("handle")
    1187                      .dwattr $C$DW$154, DW_AT_TI_symbol_name("_handle")
    1188                      .dwattr $C$DW$154, DW_AT_type(*$C$DW$T$249)
    1189                      .dwattr $C$DW$154, DW_AT_location[DW_OP_reg12]
    1190              
    1191                      .dwcfi  cfa_offset, -2
    1192                      .dwcfi  save_reg_to_mem, 26, 0
    1193                      .dwpsn  file "C:/Users/wmj/Desktop/BM1000_v1.1/sw/modules/pid/src/32b/pid.h",line 413,column 3,is_stm
    1194 000000a1 D044          MOVB      XAR0,#68              ; [CPU_] |413| 
    1195 000000a2 8394          MOVL      XAR5,*+XAR4[AR0]      ; [CPU_] |413| 
    1196 000000a3 0200          MOVB      ACC,#0                ; [CPU_] |413| 
    1197 000000a4 D020          MOVB      XAR0,#32              ; [CPU_] |413| 
    1198 000000a5 1EF5          MOVL      *+XAR5[6],ACC         ; [CPU_] |413| 
    1199 000000a6 8394          MOVL      XAR5,*+XAR4[AR0]      ; [CPU_] |413| 
    1200 000000a7 D032          MOVB      XAR0,#50              ; [CPU_] |413| 
    1201 000000a8 1EF5          MOVL      *+XAR5[6],ACC         ; [CPU_] |413| 
    1202 000000a9 8394          MOVL      XAR5,*+XAR4[AR0]      ; [CPU_] |413| 
    1203                      .dwpsn  file "C:/Users/wmj/Desktop/BM1000_v1.1/sw/modules/ctrl/src/32b/ctrl.h",line 1384,column 3,is_
    1204 000000aa D0E2          MOVB      XAR0,#226             ; [CPU_] |1384| 
    1205                      .dwpsn  file "C:/Users/wmj/Desktop/BM1000_v1.1/sw/modules/pid/src/32b/pid.h",line 413,column 3,is_stm
    1206 000000ab 1EF5          MOVL      *+XAR5[6],ACC         ; [CPU_] |413| 
    1207                      .dwpsn  file "C:/Users/wmj/Desktop/BM1000_v1.1/sw/modules/ctrl/src/32b/ctrl.h",line 1384,column 3,is_
    1208 000000ac 1E94          MOVL      *+XAR4[AR0],ACC       ; [CPU_] |1384| 
    1209                      .dwpsn  file "C:/Users/wmj/Desktop/BM1000_v1.1/sw/modules/ctrl/src/32b/ctrl.h",line 1476,column 3,is_
    1210 000000ad D0E4          MOVB      XAR0,#228             ; [CPU_] |1476| 
    1211 000000ae 1E94          MOVL      *+XAR4[AR0],ACC       ; [CPU_] |1476| 
    1212                      .dwpsn  file "C:/Users/wmj/Desktop/BM1000_v1.1/sw/modules/ctrl/src/32b/ctrl.h",line 1791,column 3,is_
    1213 000000af D0BA          MOVB      XAR0,#186             ; [CPU_] |1791| 
    1214 000000b0 1E94          MOVL      *+XAR4[AR0],ACC       ; [CPU_] |1791| 
    1215              $C$DW$155       .dwtag  DW_TAG_TI_branch
TMS320C2000 Assembler PC v15.12.3 Wed Nov 22 01:55:16 2017

Tools Copyright (c) 1996-2015 Texas Instruments Incorporated
C:\Users\wmj\AppData\Local\Temp\1673210                              PAGE   24

    1216                      .dwattr $C$DW$155, DW_AT_low_pc(0x00)
    1217                      .dwattr $C$DW$155, DW_AT_TI_return
    1218              
    1219 000000b1 0006          LRETR     ; [CPU_] 
    1220                      ; return occurs ; [] 
    1221                      .dwattr $C$DW$152, DW_AT_TI_end_file("C:/Users/wmj/Desktop/BM1000_v1.1/sw/drivers/drvic/process_ctrl.
    1222                      .dwattr $C$DW$152, DW_AT_TI_end_line(0x15c)
    1223                      .dwattr $C$DW$152, DW_AT_TI_end_column(0x01)
    1224                      .dwendentry
    1225                      .dwendtag $C$DW$152
    1226              
    1227 000000b2               .sect   ".text"
    1228                      .clink
    1229                      .global _motor_RunCtrl
    1230              
    1231              $C$DW$156       .dwtag  DW_TAG_subprogram
    1232                      .dwattr $C$DW$156, DW_AT_name("motor_RunCtrl")
    1233                      .dwattr $C$DW$156, DW_AT_low_pc(_motor_RunCtrl)
    1234                      .dwattr $C$DW$156, DW_AT_high_pc(0x00)
    1235                      .dwattr $C$DW$156, DW_AT_TI_symbol_name("_motor_RunCtrl")
    1236                      .dwattr $C$DW$156, DW_AT_external
    1237                      .dwattr $C$DW$156, DW_AT_TI_begin_file("C:/Users/wmj/Desktop/BM1000_v1.1/sw/drivers/drvic/process_ctr
    1238                      .dwattr $C$DW$156, DW_AT_TI_begin_line(0xf6)
    1239                      .dwattr $C$DW$156, DW_AT_TI_begin_column(0x06)
    1240                      .dwattr $C$DW$156, DW_AT_TI_max_frame_size(-12)
    1241                      .dwpsn  file "C:/Users/wmj/Desktop/BM1000_v1.1/sw/drivers/drvic/process_ctrl.c",line 247,column 1,is_
    1242              
    1243                      .dwfde $C$DW$CIE, _motor_RunCtrl
    1244              $C$DW$157       .dwtag  DW_TAG_formal_parameter
    1245                      .dwattr $C$DW$157, DW_AT_name("handle")
    1246                      .dwattr $C$DW$157, DW_AT_TI_symbol_name("_handle")
    1247                      .dwattr $C$DW$157, DW_AT_type(*$C$DW$T$288)
    1248                      .dwattr $C$DW$157, DW_AT_location[DW_OP_reg12]
    1249              
    1250              
    1251              ;***************************************************************
    1252              ;* FNAME: _motor_RunCtrl                FR SIZE:  10           *
    1253              ;*                                                             *
    1254              ;* FUNCTION ENVIRONMENT                                        *
    1255              ;*                                                             *
    1256              ;* FUNCTION PROPERTIES                                         *
    1257              ;*                            0 Parameter,  6 Auto,  4 SOE     *
    1258              ;***************************************************************
    1259              
    1260              _motor_RunCtrl:
    1261              ;* AR5   assigned to $O$C2
    1262              ;* AR5   assigned to $O$C3
    1263              ;* AR1   assigned to _handle
    1264              $C$DW$158       .dwtag  DW_TAG_variable
    1265                      .dwattr $C$DW$158, DW_AT_name("handle")
    1266                      .dwattr $C$DW$158, DW_AT_TI_symbol_name("_handle")
    1267                      .dwattr $C$DW$158, DW_AT_type(*$C$DW$T$289)
    1268                      .dwattr $C$DW$158, DW_AT_location[DW_OP_reg6]
    1269              
    1270              ;* AR6   assigned to _flag_enableSpeedCtrl
TMS320C2000 Assembler PC v15.12.3 Wed Nov 22 01:55:16 2017

Tools Copyright (c) 1996-2015 Texas Instruments Incorporated
C:\Users\wmj\AppData\Local\Temp\1673210                              PAGE   25

    1271              $C$DW$159       .dwtag  DW_TAG_variable
    1272                      .dwattr $C$DW$159, DW_AT_name("flag_enableSpeedCtrl")
    1273                      .dwattr $C$DW$159, DW_AT_TI_symbol_name("_flag_enableSpeedCtrl")
    1274                      .dwattr $C$DW$159, DW_AT_type(*$C$DW$T$33)
    1275                      .dwattr $C$DW$159, DW_AT_location[DW_OP_reg16]
    1276              
    1277              ;* AR4   assigned to _obj
    1278              $C$DW$160       .dwtag  DW_TAG_variable
    1279                      .dwattr $C$DW$160, DW_AT_name("obj")
    1280                      .dwattr $C$DW$160, DW_AT_TI_symbol_name("_obj")
    1281                      .dwattr $C$DW$160, DW_AT_type(*$C$DW$T$271)
    1282                      .dwattr $C$DW$160, DW_AT_location[DW_OP_reg12]
    1283              
    1284              ;* AR4   assigned to _obj
    1285              $C$DW$161       .dwtag  DW_TAG_variable
    1286                      .dwattr $C$DW$161, DW_AT_name("obj")
    1287                      .dwattr $C$DW$161, DW_AT_TI_symbol_name("_obj")
    1288                      .dwattr $C$DW$161, DW_AT_type(*$C$DW$T$271)
    1289                      .dwattr $C$DW$161, DW_AT_location[DW_OP_reg12]
    1290              
    1291              ;* AR0   assigned to _period
    1292              $C$DW$162       .dwtag  DW_TAG_variable
    1293                      .dwattr $C$DW$162, DW_AT_name("period")
    1294                      .dwattr $C$DW$162, DW_AT_TI_symbol_name("_period")
    1295                      .dwattr $C$DW$162, DW_AT_type(*$C$DW$T$31)
    1296                      .dwattr $C$DW$162, DW_AT_location[DW_OP_reg4]
    1297              
    1298              ;* AR4   assigned to _fs
    1299              $C$DW$163       .dwtag  DW_TAG_variable
    1300                      .dwattr $C$DW$163, DW_AT_name("fs")
    1301                      .dwattr $C$DW$163, DW_AT_TI_symbol_name("_fs")
    1302                      .dwattr $C$DW$163, DW_AT_type(*$C$DW$T$256)
    1303                      .dwattr $C$DW$163, DW_AT_location[DW_OP_reg12]
    1304              
    1305              ;* AR7   assigned to $O$U17
    1306              ;* AR2   assigned to $O$U69
    1307              ;* AR4   assigned to $O$U61
    1308              ;* AR7   assigned to $O$U3
    1309              $C$DW$164       .dwtag  DW_TAG_variable
    1310                      .dwattr $C$DW$164, DW_AT_name("gPwmData")
    1311                      .dwattr $C$DW$164, DW_AT_TI_symbol_name("_gPwmData")
    1312                      .dwattr $C$DW$164, DW_AT_type(*$C$DW$T$222)
    1313                      .dwattr $C$DW$164, DW_AT_location[DW_OP_breg20 -6]
    1314              
    1315                      .dwcfi  cfa_offset, -2
    1316                      .dwcfi  save_reg_to_mem, 26, 0
    1317 000000b2 B2BD          MOVL      *SP++,XAR1            ; [CPU_] 
    1318                      .dwcfi  save_reg_to_mem, 7, 2
    1319                      .dwcfi  cfa_offset, -4
    1320 000000b3 AABD          MOVL      *SP++,XAR2            ; [CPU_] 
    1321                      .dwcfi  save_reg_to_mem, 9, 4
    1322                      .dwcfi  cfa_offset, -6
    1323 000000b4 FE06          ADDB      SP,#6                 ; [CPU_U] 
    1324                      .dwcfi  cfa_offset, -12
    1325 000000b5 8BA4          MOVL      XAR1,XAR4             ; [CPU_] |247| 
TMS320C2000 Assembler PC v15.12.3 Wed Nov 22 01:55:16 2017

Tools Copyright (c) 1996-2015 Texas Instruments Incorporated
C:\Users\wmj\AppData\Local\Temp\1673210                              PAGE   26

    1326                      .dwpsn  file "C:/Users/wmj/Desktop/BM1000_v1.1/sw/drivers/drvic/process_ctrl.c",line 252,column 3,is_
    1327 000000b6 D0AC          MOVB      XAR0,#172             ; [CPU_] |252| 
    1328 000000b7 8A91          MOVL      XAR4,*+XAR1[AR0]      ; [CPU_] |252| 
    1329                      .dwpsn  file "C:/Users/wmj/Desktop/BM1000_v1.1/sw/drivers/drvic/process_ctrl.c",line 272,column 6,is_
    1330 000000b8 D0AC          MOVB      XAR0,#172             ; [CPU_] |272| 
    1331                      .dwpsn  file "C:/Users/wmj/Desktop/BM1000_v1.1/sw/drivers/drvic/process_ctrl.c",line 252,column 3,is_
    1332 000000b9 56BF          MOVB      *+XAR4[1],#1,UNC      ; [CPU_] |252| 
         000000ba 01CC 
    1333                      .dwpsn  file "C:/Users/wmj/Desktop/BM1000_v1.1/sw/drivers/drvic/process_ctrl.c",line 272,column 6,is_
    1334 000000bb C591          MOVL      XAR7,*+XAR1[AR0]      ; [CPU_] |272| 
    1335 000000bc D00A          MOVB      XAR0,#10              ; [CPU_] |272| 
    1336 000000bd 9297          MOV       AL,*+XAR7[AR0]        ; [CPU_] |272| 
    1337 000000be 6037          B         $C$L4,NEQ             ; [CPU_] |272| 
    1338                      ; branchcc occurs ; [] |272| 
    1339                      .dwpsn  file "C:/Users/wmj/Desktop/BM1000_v1.1/sw/drivers/drvic/process_ctrl.c",line 302,column 11,is
    1340 000000bf D00B          MOVB      XAR0,#11              ; [CPU_] |302| 
    1341 000000c0 9297          MOV       AL,*+XAR7[AR0]        ; [CPU_] |302| 
    1342 000000c1 5201          CMPB      AL,#1                 ; [CPU_] |302| 
    1343 000000c2 FFE0          B         $C$L7,NEQ             ; [CPU_] |302| 
         000000c3 00AF 
    1344                      ; branchcc occurs ; [] |302| 
    1345                      .dwpsn  file "C:/Users/wmj/Desktop/BM1000_v1.1/sw/modules/flyingStart/src/32b/flyingStart.h",line 189
    1346 000000c4 D018          MOVB      XAR0,#24              ; [CPU_] |189| 
    1347 000000c5 0211          MOVB      ACC,#17               ; [CPU_] |189| 
    1348 000000c6 0791          ADDL      ACC,*+XAR1[AR0]       ; [CPU_] |189| 
    1349 000000c7 8AA9          MOVL      XAR4,ACC              ; [CPU_] |189| 
    1350                      .dwpsn  file "C:/Users/wmj/Desktop/BM1000_v1.1/sw/drivers/drvic/process_ctrl.c",line 307,column 3,is_
    1351 000000c8 D0AC          MOVB      XAR0,#172             ; [CPU_] |307| 
    1352 000000c9 020B          MOVB      ACC,#11               ; [CPU_] |307| 
    1353                      .dwpsn  file "C:/Users/wmj/Desktop/BM1000_v1.1/sw/modules/flyingStart/src/32b/flyingStart.h",line 189
    1354 000000ca 2BC4          MOV       *+XAR4[0],#0          ; [CPU_] |189| 
    1355                      .dwpsn  file "C:/Users/wmj/Desktop/BM1000_v1.1/sw/drivers/drvic/process_ctrl.c",line 307,column 3,is_
    1356 000000cb 0791          ADDL      ACC,*+XAR1[AR0]       ; [CPU_] |307| 
    1357 000000cc 8AA9          MOVL      XAR4,ACC              ; [CPU_] |307| 
    1358 000000cd 2BC4          MOV       *+XAR4[0],#0          ; [CPU_] |307| 
    1359                      .dwpsn  file "C:/Users/wmj/Desktop/BM1000_v1.1/sw/modules/hal/boards/hvkit_rev1p1/f28x/f2802x/src/hal
    1360 000000ce 83C1          MOVL      XAR5,*+XAR1[0]        ; [CPU_] |288| 
    1361 000000cf 8AA5          MOVL      XAR4,XAR5             ; [CPU_] |288| 
    1362 000000d0 DC7E          ADDB      XAR4,#126             ; [CPU_] |288| 
    1363 000000d1 7622   EALLOW
    1364                      .dwpsn  file "C:/Users/wmj/Desktop/BM1000_v1.1/sw/drivers/pwm/src/32b/f28x/f2802x/pwm.h",line 1567,co
    1365 000000d2 D07C          MOVB      XAR0,#124             ; [CPU_] |1567| 
    1366 000000d3 0218          MOVB      ACC,#24               ; [CPU_] |1567| 
    1367 000000d4 0795          ADDL      ACC,*+XAR5[AR0]       ; [CPU_] |1567| 
    1368 000000d5 83A9          MOVL      XAR5,ACC              ; [CPU_] |1567| 
    1369 000000d6 1AC5          OR        *+XAR5[0],#0x0004     ; [CPU_] |1567| 
         000000d7 0004 
    1370 000000d8 761A   EDIS
    1371 000000d9 7622   EALLOW
    1372 000000da 0218          MOVB      ACC,#24               ; [CPU_] |1567| 
    1373 000000db 07C4          ADDL      ACC,*+XAR4[0]         ; [CPU_] |1567| 
    1374 000000dc 83A9          MOVL      XAR5,ACC              ; [CPU_] |1567| 
    1375 000000dd 1AC5          OR        *+XAR5[0],#0x0004     ; [CPU_] |1567| 
         000000de 0004 
    1376 000000df 761A   EDIS
TMS320C2000 Assembler PC v15.12.3 Wed Nov 22 01:55:16 2017

Tools Copyright (c) 1996-2015 Texas Instruments Incorporated
C:\Users\wmj\AppData\Local\Temp\1673210                              PAGE   27

    1377 000000e0 7622   EALLOW
    1378 000000e1 0218          MOVB      ACC,#24               ; [CPU_] |1567| 
    1379 000000e2 07D4          ADDL      ACC,*+XAR4[2]         ; [CPU_] |1567| 
    1380 000000e3 8AA9          MOVL      XAR4,ACC              ; [CPU_] |1567| 
    1381 000000e4 1AC4          OR        *+XAR4[0],#0x0004     ; [CPU_] |1567| 
         000000e5 0004 
    1382 000000e6 761A   EDIS
    1383 000000e7 FF69          SPM       #0                    ; [CPU_] 
    1384                      .dwpsn  file "C:/Users/wmj/Desktop/BM1000_v1.1/sw/drivers/drvic/process_ctrl.c",line 316,column 3,is_
    1385 000000e8 8AD1          MOVL      XAR4,*+XAR1[2]        ; [CPU_] |316| 
    1386              $C$DW$165       .dwtag  DW_TAG_TI_branch
    1387                      .dwattr $C$DW$165, DW_AT_low_pc(0x00)
    1388                      .dwattr $C$DW$165, DW_AT_name("_motor_StopCtrl")
    1389                      .dwattr $C$DW$165, DW_AT_TI_call
    1390              
    1391 000000e9 7640'         LCR       #_motor_StopCtrl      ; [CPU_] |316| 
         000000ea 00A1 
    1392                      ; call occurs [#_motor_StopCtrl] ; [] |316| 
    1393                      .dwpsn  file "C:/Users/wmj/Desktop/BM1000_v1.1/sw/drivers/drvic/process_ctrl.c",line 319,column 3,is_
    1394 000000eb 0200          MOVB      ACC,#0                ; [CPU_] |319| 
    1395 000000ec 1E46          MOVL      *-SP[6],ACC           ; [CPU_] |319| 
    1396                      .dwpsn  file "C:/Users/wmj/Desktop/BM1000_v1.1/sw/drivers/drvic/process_ctrl.c",line 320,column 3,is_
    1397 000000ed 1E44          MOVL      *-SP[4],ACC           ; [CPU_] |320| 
    1398                      .dwpsn  file "C:/Users/wmj/Desktop/BM1000_v1.1/sw/drivers/drvic/process_ctrl.c",line 321,column 3,is_
    1399 000000ee 1E42          MOVL      *-SP[2],ACC           ; [CPU_] |321| 
    1400                      .dwpsn  file "C:/Users/wmj/Desktop/BM1000_v1.1/sw/modules/ctrl/src/32b/ctrl.h",line 1268,column 3,is_
    1401 000000ef 02F6          MOVB      ACC,#246              ; [CPU_] |1268| 
    1402 000000f0 07D1          ADDL      ACC,*+XAR1[2]         ; [CPU_] |1268| 
    1403 000000f1 8AA9          MOVL      XAR4,ACC              ; [CPU_] |1268| 
    1404                      .dwpsn  file "C:/Users/wmj/Desktop/BM1000_v1.1/sw/drivers/drvic/process_ctrl.c",line 314,column 3,is_
    1405 000000f2 BE00          MOVB      XAR6,#0               ; [CPU_] |314| 
    1406                      .dwpsn  file "C:/Users/wmj/Desktop/BM1000_v1.1/sw/modules/ctrl/src/32b/ctrl.h",line 1268,column 3,is_
    1407 000000f3 2BC4          MOV       *+XAR4[0],#0          ; [CPU_] |1268| 
    1408                      .dwpsn  file "C:/Users/wmj/Desktop/BM1000_v1.1/sw/modules/ctrl/src/32b/ctrl.h",line 1270,column 3,is_
    1409 000000f4 6F7D          B         $C$L7,UNC             ; [CPU_] |1270| 
    1410                      ; branch occurs ; [] |1270| 
    1411 000000f5       $C$L4:    
    1412                      .dwpsn  file "C:/Users/wmj/Desktop/BM1000_v1.1/sw/drivers/drvic/process_ctrl.c",line 275,column 3,is_
    1413 000000f5 D00B          MOVB      XAR0,#11              ; [CPU_] |275| 
    1414 000000f6 9297          MOV       AL,*+XAR7[AR0]        ; [CPU_] |275| 
    1415 000000f7 6070          B         $C$L6,NEQ             ; [CPU_] |275| 
    1416                      ; branchcc occurs ; [] |275| 
    1417                      .dwpsn  file "C:/Users/wmj/Desktop/BM1000_v1.1/sw/modules/flyingStart/src/32b/flyingStart.h",line 189
    1418 000000f8 D018          MOVB      XAR0,#24              ; [CPU_] |189| 
    1419 000000f9 0211          MOVB      ACC,#17               ; [CPU_] |189| 
    1420 000000fa 0791          ADDL      ACC,*+XAR1[AR0]       ; [CPU_] |189| 
    1421 000000fb 8AA9          MOVL      XAR4,ACC              ; [CPU_] |189| 
    1422 000000fc DF0C          ADDB      XAR7,#12              ; [CPU_] |189| 
    1423                      .dwpsn  file "C:/Users/wmj/Desktop/BM1000_v1.1/sw/modules/flyingStart/src/32b/flyingStart.h",line 269
    1424 000000fd D018          MOVB      XAR0,#24              ; [CPU_] |269| 
    1425                      .dwpsn  file "C:/Users/wmj/Desktop/BM1000_v1.1/sw/modules/flyingStart/src/32b/flyingStart.h",line 189
    1426 000000fe 92C7          MOV       AL,*XAR7              ; [CPU_] |189| 
    1427 000000ff 96C4          MOV       *+XAR4[0],AL          ; [CPU_] |189| 
    1428                      .dwpsn  file "C:/Users/wmj/Desktop/BM1000_v1.1/sw/modules/flyingStart/src/32b/flyingStart.h",line 269
    1429 00000100 8A91          MOVL      XAR4,*+XAR1[AR0]      ; [CPU_] |269| 
TMS320C2000 Assembler PC v15.12.3 Wed Nov 22 01:55:16 2017

Tools Copyright (c) 1996-2015 Texas Instruments Incorporated
C:\Users\wmj\AppData\Local\Temp\1673210                              PAGE   28

    1430                      .dwpsn  file "C:/Users/wmj/Desktop/BM1000_v1.1/sw/modules/flyingStart/src/32b/flyingStart.h",line 273
    1431 00000101 9B00          MOVB      AH,#0                 ; [CPU_] |273| 
    1432 00000102 D011          MOVB      XAR0,#17              ; [CPU_] |273| 
    1433 00000103 9294          MOV       AL,*+XAR4[AR0]        ; [CPU_] |273| 
    1434 00000104 D010          MOVB      XAR0,#16              ; [CPU_] |273| 
    1435 00000105 5201          CMPB      AL,#1                 ; [CPU_] |273| 
    1436 00000106 56B0          MOVB      AH,#1,NEQ             ; [CPU_] |273| 
         00000107 01A8 
    1437 00000108 9794          MOV       *+XAR4[AR0],AH        ; [CPU_] |273| 
    1438                      .dwpsn  file "C:/Users/wmj/Desktop/BM1000_v1.1/sw/modules/flyingStart/src/32b/flyingStart.h",line 281
    1439 00000109 D00C          MOVB      XAR0,#12              ; [CPU_] |281| 
    1440                      .dwpsn  file "C:/Users/wmj/Desktop/BM1000_v1.1/sw/modules/flyingStart/src/32b/flyingStart.h",line 280
    1441 0000010a 0200          MOVB      ACC,#0                ; [CPU_] |280| 
    1442 0000010b 1EF4          MOVL      *+XAR4[6],ACC         ; [CPU_] |280| 
    1443                      .dwpsn  file "C:/Users/wmj/Desktop/BM1000_v1.1/sw/modules/flyingStart/src/32b/flyingStart.h",line 281
    1444 0000010c 1E94          MOVL      *+XAR4[AR0],ACC       ; [CPU_] |281| 
    1445                      .dwpsn  file "C:/Users/wmj/Desktop/BM1000_v1.1/sw/drivers/drvic/process_ctrl.c",line 282,column 4,is_
    1446 0000010d D0AC          MOVB      XAR0,#172             ; [CPU_] |282| 
    1447 0000010e 020B          MOVB      ACC,#11               ; [CPU_] |282| 
    1448 0000010f 0791          ADDL      ACC,*+XAR1[AR0]       ; [CPU_] |282| 
    1449 00000110 8AA9          MOVL      XAR4,ACC              ; [CPU_] |282| 
    1450 00000111 56BF          MOVB      *+XAR4[0],#1,UNC      ; [CPU_] |282| 
         00000112 01C4 
    1451                      .dwpsn  file "C:/Users/wmj/Desktop/BM1000_v1.1/sw/drivers/drvic/process_ctrl.c",line 284,column 4,is_
    1452 00000113 8AD1          MOVL      XAR4,*+XAR1[2]        ; [CPU_] |284| 
    1453              $C$DW$166       .dwtag  DW_TAG_TI_branch
    1454                      .dwattr $C$DW$166, DW_AT_low_pc(0x00)
    1455                      .dwattr $C$DW$166, DW_AT_name("_motor_StopCtrl")
    1456                      .dwattr $C$DW$166, DW_AT_TI_call
    1457              
    1458 00000114 7640'         LCR       #_motor_StopCtrl      ; [CPU_] |284| 
         00000115 00A1 
    1459                      ; call occurs [#_motor_StopCtrl] ; [] |284| 
    1460                      .dwpsn  file "C:/Users/wmj/Desktop/BM1000_v1.1/sw/modules/ctrl/src/32b/ctrl.h",line 1268,column 3,is_
    1461 00000116 02F6          MOVB      ACC,#246              ; [CPU_] |1268| 
    1462 00000117 07D1          ADDL      ACC,*+XAR1[2]         ; [CPU_] |1268| 
    1463 00000118 8AA9          MOVL      XAR4,ACC              ; [CPU_] |1268| 
    1464 00000119 5DAD          MOVZ      AR5,SP                ; [CPU_] 
    1465                      .dwpsn  file "C:/Users/wmj/Desktop/BM1000_v1.1/sw/drivers/drvic/process_ctrl.c",line 289,column 4,is_
    1466 0000011a 0200          MOVB      ACC,#0                ; [CPU_] |289| 
    1467                      .dwpsn  file "C:/Users/wmj/Desktop/BM1000_v1.1/sw/modules/ctrl/src/32b/ctrl.h",line 1268,column 3,is_
    1468 0000011b 56BF          MOVB      *+XAR4[0],#1,UNC      ; [CPU_] |1268| 
         0000011c 01C4 
    1469                      .dwpsn  file "C:/Users/wmj/Desktop/BM1000_v1.1/sw/drivers/drvic/process_ctrl.c",line 289,column 4,is_
    1470 0000011d 1E46          MOVL      *-SP[6],ACC           ; [CPU_] |289| 
    1471                      .dwpsn  file "C:/Users/wmj/Desktop/BM1000_v1.1/sw/drivers/drvic/process_ctrl.c",line 290,column 4,is_
    1472 0000011e 1E44          MOVL      *-SP[4],ACC           ; [CPU_] |290| 
    1473                      .dwpsn  file "C:/Users/wmj/Desktop/BM1000_v1.1/sw/drivers/drvic/process_ctrl.c",line 291,column 4,is_
    1474 0000011f 1E42          MOVL      *-SP[2],ACC           ; [CPU_] |291| 
    1475 00000120 C5C1          MOVL      XAR7,*+XAR1[0]        ; [CPU_] 
    1476 00000121 DD86          SUBB      XAR5,#6               ; [CPU_U] 
    1477 00000122 8AA7          MOVL      XAR4,XAR7             ; [CPU_] 
    1478 00000123 5AA5          MOVZ      AR2,AR5               ; [CPU_] 
    1479 00000124 BE02          MOVB      XAR6,#2               ; [CPU_] 
    1480 00000125 3B01          SETC      SXM                   ; [CPU_] 
TMS320C2000 Assembler PC v15.12.3 Wed Nov 22 01:55:16 2017

Tools Copyright (c) 1996-2015 Texas Instruments Incorporated
C:\Users\wmj\AppData\Local\Temp\1673210                              PAGE   29

    1481 00000126 DC7C          ADDB      XAR4,#124             ; [CPU_] 
    1482 00000127       $C$L5:    
    1483                      .dwpsn  file "C:/Users/wmj/Desktop/BM1000_v1.1/sw/modules/hal/boards/hvkit_rev1p1/f28x/f2802x/src/hal
    1484 00000127 8384          MOVL      XAR5,*XAR4++          ; [CPU_] |1129| 
    1485                      .dwpsn  file "C:/Users/wmj/Desktop/BM1000_v1.1/sw/drivers/pwm/src/32b/f28x/f2802x/pwm.h",line 1717,co
    1486 00000128 FF2F          MOV       ACC,#-512 << 15       ; [CPU_] |1717| 
         00000129 FE00 
    1487 0000012a 8782          MOVL      XT,*XAR2++            ; [CPU_] |1717| 
    1488 0000012b 5605          IMPYL     P,XT,ACC              ; [CPU_] |1717| 
         0000012c 00A9 
    1489                      .dwpsn  file "C:/Users/wmj/Desktop/BM1000_v1.1/sw/modules/hal/boards/hvkit_rev1p1/f28x/f2802x/src/hal
    1490 0000012d 58ED          MOVZ      AR0,*+XAR5[5]         ; [CPU_] |1129| 
    1491                      .dwpsn  file "C:/Users/wmj/Desktop/BM1000_v1.1/sw/drivers/pwm/src/32b/f28x/f2802x/pwm.h",line 1717,co
    1492 0000012e 5663          QMPYL     ACC,XT,ACC            ; [CPU_] |1717| 
         0000012f 00A9 
    1493 00000130 56A7          LSL64     ACC:P,#8              ; [CPU_] |1717| 
    1494 00000131 2BAB          MOV       PL,#0                 ; [CPU_] |1717| 
    1495 00000132 28AA          MOV       PH,#128               ; [CPU_] |1717| 
         00000133 0080 
    1496 00000134 A9AC          MOVL      XT,P                  ; [CPU_] |1717| 
    1497 00000135 2BAB          MOV       PL,#0                 ; [CPU_] |1717| 
    1498 00000136 28AA          MOV       PH,#65408             ; [CPU_] |1717| 
         00000137 FF80 
    1499 00000138 5650          MINL      ACC,XT                ; [CPU_] |1717| 
         00000139 00AC 
    1500 0000013a 5661          MAXL      ACC,P                 ; [CPU_] |1717| 
         0000013b 00AB 
    1501 0000013c FF1F          ADD       ACC,#256 << 15        ; [CPU_] |1717| 
         0000013d 0100 
    1502 0000013e 1EAC          MOVL      XT,ACC                ; [CPU_] |1717| 
    1503 0000013f 5605          IMPYL     P,XT,XAR0             ; [CPU_] |1717| 
         00000140 00A0 
    1504 00000141 5663          QMPYL     ACC,XT,XAR0           ; [CPU_] |1717| 
         00000142 00A0 
    1505 00000143 56A7          LSL64     ACC:P,#8              ; [CPU_] |1717| 
    1506 00000144 3100          MOV       P,#0                  ; [CPU_] |1717| 
    1507 00000145 5650          MINL      ACC,XAR0              ; [CPU_] |1717| 
         00000146 00A0 
    1508 00000147 D009          MOVB      XAR0,#9               ; [CPU_] |1717| 
    1509 00000148 5661          MAXL      ACC,P                 ; [CPU_] |1717| 
         00000149 00AB 
    1510 0000014a 9695          MOV       *+XAR5[AR0],AL        ; [CPU_] |1717| 
    1511                      .dwpsn  file "C:/Users/wmj/Desktop/BM1000_v1.1/sw/modules/hal/boards/hvkit_rev1p1/f28x/f2802x/src/hal
    1512 0000014b 000E          BANZ      $C$L5,AR6--           ; [CPU_] |1126| 
         0000014c FFDC 
    1513                      ; branchcc occurs ; [] |1126| 
    1514                      .dwpsn  file "C:/Users/wmj/Desktop/BM1000_v1.1/sw/modules/hal/boards/hvkit_rev1p1/f28x/f2802x/src/hal
    1515 0000014d 8AA7          MOVL      XAR4,XAR7             ; [CPU_] |324| 
    1516 0000014e DC7E          ADDB      XAR4,#126             ; [CPU_] |324| 
    1517 0000014f 7622   EALLOW
    1518                      .dwpsn  file "C:/Users/wmj/Desktop/BM1000_v1.1/sw/drivers/pwm/src/32b/f28x/f2802x/pwm.h",line 951,col
    1519 00000150 D07C          MOVB      XAR0,#124             ; [CPU_] |951| 
    1520 00000151 0217          MOVB      ACC,#23               ; [CPU_] |951| 
    1521 00000152 0797          ADDL      ACC,*+XAR7[AR0]       ; [CPU_] |951| 
    1522 00000153 83A9          MOVL      XAR5,ACC              ; [CPU_] |951| 
TMS320C2000 Assembler PC v15.12.3 Wed Nov 22 01:55:16 2017

Tools Copyright (c) 1996-2015 Texas Instruments Incorporated
C:\Users\wmj\AppData\Local\Temp\1673210                              PAGE   30

    1523 00000154 56BF          MOVB      *+XAR5[0],#4,UNC      ; [CPU_] |951| 
         00000155 04C5 
    1524 00000156 761A   EDIS
    1525 00000157 7622   EALLOW
    1526 00000158 0217          MOVB      ACC,#23               ; [CPU_] |951| 
    1527 00000159 07C4          ADDL      ACC,*+XAR4[0]         ; [CPU_] |951| 
    1528 0000015a 83A9          MOVL      XAR5,ACC              ; [CPU_] |951| 
    1529 0000015b 56BF          MOVB      *+XAR5[0],#4,UNC      ; [CPU_] |951| 
         0000015c 04C5 
    1530 0000015d 761A   EDIS
    1531 0000015e 7622   EALLOW
    1532 0000015f 0217          MOVB      ACC,#23               ; [CPU_] |951| 
    1533 00000160 07D4          ADDL      ACC,*+XAR4[2]         ; [CPU_] |951| 
    1534 00000161 8AA9          MOVL      XAR4,ACC              ; [CPU_] |951| 
    1535 00000162 56BF          MOVB      *+XAR4[0],#4,UNC      ; [CPU_] |951| 
         00000163 04C4 
    1536 00000164 761A   EDIS
    1537 00000165 D0AC          MOVB      XAR0,#172             ; [CPU_] 
    1538 00000166 C591          MOVL      XAR7,*+XAR1[AR0]      ; [CPU_] 
    1539 00000167       $C$L6:    
    1540                      .dwpsn  file "C:/Users/wmj/Desktop/BM1000_v1.1/sw/drivers/drvic/process_ctrl.c",line 299,column 3,is_
    1541 00000167 D018          MOVB      XAR0,#24              ; [CPU_] |299| 
    1542 00000168 0210          MOVB      ACC,#16               ; [CPU_] |299| 
    1543 00000169 0791          ADDL      ACC,*+XAR1[AR0]       ; [CPU_] |299| 
    1544 0000016a 8AA9          MOVL      XAR4,ACC              ; [CPU_] |299| 
    1545 0000016b BE00          MOVB      XAR6,#0               ; [CPU_] |299| 
    1546 0000016c D009          MOVB      XAR0,#9               ; [CPU_] |299| 
    1547 0000016d 92C4          MOV       AL,*+XAR4[0]          ; [CPU_] |299| 
    1548 0000016e CE97          AND       AL,*+XAR7[AR0]        ; [CPU_] |299| 
    1549 0000016f 56B0          MOVB      XAR6,#1,NEQ           ; [CPU_] |299| 
         00000170 01A6 
    1550 00000171       $C$L7:    
    1551                      .dwpsn  file "C:/Users/wmj/Desktop/BM1000_v1.1/sw/modules/ctrl/src/32b/ctrl.h",line 1325,column 3,is_
    1552 00000171 02F4          MOVB      ACC,#244              ; [CPU_] |1325| 
    1553 00000172 07D1          ADDL      ACC,*+XAR1[2]         ; [CPU_] |1325| 
    1554 00000173 8AA9          MOVL      XAR4,ACC              ; [CPU_] |1325| 
    1555 00000174 FF69          SPM       #0                    ; [CPU_] 
    1556 00000175 FE86          SUBB      SP,#6                 ; [CPU_U] 
    1557                      .dwcfi  cfa_offset, -6
    1558 00000176 7EC4          MOV       *+XAR4[0],AR6         ; [CPU_] |1325| 
    1559 00000177 86BE          MOVL      XAR2,*--SP            ; [CPU_] 
    1560                      .dwcfi  cfa_offset, -4
    1561                      .dwcfi  restore_reg, 9
    1562 00000178 8BBE          MOVL      XAR1,*--SP            ; [CPU_] 
    1563                      .dwcfi  cfa_offset, -2
    1564                      .dwcfi  restore_reg, 7
    1565              $C$DW$167       .dwtag  DW_TAG_TI_branch
    1566                      .dwattr $C$DW$167, DW_AT_low_pc(0x00)
    1567                      .dwattr $C$DW$167, DW_AT_TI_return
    1568              
    1569 00000179 0006          LRETR     ; [CPU_] 
    1570                      ; return occurs ; [] 
    1571                      .dwattr $C$DW$156, DW_AT_TI_end_file("C:/Users/wmj/Desktop/BM1000_v1.1/sw/drivers/drvic/process_ctrl.
    1572                      .dwattr $C$DW$156, DW_AT_TI_end_line(0x14b)
    1573                      .dwattr $C$DW$156, DW_AT_TI_end_column(0x01)
TMS320C2000 Assembler PC v15.12.3 Wed Nov 22 01:55:16 2017

Tools Copyright (c) 1996-2015 Texas Instruments Incorporated
C:\Users\wmj\AppData\Local\Temp\1673210                              PAGE   31

    1574                      .dwendentry
    1575                      .dwendtag $C$DW$156
    1576              
    1577 0000017a               .sect   ".text"
    1578                      .clink
    1579                      .global _acim_Dir_qFmtCalc
    1580              
    1581              $C$DW$168       .dwtag  DW_TAG_subprogram
    1582                      .dwattr $C$DW$168, DW_AT_name("acim_Dir_qFmtCalc")
    1583                      .dwattr $C$DW$168, DW_AT_low_pc(_acim_Dir_qFmtCalc)
    1584                      .dwattr $C$DW$168, DW_AT_high_pc(0x00)
    1585                      .dwattr $C$DW$168, DW_AT_TI_symbol_name("_acim_Dir_qFmtCalc")
    1586                      .dwattr $C$DW$168, DW_AT_external
    1587                      .dwattr $C$DW$168, DW_AT_TI_begin_file("C:/Users/wmj/Desktop/BM1000_v1.1/sw/drivers/drvic/process_ctr
    1588                      .dwattr $C$DW$168, DW_AT_TI_begin_line(0xe6)
    1589                      .dwattr $C$DW$168, DW_AT_TI_begin_column(0x06)
    1590                      .dwattr $C$DW$168, DW_AT_TI_max_frame_size(-4)
    1591                      .dwpsn  file "C:/Users/wmj/Desktop/BM1000_v1.1/sw/drivers/drvic/process_ctrl.c",line 231,column 1,is_
    1592              
    1593                      .dwfde $C$DW$CIE, _acim_Dir_qFmtCalc
    1594              $C$DW$169       .dwtag  DW_TAG_formal_parameter
    1595                      .dwattr $C$DW$169, DW_AT_name("handle")
    1596                      .dwattr $C$DW$169, DW_AT_TI_symbol_name("_handle")
    1597                      .dwattr $C$DW$169, DW_AT_type(*$C$DW$T$211)
    1598                      .dwattr $C$DW$169, DW_AT_location[DW_OP_reg12]
    1599              
    1600              
    1601              ;***************************************************************
    1602              ;* FNAME: _acim_Dir_qFmtCalc            FR SIZE:   2           *
    1603              ;*                                                             *
    1604              ;* FUNCTION ENVIRONMENT                                        *
    1605              ;*                                                             *
    1606              ;* FUNCTION PROPERTIES                                         *
    1607              ;*                            0 Parameter,  0 Auto,  2 SOE     *
    1608              ;***************************************************************
    1609              
    1610              _acim_Dir_qFmtCalc:
    1611              ;* AR1   assigned to _handle
    1612              $C$DW$170       .dwtag  DW_TAG_variable
    1613                      .dwattr $C$DW$170, DW_AT_name("handle")
    1614                      .dwattr $C$DW$170, DW_AT_TI_symbol_name("_handle")
    1615                      .dwattr $C$DW$170, DW_AT_type(*$C$DW$T$249)
    1616                      .dwattr $C$DW$170, DW_AT_location[DW_OP_reg6]
    1617              
    1618                      .dwcfi  cfa_offset, -2
    1619                      .dwcfi  save_reg_to_mem, 26, 0
    1620 0000017a B2BD          MOVL      *SP++,XAR1            ; [CPU_] 
    1621                      .dwcfi  save_reg_to_mem, 7, 2
    1622                      .dwcfi  cfa_offset, -4
    1623 0000017b 8BA4          MOVL      XAR1,XAR4             ; [CPU_] |231| 
    1624                      .dwpsn  file "C:/Users/wmj/Desktop/BM1000_v1.1/sw/drivers/drvic/process_ctrl.c",line 233,column 24,is
    1625 0000017c D018          MOVB      XAR0,#24              ; [CPU_] |233| 
    1626 0000017d 8A91          MOVL      XAR4,*+XAR1[AR0]      ; [CPU_] |233| 
    1627              $C$DW$171       .dwtag  DW_TAG_TI_branch
    1628                      .dwattr $C$DW$171, DW_AT_low_pc(0x00)
TMS320C2000 Assembler PC v15.12.3 Wed Nov 22 01:55:16 2017

Tools Copyright (c) 1996-2015 Texas Instruments Incorporated
C:\Users\wmj\AppData\Local\Temp\1673210                              PAGE   32

    1629                      .dwattr $C$DW$171, DW_AT_name("_EST_getState")
    1630                      .dwattr $C$DW$171, DW_AT_TI_call
    1631              
    1632 0000017e 7640!         LCR       #_EST_getState        ; [CPU_] |233| 
         0000017f 0000 
    1633                      ; call occurs [#_EST_getState] ; [] |233| 
    1634 00000180 5205          CMPB      AL,#5                 ; [CPU_] |233| 
    1635 00000181 600D          B         $C$L8,NEQ             ; [CPU_] |233| 
    1636                      ; branchcc occurs ; [] |233| 
    1637                      .dwpsn  file "C:/Users/wmj/Desktop/BM1000_v1.1/sw/drivers/drvic/process_ctrl.c",line 237,column 7,is_
    1638 00000182 D018          MOVB      XAR0,#24              ; [CPU_] |237| 
    1639 00000183 28A9          MOV       AL,#13107             ; [CPU_] |237| 
         00000184 3333 
    1640 00000185 28A8          MOV       AH,#16179             ; [CPU_] |237| 
         00000186 3F33 
    1641 00000187 8A91          MOVL      XAR4,*+XAR1[AR0]      ; [CPU_] |237| 
    1642              $C$DW$172       .dwtag  DW_TAG_TI_branch
    1643                      .dwattr $C$DW$172, DW_AT_low_pc(0x00)
    1644                      .dwattr $C$DW$172, DW_AT_name("_EST_computeDirection_qFmt")
    1645                      .dwattr $C$DW$172, DW_AT_TI_call
    1646              
    1647 00000188 7640!         LCR       #_EST_computeDirection_qFmt ; [CPU_] |237| 
         00000189 0000 
    1648                      ; call occurs [#_EST_computeDirection_qFmt] ; [] |237| 
    1649 0000018a D018          MOVB      XAR0,#24              ; [CPU_] |237| 
    1650 0000018b 8A91          MOVL      XAR4,*+XAR1[AR0]      ; [CPU_] |237| 
    1651              $C$DW$173       .dwtag  DW_TAG_TI_branch
    1652                      .dwattr $C$DW$173, DW_AT_low_pc(0x00)
    1653                      .dwattr $C$DW$173, DW_AT_name("_EST_setDir_qFmt")
    1654                      .dwattr $C$DW$173, DW_AT_TI_call
    1655              
    1656 0000018c 7640!         LCR       #_EST_setDir_qFmt     ; [CPU_] |237| 
         0000018d 0000 
    1657                      ; call occurs [#_EST_setDir_qFmt] ; [] |237| 
    1658 0000018e       $C$L8:    
    1659 0000018e 8BBE          MOVL      XAR1,*--SP            ; [CPU_] 
    1660                      .dwcfi  cfa_offset, -2
    1661                      .dwcfi  restore_reg, 7
    1662              $C$DW$174       .dwtag  DW_TAG_TI_branch
    1663                      .dwattr $C$DW$174, DW_AT_low_pc(0x00)
    1664                      .dwattr $C$DW$174, DW_AT_TI_return
    1665              
    1666 0000018f 0006          LRETR     ; [CPU_] 
    1667                      ; return occurs ; [] 
    1668                      .dwattr $C$DW$168, DW_AT_TI_end_file("C:/Users/wmj/Desktop/BM1000_v1.1/sw/drivers/drvic/process_ctrl.
    1669                      .dwattr $C$DW$168, DW_AT_TI_end_line(0xf1)
    1670                      .dwattr $C$DW$168, DW_AT_TI_end_column(0x01)
    1671                      .dwendentry
    1672                      .dwendtag $C$DW$168
    1673              
    1674 00000190               .sect   ".text"
    1675                      .clink
    1676                      .global _PROCTRL_updateKpKiGains
    1677              
    1678              $C$DW$175       .dwtag  DW_TAG_subprogram
TMS320C2000 Assembler PC v15.12.3 Wed Nov 22 01:55:16 2017

Tools Copyright (c) 1996-2015 Texas Instruments Incorporated
C:\Users\wmj\AppData\Local\Temp\1673210                              PAGE   33

    1679                      .dwattr $C$DW$175, DW_AT_name("PROCTRL_updateKpKiGains")
    1680                      .dwattr $C$DW$175, DW_AT_low_pc(_PROCTRL_updateKpKiGains)
    1681                      .dwattr $C$DW$175, DW_AT_high_pc(0x00)
    1682                      .dwattr $C$DW$175, DW_AT_TI_symbol_name("_PROCTRL_updateKpKiGains")
    1683                      .dwattr $C$DW$175, DW_AT_external
    1684                      .dwattr $C$DW$175, DW_AT_TI_begin_file("C:/Users/wmj/Desktop/BM1000_v1.1/sw/drivers/drvic/process_ctr
    1685                      .dwattr $C$DW$175, DW_AT_TI_begin_line(0x16c)
    1686                      .dwattr $C$DW$175, DW_AT_TI_begin_column(0x06)
    1687                      .dwattr $C$DW$175, DW_AT_TI_max_frame_size(-2)
    1688                      .dwpsn  file "C:/Users/wmj/Desktop/BM1000_v1.1/sw/drivers/drvic/process_ctrl.c",line 365,column 1,is_
    1689              
    1690                      .dwfde $C$DW$CIE, _PROCTRL_updateKpKiGains
    1691              $C$DW$176       .dwtag  DW_TAG_formal_parameter
    1692                      .dwattr $C$DW$176, DW_AT_name("handle")
    1693                      .dwattr $C$DW$176, DW_AT_TI_symbol_name("_handle")
    1694                      .dwattr $C$DW$176, DW_AT_type(*$C$DW$T$288)
    1695                      .dwattr $C$DW$176, DW_AT_location[DW_OP_reg12]
    1696              
    1697              
    1698              ;***************************************************************
    1699              ;* FNAME: _PROCTRL_updateKpKiGains      FR SIZE:   0           *
    1700              ;*                                                             *
    1701              ;* FUNCTION ENVIRONMENT                                        *
    1702              ;*                                                             *
    1703              ;* FUNCTION PROPERTIES                                         *
    1704              ;*                            0 Parameter,  0 Auto,  0 SOE     *
    1705              ;***************************************************************
    1706              
    1707              _PROCTRL_updateKpKiGains:
    1708              ;* AR4   assigned to _handle
    1709              $C$DW$177       .dwtag  DW_TAG_variable
    1710                      .dwattr $C$DW$177, DW_AT_name("handle")
    1711                      .dwattr $C$DW$177, DW_AT_TI_symbol_name("_handle")
    1712                      .dwattr $C$DW$177, DW_AT_type(*$C$DW$T$289)
    1713                      .dwattr $C$DW$177, DW_AT_location[DW_OP_reg12]
    1714              
    1715                      .dwcfi  cfa_offset, -2
    1716                      .dwcfi  save_reg_to_mem, 26, 0
    1717                      .dwpsn  file "C:/Users/wmj/Desktop/BM1000_v1.1/sw/modules/ctrl/src/32b/ctrl.h",line 1542,column 7,is_
    1718 00000190 D0AC          MOVB      XAR0,#172             ; [CPU_] |1542| 
    1719 00000191 0242          MOVB      ACC,#66               ; [CPU_] |1542| 
    1720 00000192 0794          ADDL      ACC,*+XAR4[AR0]       ; [CPU_] |1542| 
    1721 00000193 83A9          MOVL      XAR5,ACC              ; [CPU_] |1542| 
    1722 00000194 02CE          MOVB      ACC,#206              ; [CPU_] |1542| 
    1723 00000195 C4C5          MOVL      XAR6,*+XAR5[0]        ; [CPU_] |1542| 
    1724 00000196 07D4          ADDL      ACC,*+XAR4[2]         ; [CPU_] |1542| 
    1725 00000197 83A9          MOVL      XAR5,ACC              ; [CPU_] |1542| 
    1726                      .dwpsn  file "C:/Users/wmj/Desktop/BM1000_v1.1/sw/modules/ctrl/src/32b/ctrl.h",line 1517,column 7,is_
    1727 00000198 D0AC          MOVB      XAR0,#172             ; [CPU_] |1517| 
    1728 00000199 0244          MOVB      ACC,#68               ; [CPU_] |1517| 
    1729                      .dwpsn  file "C:/Users/wmj/Desktop/BM1000_v1.1/sw/modules/ctrl/src/32b/ctrl.h",line 1542,column 7,is_
    1730 0000019a C2C5          MOVL      *+XAR5[0],XAR6        ; [CPU_] |1542| 
    1731                      .dwpsn  file "C:/Users/wmj/Desktop/BM1000_v1.1/sw/modules/ctrl/src/32b/ctrl.h",line 1517,column 7,is_
    1732 0000019b 0794          ADDL      ACC,*+XAR4[AR0]       ; [CPU_] |1517| 
    1733 0000019c 83A9          MOVL      XAR5,ACC              ; [CPU_] |1517| 
TMS320C2000 Assembler PC v15.12.3 Wed Nov 22 01:55:16 2017

Tools Copyright (c) 1996-2015 Texas Instruments Incorporated
C:\Users\wmj\AppData\Local\Temp\1673210                              PAGE   34

    1734 0000019d 02D4          MOVB      ACC,#212              ; [CPU_] |1517| 
    1735 0000019e 07D4          ADDL      ACC,*+XAR4[2]         ; [CPU_] |1517| 
    1736 0000019f C4C5          MOVL      XAR6,*+XAR5[0]        ; [CPU_] |1517| 
    1737 000001a0 83A9          MOVL      XAR5,ACC              ; [CPU_] |1517| 
    1738                      .dwpsn  file "C:/Users/wmj/Desktop/BM1000_v1.1/sw/modules/ctrl/src/32b/ctrl.h",line 1546,column 7,is_
    1739 000001a1 D0AC          MOVB      XAR0,#172             ; [CPU_] |1546| 
    1740 000001a2 023E          MOVB      ACC,#62               ; [CPU_] |1546| 
    1741                      .dwpsn  file "C:/Users/wmj/Desktop/BM1000_v1.1/sw/modules/ctrl/src/32b/ctrl.h",line 1517,column 7,is_
    1742 000001a3 C2C5          MOVL      *+XAR5[0],XAR6        ; [CPU_] |1517| 
    1743                      .dwpsn  file "C:/Users/wmj/Desktop/BM1000_v1.1/sw/modules/ctrl/src/32b/ctrl.h",line 1546,column 7,is_
    1744 000001a4 0794          ADDL      ACC,*+XAR4[AR0]       ; [CPU_] |1546| 
    1745 000001a5 83A9          MOVL      XAR5,ACC              ; [CPU_] |1546| 
    1746 000001a6 02CA          MOVB      ACC,#202              ; [CPU_] |1546| 
    1747 000001a7 07D4          ADDL      ACC,*+XAR4[2]         ; [CPU_] |1546| 
    1748 000001a8 C4C5          MOVL      XAR6,*+XAR5[0]        ; [CPU_] |1546| 
    1749 000001a9 83A9          MOVL      XAR5,ACC              ; [CPU_] |1546| 
    1750                      .dwpsn  file "C:/Users/wmj/Desktop/BM1000_v1.1/sw/modules/ctrl/src/32b/ctrl.h",line 1521,column 7,is_
    1751 000001aa D0AC          MOVB      XAR0,#172             ; [CPU_] |1521| 
    1752 000001ab 0240          MOVB      ACC,#64               ; [CPU_] |1521| 
    1753                      .dwpsn  file "C:/Users/wmj/Desktop/BM1000_v1.1/sw/modules/ctrl/src/32b/ctrl.h",line 1546,column 7,is_
    1754 000001ac C2C5          MOVL      *+XAR5[0],XAR6        ; [CPU_] |1546| 
    1755                      .dwpsn  file "C:/Users/wmj/Desktop/BM1000_v1.1/sw/modules/ctrl/src/32b/ctrl.h",line 1521,column 7,is_
    1756 000001ad 0794          ADDL      ACC,*+XAR4[AR0]       ; [CPU_] |1521| 
    1757 000001ae 83A9          MOVL      XAR5,ACC              ; [CPU_] |1521| 
    1758 000001af 02D0          MOVB      ACC,#208              ; [CPU_] |1521| 
    1759 000001b0 07D4          ADDL      ACC,*+XAR4[2]         ; [CPU_] |1521| 
    1760 000001b1 C4C5          MOVL      XAR6,*+XAR5[0]        ; [CPU_] |1521| 
    1761 000001b2 83A9          MOVL      XAR5,ACC              ; [CPU_] |1521| 
    1762                      .dwpsn  file "C:/Users/wmj/Desktop/BM1000_v1.1/sw/modules/ctrl/src/32b/ctrl.h",line 1550,column 7,is_
    1763 000001b3 D0AC          MOVB      XAR0,#172             ; [CPU_] |1550| 
    1764 000001b4 023E          MOVB      ACC,#62               ; [CPU_] |1550| 
    1765                      .dwpsn  file "C:/Users/wmj/Desktop/BM1000_v1.1/sw/modules/ctrl/src/32b/ctrl.h",line 1521,column 7,is_
    1766 000001b5 C2C5          MOVL      *+XAR5[0],XAR6        ; [CPU_] |1521| 
    1767                      .dwpsn  file "C:/Users/wmj/Desktop/BM1000_v1.1/sw/modules/ctrl/src/32b/ctrl.h",line 1550,column 7,is_
    1768 000001b6 0794          ADDL      ACC,*+XAR4[AR0]       ; [CPU_] |1550| 
    1769 000001b7 83A9          MOVL      XAR5,ACC              ; [CPU_] |1550| 
    1770 000001b8 02CC          MOVB      ACC,#204              ; [CPU_] |1550| 
    1771 000001b9 07D4          ADDL      ACC,*+XAR4[2]         ; [CPU_] |1550| 
    1772 000001ba C4C5          MOVL      XAR6,*+XAR5[0]        ; [CPU_] |1550| 
    1773 000001bb 83A9          MOVL      XAR5,ACC              ; [CPU_] |1550| 
    1774                      .dwpsn  file "C:/Users/wmj/Desktop/BM1000_v1.1/sw/modules/ctrl/src/32b/ctrl.h",line 1525,column 7,is_
    1775 000001bc D0AC          MOVB      XAR0,#172             ; [CPU_] |1525| 
    1776 000001bd 0240          MOVB      ACC,#64               ; [CPU_] |1525| 
    1777                      .dwpsn  file "C:/Users/wmj/Desktop/BM1000_v1.1/sw/modules/ctrl/src/32b/ctrl.h",line 1550,column 7,is_
    1778 000001be C2C5          MOVL      *+XAR5[0],XAR6        ; [CPU_] |1550| 
    1779                      .dwpsn  file "C:/Users/wmj/Desktop/BM1000_v1.1/sw/modules/ctrl/src/32b/ctrl.h",line 1525,column 7,is_
    1780 000001bf 0794          ADDL      ACC,*+XAR4[AR0]       ; [CPU_] |1525| 
    1781 000001c0 83A9          MOVL      XAR5,ACC              ; [CPU_] |1525| 
    1782 000001c1 C4C5          MOVL      XAR6,*+XAR5[0]        ; [CPU_] |1525| 
    1783 000001c2 02D2          MOVB      ACC,#210              ; [CPU_] |1525| 
    1784 000001c3 07D4          ADDL      ACC,*+XAR4[2]         ; [CPU_] |1525| 
    1785 000001c4 8AA9          MOVL      XAR4,ACC              ; [CPU_] |1525| 
    1786 000001c5 C2C4          MOVL      *+XAR4[0],XAR6        ; [CPU_] |1525| 
    1787              $C$DW$178       .dwtag  DW_TAG_TI_branch
    1788                      .dwattr $C$DW$178, DW_AT_low_pc(0x00)
TMS320C2000 Assembler PC v15.12.3 Wed Nov 22 01:55:16 2017

Tools Copyright (c) 1996-2015 Texas Instruments Incorporated
C:\Users\wmj\AppData\Local\Temp\1673210                              PAGE   35

    1789                      .dwattr $C$DW$178, DW_AT_TI_return
    1790              
    1791 000001c6 0006          LRETR     ; [CPU_] 
    1792                      ; return occurs ; [] 
    1793                      .dwattr $C$DW$175, DW_AT_TI_end_file("C:/Users/wmj/Desktop/BM1000_v1.1/sw/drivers/drvic/process_ctrl.
    1794                      .dwattr $C$DW$175, DW_AT_TI_end_line(0x17b)
    1795                      .dwattr $C$DW$175, DW_AT_TI_end_column(0x01)
    1796                      .dwendentry
    1797                      .dwendtag $C$DW$175
    1798              
    1799 000001c7               .sect   ".text"
    1800                      .clink
    1801                      .global _PROCTRL_setupMotors
    1802              
    1803              $C$DW$179       .dwtag  DW_TAG_subprogram
    1804                      .dwattr $C$DW$179, DW_AT_name("PROCTRL_setupMotors")
    1805                      .dwattr $C$DW$179, DW_AT_low_pc(_PROCTRL_setupMotors)
    1806                      .dwattr $C$DW$179, DW_AT_high_pc(0x00)
    1807                      .dwattr $C$DW$179, DW_AT_TI_symbol_name("_PROCTRL_setupMotors")
    1808                      .dwattr $C$DW$179, DW_AT_external
    1809                      .dwattr $C$DW$179, DW_AT_TI_begin_file("C:/Users/wmj/Desktop/BM1000_v1.1/sw/drivers/drvic/process_ctr
    1810                      .dwattr $C$DW$179, DW_AT_TI_begin_line(0x8f)
    1811                      .dwattr $C$DW$179, DW_AT_TI_begin_column(0x06)
    1812                      .dwattr $C$DW$179, DW_AT_TI_max_frame_size(-2)
    1813                      .dwpsn  file "C:/Users/wmj/Desktop/BM1000_v1.1/sw/drivers/drvic/process_ctrl.c",line 144,column 1,is_
    1814              
    1815                      .dwfde $C$DW$CIE, _PROCTRL_setupMotors
    1816              $C$DW$180       .dwtag  DW_TAG_formal_parameter
    1817                      .dwattr $C$DW$180, DW_AT_name("handle")
    1818                      .dwattr $C$DW$180, DW_AT_TI_symbol_name("_handle")
    1819                      .dwattr $C$DW$180, DW_AT_type(*$C$DW$T$288)
    1820                      .dwattr $C$DW$180, DW_AT_location[DW_OP_reg12]
    1821              
    1822              
    1823              ;***************************************************************
    1824              ;* FNAME: _PROCTRL_setupMotors          FR SIZE:   0           *
    1825              ;*                                                             *
    1826              ;* FUNCTION ENVIRONMENT                                        *
    1827              ;*                                                             *
    1828              ;* FUNCTION PROPERTIES                                         *
    1829              ;*                            0 Parameter,  0 Auto,  0 SOE     *
    1830              ;***************************************************************
    1831              
    1832              _PROCTRL_setupMotors:
    1833              ;* AR4   assigned to _handle
    1834              $C$DW$181       .dwtag  DW_TAG_variable
    1835                      .dwattr $C$DW$181, DW_AT_name("handle")
    1836                      .dwattr $C$DW$181, DW_AT_TI_symbol_name("_handle")
    1837                      .dwattr $C$DW$181, DW_AT_type(*$C$DW$T$289)
    1838                      .dwattr $C$DW$181, DW_AT_location[DW_OP_reg12]
    1839              
    1840                      .dwcfi  cfa_offset, -2
    1841                      .dwcfi  save_reg_to_mem, 26, 0
    1842                      .dwpsn  file "C:/Users/wmj/Desktop/BM1000_v1.1/sw/drivers/drvic/process_ctrl.c",line 147,column 4,is_
    1843 000001c7 D0AC          MOVB      XAR0,#172             ; [CPU_] |147| 
TMS320C2000 Assembler PC v15.12.3 Wed Nov 22 01:55:16 2017

Tools Copyright (c) 1996-2015 Texas Instruments Incorporated
C:\Users\wmj\AppData\Local\Temp\1673210                              PAGE   36

    1844 000001c8 8A94          MOVL      XAR4,*+XAR4[AR0]      ; [CPU_] |147| 
    1845              $C$DW$182       .dwtag  DW_TAG_TI_branch
    1846                      .dwattr $C$DW$182, DW_AT_low_pc(0x00)
    1847                      .dwattr $C$DW$182, DW_AT_name("_MOTOR_MotorVars_Init")
    1848                      .dwattr $C$DW$182, DW_AT_TI_call
    1849              
    1850 000001c9 7640!         LCR       #_MOTOR_MotorVars_Init ; [CPU_] |147| 
         000001ca 0000 
    1851                      ; call occurs [#_MOTOR_MotorVars_Init] ; [] |147| 
    1852              $C$DW$183       .dwtag  DW_TAG_TI_branch
    1853                      .dwattr $C$DW$183, DW_AT_low_pc(0x00)
    1854                      .dwattr $C$DW$183, DW_AT_TI_return
    1855              
    1856 000001cb 0006          LRETR     ; [CPU_] 
    1857                      ; return occurs ; [] 
    1858                      .dwattr $C$DW$179, DW_AT_TI_end_file("C:/Users/wmj/Desktop/BM1000_v1.1/sw/drivers/drvic/process_ctrl.
    1859                      .dwattr $C$DW$179, DW_AT_TI_end_line(0x96)
    1860                      .dwattr $C$DW$179, DW_AT_TI_end_column(0x01)
    1861                      .dwendentry
    1862                      .dwendtag $C$DW$179
    1863              
    1864 000001cc               .sect   ".text"
    1865                      .clink
    1866                      .global _PROCTRL_setupModbus
    1867              
    1868              $C$DW$184       .dwtag  DW_TAG_subprogram
    1869                      .dwattr $C$DW$184, DW_AT_name("PROCTRL_setupModbus")
    1870                      .dwattr $C$DW$184, DW_AT_low_pc(_PROCTRL_setupModbus)
    1871                      .dwattr $C$DW$184, DW_AT_high_pc(0x00)
    1872                      .dwattr $C$DW$184, DW_AT_TI_symbol_name("_PROCTRL_setupModbus")
    1873                      .dwattr $C$DW$184, DW_AT_external
    1874                      .dwattr $C$DW$184, DW_AT_TI_begin_file("C:/Users/wmj/Desktop/BM1000_v1.1/sw/drivers/drvic/process_ctr
    1875                      .dwattr $C$DW$184, DW_AT_TI_begin_line(0x82)
    1876                      .dwattr $C$DW$184, DW_AT_TI_begin_column(0x06)
    1877                      .dwattr $C$DW$184, DW_AT_TI_max_frame_size(-4)
    1878                      .dwpsn  file "C:/Users/wmj/Desktop/BM1000_v1.1/sw/drivers/drvic/process_ctrl.c",line 131,column 1,is_
    1879              
    1880                      .dwfde $C$DW$CIE, _PROCTRL_setupModbus
    1881              $C$DW$185       .dwtag  DW_TAG_formal_parameter
    1882                      .dwattr $C$DW$185, DW_AT_name("handle")
    1883                      .dwattr $C$DW$185, DW_AT_TI_symbol_name("_handle")
    1884                      .dwattr $C$DW$185, DW_AT_type(*$C$DW$T$288)
    1885                      .dwattr $C$DW$185, DW_AT_location[DW_OP_reg12]
    1886              
    1887              
    1888              ;***************************************************************
    1889              ;* FNAME: _PROCTRL_setupModbus          FR SIZE:   2           *
    1890              ;*                                                             *
    1891              ;* FUNCTION ENVIRONMENT                                        *
    1892              ;*                                                             *
    1893              ;* FUNCTION PROPERTIES                                         *
    1894              ;*                            0 Parameter,  0 Auto,  2 SOE     *
    1895              ;***************************************************************
    1896              
    1897              _PROCTRL_setupModbus:
TMS320C2000 Assembler PC v15.12.3 Wed Nov 22 01:55:16 2017

Tools Copyright (c) 1996-2015 Texas Instruments Incorporated
C:\Users\wmj\AppData\Local\Temp\1673210                              PAGE   37

    1898              ;* AR1   assigned to _handle
    1899              $C$DW$186       .dwtag  DW_TAG_variable
    1900                      .dwattr $C$DW$186, DW_AT_name("handle")
    1901                      .dwattr $C$DW$186, DW_AT_TI_symbol_name("_handle")
    1902                      .dwattr $C$DW$186, DW_AT_type(*$C$DW$T$289)
    1903                      .dwattr $C$DW$186, DW_AT_location[DW_OP_reg6]
    1904              
    1905                      .dwcfi  cfa_offset, -2
    1906                      .dwcfi  save_reg_to_mem, 26, 0
    1907 000001cc B2BD          MOVL      *SP++,XAR1            ; [CPU_] 
    1908                      .dwcfi  save_reg_to_mem, 7, 2
    1909                      .dwcfi  cfa_offset, -4
    1910 000001cd 8BA4          MOVL      XAR1,XAR4             ; [CPU_] |131| 
    1911                      .dwpsn  file "C:/Users/wmj/Desktop/BM1000_v1.1/sw/drivers/drvic/process_ctrl.c",line 134,column 4,is_
    1912 000001ce 0294          MOVB      ACC,#148              ; [CPU_] |134| 
    1913 000001cf 07C1          ADDL      ACC,*+XAR1[0]         ; [CPU_] |134| 
    1914 000001d0 83A9          MOVL      XAR5,ACC              ; [CPU_] |134| 
    1915 000001d1 D03A          MOVB      XAR0,#58              ; [CPU_] |134| 
    1916 000001d2 8A91          MOVL      XAR4,*+XAR1[AR0]      ; [CPU_] |134| 
    1917 000001d3 83C5          MOVL      XAR5,*+XAR5[0]        ; [CPU_] |134| 
    1918              $C$DW$187       .dwtag  DW_TAG_TI_branch
    1919                      .dwattr $C$DW$187, DW_AT_low_pc(0x00)
    1920                      .dwattr $C$DW$187, DW_AT_name("_MB_setSciHandle")
    1921                      .dwattr $C$DW$187, DW_AT_TI_call
    1922              
    1923 000001d4 7640!         LCR       #_MB_setSciHandle     ; [CPU_] |134| 
         000001d5 0000 
    1924                      ; call occurs [#_MB_setSciHandle] ; [] |134| 
    1925                      .dwpsn  file "C:/Users/wmj/Desktop/BM1000_v1.1/sw/drivers/drvic/process_ctrl.c",line 135,column 4,is_
    1926 000001d6 028C          MOVB      ACC,#140              ; [CPU_] |135| 
    1927 000001d7 07C1          ADDL      ACC,*+XAR1[0]         ; [CPU_] |135| 
    1928 000001d8 83A9          MOVL      XAR5,ACC              ; [CPU_] |135| 
    1929 000001d9 D03A          MOVB      XAR0,#58              ; [CPU_] |135| 
    1930 000001da 8A91          MOVL      XAR4,*+XAR1[AR0]      ; [CPU_] |135| 
    1931 000001db 83C5          MOVL      XAR5,*+XAR5[0]        ; [CPU_] |135| 
    1932              $C$DW$188       .dwtag  DW_TAG_TI_branch
    1933                      .dwattr $C$DW$188, DW_AT_low_pc(0x00)
    1934                      .dwattr $C$DW$188, DW_AT_name("_MB_setTimHandle")
    1935                      .dwattr $C$DW$188, DW_AT_TI_call
    1936              
    1937 000001dc 7640!         LCR       #_MB_setTimHandle     ; [CPU_] |135| 
         000001dd 0000 
    1938                      ; call occurs [#_MB_setTimHandle] ; [] |135| 
    1939                      .dwpsn  file "C:/Users/wmj/Desktop/BM1000_v1.1/sw/drivers/drvic/process_ctrl.c",line 136,column 4,is_
    1940 000001de 0208          MOVB      ACC,#8                ; [CPU_] |136| 
    1941 000001df 07C1          ADDL      ACC,*+XAR1[0]         ; [CPU_] |136| 
    1942 000001e0 83A9          MOVL      XAR5,ACC              ; [CPU_] |136| 
    1943 000001e1 D03A          MOVB      XAR0,#58              ; [CPU_] |136| 
    1944 000001e2 8A91          MOVL      XAR4,*+XAR1[AR0]      ; [CPU_] |136| 
    1945 000001e3 83C5          MOVL      XAR5,*+XAR5[0]        ; [CPU_] |136| 
    1946              $C$DW$189       .dwtag  DW_TAG_TI_branch
    1947                      .dwattr $C$DW$189, DW_AT_low_pc(0x00)
    1948                      .dwattr $C$DW$189, DW_AT_name("_MB_setGpioHandle")
    1949                      .dwattr $C$DW$189, DW_AT_TI_call
    1950              
TMS320C2000 Assembler PC v15.12.3 Wed Nov 22 01:55:16 2017

Tools Copyright (c) 1996-2015 Texas Instruments Incorporated
C:\Users\wmj\AppData\Local\Temp\1673210                              PAGE   38

    1951 000001e4 7640!         LCR       #_MB_setGpioHandle    ; [CPU_] |136| 
         000001e5 0000 
    1952                      ; call occurs [#_MB_setGpioHandle] ; [] |136| 
    1953                      .dwpsn  file "C:/Users/wmj/Desktop/BM1000_v1.1/sw/drivers/drvic/process_ctrl.c",line 137,column 4,is_
    1954 000001e6 D03A          MOVB      XAR0,#58              ; [CPU_] |137| 
    1955 000001e7 8A91          MOVL      XAR4,*+XAR1[AR0]      ; [CPU_] |137| 
    1956 000001e8 D0AC          MOVB      XAR0,#172             ; [CPU_] |137| 
    1957 000001e9 8391          MOVL      XAR5,*+XAR1[AR0]      ; [CPU_] |137| 
    1958              $C$DW$190       .dwtag  DW_TAG_TI_branch
    1959                      .dwattr $C$DW$190, DW_AT_low_pc(0x00)
    1960                      .dwattr $C$DW$190, DW_AT_name("_MB_setMotorHandle")
    1961                      .dwattr $C$DW$190, DW_AT_TI_call
    1962              
    1963 000001ea 7640!         LCR       #_MB_setMotorHandle   ; [CPU_] |137| 
         000001eb 0000 
    1964                      ; call occurs [#_MB_setMotorHandle] ; [] |137| 
    1965                      .dwpsn  file "C:/Users/wmj/Desktop/BM1000_v1.1/sw/drivers/drvic/process_ctrl.c",line 138,column 4,is_
    1966 000001ec D03A          MOVB      XAR0,#58              ; [CPU_] |138| 
    1967 000001ed 8A91          MOVL      XAR4,*+XAR1[AR0]      ; [CPU_] |138| 
    1968 000001ee D0D4          MOVB      XAR0,#212             ; [CPU_] |138| 
    1969 000001ef 8391          MOVL      XAR5,*+XAR1[AR0]      ; [CPU_] |138| 
    1970              $C$DW$191       .dwtag  DW_TAG_TI_branch
    1971                      .dwattr $C$DW$191, DW_AT_low_pc(0x00)
    1972                      .dwattr $C$DW$191, DW_AT_name("_MB_setFsmHandle")
    1973                      .dwattr $C$DW$191, DW_AT_TI_call
    1974              
    1975 000001f0 7640!         LCR       #_MB_setFsmHandle     ; [CPU_] |138| 
         000001f1 0000 
    1976                      ; call occurs [#_MB_setFsmHandle] ; [] |138| 
    1977 000001f2 8BBE          MOVL      XAR1,*--SP            ; [CPU_] 
    1978                      .dwcfi  cfa_offset, -2
    1979                      .dwcfi  restore_reg, 7
    1980              $C$DW$192       .dwtag  DW_TAG_TI_branch
    1981                      .dwattr $C$DW$192, DW_AT_low_pc(0x00)
    1982                      .dwattr $C$DW$192, DW_AT_TI_return
    1983              
    1984 000001f3 0006          LRETR     ; [CPU_] 
    1985                      ; return occurs ; [] 
    1986                      .dwattr $C$DW$184, DW_AT_TI_end_file("C:/Users/wmj/Desktop/BM1000_v1.1/sw/drivers/drvic/process_ctrl.
    1987                      .dwattr $C$DW$184, DW_AT_TI_end_line(0x8d)
    1988                      .dwattr $C$DW$184, DW_AT_TI_end_column(0x01)
    1989                      .dwendentry
    1990                      .dwendtag $C$DW$184
    1991              
    1992 000001f4               .sect   ".text"
    1993                      .clink
    1994                      .global _PROCTRL_setupFlyingStart
    1995              
    1996              $C$DW$193       .dwtag  DW_TAG_subprogram
    1997                      .dwattr $C$DW$193, DW_AT_name("PROCTRL_setupFlyingStart")
    1998                      .dwattr $C$DW$193, DW_AT_low_pc(_PROCTRL_setupFlyingStart)
    1999                      .dwattr $C$DW$193, DW_AT_high_pc(0x00)
    2000                      .dwattr $C$DW$193, DW_AT_TI_symbol_name("_PROCTRL_setupFlyingStart")
    2001                      .dwattr $C$DW$193, DW_AT_external
    2002                      .dwattr $C$DW$193, DW_AT_TI_begin_file("C:/Users/wmj/Desktop/BM1000_v1.1/sw/drivers/drvic/process_ctr
TMS320C2000 Assembler PC v15.12.3 Wed Nov 22 01:55:16 2017

Tools Copyright (c) 1996-2015 Texas Instruments Incorporated
C:\Users\wmj\AppData\Local\Temp\1673210                              PAGE   39

    2003                      .dwattr $C$DW$193, DW_AT_TI_begin_line(0x6e)
    2004                      .dwattr $C$DW$193, DW_AT_TI_begin_column(0x06)
    2005                      .dwattr $C$DW$193, DW_AT_TI_max_frame_size(-6)
    2006                      .dwpsn  file "C:/Users/wmj/Desktop/BM1000_v1.1/sw/drivers/drvic/process_ctrl.c",line 111,column 1,is_
    2007              
    2008                      .dwfde $C$DW$CIE, _PROCTRL_setupFlyingStart
    2009              $C$DW$194       .dwtag  DW_TAG_formal_parameter
    2010                      .dwattr $C$DW$194, DW_AT_name("handle")
    2011                      .dwattr $C$DW$194, DW_AT_TI_symbol_name("_handle")
    2012                      .dwattr $C$DW$194, DW_AT_type(*$C$DW$T$288)
    2013                      .dwattr $C$DW$194, DW_AT_location[DW_OP_reg12]
    2014              
    2015              
    2016              ;***************************************************************
    2017              ;* FNAME: _PROCTRL_setupFlyingStart     FR SIZE:   4           *
    2018              ;*                                                             *
    2019              ;* FUNCTION ENVIRONMENT                                        *
    2020              ;*                                                             *
    2021              ;* FUNCTION PROPERTIES                                         *
    2022              ;*                            0 Parameter,  0 Auto,  4 SOE     *
    2023              ;***************************************************************
    2024              
    2025              _PROCTRL_setupFlyingStart:
    2026              ;* AR1   assigned to _handle
    2027              $C$DW$195       .dwtag  DW_TAG_variable
    2028                      .dwattr $C$DW$195, DW_AT_name("handle")
    2029                      .dwattr $C$DW$195, DW_AT_TI_symbol_name("_handle")
    2030                      .dwattr $C$DW$195, DW_AT_type(*$C$DW$T$289)
    2031                      .dwattr $C$DW$195, DW_AT_location[DW_OP_reg6]
    2032              
    2033              ;* AL    assigned to _krpm_to_pu_sf
    2034              $C$DW$196       .dwtag  DW_TAG_variable
    2035                      .dwattr $C$DW$196, DW_AT_name("krpm_to_pu_sf")
    2036                      .dwattr $C$DW$196, DW_AT_TI_symbol_name("_krpm_to_pu_sf")
    2037                      .dwattr $C$DW$196, DW_AT_type(*$C$DW$T$31)
    2038                      .dwattr $C$DW$196, DW_AT_location[DW_OP_reg0]
    2039              
    2040              ;* AR2   assigned to _fs
    2041              $C$DW$197       .dwtag  DW_TAG_variable
    2042                      .dwattr $C$DW$197, DW_AT_name("fs")
    2043                      .dwattr $C$DW$197, DW_AT_TI_symbol_name("_fs")
    2044                      .dwattr $C$DW$197, DW_AT_type(*$C$DW$T$256)
    2045                      .dwattr $C$DW$197, DW_AT_location[DW_OP_reg8]
    2046              
    2047                      .dwcfi  cfa_offset, -2
    2048                      .dwcfi  save_reg_to_mem, 26, 0
    2049 000001f4 B2BD          MOVL      *SP++,XAR1            ; [CPU_] 
    2050                      .dwcfi  save_reg_to_mem, 7, 2
    2051                      .dwcfi  cfa_offset, -4
    2052 000001f5 8BA4          MOVL      XAR1,XAR4             ; [CPU_] |111| 
    2053                      .dwpsn  file "C:/Users/wmj/Desktop/BM1000_v1.1/sw/modules/flyingStart/src/32b/flyingStart.h",line 189
    2054 000001f6 D018          MOVB      XAR0,#24              ; [CPU_] |189| 
    2055 000001f7 0211          MOVB      ACC,#17               ; [CPU_] |189| 
    2056 000001f8 AABD          MOVL      *SP++,XAR2            ; [CPU_] 
    2057                      .dwcfi  save_reg_to_mem, 9, 4
TMS320C2000 Assembler PC v15.12.3 Wed Nov 22 01:55:16 2017

Tools Copyright (c) 1996-2015 Texas Instruments Incorporated
C:\Users\wmj\AppData\Local\Temp\1673210                              PAGE   40

    2058                      .dwcfi  cfa_offset, -6
    2059 000001f9 0791          ADDL      ACC,*+XAR1[AR0]       ; [CPU_] |189| 
    2060 000001fa 8AA9          MOVL      XAR4,ACC              ; [CPU_] |189| 
    2061                      .dwpsn  file "C:/Users/wmj/Desktop/BM1000_v1.1/sw/modules/flyingStart/src/32b/flyingStart.h",line 176
    2062 000001fb BE00          MOVB      XAR6,#0               ; [CPU_] |176| 
    2063 000001fc D018          MOVB      XAR0,#24              ; [CPU_] |176| 
    2064 000001fd 020C          MOVB      ACC,#12               ; [CPU_] |176| 
    2065                      .dwpsn  file "C:/Users/wmj/Desktop/BM1000_v1.1/sw/modules/flyingStart/src/32b/flyingStart.h",line 189
    2066 000001fe 2BC4          MOV       *+XAR4[0],#0          ; [CPU_] |189| 
    2067                      .dwpsn  file "C:/Users/wmj/Desktop/BM1000_v1.1/sw/modules/flyingStart/src/32b/flyingStart.h",line 176
    2068 000001ff 0791          ADDL      ACC,*+XAR1[AR0]       ; [CPU_] |176| 
    2069 00000200 8AA9          MOVL      XAR4,ACC              ; [CPU_] |176| 
    2070                      .dwpsn  file "C:/Users/wmj/Desktop/BM1000_v1.1/sw/modules/flyingStart/src/32b/flyingStart.h",line 138
    2071 00000201 0218          MOVB      ACC,#24               ; [CPU_] |138| 
    2072                      .dwpsn  file "C:/Users/wmj/Desktop/BM1000_v1.1/sw/modules/flyingStart/src/32b/flyingStart.h",line 176
    2073 00000202 C2C4          MOVL      *+XAR4[0],XAR6        ; [CPU_] |176| 
    2074                      .dwpsn  file "C:/Users/wmj/Desktop/BM1000_v1.1/sw/modules/flyingStart/src/32b/flyingStart.h",line 138
    2075 00000203 07D1          ADDL      ACC,*+XAR1[2]         ; [CPU_] |138| 
    2076 00000204 8AA9          MOVL      XAR4,ACC              ; [CPU_] |138| 
    2077                      .dwpsn  file "C:/Users/wmj/Desktop/BM1000_v1.1/sw/modules/flyingStart/src/32b/flyingStart.h",line 135
    2078 00000205 D018          MOVB      XAR0,#24              ; [CPU_] |135| 
    2079 00000206 8691          MOVL      XAR2,*+XAR1[AR0]      ; [CPU_] |135| 
    2080                      .dwpsn  file "C:/Users/wmj/Desktop/BM1000_v1.1/sw/modules/flyingStart/src/32b/flyingStart.h",line 138
    2081 00000207 8AC4          MOVL      XAR4,*+XAR4[0]        ; [CPU_] |138| 
    2082              $C$DW$198       .dwtag  DW_TAG_TI_branch
    2083                      .dwattr $C$DW$198, DW_AT_low_pc(0x00)
    2084                      .dwattr $C$DW$198, DW_AT_name("_EST_get_krpm_to_pu_sf")
    2085                      .dwattr $C$DW$198, DW_AT_TI_call
    2086              
    2087 00000208 7640!         LCR       #_EST_get_krpm_to_pu_sf ; [CPU_] |138| 
         00000209 0000 
    2088                      ; call occurs [#_EST_get_krpm_to_pu_sf] ; [] |138| 
    2089                      .dwpsn  file "C:/Users/wmj/Desktop/BM1000_v1.1/sw/modules/flyingStart/src/32b/flyingStart.h",line 142
    2090 0000020a 8F01          MOVL      XAR4,#83886           ; [CPU_U] |142| 
         0000020b 47AE 
    2091 0000020c D008          MOVB      XAR0,#8               ; [CPU_] |142| 
    2092 0000020d A8AC          MOVL      XT,XAR4               ; [CPU_] |142| 
    2093                      .dwpsn  file "C:/Users/wmj/Desktop/BM1000_v1.1/sw/modules/flyingStart/src/32b/flyingStart.h",line 154
    2094 0000020e BE64          MOVB      XAR6,#100             ; [CPU_] |154| 
    2095                      .dwpsn  file "C:/Users/wmj/Desktop/BM1000_v1.1/sw/modules/flyingStart/src/32b/flyingStart.h",line 142
    2096 0000020f 5605          IMPYL     P,XT,ACC              ; [CPU_] |142| 
         00000210 00A9 
    2097 00000211 5663          QMPYL     ACC,XT,ACC            ; [CPU_] |142| 
         00000212 00A9 
    2098 00000213 56A7          LSL64     ACC:P,#8              ; [CPU_] |142| 
    2099 00000214 1E92          MOVL      *+XAR2[AR0],ACC       ; [CPU_] |142| 
    2100                      .dwpsn  file "C:/Users/wmj/Desktop/BM1000_v1.1/sw/modules/flyingStart/src/32b/flyingStart.h",line 154
    2101 00000215 D018          MOVB      XAR0,#24              ; [CPU_] |154| 
    2102 00000216 020E          MOVB      ACC,#14               ; [CPU_] |154| 
    2103 00000217 0791          ADDL      ACC,*+XAR1[AR0]       ; [CPU_] |154| 
    2104 00000218 8AA9          MOVL      XAR4,ACC              ; [CPU_] |154| 
    2105 00000219 C2C4          MOVL      *+XAR4[0],XAR6        ; [CPU_] |154| 
    2106 0000021a 86BE          MOVL      XAR2,*--SP            ; [CPU_] 
    2107                      .dwcfi  cfa_offset, -4
    2108                      .dwcfi  restore_reg, 9
TMS320C2000 Assembler PC v15.12.3 Wed Nov 22 01:55:16 2017

Tools Copyright (c) 1996-2015 Texas Instruments Incorporated
C:\Users\wmj\AppData\Local\Temp\1673210                              PAGE   41

    2109 0000021b 8BBE          MOVL      XAR1,*--SP            ; [CPU_] 
    2110                      .dwcfi  cfa_offset, -2
    2111                      .dwcfi  restore_reg, 7
    2112              $C$DW$199       .dwtag  DW_TAG_TI_branch
    2113                      .dwattr $C$DW$199, DW_AT_low_pc(0x00)
    2114                      .dwattr $C$DW$199, DW_AT_TI_return
    2115              
    2116 0000021c 0006          LRETR     ; [CPU_] 
    2117                      ; return occurs ; [] 
    2118                      .dwattr $C$DW$193, DW_AT_TI_end_file("C:/Users/wmj/Desktop/BM1000_v1.1/sw/drivers/drvic/process_ctrl.
    2119                      .dwattr $C$DW$193, DW_AT_TI_end_line(0x80)
    2120                      .dwattr $C$DW$193, DW_AT_TI_end_column(0x01)
    2121                      .dwendentry
    2122                      .dwendtag $C$DW$193
    2123              
    2124 0000021d               .sect   ".text"
    2125                      .clink
    2126                      .global _PROCTRL_setupFSM
    2127              
    2128              $C$DW$200       .dwtag  DW_TAG_subprogram
    2129                      .dwattr $C$DW$200, DW_AT_name("PROCTRL_setupFSM")
    2130                      .dwattr $C$DW$200, DW_AT_low_pc(_PROCTRL_setupFSM)
    2131                      .dwattr $C$DW$200, DW_AT_high_pc(0x00)
    2132                      .dwattr $C$DW$200, DW_AT_TI_symbol_name("_PROCTRL_setupFSM")
    2133                      .dwattr $C$DW$200, DW_AT_external
    2134                      .dwattr $C$DW$200, DW_AT_TI_begin_file("C:/Users/wmj/Desktop/BM1000_v1.1/sw/drivers/drvic/process_ctr
    2135                      .dwattr $C$DW$200, DW_AT_TI_begin_line(0x98)
    2136                      .dwattr $C$DW$200, DW_AT_TI_begin_column(0x06)
    2137                      .dwattr $C$DW$200, DW_AT_TI_max_frame_size(-4)
    2138                      .dwpsn  file "C:/Users/wmj/Desktop/BM1000_v1.1/sw/drivers/drvic/process_ctrl.c",line 153,column 1,is_
    2139              
    2140                      .dwfde $C$DW$CIE, _PROCTRL_setupFSM
    2141              $C$DW$201       .dwtag  DW_TAG_formal_parameter
    2142                      .dwattr $C$DW$201, DW_AT_name("handle")
    2143                      .dwattr $C$DW$201, DW_AT_TI_symbol_name("_handle")
    2144                      .dwattr $C$DW$201, DW_AT_type(*$C$DW$T$288)
    2145                      .dwattr $C$DW$201, DW_AT_location[DW_OP_reg12]
    2146              
    2147              
    2148              ;***************************************************************
    2149              ;* FNAME: _PROCTRL_setupFSM             FR SIZE:   2           *
    2150              ;*                                                             *
    2151              ;* FUNCTION ENVIRONMENT                                        *
    2152              ;*                                                             *
    2153              ;* FUNCTION PROPERTIES                                         *
    2154              ;*                            0 Parameter,  0 Auto,  2 SOE     *
    2155              ;***************************************************************
    2156              
    2157              _PROCTRL_setupFSM:
    2158              ;* AR1   assigned to _handle
    2159              $C$DW$202       .dwtag  DW_TAG_variable
    2160                      .dwattr $C$DW$202, DW_AT_name("handle")
    2161                      .dwattr $C$DW$202, DW_AT_TI_symbol_name("_handle")
    2162                      .dwattr $C$DW$202, DW_AT_type(*$C$DW$T$289)
    2163                      .dwattr $C$DW$202, DW_AT_location[DW_OP_reg6]
TMS320C2000 Assembler PC v15.12.3 Wed Nov 22 01:55:16 2017

Tools Copyright (c) 1996-2015 Texas Instruments Incorporated
C:\Users\wmj\AppData\Local\Temp\1673210                              PAGE   42

    2164              
    2165                      .dwcfi  cfa_offset, -2
    2166                      .dwcfi  save_reg_to_mem, 26, 0
    2167 0000021d B2BD          MOVL      *SP++,XAR1            ; [CPU_] 
    2168                      .dwcfi  save_reg_to_mem, 7, 2
    2169                      .dwcfi  cfa_offset, -4
    2170 0000021e 8BA4          MOVL      XAR1,XAR4             ; [CPU_] |153| 
    2171                      .dwpsn  file "C:/Users/wmj/Desktop/BM1000_v1.1/sw/drivers/drvic/process_ctrl.c",line 156,column 4,is_
    2172 0000021f D0D4          MOVB      XAR0,#212             ; [CPU_] |156| 
    2173 00000220 8A91          MOVL      XAR4,*+XAR1[AR0]      ; [CPU_] |156| 
    2174 00000221 D0AC          MOVB      XAR0,#172             ; [CPU_] |156| 
    2175 00000222 8391          MOVL      XAR5,*+XAR1[AR0]      ; [CPU_] |156| 
    2176              $C$DW$203       .dwtag  DW_TAG_TI_branch
    2177                      .dwattr $C$DW$203, DW_AT_low_pc(0x00)
    2178                      .dwattr $C$DW$203, DW_AT_name("_FSM_setMotorHandle")
    2179                      .dwattr $C$DW$203, DW_AT_TI_call
    2180              
    2181 00000223 7640!         LCR       #_FSM_setMotorHandle  ; [CPU_] |156| 
         00000224 0000 
    2182                      ; call occurs [#_FSM_setMotorHandle] ; [] |156| 
    2183                      .dwpsn  file "C:/Users/wmj/Desktop/BM1000_v1.1/sw/drivers/drvic/process_ctrl.c",line 157,column 4,is_
    2184 00000225 D0D4          MOVB      XAR0,#212             ; [CPU_] |157| 
    2185 00000226 83C1          MOVL      XAR5,*+XAR1[0]        ; [CPU_] |157| 
    2186 00000227 8A91          MOVL      XAR4,*+XAR1[AR0]      ; [CPU_] |157| 
    2187              $C$DW$204       .dwtag  DW_TAG_TI_branch
    2188                      .dwattr $C$DW$204, DW_AT_low_pc(0x00)
    2189                      .dwattr $C$DW$204, DW_AT_name("_FSM_setHalHandle")
    2190                      .dwattr $C$DW$204, DW_AT_TI_call
    2191              
    2192 00000228 7640!         LCR       #_FSM_setHalHandle    ; [CPU_] |157| 
         00000229 0000 
    2193                      ; call occurs [#_FSM_setHalHandle] ; [] |157| 
    2194 0000022a 8BBE          MOVL      XAR1,*--SP            ; [CPU_] 
    2195                      .dwcfi  cfa_offset, -2
    2196                      .dwcfi  restore_reg, 7
    2197              $C$DW$205       .dwtag  DW_TAG_TI_branch
    2198                      .dwattr $C$DW$205, DW_AT_low_pc(0x00)
    2199                      .dwattr $C$DW$205, DW_AT_TI_return
    2200              
    2201 0000022b 0006          LRETR     ; [CPU_] 
    2202                      ; return occurs ; [] 
    2203                      .dwattr $C$DW$200, DW_AT_TI_end_file("C:/Users/wmj/Desktop/BM1000_v1.1/sw/drivers/drvic/process_ctrl.
    2204                      .dwattr $C$DW$200, DW_AT_TI_end_line(0xa4)
    2205                      .dwattr $C$DW$200, DW_AT_TI_end_column(0x01)
    2206                      .dwendentry
    2207                      .dwendtag $C$DW$200
    2208              
    2209 0000022c               .sect   ".text"
    2210                      .clink
    2211                      .global _PROCTRL_setUserParams
    2212              
    2213              $C$DW$206       .dwtag  DW_TAG_subprogram
    2214                      .dwattr $C$DW$206, DW_AT_name("PROCTRL_setUserParams")
    2215                      .dwattr $C$DW$206, DW_AT_low_pc(_PROCTRL_setUserParams)
    2216                      .dwattr $C$DW$206, DW_AT_high_pc(0x00)
TMS320C2000 Assembler PC v15.12.3 Wed Nov 22 01:55:16 2017

Tools Copyright (c) 1996-2015 Texas Instruments Incorporated
C:\Users\wmj\AppData\Local\Temp\1673210                              PAGE   43

    2217                      .dwattr $C$DW$206, DW_AT_TI_symbol_name("_PROCTRL_setUserParams")
    2218                      .dwattr $C$DW$206, DW_AT_external
    2219                      .dwattr $C$DW$206, DW_AT_TI_begin_file("C:/Users/wmj/Desktop/BM1000_v1.1/sw/drivers/drvic/process_ctr
    2220                      .dwattr $C$DW$206, DW_AT_TI_begin_line(0x4c)
    2221                      .dwattr $C$DW$206, DW_AT_TI_begin_column(0x06)
    2222                      .dwattr $C$DW$206, DW_AT_TI_max_frame_size(-2)
    2223                      .dwpsn  file "C:/Users/wmj/Desktop/BM1000_v1.1/sw/drivers/drvic/process_ctrl.c",line 77,column 1,is_s
    2224              
    2225                      .dwfde $C$DW$CIE, _PROCTRL_setUserParams
    2226              $C$DW$207       .dwtag  DW_TAG_formal_parameter
    2227                      .dwattr $C$DW$207, DW_AT_name("handle")
    2228                      .dwattr $C$DW$207, DW_AT_TI_symbol_name("_handle")
    2229                      .dwattr $C$DW$207, DW_AT_type(*$C$DW$T$288)
    2230                      .dwattr $C$DW$207, DW_AT_location[DW_OP_reg12]
    2231              
    2232              $C$DW$208       .dwtag  DW_TAG_formal_parameter
    2233                      .dwattr $C$DW$208, DW_AT_name("pUserParams")
    2234                      .dwattr $C$DW$208, DW_AT_TI_symbol_name("_pUserParams")
    2235                      .dwattr $C$DW$208, DW_AT_type(*$C$DW$T$213)
    2236                      .dwattr $C$DW$208, DW_AT_location[DW_OP_reg14]
    2237              
    2238              
    2239              ;***************************************************************
    2240              ;* FNAME: _PROCTRL_setUserParams        FR SIZE:   0           *
    2241              ;*                                                             *
    2242              ;* FUNCTION ENVIRONMENT                                        *
    2243              ;*                                                             *
    2244              ;* FUNCTION PROPERTIES                                         *
    2245              ;*                            0 Parameter,  0 Auto,  0 SOE     *
    2246              ;***************************************************************
    2247              
    2248              _PROCTRL_setUserParams:
    2249              ;* AR4   assigned to _handle
    2250              $C$DW$209       .dwtag  DW_TAG_variable
    2251                      .dwattr $C$DW$209, DW_AT_name("handle")
    2252                      .dwattr $C$DW$209, DW_AT_TI_symbol_name("_handle")
    2253                      .dwattr $C$DW$209, DW_AT_type(*$C$DW$T$289)
    2254                      .dwattr $C$DW$209, DW_AT_location[DW_OP_reg12]
    2255              
    2256              ;* AR5   assigned to _pUserParams
    2257              $C$DW$210       .dwtag  DW_TAG_variable
    2258                      .dwattr $C$DW$210, DW_AT_name("pUserParams")
    2259                      .dwattr $C$DW$210, DW_AT_TI_symbol_name("_pUserParams")
    2260                      .dwattr $C$DW$210, DW_AT_type(*$C$DW$T$300)
    2261                      .dwattr $C$DW$210, DW_AT_location[DW_OP_reg14]
    2262              
    2263                      .dwcfi  cfa_offset, -2
    2264                      .dwcfi  save_reg_to_mem, 26, 0
    2265                      .dwpsn  file "C:/Users/wmj/Desktop/BM1000_v1.1/sw/drivers/drvic/process_ctrl.c",line 80,column 3,is_s
    2266 0000022c A0E4          MOVL      *+XAR4[4],XAR5        ; [CPU_] |80| 
    2267              $C$DW$211       .dwtag  DW_TAG_TI_branch
    2268                      .dwattr $C$DW$211, DW_AT_low_pc(0x00)
    2269                      .dwattr $C$DW$211, DW_AT_TI_return
    2270              
    2271 0000022d 0006          LRETR     ; [CPU_] 
TMS320C2000 Assembler PC v15.12.3 Wed Nov 22 01:55:16 2017

Tools Copyright (c) 1996-2015 Texas Instruments Incorporated
C:\Users\wmj\AppData\Local\Temp\1673210                              PAGE   44

    2272                      ; return occurs ; [] 
    2273                      .dwattr $C$DW$206, DW_AT_TI_end_file("C:/Users/wmj/Desktop/BM1000_v1.1/sw/drivers/drvic/process_ctrl.
    2274                      .dwattr $C$DW$206, DW_AT_TI_end_line(0x53)
    2275                      .dwattr $C$DW$206, DW_AT_TI_end_column(0x01)
    2276                      .dwendentry
    2277                      .dwendtag $C$DW$206
    2278              
    2279 0000022e               .sect   ".text"
    2280                      .clink
    2281                      .global _PROCTRL_setMotorHandle
    2282              
    2283              $C$DW$212       .dwtag  DW_TAG_subprogram
    2284                      .dwattr $C$DW$212, DW_AT_name("PROCTRL_setMotorHandle")
    2285                      .dwattr $C$DW$212, DW_AT_low_pc(_PROCTRL_setMotorHandle)
    2286                      .dwattr $C$DW$212, DW_AT_high_pc(0x00)
    2287                      .dwattr $C$DW$212, DW_AT_TI_symbol_name("_PROCTRL_setMotorHandle")
    2288                      .dwattr $C$DW$212, DW_AT_external
    2289                      .dwattr $C$DW$212, DW_AT_TI_begin_file("C:/Users/wmj/Desktop/BM1000_v1.1/sw/drivers/drvic/process_ctr
    2290                      .dwattr $C$DW$212, DW_AT_TI_begin_line(0x55)
    2291                      .dwattr $C$DW$212, DW_AT_TI_begin_column(0x06)
    2292                      .dwattr $C$DW$212, DW_AT_TI_max_frame_size(-2)
    2293                      .dwpsn  file "C:/Users/wmj/Desktop/BM1000_v1.1/sw/drivers/drvic/process_ctrl.c",line 86,column 1,is_s
    2294              
    2295                      .dwfde $C$DW$CIE, _PROCTRL_setMotorHandle
    2296              $C$DW$213       .dwtag  DW_TAG_formal_parameter
    2297                      .dwattr $C$DW$213, DW_AT_name("handle")
    2298                      .dwattr $C$DW$213, DW_AT_TI_symbol_name("_handle")
    2299                      .dwattr $C$DW$213, DW_AT_type(*$C$DW$T$288)
    2300                      .dwattr $C$DW$213, DW_AT_location[DW_OP_reg12]
    2301              
    2302              $C$DW$214       .dwtag  DW_TAG_formal_parameter
    2303                      .dwattr $C$DW$214, DW_AT_name("motorHandle")
    2304                      .dwattr $C$DW$214, DW_AT_TI_symbol_name("_motorHandle")
    2305                      .dwattr $C$DW$214, DW_AT_type(*$C$DW$T$81)
    2306                      .dwattr $C$DW$214, DW_AT_location[DW_OP_reg14]
    2307              
    2308              
    2309              ;***************************************************************
    2310              ;* FNAME: _PROCTRL_setMotorHandle       FR SIZE:   0           *
    2311              ;*                                                             *
    2312              ;* FUNCTION ENVIRONMENT                                        *
    2313              ;*                                                             *
    2314              ;* FUNCTION PROPERTIES                                         *
    2315              ;*                            0 Parameter,  0 Auto,  0 SOE     *
    2316              ;***************************************************************
    2317              
    2318              _PROCTRL_setMotorHandle:
    2319              ;* AR4   assigned to _handle
    2320              $C$DW$215       .dwtag  DW_TAG_variable
    2321                      .dwattr $C$DW$215, DW_AT_name("handle")
    2322                      .dwattr $C$DW$215, DW_AT_TI_symbol_name("_handle")
    2323                      .dwattr $C$DW$215, DW_AT_type(*$C$DW$T$289)
    2324                      .dwattr $C$DW$215, DW_AT_location[DW_OP_reg12]
    2325              
    2326              ;* AR5   assigned to _motorHandle
TMS320C2000 Assembler PC v15.12.3 Wed Nov 22 01:55:16 2017

Tools Copyright (c) 1996-2015 Texas Instruments Incorporated
C:\Users\wmj\AppData\Local\Temp\1673210                              PAGE   45

    2327              $C$DW$216       .dwtag  DW_TAG_variable
    2328                      .dwattr $C$DW$216, DW_AT_name("motorHandle")
    2329                      .dwattr $C$DW$216, DW_AT_TI_symbol_name("_motorHandle")
    2330                      .dwattr $C$DW$216, DW_AT_type(*$C$DW$T$279)
    2331                      .dwattr $C$DW$216, DW_AT_location[DW_OP_reg14]
    2332              
    2333                      .dwcfi  cfa_offset, -2
    2334                      .dwcfi  save_reg_to_mem, 26, 0
    2335                      .dwpsn  file "C:/Users/wmj/Desktop/BM1000_v1.1/sw/drivers/drvic/process_ctrl.c",line 89,column 3,is_s
    2336 0000022e D0AC          MOVB      XAR0,#172             ; [CPU_] |89| 
    2337 0000022f A094          MOVL      *+XAR4[AR0],XAR5      ; [CPU_] |89| 
    2338              $C$DW$217       .dwtag  DW_TAG_TI_branch
    2339                      .dwattr $C$DW$217, DW_AT_low_pc(0x00)
    2340                      .dwattr $C$DW$217, DW_AT_TI_return
    2341              
    2342 00000230 0006          LRETR     ; [CPU_] 
    2343                      ; return occurs ; [] 
    2344                      .dwattr $C$DW$212, DW_AT_TI_end_file("C:/Users/wmj/Desktop/BM1000_v1.1/sw/drivers/drvic/process_ctrl.
    2345                      .dwattr $C$DW$212, DW_AT_TI_end_line(0x5c)
    2346                      .dwattr $C$DW$212, DW_AT_TI_end_column(0x01)
    2347                      .dwendentry
    2348                      .dwendtag $C$DW$212
    2349              
    2350 00000231               .sect   ".text"
    2351                      .clink
    2352                      .global _PROCTRL_setHalHandle
    2353              
    2354              $C$DW$218       .dwtag  DW_TAG_subprogram
    2355                      .dwattr $C$DW$218, DW_AT_name("PROCTRL_setHalHandle")
    2356                      .dwattr $C$DW$218, DW_AT_low_pc(_PROCTRL_setHalHandle)
    2357                      .dwattr $C$DW$218, DW_AT_high_pc(0x00)
    2358                      .dwattr $C$DW$218, DW_AT_TI_symbol_name("_PROCTRL_setHalHandle")
    2359                      .dwattr $C$DW$218, DW_AT_external
    2360                      .dwattr $C$DW$218, DW_AT_TI_begin_file("C:/Users/wmj/Desktop/BM1000_v1.1/sw/drivers/drvic/process_ctr
    2361                      .dwattr $C$DW$218, DW_AT_TI_begin_line(0x39)
    2362                      .dwattr $C$DW$218, DW_AT_TI_begin_column(0x06)
    2363                      .dwattr $C$DW$218, DW_AT_TI_max_frame_size(-2)
    2364                      .dwpsn  file "C:/Users/wmj/Desktop/BM1000_v1.1/sw/drivers/drvic/process_ctrl.c",line 58,column 1,is_s
    2365              
    2366                      .dwfde $C$DW$CIE, _PROCTRL_setHalHandle
    2367              $C$DW$219       .dwtag  DW_TAG_formal_parameter
    2368                      .dwattr $C$DW$219, DW_AT_name("handle")
    2369                      .dwattr $C$DW$219, DW_AT_TI_symbol_name("_handle")
    2370                      .dwattr $C$DW$219, DW_AT_type(*$C$DW$T$288)
    2371                      .dwattr $C$DW$219, DW_AT_location[DW_OP_reg12]
    2372              
    2373              $C$DW$220       .dwtag  DW_TAG_formal_parameter
    2374                      .dwattr $C$DW$220, DW_AT_name("halHandle")
    2375                      .dwattr $C$DW$220, DW_AT_TI_symbol_name("_halHandle")
    2376                      .dwattr $C$DW$220, DW_AT_type(*$C$DW$T$83)
    2377                      .dwattr $C$DW$220, DW_AT_location[DW_OP_reg14]
    2378              
    2379              
    2380              ;***************************************************************
    2381              ;* FNAME: _PROCTRL_setHalHandle         FR SIZE:   0           *
TMS320C2000 Assembler PC v15.12.3 Wed Nov 22 01:55:16 2017

Tools Copyright (c) 1996-2015 Texas Instruments Incorporated
C:\Users\wmj\AppData\Local\Temp\1673210                              PAGE   46

    2382              ;*                                                             *
    2383              ;* FUNCTION ENVIRONMENT                                        *
    2384              ;*                                                             *
    2385              ;* FUNCTION PROPERTIES                                         *
    2386              ;*                            0 Parameter,  0 Auto,  0 SOE     *
    2387              ;***************************************************************
    2388              
    2389              _PROCTRL_setHalHandle:
    2390              ;* AR4   assigned to _handle
    2391              $C$DW$221       .dwtag  DW_TAG_variable
    2392                      .dwattr $C$DW$221, DW_AT_name("handle")
    2393                      .dwattr $C$DW$221, DW_AT_TI_symbol_name("_handle")
    2394                      .dwattr $C$DW$221, DW_AT_type(*$C$DW$T$289)
    2395                      .dwattr $C$DW$221, DW_AT_location[DW_OP_reg12]
    2396              
    2397              ;* AR5   assigned to _halHandle
    2398              $C$DW$222       .dwtag  DW_TAG_variable
    2399                      .dwattr $C$DW$222, DW_AT_name("halHandle")
    2400                      .dwattr $C$DW$222, DW_AT_TI_symbol_name("_halHandle")
    2401                      .dwattr $C$DW$222, DW_AT_type(*$C$DW$T$272)
    2402                      .dwattr $C$DW$222, DW_AT_location[DW_OP_reg14]
    2403              
    2404                      .dwcfi  cfa_offset, -2
    2405                      .dwcfi  save_reg_to_mem, 26, 0
    2406                      .dwpsn  file "C:/Users/wmj/Desktop/BM1000_v1.1/sw/drivers/drvic/process_ctrl.c",line 61,column 3,is_s
    2407 00000231 A0C4          MOVL      *+XAR4[0],XAR5        ; [CPU_] |61| 
    2408              $C$DW$223       .dwtag  DW_TAG_TI_branch
    2409                      .dwattr $C$DW$223, DW_AT_low_pc(0x00)
    2410                      .dwattr $C$DW$223, DW_AT_TI_return
    2411              
    2412 00000232 0006          LRETR     ; [CPU_] 
    2413                      ; return occurs ; [] 
    2414                      .dwattr $C$DW$218, DW_AT_TI_end_file("C:/Users/wmj/Desktop/BM1000_v1.1/sw/drivers/drvic/process_ctrl.
    2415                      .dwattr $C$DW$218, DW_AT_TI_end_line(0x40)
    2416                      .dwattr $C$DW$218, DW_AT_TI_end_column(0x01)
    2417                      .dwendentry
    2418                      .dwendtag $C$DW$218
    2419              
    2420 00000233               .sect   ".text"
    2421                      .clink
    2422                      .global _PROCTRL_setDcBrakeEnable
    2423              
    2424              $C$DW$224       .dwtag  DW_TAG_subprogram
    2425                      .dwattr $C$DW$224, DW_AT_name("PROCTRL_setDcBrakeEnable")
    2426                      .dwattr $C$DW$224, DW_AT_low_pc(_PROCTRL_setDcBrakeEnable)
    2427                      .dwattr $C$DW$224, DW_AT_high_pc(0x00)
    2428                      .dwattr $C$DW$224, DW_AT_TI_symbol_name("_PROCTRL_setDcBrakeEnable")
    2429                      .dwattr $C$DW$224, DW_AT_external
    2430                      .dwattr $C$DW$224, DW_AT_TI_begin_file("C:/Users/wmj/Desktop/BM1000_v1.1/sw/drivers/drvic/process_ctr
    2431                      .dwattr $C$DW$224, DW_AT_TI_begin_line(0x373)
    2432                      .dwattr $C$DW$224, DW_AT_TI_begin_column(0x06)
    2433                      .dwattr $C$DW$224, DW_AT_TI_max_frame_size(-2)
    2434                      .dwpsn  file "C:/Users/wmj/Desktop/BM1000_v1.1/sw/drivers/drvic/process_ctrl.c",line 884,column 1,is_
    2435              
    2436                      .dwfde $C$DW$CIE, _PROCTRL_setDcBrakeEnable
TMS320C2000 Assembler PC v15.12.3 Wed Nov 22 01:55:16 2017

Tools Copyright (c) 1996-2015 Texas Instruments Incorporated
C:\Users\wmj\AppData\Local\Temp\1673210                              PAGE   47

    2437              $C$DW$225       .dwtag  DW_TAG_formal_parameter
    2438                      .dwattr $C$DW$225, DW_AT_name("handle")
    2439                      .dwattr $C$DW$225, DW_AT_TI_symbol_name("_handle")
    2440                      .dwattr $C$DW$225, DW_AT_type(*$C$DW$T$288)
    2441                      .dwattr $C$DW$225, DW_AT_location[DW_OP_reg12]
    2442              
    2443              
    2444              ;***************************************************************
    2445              ;* FNAME: _PROCTRL_setDcBrakeEnable     FR SIZE:   0           *
    2446              ;*                                                             *
    2447              ;* FUNCTION ENVIRONMENT                                        *
    2448              ;*                                                             *
    2449              ;* FUNCTION PROPERTIES                                         *
    2450              ;*                            0 Parameter,  0 Auto,  0 SOE     *
    2451              ;***************************************************************
    2452              
    2453              _PROCTRL_setDcBrakeEnable:
    2454              ;* AR4   assigned to _handle
    2455              $C$DW$226       .dwtag  DW_TAG_variable
    2456                      .dwattr $C$DW$226, DW_AT_name("handle")
    2457                      .dwattr $C$DW$226, DW_AT_TI_symbol_name("_handle")
    2458                      .dwattr $C$DW$226, DW_AT_type(*$C$DW$T$289)
    2459                      .dwattr $C$DW$226, DW_AT_location[DW_OP_reg12]
    2460              
    2461                      .dwcfi  cfa_offset, -2
    2462                      .dwcfi  save_reg_to_mem, 26, 0
    2463                      .dwpsn  file "C:/Users/wmj/Desktop/BM1000_v1.1/sw/drivers/drvic/brake.h",line 97,column 3,is_stmt,isa
    2464 00000233 D0D4          MOVB      XAR0,#212             ; [CPU_] |97| 
    2465 00000234 0224          MOVB      ACC,#36               ; [CPU_] |97| 
    2466 00000235 0794          ADDL      ACC,*+XAR4[AR0]       ; [CPU_] |97| 
    2467 00000236 83A9          MOVL      XAR5,ACC              ; [CPU_] |97| 
    2468 00000237 BE00          MOVB      XAR6,#0               ; [CPU_] |97| 
    2469 00000238 92C5          MOV       AL,*+XAR5[0]          ; [CPU_] |97| 
    2470 00000239 5201          CMPB      AL,#1                 ; [CPU_] |97| 
    2471 0000023a 56B1          MOVB      XAR6,#1,EQ            ; [CPU_] |97| 
         0000023b 01A6 
    2472 0000023c 02FE          MOVB      ACC,#254              ; [CPU_] |97| 
    2473 0000023d 07D4          ADDL      ACC,*+XAR4[2]         ; [CPU_] |97| 
    2474 0000023e 8AA9          MOVL      XAR4,ACC              ; [CPU_] |97| 
    2475 0000023f 8AC4          MOVL      XAR4,*+XAR4[0]        ; [CPU_] |97| 
    2476 00000240 7EF4          MOV       *+XAR4[6],AR6         ; [CPU_] |97| 
    2477              $C$DW$227       .dwtag  DW_TAG_TI_branch
    2478                      .dwattr $C$DW$227, DW_AT_low_pc(0x00)
    2479                      .dwattr $C$DW$227, DW_AT_TI_return
    2480              
    2481 00000241 0006          LRETR     ; [CPU_] 
    2482                      ; return occurs ; [] 
    2483                      .dwattr $C$DW$224, DW_AT_TI_end_file("C:/Users/wmj/Desktop/BM1000_v1.1/sw/drivers/drvic/process_ctrl.
    2484                      .dwattr $C$DW$224, DW_AT_TI_end_line(0x380)
    2485                      .dwattr $C$DW$224, DW_AT_TI_end_column(0x01)
    2486                      .dwendentry
    2487                      .dwendtag $C$DW$224
    2488              
    2489 00000242               .sect   ".text"
    2490                      .clink
TMS320C2000 Assembler PC v15.12.3 Wed Nov 22 01:55:16 2017

Tools Copyright (c) 1996-2015 Texas Instruments Incorporated
C:\Users\wmj\AppData\Local\Temp\1673210                              PAGE   48

    2491                      .global _PROCTRL_setDcBrakeCurrent
    2492              
    2493              $C$DW$228       .dwtag  DW_TAG_subprogram
    2494                      .dwattr $C$DW$228, DW_AT_name("PROCTRL_setDcBrakeCurrent")
    2495                      .dwattr $C$DW$228, DW_AT_low_pc(_PROCTRL_setDcBrakeCurrent)
    2496                      .dwattr $C$DW$228, DW_AT_high_pc(0x00)
    2497                      .dwattr $C$DW$228, DW_AT_TI_symbol_name("_PROCTRL_setDcBrakeCurrent")
    2498                      .dwattr $C$DW$228, DW_AT_external
    2499                      .dwattr $C$DW$228, DW_AT_TI_begin_file("C:/Users/wmj/Desktop/BM1000_v1.1/sw/drivers/drvic/process_ctr
    2500                      .dwattr $C$DW$228, DW_AT_TI_begin_line(0x382)
    2501                      .dwattr $C$DW$228, DW_AT_TI_begin_column(0x06)
    2502                      .dwattr $C$DW$228, DW_AT_TI_max_frame_size(-14)
    2503                      .dwpsn  file "C:/Users/wmj/Desktop/BM1000_v1.1/sw/drivers/drvic/process_ctrl.c",line 899,column 1,is_
    2504              
    2505                      .dwfde $C$DW$CIE, _PROCTRL_setDcBrakeCurrent
    2506              $C$DW$229       .dwtag  DW_TAG_formal_parameter
    2507                      .dwattr $C$DW$229, DW_AT_name("handle")
    2508                      .dwattr $C$DW$229, DW_AT_TI_symbol_name("_handle")
    2509                      .dwattr $C$DW$229, DW_AT_type(*$C$DW$T$288)
    2510                      .dwattr $C$DW$229, DW_AT_location[DW_OP_reg12]
    2511              
    2512              
    2513              ;***************************************************************
    2514              ;* FNAME: _PROCTRL_setDcBrakeCurrent    FR SIZE:  12           *
    2515              ;*                                                             *
    2516              ;* FUNCTION ENVIRONMENT                                        *
    2517              ;*                                                             *
    2518              ;* FUNCTION PROPERTIES                                         *
    2519              ;*                            2 Parameter,  8 Auto,  2 SOE     *
    2520              ;***************************************************************
    2521              
    2522              _PROCTRL_setDcBrakeCurrent:
    2523              ;* AR4   assigned to $O$C1
    2524              ;* AR1   assigned to _handle
    2525              $C$DW$230       .dwtag  DW_TAG_variable
    2526                      .dwattr $C$DW$230, DW_AT_name("handle")
    2527                      .dwattr $C$DW$230, DW_AT_TI_symbol_name("_handle")
    2528                      .dwattr $C$DW$230, DW_AT_type(*$C$DW$T$289)
    2529                      .dwattr $C$DW$230, DW_AT_location[DW_OP_reg6]
    2530              
    2531                      .dwcfi  cfa_offset, -2
    2532                      .dwcfi  save_reg_to_mem, 26, 0
    2533 00000242 B2BD          MOVL      *SP++,XAR1            ; [CPU_] 
    2534                      .dwcfi  save_reg_to_mem, 7, 2
    2535                      .dwcfi  cfa_offset, -4
    2536 00000243 FE0A          ADDB      SP,#10                ; [CPU_U] 
    2537                      .dwcfi  cfa_offset, -14
    2538 00000244 8BA4          MOVL      XAR1,XAR4             ; [CPU_] |899| 
    2539                      .dwpsn  file "C:/Users/wmj/Desktop/BM1000_v1.1/sw/drivers/drvic/brake.h",line 71,column 3,is_stmt,isa
    2540 00000245 8AE1          MOVL      XAR4,*+XAR1[4]        ; [CPU_] |71| 
    2541 00000246 D04A          MOVB      XAR0,#74              ; [CPU_] |71| 
    2542 00000247 06C4          MOVL      ACC,*+XAR4[0]         ; [CPU_] |71| 
    2543 00000248 1E42          MOVL      *-SP[2],ACC           ; [CPU_] |71| 
    2544 00000249 0694          MOVL      ACC,*+XAR4[AR0]       ; [CPU_] |71| 
    2545              $C$DW$231       .dwtag  DW_TAG_TI_branch
TMS320C2000 Assembler PC v15.12.3 Wed Nov 22 01:55:16 2017

Tools Copyright (c) 1996-2015 Texas Instruments Incorporated
C:\Users\wmj\AppData\Local\Temp\1673210                              PAGE   49

    2546                      .dwattr $C$DW$231, DW_AT_low_pc(0x00)
    2547                      .dwattr $C$DW$231, DW_AT_name("FS$$DIV")
    2548                      .dwattr $C$DW$231, DW_AT_TI_call
    2549              
    2550 0000024a 7640!         LCR       #FS$$DIV              ; [CPU_] |71| 
         0000024b 0000 
    2551                      ; call occurs [#FS$$DIV] ; [] |71| 
    2552 0000024c 5CAD          MOVZ      AR4,SP                ; [CPU_] |71| 
    2553 0000024d DC8A          SUBB      XAR4,#10              ; [CPU_U] |71| 
    2554 0000024e 88A4          MOVZ      AR6,AR4               ; [CPU_] |71| 
    2555              $C$DW$232       .dwtag  DW_TAG_TI_branch
    2556                      .dwattr $C$DW$232, DW_AT_low_pc(0x00)
    2557                      .dwattr $C$DW$232, DW_AT_name("FS$$TOFD")
    2558                      .dwattr $C$DW$232, DW_AT_TI_call
    2559              
    2560 0000024f 7640!         LCR       #FS$$TOFD             ; [CPU_] |71| 
         00000250 0000 
    2561                      ; call occurs [#FS$$TOFD] ; [] |71| 
    2562 00000251 5DAD          MOVZ      AR5,SP                ; [CPU_] |71| 
    2563 00000252 5CAD          MOVZ      AR4,SP                ; [CPU_] |71| 
    2564 00000253 DD86          SUBB      XAR5,#6               ; [CPU_U] |71| 
    2565 00000254 DC8A          SUBB      XAR4,#10              ; [CPU_U] |71| 
    2566 00000255 88A5          MOVZ      AR6,AR5               ; [CPU_] |71| 
    2567 00000256 5CA4          MOVZ      AR4,AR4               ; [CPU_] |71| 
    2568 00000257 8F40+         MOVL      XAR5,#$C$FL1          ; [CPU_U] |71| 
         00000258 0000 
    2569              $C$DW$233       .dwtag  DW_TAG_TI_branch
    2570                      .dwattr $C$DW$233, DW_AT_low_pc(0x00)
    2571                      .dwattr $C$DW$233, DW_AT_name("FD$$MPY")
    2572                      .dwattr $C$DW$233, DW_AT_TI_call
    2573              
    2574 00000259 7640!         LCR       #FD$$MPY              ; [CPU_] |71| 
         0000025a 0000 
    2575                      ; call occurs [#FD$$MPY] ; [] |71| 
    2576 0000025b 5CAD          MOVZ      AR4,SP                ; [CPU_] |71| 
    2577 0000025c DC86          SUBB      XAR4,#6               ; [CPU_U] |71| 
    2578 0000025d 5CA4          MOVZ      AR4,AR4               ; [CPU_] |71| 
    2579              $C$DW$234       .dwtag  DW_TAG_TI_branch
    2580                      .dwattr $C$DW$234, DW_AT_low_pc(0x00)
    2581                      .dwattr $C$DW$234, DW_AT_name("FD$$TOL")
    2582                      .dwattr $C$DW$234, DW_AT_TI_call
    2583              
    2584 0000025e 7640!         LCR       #FD$$TOL              ; [CPU_] |71| 
         0000025f 0000 
    2585                      ; call occurs [#FD$$TOL] ; [] |71| 
    2586 00000260 D0AC          MOVB      XAR0,#172             ; [CPU_] |71| 
    2587 00000261 1EA6          MOVL      XAR6,ACC              ; [CPU_] |71| 
    2588 00000262 0256          MOVB      ACC,#86               ; [CPU_] |71| 
    2589 00000263 0791          ADDL      ACC,*+XAR1[AR0]       ; [CPU_] |71| 
    2590 00000264 8AA9          MOVL      XAR4,ACC              ; [CPU_] |71| 
    2591 00000265 87C4          MOVL      XT,*+XAR4[0]          ; [CPU_] |71| 
    2592 00000266 5605          IMPYL     P,XT,XAR6             ; [CPU_] |71| 
         00000267 00A6 
    2593 00000268 5663          QMPYL     ACC,XT,XAR6           ; [CPU_] |71| 
         00000269 00A6 
TMS320C2000 Assembler PC v15.12.3 Wed Nov 22 01:55:16 2017

Tools Copyright (c) 1996-2015 Texas Instruments Incorporated
C:\Users\wmj\AppData\Local\Temp\1673210                              PAGE   50

    2594 0000026a 56A7          LSL64     ACC:P,#8              ; [CPU_] |71| 
    2595 0000026b 1EA6          MOVL      XAR6,ACC              ; [CPU_] |71| 
    2596 0000026c 02FE          MOVB      ACC,#254              ; [CPU_] |71| 
    2597 0000026d 07D1          ADDL      ACC,*+XAR1[2]         ; [CPU_] |71| 
    2598 0000026e 8AA9          MOVL      XAR4,ACC              ; [CPU_] |71| 
    2599 0000026f 8AC4          MOVL      XAR4,*+XAR4[0]        ; [CPU_] |71| 
    2600 00000270 C2D4          MOVL      *+XAR4[2],XAR6        ; [CPU_] |71| 
    2601 00000271 FE8A          SUBB      SP,#10                ; [CPU_U] 
    2602                      .dwcfi  cfa_offset, -4
    2603 00000272 8BBE          MOVL      XAR1,*--SP            ; [CPU_] 
    2604                      .dwcfi  cfa_offset, -2
    2605                      .dwcfi  restore_reg, 7
    2606              $C$DW$235       .dwtag  DW_TAG_TI_branch
    2607                      .dwattr $C$DW$235, DW_AT_low_pc(0x00)
    2608                      .dwattr $C$DW$235, DW_AT_TI_return
    2609              
    2610 00000273 0006          LRETR     ; [CPU_] 
    2611                      ; return occurs ; [] 
    2612                      .dwattr $C$DW$228, DW_AT_TI_end_file("C:/Users/wmj/Desktop/BM1000_v1.1/sw/drivers/drvic/process_ctrl.
    2613                      .dwattr $C$DW$228, DW_AT_TI_end_line(0x38f)
    2614                      .dwattr $C$DW$228, DW_AT_TI_end_column(0x01)
    2615                      .dwendentry
    2616                      .dwendtag $C$DW$228
    2617              
    2618 00000274               .sect   ".text"
    2619                      .clink
    2620                      .global _PROCTRL_setCtrlHandle
    2621              
    2622              $C$DW$236       .dwtag  DW_TAG_subprogram
    2623                      .dwattr $C$DW$236, DW_AT_name("PROCTRL_setCtrlHandle")
    2624                      .dwattr $C$DW$236, DW_AT_low_pc(_PROCTRL_setCtrlHandle)
    2625                      .dwattr $C$DW$236, DW_AT_high_pc(0x00)
    2626                      .dwattr $C$DW$236, DW_AT_TI_symbol_name("_PROCTRL_setCtrlHandle")
    2627                      .dwattr $C$DW$236, DW_AT_external
    2628                      .dwattr $C$DW$236, DW_AT_TI_begin_file("C:/Users/wmj/Desktop/BM1000_v1.1/sw/drivers/drvic/process_ctr
    2629                      .dwattr $C$DW$236, DW_AT_TI_begin_line(0x43)
    2630                      .dwattr $C$DW$236, DW_AT_TI_begin_column(0x06)
    2631                      .dwattr $C$DW$236, DW_AT_TI_max_frame_size(-2)
    2632                      .dwpsn  file "C:/Users/wmj/Desktop/BM1000_v1.1/sw/drivers/drvic/process_ctrl.c",line 68,column 1,is_s
    2633              
    2634                      .dwfde $C$DW$CIE, _PROCTRL_setCtrlHandle
    2635              $C$DW$237       .dwtag  DW_TAG_formal_parameter
    2636                      .dwattr $C$DW$237, DW_AT_name("handle")
    2637                      .dwattr $C$DW$237, DW_AT_TI_symbol_name("_handle")
    2638                      .dwattr $C$DW$237, DW_AT_type(*$C$DW$T$288)
    2639                      .dwattr $C$DW$237, DW_AT_location[DW_OP_reg12]
    2640              
    2641              $C$DW$238       .dwtag  DW_TAG_formal_parameter
    2642                      .dwattr $C$DW$238, DW_AT_name("ctrlHandle")
    2643                      .dwattr $C$DW$238, DW_AT_TI_symbol_name("_ctrlHandle")
    2644                      .dwattr $C$DW$238, DW_AT_type(*$C$DW$T$211)
    2645                      .dwattr $C$DW$238, DW_AT_location[DW_OP_reg14]
    2646              
    2647              
    2648              ;***************************************************************
TMS320C2000 Assembler PC v15.12.3 Wed Nov 22 01:55:16 2017

Tools Copyright (c) 1996-2015 Texas Instruments Incorporated
C:\Users\wmj\AppData\Local\Temp\1673210                              PAGE   51

    2649              ;* FNAME: _PROCTRL_setCtrlHandle        FR SIZE:   0           *
    2650              ;*                                                             *
    2651              ;* FUNCTION ENVIRONMENT                                        *
    2652              ;*                                                             *
    2653              ;* FUNCTION PROPERTIES                                         *
    2654              ;*                            0 Parameter,  0 Auto,  0 SOE     *
    2655              ;***************************************************************
    2656              
    2657              _PROCTRL_setCtrlHandle:
    2658              ;* AR4   assigned to _handle
    2659              $C$DW$239       .dwtag  DW_TAG_variable
    2660                      .dwattr $C$DW$239, DW_AT_name("handle")
    2661                      .dwattr $C$DW$239, DW_AT_TI_symbol_name("_handle")
    2662                      .dwattr $C$DW$239, DW_AT_type(*$C$DW$T$289)
    2663                      .dwattr $C$DW$239, DW_AT_location[DW_OP_reg12]
    2664              
    2665              ;* AR5   assigned to _ctrlHandle
    2666              $C$DW$240       .dwtag  DW_TAG_variable
    2667                      .dwattr $C$DW$240, DW_AT_name("ctrlHandle")
    2668                      .dwattr $C$DW$240, DW_AT_TI_symbol_name("_ctrlHandle")
    2669                      .dwattr $C$DW$240, DW_AT_type(*$C$DW$T$249)
    2670                      .dwattr $C$DW$240, DW_AT_location[DW_OP_reg14]
    2671              
    2672                      .dwcfi  cfa_offset, -2
    2673                      .dwcfi  save_reg_to_mem, 26, 0
    2674                      .dwpsn  file "C:/Users/wmj/Desktop/BM1000_v1.1/sw/drivers/drvic/process_ctrl.c",line 71,column 3,is_s
    2675 00000274 A0D4          MOVL      *+XAR4[2],XAR5        ; [CPU_] |71| 
    2676              $C$DW$241       .dwtag  DW_TAG_TI_branch
    2677                      .dwattr $C$DW$241, DW_AT_low_pc(0x00)
    2678                      .dwattr $C$DW$241, DW_AT_TI_return
    2679              
    2680 00000275 0006          LRETR     ; [CPU_] 
    2681                      ; return occurs ; [] 
    2682                      .dwattr $C$DW$236, DW_AT_TI_end_file("C:/Users/wmj/Desktop/BM1000_v1.1/sw/drivers/drvic/process_ctrl.
    2683                      .dwattr $C$DW$236, DW_AT_TI_end_line(0x4a)
    2684                      .dwattr $C$DW$236, DW_AT_TI_end_column(0x01)
    2685                      .dwendentry
    2686                      .dwendtag $C$DW$236
    2687              
    2688 00000276               .sect   ".text"
    2689                      .clink
    2690                      .global _PROCTRL_setBoardBias
    2691              
    2692              $C$DW$242       .dwtag  DW_TAG_subprogram
    2693                      .dwattr $C$DW$242, DW_AT_name("PROCTRL_setBoardBias")
    2694                      .dwattr $C$DW$242, DW_AT_low_pc(_PROCTRL_setBoardBias)
    2695                      .dwattr $C$DW$242, DW_AT_high_pc(0x00)
    2696                      .dwattr $C$DW$242, DW_AT_TI_symbol_name("_PROCTRL_setBoardBias")
    2697                      .dwattr $C$DW$242, DW_AT_external
    2698                      .dwattr $C$DW$242, DW_AT_TI_begin_file("C:/Users/wmj/Desktop/BM1000_v1.1/sw/drivers/drvic/process_ctr
    2699                      .dwattr $C$DW$242, DW_AT_TI_begin_line(0x18e)
    2700                      .dwattr $C$DW$242, DW_AT_TI_begin_column(0x06)
    2701                      .dwattr $C$DW$242, DW_AT_TI_max_frame_size(-14)
    2702                      .dwpsn  file "C:/Users/wmj/Desktop/BM1000_v1.1/sw/drivers/drvic/process_ctrl.c",line 399,column 1,is_
    2703              
TMS320C2000 Assembler PC v15.12.3 Wed Nov 22 01:55:16 2017

Tools Copyright (c) 1996-2015 Texas Instruments Incorporated
C:\Users\wmj\AppData\Local\Temp\1673210                              PAGE   52

    2704                      .dwfde $C$DW$CIE, _PROCTRL_setBoardBias
    2705              $C$DW$243       .dwtag  DW_TAG_formal_parameter
    2706                      .dwattr $C$DW$243, DW_AT_name("handle")
    2707                      .dwattr $C$DW$243, DW_AT_TI_symbol_name("_handle")
    2708                      .dwattr $C$DW$243, DW_AT_type(*$C$DW$T$288)
    2709                      .dwattr $C$DW$243, DW_AT_location[DW_OP_reg12]
    2710              
    2711              $C$DW$244       .dwtag  DW_TAG_formal_parameter
    2712                      .dwattr $C$DW$244, DW_AT_name("Offset")
    2713                      .dwattr $C$DW$244, DW_AT_TI_symbol_name("_Offset")
    2714                      .dwattr $C$DW$244, DW_AT_type(*$C$DW$T$359)
    2715                      .dwattr $C$DW$244, DW_AT_location[DW_OP_reg14]
    2716              
    2717              
    2718              ;***************************************************************
    2719              ;* FNAME: _PROCTRL_setBoardBias         FR SIZE:  12           *
    2720              ;*                                                             *
    2721              ;* FUNCTION ENVIRONMENT                                        *
    2722              ;*                                                             *
    2723              ;* FUNCTION PROPERTIES                                         *
    2724              ;*                            0 Parameter,  8 Auto,  4 SOE     *
    2725              ;***************************************************************
    2726              
    2727              _PROCTRL_setBoardBias:
    2728              ;* AR2   assigned to _Offset
    2729              $C$DW$245       .dwtag  DW_TAG_variable
    2730                      .dwattr $C$DW$245, DW_AT_name("Offset")
    2731                      .dwattr $C$DW$245, DW_AT_TI_symbol_name("_Offset")
    2732                      .dwattr $C$DW$245, DW_AT_type(*$C$DW$T$401)
    2733                      .dwattr $C$DW$245, DW_AT_location[DW_OP_reg8]
    2734              
    2735              ;* AR1   assigned to _handle
    2736              $C$DW$246       .dwtag  DW_TAG_variable
    2737                      .dwattr $C$DW$246, DW_AT_name("handle")
    2738                      .dwattr $C$DW$246, DW_AT_TI_symbol_name("_handle")
    2739                      .dwattr $C$DW$246, DW_AT_type(*$C$DW$T$289)
    2740                      .dwattr $C$DW$246, DW_AT_location[DW_OP_reg6]
    2741              
    2742                      .dwcfi  cfa_offset, -2
    2743                      .dwcfi  save_reg_to_mem, 26, 0
    2744 00000276 B2BD          MOVL      *SP++,XAR1            ; [CPU_] 
    2745                      .dwcfi  save_reg_to_mem, 7, 2
    2746                      .dwcfi  cfa_offset, -4
    2747 00000277 AABD          MOVL      *SP++,XAR2            ; [CPU_] 
    2748                      .dwcfi  save_reg_to_mem, 9, 4
    2749                      .dwcfi  cfa_offset, -6
    2750 00000278 FE08          ADDB      SP,#8                 ; [CPU_U] 
    2751                      .dwcfi  cfa_offset, -14
    2752 00000279 8BA4          MOVL      XAR1,XAR4             ; [CPU_] |399| 
    2753                      .dwpsn  file "C:/Users/wmj/Desktop/BM1000_v1.1/sw/modules/hal/boards/hvkit_rev1p1/f28x/f2802x/src/hal
    2754 0000027a 5CAD          MOVZ      AR4,SP                ; [CPU_] |785| 
    2755                      .dwpsn  file "C:/Users/wmj/Desktop/BM1000_v1.1/sw/drivers/drvic/process_ctrl.c",line 399,column 1,is_
    2756 0000027b 86A5          MOVL      XAR2,XAR5             ; [CPU_] |399| 
    2757                      .dwpsn  file "C:/Users/wmj/Desktop/BM1000_v1.1/sw/modules/hal/boards/hvkit_rev1p1/f28x/f2802x/src/hal
    2758 0000027c DC88          SUBB      XAR4,#8               ; [CPU_U] |785| 
TMS320C2000 Assembler PC v15.12.3 Wed Nov 22 01:55:16 2017

Tools Copyright (c) 1996-2015 Texas Instruments Incorporated
C:\Users\wmj\AppData\Local\Temp\1673210                              PAGE   53

    2759 0000027d 06C2          MOVL      ACC,*+XAR2[0]         ; [CPU_] |785| 
    2760 0000027e 88A4          MOVZ      AR6,AR4               ; [CPU_] |785| 
    2761              $C$DW$247       .dwtag  DW_TAG_TI_branch
    2762                      .dwattr $C$DW$247, DW_AT_low_pc(0x00)
    2763                      .dwattr $C$DW$247, DW_AT_name("FS$$TOFD")
    2764                      .dwattr $C$DW$247, DW_AT_TI_call
    2765              
    2766 0000027f 7640!         LCR       #FS$$TOFD             ; [CPU_] |785| 
         00000280 0000 
    2767                      ; call occurs [#FS$$TOFD] ; [] |785| 
    2768 00000281 5DAD          MOVZ      AR5,SP                ; [CPU_] |785| 
    2769 00000282 5CAD          MOVZ      AR4,SP                ; [CPU_] |785| 
    2770 00000283 DD84          SUBB      XAR5,#4               ; [CPU_U] |785| 
    2771 00000284 DC88          SUBB      XAR4,#8               ; [CPU_U] |785| 
    2772 00000285 88A5          MOVZ      AR6,AR5               ; [CPU_] |785| 
    2773 00000286 5CA4          MOVZ      AR4,AR4               ; [CPU_] |785| 
    2774 00000287 8F40+         MOVL      XAR5,#$C$FL1          ; [CPU_U] |785| 
         00000288 0000 
    2775              $C$DW$248       .dwtag  DW_TAG_TI_branch
    2776                      .dwattr $C$DW$248, DW_AT_low_pc(0x00)
    2777                      .dwattr $C$DW$248, DW_AT_name("FD$$MPY")
    2778                      .dwattr $C$DW$248, DW_AT_TI_call
    2779              
    2780 00000289 7640!         LCR       #FD$$MPY              ; [CPU_] |785| 
         0000028a 0000 
    2781                      ; call occurs [#FD$$MPY] ; [] |785| 
    2782 0000028b 5CAD          MOVZ      AR4,SP                ; [CPU_] |785| 
    2783 0000028c DC84          SUBB      XAR4,#4               ; [CPU_U] |785| 
    2784 0000028d 5CA4          MOVZ      AR4,AR4               ; [CPU_] |785| 
    2785              $C$DW$249       .dwtag  DW_TAG_TI_branch
    2786                      .dwattr $C$DW$249, DW_AT_low_pc(0x00)
    2787                      .dwattr $C$DW$249, DW_AT_name("FD$$TOL")
    2788                      .dwattr $C$DW$249, DW_AT_TI_call
    2789              
    2790 0000028e 7640!         LCR       #FD$$TOL              ; [CPU_] |785| 
         0000028f 0000 
    2791                      ; call occurs [#FD$$TOL] ; [] |785| 
    2792 00000290 1EA6          MOVL      XAR6,ACC              ; [CPU_] |785| 
    2793 00000291 0296          MOVB      ACC,#150              ; [CPU_] |785| 
    2794 00000292 07C1          ADDL      ACC,*+XAR1[0]         ; [CPU_] |785| 
    2795 00000293 8AA9          MOVL      XAR4,ACC              ; [CPU_] |785| 
    2796 00000294 C2C4          MOVL      *+XAR4[0],XAR6        ; [CPU_] |785| 
    2797 00000295 5CAD          MOVZ      AR4,SP                ; [CPU_] |785| 
    2798 00000296 DC88          SUBB      XAR4,#8               ; [CPU_U] |785| 
    2799 00000297 06D2          MOVL      ACC,*+XAR2[2]         ; [CPU_] |785| 
    2800 00000298 88A4          MOVZ      AR6,AR4               ; [CPU_] |785| 
    2801              $C$DW$250       .dwtag  DW_TAG_TI_branch
    2802                      .dwattr $C$DW$250, DW_AT_low_pc(0x00)
    2803                      .dwattr $C$DW$250, DW_AT_name("FS$$TOFD")
    2804                      .dwattr $C$DW$250, DW_AT_TI_call
    2805              
    2806 00000299 7640!         LCR       #FS$$TOFD             ; [CPU_] |785| 
         0000029a 0000 
    2807                      ; call occurs [#FS$$TOFD] ; [] |785| 
    2808 0000029b 5DAD          MOVZ      AR5,SP                ; [CPU_] |785| 
TMS320C2000 Assembler PC v15.12.3 Wed Nov 22 01:55:16 2017

Tools Copyright (c) 1996-2015 Texas Instruments Incorporated
C:\Users\wmj\AppData\Local\Temp\1673210                              PAGE   54

    2809 0000029c 5CAD          MOVZ      AR4,SP                ; [CPU_] |785| 
    2810 0000029d DD84          SUBB      XAR5,#4               ; [CPU_U] |785| 
    2811 0000029e DC88          SUBB      XAR4,#8               ; [CPU_U] |785| 
    2812 0000029f 88A5          MOVZ      AR6,AR5               ; [CPU_] |785| 
    2813 000002a0 5CA4          MOVZ      AR4,AR4               ; [CPU_] |785| 
    2814 000002a1 8F40+         MOVL      XAR5,#$C$FL1          ; [CPU_U] |785| 
         000002a2 0000 
    2815              $C$DW$251       .dwtag  DW_TAG_TI_branch
    2816                      .dwattr $C$DW$251, DW_AT_low_pc(0x00)
    2817                      .dwattr $C$DW$251, DW_AT_name("FD$$MPY")
    2818                      .dwattr $C$DW$251, DW_AT_TI_call
    2819              
    2820 000002a3 7640!         LCR       #FD$$MPY              ; [CPU_] |785| 
         000002a4 0000 
    2821                      ; call occurs [#FD$$MPY] ; [] |785| 
    2822 000002a5 5CAD          MOVZ      AR4,SP                ; [CPU_] |785| 
    2823 000002a6 DC84          SUBB      XAR4,#4               ; [CPU_U] |785| 
    2824 000002a7 5CA4          MOVZ      AR4,AR4               ; [CPU_] |785| 
    2825              $C$DW$252       .dwtag  DW_TAG_TI_branch
    2826                      .dwattr $C$DW$252, DW_AT_low_pc(0x00)
    2827                      .dwattr $C$DW$252, DW_AT_name("FD$$TOL")
    2828                      .dwattr $C$DW$252, DW_AT_TI_call
    2829              
    2830 000002a8 7640!         LCR       #FD$$TOL              ; [CPU_] |785| 
         000002a9 0000 
    2831                      ; call occurs [#FD$$TOL] ; [] |785| 
    2832 000002aa 1EA6          MOVL      XAR6,ACC              ; [CPU_] |785| 
    2833 000002ab 0298          MOVB      ACC,#152              ; [CPU_] |785| 
    2834 000002ac 07C1          ADDL      ACC,*+XAR1[0]         ; [CPU_] |785| 
    2835 000002ad 8AA9          MOVL      XAR4,ACC              ; [CPU_] |785| 
    2836 000002ae C2C4          MOVL      *+XAR4[0],XAR6        ; [CPU_] |785| 
    2837 000002af 5CAD          MOVZ      AR4,SP                ; [CPU_] |785| 
    2838 000002b0 DC88          SUBB      XAR4,#8               ; [CPU_U] |785| 
    2839 000002b1 06E2          MOVL      ACC,*+XAR2[4]         ; [CPU_] |785| 
    2840 000002b2 88A4          MOVZ      AR6,AR4               ; [CPU_] |785| 
    2841              $C$DW$253       .dwtag  DW_TAG_TI_branch
    2842                      .dwattr $C$DW$253, DW_AT_low_pc(0x00)
    2843                      .dwattr $C$DW$253, DW_AT_name("FS$$TOFD")
    2844                      .dwattr $C$DW$253, DW_AT_TI_call
    2845              
    2846 000002b3 7640!         LCR       #FS$$TOFD             ; [CPU_] |785| 
         000002b4 0000 
    2847                      ; call occurs [#FS$$TOFD] ; [] |785| 
    2848 000002b5 5DAD          MOVZ      AR5,SP                ; [CPU_] |785| 
    2849 000002b6 5CAD          MOVZ      AR4,SP                ; [CPU_] |785| 
    2850 000002b7 DD84          SUBB      XAR5,#4               ; [CPU_U] |785| 
    2851 000002b8 DC88          SUBB      XAR4,#8               ; [CPU_U] |785| 
    2852 000002b9 88A5          MOVZ      AR6,AR5               ; [CPU_] |785| 
    2853 000002ba 5CA4          MOVZ      AR4,AR4               ; [CPU_] |785| 
    2854 000002bb 8F40+         MOVL      XAR5,#$C$FL1          ; [CPU_U] |785| 
         000002bc 0000 
    2855              $C$DW$254       .dwtag  DW_TAG_TI_branch
    2856                      .dwattr $C$DW$254, DW_AT_low_pc(0x00)
    2857                      .dwattr $C$DW$254, DW_AT_name("FD$$MPY")
    2858                      .dwattr $C$DW$254, DW_AT_TI_call
TMS320C2000 Assembler PC v15.12.3 Wed Nov 22 01:55:16 2017

Tools Copyright (c) 1996-2015 Texas Instruments Incorporated
C:\Users\wmj\AppData\Local\Temp\1673210                              PAGE   55

    2859              
    2860 000002bd 7640!         LCR       #FD$$MPY              ; [CPU_] |785| 
         000002be 0000 
    2861                      ; call occurs [#FD$$MPY] ; [] |785| 
    2862 000002bf 5CAD          MOVZ      AR4,SP                ; [CPU_] |785| 
    2863 000002c0 DC84          SUBB      XAR4,#4               ; [CPU_U] |785| 
    2864 000002c1 5CA4          MOVZ      AR4,AR4               ; [CPU_] |785| 
    2865              $C$DW$255       .dwtag  DW_TAG_TI_branch
    2866                      .dwattr $C$DW$255, DW_AT_low_pc(0x00)
    2867                      .dwattr $C$DW$255, DW_AT_name("FD$$TOL")
    2868                      .dwattr $C$DW$255, DW_AT_TI_call
    2869              
    2870 000002c2 7640!         LCR       #FD$$TOL              ; [CPU_] |785| 
         000002c3 0000 
    2871                      ; call occurs [#FD$$TOL] ; [] |785| 
    2872 000002c4 1EA6          MOVL      XAR6,ACC              ; [CPU_] |785| 
    2873 000002c5 029A          MOVB      ACC,#154              ; [CPU_] |785| 
    2874 000002c6 07C1          ADDL      ACC,*+XAR1[0]         ; [CPU_] |785| 
    2875 000002c7 8AA9          MOVL      XAR4,ACC              ; [CPU_] |785| 
    2876 000002c8 C2C4          MOVL      *+XAR4[0],XAR6        ; [CPU_] |785| 
    2877                      .dwpsn  file "C:/Users/wmj/Desktop/BM1000_v1.1/sw/modules/hal/boards/hvkit_rev1p1/f28x/f2802x/src/hal
    2878 000002c9 5CAD          MOVZ      AR4,SP                ; [CPU_] |789| 
    2879 000002ca 06F2          MOVL      ACC,*+XAR2[6]         ; [CPU_] |789| 
    2880 000002cb DC88          SUBB      XAR4,#8               ; [CPU_U] |789| 
    2881 000002cc 88A4          MOVZ      AR6,AR4               ; [CPU_] |789| 
    2882              $C$DW$256       .dwtag  DW_TAG_TI_branch
    2883                      .dwattr $C$DW$256, DW_AT_low_pc(0x00)
    2884                      .dwattr $C$DW$256, DW_AT_name("FS$$TOFD")
    2885                      .dwattr $C$DW$256, DW_AT_TI_call
    2886              
    2887 000002cd 7640!         LCR       #FS$$TOFD             ; [CPU_] |789| 
         000002ce 0000 
    2888                      ; call occurs [#FS$$TOFD] ; [] |789| 
    2889 000002cf 5DAD          MOVZ      AR5,SP                ; [CPU_] |789| 
    2890 000002d0 5CAD          MOVZ      AR4,SP                ; [CPU_] |789| 
    2891 000002d1 DD84          SUBB      XAR5,#4               ; [CPU_U] |789| 
    2892 000002d2 DC88          SUBB      XAR4,#8               ; [CPU_U] |789| 
    2893 000002d3 88A5          MOVZ      AR6,AR5               ; [CPU_] |789| 
    2894 000002d4 5CA4          MOVZ      AR4,AR4               ; [CPU_] |789| 
    2895 000002d5 8F40+         MOVL      XAR5,#$C$FL1          ; [CPU_U] |789| 
         000002d6 0000 
    2896              $C$DW$257       .dwtag  DW_TAG_TI_branch
    2897                      .dwattr $C$DW$257, DW_AT_low_pc(0x00)
    2898                      .dwattr $C$DW$257, DW_AT_name("FD$$MPY")
    2899                      .dwattr $C$DW$257, DW_AT_TI_call
    2900              
    2901 000002d7 7640!         LCR       #FD$$MPY              ; [CPU_] |789| 
         000002d8 0000 
    2902                      ; call occurs [#FD$$MPY] ; [] |789| 
    2903 000002d9 5CAD          MOVZ      AR4,SP                ; [CPU_] |789| 
    2904 000002da DC84          SUBB      XAR4,#4               ; [CPU_U] |789| 
    2905 000002db 5CA4          MOVZ      AR4,AR4               ; [CPU_] |789| 
    2906              $C$DW$258       .dwtag  DW_TAG_TI_branch
    2907                      .dwattr $C$DW$258, DW_AT_low_pc(0x00)
    2908                      .dwattr $C$DW$258, DW_AT_name("FD$$TOL")
TMS320C2000 Assembler PC v15.12.3 Wed Nov 22 01:55:16 2017

Tools Copyright (c) 1996-2015 Texas Instruments Incorporated
C:\Users\wmj\AppData\Local\Temp\1673210                              PAGE   56

    2909                      .dwattr $C$DW$258, DW_AT_TI_call
    2910              
    2911 000002dc 7640!         LCR       #FD$$TOL              ; [CPU_] |789| 
         000002dd 0000 
    2912                      ; call occurs [#FD$$TOL] ; [] |789| 
    2913 000002de 1EA6          MOVL      XAR6,ACC              ; [CPU_] |789| 
    2914 000002df 029C          MOVB      ACC,#156              ; [CPU_] |789| 
    2915 000002e0 07C1          ADDL      ACC,*+XAR1[0]         ; [CPU_] |789| 
    2916 000002e1 8AA9          MOVL      XAR4,ACC              ; [CPU_] |789| 
    2917 000002e2 C2C4          MOVL      *+XAR4[0],XAR6        ; [CPU_] |789| 
    2918 000002e3 5CAD          MOVZ      AR4,SP                ; [CPU_] |789| 
    2919 000002e4 D008          MOVB      XAR0,#8               ; [CPU_] |789| 
    2920 000002e5 DC88          SUBB      XAR4,#8               ; [CPU_U] |789| 
    2921 000002e6 0692          MOVL      ACC,*+XAR2[AR0]       ; [CPU_] |789| 
    2922 000002e7 88A4          MOVZ      AR6,AR4               ; [CPU_] |789| 
    2923              $C$DW$259       .dwtag  DW_TAG_TI_branch
    2924                      .dwattr $C$DW$259, DW_AT_low_pc(0x00)
    2925                      .dwattr $C$DW$259, DW_AT_name("FS$$TOFD")
    2926                      .dwattr $C$DW$259, DW_AT_TI_call
    2927              
    2928 000002e8 7640!         LCR       #FS$$TOFD             ; [CPU_] |789| 
         000002e9 0000 
    2929                      ; call occurs [#FS$$TOFD] ; [] |789| 
    2930 000002ea 5DAD          MOVZ      AR5,SP                ; [CPU_] |789| 
    2931 000002eb 5CAD          MOVZ      AR4,SP                ; [CPU_] |789| 
    2932 000002ec DD84          SUBB      XAR5,#4               ; [CPU_U] |789| 
    2933 000002ed DC88          SUBB      XAR4,#8               ; [CPU_U] |789| 
    2934 000002ee 88A5          MOVZ      AR6,AR5               ; [CPU_] |789| 
    2935 000002ef 5CA4          MOVZ      AR4,AR4               ; [CPU_] |789| 
    2936 000002f0 8F40+         MOVL      XAR5,#$C$FL1          ; [CPU_U] |789| 
         000002f1 0000 
    2937              $C$DW$260       .dwtag  DW_TAG_TI_branch
    2938                      .dwattr $C$DW$260, DW_AT_low_pc(0x00)
    2939                      .dwattr $C$DW$260, DW_AT_name("FD$$MPY")
    2940                      .dwattr $C$DW$260, DW_AT_TI_call
    2941              
    2942 000002f2 7640!         LCR       #FD$$MPY              ; [CPU_] |789| 
         000002f3 0000 
    2943                      ; call occurs [#FD$$MPY] ; [] |789| 
    2944 000002f4 5CAD          MOVZ      AR4,SP                ; [CPU_] |789| 
    2945 000002f5 DC84          SUBB      XAR4,#4               ; [CPU_U] |789| 
    2946 000002f6 5CA4          MOVZ      AR4,AR4               ; [CPU_] |789| 
    2947              $C$DW$261       .dwtag  DW_TAG_TI_branch
    2948                      .dwattr $C$DW$261, DW_AT_low_pc(0x00)
    2949                      .dwattr $C$DW$261, DW_AT_name("FD$$TOL")
    2950                      .dwattr $C$DW$261, DW_AT_TI_call
    2951              
    2952 000002f7 7640!         LCR       #FD$$TOL              ; [CPU_] |789| 
         000002f8 0000 
    2953                      ; call occurs [#FD$$TOL] ; [] |789| 
    2954 000002f9 1EA6          MOVL      XAR6,ACC              ; [CPU_] |789| 
    2955 000002fa 029E          MOVB      ACC,#158              ; [CPU_] |789| 
    2956 000002fb 07C1          ADDL      ACC,*+XAR1[0]         ; [CPU_] |789| 
    2957 000002fc 8AA9          MOVL      XAR4,ACC              ; [CPU_] |789| 
    2958 000002fd C2C4          MOVL      *+XAR4[0],XAR6        ; [CPU_] |789| 
TMS320C2000 Assembler PC v15.12.3 Wed Nov 22 01:55:16 2017

Tools Copyright (c) 1996-2015 Texas Instruments Incorporated
C:\Users\wmj\AppData\Local\Temp\1673210                              PAGE   57

    2959 000002fe 5CAD          MOVZ      AR4,SP                ; [CPU_] |789| 
    2960 000002ff D00A          MOVB      XAR0,#10              ; [CPU_] |789| 
    2961 00000300 DC88          SUBB      XAR4,#8               ; [CPU_U] |789| 
    2962 00000301 0692          MOVL      ACC,*+XAR2[AR0]       ; [CPU_] |789| 
    2963 00000302 88A4          MOVZ      AR6,AR4               ; [CPU_] |789| 
    2964              $C$DW$262       .dwtag  DW_TAG_TI_branch
    2965                      .dwattr $C$DW$262, DW_AT_low_pc(0x00)
    2966                      .dwattr $C$DW$262, DW_AT_name("FS$$TOFD")
    2967                      .dwattr $C$DW$262, DW_AT_TI_call
    2968              
    2969 00000303 7640!         LCR       #FS$$TOFD             ; [CPU_] |789| 
         00000304 0000 
    2970                      ; call occurs [#FS$$TOFD] ; [] |789| 
    2971 00000305 5DAD          MOVZ      AR5,SP                ; [CPU_] |789| 
    2972 00000306 5CAD          MOVZ      AR4,SP                ; [CPU_] |789| 
    2973 00000307 DD84          SUBB      XAR5,#4               ; [CPU_U] |789| 
    2974 00000308 DC88          SUBB      XAR4,#8               ; [CPU_U] |789| 
    2975 00000309 88A5          MOVZ      AR6,AR5               ; [CPU_] |789| 
    2976 0000030a 5CA4          MOVZ      AR4,AR4               ; [CPU_] |789| 
    2977 0000030b 8F40+         MOVL      XAR5,#$C$FL1          ; [CPU_U] |789| 
         0000030c 0000 
    2978              $C$DW$263       .dwtag  DW_TAG_TI_branch
    2979                      .dwattr $C$DW$263, DW_AT_low_pc(0x00)
    2980                      .dwattr $C$DW$263, DW_AT_name("FD$$MPY")
    2981                      .dwattr $C$DW$263, DW_AT_TI_call
    2982              
    2983 0000030d 7640!         LCR       #FD$$MPY              ; [CPU_] |789| 
         0000030e 0000 
    2984                      ; call occurs [#FD$$MPY] ; [] |789| 
    2985 0000030f 5CAD          MOVZ      AR4,SP                ; [CPU_] |789| 
    2986 00000310 DC84          SUBB      XAR4,#4               ; [CPU_U] |789| 
    2987 00000311 5CA4          MOVZ      AR4,AR4               ; [CPU_] |789| 
    2988              $C$DW$264       .dwtag  DW_TAG_TI_branch
    2989                      .dwattr $C$DW$264, DW_AT_low_pc(0x00)
    2990                      .dwattr $C$DW$264, DW_AT_name("FD$$TOL")
    2991                      .dwattr $C$DW$264, DW_AT_TI_call
    2992              
    2993 00000312 7640!         LCR       #FD$$TOL              ; [CPU_] |789| 
         00000313 0000 
    2994                      ; call occurs [#FD$$TOL] ; [] |789| 
    2995 00000314 1EA6          MOVL      XAR6,ACC              ; [CPU_] |789| 
    2996 00000315 02A0          MOVB      ACC,#160              ; [CPU_] |789| 
    2997 00000316 07C1          ADDL      ACC,*+XAR1[0]         ; [CPU_] |789| 
    2998 00000317 8AA9          MOVL      XAR4,ACC              ; [CPU_] |789| 
    2999 00000318 C2C4          MOVL      *+XAR4[0],XAR6        ; [CPU_] |789| 
    3000 00000319 FE88          SUBB      SP,#8                 ; [CPU_U] 
    3001                      .dwcfi  cfa_offset, -6
    3002 0000031a 86BE          MOVL      XAR2,*--SP            ; [CPU_] 
    3003                      .dwcfi  cfa_offset, -4
    3004                      .dwcfi  restore_reg, 9
    3005 0000031b 8BBE          MOVL      XAR1,*--SP            ; [CPU_] 
    3006                      .dwcfi  cfa_offset, -2
    3007                      .dwcfi  restore_reg, 7
    3008              $C$DW$265       .dwtag  DW_TAG_TI_branch
    3009                      .dwattr $C$DW$265, DW_AT_low_pc(0x00)
TMS320C2000 Assembler PC v15.12.3 Wed Nov 22 01:55:16 2017

Tools Copyright (c) 1996-2015 Texas Instruments Incorporated
C:\Users\wmj\AppData\Local\Temp\1673210                              PAGE   58

    3010                      .dwattr $C$DW$265, DW_AT_TI_return
    3011              
    3012 0000031c 0006          LRETR     ; [CPU_] 
    3013                      ; return occurs ; [] 
    3014                      .dwattr $C$DW$242, DW_AT_TI_end_file("C:/Users/wmj/Desktop/BM1000_v1.1/sw/drivers/drvic/process_ctrl.
    3015                      .dwattr $C$DW$242, DW_AT_TI_end_line(0x19c)
    3016                      .dwattr $C$DW$242, DW_AT_TI_end_column(0x01)
    3017                      .dwendentry
    3018                      .dwendtag $C$DW$242
    3019              
    3020 0000031d               .sect   ".text"
    3021                      .clink
    3022                      .global _PROCTRL_init
    3023              
    3024              $C$DW$266       .dwtag  DW_TAG_subprogram
    3025                      .dwattr $C$DW$266, DW_AT_name("PROCTRL_init")
    3026                      .dwattr $C$DW$266, DW_AT_low_pc(_PROCTRL_init)
    3027                      .dwattr $C$DW$266, DW_AT_high_pc(0x00)
    3028                      .dwattr $C$DW$266, DW_AT_TI_symbol_name("_PROCTRL_init")
    3029                      .dwattr $C$DW$266, DW_AT_external
    3030                      .dwattr $C$DW$266, DW_AT_type(*$C$DW$T$288)
    3031                      .dwattr $C$DW$266, DW_AT_TI_begin_file("C:/Users/wmj/Desktop/BM1000_v1.1/sw/drivers/drvic/process_ctr
    3032                      .dwattr $C$DW$266, DW_AT_TI_begin_line(0x0f)
    3033                      .dwattr $C$DW$266, DW_AT_TI_begin_column(0x10)
    3034                      .dwattr $C$DW$266, DW_AT_TI_max_frame_size(-4)
    3035                      .dwpsn  file "C:/Users/wmj/Desktop/BM1000_v1.1/sw/drivers/drvic/process_ctrl.c",line 16,column 1,is_s
    3036              
    3037                      .dwfde $C$DW$CIE, _PROCTRL_init
    3038              $C$DW$267       .dwtag  DW_TAG_formal_parameter
    3039                      .dwattr $C$DW$267, DW_AT_name("pMemory")
    3040                      .dwattr $C$DW$267, DW_AT_TI_symbol_name("_pMemory")
    3041                      .dwattr $C$DW$267, DW_AT_type(*$C$DW$T$3)
    3042                      .dwattr $C$DW$267, DW_AT_location[DW_OP_reg12]
    3043              
    3044              $C$DW$268       .dwtag  DW_TAG_formal_parameter
    3045                      .dwattr $C$DW$268, DW_AT_name("numBytes")
    3046                      .dwattr $C$DW$268, DW_AT_TI_symbol_name("_numBytes")
    3047                      .dwattr $C$DW$268, DW_AT_type(*$C$DW$T$252)
    3048                      .dwattr $C$DW$268, DW_AT_location[DW_OP_reg0]
    3049              
    3050              
    3051              ;***************************************************************
    3052              ;* FNAME: _PROCTRL_init                 FR SIZE:   2           *
    3053              ;*                                                             *
    3054              ;* FUNCTION ENVIRONMENT                                        *
    3055              ;*                                                             *
    3056              ;* FUNCTION PROPERTIES                                         *
    3057              ;*                            0 Parameter,  0 Auto,  2 SOE     *
    3058              ;***************************************************************
    3059              
    3060              _PROCTRL_init:
    3061              ;* AR6   assigned to _numBytes
    3062              $C$DW$269       .dwtag  DW_TAG_variable
    3063                      .dwattr $C$DW$269, DW_AT_name("numBytes")
    3064                      .dwattr $C$DW$269, DW_AT_TI_symbol_name("_numBytes")
TMS320C2000 Assembler PC v15.12.3 Wed Nov 22 01:55:16 2017

Tools Copyright (c) 1996-2015 Texas Instruments Incorporated
C:\Users\wmj\AppData\Local\Temp\1673210                              PAGE   59

    3065                      .dwattr $C$DW$269, DW_AT_type(*$C$DW$T$252)
    3066                      .dwattr $C$DW$269, DW_AT_location[DW_OP_reg16]
    3067              
    3068              ;* AR1   assigned to _pMemory
    3069              $C$DW$270       .dwtag  DW_TAG_variable
    3070                      .dwattr $C$DW$270, DW_AT_name("pMemory")
    3071                      .dwattr $C$DW$270, DW_AT_TI_symbol_name("_pMemory")
    3072                      .dwattr $C$DW$270, DW_AT_type(*$C$DW$T$301)
    3073                      .dwattr $C$DW$270, DW_AT_location[DW_OP_reg6]
    3074              
    3075                      .dwcfi  cfa_offset, -2
    3076                      .dwcfi  save_reg_to_mem, 26, 0
    3077 0000031d 1EA6          MOVL      XAR6,ACC              ; [CPU_] |16| 
    3078 0000031e B2BD          MOVL      *SP++,XAR1            ; [CPU_] 
    3079                      .dwcfi  save_reg_to_mem, 7, 2
    3080                      .dwcfi  cfa_offset, -4
    3081                      .dwpsn  file "C:/Users/wmj/Desktop/BM1000_v1.1/sw/drivers/drvic/process_ctrl.c",line 20,column 4,is_s
    3082 0000031f 02FC          MOVB      ACC,#252              ; [CPU_] |20| 
    3083                      .dwpsn  file "C:/Users/wmj/Desktop/BM1000_v1.1/sw/drivers/drvic/process_ctrl.c",line 16,column 1,is_s
    3084 00000320 8BA4          MOVL      XAR1,XAR4             ; [CPU_] |16| 
    3085                      .dwpsn  file "C:/Users/wmj/Desktop/BM1000_v1.1/sw/drivers/drvic/process_ctrl.c",line 20,column 4,is_s
    3086 00000321 0FA6          CMPL      ACC,XAR6              ; [CPU_] |20| 
    3087 00000322 6903          B         $C$L9,LOS             ; [CPU_] |20| 
    3088                      ; branchcc occurs ; [] |20| 
    3089                      .dwpsn  file "C:/Users/wmj/Desktop/BM1000_v1.1/sw/drivers/drvic/process_ctrl.c",line 21,column 6,is_s
    3090 00000323 D400          MOVB      XAR4,#0               ; [CPU_] |21| 
    3091 00000324 6F27          B         $C$L10,UNC            ; [CPU_] |21| 
    3092                      ; branch occurs ; [] |21| 
    3093 00000325       $C$L9:    
    3094                      .dwpsn  file "C:/Users/wmj/Desktop/BM1000_v1.1/sw/drivers/drvic/process_ctrl.c",line 28,column 4,is_s
    3095 00000325 DC06          ADDB      XAR4,#6               ; [CPU_] |28| 
    3096 00000326 0212          MOVB      ACC,#18               ; [CPU_] |28| 
    3097              $C$DW$271       .dwtag  DW_TAG_TI_branch
    3098                      .dwattr $C$DW$271, DW_AT_low_pc(0x00)
    3099                      .dwattr $C$DW$271, DW_AT_name("_FS_init")
    3100                      .dwattr $C$DW$271, DW_AT_TI_call
    3101              
    3102 00000327 7640!         LCR       #_FS_init             ; [CPU_] |28| 
         00000328 0000 
    3103                      ; call occurs [#_FS_init] ; [] |28| 
    3104 00000329 D018          MOVB      XAR0,#24              ; [CPU_] |28| 
    3105 0000032a A891          MOVL      *+XAR1[AR0],XAR4      ; [CPU_] |28| 
    3106                      .dwpsn  file "C:/Users/wmj/Desktop/BM1000_v1.1/sw/drivers/drvic/process_ctrl.c",line 31,column 4,is_s
    3107 0000032b 8AA1          MOVL      XAR4,XAR1             ; [CPU_] |31| 
    3108 0000032c 0220          MOVB      ACC,#32               ; [CPU_] |31| 
    3109 0000032d DC1A          ADDB      XAR4,#26              ; [CPU_] |31| 
    3110              $C$DW$272       .dwtag  DW_TAG_TI_branch
    3111                      .dwattr $C$DW$272, DW_AT_low_pc(0x00)
    3112                      .dwattr $C$DW$272, DW_AT_name("_MB_init")
    3113                      .dwattr $C$DW$272, DW_AT_TI_call
    3114              
    3115 0000032e 7640!         LCR       #_MB_init             ; [CPU_] |31| 
         0000032f 0000 
    3116                      ; call occurs [#_MB_init] ; [] |31| 
    3117 00000330 D03A          MOVB      XAR0,#58              ; [CPU_] |31| 
TMS320C2000 Assembler PC v15.12.3 Wed Nov 22 01:55:16 2017

Tools Copyright (c) 1996-2015 Texas Instruments Incorporated
C:\Users\wmj\AppData\Local\Temp\1673210                              PAGE   60

    3118 00000331 A891          MOVL      *+XAR1[AR0],XAR4      ; [CPU_] |31| 
    3119                      .dwpsn  file "C:/Users/wmj/Desktop/BM1000_v1.1/sw/drivers/drvic/process_ctrl.c",line 33,column 4,is_s
    3120 00000332 8AA1          MOVL      XAR4,XAR1             ; [CPU_] |33| 
    3121 00000333 0270          MOVB      ACC,#112              ; [CPU_] |33| 
    3122 00000334 DC3C          ADDB      XAR4,#60              ; [CPU_] |33| 
    3123              $C$DW$273       .dwtag  DW_TAG_TI_branch
    3124                      .dwattr $C$DW$273, DW_AT_low_pc(0x00)
    3125                      .dwattr $C$DW$273, DW_AT_name("_Motor_init")
    3126                      .dwattr $C$DW$273, DW_AT_TI_call
    3127              
    3128 00000335 7640!         LCR       #_Motor_init          ; [CPU_] |33| 
         00000336 0000 
    3129                      ; call occurs [#_Motor_init] ; [] |33| 
    3130 00000337 D0AC          MOVB      XAR0,#172             ; [CPU_] |33| 
    3131                      .dwpsn  file "C:/Users/wmj/Desktop/BM1000_v1.1/sw/drivers/drvic/process_ctrl.c",line 35,column 4,is_s
    3132 00000338 B2A9          MOVL      ACC,XAR1              ; [CPU_] |35| 
    3133                      .dwpsn  file "C:/Users/wmj/Desktop/BM1000_v1.1/sw/drivers/drvic/process_ctrl.c",line 33,column 4,is_s
    3134 00000339 A891          MOVL      *+XAR1[AR0],XAR4      ; [CPU_] |33| 
    3135                      .dwpsn  file "C:/Users/wmj/Desktop/BM1000_v1.1/sw/drivers/drvic/process_ctrl.c",line 35,column 4,is_s
    3136 0000033a 09AE          ADDB      ACC,#174              ; [CPU_] |35| 
    3137 0000033b 8AA9          MOVL      XAR4,ACC              ; [CPU_] |35| 
    3138 0000033c 0226          MOVB      ACC,#38               ; [CPU_] |35| 
    3139              $C$DW$274       .dwtag  DW_TAG_TI_branch
    3140                      .dwattr $C$DW$274, DW_AT_low_pc(0x00)
    3141                      .dwattr $C$DW$274, DW_AT_name("_FSM_init")
    3142                      .dwattr $C$DW$274, DW_AT_TI_call
    3143              
    3144 0000033d 7640!         LCR       #_FSM_init            ; [CPU_] |35| 
         0000033e 0000 
    3145                      ; call occurs [#_FSM_init] ; [] |35| 
    3146 0000033f D0D4          MOVB      XAR0,#212             ; [CPU_] |35| 
    3147                      .dwpsn  file "C:/Users/wmj/Desktop/BM1000_v1.1/sw/drivers/drvic/process_ctrl.c",line 48,column 4,is_s
    3148 00000340 0200          MOVB      ACC,#0                ; [CPU_] |48| 
    3149                      .dwpsn  file "C:/Users/wmj/Desktop/BM1000_v1.1/sw/drivers/drvic/process_ctrl.c",line 35,column 4,is_s
    3150 00000341 A891          MOVL      *+XAR1[AR0],XAR4      ; [CPU_] |35| 
    3151                      .dwpsn  file "C:/Users/wmj/Desktop/BM1000_v1.1/sw/drivers/drvic/process_ctrl.c",line 47,column 4,is_s
    3152 00000342 D0F2          MOVB      XAR0,#242             ; [CPU_] |47| 
    3153 00000343 2B91          MOV       *+XAR1[AR0],#0        ; [CPU_] |47| 
    3154                      .dwpsn  file "C:/Users/wmj/Desktop/BM1000_v1.1/sw/drivers/drvic/process_ctrl.c",line 53,column 4,is_s
    3155 00000344 8AA1          MOVL      XAR4,XAR1             ; [CPU_] |53| 
    3156                      .dwpsn  file "C:/Users/wmj/Desktop/BM1000_v1.1/sw/drivers/drvic/process_ctrl.c",line 48,column 4,is_s
    3157 00000345 D0EC          MOVB      XAR0,#236             ; [CPU_] |48| 
    3158 00000346 1E91          MOVL      *+XAR1[AR0],ACC       ; [CPU_] |48| 
    3159                      .dwpsn  file "C:/Users/wmj/Desktop/BM1000_v1.1/sw/drivers/drvic/process_ctrl.c",line 49,column 4,is_s
    3160 00000347 D0EE          MOVB      XAR0,#238             ; [CPU_] |49| 
    3161 00000348 1E91          MOVL      *+XAR1[AR0],ACC       ; [CPU_] |49| 
    3162                      .dwpsn  file "C:/Users/wmj/Desktop/BM1000_v1.1/sw/drivers/drvic/process_ctrl.c",line 50,column 4,is_s
    3163 00000349 D0F0          MOVB      XAR0,#240             ; [CPU_] |50| 
    3164 0000034a 1E91          MOVL      *+XAR1[AR0],ACC       ; [CPU_] |50| 
    3165 0000034b       $C$L10:    
    3166 0000034b 8BBE          MOVL      XAR1,*--SP            ; [CPU_] 
    3167                      .dwcfi  cfa_offset, -2
    3168                      .dwcfi  restore_reg, 7
    3169              $C$DW$275       .dwtag  DW_TAG_TI_branch
    3170                      .dwattr $C$DW$275, DW_AT_low_pc(0x00)
TMS320C2000 Assembler PC v15.12.3 Wed Nov 22 01:55:16 2017

Tools Copyright (c) 1996-2015 Texas Instruments Incorporated
C:\Users\wmj\AppData\Local\Temp\1673210                              PAGE   61

    3171                      .dwattr $C$DW$275, DW_AT_TI_return
    3172              
    3173 0000034c 0006          LRETR     ; [CPU_] 
    3174                      ; return occurs ; [] 
    3175                      .dwattr $C$DW$266, DW_AT_TI_end_file("C:/Users/wmj/Desktop/BM1000_v1.1/sw/drivers/drvic/process_ctrl.
    3176                      .dwattr $C$DW$266, DW_AT_TI_end_line(0x37)
    3177                      .dwattr $C$DW$266, DW_AT_TI_end_column(0x01)
    3178                      .dwendentry
    3179                      .dwendtag $C$DW$266
    3180              
    3181 0000034d               .sect   ".text"
    3182                      .clink
    3183                      .global _PROCTRL_getSensorData
    3184              
    3185              $C$DW$276       .dwtag  DW_TAG_subprogram
    3186                      .dwattr $C$DW$276, DW_AT_name("PROCTRL_getSensorData")
    3187                      .dwattr $C$DW$276, DW_AT_low_pc(_PROCTRL_getSensorData)
    3188                      .dwattr $C$DW$276, DW_AT_high_pc(0x00)
    3189                      .dwattr $C$DW$276, DW_AT_TI_symbol_name("_PROCTRL_getSensorData")
    3190                      .dwattr $C$DW$276, DW_AT_external
    3191                      .dwattr $C$DW$276, DW_AT_TI_begin_file("C:/Users/wmj/Desktop/BM1000_v1.1/sw/drivers/drvic/process_ctr
    3192                      .dwattr $C$DW$276, DW_AT_TI_begin_line(0x259)
    3193                      .dwattr $C$DW$276, DW_AT_TI_begin_column(0x06)
    3194                      .dwattr $C$DW$276, DW_AT_TI_max_frame_size(-14)
    3195                      .dwpsn  file "C:/Users/wmj/Desktop/BM1000_v1.1/sw/drivers/drvic/process_ctrl.c",line 602,column 1,is_
    3196              
    3197                      .dwfde $C$DW$CIE, _PROCTRL_getSensorData
    3198              $C$DW$277       .dwtag  DW_TAG_variable
    3199                      .dwattr $C$DW$277, DW_AT_name("p_Last1")
    3200                      .dwattr $C$DW$277, DW_AT_TI_symbol_name("_p_Last1$4")
    3201                      .dwattr $C$DW$277, DW_AT_type(*$C$DW$T$31)
    3202                      .dwattr $C$DW$277, DW_AT_location[DW_OP_addr _p_Last1$4]
    3203              
    3204              $C$DW$278       .dwtag  DW_TAG_variable
    3205                      .dwattr $C$DW$278, DW_AT_name("p_Last0")
    3206                      .dwattr $C$DW$278, DW_AT_TI_symbol_name("_p_Last0$3")
    3207                      .dwattr $C$DW$278, DW_AT_type(*$C$DW$T$31)
    3208                      .dwattr $C$DW$278, DW_AT_location[DW_OP_addr _p_Last0$3]
    3209              
    3210              $C$DW$279       .dwtag  DW_TAG_formal_parameter
    3211                      .dwattr $C$DW$279, DW_AT_name("handle")
    3212                      .dwattr $C$DW$279, DW_AT_TI_symbol_name("_handle")
    3213                      .dwattr $C$DW$279, DW_AT_type(*$C$DW$T$288)
    3214                      .dwattr $C$DW$279, DW_AT_location[DW_OP_reg12]
    3215              
    3216              $C$DW$280       .dwtag  DW_TAG_formal_parameter
    3217                      .dwattr $C$DW$280, DW_AT_name("pAdcData")
    3218                      .dwattr $C$DW$280, DW_AT_TI_symbol_name("_pAdcData")
    3219                      .dwattr $C$DW$280, DW_AT_type(*$C$DW$T$261)
    3220                      .dwattr $C$DW$280, DW_AT_location[DW_OP_reg14]
    3221              
    3222              
    3223              ;***************************************************************
    3224              ;* FNAME: _PROCTRL_getSensorData        FR SIZE:  12           *
    3225              ;*                                                             *
TMS320C2000 Assembler PC v15.12.3 Wed Nov 22 01:55:16 2017

Tools Copyright (c) 1996-2015 Texas Instruments Incorporated
C:\Users\wmj\AppData\Local\Temp\1673210                              PAGE   62

    3226              ;* FUNCTION ENVIRONMENT                                        *
    3227              ;*                                                             *
    3228              ;* FUNCTION PROPERTIES                                         *
    3229              ;*                            2 Parameter,  4 Auto,  6 SOE     *
    3230              ;***************************************************************
    3231              
    3232              _PROCTRL_getSensorData:
    3233              ;* AR1   assigned to $O$C1
    3234              ;* AR1   assigned to $O$C2
    3235              ;* AR2   assigned to _handle
    3236              $C$DW$281       .dwtag  DW_TAG_variable
    3237                      .dwattr $C$DW$281, DW_AT_name("handle")
    3238                      .dwattr $C$DW$281, DW_AT_TI_symbol_name("_handle")
    3239                      .dwattr $C$DW$281, DW_AT_type(*$C$DW$T$289)
    3240                      .dwattr $C$DW$281, DW_AT_location[DW_OP_reg8]
    3241              
    3242              $C$DW$282       .dwtag  DW_TAG_variable
    3243                      .dwattr $C$DW$282, DW_AT_name("pAdcData")
    3244                      .dwattr $C$DW$282, DW_AT_TI_symbol_name("_pAdcData")
    3245                      .dwattr $C$DW$282, DW_AT_type(*$C$DW$T$262)
    3246                      .dwattr $C$DW$282, DW_AT_location[DW_OP_breg20 -4]
    3247              
    3248              ;* AR3   assigned to _x_Mid
    3249              $C$DW$283       .dwtag  DW_TAG_variable
    3250                      .dwattr $C$DW$283, DW_AT_name("x_Mid")
    3251                      .dwattr $C$DW$283, DW_AT_TI_symbol_name("_x_Mid")
    3252                      .dwattr $C$DW$283, DW_AT_type(*$C$DW$T$31)
    3253                      .dwattr $C$DW$283, DW_AT_location[DW_OP_reg10]
    3254              
    3255              ;* AR1   assigned to _p_Mid
    3256              $C$DW$284       .dwtag  DW_TAG_variable
    3257                      .dwattr $C$DW$284, DW_AT_name("p_Mid")
    3258                      .dwattr $C$DW$284, DW_AT_TI_symbol_name("_p_Mid")
    3259                      .dwattr $C$DW$284, DW_AT_type(*$C$DW$T$31)
    3260                      .dwattr $C$DW$284, DW_AT_location[DW_OP_reg6]
    3261              
    3262              $C$DW$285       .dwtag  DW_TAG_variable
    3263                      .dwattr $C$DW$285, DW_AT_name("InputData")
    3264                      .dwattr $C$DW$285, DW_AT_TI_symbol_name("_InputData")
    3265                      .dwattr $C$DW$285, DW_AT_type(*$C$DW$T$31)
    3266                      .dwattr $C$DW$285, DW_AT_location[DW_OP_breg20 -6]
    3267              
    3268              ;* XT    assigned to _Kg_pu
    3269              $C$DW$286       .dwtag  DW_TAG_variable
    3270                      .dwattr $C$DW$286, DW_AT_name("Kg_pu")
    3271                      .dwattr $C$DW$286, DW_AT_TI_symbol_name("_Kg_pu")
    3272                      .dwattr $C$DW$286, DW_AT_type(*$C$DW$T$31)
    3273                      .dwattr $C$DW$286, DW_AT_location[DW_OP_reg21]
    3274              
    3275                      .dwcfi  cfa_offset, -2
    3276                      .dwcfi  save_reg_to_mem, 26, 0
    3277 0000034d B2BD          MOVL      *SP++,XAR1            ; [CPU_] 
    3278                      .dwcfi  save_reg_to_mem, 7, 2
    3279                      .dwcfi  cfa_offset, -4
    3280 0000034e AABD          MOVL      *SP++,XAR2            ; [CPU_] 
TMS320C2000 Assembler PC v15.12.3 Wed Nov 22 01:55:16 2017

Tools Copyright (c) 1996-2015 Texas Instruments Incorporated
C:\Users\wmj\AppData\Local\Temp\1673210                              PAGE   63

    3281                      .dwcfi  save_reg_to_mem, 9, 4
    3282                      .dwcfi  cfa_offset, -6
    3283 0000034f A2BD          MOVL      *SP++,XAR3            ; [CPU_] 
    3284                      .dwcfi  save_reg_to_mem, 11, 6
    3285                      .dwcfi  cfa_offset, -8
    3286 00000350 FE06          ADDB      SP,#6                 ; [CPU_U] 
    3287                      .dwcfi  cfa_offset, -14
    3288 00000351 86A4          MOVL      XAR2,XAR4             ; [CPU_] |602| 
    3289                      .dwpsn  file "C:/Users/wmj/Desktop/BM1000_v1.1/sw/drivers/drvic/process_ctrl.c",line 617,column 3,is_
    3290 00000352 D0AC          MOVB      XAR0,#172             ; [CPU_] |617| 
    3291 00000353 0264          MOVB      ACC,#100              ; [CPU_] |617| 
    3292                      .dwpsn  file "C:/Users/wmj/Desktop/BM1000_v1.1/sw/drivers/drvic/process_ctrl.c",line 602,column 1,is_
    3293 00000354 A044          MOVL      *-SP[4],XAR5          ; [CPU_] |602| 
    3294                      .dwpsn  file "C:/Users/wmj/Desktop/BM1000_v1.1/sw/drivers/drvic/process_ctrl.c",line 617,column 3,is_
    3295 00000355 0792          ADDL      ACC,*+XAR2[AR0]       ; [CPU_] |617| 
    3296 00000356 8AA9          MOVL      XAR4,ACC              ; [CPU_] |617| 
    3297 00000357 761F-         MOVW      DP,#_p_Last0$3        ; [CPU_U] 
         00000358 0000 
    3298                      .dwpsn  file "C:/Users/wmj/Desktop/BM1000_v1.1/sw/drivers/drvic/process_ctrl.c",line 618,column 3,is_
    3299 00000359 02FA          MOVB      ACC,#250              ; [CPU_] |618| 
    3300                      .dwpsn  file "C:/Users/wmj/Desktop/BM1000_v1.1/sw/drivers/drvic/process_ctrl.c",line 617,column 3,is_
    3301 0000035a 82C4          MOVL      XAR3,*+XAR4[0]        ; [CPU_] |617| 
    3302                      .dwpsn  file "C:/Users/wmj/Desktop/BM1000_v1.1/sw/drivers/drvic/process_ctrl.c",line 619,column 3,is_
    3303 0000035b 8A44          MOVL      XAR4,*-SP[4]          ; [CPU_] |619| 
    3304                      .dwpsn  file "C:/Users/wmj/Desktop/BM1000_v1.1/sw/drivers/drvic/process_ctrl.c",line 618,column 3,is_
    3305 0000035c 070C-         ADDL      ACC,@_p_Last0$3       ; [CPU_] |618| 
    3306                      .dwpsn  file "C:/Users/wmj/Desktop/BM1000_v1.1/sw/drivers/drvic/process_ctrl.c",line 619,column 3,is_
    3307 0000035d D00E          MOVB      XAR0,#14              ; [CPU_] |619| 
    3308                      .dwpsn  file "C:/Users/wmj/Desktop/BM1000_v1.1/sw/drivers/drvic/process_ctrl.c",line 618,column 3,is_
    3309 0000035e 8BA9          MOVL      XAR1,ACC              ; [CPU_] |618| 
    3310                      .dwpsn  file "C:/Users/wmj/Desktop/BM1000_v1.1/sw/drivers/drvic/process_ctrl.c",line 619,column 3,is_
    3311 0000035f 0694          MOVL      ACC,*+XAR4[AR0]       ; [CPU_] |619| 
    3312                      .dwpsn  file "C:/Users/wmj/Desktop/BM1000_v1.1/sw/drivers/drvic/process_ctrl.c",line 621,column 3,is_
    3313 00000360 8F00          MOVL      XAR4,#2250            ; [CPU_U] |621| 
         00000361 08CA 
    3314                      .dwpsn  file "C:/Users/wmj/Desktop/BM1000_v1.1/sw/drivers/drvic/process_ctrl.c",line 619,column 3,is_
    3315 00000362 1E46          MOVL      *-SP[6],ACC           ; [CPU_] |619| 
    3316                      .dwpsn  file "C:/Users/wmj/Desktop/BM1000_v1.1/sw/drivers/drvic/process_ctrl.c",line 621,column 3,is_
