TMS320C2000 Assembler PC v6.2.5 Tue Nov 21 22:57:45 2017

Tools Copyright (c) 1996-2014 Texas Instruments Incorporated
C:\Users\wmj\AppData\Local\Temp\1055210                              PAGE    1

       1              ;***************************************************************
       2              ;* TMS320C2000 C/C++ Codegen                         PC v6.2.5 *
       3              ;* Date/Time created: Tue Nov 21 22:57:45 2017                 *
       4              ;***************************************************************
       5                      .compiler_opts --float_support=softlib --hll_source=on --mem_model:code=flat --mem_model:data=large -
       6        0002  FP      .set    XAR2
       7              
       8              $C$DW$CU        .dwtag  DW_TAG_compile_unit
       9                      .dwattr $C$DW$CU, DW_AT_name("D:/BM1000_v1.1/sw/solutions/instaspin/src/proj_bm1000.c")
      10                      .dwattr $C$DW$CU, DW_AT_producer("TMS320C2000 C/C++ Codegen PC v6.2.5 Copyright (c) 1996-2014 Texas I
      11                      .dwattr $C$DW$CU, DW_AT_TI_version(0x01)
      12                      .dwattr $C$DW$CU, DW_AT_comp_dir("D:\BM1000_v1.1\sw\solutions\instaspin_foc\boards\hvkit_rev1p1\f28x\
      13              ;**************************************************************
      14              ;* CINIT RECORDS                                              *
      15              ;**************************************************************
      16 00000000               .sect   ".cinit"
      17                      .align  1
      18 00000000 FFFF          .field          -1,16
      19 00000001 0000-         .field          _gLEDcnt+0,32
         00000002 0000 
      20 00000003 0000          .bits   0,16                    ; _gLEDcnt @ 0
      21              
      22 00000004               .sect   ".cinit"
      23                      .align  1
      24 00000004 FFFF          .field          -1,16
      25 00000005 0001-         .field          _MeasCnt$1+0,32
         00000006 0000 
      26 00000007 0000          .bits   0,16                    ; _MeasCnt$1 @ 0
      27              
      28              
      29              $C$DW$1 .dwtag  DW_TAG_subprogram, DW_AT_name("MOTOR_getMaxCurrent")
      30                      .dwattr $C$DW$1, DW_AT_TI_symbol_name("_MOTOR_getMaxCurrent")
      31                      .dwattr $C$DW$1, DW_AT_declaration
      32                      .dwattr $C$DW$1, DW_AT_external
      33              $C$DW$2 .dwtag  DW_TAG_formal_parameter
      34                      .dwattr $C$DW$2, DW_AT_type(*$C$DW$T$81)
      35              $C$DW$3 .dwtag  DW_TAG_formal_parameter
      36                      .dwattr $C$DW$3, DW_AT_type(*$C$DW$T$241)
      37                      .dwendtag $C$DW$1
      38              
      39              
      40              $C$DW$4 .dwtag  DW_TAG_subprogram, DW_AT_name("HAL_enableTimer1Int")
      41                      .dwattr $C$DW$4, DW_AT_TI_symbol_name("_HAL_enableTimer1Int")
      42                      .dwattr $C$DW$4, DW_AT_declaration
      43                      .dwattr $C$DW$4, DW_AT_external
      44              $C$DW$5 .dwtag  DW_TAG_formal_parameter
      45                      .dwattr $C$DW$5, DW_AT_type(*$C$DW$T$83)
      46              $C$DW$6 .dwtag  DW_TAG_formal_parameter
      47                      .dwattr $C$DW$6, DW_AT_type(*$C$DW$T$293)
      48                      .dwendtag $C$DW$4
      49              
      50              
      51              $C$DW$7 .dwtag  DW_TAG_subprogram, DW_AT_name("MOTOR_CtrlVersion_Init")
      52                      .dwattr $C$DW$7, DW_AT_TI_symbol_name("_MOTOR_CtrlVersion_Init")
      53                      .dwattr $C$DW$7, DW_AT_declaration
TMS320C2000 Assembler PC v6.2.5 Tue Nov 21 22:57:45 2017

Tools Copyright (c) 1996-2014 Texas Instruments Incorporated
C:\Users\wmj\AppData\Local\Temp\1055210                              PAGE    2

      54                      .dwattr $C$DW$7, DW_AT_external
      55              $C$DW$8 .dwtag  DW_TAG_formal_parameter
      56                      .dwattr $C$DW$8, DW_AT_type(*$C$DW$T$81)
      57                      .dwendtag $C$DW$7
      58              
      59              
      60              $C$DW$9 .dwtag  DW_TAG_subprogram, DW_AT_name("HAL_enableSciaInt")
      61                      .dwattr $C$DW$9, DW_AT_TI_symbol_name("_HAL_enableSciaInt")
      62                      .dwattr $C$DW$9, DW_AT_declaration
      63                      .dwattr $C$DW$9, DW_AT_external
      64              $C$DW$10        .dwtag  DW_TAG_formal_parameter
      65                      .dwattr $C$DW$10, DW_AT_type(*$C$DW$T$83)
      66                      .dwendtag $C$DW$9
      67              
      68              
      69              $C$DW$11        .dwtag  DW_TAG_subprogram, DW_AT_name("FSM_getPortStatus")
      70                      .dwattr $C$DW$11, DW_AT_TI_symbol_name("_FSM_getPortStatus")
      71                      .dwattr $C$DW$11, DW_AT_declaration
      72                      .dwattr $C$DW$11, DW_AT_external
      73              $C$DW$12        .dwtag  DW_TAG_formal_parameter
      74                      .dwattr $C$DW$12, DW_AT_type(*$C$DW$T$164)
      75                      .dwendtag $C$DW$11
      76              
      77              
      78              $C$DW$13        .dwtag  DW_TAG_subprogram, DW_AT_name("FSM_ParamInit")
      79                      .dwattr $C$DW$13, DW_AT_TI_symbol_name("_FSM_ParamInit")
      80                      .dwattr $C$DW$13, DW_AT_declaration
      81                      .dwattr $C$DW$13, DW_AT_external
      82              $C$DW$14        .dwtag  DW_TAG_formal_parameter
      83                      .dwattr $C$DW$14, DW_AT_type(*$C$DW$T$164)
      84                      .dwendtag $C$DW$13
      85              
      86              
      87              $C$DW$15        .dwtag  DW_TAG_subprogram, DW_AT_name("HAL_setupFaults")
      88                      .dwattr $C$DW$15, DW_AT_TI_symbol_name("_HAL_setupFaults")
      89                      .dwattr $C$DW$15, DW_AT_declaration
      90                      .dwattr $C$DW$15, DW_AT_external
      91              $C$DW$16        .dwtag  DW_TAG_formal_parameter
      92                      .dwattr $C$DW$16, DW_AT_type(*$C$DW$T$83)
      93                      .dwendtag $C$DW$15
      94              
      95              
      96              $C$DW$17        .dwtag  DW_TAG_subprogram, DW_AT_name("HAL_enableGlobalInts")
      97                      .dwattr $C$DW$17, DW_AT_TI_symbol_name("_HAL_enableGlobalInts")
      98                      .dwattr $C$DW$17, DW_AT_declaration
      99                      .dwattr $C$DW$17, DW_AT_external
     100              $C$DW$18        .dwtag  DW_TAG_formal_parameter
     101                      .dwattr $C$DW$18, DW_AT_type(*$C$DW$T$83)
     102                      .dwendtag $C$DW$17
     103              
     104              
     105              $C$DW$19        .dwtag  DW_TAG_subprogram, DW_AT_name("HAL_enableAdcInts")
     106                      .dwattr $C$DW$19, DW_AT_TI_symbol_name("_HAL_enableAdcInts")
     107                      .dwattr $C$DW$19, DW_AT_declaration
     108                      .dwattr $C$DW$19, DW_AT_external
TMS320C2000 Assembler PC v6.2.5 Tue Nov 21 22:57:45 2017

Tools Copyright (c) 1996-2014 Texas Instruments Incorporated
C:\Users\wmj\AppData\Local\Temp\1055210                              PAGE    3

     109              $C$DW$20        .dwtag  DW_TAG_formal_parameter
     110                      .dwattr $C$DW$20, DW_AT_type(*$C$DW$T$83)
     111                      .dwendtag $C$DW$19
     112              
     113              
     114              $C$DW$21        .dwtag  DW_TAG_subprogram, DW_AT_name("HAL_enableDebugInt")
     115                      .dwattr $C$DW$21, DW_AT_TI_symbol_name("_HAL_enableDebugInt")
     116                      .dwattr $C$DW$21, DW_AT_declaration
     117                      .dwattr $C$DW$21, DW_AT_external
     118              $C$DW$22        .dwtag  DW_TAG_formal_parameter
     119                      .dwattr $C$DW$22, DW_AT_type(*$C$DW$T$83)
     120                      .dwendtag $C$DW$21
     121              
     122              
     123              $C$DW$23        .dwtag  DW_TAG_subprogram, DW_AT_name("HAL_setupAdcParams")
     124                      .dwattr $C$DW$23, DW_AT_TI_symbol_name("_HAL_setupAdcParams")
     125                      .dwattr $C$DW$23, DW_AT_declaration
     126                      .dwattr $C$DW$23, DW_AT_external
     127              $C$DW$24        .dwtag  DW_TAG_formal_parameter
     128                      .dwattr $C$DW$24, DW_AT_type(*$C$DW$T$83)
     129              $C$DW$25        .dwtag  DW_TAG_formal_parameter
     130                      .dwattr $C$DW$25, DW_AT_type(*$C$DW$T$292)
     131                      .dwendtag $C$DW$23
     132              
     133              
     134              $C$DW$26        .dwtag  DW_TAG_subprogram, DW_AT_name("HAL_setParams")
     135                      .dwattr $C$DW$26, DW_AT_TI_symbol_name("_HAL_setParams")
     136                      .dwattr $C$DW$26, DW_AT_declaration
     137                      .dwattr $C$DW$26, DW_AT_external
     138              $C$DW$27        .dwtag  DW_TAG_formal_parameter
     139                      .dwattr $C$DW$27, DW_AT_type(*$C$DW$T$83)
     140              $C$DW$28        .dwtag  DW_TAG_formal_parameter
     141                      .dwattr $C$DW$28, DW_AT_type(*$C$DW$T$292)
     142                      .dwendtag $C$DW$26
     143              
     144              
     145              $C$DW$29        .dwtag  DW_TAG_subprogram, DW_AT_name("PROCTRL_getDCbusVoltage")
     146                      .dwattr $C$DW$29, DW_AT_TI_symbol_name("_PROCTRL_getDCbusVoltage")
     147                      .dwattr $C$DW$29, DW_AT_declaration
     148                      .dwattr $C$DW$29, DW_AT_external
     149              $C$DW$30        .dwtag  DW_TAG_formal_parameter
     150                      .dwattr $C$DW$30, DW_AT_type(*$C$DW$T$284)
     151              $C$DW$31        .dwtag  DW_TAG_formal_parameter
     152                      .dwattr $C$DW$31, DW_AT_type(*$C$DW$T$271)
     153                      .dwendtag $C$DW$29
     154              
     155              
     156              $C$DW$32        .dwtag  DW_TAG_subprogram, DW_AT_name("PROCTRL_getChipTemperture")
     157                      .dwattr $C$DW$32, DW_AT_TI_symbol_name("_PROCTRL_getChipTemperture")
     158                      .dwattr $C$DW$32, DW_AT_declaration
     159                      .dwattr $C$DW$32, DW_AT_external
     160              $C$DW$33        .dwtag  DW_TAG_formal_parameter
     161                      .dwattr $C$DW$33, DW_AT_type(*$C$DW$T$284)
     162              $C$DW$34        .dwtag  DW_TAG_formal_parameter
     163                      .dwattr $C$DW$34, DW_AT_type(*$C$DW$T$271)
TMS320C2000 Assembler PC v6.2.5 Tue Nov 21 22:57:45 2017

Tools Copyright (c) 1996-2014 Texas Instruments Incorporated
C:\Users\wmj\AppData\Local\Temp\1055210                              PAGE    4

     164                      .dwendtag $C$DW$32
     165              
     166              
     167              $C$DW$35        .dwtag  DW_TAG_subprogram, DW_AT_name("PROCTRL_setDcBrakeCurrent")
     168                      .dwattr $C$DW$35, DW_AT_TI_symbol_name("_PROCTRL_setDcBrakeCurrent")
     169                      .dwattr $C$DW$35, DW_AT_declaration
     170                      .dwattr $C$DW$35, DW_AT_external
     171              $C$DW$36        .dwtag  DW_TAG_formal_parameter
     172                      .dwattr $C$DW$36, DW_AT_type(*$C$DW$T$284)
     173                      .dwendtag $C$DW$35
     174              
     175              
     176              $C$DW$37        .dwtag  DW_TAG_subprogram, DW_AT_name("PROCTRL_CheckMotorError")
     177                      .dwattr $C$DW$37, DW_AT_TI_symbol_name("_PROCTRL_CheckMotorError")
     178                      .dwattr $C$DW$37, DW_AT_declaration
     179                      .dwattr $C$DW$37, DW_AT_external
     180              $C$DW$38        .dwtag  DW_TAG_formal_parameter
     181                      .dwattr $C$DW$38, DW_AT_type(*$C$DW$T$284)
     182                      .dwendtag $C$DW$37
     183              
     184              
     185              $C$DW$39        .dwtag  DW_TAG_subprogram, DW_AT_name("PROCTRL_getScaleActors")
     186                      .dwattr $C$DW$39, DW_AT_TI_symbol_name("_PROCTRL_getScaleActors")
     187                      .dwattr $C$DW$39, DW_AT_declaration
     188                      .dwattr $C$DW$39, DW_AT_external
     189              $C$DW$40        .dwtag  DW_TAG_formal_parameter
     190                      .dwattr $C$DW$40, DW_AT_type(*$C$DW$T$284)
     191              $C$DW$41        .dwtag  DW_TAG_formal_parameter
     192                      .dwattr $C$DW$41, DW_AT_type(*$C$DW$T$241)
     193                      .dwendtag $C$DW$39
     194              
     195              
     196              $C$DW$42        .dwtag  DW_TAG_subprogram, DW_AT_name("PROCTRL_getSensorData")
     197                      .dwattr $C$DW$42, DW_AT_TI_symbol_name("_PROCTRL_getSensorData")
     198                      .dwattr $C$DW$42, DW_AT_declaration
     199                      .dwattr $C$DW$42, DW_AT_external
     200              $C$DW$43        .dwtag  DW_TAG_formal_parameter
     201                      .dwattr $C$DW$43, DW_AT_type(*$C$DW$T$284)
     202              $C$DW$44        .dwtag  DW_TAG_formal_parameter
     203                      .dwattr $C$DW$44, DW_AT_type(*$C$DW$T$270)
     204                      .dwendtag $C$DW$42
     205              
     206              
     207              $C$DW$45        .dwtag  DW_TAG_subprogram, DW_AT_name("PROCTRL_MainLoop")
     208                      .dwattr $C$DW$45, DW_AT_TI_symbol_name("_PROCTRL_MainLoop")
     209                      .dwattr $C$DW$45, DW_AT_declaration
     210                      .dwattr $C$DW$45, DW_AT_external
     211              $C$DW$46        .dwtag  DW_TAG_formal_parameter
     212                      .dwattr $C$DW$46, DW_AT_type(*$C$DW$T$284)
     213              $C$DW$47        .dwtag  DW_TAG_formal_parameter
     214                      .dwattr $C$DW$47, DW_AT_type(*$C$DW$T$241)
     215                      .dwendtag $C$DW$45
     216              
     217              
     218              $C$DW$48        .dwtag  DW_TAG_subprogram, DW_AT_name("MB_RTUReceiveFSM")
TMS320C2000 Assembler PC v6.2.5 Tue Nov 21 22:57:45 2017

Tools Copyright (c) 1996-2014 Texas Instruments Incorporated
C:\Users\wmj\AppData\Local\Temp\1055210                              PAGE    5

     219                      .dwattr $C$DW$48, DW_AT_TI_symbol_name("_MB_RTUReceiveFSM")
     220                      .dwattr $C$DW$48, DW_AT_declaration
     221                      .dwattr $C$DW$48, DW_AT_external
     222              $C$DW$49        .dwtag  DW_TAG_formal_parameter
     223                      .dwattr $C$DW$49, DW_AT_type(*$C$DW$T$219)
     224                      .dwendtag $C$DW$48
     225              
     226              
     227              $C$DW$50        .dwtag  DW_TAG_subprogram, DW_AT_name("PROCTRL_setHalHandle")
     228                      .dwattr $C$DW$50, DW_AT_TI_symbol_name("_PROCTRL_setHalHandle")
     229                      .dwattr $C$DW$50, DW_AT_declaration
     230                      .dwattr $C$DW$50, DW_AT_external
     231              $C$DW$51        .dwtag  DW_TAG_formal_parameter
     232                      .dwattr $C$DW$51, DW_AT_type(*$C$DW$T$284)
     233              $C$DW$52        .dwtag  DW_TAG_formal_parameter
     234                      .dwattr $C$DW$52, DW_AT_type(*$C$DW$T$83)
     235                      .dwendtag $C$DW$50
     236              
     237              
     238              $C$DW$53        .dwtag  DW_TAG_subprogram, DW_AT_name("MB_RTUTransmitFSM")
     239                      .dwattr $C$DW$53, DW_AT_TI_symbol_name("_MB_RTUTransmitFSM")
     240                      .dwattr $C$DW$53, DW_AT_declaration
     241                      .dwattr $C$DW$53, DW_AT_external
     242              $C$DW$54        .dwtag  DW_TAG_formal_parameter
     243                      .dwattr $C$DW$54, DW_AT_type(*$C$DW$T$219)
     244                      .dwendtag $C$DW$53
     245              
     246              
     247              $C$DW$55        .dwtag  DW_TAG_subprogram, DW_AT_name("MB_RTUTimerFSM")
     248                      .dwattr $C$DW$55, DW_AT_TI_symbol_name("_MB_RTUTimerFSM")
     249                      .dwattr $C$DW$55, DW_AT_declaration
     250                      .dwattr $C$DW$55, DW_AT_external
     251              $C$DW$56        .dwtag  DW_TAG_formal_parameter
     252                      .dwattr $C$DW$56, DW_AT_type(*$C$DW$T$219)
     253                      .dwendtag $C$DW$55
     254              
     255              
     256              $C$DW$57        .dwtag  DW_TAG_subprogram, DW_AT_name("PROCTRL_setupMotors")
     257                      .dwattr $C$DW$57, DW_AT_TI_symbol_name("_PROCTRL_setupMotors")
     258                      .dwattr $C$DW$57, DW_AT_declaration
     259                      .dwattr $C$DW$57, DW_AT_external
     260              $C$DW$58        .dwtag  DW_TAG_formal_parameter
     261                      .dwattr $C$DW$58, DW_AT_type(*$C$DW$T$284)
     262                      .dwendtag $C$DW$57
     263              
     264              
     265              $C$DW$59        .dwtag  DW_TAG_subprogram, DW_AT_name("PROCTRL_setupFSM")
     266                      .dwattr $C$DW$59, DW_AT_TI_symbol_name("_PROCTRL_setupFSM")
     267                      .dwattr $C$DW$59, DW_AT_declaration
     268                      .dwattr $C$DW$59, DW_AT_external
     269              $C$DW$60        .dwtag  DW_TAG_formal_parameter
     270                      .dwattr $C$DW$60, DW_AT_type(*$C$DW$T$284)
     271                      .dwendtag $C$DW$59
     272              
     273              
TMS320C2000 Assembler PC v6.2.5 Tue Nov 21 22:57:45 2017

Tools Copyright (c) 1996-2014 Texas Instruments Incorporated
C:\Users\wmj\AppData\Local\Temp\1055210                              PAGE    6

     274              $C$DW$61        .dwtag  DW_TAG_subprogram, DW_AT_name("PROCTRL_setupModbus")
     275                      .dwattr $C$DW$61, DW_AT_TI_symbol_name("_PROCTRL_setupModbus")
     276                      .dwattr $C$DW$61, DW_AT_declaration
     277                      .dwattr $C$DW$61, DW_AT_external
     278              $C$DW$62        .dwtag  DW_TAG_formal_parameter
     279                      .dwattr $C$DW$62, DW_AT_type(*$C$DW$T$284)
     280                      .dwendtag $C$DW$61
     281              
     282              
     283              $C$DW$63        .dwtag  DW_TAG_subprogram, DW_AT_name("PROCTRL_setUserParams")
     284                      .dwattr $C$DW$63, DW_AT_TI_symbol_name("_PROCTRL_setUserParams")
     285                      .dwattr $C$DW$63, DW_AT_declaration
     286                      .dwattr $C$DW$63, DW_AT_external
     287              $C$DW$64        .dwtag  DW_TAG_formal_parameter
     288                      .dwattr $C$DW$64, DW_AT_type(*$C$DW$T$284)
     289              $C$DW$65        .dwtag  DW_TAG_formal_parameter
     290                      .dwattr $C$DW$65, DW_AT_type(*$C$DW$T$213)
     291                      .dwendtag $C$DW$63
     292              
     293              
     294              $C$DW$66        .dwtag  DW_TAG_subprogram, DW_AT_name("PROCTRL_setupFlyingStart")
     295                      .dwattr $C$DW$66, DW_AT_TI_symbol_name("_PROCTRL_setupFlyingStart")
     296                      .dwattr $C$DW$66, DW_AT_declaration
     297                      .dwattr $C$DW$66, DW_AT_external
     298              $C$DW$67        .dwtag  DW_TAG_formal_parameter
     299                      .dwattr $C$DW$67, DW_AT_type(*$C$DW$T$284)
     300                      .dwendtag $C$DW$66
     301              
     302              
     303              $C$DW$68        .dwtag  DW_TAG_subprogram, DW_AT_name("USER_setSysParams")
     304                      .dwattr $C$DW$68, DW_AT_TI_symbol_name("_USER_setSysParams")
     305                      .dwattr $C$DW$68, DW_AT_declaration
     306                      .dwattr $C$DW$68, DW_AT_external
     307              $C$DW$69        .dwtag  DW_TAG_formal_parameter
     308                      .dwattr $C$DW$69, DW_AT_type(*$C$DW$T$241)
     309                      .dwendtag $C$DW$68
     310              
     311              
     312              $C$DW$70        .dwtag  DW_TAG_subprogram, DW_AT_name("USER_setParams")
     313                      .dwattr $C$DW$70, DW_AT_TI_symbol_name("_USER_setParams")
     314                      .dwattr $C$DW$70, DW_AT_declaration
     315                      .dwattr $C$DW$70, DW_AT_external
     316              $C$DW$71        .dwtag  DW_TAG_formal_parameter
     317                      .dwattr $C$DW$71, DW_AT_type(*$C$DW$T$241)
     318                      .dwendtag $C$DW$70
     319              
     320              
     321              $C$DW$72        .dwtag  DW_TAG_subprogram, DW_AT_name("usDelay")
     322                      .dwattr $C$DW$72, DW_AT_TI_symbol_name("_usDelay")
     323                      .dwattr $C$DW$72, DW_AT_declaration
     324                      .dwattr $C$DW$72, DW_AT_external
     325              $C$DW$73        .dwtag  DW_TAG_formal_parameter
     326                      .dwattr $C$DW$73, DW_AT_type(*$C$DW$T$67)
     327                      .dwendtag $C$DW$72
     328              
TMS320C2000 Assembler PC v6.2.5 Tue Nov 21 22:57:45 2017

Tools Copyright (c) 1996-2014 Texas Instruments Incorporated
C:\Users\wmj\AppData\Local\Temp\1055210                              PAGE    7

     329              
     330              $C$DW$74        .dwtag  DW_TAG_subprogram, DW_AT_name("SCI_clearRxFifoInt")
     331                      .dwattr $C$DW$74, DW_AT_TI_symbol_name("_SCI_clearRxFifoInt")
     332                      .dwattr $C$DW$74, DW_AT_declaration
     333                      .dwattr $C$DW$74, DW_AT_external
     334              $C$DW$75        .dwtag  DW_TAG_formal_parameter
     335                      .dwattr $C$DW$75, DW_AT_type(*$C$DW$T$152)
     336                      .dwendtag $C$DW$74
     337              
     338              
     339              $C$DW$76        .dwtag  DW_TAG_subprogram, DW_AT_name("SCI_clearTxFifoInt")
     340                      .dwattr $C$DW$76, DW_AT_TI_symbol_name("_SCI_clearTxFifoInt")
     341                      .dwattr $C$DW$76, DW_AT_declaration
     342                      .dwattr $C$DW$76, DW_AT_external
     343              $C$DW$77        .dwtag  DW_TAG_formal_parameter
     344                      .dwattr $C$DW$77, DW_AT_type(*$C$DW$T$152)
     345                      .dwendtag $C$DW$76
     346              
     347              
     348              $C$DW$78        .dwtag  DW_TAG_subprogram, DW_AT_name("SCI_clearRxFifoOvf")
     349                      .dwattr $C$DW$78, DW_AT_TI_symbol_name("_SCI_clearRxFifoOvf")
     350                      .dwattr $C$DW$78, DW_AT_declaration
     351                      .dwattr $C$DW$78, DW_AT_external
     352              $C$DW$79        .dwtag  DW_TAG_formal_parameter
     353                      .dwattr $C$DW$79, DW_AT_type(*$C$DW$T$152)
     354                      .dwendtag $C$DW$78
     355              
     356              
     357              $C$DW$80        .dwtag  DW_TAG_subprogram, DW_AT_name("USER_checkForErrors")
     358                      .dwattr $C$DW$80, DW_AT_TI_symbol_name("_USER_checkForErrors")
     359                      .dwattr $C$DW$80, DW_AT_declaration
     360                      .dwattr $C$DW$80, DW_AT_external
     361              $C$DW$81        .dwtag  DW_TAG_formal_parameter
     362                      .dwattr $C$DW$81, DW_AT_type(*$C$DW$T$241)
     363                      .dwendtag $C$DW$80
     364              
     365              
     366              $C$DW$82        .dwtag  DW_TAG_subprogram, DW_AT_name("USER_checkDefErrors")
     367                      .dwattr $C$DW$82, DW_AT_TI_symbol_name("_USER_checkDefErrors")
     368                      .dwattr $C$DW$82, DW_AT_declaration
     369                      .dwattr $C$DW$82, DW_AT_external
     370              $C$DW$83        .dwtag  DW_TAG_formal_parameter
     371                      .dwattr $C$DW$83, DW_AT_type(*$C$DW$T$241)
     372                      .dwendtag $C$DW$82
     373              
     374              
     375              $C$DW$84        .dwtag  DW_TAG_subprogram, DW_AT_name("USER_setMotorIDs")
     376                      .dwattr $C$DW$84, DW_AT_TI_symbol_name("_USER_setMotorIDs")
     377                      .dwattr $C$DW$84, DW_AT_declaration
     378                      .dwattr $C$DW$84, DW_AT_external
     379              $C$DW$85        .dwtag  DW_TAG_formal_parameter
     380                      .dwattr $C$DW$85, DW_AT_type(*$C$DW$T$241)
     381              $C$DW$86        .dwtag  DW_TAG_formal_parameter
     382                      .dwattr $C$DW$86, DW_AT_type(*$C$DW$T$260)
     383                      .dwendtag $C$DW$84
TMS320C2000 Assembler PC v6.2.5 Tue Nov 21 22:57:45 2017

Tools Copyright (c) 1996-2014 Texas Instruments Incorporated
C:\Users\wmj\AppData\Local\Temp\1055210                              PAGE    8

     384              
     385              
     386              $C$DW$87        .dwtag  DW_TAG_subprogram, DW_AT_name("USER_setMotorParams")
     387                      .dwattr $C$DW$87, DW_AT_TI_symbol_name("_USER_setMotorParams")
     388                      .dwattr $C$DW$87, DW_AT_declaration
     389                      .dwattr $C$DW$87, DW_AT_external
     390              $C$DW$88        .dwtag  DW_TAG_formal_parameter
     391                      .dwattr $C$DW$88, DW_AT_type(*$C$DW$T$241)
     392                      .dwendtag $C$DW$87
     393              
     394              
     395              $C$DW$89        .dwtag  DW_TAG_subprogram, DW_AT_name("USER_setBoardParams")
     396                      .dwattr $C$DW$89, DW_AT_TI_symbol_name("_USER_setBoardParams")
     397                      .dwattr $C$DW$89, DW_AT_declaration
     398                      .dwattr $C$DW$89, DW_AT_external
     399              $C$DW$90        .dwtag  DW_TAG_formal_parameter
     400                      .dwattr $C$DW$90, DW_AT_type(*$C$DW$T$241)
     401                      .dwendtag $C$DW$89
     402              
     403              
     404              $C$DW$91        .dwtag  DW_TAG_subprogram, DW_AT_name("EST_setFlag_enableRsRecalc")
     405                      .dwattr $C$DW$91, DW_AT_TI_symbol_name("_EST_setFlag_enableRsRecalc")
     406                      .dwattr $C$DW$91, DW_AT_declaration
     407                      .dwattr $C$DW$91, DW_AT_external
     408              $C$DW$92        .dwtag  DW_TAG_formal_parameter
     409                      .dwattr $C$DW$92, DW_AT_type(*$C$DW$T$49)
     410              $C$DW$93        .dwtag  DW_TAG_formal_parameter
     411                      .dwattr $C$DW$93, DW_AT_type(*$C$DW$T$298)
     412                      .dwendtag $C$DW$91
     413              
     414              
     415              $C$DW$94        .dwtag  DW_TAG_subprogram, DW_AT_name("memCopy")
     416                      .dwattr $C$DW$94, DW_AT_TI_symbol_name("_memCopy")
     417                      .dwattr $C$DW$94, DW_AT_declaration
     418                      .dwattr $C$DW$94, DW_AT_external
     419              $C$DW$95        .dwtag  DW_TAG_formal_parameter
     420                      .dwattr $C$DW$95, DW_AT_type(*$C$DW$T$295)
     421              $C$DW$96        .dwtag  DW_TAG_formal_parameter
     422                      .dwattr $C$DW$96, DW_AT_type(*$C$DW$T$295)
     423              $C$DW$97        .dwtag  DW_TAG_formal_parameter
     424                      .dwattr $C$DW$97, DW_AT_type(*$C$DW$T$295)
     425                      .dwendtag $C$DW$94
     426              
     427              
     428              $C$DW$98        .dwtag  DW_TAG_subprogram, DW_AT_name("TIMER_clearFlag")
     429                      .dwattr $C$DW$98, DW_AT_TI_symbol_name("_TIMER_clearFlag")
     430                      .dwattr $C$DW$98, DW_AT_declaration
     431                      .dwattr $C$DW$98, DW_AT_external
     432              $C$DW$99        .dwtag  DW_TAG_formal_parameter
     433                      .dwattr $C$DW$99, DW_AT_type(*$C$DW$T$145)
     434                      .dwendtag $C$DW$98
     435              
     436              
     437              $C$DW$100       .dwtag  DW_TAG_subprogram, DW_AT_name("USER_setWaitTimeParams")
     438                      .dwattr $C$DW$100, DW_AT_TI_symbol_name("_USER_setWaitTimeParams")
TMS320C2000 Assembler PC v6.2.5 Tue Nov 21 22:57:45 2017

Tools Copyright (c) 1996-2014 Texas Instruments Incorporated
C:\Users\wmj\AppData\Local\Temp\1055210                              PAGE    9

     439                      .dwattr $C$DW$100, DW_AT_declaration
     440                      .dwattr $C$DW$100, DW_AT_external
     441              $C$DW$101       .dwtag  DW_TAG_formal_parameter
     442                      .dwattr $C$DW$101, DW_AT_type(*$C$DW$T$241)
     443                      .dwendtag $C$DW$100
     444              
     445              
     446              $C$DW$102       .dwtag  DW_TAG_subprogram, DW_AT_name("GPIO_setLow")
     447                      .dwattr $C$DW$102, DW_AT_TI_symbol_name("_GPIO_setLow")
     448                      .dwattr $C$DW$102, DW_AT_declaration
     449                      .dwattr $C$DW$102, DW_AT_external
     450              $C$DW$103       .dwtag  DW_TAG_formal_parameter
     451                      .dwattr $C$DW$103, DW_AT_type(*$C$DW$T$127)
     452              $C$DW$104       .dwtag  DW_TAG_formal_parameter
     453                      .dwattr $C$DW$104, DW_AT_type(*$C$DW$T$253)
     454                      .dwendtag $C$DW$102
     455              
     456              
     457              $C$DW$105       .dwtag  DW_TAG_subprogram, DW_AT_name("GPIO_setHigh")
     458                      .dwattr $C$DW$105, DW_AT_TI_symbol_name("_GPIO_setHigh")
     459                      .dwattr $C$DW$105, DW_AT_declaration
     460                      .dwattr $C$DW$105, DW_AT_external
     461              $C$DW$106       .dwtag  DW_TAG_formal_parameter
     462                      .dwattr $C$DW$106, DW_AT_type(*$C$DW$T$127)
     463              $C$DW$107       .dwtag  DW_TAG_formal_parameter
     464                      .dwattr $C$DW$107, DW_AT_type(*$C$DW$T$253)
     465                      .dwendtag $C$DW$105
     466              
     467              
     468              $C$DW$108       .dwtag  DW_TAG_subprogram, DW_AT_name("CTRL_setParams")
     469                      .dwattr $C$DW$108, DW_AT_TI_symbol_name("_CTRL_setParams")
     470                      .dwattr $C$DW$108, DW_AT_declaration
     471                      .dwattr $C$DW$108, DW_AT_external
     472              $C$DW$109       .dwtag  DW_TAG_formal_parameter
     473                      .dwattr $C$DW$109, DW_AT_type(*$C$DW$T$211)
     474              $C$DW$110       .dwtag  DW_TAG_formal_parameter
     475                      .dwattr $C$DW$110, DW_AT_type(*$C$DW$T$241)
     476                      .dwendtag $C$DW$108
     477              
     478              
     479              $C$DW$111       .dwtag  DW_TAG_subprogram, DW_AT_name("PROCTRL_setCtrlHandle")
     480                      .dwattr $C$DW$111, DW_AT_TI_symbol_name("_PROCTRL_setCtrlHandle")
     481                      .dwattr $C$DW$111, DW_AT_declaration
     482                      .dwattr $C$DW$111, DW_AT_external
     483              $C$DW$112       .dwtag  DW_TAG_formal_parameter
     484                      .dwattr $C$DW$112, DW_AT_type(*$C$DW$T$284)
     485              $C$DW$113       .dwtag  DW_TAG_formal_parameter
     486                      .dwattr $C$DW$113, DW_AT_type(*$C$DW$T$211)
     487                      .dwendtag $C$DW$111
     488              
     489              
     490              $C$DW$114       .dwtag  DW_TAG_subprogram, DW_AT_name("CTRL_setup")
     491                      .dwattr $C$DW$114, DW_AT_TI_symbol_name("_CTRL_setup")
     492                      .dwattr $C$DW$114, DW_AT_declaration
     493                      .dwattr $C$DW$114, DW_AT_external
TMS320C2000 Assembler PC v6.2.5 Tue Nov 21 22:57:45 2017

Tools Copyright (c) 1996-2014 Texas Instruments Incorporated
C:\Users\wmj\AppData\Local\Temp\1055210                              PAGE   10

     494              $C$DW$115       .dwtag  DW_TAG_formal_parameter
     495                      .dwattr $C$DW$115, DW_AT_type(*$C$DW$T$211)
     496                      .dwendtag $C$DW$114
     497              
     498              
     499              $C$DW$116       .dwtag  DW_TAG_subprogram, DW_AT_name("CTRL_getVersion")
     500                      .dwattr $C$DW$116, DW_AT_TI_symbol_name("_CTRL_getVersion")
     501                      .dwattr $C$DW$116, DW_AT_declaration
     502                      .dwattr $C$DW$116, DW_AT_external
     503              $C$DW$117       .dwtag  DW_TAG_formal_parameter
     504                      .dwattr $C$DW$117, DW_AT_type(*$C$DW$T$211)
     505              $C$DW$118       .dwtag  DW_TAG_formal_parameter
     506                      .dwattr $C$DW$118, DW_AT_type(*$C$DW$T$266)
     507                      .dwendtag $C$DW$116
     508              
     509              
     510              $C$DW$119       .dwtag  DW_TAG_subprogram, DW_AT_name("CTRL_run")
     511                      .dwattr $C$DW$119, DW_AT_TI_symbol_name("_CTRL_run")
     512                      .dwattr $C$DW$119, DW_AT_declaration
     513                      .dwattr $C$DW$119, DW_AT_external
     514              $C$DW$120       .dwtag  DW_TAG_formal_parameter
     515                      .dwattr $C$DW$120, DW_AT_type(*$C$DW$T$211)
     516              $C$DW$121       .dwtag  DW_TAG_formal_parameter
     517                      .dwattr $C$DW$121, DW_AT_type(*$C$DW$T$83)
     518              $C$DW$122       .dwtag  DW_TAG_formal_parameter
     519                      .dwattr $C$DW$122, DW_AT_type(*$C$DW$T$270)
     520              $C$DW$123       .dwtag  DW_TAG_formal_parameter
     521                      .dwattr $C$DW$123, DW_AT_type(*$C$DW$T$278)
     522                      .dwendtag $C$DW$119
     523              
     524              
     525              $C$DW$124       .dwtag  DW_TAG_subprogram, DW_AT_name("GPIO_read")
     526                      .dwattr $C$DW$124, DW_AT_TI_symbol_name("_GPIO_read")
     527                      .dwattr $C$DW$124, DW_AT_type(*$C$DW$T$33)
     528                      .dwattr $C$DW$124, DW_AT_declaration
     529                      .dwattr $C$DW$124, DW_AT_external
     530              $C$DW$125       .dwtag  DW_TAG_formal_parameter
     531                      .dwattr $C$DW$125, DW_AT_type(*$C$DW$T$127)
     532              $C$DW$126       .dwtag  DW_TAG_formal_parameter
     533                      .dwattr $C$DW$126, DW_AT_type(*$C$DW$T$253)
     534                      .dwendtag $C$DW$124
     535              
     536              
     537              $C$DW$127       .dwtag  DW_TAG_subprogram, DW_AT_name("USER_getErrorCode")
     538                      .dwattr $C$DW$127, DW_AT_TI_symbol_name("_USER_getErrorCode")
     539                      .dwattr $C$DW$127, DW_AT_type(*$C$DW$T$185)
     540                      .dwattr $C$DW$127, DW_AT_declaration
     541                      .dwattr $C$DW$127, DW_AT_external
     542              $C$DW$128       .dwtag  DW_TAG_formal_parameter
     543                      .dwattr $C$DW$128, DW_AT_type(*$C$DW$T$241)
     544                      .dwendtag $C$DW$127
     545              
     546                      .global _gLEDcnt
     547 00000000       _gLEDcnt:       .usect  ".ebss",1,1,0
     548              $C$DW$129       .dwtag  DW_TAG_variable, DW_AT_name("gLEDcnt")
TMS320C2000 Assembler PC v6.2.5 Tue Nov 21 22:57:45 2017

Tools Copyright (c) 1996-2014 Texas Instruments Incorporated
C:\Users\wmj\AppData\Local\Temp\1055210                              PAGE   11

     549                      .dwattr $C$DW$129, DW_AT_TI_symbol_name("_gLEDcnt")
     550                      .dwattr $C$DW$129, DW_AT_location[DW_OP_addr _gLEDcnt]
     551                      .dwattr $C$DW$129, DW_AT_type(*$C$DW$T$22)
     552                      .dwattr $C$DW$129, DW_AT_external
     553 00000001       _MeasCnt$1:     .usect  ".ebss",1,1,0
     554              
     555              $C$DW$130       .dwtag  DW_TAG_subprogram, DW_AT_name("MB_Poll")
     556                      .dwattr $C$DW$130, DW_AT_TI_symbol_name("_MB_Poll")
     557                      .dwattr $C$DW$130, DW_AT_type(*$C$DW$T$172)
     558                      .dwattr $C$DW$130, DW_AT_declaration
     559                      .dwattr $C$DW$130, DW_AT_external
     560              $C$DW$131       .dwtag  DW_TAG_formal_parameter
     561                      .dwattr $C$DW$131, DW_AT_type(*$C$DW$T$219)
     562                      .dwendtag $C$DW$130
     563              
     564              
     565              $C$DW$132       .dwtag  DW_TAG_subprogram, DW_AT_name("__IQmpy")
     566                      .dwattr $C$DW$132, DW_AT_TI_symbol_name("___IQmpy")
     567                      .dwattr $C$DW$132, DW_AT_type(*$C$DW$T$12)
     568                      .dwattr $C$DW$132, DW_AT_declaration
     569                      .dwattr $C$DW$132, DW_AT_external
     570              $C$DW$133       .dwtag  DW_TAG_formal_parameter
     571                      .dwattr $C$DW$133, DW_AT_type(*$C$DW$T$12)
     572              $C$DW$134       .dwtag  DW_TAG_formal_parameter
     573                      .dwattr $C$DW$134, DW_AT_type(*$C$DW$T$12)
     574              $C$DW$135       .dwtag  DW_TAG_formal_parameter
     575                      .dwattr $C$DW$135, DW_AT_type(*$C$DW$T$10)
     576                      .dwendtag $C$DW$132
     577              
     578                      .global _halHandle
     579 00000002       _halHandle:     .usect  ".ebss",2,1,1
     580              $C$DW$136       .dwtag  DW_TAG_variable, DW_AT_name("halHandle")
     581                      .dwattr $C$DW$136, DW_AT_TI_symbol_name("_halHandle")
     582                      .dwattr $C$DW$136, DW_AT_location[DW_OP_addr _halHandle]
     583                      .dwattr $C$DW$136, DW_AT_type(*$C$DW$T$83)
     584                      .dwattr $C$DW$136, DW_AT_external
     585                      .global _ctrlHandle
     586 00000004       _ctrlHandle:    .usect  ".ebss",2,1,1
     587              $C$DW$137       .dwtag  DW_TAG_variable, DW_AT_name("ctrlHandle")
     588                      .dwattr $C$DW$137, DW_AT_TI_symbol_name("_ctrlHandle")
     589                      .dwattr $C$DW$137, DW_AT_location[DW_OP_addr _ctrlHandle]
     590                      .dwattr $C$DW$137, DW_AT_type(*$C$DW$T$211)
     591                      .dwattr $C$DW$137, DW_AT_external
     592              
     593              $C$DW$138       .dwtag  DW_TAG_subprogram, DW_AT_name("labs")
     594                      .dwattr $C$DW$138, DW_AT_TI_symbol_name("_labs")
     595                      .dwattr $C$DW$138, DW_AT_type(*$C$DW$T$12)
     596                      .dwattr $C$DW$138, DW_AT_declaration
     597                      .dwattr $C$DW$138, DW_AT_external
     598              $C$DW$139       .dwtag  DW_TAG_formal_parameter
     599                      .dwattr $C$DW$139, DW_AT_type(*$C$DW$T$12)
     600                      .dwendtag $C$DW$138
     601              
     602              $C$DW$140       .dwtag  DW_TAG_variable, DW_AT_name("RamfuncsRunStart")
     603                      .dwattr $C$DW$140, DW_AT_TI_symbol_name("_RamfuncsRunStart")
TMS320C2000 Assembler PC v6.2.5 Tue Nov 21 22:57:45 2017

Tools Copyright (c) 1996-2014 Texas Instruments Incorporated
C:\Users\wmj\AppData\Local\Temp\1055210                              PAGE   12

     604                      .dwattr $C$DW$140, DW_AT_type(*$C$DW$T$295)
     605                      .dwattr $C$DW$140, DW_AT_declaration
     606                      .dwattr $C$DW$140, DW_AT_external
     607              $C$DW$141       .dwtag  DW_TAG_variable, DW_AT_name("RamfuncsLoadEnd")
     608                      .dwattr $C$DW$141, DW_AT_TI_symbol_name("_RamfuncsLoadEnd")
     609                      .dwattr $C$DW$141, DW_AT_type(*$C$DW$T$295)
     610                      .dwattr $C$DW$141, DW_AT_declaration
     611                      .dwattr $C$DW$141, DW_AT_external
     612                      .global _proctrlHandle
     613 00000006       _proctrlHandle: .usect  ".ebss",2,1,1
     614              $C$DW$142       .dwtag  DW_TAG_variable, DW_AT_name("proctrlHandle")
     615                      .dwattr $C$DW$142, DW_AT_TI_symbol_name("_proctrlHandle")
     616                      .dwattr $C$DW$142, DW_AT_location[DW_OP_addr _proctrlHandle]
     617                      .dwattr $C$DW$142, DW_AT_type(*$C$DW$T$284)
     618                      .dwattr $C$DW$142, DW_AT_external
     619              
     620              $C$DW$143       .dwtag  DW_TAG_subprogram, DW_AT_name("PROCTRL_init")
     621                      .dwattr $C$DW$143, DW_AT_TI_symbol_name("_PROCTRL_init")
     622                      .dwattr $C$DW$143, DW_AT_type(*$C$DW$T$284)
     623                      .dwattr $C$DW$143, DW_AT_declaration
     624                      .dwattr $C$DW$143, DW_AT_external
     625              $C$DW$144       .dwtag  DW_TAG_formal_parameter
     626                      .dwattr $C$DW$144, DW_AT_type(*$C$DW$T$3)
     627              $C$DW$145       .dwtag  DW_TAG_formal_parameter
     628                      .dwattr $C$DW$145, DW_AT_type(*$C$DW$T$262)
     629                      .dwendtag $C$DW$143
     630              
     631              
     632              $C$DW$146       .dwtag  DW_TAG_subprogram, DW_AT_name("CTRL_initCtrl")
     633                      .dwattr $C$DW$146, DW_AT_TI_symbol_name("_CTRL_initCtrl")
     634                      .dwattr $C$DW$146, DW_AT_type(*$C$DW$T$211)
     635                      .dwattr $C$DW$146, DW_AT_declaration
     636                      .dwattr $C$DW$146, DW_AT_external
     637              $C$DW$147       .dwtag  DW_TAG_formal_parameter
     638                      .dwattr $C$DW$147, DW_AT_type(*$C$DW$T$260)
     639              $C$DW$148       .dwtag  DW_TAG_formal_parameter
     640                      .dwattr $C$DW$148, DW_AT_type(*$C$DW$T$3)
     641              $C$DW$149       .dwtag  DW_TAG_formal_parameter
     642                      .dwattr $C$DW$149, DW_AT_type(*$C$DW$T$262)
     643                      .dwendtag $C$DW$146
     644              
     645              
     646              $C$DW$150       .dwtag  DW_TAG_subprogram, DW_AT_name("__IQsat")
     647                      .dwattr $C$DW$150, DW_AT_TI_symbol_name("___IQsat")
     648                      .dwattr $C$DW$150, DW_AT_type(*$C$DW$T$12)
     649                      .dwattr $C$DW$150, DW_AT_declaration
     650                      .dwattr $C$DW$150, DW_AT_external
     651              $C$DW$151       .dwtag  DW_TAG_formal_parameter
     652                      .dwattr $C$DW$151, DW_AT_type(*$C$DW$T$12)
     653              $C$DW$152       .dwtag  DW_TAG_formal_parameter
     654                      .dwattr $C$DW$152, DW_AT_type(*$C$DW$T$12)
     655              $C$DW$153       .dwtag  DW_TAG_formal_parameter
     656                      .dwattr $C$DW$153, DW_AT_type(*$C$DW$T$12)
     657                      .dwendtag $C$DW$150
     658              
TMS320C2000 Assembler PC v6.2.5 Tue Nov 21 22:57:45 2017

Tools Copyright (c) 1996-2014 Texas Instruments Incorporated
C:\Users\wmj\AppData\Local\Temp\1055210                              PAGE   13

     659              $C$DW$154       .dwtag  DW_TAG_variable, DW_AT_name("RamfuncsLoadStart")
     660                      .dwattr $C$DW$154, DW_AT_TI_symbol_name("_RamfuncsLoadStart")
     661                      .dwattr $C$DW$154, DW_AT_type(*$C$DW$T$295)
     662                      .dwattr $C$DW$154, DW_AT_declaration
     663                      .dwattr $C$DW$154, DW_AT_external
     664              
     665              $C$DW$155       .dwtag  DW_TAG_subprogram, DW_AT_name("HAL_init")
     666                      .dwattr $C$DW$155, DW_AT_TI_symbol_name("_HAL_init")
     667                      .dwattr $C$DW$155, DW_AT_type(*$C$DW$T$83)
     668                      .dwattr $C$DW$155, DW_AT_declaration
     669                      .dwattr $C$DW$155, DW_AT_external
     670              $C$DW$156       .dwtag  DW_TAG_formal_parameter
     671                      .dwattr $C$DW$156, DW_AT_type(*$C$DW$T$3)
     672              $C$DW$157       .dwtag  DW_TAG_formal_parameter
     673                      .dwattr $C$DW$157, DW_AT_type(*$C$DW$T$262)
     674                      .dwendtag $C$DW$155
     675              
     676              
     677              $C$DW$158       .dwtag  DW_TAG_subprogram, DW_AT_name("EST_getFm_pu")
     678                      .dwattr $C$DW$158, DW_AT_TI_symbol_name("_EST_getFm_pu")
     679                      .dwattr $C$DW$158, DW_AT_type(*$C$DW$T$31)
     680                      .dwattr $C$DW$158, DW_AT_declaration
     681                      .dwattr $C$DW$158, DW_AT_external
     682              $C$DW$159       .dwtag  DW_TAG_formal_parameter
     683                      .dwattr $C$DW$159, DW_AT_type(*$C$DW$T$49)
     684                      .dwendtag $C$DW$158
     685              
     686                      .global _gUserParams
     687 00000040       _gUserParams:   .usect  ".ebss",172,1,1
     688              $C$DW$160       .dwtag  DW_TAG_variable, DW_AT_name("gUserParams")
     689                      .dwattr $C$DW$160, DW_AT_TI_symbol_name("_gUserParams")
     690                      .dwattr $C$DW$160, DW_AT_location[DW_OP_addr _gUserParams]
     691                      .dwattr $C$DW$160, DW_AT_type(*$C$DW$T$240)
     692                      .dwattr $C$DW$160, DW_AT_external
     693              $C$DW$161       .dwtag  DW_TAG_variable, DW_AT_name("hal")
     694                      .dwattr $C$DW$161, DW_AT_TI_symbol_name("_hal")
     695                      .dwattr $C$DW$161, DW_AT_type(*$C$DW$T$273)
     696                      .dwattr $C$DW$161, DW_AT_declaration
     697                      .dwattr $C$DW$161, DW_AT_external
     698                      .global _MyProcessCtrl
     699 00000100       _MyProcessCtrl: .usect  ".ebss",252,1,1
     700              $C$DW$162       .dwtag  DW_TAG_variable, DW_AT_name("MyProcessCtrl")
     701                      .dwattr $C$DW$162, DW_AT_TI_symbol_name("_MyProcessCtrl")
     702                      .dwattr $C$DW$162, DW_AT_location[DW_OP_addr _MyProcessCtrl]
     703                      .dwattr $C$DW$162, DW_AT_type(*$C$DW$T$282)
     704                      .dwattr $C$DW$162, DW_AT_external
     705                      .global _ctrl
     706 00000200       _ctrl:  .usect  ".ebss",264,1,1
     707              $C$DW$163       .dwtag  DW_TAG_variable, DW_AT_name("ctrl")
     708                      .dwattr $C$DW$163, DW_AT_TI_symbol_name("_ctrl")
     709                      .dwattr $C$DW$163, DW_AT_location[DW_OP_addr _ctrl]
     710                      .dwattr $C$DW$163, DW_AT_type(*$C$DW$T$258)
     711                      .dwattr $C$DW$163, DW_AT_external
     712              ;       C:\ti\ccsv6\tools\compiler\c2000_6.2.5\bin\opt2000.exe C:\\Users\\wmj\\AppData\\Local\\Temp\\105522 C
     713              ;       C:\ti\ccsv6\tools\compiler\c2000_6.2.5\bin\ac2000.exe -@C:\\Users\\wmj\\AppData\\Local\\Temp\\1055216
TMS320C2000 Assembler PC v6.2.5 Tue Nov 21 22:57:45 2017

Tools Copyright (c) 1996-2014 Texas Instruments Incorporated
C:\Users\wmj\AppData\Local\Temp\1055210                              PAGE   14

     714 00000000               .sect   "ramfuncs:retain"
     715                      .retain
     716                      .retainrefs
     717                      .global _mainISR
     718              
     719              $C$DW$164       .dwtag  DW_TAG_subprogram, DW_AT_name("mainISR")
     720                      .dwattr $C$DW$164, DW_AT_low_pc(_mainISR)
     721                      .dwattr $C$DW$164, DW_AT_high_pc(0x00)
     722                      .dwattr $C$DW$164, DW_AT_TI_symbol_name("_mainISR")
     723                      .dwattr $C$DW$164, DW_AT_external
     724                      .dwattr $C$DW$164, DW_AT_TI_begin_file("D:/BM1000_v1.1/sw/solutions/instaspin/src/proj_bm1000.c")
     725                      .dwattr $C$DW$164, DW_AT_TI_begin_line(0x157)
     726                      .dwattr $C$DW$164, DW_AT_TI_begin_column(0x10)
     727                      .dwattr $C$DW$164, DW_AT_TI_interrupt
     728                      .dwattr $C$DW$164, DW_AT_TI_max_frame_size(-22)
     729                      .dwpsn  file "D:/BM1000_v1.1/sw/solutions/instaspin/src/proj_bm1000.c",line 344,column 1,is_stmt,addr
     730              
     731                      .dwfde $C$DW$CIE, _mainISR
     732              $C$DW$165       .dwtag  DW_TAG_variable, DW_AT_name("MeasCnt")
     733                      .dwattr $C$DW$165, DW_AT_TI_symbol_name("_MeasCnt$1")
     734                      .dwattr $C$DW$165, DW_AT_type(*$C$DW$T$22)
     735                      .dwattr $C$DW$165, DW_AT_location[DW_OP_addr _MeasCnt$1]
     736              
     737              ;***************************************************************
     738              ;* FNAME: _mainISR                      FR SIZE:  20           *
     739              ;*                                                             *
     740              ;* FUNCTION ENVIRONMENT                                        *
     741              ;*                                                             *
     742              ;* FUNCTION PROPERTIES                                         *
     743              ;*                            4 Parameter,  0 Auto, 16 SOE     *
     744              ;***************************************************************
     745              
     746              _mainISR:
     747              ;* AR4   assigned to $O$C3
     748              ;* AR4   assigned to $O$C4
     749              ;* AR5   assigned to $O$C5
     750              ;* AR7   assigned to $O$C6
     751              ;* AR6   assigned to $O$C7
     752              ;* AR4   assigned to $O$C8
     753              ;* AR6   assigned to $O$C9
     754              ;* AR0   assigned to $O$C10
     755              ;* AR7   assigned to $O$C11
     756              ;* AR4   assigned to $O$C12
     757              ;* AR7   assigned to $O$C13
     758              ;* AR4   assigned to $O$U96
     759              ;* AR5   assigned to $O$U0
     760              ;* AR4   assigned to $O$U158
     761              ;* AR5   assigned to $O$U168
     762              ;* AL    assigned to $O$U167
     763              ;* AR4   assigned to $O$U157
     764              ;* AR6   assigned to $O$L1
     765              ;* AR5   assigned to _obj
     766              $C$DW$166       .dwtag  DW_TAG_variable, DW_AT_name("obj")
     767                      .dwattr $C$DW$166, DW_AT_TI_symbol_name("_obj")
     768                      .dwattr $C$DW$166, DW_AT_type(*$C$DW$T$274)
TMS320C2000 Assembler PC v6.2.5 Tue Nov 21 22:57:45 2017

Tools Copyright (c) 1996-2014 Texas Instruments Incorporated
C:\Users\wmj\AppData\Local\Temp\1055210                              PAGE   15

     769                      .dwattr $C$DW$166, DW_AT_location[DW_OP_reg14]
     770              ;* AR4   assigned to _pAdcData
     771              $C$DW$167       .dwtag  DW_TAG_variable, DW_AT_name("pAdcData")
     772                      .dwattr $C$DW$167, DW_AT_TI_symbol_name("_pAdcData")
     773                      .dwattr $C$DW$167, DW_AT_type(*$C$DW$T$271)
     774                      .dwattr $C$DW$167, DW_AT_location[DW_OP_reg12]
     775              ;* AR2   assigned to _current_sf
     776              $C$DW$168       .dwtag  DW_TAG_variable, DW_AT_name("current_sf")
     777                      .dwattr $C$DW$168, DW_AT_TI_symbol_name("_current_sf")
     778                      .dwattr $C$DW$168, DW_AT_type(*$C$DW$T$31)
     779                      .dwattr $C$DW$168, DW_AT_location[DW_OP_reg8]
     780              ;* AR3   assigned to _voltage_sf
     781              $C$DW$169       .dwtag  DW_TAG_variable, DW_AT_name("voltage_sf")
     782                      .dwattr $C$DW$169, DW_AT_TI_symbol_name("_voltage_sf")
     783                      .dwattr $C$DW$169, DW_AT_type(*$C$DW$T$31)
     784                      .dwattr $C$DW$169, DW_AT_location[DW_OP_reg10]
     785              ;* AR3   assigned to _handle
     786              $C$DW$170       .dwtag  DW_TAG_variable, DW_AT_name("handle")
     787                      .dwattr $C$DW$170, DW_AT_TI_symbol_name("_handle")
     788                      .dwattr $C$DW$170, DW_AT_type(*$C$DW$T$211)
     789                      .dwattr $C$DW$170, DW_AT_location[DW_OP_reg10]
     790              ;* AR2   assigned to _ctrl
     791              $C$DW$171       .dwtag  DW_TAG_variable, DW_AT_name("ctrl")
     792                      .dwattr $C$DW$171, DW_AT_TI_symbol_name("_ctrl")
     793                      .dwattr $C$DW$171, DW_AT_type(*$C$DW$T$259)
     794                      .dwattr $C$DW$171, DW_AT_location[DW_OP_reg8]
     795              ;* AR1   assigned to _fs
     796              $C$DW$172       .dwtag  DW_TAG_variable, DW_AT_name("fs")
     797                      .dwattr $C$DW$172, DW_AT_TI_symbol_name("_fs")
     798                      .dwattr $C$DW$172, DW_AT_type(*$C$DW$T$268)
     799                      .dwattr $C$DW$172, DW_AT_location[DW_OP_reg6]
     800              ;* AL    assigned to _pPwmData
     801              $C$DW$173       .dwtag  DW_TAG_variable, DW_AT_name("pPwmData")
     802                      .dwattr $C$DW$173, DW_AT_TI_symbol_name("_pPwmData")
     803                      .dwattr $C$DW$173, DW_AT_type(*$C$DW$T$278)
     804                      .dwattr $C$DW$173, DW_AT_location[DW_OP_reg0]
     805              ;* AR0   assigned to _period
     806              $C$DW$174       .dwtag  DW_TAG_variable, DW_AT_name("period")
     807                      .dwattr $C$DW$174, DW_AT_TI_symbol_name("_period")
     808                      .dwattr $C$DW$174, DW_AT_type(*$C$DW$T$31)
     809                      .dwattr $C$DW$174, DW_AT_location[DW_OP_reg4]
     810              ;* XT    assigned to _value
     811              $C$DW$175       .dwtag  DW_TAG_variable, DW_AT_name("value")
     812                      .dwattr $C$DW$175, DW_AT_TI_symbol_name("_value")
     813                      .dwattr $C$DW$175, DW_AT_type(*$C$DW$T$31)
     814                      .dwattr $C$DW$175, DW_AT_location[DW_OP_reg21]
     815              ;* XT    assigned to _value
     816              $C$DW$176       .dwtag  DW_TAG_variable, DW_AT_name("value")
     817                      .dwattr $C$DW$176, DW_AT_TI_symbol_name("_value")
     818                      .dwattr $C$DW$176, DW_AT_type(*$C$DW$T$31)
     819                      .dwattr $C$DW$176, DW_AT_location[DW_OP_reg21]
     820              ;* XT    assigned to _value
     821              $C$DW$177       .dwtag  DW_TAG_variable, DW_AT_name("value")
     822                      .dwattr $C$DW$177, DW_AT_TI_symbol_name("_value")
     823                      .dwattr $C$DW$177, DW_AT_type(*$C$DW$T$31)
TMS320C2000 Assembler PC v6.2.5 Tue Nov 21 22:57:45 2017

Tools Copyright (c) 1996-2014 Texas Instruments Incorporated
C:\Users\wmj\AppData\Local\Temp\1055210                              PAGE   16

     824                      .dwattr $C$DW$177, DW_AT_location[DW_OP_reg21]
     825              ;* XT    assigned to _value
     826              $C$DW$178       .dwtag  DW_TAG_variable, DW_AT_name("value")
     827                      .dwattr $C$DW$178, DW_AT_TI_symbol_name("_value")
     828                      .dwattr $C$DW$178, DW_AT_type(*$C$DW$T$31)
     829                      .dwattr $C$DW$178, DW_AT_location[DW_OP_reg21]
     830              ;* XT    assigned to _value
     831              $C$DW$179       .dwtag  DW_TAG_variable, DW_AT_name("value")
     832                      .dwattr $C$DW$179, DW_AT_TI_symbol_name("_value")
     833                      .dwattr $C$DW$179, DW_AT_type(*$C$DW$T$31)
     834                      .dwattr $C$DW$179, DW_AT_location[DW_OP_reg21]
     835              ;* XT    assigned to _value
     836              $C$DW$180       .dwtag  DW_TAG_variable, DW_AT_name("value")
     837                      .dwattr $C$DW$180, DW_AT_TI_symbol_name("_value")
     838                      .dwattr $C$DW$180, DW_AT_type(*$C$DW$T$31)
     839                      .dwattr $C$DW$180, DW_AT_location[DW_OP_reg21]
     840              ;* XT    assigned to _value
     841              $C$DW$181       .dwtag  DW_TAG_variable, DW_AT_name("value")
     842                      .dwattr $C$DW$181, DW_AT_TI_symbol_name("_value")
     843                      .dwattr $C$DW$181, DW_AT_type(*$C$DW$T$31)
     844                      .dwattr $C$DW$181, DW_AT_location[DW_OP_reg21]
     845              ;* AL    assigned to _value
     846              $C$DW$182       .dwtag  DW_TAG_variable, DW_AT_name("value")
     847                      .dwattr $C$DW$182, DW_AT_TI_symbol_name("_value")
     848                      .dwattr $C$DW$182, DW_AT_type(*$C$DW$T$31)
     849                      .dwattr $C$DW$182, DW_AT_location[DW_OP_reg0]
     850              ;* AL    assigned to _value
     851              $C$DW$183       .dwtag  DW_TAG_variable, DW_AT_name("value")
     852                      .dwattr $C$DW$183, DW_AT_TI_symbol_name("_value")
     853                      .dwattr $C$DW$183, DW_AT_type(*$C$DW$T$31)
     854                      .dwattr $C$DW$183, DW_AT_location[DW_OP_reg0]
     855              ;* AL    assigned to _value
     856              $C$DW$184       .dwtag  DW_TAG_variable, DW_AT_name("value")
     857                      .dwattr $C$DW$184, DW_AT_TI_symbol_name("_value")
     858                      .dwattr $C$DW$184, DW_AT_type(*$C$DW$T$31)
     859                      .dwattr $C$DW$184, DW_AT_location[DW_OP_reg0]
     860              ;* AL    assigned to _value
     861              $C$DW$185       .dwtag  DW_TAG_variable, DW_AT_name("value")
     862                      .dwattr $C$DW$185, DW_AT_TI_symbol_name("_value")
     863                      .dwattr $C$DW$185, DW_AT_type(*$C$DW$T$31)
     864                      .dwattr $C$DW$185, DW_AT_location[DW_OP_reg0]
     865              ;* AR5   assigned to $O$v1
     866              ;* AR6   assigned to $O$U10
     867              ;* AR4   assigned to $O$U10
     868                      .dwcfi  cfa_offset, -2
     869                      .dwcfi  save_reg_to_mem, 26, 0
     870                      .dwcfi  save_reg_to_reg, 78, 26
     871 00000000 761B          ASP       ; [CPU_] 
     872 00000001 0005          PUSH      AR1H:AR0H             ; [CPU_] 
     873                      .dwcfi  save_reg_to_mem, 5, 2
     874                      .dwcfi  save_reg_to_mem, 7, 3
     875                      .dwcfi  cfa_offset, -4
     876 00000002 ABBD          MOVL      *SP++,XT              ; [CPU_] 
     877                      .dwcfi  save_reg_to_mem, 21, 4
     878                      .dwcfi  save_reg_to_mem, 22, 5
TMS320C2000 Assembler PC v6.2.5 Tue Nov 21 22:57:45 2017

Tools Copyright (c) 1996-2014 Texas Instruments Incorporated
C:\Users\wmj\AppData\Local\Temp\1055210                              PAGE   17

     879                      .dwcfi  cfa_offset, -6
     880 00000003 AABD          MOVL      *SP++,XAR2            ; [CPU_] 
     881                      .dwcfi  save_reg_to_mem, 8, 6
     882                      .dwcfi  save_reg_to_mem, 9, 7
     883                      .dwcfi  cfa_offset, -8
     884 00000004 A2BD          MOVL      *SP++,XAR3            ; [CPU_] 
     885                      .dwcfi  save_reg_to_mem, 10, 8
     886                      .dwcfi  save_reg_to_mem, 11, 9
     887                      .dwcfi  cfa_offset, -10
     888 00000005 A8BD          MOVL      *SP++,XAR4            ; [CPU_] 
     889                      .dwcfi  save_reg_to_mem, 12, 10
     890                      .dwcfi  save_reg_to_mem, 13, 11
     891                      .dwcfi  cfa_offset, -12
     892 00000006 A0BD          MOVL      *SP++,XAR5            ; [CPU_] 
     893                      .dwcfi  save_reg_to_mem, 14, 12
     894                      .dwcfi  save_reg_to_mem, 15, 13
     895                      .dwcfi  cfa_offset, -14
     896 00000007 C2BD          MOVL      *SP++,XAR6            ; [CPU_] 
     897                      .dwcfi  save_reg_to_mem, 16, 14
     898                      .dwcfi  save_reg_to_mem, 17, 15
     899                      .dwcfi  cfa_offset, -16
     900 00000008 C3BD          MOVL      *SP++,XAR7            ; [CPU_] 
     901                      .dwcfi  save_reg_to_mem, 18, 16
     902                      .dwcfi  save_reg_to_mem, 19, 17
     903                      .dwcfi  cfa_offset, -18
     904 00000009 FE04          ADDB      SP,#4                 ; [CPU_U] 
     905                      .dwcfi  cfa_offset, -22
     906 0000000a FF69          SPM       0                     ; [CPU_] 
     907 0000000b 2942          CLRC      PAGE0,OVM             ; [CPU_] 
     908 0000000c 5616          CLRC      AMODE                 ; [CPU_] 
     909 0000000d 761F-         MOVW      DP,#_halHandle        ; [CPU_U] 
         0000000e 0000 
     910                      .dwpsn  file "D:/BM1000_v1.1/sw/solutions/instaspin/src/proj_bm1000.c",line 354,column 3,is_stmt
     911 0000000f 8302-         MOVL      XAR5,@_halHandle      ; [CPU_] |354| 
     912                      .dwpsn  file "D:/BM1000_v1.1/sw/drivers/adc/src/32b/f28x/f2802x/adc.h",line 571,column 3,is_stmt
     913 00000010 8AC5          MOVL      XAR4,*+XAR5[0]        ; [CPU_] |571| 
     914 00000011 8D00          MOVL      XAR0,#26117           ; [CPU_] |571| 
         00000012 6605 
     915 00000013 56BF          MOVB      *+XAR4[AR0],#1,UNC    ; [CPU_] |571| 
         00000014 0194 
     916                      .dwpsn  file "D:/BM1000_v1.1/sw/drivers/pie/src/32b/f28x/f2802x/pie.h",line 757,column 5,is_stmt
     917 00000015 D078          MOVB      XAR0,#120             ; [CPU_] |757| 
     918 00000016 8A95          MOVL      XAR4,*+XAR5[AR0]      ; [CPU_] |757| 
     919 00000017 56BF          MOVB      *+XAR4[1],#1,UNC      ; [CPU_] |757| 
         00000018 01CC 
     920                      .dwpsn  file "D:/BM1000_v1.1/sw/solutions/instaspin/src/proj_bm1000.c",line 357,column 3,is_stmt
     921 00000019 C406-         MOVL      XAR6,@_proctrlHandle  ; [CPU_] |357| 
     922 0000001a 02D6          MOVB      ACC,#214              ; [CPU_] |357| 
     923                      .dwpsn  file "D:/BM1000_v1.1/sw/modules/hal/boards/hvkit_rev1p1/f28x/f2802x/src/hal.h",line 391,colum
     924 0000001b D0AC          MOVB      XAR0,#172             ; [CPU_] |391| 
     925                      .dwpsn  file "D:/BM1000_v1.1/sw/solutions/instaspin/src/proj_bm1000.c",line 357,column 3,is_stmt
     926 0000001c 07A6          ADDL      ACC,XAR6              ; [CPU_] |357| 
     927                      .dwpsn  file "D:/BM1000_v1.1/sw/modules/hal/boards/hvkit_rev1p1/f28x/f2802x/src/hal.h",line 391,colum
     928 0000001d 8695          MOVL      XAR2,*+XAR5[AR0]      ; [CPU_] |391| 
     929                      .dwpsn  file "D:/BM1000_v1.1/sw/drivers/adc/src/32b/f28x/f2802x/adc.h",line 684,column 3,is_stmt
TMS320C2000 Assembler PC v6.2.5 Tue Nov 21 22:57:45 2017

Tools Copyright (c) 1996-2014 Texas Instruments Incorporated
C:\Users\wmj\AppData\Local\Temp\1055210                              PAGE   18

     930 0000001e C5C5          MOVL      XAR7,*+XAR5[0]        ; [CPU_] |684| 
     931                      .dwpsn  file "D:/BM1000_v1.1/sw/modules/hal/boards/hvkit_rev1p1/f28x/f2802x/src/hal.h",line 486,colum
     932 0000001f D0AE          MOVB      XAR0,#174             ; [CPU_] |486| 
     933                      .dwpsn  file "D:/BM1000_v1.1/sw/solutions/instaspin/src/proj_bm1000.c",line 357,column 3,is_stmt
     934 00000020 8AA9          MOVL      XAR4,ACC              ; [CPU_] |357| 
     935                      .dwpsn  file "D:/BM1000_v1.1/sw/modules/hal/boards/hvkit_rev1p1/f28x/f2802x/src/hal.h",line 486,colum
     936 00000021 8295          MOVL      XAR3,*+XAR5[AR0]      ; [CPU_] |486| 
     937                      .dwpsn  file "D:/BM1000_v1.1/sw/drivers/adc/src/32b/f28x/f2802x/adc.h",line 684,column 3,is_stmt
     938 00000022 0ECF          MOVU      ACC,*+XAR7[1]         ; [CPU_] |684| 
     939 00000023 1EAC          MOVL      XT,ACC                ; [CPU_] |684| 
     940                      .dwpsn  file "D:/BM1000_v1.1/sw/modules/hal/boards/hvkit_rev1p1/f28x/f2802x/src/hal.h",line 549,colum
     941 00000024 0296          MOVB      ACC,#150              ; [CPU_] |549| 
     942 00000025 5605          IMPYL     P,XT,XAR2             ; [CPU_] |549| 
         00000026 00A2 
     943 00000027 07A5          ADDL      ACC,XAR5              ; [CPU_] |549| 
     944 00000028 1EA7          MOVL      XAR7,ACC              ; [CPU_] |549| 
     945 00000029 5663          QMPYL     ACC,XT,XAR2           ; [CPU_] |549| 
         0000002a 00A2 
     946 0000002b 568B          ASR64     ACC:P,#12             ; [CPU_] |549| 
     947 0000002c A9A9          MOVL      ACC,P                 ; [CPU_] |549| 
     948 0000002d 03C7          SUBL      ACC,*+XAR7[0]         ; [CPU_] |549| 
     949                      .dwpsn  file "D:/BM1000_v1.1/sw/modules/hal/boards/hvkit_rev1p1/f28x/f2802x/src/hal.h",line 550,colum
     950 0000002e 1EC4          MOVL      *+XAR4[0],ACC         ; [CPU_] |550| 
     951                      .dwpsn  file "D:/BM1000_v1.1/sw/drivers/adc/src/32b/f28x/f2802x/adc.h",line 684,column 3,is_stmt
     952 0000002f 8EC5          MOVL      XAR0,*+XAR5[0]        ; [CPU_] |684| 
     953 00000030 0ED0          MOVU      ACC,*+XAR0[2]         ; [CPU_] |684| 
     954 00000031 1EAC          MOVL      XT,ACC                ; [CPU_] |684| 
     955                      .dwpsn  file "D:/BM1000_v1.1/sw/modules/hal/boards/hvkit_rev1p1/f28x/f2802x/src/hal.h",line 554,colum
     956 00000032 5663          QMPYL     ACC,XT,XAR2           ; [CPU_] |554| 
         00000033 00A2 
     957 00000034 5605          IMPYL     P,XT,XAR2             ; [CPU_] |554| 
         00000035 00A2 
     958 00000036 568B          ASR64     ACC:P,#12             ; [CPU_] |554| 
     959 00000037 A9A9          MOVL      ACC,P                 ; [CPU_] |554| 
     960 00000038 03D7          SUBL      ACC,*+XAR7[2]         ; [CPU_] |554| 
     961                      .dwpsn  file "D:/BM1000_v1.1/sw/modules/hal/boards/hvkit_rev1p1/f28x/f2802x/src/hal.h",line 555,colum
     962 00000039 1ED4          MOVL      *+XAR4[2],ACC         ; [CPU_] |555| 
     963                      .dwpsn  file "D:/BM1000_v1.1/sw/drivers/adc/src/32b/f28x/f2802x/adc.h",line 684,column 3,is_stmt
     964 0000003a 8EC5          MOVL      XAR0,*+XAR5[0]        ; [CPU_] |684| 
     965 0000003b 0ED8          MOVU      ACC,*+XAR0[3]         ; [CPU_] |684| 
     966 0000003c 1EAC          MOVL      XT,ACC                ; [CPU_] |684| 
     967                      .dwpsn  file "D:/BM1000_v1.1/sw/modules/hal/boards/hvkit_rev1p1/f28x/f2802x/src/hal.h",line 565,colum
     968 0000003d 8EA4          MOVL      XAR0,XAR4             ; [CPU_] |565| 
     969                      .dwpsn  file "D:/BM1000_v1.1/sw/modules/hal/boards/hvkit_rev1p1/f28x/f2802x/src/hal.h",line 559,colum
     970 0000003e 5663          QMPYL     ACC,XT,XAR2           ; [CPU_] |559| 
         0000003f 00A2 
     971 00000040 5605          IMPYL     P,XT,XAR2             ; [CPU_] |559| 
         00000041 00A2 
     972 00000042 568B          ASR64     ACC:P,#12             ; [CPU_] |559| 
     973 00000043 A9A9          MOVL      ACC,P                 ; [CPU_] |559| 
     974 00000044 03E7          SUBL      ACC,*+XAR7[4]         ; [CPU_] |559| 
     975                      .dwpsn  file "D:/BM1000_v1.1/sw/modules/hal/boards/hvkit_rev1p1/f28x/f2802x/src/hal.h",line 560,colum
     976 00000045 1EE4          MOVL      *+XAR4[4],ACC         ; [CPU_] |560| 
     977                      .dwpsn  file "D:/BM1000_v1.1/sw/drivers/adc/src/32b/f28x/f2802x/adc.h",line 684,column 3,is_stmt
     978 00000046 C5C5          MOVL      XAR7,*+XAR5[0]        ; [CPU_] |684| 
TMS320C2000 Assembler PC v6.2.5 Tue Nov 21 22:57:45 2017

Tools Copyright (c) 1996-2014 Texas Instruments Incorporated
C:\Users\wmj\AppData\Local\Temp\1055210                              PAGE   19

     979                      .dwpsn  file "D:/BM1000_v1.1/sw/modules/hal/boards/hvkit_rev1p1/f28x/f2802x/src/hal.h",line 565,colum
     980 00000047 D806          ADDB      XAR0,#6               ; [CPU_] |565| 
     981                      .dwpsn  file "D:/BM1000_v1.1/sw/drivers/adc/src/32b/f28x/f2802x/adc.h",line 684,column 3,is_stmt
     982 00000048 0EE7          MOVU      ACC,*+XAR7[4]         ; [CPU_] |684| 
     983 00000049 1EAC          MOVL      XT,ACC                ; [CPU_] |684| 
     984                      .dwpsn  file "D:/BM1000_v1.1/sw/modules/hal/boards/hvkit_rev1p1/f28x/f2802x/src/hal.h",line 564,colum
     985 0000004a 029C          MOVB      ACC,#156              ; [CPU_] |564| 
     986 0000004b 5605          IMPYL     P,XT,XAR3             ; [CPU_] |564| 
         0000004c 00A3 
     987 0000004d 07A5          ADDL      ACC,XAR5              ; [CPU_] |564| 
     988 0000004e 1EA7          MOVL      XAR7,ACC              ; [CPU_] |564| 
     989 0000004f 5663          QMPYL     ACC,XT,XAR3           ; [CPU_] |564| 
         00000050 00A3 
     990 00000051 568B          ASR64     ACC:P,#12             ; [CPU_] |564| 
     991 00000052 A9A9          MOVL      ACC,P                 ; [CPU_] |564| 
     992 00000053 03C7          SUBL      ACC,*+XAR7[0]         ; [CPU_] |564| 
     993                      .dwpsn  file "D:/BM1000_v1.1/sw/modules/hal/boards/hvkit_rev1p1/f28x/f2802x/src/hal.h",line 565,colum
     994 00000054 1EC0          MOVL      *+XAR0[0],ACC         ; [CPU_] |565| 
     995                      .dwpsn  file "D:/BM1000_v1.1/sw/drivers/adc/src/32b/f28x/f2802x/adc.h",line 684,column 3,is_stmt
     996 00000055 8BC5          MOVL      XAR1,*+XAR5[0]        ; [CPU_] |684| 
     997 00000056 0EE9          MOVU      ACC,*+XAR1[5]         ; [CPU_] |684| 
     998 00000057 1EAC          MOVL      XT,ACC                ; [CPU_] |684| 
     999                      .dwpsn  file "D:/BM1000_v1.1/sw/modules/hal/boards/hvkit_rev1p1/f28x/f2802x/src/hal.h",line 569,colum
    1000 00000058 5663          QMPYL     ACC,XT,XAR3           ; [CPU_] |569| 
         00000059 00A3 
    1001 0000005a 5605          IMPYL     P,XT,XAR3             ; [CPU_] |569| 
         0000005b 00A3 
    1002 0000005c 568B          ASR64     ACC:P,#12             ; [CPU_] |569| 
    1003 0000005d A9A9          MOVL      ACC,P                 ; [CPU_] |569| 
    1004 0000005e 03D7          SUBL      ACC,*+XAR7[2]         ; [CPU_] |569| 
    1005                      .dwpsn  file "D:/BM1000_v1.1/sw/modules/hal/boards/hvkit_rev1p1/f28x/f2802x/src/hal.h",line 570,colum
    1006 0000005f 1ED0          MOVL      *+XAR0[2],ACC         ; [CPU_] |570| 
    1007                      .dwpsn  file "D:/BM1000_v1.1/sw/drivers/adc/src/32b/f28x/f2802x/adc.h",line 684,column 3,is_stmt
    1008 00000060 8BC5          MOVL      XAR1,*+XAR5[0]        ; [CPU_] |684| 
    1009 00000061 0EF1          MOVU      ACC,*+XAR1[6]         ; [CPU_] |684| 
    1010 00000062 1EAC          MOVL      XT,ACC                ; [CPU_] |684| 
    1011                      .dwpsn  file "D:/BM1000_v1.1/sw/modules/hal/boards/hvkit_rev1p1/f28x/f2802x/src/hal.h",line 574,colum
    1012 00000063 5663          QMPYL     ACC,XT,XAR3           ; [CPU_] |574| 
         00000064 00A3 
    1013 00000065 5605          IMPYL     P,XT,XAR3             ; [CPU_] |574| 
         00000066 00A3 
    1014 00000067 568B          ASR64     ACC:P,#12             ; [CPU_] |574| 
    1015 00000068 A9A9          MOVL      ACC,P                 ; [CPU_] |574| 
    1016 00000069 03E7          SUBL      ACC,*+XAR7[4]         ; [CPU_] |574| 
    1017                      .dwpsn  file "D:/BM1000_v1.1/sw/modules/hal/boards/hvkit_rev1p1/f28x/f2802x/src/hal.h",line 575,colum
    1018 0000006a 1EE0          MOVL      *+XAR0[4],ACC         ; [CPU_] |575| 
    1019                      .dwpsn  file "D:/BM1000_v1.1/sw/drivers/adc/src/32b/f28x/f2802x/adc.h",line 684,column 3,is_stmt
    1020 0000006b C5C5          MOVL      XAR7,*+XAR5[0]        ; [CPU_] |684| 
    1021                      .dwpsn  file "D:/BM1000_v1.1/sw/modules/hal/boards/hvkit_rev1p1/f28x/f2802x/src/hal.h",line 580,colum
    1022 0000006c D00C          MOVB      XAR0,#12              ; [CPU_] |580| 
    1023                      .dwpsn  file "D:/BM1000_v1.1/sw/drivers/adc/src/32b/f28x/f2802x/adc.h",line 684,column 3,is_stmt
    1024 0000006d 0EFF          MOVU      ACC,*+XAR7[7]         ; [CPU_] |684| 
    1025 0000006e 1EAC          MOVL      XT,ACC                ; [CPU_] |684| 
    1026                      .dwpsn  file "D:/BM1000_v1.1/sw/modules/hal/boards/hvkit_rev1p1/f28x/f2802x/src/hal.h",line 579,colum
    1027 0000006f 5663          QMPYL     ACC,XT,XAR3           ; [CPU_] |579| 
TMS320C2000 Assembler PC v6.2.5 Tue Nov 21 22:57:45 2017

Tools Copyright (c) 1996-2014 Texas Instruments Incorporated
C:\Users\wmj\AppData\Local\Temp\1055210                              PAGE   20

         00000070 00A3 
    1028 00000071 5605          IMPYL     P,XT,XAR3             ; [CPU_] |579| 
         00000072 00A3 
    1029 00000073 568B          ASR64     ACC:P,#12             ; [CPU_] |579| 
    1030                      .dwpsn  file "D:/BM1000_v1.1/sw/modules/hal/boards/hvkit_rev1p1/f28x/f2802x/src/hal.h",line 580,colum
    1031 00000074 A994          MOVL      *+XAR4[AR0],P         ; [CPU_] |580| 
    1032                      .dwpsn  file "D:/BM1000_v1.1/sw/drivers/adc/src/32b/f28x/f2802x/adc.h",line 684,column 3,is_stmt
    1033 00000075 C5C5          MOVL      XAR7,*+XAR5[0]        ; [CPU_] |684| 
    1034 00000076 D008          MOVB      XAR0,#8               ; [CPU_] |684| 
    1035 00000077 0E97          MOVU      ACC,*+XAR7[AR0]       ; [CPU_] |684| 
    1036                      .dwpsn  file "D:/BM1000_v1.1/sw/modules/hal/boards/hvkit_rev1p1/f28x/f2802x/src/hal.h",line 584,colum
    1037 00000078 D00E          MOVB      XAR0,#14              ; [CPU_] |584| 
    1038 00000079 1E94          MOVL      *+XAR4[AR0],ACC       ; [CPU_] |584| 
    1039                      .dwpsn  file "D:/BM1000_v1.1/sw/drivers/adc/src/32b/f28x/f2802x/adc.h",line 684,column 3,is_stmt
    1040 0000007a C5C5          MOVL      XAR7,*+XAR5[0]        ; [CPU_] |684| 
    1041 0000007b D009          MOVB      XAR0,#9               ; [CPU_] |684| 
    1042 0000007c 0E97          MOVU      ACC,*+XAR7[AR0]       ; [CPU_] |684| 
    1043                      .dwpsn  file "D:/BM1000_v1.1/sw/modules/hal/boards/hvkit_rev1p1/f28x/f2802x/src/hal.h",line 588,colum
    1044 0000007d D010          MOVB      XAR0,#16              ; [CPU_] |588| 
    1045 0000007e 1E94          MOVL      *+XAR4[AR0],ACC       ; [CPU_] |588| 
    1046                      .dwpsn  file "D:/BM1000_v1.1/sw/drivers/adc/src/32b/f28x/f2802x/adc.h",line 684,column 3,is_stmt
    1047 0000007f C5C5          MOVL      XAR7,*+XAR5[0]        ; [CPU_] |684| 
    1048 00000080 D00A          MOVB      XAR0,#10              ; [CPU_] |684| 
    1049 00000081 0E97          MOVU      ACC,*+XAR7[AR0]       ; [CPU_] |684| 
    1050                      .dwpsn  file "D:/BM1000_v1.1/sw/modules/hal/boards/hvkit_rev1p1/f28x/f2802x/src/hal.h",line 591,colum
    1051 00000082 D014          MOVB      XAR0,#20              ; [CPU_] |591| 
    1052 00000083 1E94          MOVL      *+XAR4[AR0],ACC       ; [CPU_] |591| 
    1053                      .dwpsn  file "D:/BM1000_v1.1/sw/drivers/adc/src/32b/f28x/f2802x/adc.h",line 684,column 3,is_stmt
    1054 00000084 C5C5          MOVL      XAR7,*+XAR5[0]        ; [CPU_] |684| 
    1055 00000085 D00B          MOVB      XAR0,#11              ; [CPU_] |684| 
    1056                      .dwpsn  file "D:/BM1000_v1.1/sw/solutions/instaspin/src/proj_bm1000.c",line 376,column 6,is_stmt
    1057 00000086 8204-         MOVL      XAR3,@_ctrlHandle     ; [CPU_] |376| 
    1058                      .dwpsn  file "D:/BM1000_v1.1/sw/drivers/adc/src/32b/f28x/f2802x/adc.h",line 684,column 3,is_stmt
    1059 00000087 0E97          MOVU      ACC,*+XAR7[AR0]       ; [CPU_] |684| 
    1060                      .dwpsn  file "D:/BM1000_v1.1/sw/modules/hal/boards/hvkit_rev1p1/f28x/f2802x/src/hal.h",line 594,colum
    1061 00000088 D012          MOVB      XAR0,#18              ; [CPU_] |594| 
    1062 00000089 1E94          MOVL      *+XAR4[AR0],ACC       ; [CPU_] |594| 
    1063                      .dwpsn  file "D:/BM1000_v1.1/sw/modules/flyingStart/src/32b/flyingStart.h",line 224,column 14,is_stmt
    1064 0000008a D018          MOVB      XAR0,#24              ; [CPU_] |224| 
    1065 0000008b 8B96          MOVL      XAR1,*+XAR6[AR0]      ; [CPU_] |224| 
    1066                      .dwpsn  file "D:/BM1000_v1.1/sw/modules/flyingStart/src/32b/flyingStart.h",line 222,column 18,is_stmt
    1067 0000008c 8AA3          MOVL      XAR4,XAR3             ; [CPU_] |222| 
    1068 0000008d 86A3          MOVL      XAR2,XAR3             ; [CPU_] |222| 
    1069                      .dwpsn  file "D:/BM1000_v1.1/sw/modules/flyingStart/src/32b/flyingStart.h",line 226,column 3,is_stmt
    1070 0000008e D011          MOVB      XAR0,#17              ; [CPU_] |226| 
    1071 0000008f 9291          MOV       AL,*+XAR1[AR0]        ; [CPU_] |226| 
    1072 00000090 5201          CMPB      AL,#1                 ; [CPU_] |226| 
    1073 00000091 ED4A          BF        $C$L4,NEQ             ; [CPU_] |226| 
    1074                      ; branchcc occurs ; [] |226| 
    1075                      .dwpsn  file "D:/BM1000_v1.1/sw/modules/ctrl/src/32b/ctrl.h",line 1384,column 3,is_stmt
    1076 00000092 02E2          MOVB      ACC,#226              ; [CPU_] |1384| 
    1077                      .dwpsn  file "D:/BM1000_v1.1/sw/modules/flyingStart/src/32b/flyingStart.h",line 231,column 4,is_stmt
    1078 00000093 D0E8          MOVB      XAR0,#232             ; [CPU_] |231| 
    1079                      .dwpsn  file "D:/BM1000_v1.1/sw/modules/ctrl/src/32b/ctrl.h",line 1384,column 3,is_stmt
    1080 00000094 07A2          ADDL      ACC,XAR2              ; [CPU_] |1384| 
TMS320C2000 Assembler PC v6.2.5 Tue Nov 21 22:57:45 2017

Tools Copyright (c) 1996-2014 Texas Instruments Incorporated
C:\Users\wmj\AppData\Local\Temp\1055210                              PAGE   21

    1081 00000095 8AA9          MOVL      XAR4,ACC              ; [CPU_] |1384| 
    1082 00000096 0200          MOVB      ACC,#0                ; [CPU_] |1384| 
    1083 00000097 1EC4          MOVL      *+XAR4[0],ACC         ; [CPU_] |1384| 
    1084                      .dwpsn  file "D:/BM1000_v1.1/sw/modules/ctrl/src/32b/ctrl.h",line 1476,column 3,is_stmt
    1085 00000098 1ED4          MOVL      *+XAR4[2],ACC         ; [CPU_] |1476| 
    1086                      .dwpsn  file "D:/BM1000_v1.1/sw/modules/flyingStart/src/32b/flyingStart.h",line 231,column 4,is_stmt
    1087 00000099 0692          MOVL      ACC,*+XAR2[AR0]       ; [CPU_] |231| 
    1088                      .dwpsn  file "D:/BM1000_v1.1/sw/modules/flyingStart/src/32b/flyingStart.h",line 232,column 4,is_stmt
    1089 0000009a D018          MOVB      XAR0,#24              ; [CPU_] |232| 
    1090                      .dwpsn  file "D:/BM1000_v1.1/sw/modules/flyingStart/src/32b/flyingStart.h",line 231,column 4,is_stmt
    1091 0000009b 1EC1          MOVL      *+XAR1[0],ACC         ; [CPU_] |231| 
    1092                      .dwpsn  file "D:/BM1000_v1.1/sw/modules/flyingStart/src/32b/flyingStart.h",line 232,column 4,is_stmt
    1093 0000009c 8A92          MOVL      XAR4,*+XAR2[AR0]      ; [CPU_] |232| 
    1094              $C$DW$186       .dwtag  DW_TAG_TI_branch
    1095                      .dwattr $C$DW$186, DW_AT_low_pc(0x00)
    1096                      .dwattr $C$DW$186, DW_AT_name("_EST_getFm_pu")
    1097                      .dwattr $C$DW$186, DW_AT_TI_call
    1098 0000009d 7640!         LCR       #_EST_getFm_pu        ; [CPU_] |232| 
         0000009e 0000 
    1099                      ; call occurs [#_EST_getFm_pu] ; [] |232| 
    1100 0000009f 1EE1          MOVL      *+XAR1[4],ACC         ; [CPU_] |232| 
    1101                      .dwpsn  file "D:/BM1000_v1.1/sw/modules/flyingStart/src/32b/flyingStart.h",line 233,column 4,is_stmt
    1102 000000a0 28A9          MOV       AL,#52429             ; [CPU_] |233| 
         000000a1 CCCD 
    1103 000000a2 9BCC          MOV       AH,#204               ; [CPU_] |233| 
    1104 000000a3 8F33          MOVL      XAR4,#3355443         ; [CPU_U] |233| 
         000000a4 3333 
    1105                      .dwpsn  file "D:/BM1000_v1.1/sw/modules/flyingStart/src/32b/flyingStart.h",line 235,column 4,is_stmt
    1106 000000a5 D00E          MOVB      XAR0,#14              ; [CPU_] |235| 
    1107                      .dwpsn  file "D:/BM1000_v1.1/sw/modules/flyingStart/src/32b/flyingStart.h",line 233,column 4,is_stmt
    1108 000000a6 87F1          MOVL      XT,*+XAR1[6]          ; [CPU_] |233| 
    1109 000000a7 5605          IMPYL     P,XT,ACC              ; [CPU_] |233| 
         000000a8 00A9 
    1110 000000a9 5663          QMPYL     ACC,XT,ACC            ; [CPU_] |233| 
         000000aa 00A9 
    1111 000000ab 87E1          MOVL      XT,*+XAR1[4]          ; [CPU_] |233| 
    1112 000000ac 56A7          LSL64     ACC:P,#8              ; [CPU_] |233| 
    1113 000000ad 1EA6          MOVL      XAR6,ACC              ; [CPU_] |233| 
    1114 000000ae 5605          IMPYL     P,XT,XAR4             ; [CPU_] |233| 
         000000af 00A4 
    1115 000000b0 5663          QMPYL     ACC,XT,XAR4           ; [CPU_] |233| 
         000000b1 00A4 
    1116 000000b2 56A7          LSL64     ACC:P,#8              ; [CPU_] |233| 
    1117 000000b3 07A6          ADDL      ACC,XAR6              ; [CPU_] |233| 
    1118 000000b4 1EF1          MOVL      *+XAR1[6],ACC         ; [CPU_] |233| 
    1119                      .dwpsn  file "D:/BM1000_v1.1/sw/modules/flyingStart/src/32b/flyingStart.h",line 235,column 4,is_stmt
    1120 000000b5 0691          MOVL      ACC,*+XAR1[AR0]       ; [CPU_] |235| 
    1121 000000b6 D00C          MOVB      XAR0,#12              ; [CPU_] |235| 
    1122 000000b7 0F91          CMPL      ACC,*+XAR1[AR0]       ; [CPU_] |235| 
    1123 000000b8 6906          B         $C$L1,LOS             ; [CPU_] |235| 
    1124                      ; branchcc occurs ; [] |235| 
    1125                      .dwpsn  file "D:/BM1000_v1.1/sw/modules/flyingStart/src/32b/flyingStart.h",line 255,column 5,is_stmt
    1126 000000b9 D90C          ADDB      XAR1,#12              ; [CPU_] |255| 
    1127 000000ba 0201          MOVB      ACC,#1                ; [CPU_] |255| 
    1128 000000bb 5601          ADDL      *+XAR1[0],ACC         ; [CPU_] |255| 
TMS320C2000 Assembler PC v6.2.5 Tue Nov 21 22:57:45 2017

Tools Copyright (c) 1996-2014 Texas Instruments Incorporated
C:\Users\wmj\AppData\Local\Temp\1055210                              PAGE   22

         000000bc 00C1 
    1129 000000bd 6F18          B         $C$L3,UNC             ; [CPU_] |255| 
    1130                      ; branch occurs ; [] |255| 
    1131 000000be       $C$L1:    
    1132                      .dwpsn  file "D:/BM1000_v1.1/sw/modules/flyingStart/src/32b/flyingStart.h",line 237,column 5,is_stmt
    1133 000000be C4F1          MOVL      XAR6,*+XAR1[6]        ; [CPU_] |237| 
    1134                      .dwpsn  file "D:/BM1000_v1.1/sw/modules/flyingStart/src/32b/flyingStart.h",line 239,column 6,is_stmt
    1135 000000bf D008          MOVB      XAR0,#8               ; [CPU_] |239| 
    1136 000000c0 06A6          MOVL      ACC,XAR6              ; [CPU_] |239| 
    1137 000000c1 FF56          ABS       ACC                   ; [CPU_] |239| 
    1138 000000c2 0F91          CMPL      ACC,*+XAR1[AR0]       ; [CPU_] |239| 
    1139 000000c3 6302          B         $C$L2,GEQ             ; [CPU_] |239| 
    1140                      ; branchcc occurs ; [] |239| 
    1141 000000c4 BE00          MOVB      XAR6,#0               ; [CPU_] |239| 
    1142 000000c5       $C$L2:    
    1143 000000c5 C2D1          MOVL      *+XAR1[2],XAR6        ; [CPU_] |239| 
    1144                      .dwpsn  file "D:/BM1000_v1.1/sw/modules/flyingStart/src/32b/flyingStart.h",line 246,column 5,is_stmt
    1145 000000c6 D011          MOVB      XAR0,#17              ; [CPU_] |246| 
    1146 000000c7 2B91          MOV       *+XAR1[AR0],#0        ; [CPU_] |246| 
    1147                      .dwpsn  file "D:/BM1000_v1.1/sw/modules/flyingStart/src/32b/flyingStart.h",line 247,column 5,is_stmt
    1148 000000c8 D010          MOVB      XAR0,#16              ; [CPU_] |247| 
    1149 000000c9 56BF          MOVB      *+XAR1[AR0],#1,UNC    ; [CPU_] |247| 
         000000ca 0191 
    1150                      .dwpsn  file "D:/BM1000_v1.1/sw/modules/traj/src/32b/traj.h",line 158,column 3,is_stmt
    1151 000000cb D06C          MOVB      XAR0,#108             ; [CPU_] |158| 
    1152 000000cc 8A92          MOVL      XAR4,*+XAR2[AR0]      ; [CPU_] |158| 
    1153 000000cd 06D1          MOVL      ACC,*+XAR1[2]         ; [CPU_] |158| 
    1154                      .dwpsn  file "D:/BM1000_v1.1/sw/modules/pid/src/32b/pid.h",line 413,column 3,is_stmt
    1155 000000ce D044          MOVB      XAR0,#68              ; [CPU_] |413| 
    1156                      .dwpsn  file "D:/BM1000_v1.1/sw/modules/traj/src/32b/traj.h",line 158,column 3,is_stmt
    1157 000000cf 1ED4          MOVL      *+XAR4[2],ACC         ; [CPU_] |158| 
    1158                      .dwpsn  file "D:/BM1000_v1.1/sw/modules/pid/src/32b/pid.h",line 413,column 3,is_stmt
    1159 000000d0 8A92          MOVL      XAR4,*+XAR2[AR0]      ; [CPU_] |413| 
    1160 000000d1 0200          MOVB      ACC,#0                ; [CPU_] |413| 
    1161                      .dwpsn  file "D:/BM1000_v1.1/sw/modules/ctrl/src/32b/ctrl.h",line 1791,column 3,is_stmt
    1162 000000d2 D0BA          MOVB      XAR0,#186             ; [CPU_] |1791| 
    1163                      .dwpsn  file "D:/BM1000_v1.1/sw/modules/pid/src/32b/pid.h",line 413,column 3,is_stmt
    1164 000000d3 1EF4          MOVL      *+XAR4[6],ACC         ; [CPU_] |413| 
    1165                      .dwpsn  file "D:/BM1000_v1.1/sw/modules/ctrl/src/32b/ctrl.h",line 1791,column 3,is_stmt
    1166 000000d4 1E93          MOVL      *+XAR3[AR0],ACC       ; [CPU_] |1791| 
    1167 000000d5       $C$L3:    
    1168 000000d5 761F-         MOVW      DP,#_halHandle        ; [CPU_U] 
         000000d6 0000 
    1169 000000d7 8302-         MOVL      XAR5,@_halHandle      ; [CPU_] 
    1170 000000d8 C406-         MOVL      XAR6,@_proctrlHandle  ; [CPU_] 
    1171 000000d9 8A04-         MOVL      XAR4,@_ctrlHandle     ; [CPU_] 
    1172                      .dwpsn  file "D:/BM1000_v1.1/sw/modules/ctrl/src/32b/ctrl.h",line 1793,column 3,is_stmt
    1173 000000da 6F04          B         $C$L5,UNC             ; [CPU_] |1793| 
    1174                      ; branch occurs ; [] |1793| 
    1175 000000db       $C$L4:    
    1176                      .dwpsn  file "D:/BM1000_v1.1/sw/modules/flyingStart/src/32b/flyingStart.h",line 259,column 4,is_stmt
    1177 000000db D010          MOVB      XAR0,#16              ; [CPU_] |259| 
    1178 000000dc 56BF          MOVB      *+XAR1[AR0],#1,UNC    ; [CPU_] |259| 
         000000dd 0191 
    1179 000000de       $C$L5:    
TMS320C2000 Assembler PC v6.2.5 Tue Nov 21 22:57:45 2017

Tools Copyright (c) 1996-2014 Texas Instruments Incorporated
C:\Users\wmj\AppData\Local\Temp\1055210                              PAGE   23

    1180                      .dwpsn  file "D:/BM1000_v1.1/sw/solutions/instaspin/src/proj_bm1000.c",line 394,column 3,is_stmt
    1181 000000de 02D6          MOVB      ACC,#214              ; [CPU_] |394| 
    1182 000000df 07A6          ADDL      ACC,XAR6              ; [CPU_] |394| 
    1183 000000e0 1E42          MOVL      *-SP[2],ACC           ; [CPU_] |394| 
    1184 000000e1 02EC          MOVB      ACC,#236              ; [CPU_] |394| 
    1185 000000e2 07A6          ADDL      ACC,XAR6              ; [CPU_] |394| 
    1186 000000e3 1E44          MOVL      *-SP[4],ACC           ; [CPU_] |394| 
    1187              $C$DW$187       .dwtag  DW_TAG_TI_branch
    1188                      .dwattr $C$DW$187, DW_AT_low_pc(0x00)
    1189                      .dwattr $C$DW$187, DW_AT_name("_CTRL_run")
    1190                      .dwattr $C$DW$187, DW_AT_TI_call
    1191 000000e4 7640!         LCR       #_CTRL_run            ; [CPU_] |394| 
         000000e5 0000 
    1192                      ; call occurs [#_CTRL_run] ; [] |394| 
    1193 000000e6 761F-         MOVW      DP,#_proctrlHandle    ; [CPU_U] 
         000000e7 0000 
    1194 000000e8 8A02-         MOVL      XAR4,@_halHandle      ; [CPU_] 
    1195                      .dwpsn  file "D:/BM1000_v1.1/sw/solutions/instaspin/src/proj_bm1000.c",line 397,column 3,is_stmt
    1196 000000e9 0606-         MOVL      ACC,@_proctrlHandle   ; [CPU_] |397| 
    1197 000000ea 3B01          SETC      SXM                   ; [CPU_] 
    1198 000000eb BEEC          MOVB      XAR6,#236             ; [CPU_] |397| 
    1199 000000ec 0DA6          ADDU      ACC,AR6               ; [CPU_] |397| 
    1200 000000ed BE02          MOVB      XAR6,#2               ; [CPU_] 
    1201 000000ee 83A9          MOVL      XAR5,ACC              ; [CPU_] 
    1202 000000ef DC7C          ADDB      XAR4,#124             ; [CPU_] 
    1203 000000f0       $C$L6:    
    1204                      .dwpsn  file "D:/BM1000_v1.1/sw/modules/hal/boards/hvkit_rev1p1/f28x/f2802x/src/hal.h",line 1129,colu
    1205 000000f0 C5C4          MOVL      XAR7,*+XAR4[0]        ; [CPU_] |1129| 
    1206                      .dwpsn  file "D:/BM1000_v1.1/sw/drivers/pwm/src/32b/f28x/f2802x/pwm.h",line 1717,column 3,is_stmt
    1207 000000f1 FF2F          MOV       ACC,#-512 << 15       ; [CPU_] |1717| 
         000000f2 FE00 
    1208 000000f3 8785          MOVL      XT,*XAR5++            ; [CPU_] |1717| 
    1209 000000f4 5605          IMPYL     P,XT,ACC              ; [CPU_] |1717| 
         000000f5 00A9 
    1210                      .dwpsn  file "D:/BM1000_v1.1/sw/modules/hal/boards/hvkit_rev1p1/f28x/f2802x/src/hal.h",line 1129,colu
    1211 000000f6 58EF          MOVZ      AR0,*+XAR7[5]         ; [CPU_] |1129| 
    1212                      .dwpsn  file "D:/BM1000_v1.1/sw/drivers/pwm/src/32b/f28x/f2802x/pwm.h",line 1717,column 3,is_stmt
    1213 000000f7 5663          QMPYL     ACC,XT,ACC            ; [CPU_] |1717| 
         000000f8 00A9 
    1214                      .dwpsn  file "D:/BM1000_v1.1/sw/modules/hal/boards/hvkit_rev1p1/f28x/f2802x/src/hal.h",line 1126,colu
    1215 000000f9 DC02          ADDB      XAR4,#2               ; [CPU_] |1126| 
    1216                      .dwpsn  file "D:/BM1000_v1.1/sw/drivers/pwm/src/32b/f28x/f2802x/pwm.h",line 1717,column 3,is_stmt
    1217 000000fa 56A7          LSL64     ACC:P,#8              ; [CPU_] |1717| 
    1218 000000fb 2BAB          MOV       PL,#0                 ; [CPU_] |1717| 
    1219 000000fc 28AA          MOV       PH,#128               ; [CPU_] |1717| 
         000000fd 0080 
    1220 000000fe A9A2          MOVL      XAR2,P                ; [CPU_] |1717| 
    1221 000000ff 2BAB          MOV       PL,#0                 ; [CPU_] |1717| 
    1222 00000100 28AA          MOV       PH,#65408             ; [CPU_] |1717| 
         00000101 FF80 
    1223 00000102 5650          MINL      ACC,XAR2              ; [CPU_] |1717| 
         00000103 00A2 
    1224 00000104 5661          MAXL      ACC,P                 ; [CPU_] |1717| 
         00000105 00AB 
    1225 00000106 FF1F          ADD       ACC,#256 << 15        ; [CPU_] |1717| 
TMS320C2000 Assembler PC v6.2.5 Tue Nov 21 22:57:45 2017

Tools Copyright (c) 1996-2014 Texas Instruments Incorporated
C:\Users\wmj\AppData\Local\Temp\1055210                              PAGE   24

         00000107 0100 
    1226 00000108 1EAC          MOVL      XT,ACC                ; [CPU_] |1717| 
    1227 00000109 5605          IMPYL     P,XT,XAR0             ; [CPU_] |1717| 
         0000010a 00A0 
    1228 0000010b 5663          QMPYL     ACC,XT,XAR0           ; [CPU_] |1717| 
         0000010c 00A0 
    1229 0000010d 56A7          LSL64     ACC:P,#8              ; [CPU_] |1717| 
    1230 0000010e 3100          MOV       P,#0                  ; [CPU_] |1717| 
    1231 0000010f 5650          MINL      ACC,XAR0              ; [CPU_] |1717| 
         00000110 00A0 
    1232 00000111 D009          MOVB      XAR0,#9               ; [CPU_] |1717| 
    1233 00000112 5661          MAXL      ACC,P                 ; [CPU_] |1717| 
         00000113 00AB 
    1234 00000114 9697          MOV       *+XAR7[AR0],AL        ; [CPU_] |1717| 
    1235                      .dwpsn  file "D:/BM1000_v1.1/sw/modules/hal/boards/hvkit_rev1p1/f28x/f2802x/src/hal.h",line 1126,colu
    1236 00000115 000E          BANZ      $C$L6,AR6--           ; [CPU_] |1126| 
         00000116 FFDB 
    1237                      ; branchcc occurs ; [] |1126| 
    1238 00000117 761F-         MOVW      DP,#_ctrlHandle       ; [CPU_U] 
         00000118 0000 
    1239                      .dwpsn  file "D:/BM1000_v1.1/sw/solutions/instaspin/src/proj_bm1000.c",line 400,column 3,is_stmt
    1240 00000119 8A04-         MOVL      XAR4,@_ctrlHandle     ; [CPU_] |400| 
    1241              $C$DW$188       .dwtag  DW_TAG_TI_branch
    1242                      .dwattr $C$DW$188, DW_AT_low_pc(0x00)
    1243                      .dwattr $C$DW$188, DW_AT_name("_CTRL_setup")
    1244                      .dwattr $C$DW$188, DW_AT_TI_call
    1245 0000011a 7640!         LCR       #_CTRL_setup          ; [CPU_] |400| 
         0000011b 0000 
    1246                      ; call occurs [#_CTRL_setup] ; [] |400| 
    1247 0000011c 761F-         MOVW      DP,#_gLEDcnt          ; [CPU_U] 
         0000011d 0000 
    1248                      .dwpsn  file "D:/BM1000_v1.1/sw/solutions/instaspin/src/proj_bm1000.c",line 411,column 3,is_stmt
    1249 0000011e 0A00-         INC       @_gLEDcnt             ; [CPU_] |411| 
    1250 0000011f 9200-         MOV       AL,@_gLEDcnt          ; [CPU_] |411| 
    1251 00000120 5264          CMPB      AL,#100               ; [CPU_] |411| 
    1252 00000121 681D          B         $C$L8,LO              ; [CPU_] |411| 
    1253                      ; branchcc occurs ; [] |411| 
    1254                      .dwpsn  file "D:/BM1000_v1.1/sw/solutions/instaspin/src/proj_bm1000.c",line 417,column 2,is_stmt
    1255 00000122 8A06-         MOVL      XAR4,@_proctrlHandle  ; [CPU_] |417| 
    1256 00000123 D0D4          MOVB      XAR0,#212             ; [CPU_] |417| 
    1257 00000124 8394          MOVL      XAR5,*+XAR4[AR0]      ; [CPU_] |417| 
    1258                      .dwpsn  file "D:/BM1000_v1.1/sw/solutions/instaspin/src/proj_bm1000.c",line 415,column 2,is_stmt
    1259 00000125 2B00-         MOV       @_gLEDcnt,#0          ; [CPU_] |415| 
    1260                      .dwpsn  file "D:/BM1000_v1.1/sw/solutions/instaspin/src/proj_bm1000.c",line 417,column 2,is_stmt
    1261 00000126 D020          MOVB      XAR0,#32              ; [CPU_] |417| 
    1262 00000127 9295          MOV       AL,*+XAR5[AR0]        ; [CPU_] |417| 
    1263 00000128 5201          CMPB      AL,#1                 ; [CPU_] |417| 
    1264 00000129 ED03          BF        $C$L7,NEQ             ; [CPU_] |417| 
    1265                      ; branchcc occurs ; [] |417| 
    1266                      .dwpsn  file "D:/BM1000_v1.1/sw/drivers/drvic/fsm.h",line 408,column 3,is_stmt
    1267 0000012a DD0D          ADDB      XAR5,#13              ; [CPU_] |408| 
    1268 0000012b 0AC5          INC       *+XAR5[0]             ; [CPU_] |408| 
    1269 0000012c       $C$L7:    
    1270                      .dwpsn  file "D:/BM1000_v1.1/sw/solutions/instaspin/src/proj_bm1000.c",line 423,column 2,is_stmt
    1271 0000012c 0A01-         INC       @_MeasCnt$1           ; [CPU_] |423| 
TMS320C2000 Assembler PC v6.2.5 Tue Nov 21 22:57:45 2017

Tools Copyright (c) 1996-2014 Texas Instruments Incorporated
C:\Users\wmj\AppData\Local\Temp\1055210                              PAGE   25

    1272 0000012d 9201-         MOV       AL,@_MeasCnt$1        ; [CPU_] |423| 
    1273 0000012e 520A          CMPB      AL,#10                ; [CPU_] |423| 
    1274 0000012f 680F          B         $C$L8,LO              ; [CPU_] |423| 
    1275                      ; branchcc occurs ; [] |423| 
    1276                      .dwpsn  file "D:/BM1000_v1.1/sw/solutions/instaspin/src/proj_bm1000.c",line 427,column 2,is_stmt
    1277 00000130 02D6          MOVB      ACC,#214              ; [CPU_] |427| 
    1278                      .dwpsn  file "D:/BM1000_v1.1/sw/solutions/instaspin/src/proj_bm1000.c",line 425,column 3,is_stmt
    1279 00000131 2B01-         MOV       @_MeasCnt$1,#0        ; [CPU_] |425| 
    1280                      .dwpsn  file "D:/BM1000_v1.1/sw/solutions/instaspin/src/proj_bm1000.c",line 427,column 2,is_stmt
    1281 00000132 07A4          ADDL      ACC,XAR4              ; [CPU_] |427| 
    1282 00000133 83A9          MOVL      XAR5,ACC              ; [CPU_] |427| 
    1283              $C$DW$189       .dwtag  DW_TAG_TI_branch
    1284                      .dwattr $C$DW$189, DW_AT_low_pc(0x00)
    1285                      .dwattr $C$DW$189, DW_AT_name("_PROCTRL_getChipTemperture")
    1286                      .dwattr $C$DW$189, DW_AT_TI_call
    1287 00000134 7640!         LCR       #_PROCTRL_getChipTemperture ; [CPU_] |427| 
         00000135 0000 
    1288                      ; call occurs [#_PROCTRL_getChipTemperture] ; [] |427| 
    1289 00000136 761F-         MOVW      DP,#_proctrlHandle    ; [CPU_U] 
         00000137 0000 
    1290                      .dwpsn  file "D:/BM1000_v1.1/sw/solutions/instaspin/src/proj_bm1000.c",line 428,column 2,is_stmt
    1291 00000138 8A06-         MOVL      XAR4,@_proctrlHandle  ; [CPU_] |428| 
    1292 00000139 02D6          MOVB      ACC,#214              ; [CPU_] |428| 
    1293 0000013a 07A4          ADDL      ACC,XAR4              ; [CPU_] |428| 
    1294 0000013b 83A9          MOVL      XAR5,ACC              ; [CPU_] |428| 
    1295              $C$DW$190       .dwtag  DW_TAG_TI_branch
    1296                      .dwattr $C$DW$190, DW_AT_low_pc(0x00)
    1297                      .dwattr $C$DW$190, DW_AT_name("_PROCTRL_getDCbusVoltage")
    1298                      .dwattr $C$DW$190, DW_AT_TI_call
    1299 0000013c 7640!         LCR       #_PROCTRL_getDCbusVoltage ; [CPU_] |428| 
         0000013d 0000 
    1300                      ; call occurs [#_PROCTRL_getDCbusVoltage] ; [] |428| 
    1301 0000013e       $C$L8:    
    1302 0000013e 761F-         MOVW      DP,#_proctrlHandle    ; [CPU_U] 
         0000013f 0000 
    1303                      .dwpsn  file "D:/BM1000_v1.1/sw/solutions/instaspin/src/proj_bm1000.c",line 433,column 3,is_stmt
    1304 00000140 8A06-         MOVL      XAR4,@_proctrlHandle  ; [CPU_] |433| 
    1305 00000141 02D6          MOVB      ACC,#214              ; [CPU_] |433| 
    1306 00000142 07A4          ADDL      ACC,XAR4              ; [CPU_] |433| 
    1307 00000143 83A9          MOVL      XAR5,ACC              ; [CPU_] |433| 
    1308              $C$DW$191       .dwtag  DW_TAG_TI_branch
    1309                      .dwattr $C$DW$191, DW_AT_low_pc(0x00)
    1310                      .dwattr $C$DW$191, DW_AT_name("_PROCTRL_getSensorData")
    1311                      .dwattr $C$DW$191, DW_AT_TI_call
    1312 00000144 7640!         LCR       #_PROCTRL_getSensorData ; [CPU_] |433| 
         00000145 0000 
    1313                      ; call occurs [#_PROCTRL_getSensorData] ; [] |433| 
    1314 00000146 FE84          SUBB      SP,#4                 ; [CPU_U] 
    1315                      .dwcfi  cfa_offset, -18
    1316 00000147 C5BE          MOVL      XAR7,*--SP            ; [CPU_] 
    1317                      .dwcfi  cfa_offset, -16
    1318                      .dwcfi  restore_reg, 18
    1319 00000148 C4BE          MOVL      XAR6,*--SP            ; [CPU_] 
    1320                      .dwcfi  cfa_offset, -14
    1321                      .dwcfi  restore_reg, 16
TMS320C2000 Assembler PC v6.2.5 Tue Nov 21 22:57:45 2017

Tools Copyright (c) 1996-2014 Texas Instruments Incorporated
C:\Users\wmj\AppData\Local\Temp\1055210                              PAGE   26

    1322 00000149 83BE          MOVL      XAR5,*--SP            ; [CPU_] 
    1323                      .dwcfi  cfa_offset, -12
    1324                      .dwcfi  restore_reg, 14
    1325 0000014a 8ABE          MOVL      XAR4,*--SP            ; [CPU_] 
    1326                      .dwcfi  cfa_offset, -10
    1327                      .dwcfi  restore_reg, 12
    1328 0000014b 82BE          MOVL      XAR3,*--SP            ; [CPU_] 
    1329                      .dwcfi  cfa_offset, -8
    1330                      .dwcfi  restore_reg, 10
    1331 0000014c 86BE          MOVL      XAR2,*--SP            ; [CPU_] 
    1332                      .dwcfi  cfa_offset, -6
    1333                      .dwcfi  restore_reg, 8
    1334 0000014d 87BE          MOVL      XT,*--SP              ; [CPU_] 
    1335                      .dwcfi  cfa_offset, -4
    1336                      .dwcfi  restore_reg, 22
    1337                      .dwcfi  restore_reg, 21
    1338 0000014e 0003          POP       AR1H:AR0H             ; [CPU_] 
    1339                      .dwcfi  cfa_offset, -2
    1340                      .dwcfi  restore_reg, 5
    1341                      .dwcfi  restore_reg, 7
    1342 0000014f 7617          NASP      ; [CPU_] 
    1343              $C$DW$192       .dwtag  DW_TAG_TI_branch
    1344                      .dwattr $C$DW$192, DW_AT_low_pc(0x00)
    1345                      .dwattr $C$DW$192, DW_AT_TI_return
    1346 00000150 7602          IRET      ; [CPU_] 
    1347                      ; return occurs ; [] 
    1348                      .dwattr $C$DW$164, DW_AT_TI_end_file("D:/BM1000_v1.1/sw/solutions/instaspin/src/proj_bm1000.c")
    1349                      .dwattr $C$DW$164, DW_AT_TI_end_line(0x1b5)
    1350                      .dwattr $C$DW$164, DW_AT_TI_end_column(0x01)
    1351                      .dwendentry
    1352                      .dwendtag $C$DW$164
    1353              
    1354 00000000               .sect   ".text"
    1355                      .clink
    1356                      .global _main
    1357              
    1358              $C$DW$193       .dwtag  DW_TAG_subprogram, DW_AT_name("main")
    1359                      .dwattr $C$DW$193, DW_AT_low_pc(_main)
    1360                      .dwattr $C$DW$193, DW_AT_high_pc(0x00)
    1361                      .dwattr $C$DW$193, DW_AT_TI_symbol_name("_main")
    1362                      .dwattr $C$DW$193, DW_AT_external
    1363                      .dwattr $C$DW$193, DW_AT_TI_begin_file("D:/BM1000_v1.1/sw/solutions/instaspin/src/proj_bm1000.c")
    1364                      .dwattr $C$DW$193, DW_AT_TI_begin_line(0x71)
    1365                      .dwattr $C$DW$193, DW_AT_TI_begin_column(0x06)
    1366                      .dwattr $C$DW$193, DW_AT_TI_max_frame_size(-12)
    1367                      .dwpsn  file "D:/BM1000_v1.1/sw/solutions/instaspin/src/proj_bm1000.c",line 114,column 1,is_stmt,addr
    1368              
    1369                      .dwfde $C$DW$CIE, _main
    1370              
    1371              ;***************************************************************
    1372              ;* FNAME: _main                         FR SIZE:  10           *
    1373              ;*                                                             *
    1374              ;* FUNCTION ENVIRONMENT                                        *
    1375              ;*                                                             *
    1376              ;* FUNCTION PROPERTIES                                         *
TMS320C2000 Assembler PC v6.2.5 Tue Nov 21 22:57:45 2017

Tools Copyright (c) 1996-2014 Texas Instruments Incorporated
C:\Users\wmj\AppData\Local\Temp\1055210                              PAGE   27

    1377              ;*                            2 Parameter,  4 Auto,  4 SOE     *
    1378              ;***************************************************************
    1379              
    1380              _main:
    1381              ;* AR4   assigned to $O$C9
    1382              ;* AR5   assigned to $O$C10
    1383              ;* AR4   assigned to $O$C11
    1384              ;* AR1   assigned to $O$K31
    1385              ;* AR7   assigned to $O$U17
    1386              ;* AR4   assigned to _obj
    1387              $C$DW$194       .dwtag  DW_TAG_variable, DW_AT_name("obj")
    1388                      .dwattr $C$DW$194, DW_AT_TI_symbol_name("_obj")
    1389                      .dwattr $C$DW$194, DW_AT_type(*$C$DW$T$274)
    1390                      .dwattr $C$DW$194, DW_AT_location[DW_OP_reg12]
    1391              ;* AR4   assigned to _pwmHandle
    1392              $C$DW$195       .dwtag  DW_TAG_variable, DW_AT_name("pwmHandle")
    1393                      .dwattr $C$DW$195, DW_AT_TI_symbol_name("_pwmHandle")
    1394                      .dwattr $C$DW$195, DW_AT_type(*$C$DW$T$140)
    1395                      .dwattr $C$DW$195, DW_AT_location[DW_OP_reg12]
    1396              ;* AR5   assigned to _pwmHandle
    1397              $C$DW$196       .dwtag  DW_TAG_variable, DW_AT_name("pwmHandle")
    1398                      .dwattr $C$DW$196, DW_AT_TI_symbol_name("_pwmHandle")
    1399                      .dwattr $C$DW$196, DW_AT_type(*$C$DW$T$140)
    1400                      .dwattr $C$DW$196, DW_AT_location[DW_OP_reg14]
    1401              ;* AR5   assigned to _pwmHandle
    1402              $C$DW$197       .dwtag  DW_TAG_variable, DW_AT_name("pwmHandle")
    1403                      .dwattr $C$DW$197, DW_AT_TI_symbol_name("_pwmHandle")
    1404                      .dwattr $C$DW$197, DW_AT_type(*$C$DW$T$140)
    1405                      .dwattr $C$DW$197, DW_AT_location[DW_OP_reg14]
    1406              ;* AR4   assigned to _obj
    1407              $C$DW$198       .dwtag  DW_TAG_variable, DW_AT_name("obj")
    1408                      .dwattr $C$DW$198, DW_AT_TI_symbol_name("_obj")
    1409                      .dwattr $C$DW$198, DW_AT_type(*$C$DW$T$274)
    1410                      .dwattr $C$DW$198, DW_AT_location[DW_OP_reg12]
    1411              ;* AR4   assigned to _pwmHandle
    1412              $C$DW$199       .dwtag  DW_TAG_variable, DW_AT_name("pwmHandle")
    1413                      .dwattr $C$DW$199, DW_AT_TI_symbol_name("_pwmHandle")
    1414                      .dwattr $C$DW$199, DW_AT_type(*$C$DW$T$140)
    1415                      .dwattr $C$DW$199, DW_AT_location[DW_OP_reg12]
    1416              ;* AR5   assigned to _pwmHandle
    1417              $C$DW$200       .dwtag  DW_TAG_variable, DW_AT_name("pwmHandle")
    1418                      .dwattr $C$DW$200, DW_AT_TI_symbol_name("_pwmHandle")
    1419                      .dwattr $C$DW$200, DW_AT_type(*$C$DW$T$140)
    1420                      .dwattr $C$DW$200, DW_AT_location[DW_OP_reg14]
    1421              ;* AR5   assigned to _pwmHandle
    1422              $C$DW$201       .dwtag  DW_TAG_variable, DW_AT_name("pwmHandle")
    1423                      .dwattr $C$DW$201, DW_AT_TI_symbol_name("_pwmHandle")
    1424                      .dwattr $C$DW$201, DW_AT_type(*$C$DW$T$140)
    1425                      .dwattr $C$DW$201, DW_AT_location[DW_OP_reg14]
    1426              ;* AR5   assigned to _pie
    1427              $C$DW$202       .dwtag  DW_TAG_variable, DW_AT_name("pie")
    1428                      .dwattr $C$DW$202, DW_AT_TI_symbol_name("_pie")
    1429                      .dwattr $C$DW$202, DW_AT_type(*$C$DW$T$281)
    1430                      .dwattr $C$DW$202, DW_AT_location[DW_OP_reg14]
    1431              ;* AL    assigned to _errorCode
TMS320C2000 Assembler PC v6.2.5 Tue Nov 21 22:57:45 2017

Tools Copyright (c) 1996-2014 Texas Instruments Incorporated
C:\Users\wmj\AppData\Local\Temp\1055210                              PAGE   28

    1432              $C$DW$203       .dwtag  DW_TAG_variable, DW_AT_name("errorCode")
    1433                      .dwattr $C$DW$203, DW_AT_TI_symbol_name("_errorCode")
    1434                      .dwattr $C$DW$203, DW_AT_type(*$C$DW$T$185)
    1435                      .dwattr $C$DW$203, DW_AT_location[DW_OP_reg0]
    1436              ;* AR2   assigned to _handle
    1437              $C$DW$204       .dwtag  DW_TAG_variable, DW_AT_name("handle")
    1438                      .dwattr $C$DW$204, DW_AT_TI_symbol_name("_handle")
    1439                      .dwattr $C$DW$204, DW_AT_type(*$C$DW$T$81)
    1440                      .dwattr $C$DW$204, DW_AT_location[DW_OP_reg8]
    1441              ;* AR4   assigned to $O$v1
    1442              ;* AR4   assigned to $O$v1
    1443              ;* AR5   assigned to $O$v1
    1444              ;* AR4   assigned to $O$v1
    1445              ;* AR5   assigned to $O$v1
    1446              ;* AR6   assigned to $O$v1
    1447              ;* AR4   assigned to $O$v2
    1448              ;* AR4   assigned to $O$v2
    1449              ;* AR4   assigned to $O$v3
    1450              ;* AR4   assigned to $O$v3
    1451              ;* AR4   assigned to $O$v3
    1452              $C$DW$205       .dwtag  DW_TAG_variable, DW_AT_name("version")
    1453                      .dwattr $C$DW$205, DW_AT_TI_symbol_name("_version")
    1454                      .dwattr $C$DW$205, DW_AT_type(*$C$DW$T$40)
    1455                      .dwattr $C$DW$205, DW_AT_location[DW_OP_breg20 -6]
    1456                      .dwcfi  cfa_offset, -2
    1457                      .dwcfi  save_reg_to_mem, 26, 0
    1458                      .dwcfi  save_reg_to_reg, 78, 26
    1459 00000000 B2BD          MOVL      *SP++,XAR1            ; [CPU_] 
    1460                      .dwcfi  save_reg_to_mem, 7, 2
    1461                      .dwcfi  cfa_offset, -4
    1462 00000001 AABD          MOVL      *SP++,XAR2            ; [CPU_] 
    1463                      .dwcfi  save_reg_to_mem, 9, 4
    1464                      .dwcfi  cfa_offset, -6
    1465 00000002 FE06          ADDB      SP,#6                 ; [CPU_U] 
    1466                      .dwcfi  cfa_offset, -12
    1467                      .dwpsn  file "D:/BM1000_v1.1/sw/solutions/instaspin/src/proj_bm1000.c",line 127,column 3,is_stmt
    1468 00000003 8F00!         MOVL      XAR4,#_RamfuncsRunStart ; [CPU_U] |127| 
         00000004 0000 
    1469 00000005 8F40!         MOVL      XAR5,#_RamfuncsLoadEnd ; [CPU_U] |127| 
         00000006 0000 
    1470 00000007 A842          MOVL      *-SP[2],XAR4          ; [CPU_] |127| 
    1471 00000008 8F00!         MOVL      XAR4,#_RamfuncsLoadStart ; [CPU_U] |127| 
         00000009 0000 
    1472              $C$DW$206       .dwtag  DW_TAG_TI_branch
    1473                      .dwattr $C$DW$206, DW_AT_low_pc(0x00)
    1474                      .dwattr $C$DW$206, DW_AT_name("_memCopy")
    1475                      .dwattr $C$DW$206, DW_AT_TI_call
    1476 0000000a 7640!         LCR       #_memCopy             ; [CPU_] |127| 
         0000000b 0000 
    1477                      ; call occurs [#_memCopy] ; [] |127| 
    1478                      .dwpsn  file "D:/BM1000_v1.1/sw/solutions/instaspin/src/proj_bm1000.c",line 145,column 3,is_stmt
    1479 0000000c 8F00!         MOVL      XAR4,#_hal            ; [CPU_U] |145| 
         0000000d 0000 
    1480 0000000e 02B4          MOVB      ACC,#180              ; [CPU_] |145| 
    1481              $C$DW$207       .dwtag  DW_TAG_TI_branch
TMS320C2000 Assembler PC v6.2.5 Tue Nov 21 22:57:45 2017

Tools Copyright (c) 1996-2014 Texas Instruments Incorporated
C:\Users\wmj\AppData\Local\Temp\1055210                              PAGE   29

    1482                      .dwattr $C$DW$207, DW_AT_low_pc(0x00)
    1483                      .dwattr $C$DW$207, DW_AT_name("_HAL_init")
    1484                      .dwattr $C$DW$207, DW_AT_TI_call
    1485 0000000f 7640!         LCR       #_HAL_init            ; [CPU_] |145| 
         00000010 0000 
    1486                      ; call occurs [#_HAL_init] ; [] |145| 
    1487 00000011 761F-         MOVW      DP,#_halHandle        ; [CPU_U] 
         00000012 0000 
    1488                      .dwpsn  file "D:/BM1000_v1.1/sw/solutions/instaspin/src/proj_bm1000.c",line 147,column 3,is_stmt
    1489 00000013 02FC          MOVB      ACC,#252              ; [CPU_] |147| 
    1490                      .dwpsn  file "D:/BM1000_v1.1/sw/solutions/instaspin/src/proj_bm1000.c",line 145,column 3,is_stmt
    1491 00000014 A802-         MOVL      @_halHandle,XAR4      ; [CPU_] |145| 
    1492                      .dwpsn  file "D:/BM1000_v1.1/sw/solutions/instaspin/src/proj_bm1000.c",line 147,column 3,is_stmt
    1493 00000015 8F00-         MOVL      XAR4,#_MyProcessCtrl  ; [CPU_U] |147| 
         00000016 0100 
    1494              $C$DW$208       .dwtag  DW_TAG_TI_branch
    1495                      .dwattr $C$DW$208, DW_AT_low_pc(0x00)
    1496                      .dwattr $C$DW$208, DW_AT_name("_PROCTRL_init")
    1497                      .dwattr $C$DW$208, DW_AT_TI_call
    1498 00000017 7640!         LCR       #_PROCTRL_init        ; [CPU_] |147| 
         00000018 0000 
    1499                      ; call occurs [#_PROCTRL_init] ; [] |147| 
    1500 00000019 761F-         MOVW      DP,#_proctrlHandle    ; [CPU_U] 
         0000001a 0000 
    1501                      .dwpsn  file "D:/BM1000_v1.1/sw/solutions/instaspin/src/proj_bm1000.c",line 148,column 3,is_stmt
    1502 0000001b D0AC          MOVB      XAR0,#172             ; [CPU_] |148| 
    1503                      .dwpsn  file "D:/BM1000_v1.1/sw/solutions/instaspin/src/proj_bm1000.c",line 147,column 3,is_stmt
    1504 0000001c A806-         MOVL      @_proctrlHandle,XAR4  ; [CPU_] |147| 
    1505                      .dwpsn  file "D:/BM1000_v1.1/sw/solutions/instaspin/src/proj_bm1000.c",line 148,column 3,is_stmt
    1506 0000001d 8A94          MOVL      XAR4,*+XAR4[AR0]      ; [CPU_] |148| 
    1507              $C$DW$209       .dwtag  DW_TAG_TI_branch
    1508                      .dwattr $C$DW$209, DW_AT_low_pc(0x00)
    1509                      .dwattr $C$DW$209, DW_AT_name("_MOTOR_CtrlVersion_Init")
    1510                      .dwattr $C$DW$209, DW_AT_TI_call
    1511 0000001e 7640!         LCR       #_MOTOR_CtrlVersion_Init ; [CPU_] |148| 
         0000001f 0000 
    1512                      ; call occurs [#_MOTOR_CtrlVersion_Init] ; [] |148| 
    1513                      .dwpsn  file "D:/BM1000_v1.1/sw/solutions/instaspin/src/proj_bm1000.c",line 156,column 3,is_stmt
    1514 00000020 D500          MOVB      XAR5,#0               ; [CPU_] |156| 
    1515 00000021 8F00-         MOVL      XAR4,#_ctrl           ; [CPU_U] |156| 
         00000022 0200 
    1516 00000023 FF20          MOV       ACC,#264              ; [CPU_] |156| 
         00000024 0108 
    1517              $C$DW$210       .dwtag  DW_TAG_TI_branch
    1518                      .dwattr $C$DW$210, DW_AT_low_pc(0x00)
    1519                      .dwattr $C$DW$210, DW_AT_name("_CTRL_initCtrl")
    1520                      .dwattr $C$DW$210, DW_AT_TI_call
    1521 00000025 7640!         LCR       #_CTRL_initCtrl       ; [CPU_] |156| 
         00000026 0000 
    1522                      ; call occurs [#_CTRL_initCtrl] ; [] |156| 
    1523 00000027 761F-         MOVW      DP,#_ctrlHandle       ; [CPU_U] 
         00000028 0000 
    1524                      .dwpsn  file "D:/BM1000_v1.1/sw/solutions/instaspin/src/proj_bm1000.c",line 164,column 5,is_stmt
    1525 00000029 5DAD          MOVZ      AR5,SP                ; [CPU_U] |164| 
    1526 0000002a DD86          SUBB      XAR5,#6               ; [CPU_U] |164| 
TMS320C2000 Assembler PC v6.2.5 Tue Nov 21 22:57:45 2017

Tools Copyright (c) 1996-2014 Texas Instruments Incorporated
C:\Users\wmj\AppData\Local\Temp\1055210                              PAGE   30

    1527                      .dwpsn  file "D:/BM1000_v1.1/sw/solutions/instaspin/src/proj_bm1000.c",line 156,column 3,is_stmt
    1528 0000002b A804-         MOVL      @_ctrlHandle,XAR4     ; [CPU_] |156| 
    1529                      .dwpsn  file "D:/BM1000_v1.1/sw/solutions/instaspin/src/proj_bm1000.c",line 164,column 5,is_stmt
    1530              $C$DW$211       .dwtag  DW_TAG_TI_branch
    1531                      .dwattr $C$DW$211, DW_AT_low_pc(0x00)
    1532                      .dwattr $C$DW$211, DW_AT_name("_CTRL_getVersion")
    1533                      .dwattr $C$DW$211, DW_AT_TI_call
    1534 0000002c 7640!         LCR       #_CTRL_getVersion     ; [CPU_] |164| 
         0000002d 0000 
    1535                      ; call occurs [#_CTRL_getVersion] ; [] |164| 
    1536 0000002e 761F-         MOVW      DP,#_proctrlHandle    ; [CPU_U] 
         0000002f 0000 
    1537                      .dwpsn  file "D:/BM1000_v1.1/sw/solutions/instaspin/src/proj_bm1000.c",line 165,column 5,is_stmt
    1538 00000030 8A06-         MOVL      XAR4,@_proctrlHandle  ; [CPU_] |165| 
    1539                      .dwpsn  file "D:/BM1000_v1.1/sw/drivers/drvic/motor.h",line 205,column 3,is_stmt
    1540 00000031 D0AC          MOVB      XAR0,#172             ; [CPU_] |205| 
    1541 00000032 8394          MOVL      XAR5,*+XAR4[AR0]      ; [CPU_] |205| 
    1542 00000033 80AD          MOVZ      AR7,SP                ; [CPU_U] |205| 
    1543 00000034 DF86          SUBB      XAR7,#6               ; [CPU_U] |205| 
    1544 00000035 DD15          ADDB      XAR5,#21              ; [CPU_] |205| 
    1545 00000036 F603          RPT       #3
    1546 00000037 2485  ||     PREAD     *XAR5++,*XAR7         ; [CPU_] |205| 
    1547                      .dwpsn  file "D:/BM1000_v1.1/sw/solutions/instaspin/src/proj_bm1000.c",line 169,column 3,is_stmt
    1548 00000038 8304-         MOVL      XAR5,@_ctrlHandle     ; [CPU_] |169| 
    1549              $C$DW$212       .dwtag  DW_TAG_TI_branch
    1550                      .dwattr $C$DW$212, DW_AT_low_pc(0x00)
    1551                      .dwattr $C$DW$212, DW_AT_name("_PROCTRL_setCtrlHandle")
    1552                      .dwattr $C$DW$212, DW_AT_TI_call
    1553 00000039 7640!         LCR       #_PROCTRL_setCtrlHandle ; [CPU_] |169| 
         0000003a 0000 
    1554                      ; call occurs [#_PROCTRL_setCtrlHandle] ; [] |169| 
    1555                      .dwpsn  file "D:/BM1000_v1.1/sw/solutions/instaspin/src/proj_bm1000.c",line 170,column 3,is_stmt
    1556 0000003b 8D40-         MOVL      XAR1,#_gUserParams    ; [CPU_U] |170| 
         0000003c 0040 
    1557 0000003d 761F-         MOVW      DP,#_proctrlHandle    ; [CPU_U] 
         0000003e 0000 
    1558 0000003f 83A1          MOVL      XAR5,XAR1             ; [CPU_] |170| 
    1559 00000040 8A06-         MOVL      XAR4,@_proctrlHandle  ; [CPU_] |170| 
    1560              $C$DW$213       .dwtag  DW_TAG_TI_branch
    1561                      .dwattr $C$DW$213, DW_AT_low_pc(0x00)
    1562                      .dwattr $C$DW$213, DW_AT_name("_PROCTRL_setUserParams")
    1563                      .dwattr $C$DW$213, DW_AT_TI_call
    1564 00000041 7640!         LCR       #_PROCTRL_setUserParams ; [CPU_] |170| 
         00000042 0000 
    1565                      ; call occurs [#_PROCTRL_setUserParams] ; [] |170| 
    1566 00000043 761F-         MOVW      DP,#_proctrlHandle    ; [CPU_U] 
         00000044 0000 
    1567                      .dwpsn  file "D:/BM1000_v1.1/sw/solutions/instaspin/src/proj_bm1000.c",line 171,column 3,is_stmt
    1568 00000045 8A06-         MOVL      XAR4,@_proctrlHandle  ; [CPU_] |171| 
    1569 00000046 8302-         MOVL      XAR5,@_halHandle      ; [CPU_] |171| 
    1570              $C$DW$214       .dwtag  DW_TAG_TI_branch
    1571                      .dwattr $C$DW$214, DW_AT_low_pc(0x00)
    1572                      .dwattr $C$DW$214, DW_AT_name("_PROCTRL_setHalHandle")
    1573                      .dwattr $C$DW$214, DW_AT_TI_call
    1574 00000047 7640!         LCR       #_PROCTRL_setHalHandle ; [CPU_] |171| 
TMS320C2000 Assembler PC v6.2.5 Tue Nov 21 22:57:45 2017

Tools Copyright (c) 1996-2014 Texas Instruments Incorporated
C:\Users\wmj\AppData\Local\Temp\1055210                              PAGE   31

         00000048 0000 
    1575                      ; call occurs [#_PROCTRL_setHalHandle] ; [] |171| 
    1576 00000049 761F-         MOVW      DP,#_proctrlHandle    ; [CPU_U] 
         0000004a 0000 
    1577                      .dwpsn  file "D:/BM1000_v1.1/sw/solutions/instaspin/src/proj_bm1000.c",line 174,column 3,is_stmt
    1578 0000004b 8A06-         MOVL      XAR4,@_proctrlHandle  ; [CPU_] |174| 
    1579              $C$DW$215       .dwtag  DW_TAG_TI_branch
    1580                      .dwattr $C$DW$215, DW_AT_low_pc(0x00)
    1581                      .dwattr $C$DW$215, DW_AT_name("_PROCTRL_setupFlyingStart")
    1582                      .dwattr $C$DW$215, DW_AT_TI_call
    1583 0000004c 7640!         LCR       #_PROCTRL_setupFlyingStart ; [CPU_] |174| 
         0000004d 0000 
    1584                      ; call occurs [#_PROCTRL_setupFlyingStart] ; [] |174| 
    1585 0000004e 761F-         MOVW      DP,#_proctrlHandle    ; [CPU_U] 
         0000004f 0000 
    1586                      .dwpsn  file "D:/BM1000_v1.1/sw/solutions/instaspin/src/proj_bm1000.c",line 177,column 3,is_stmt
    1587 00000050 8A06-         MOVL      XAR4,@_proctrlHandle  ; [CPU_] |177| 
    1588              $C$DW$216       .dwtag  DW_TAG_TI_branch
    1589                      .dwattr $C$DW$216, DW_AT_low_pc(0x00)
    1590                      .dwattr $C$DW$216, DW_AT_name("_PROCTRL_setupModbus")
    1591                      .dwattr $C$DW$216, DW_AT_TI_call
    1592 00000051 7640!         LCR       #_PROCTRL_setupModbus ; [CPU_] |177| 
         00000052 0000 
    1593                      ; call occurs [#_PROCTRL_setupModbus] ; [] |177| 
    1594 00000053 761F-         MOVW      DP,#_proctrlHandle    ; [CPU_U] 
         00000054 0000 
    1595                      .dwpsn  file "D:/BM1000_v1.1/sw/solutions/instaspin/src/proj_bm1000.c",line 178,column 3,is_stmt
    1596 00000055 8A06-         MOVL      XAR4,@_proctrlHandle  ; [CPU_] |178| 
    1597              $C$DW$217       .dwtag  DW_TAG_TI_branch
    1598                      .dwattr $C$DW$217, DW_AT_low_pc(0x00)
    1599                      .dwattr $C$DW$217, DW_AT_name("_PROCTRL_setupMotors")
    1600                      .dwattr $C$DW$217, DW_AT_TI_call
    1601 00000056 7640!         LCR       #_PROCTRL_setupMotors ; [CPU_] |178| 
         00000057 0000 
    1602                      ; call occurs [#_PROCTRL_setupMotors] ; [] |178| 
    1603 00000058 761F-         MOVW      DP,#_proctrlHandle    ; [CPU_U] 
         00000059 0000 
    1604                      .dwpsn  file "D:/BM1000_v1.1/sw/solutions/instaspin/src/proj_bm1000.c",line 179,column 3,is_stmt
    1605 0000005a 8A06-         MOVL      XAR4,@_proctrlHandle  ; [CPU_] |179| 
    1606              $C$DW$218       .dwtag  DW_TAG_TI_branch
    1607                      .dwattr $C$DW$218, DW_AT_low_pc(0x00)
    1608                      .dwattr $C$DW$218, DW_AT_name("_PROCTRL_setupFSM")
    1609                      .dwattr $C$DW$218, DW_AT_TI_call
    1610 0000005b 7640!         LCR       #_PROCTRL_setupFSM    ; [CPU_] |179| 
         0000005c 0000 
    1611                      ; call occurs [#_PROCTRL_setupFSM] ; [] |179| 
    1612                      .dwpsn  file "D:/BM1000_v1.1/sw/solutions/instaspin/src/proj_bm1000.c",line 183,column 3,is_stmt
    1613 0000005d 8AA1          MOVL      XAR4,XAR1             ; [CPU_] |183| 
    1614              $C$DW$219       .dwtag  DW_TAG_TI_branch
    1615                      .dwattr $C$DW$219, DW_AT_low_pc(0x00)
    1616                      .dwattr $C$DW$219, DW_AT_name("_USER_setSysParams")
    1617                      .dwattr $C$DW$219, DW_AT_TI_call
    1618 0000005e 7640!         LCR       #_USER_setSysParams   ; [CPU_] |183| 
         0000005f 0000 
    1619                      ; call occurs [#_USER_setSysParams] ; [] |183| 
TMS320C2000 Assembler PC v6.2.5 Tue Nov 21 22:57:45 2017

Tools Copyright (c) 1996-2014 Texas Instruments Incorporated
C:\Users\wmj\AppData\Local\Temp\1055210                              PAGE   32

    1620 00000060 761F-         MOVW      DP,#_halHandle        ; [CPU_U] 
         00000061 0000 
    1621                      .dwpsn  file "D:/BM1000_v1.1/sw/solutions/instaspin/src/proj_bm1000.c",line 185,column 3,is_stmt
    1622 00000062 83A1          MOVL      XAR5,XAR1             ; [CPU_] |185| 
    1623 00000063 8A02-         MOVL      XAR4,@_halHandle      ; [CPU_] |185| 
    1624              $C$DW$220       .dwtag  DW_TAG_TI_branch
    1625                      .dwattr $C$DW$220, DW_AT_low_pc(0x00)
    1626                      .dwattr $C$DW$220, DW_AT_name("_HAL_setParams")
    1627                      .dwattr $C$DW$220, DW_AT_TI_call
    1628 00000064 7640!         LCR       #_HAL_setParams       ; [CPU_] |185| 
         00000065 0000 
    1629                      ; call occurs [#_HAL_setParams] ; [] |185| 
    1630                      .dwpsn  file "D:/BM1000_v1.1/sw/solutions/instaspin/src/proj_bm1000.c",line 187,column 3,is_stmt
    1631 00000066 8AA1          MOVL      XAR4,XAR1             ; [CPU_] |187| 
    1632              $C$DW$221       .dwtag  DW_TAG_TI_branch
    1633                      .dwattr $C$DW$221, DW_AT_low_pc(0x00)
    1634                      .dwattr $C$DW$221, DW_AT_name("_USER_setParams")
    1635                      .dwattr $C$DW$221, DW_AT_TI_call
    1636 00000067 7640!         LCR       #_USER_setParams      ; [CPU_] |187| 
         00000068 0000 
    1637                      ; call occurs [#_USER_setParams] ; [] |187| 
    1638                      .dwpsn  file "D:/BM1000_v1.1/sw/solutions/instaspin/src/proj_bm1000.c",line 189,column 3,is_stmt
    1639 00000069 8AA1          MOVL      XAR4,XAR1             ; [CPU_] |189| 
    1640              $C$DW$222       .dwtag  DW_TAG_TI_branch
    1641                      .dwattr $C$DW$222, DW_AT_low_pc(0x00)
    1642                      .dwattr $C$DW$222, DW_AT_name("_USER_checkDefErrors")
    1643                      .dwattr $C$DW$222, DW_AT_TI_call
    1644 0000006a 7640!         LCR       #_USER_checkDefErrors ; [CPU_] |189| 
         0000006b 0000 
    1645                      ; call occurs [#_USER_checkDefErrors] ; [] |189| 
    1646 0000006c 761F-         MOVW      DP,#_halHandle        ; [CPU_U] 
         0000006d 0000 
    1647                      .dwpsn  file "D:/BM1000_v1.1/sw/solutions/instaspin/src/proj_bm1000.c",line 196,column 3,is_stmt
    1648 0000006e 8A02-         MOVL      XAR4,@_halHandle      ; [CPU_] |196| 
    1649 0000006f D0B2          MOVB      XAR0,#178             ; [CPU_] |196| 
    1650 00000070 9294          MOV       AL,*+XAR4[AR0]        ; [CPU_] |196| 
    1651 00000071 8AA1          MOVL      XAR4,XAR1             ; [CPU_] |196| 
    1652              $C$DW$223       .dwtag  DW_TAG_TI_branch
    1653                      .dwattr $C$DW$223, DW_AT_low_pc(0x00)
    1654                      .dwattr $C$DW$223, DW_AT_name("_USER_setMotorIDs")
    1655                      .dwattr $C$DW$223, DW_AT_TI_call
    1656 00000072 7640!         LCR       #_USER_setMotorIDs    ; [CPU_] |196| 
         00000073 0000 
    1657                      ; call occurs [#_USER_setMotorIDs] ; [] |196| 
    1658 00000074 761F-         MOVW      DP,#_halHandle        ; [CPU_U] 
         00000075 0000 
    1659                      .dwpsn  file "D:/BM1000_v1.1/sw/solutions/instaspin/src/proj_bm1000.c",line 198,column 3,is_stmt
    1660 00000076 8A02-         MOVL      XAR4,@_halHandle      ; [CPU_] |198| 
    1661 00000077 8306-         MOVL      XAR5,@_proctrlHandle  ; [CPU_] |198| 
    1662                      .dwpsn  file "D:/BM1000_v1.1/sw/drivers/drvic/modbus/mb.h",line 347,column 3,is_stmt
    1663 00000078 D0B2          MOVB      XAR0,#178             ; [CPU_] |347| 
    1664 00000079 9294          MOV       AL,*+XAR4[AR0]        ; [CPU_] |347| 
    1665 0000007a D03A          MOVB      XAR0,#58              ; [CPU_] |347| 
    1666 0000007b C495          MOVL      XAR6,*+XAR5[AR0]      ; [CPU_] |347| 
    1667 0000007c 9C11          ADDB      AL,#17                ; [CPU_] |347| 
TMS320C2000 Assembler PC v6.2.5 Tue Nov 21 22:57:45 2017

Tools Copyright (c) 1996-2014 Texas Instruments Incorporated
C:\Users\wmj\AppData\Local\Temp\1055210                              PAGE   33

    1668 0000007d D019          MOVB      XAR0,#25              ; [CPU_] |347| 
    1669 0000007e 9696          MOV       *+XAR6[AR0],AL        ; [CPU_] |347| 
    1670                      .dwpsn  file "D:/BM1000_v1.1/sw/drivers/drvic/motor.h",line 365,column 3,is_stmt
    1671 0000007f D0B2          MOVB      XAR0,#178             ; [CPU_] |365| 
    1672 00000080 9294          MOV       AL,*+XAR4[AR0]        ; [CPU_] |365| 
    1673 00000081 D0AC          MOVB      XAR0,#172             ; [CPU_] |365| 
    1674 00000082 8A95          MOVL      XAR4,*+XAR5[AR0]      ; [CPU_] |365| 
    1675 00000083 D06E          MOVB      XAR0,#110             ; [CPU_] |365| 
    1676 00000084 9694          MOV       *+XAR4[AR0],AL        ; [CPU_] |365| 
    1677                      .dwpsn  file "D:/BM1000_v1.1/sw/solutions/instaspin/src/proj_bm1000.c",line 203,column 3,is_stmt
    1678 00000085 8AA1          MOVL      XAR4,XAR1             ; [CPU_] |203| 
    1679              $C$DW$224       .dwtag  DW_TAG_TI_branch
    1680                      .dwattr $C$DW$224, DW_AT_low_pc(0x00)
    1681                      .dwattr $C$DW$224, DW_AT_name("_USER_setMotorParams")
    1682                      .dwattr $C$DW$224, DW_AT_TI_call
    1683 00000086 7640!         LCR       #_USER_setMotorParams ; [CPU_] |203| 
         00000087 0000 
    1684                      ; call occurs [#_USER_setMotorParams] ; [] |203| 
    1685                      .dwpsn  file "D:/BM1000_v1.1/sw/solutions/instaspin/src/proj_bm1000.c",line 205,column 3,is_stmt
    1686 00000088 8AA1          MOVL      XAR4,XAR1             ; [CPU_] |205| 
    1687              $C$DW$225       .dwtag  DW_TAG_TI_branch
    1688                      .dwattr $C$DW$225, DW_AT_low_pc(0x00)
    1689                      .dwattr $C$DW$225, DW_AT_name("_USER_setWaitTimeParams")
    1690                      .dwattr $C$DW$225, DW_AT_TI_call
    1691 00000089 7640!         LCR       #_USER_setWaitTimeParams ; [CPU_] |205| 
         0000008a 0000 
    1692                      ; call occurs [#_USER_setWaitTimeParams] ; [] |205| 
    1693                      .dwpsn  file "D:/BM1000_v1.1/sw/solutions/instaspin/src/proj_bm1000.c",line 208,column 3,is_stmt
    1694 0000008b 8AA1          MOVL      XAR4,XAR1             ; [CPU_] |208| 
    1695              $C$DW$226       .dwtag  DW_TAG_TI_branch
    1696                      .dwattr $C$DW$226, DW_AT_low_pc(0x00)
    1697                      .dwattr $C$DW$226, DW_AT_name("_USER_setBoardParams")
    1698                      .dwattr $C$DW$226, DW_AT_TI_call
    1699 0000008c 7640!         LCR       #_USER_setBoardParams ; [CPU_] |208| 
         0000008d 0000 
    1700                      ; call occurs [#_USER_setBoardParams] ; [] |208| 
    1701 0000008e 761F-         MOVW      DP,#_halHandle        ; [CPU_U] 
         0000008f 0000 
    1702                      .dwpsn  file "D:/BM1000_v1.1/sw/solutions/instaspin/src/proj_bm1000.c",line 211,column 3,is_stmt
    1703 00000090 83A1          MOVL      XAR5,XAR1             ; [CPU_] |211| 
    1704 00000091 8A02-         MOVL      XAR4,@_halHandle      ; [CPU_] |211| 
    1705              $C$DW$227       .dwtag  DW_TAG_TI_branch
    1706                      .dwattr $C$DW$227, DW_AT_low_pc(0x00)
    1707                      .dwattr $C$DW$227, DW_AT_name("_HAL_setupAdcParams")
    1708                      .dwattr $C$DW$227, DW_AT_TI_call
    1709 00000092 7640!         LCR       #_HAL_setupAdcParams  ; [CPU_] |211| 
         00000093 0000 
    1710                      ; call occurs [#_HAL_setupAdcParams] ; [] |211| 
    1711                      .dwpsn  file "D:/BM1000_v1.1/sw/solutions/instaspin/src/proj_bm1000.c",line 214,column 3,is_stmt
    1712 00000094 8AA1          MOVL      XAR4,XAR1             ; [CPU_] |214| 
    1713              $C$DW$228       .dwtag  DW_TAG_TI_branch
    1714                      .dwattr $C$DW$228, DW_AT_low_pc(0x00)
    1715                      .dwattr $C$DW$228, DW_AT_name("_USER_checkForErrors")
    1716                      .dwattr $C$DW$228, DW_AT_TI_call
    1717 00000095 7640!         LCR       #_USER_checkForErrors ; [CPU_] |214| 
TMS320C2000 Assembler PC v6.2.5 Tue Nov 21 22:57:45 2017

Tools Copyright (c) 1996-2014 Texas Instruments Incorporated
C:\Users\wmj\AppData\Local\Temp\1055210                              PAGE   34

         00000096 0000 
    1718                      ; call occurs [#_USER_checkForErrors] ; [] |214| 
    1719 00000097 761F-         MOVW      DP,#_proctrlHandle    ; [CPU_U] 
         00000098 0000 
    1720                      .dwpsn  file "D:/BM1000_v1.1/sw/solutions/instaspin/src/proj_bm1000.c",line 217,column 3,is_stmt
    1721 00000099 8A06-         MOVL      XAR4,@_proctrlHandle  ; [CPU_] |217| 
    1722 0000009a D0AC          MOVB      XAR0,#172             ; [CPU_] |217| 
    1723 0000009b 8694          MOVL      XAR2,*+XAR4[AR0]      ; [CPU_] |217| 
    1724 0000009c 8AA1          MOVL      XAR4,XAR1             ; [CPU_] |217| 
    1725              $C$DW$229       .dwtag  DW_TAG_TI_branch
    1726                      .dwattr $C$DW$229, DW_AT_low_pc(0x00)
    1727                      .dwattr $C$DW$229, DW_AT_name("_USER_getErrorCode")
    1728                      .dwattr $C$DW$229, DW_AT_TI_call
    1729 0000009d 7640!         LCR       #_USER_getErrorCode   ; [CPU_] |217| 
         0000009e 0000 
    1730                      ; call occurs [#_USER_getErrorCode] ; [] |217| 
    1731 0000009f 761F-         MOVW      DP,#_proctrlHandle    ; [CPU_U] 
         000000a0 0000 
    1732                      .dwpsn  file "D:/BM1000_v1.1/sw/drivers/drvic/motor.h",line 187,column 3,is_stmt
    1733 000000a1 D014          MOVB      XAR0,#20              ; [CPU_] |187| 
    1734                      .dwpsn  file "D:/BM1000_v1.1/sw/solutions/instaspin/src/proj_bm1000.c",line 219,column 3,is_stmt
    1735 000000a2 8A06-         MOVL      XAR4,@_proctrlHandle  ; [CPU_] |219| 
    1736 000000a3 83A1          MOVL      XAR5,XAR1             ; [CPU_] |219| 
    1737                      .dwpsn  file "D:/BM1000_v1.1/sw/drivers/drvic/motor.h",line 187,column 3,is_stmt
    1738 000000a4 9692          MOV       *+XAR2[AR0],AL        ; [CPU_] |187| 
    1739                      .dwpsn  file "D:/BM1000_v1.1/sw/solutions/instaspin/src/proj_bm1000.c",line 219,column 3,is_stmt
    1740 000000a5 D0AC          MOVB      XAR0,#172             ; [CPU_] |219| 
    1741 000000a6 8A94          MOVL      XAR4,*+XAR4[AR0]      ; [CPU_] |219| 
    1742              $C$DW$230       .dwtag  DW_TAG_TI_branch
    1743                      .dwattr $C$DW$230, DW_AT_low_pc(0x00)
    1744                      .dwattr $C$DW$230, DW_AT_name("_MOTOR_getMaxCurrent")
    1745                      .dwattr $C$DW$230, DW_AT_TI_call
    1746 000000a7 7640!         LCR       #_MOTOR_getMaxCurrent ; [CPU_] |219| 
         000000a8 0000 
    1747                      ; call occurs [#_MOTOR_getMaxCurrent] ; [] |219| 
    1748 000000a9 761F-         MOVW      DP,#_halHandle        ; [CPU_U] 
         000000aa 0000 
    1749                      .dwpsn  file "D:/BM1000_v1.1/sw/solutions/instaspin/src/proj_bm1000.c",line 229,column 3,is_stmt
    1750 000000ab 8A02-         MOVL      XAR4,@_halHandle      ; [CPU_] |229| 
    1751              $C$DW$231       .dwtag  DW_TAG_TI_branch
    1752                      .dwattr $C$DW$231, DW_AT_low_pc(0x00)
    1753                      .dwattr $C$DW$231, DW_AT_name("_HAL_setupFaults")
    1754                      .dwattr $C$DW$231, DW_AT_TI_call
    1755 000000ac 7640!         LCR       #_HAL_setupFaults     ; [CPU_] |229| 
         000000ad 0000 
    1756                      ; call occurs [#_HAL_setupFaults] ; [] |229| 
    1757 000000ae 761F-         MOVW      DP,#_halHandle        ; [CPU_U] 
         000000af 0000 
    1758                      .dwpsn  file "D:/BM1000_v1.1/sw/solutions/instaspin/src/proj_bm1000.c",line 232,column 3,is_stmt
    1759 000000b0 8A02-         MOVL      XAR4,@_halHandle      ; [CPU_] |232| 
    1760                      .dwpsn  file "D:/BM1000_v1.1/sw/modules/hal/boards/hvkit_rev1p1/f28x/f2802x/src/hal.h",line 514,colum
    1761 000000b1 D078          MOVB      XAR0,#120             ; [CPU_] |514| 
    1762 000000b2 8394          MOVL      XAR5,*+XAR4[AR0]      ; [CPU_] |514| 
    1763 000000b3 7622   EALLOW
    1764                      .dwpsn  file "D:/BM1000_v1.1/sw/modules/hal/boards/hvkit_rev1p1/f28x/f2802x/src/hal.h",line 520,colum
TMS320C2000 Assembler PC v6.2.5 Tue Nov 21 22:57:45 2017

Tools Copyright (c) 1996-2014 Texas Instruments Incorporated
C:\Users\wmj\AppData\Local\Temp\1055210                              PAGE   35

    1765 000000b4 D060          MOVB      XAR0,#96              ; [CPU_] |520| 
    1766 000000b5 7680+         MOVL      XAR6,#_mainISR        ; [CPU_U] |520| 
         000000b6 0000 
    1767 000000b7 C295          MOVL      *+XAR5[AR0],XAR6      ; [CPU_] |520| 
    1768                      .dwpsn  file "D:/BM1000_v1.1/sw/modules/hal/boards/hvkit_rev1p1/f28x/f2802x/src/hal.h",line 521,colum
    1769 000000b8 D0E0          MOVB      XAR0,#224             ; [CPU_] |521| 
    1770 000000b9 7680+         MOVL      XAR6,#_UART_RxISR     ; [CPU_U] |521| 
         000000ba 0027 
    1771 000000bb C295          MOVL      *+XAR5[AR0],XAR6      ; [CPU_] |521| 
    1772                      .dwpsn  file "D:/BM1000_v1.1/sw/modules/hal/boards/hvkit_rev1p1/f28x/f2802x/src/hal.h",line 522,colum
    1773 000000bc D0E2          MOVB      XAR0,#226             ; [CPU_] |522| 
    1774 000000bd 7680+         MOVL      XAR6,#_UART_TxReadyISR ; [CPU_U] |522| 
         000000be 0000 
    1775 000000bf C295          MOVL      *+XAR5[AR0],XAR6      ; [CPU_] |522| 
    1776 000000c0 761A   EDIS
    1777 000000c1 FF69          SPM       #0                    ; [CPU_] 
    1778                      .dwpsn  file "D:/BM1000_v1.1/sw/solutions/instaspin/src/proj_bm1000.c",line 235,column 3,is_stmt
    1779              $C$DW$232       .dwtag  DW_TAG_TI_branch
    1780                      .dwattr $C$DW$232, DW_AT_low_pc(0x00)
    1781                      .dwattr $C$DW$232, DW_AT_name("_HAL_enableAdcInts")
    1782                      .dwattr $C$DW$232, DW_AT_TI_call
    1783 000000c2 7640!         LCR       #_HAL_enableAdcInts   ; [CPU_] |235| 
         000000c3 0000 
    1784                      ; call occurs [#_HAL_enableAdcInts] ; [] |235| 
    1785 000000c4 761F-         MOVW      DP,#_halHandle        ; [CPU_U] 
         000000c5 0000 
    1786                      .dwpsn  file "D:/BM1000_v1.1/sw/solutions/instaspin/src/proj_bm1000.c",line 237,column 3,is_stmt
    1787 000000c6 8A02-         MOVL      XAR4,@_halHandle      ; [CPU_] |237| 
    1788              $C$DW$233       .dwtag  DW_TAG_TI_branch
    1789                      .dwattr $C$DW$233, DW_AT_low_pc(0x00)
    1790                      .dwattr $C$DW$233, DW_AT_name("_HAL_enableSciaInt")
    1791                      .dwattr $C$DW$233, DW_AT_TI_call
    1792 000000c7 7640!         LCR       #_HAL_enableSciaInt   ; [CPU_] |237| 
         000000c8 0000 
    1793                      ; call occurs [#_HAL_enableSciaInt] ; [] |237| 
    1794 000000c9 761F-         MOVW      DP,#_halHandle        ; [CPU_U] 
         000000ca 0000 
    1795                      .dwpsn  file "D:/BM1000_v1.1/sw/solutions/instaspin/src/proj_bm1000.c",line 239,column 3,is_stmt
    1796 000000cb 8F40+         MOVL      XAR5,#_Timer1ISR      ; [CPU_U] |239| 
         000000cc 0055 
    1797 000000cd 8A02-         MOVL      XAR4,@_halHandle      ; [CPU_] |239| 
    1798              $C$DW$234       .dwtag  DW_TAG_TI_branch
    1799                      .dwattr $C$DW$234, DW_AT_low_pc(0x00)
    1800                      .dwattr $C$DW$234, DW_AT_name("_HAL_enableTimer1Int")
    1801                      .dwattr $C$DW$234, DW_AT_TI_call
    1802 000000ce 7640!         LCR       #_HAL_enableTimer1Int ; [CPU_] |239| 
         000000cf 0000 
    1803                      ; call occurs [#_HAL_enableTimer1Int] ; [] |239| 
    1804 000000d0 761F-         MOVW      DP,#_halHandle        ; [CPU_U] 
         000000d1 0000 
    1805                      .dwpsn  file "D:/BM1000_v1.1/sw/solutions/instaspin/src/proj_bm1000.c",line 242,column 3,is_stmt
    1806 000000d2 8A02-         MOVL      XAR4,@_halHandle      ; [CPU_] |242| 
    1807              $C$DW$235       .dwtag  DW_TAG_TI_branch
    1808                      .dwattr $C$DW$235, DW_AT_low_pc(0x00)
    1809                      .dwattr $C$DW$235, DW_AT_name("_HAL_enableGlobalInts")
TMS320C2000 Assembler PC v6.2.5 Tue Nov 21 22:57:45 2017

Tools Copyright (c) 1996-2014 Texas Instruments Incorporated
C:\Users\wmj\AppData\Local\Temp\1055210                              PAGE   36

    1810                      .dwattr $C$DW$235, DW_AT_TI_call
    1811 000000d3 7640!         LCR       #_HAL_enableGlobalInts ; [CPU_] |242| 
         000000d4 0000 
    1812                      ; call occurs [#_HAL_enableGlobalInts] ; [] |242| 
    1813 000000d5 761F-         MOVW      DP,#_halHandle        ; [CPU_U] 
         000000d6 0000 
    1814                      .dwpsn  file "D:/BM1000_v1.1/sw/solutions/instaspin/src/proj_bm1000.c",line 245,column 3,is_stmt
    1815 000000d7 8A02-         MOVL      XAR4,@_halHandle      ; [CPU_] |245| 
    1816              $C$DW$236       .dwtag  DW_TAG_TI_branch
    1817                      .dwattr $C$DW$236, DW_AT_low_pc(0x00)
    1818                      .dwattr $C$DW$236, DW_AT_name("_HAL_enableDebugInt")
    1819                      .dwattr $C$DW$236, DW_AT_TI_call
    1820 000000d8 7640!         LCR       #_HAL_enableDebugInt  ; [CPU_] |245| 
         000000d9 0000 
    1821                      ; call occurs [#_HAL_enableDebugInt] ; [] |245| 
    1822 000000da 761F-         MOVW      DP,#_halHandle        ; [CPU_U] 
         000000db 0000 
    1823                      .dwpsn  file "D:/BM1000_v1.1/sw/modules/hal/boards/hvkit_rev1p1/f28x/f2802x/src/hal.h",line 288,colum
    1824 000000dc 8A02-         MOVL      XAR4,@_halHandle      ; [CPU_] |288| 
    1825                      .dwpsn  file "D:/BM1000_v1.1/sw/modules/hal/boards/hvkit_rev1p1/f28x/f2802x/src/hal.h",line 290,colum
    1826 000000dd DC7C          ADDB      XAR4,#124             ; [CPU_] |290| 
    1827 000000de 83C4          MOVL      XAR5,*+XAR4[0]        ; [CPU_] |290| 
    1828 000000df 7622   EALLOW
    1829                      .dwpsn  file "D:/BM1000_v1.1/sw/drivers/pwm/src/32b/f28x/f2802x/pwm.h",line 1567,column 5,is_stmt
    1830 000000e0 DD18          ADDB      XAR5,#24              ; [CPU_] |1567| 
    1831 000000e1 1AC5          OR        *+XAR5[0],#0x0004     ; [CPU_] |1567| 
         000000e2 0004 
    1832 000000e3 761A   EDIS
    1833                      .dwpsn  file "D:/BM1000_v1.1/sw/modules/hal/boards/hvkit_rev1p1/f28x/f2802x/src/hal.h",line 291,colum
    1834 000000e4 83D4          MOVL      XAR5,*+XAR4[2]        ; [CPU_] |291| 
    1835 000000e5 7622   EALLOW
    1836                      .dwpsn  file "D:/BM1000_v1.1/sw/drivers/pwm/src/32b/f28x/f2802x/pwm.h",line 1567,column 5,is_stmt
    1837 000000e6 DD18          ADDB      XAR5,#24              ; [CPU_] |1567| 
    1838 000000e7 1AC5          OR        *+XAR5[0],#0x0004     ; [CPU_] |1567| 
         000000e8 0004 
    1839 000000e9 761A   EDIS
    1840                      .dwpsn  file "D:/BM1000_v1.1/sw/modules/hal/boards/hvkit_rev1p1/f28x/f2802x/src/hal.h",line 292,colum
    1841 000000ea 8AE4          MOVL      XAR4,*+XAR4[4]        ; [CPU_] |292| 
    1842 000000eb 7622   EALLOW
    1843                      .dwpsn  file "D:/BM1000_v1.1/sw/drivers/pwm/src/32b/f28x/f2802x/pwm.h",line 1567,column 5,is_stmt
    1844 000000ec DC18          ADDB      XAR4,#24              ; [CPU_] |1567| 
    1845 000000ed 1AC4          OR        *+XAR4[0],#0x0004     ; [CPU_] |1567| 
         000000ee 0004 
    1846 000000ef 761A   EDIS
    1847 000000f0       $C$L9:    
    1848 000000f0 761F-         MOVW      DP,#_halHandle        ; [CPU_U] 
         000000f1 0000 
    1849                      .dwpsn  file "D:/BM1000_v1.1/sw/modules/hal/boards/hvkit_rev1p1/f28x/f2802x/src/hal.h",line 821,colum
    1850 000000f2 8A02-         MOVL      XAR4,@_halHandle      ; [CPU_] |821| 
    1851 000000f3 D008          MOVB      XAR0,#8               ; [CPU_] |821| 
    1852 000000f4 9A21          MOVB      AL,#33                ; [CPU_] |821| 
    1853 000000f5 FF69          SPM       #0                    ; [CPU_] 
    1854 000000f6 8A94          MOVL      XAR4,*+XAR4[AR0]      ; [CPU_] |821| 
    1855              $C$DW$237       .dwtag  DW_TAG_TI_branch
    1856                      .dwattr $C$DW$237, DW_AT_low_pc(0x00)
TMS320C2000 Assembler PC v6.2.5 Tue Nov 21 22:57:45 2017

Tools Copyright (c) 1996-2014 Texas Instruments Incorporated
C:\Users\wmj\AppData\Local\Temp\1055210                              PAGE   37

    1857                      .dwattr $C$DW$237, DW_AT_name("_GPIO_read")
    1858                      .dwattr $C$DW$237, DW_AT_TI_call
    1859 000000f7 7640!         LCR       #_GPIO_read           ; [CPU_] |821| 
         000000f8 0000 
    1860                      ; call occurs [#_GPIO_read] ; [] |821| 
    1861 000000f9 5200          CMPB      AL,#0                 ; [CPU_] |821| 
    1862 000000fa EDF6          BF        $C$L9,NEQ             ; [CPU_] |821| 
    1863                      ; branchcc occurs ; [] |821| 
    1864 000000fb 761F-         MOVW      DP,#_halHandle        ; [CPU_U] 
         000000fc 0000 
    1865                      .dwpsn  file "D:/BM1000_v1.1/sw/modules/hal/boards/hvkit_rev1p1/f28x/f2802x/src/hal.h",line 853,colum
    1866 000000fd 8A02-         MOVL      XAR4,@_halHandle      ; [CPU_] |853| 
    1867 000000fe D008          MOVB      XAR0,#8               ; [CPU_] |853| 
    1868 000000ff 9A20          MOVB      AL,#32                ; [CPU_] |853| 
    1869 00000100 8A94          MOVL      XAR4,*+XAR4[AR0]      ; [CPU_] |853| 
    1870              $C$DW$238       .dwtag  DW_TAG_TI_branch
    1871                      .dwattr $C$DW$238, DW_AT_low_pc(0x00)
    1872                      .dwattr $C$DW$238, DW_AT_name("_GPIO_setLow")
    1873                      .dwattr $C$DW$238, DW_AT_TI_call
    1874 00000101 7640!         LCR       #_GPIO_setLow         ; [CPU_] |853| 
         00000102 0000 
    1875                      ; call occurs [#_GPIO_setLow] ; [] |853| 
    1876 00000103 761F-         MOVW      DP,#_halHandle        ; [CPU_U] 
         00000104 0000 
    1877 00000105 8A02-         MOVL      XAR4,@_halHandle      ; [CPU_] |853| 
    1878 00000106 D008          MOVB      XAR0,#8               ; [CPU_] |853| 
    1879 00000107 9A12          MOVB      AL,#18                ; [CPU_] |853| 
    1880 00000108 8A94          MOVL      XAR4,*+XAR4[AR0]      ; [CPU_] |853| 
    1881              $C$DW$239       .dwtag  DW_TAG_TI_branch
    1882                      .dwattr $C$DW$239, DW_AT_low_pc(0x00)
    1883                      .dwattr $C$DW$239, DW_AT_name("_GPIO_setLow")
    1884                      .dwattr $C$DW$239, DW_AT_TI_call
    1885 00000109 7640!         LCR       #_GPIO_setLow         ; [CPU_] |853| 
         0000010a 0000 
    1886                      ; call occurs [#_GPIO_setLow] ; [] |853| 
    1887                      .dwpsn  file "D:/BM1000_v1.1/sw/solutions/instaspin/src/proj_bm1000.c",line 255,column 3,is_stmt
    1888 0000010b FF20          MOV       ACC,#1198             ; [CPU_] |255| 
         0000010c 04AE 
    1889              $C$DW$240       .dwtag  DW_TAG_TI_branch
    1890                      .dwattr $C$DW$240, DW_AT_low_pc(0x00)
    1891                      .dwattr $C$DW$240, DW_AT_name("_usDelay")
    1892                      .dwattr $C$DW$240, DW_AT_TI_call
    1893 0000010d 7640!         LCR       #_usDelay             ; [CPU_] |255| 
         0000010e 0000 
    1894                      ; call occurs [#_usDelay] ; [] |255| 
    1895 0000010f 761F-         MOVW      DP,#_halHandle        ; [CPU_U] 
         00000110 0000 
    1896                      .dwpsn  file "D:/BM1000_v1.1/sw/modules/hal/boards/hvkit_rev1p1/f28x/f2802x/src/hal.h",line 807,colum
    1897 00000111 8A02-         MOVL      XAR4,@_halHandle      ; [CPU_] |807| 
    1898 00000112 D008          MOVB      XAR0,#8               ; [CPU_] |807| 
    1899 00000113 9A12          MOVB      AL,#18                ; [CPU_] |807| 
    1900 00000114 8A94          MOVL      XAR4,*+XAR4[AR0]      ; [CPU_] |807| 
    1901              $C$DW$241       .dwtag  DW_TAG_TI_branch
    1902                      .dwattr $C$DW$241, DW_AT_low_pc(0x00)
    1903                      .dwattr $C$DW$241, DW_AT_name("_GPIO_setHigh")
TMS320C2000 Assembler PC v6.2.5 Tue Nov 21 22:57:45 2017

Tools Copyright (c) 1996-2014 Texas Instruments Incorporated
C:\Users\wmj\AppData\Local\Temp\1055210                              PAGE   38

    1904                      .dwattr $C$DW$241, DW_AT_TI_call
    1905 00000115 7640!         LCR       #_GPIO_setHigh        ; [CPU_] |807| 
         00000116 0000 
    1906                      ; call occurs [#_GPIO_setHigh] ; [] |807| 
    1907 00000117 761F-         MOVW      DP,#_proctrlHandle    ; [CPU_U] 
         00000118 0000 
    1908 00000119 C406-         MOVL      XAR6,@_proctrlHandle  ; [CPU_] 
    1909 0000011a 6F16          B         $C$L11,UNC            ; [CPU_] 
    1910                      ; branch occurs ; [] 
    1911 0000011b       $C$L10:    
    1912                      .dwpsn  file "D:/BM1000_v1.1/sw/modules/hal/boards/hvkit_rev1p1/f28x/f2802x/src/hal.h",line 288,colum
    1913 0000011b 8A02-         MOVL      XAR4,@_halHandle      ; [CPU_] |288| 
    1914                      .dwpsn  file "D:/BM1000_v1.1/sw/modules/hal/boards/hvkit_rev1p1/f28x/f2802x/src/hal.h",line 290,colum
    1915 0000011c DC7C          ADDB      XAR4,#124             ; [CPU_] |290| 
    1916 0000011d 83C4          MOVL      XAR5,*+XAR4[0]        ; [CPU_] |290| 
    1917 0000011e 7622   EALLOW
    1918                      .dwpsn  file "D:/BM1000_v1.1/sw/drivers/pwm/src/32b/f28x/f2802x/pwm.h",line 1567,column 5,is_stmt
    1919 0000011f DD18          ADDB      XAR5,#24              ; [CPU_] |1567| 
    1920 00000120 1AC5          OR        *+XAR5[0],#0x0004     ; [CPU_] |1567| 
         00000121 0004 
    1921 00000122 761A   EDIS
    1922                      .dwpsn  file "D:/BM1000_v1.1/sw/modules/hal/boards/hvkit_rev1p1/f28x/f2802x/src/hal.h",line 291,colum
    1923 00000123 83D4          MOVL      XAR5,*+XAR4[2]        ; [CPU_] |291| 
    1924 00000124 7622   EALLOW
    1925                      .dwpsn  file "D:/BM1000_v1.1/sw/drivers/pwm/src/32b/f28x/f2802x/pwm.h",line 1567,column 5,is_stmt
    1926 00000125 DD18          ADDB      XAR5,#24              ; [CPU_] |1567| 
    1927 00000126 1AC5          OR        *+XAR5[0],#0x0004     ; [CPU_] |1567| 
         00000127 0004 
    1928 00000128 761A   EDIS
    1929                      .dwpsn  file "D:/BM1000_v1.1/sw/modules/hal/boards/hvkit_rev1p1/f28x/f2802x/src/hal.h",line 292,colum
    1930 00000129 8AE4          MOVL      XAR4,*+XAR4[4]        ; [CPU_] |292| 
    1931 0000012a 7622   EALLOW
    1932                      .dwpsn  file "D:/BM1000_v1.1/sw/drivers/pwm/src/32b/f28x/f2802x/pwm.h",line 1567,column 5,is_stmt
    1933 0000012b DC18          ADDB      XAR4,#24              ; [CPU_] |1567| 
    1934 0000012c 1AC4          OR        *+XAR4[0],#0x0004     ; [CPU_] |1567| 
         0000012d 0004 
    1935 0000012e 761A   EDIS
    1936                      .dwpsn  file "D:/BM1000_v1.1/sw/solutions/instaspin/src/proj_bm1000.c",line 334,column 2,is_stmt
    1937 0000012f 2BCF          MOV       *+XAR7[1],#0          ; [CPU_] |334| 
    1938 00000130       $C$L11:    
    1939                      .dwpsn  file "D:/BM1000_v1.1/sw/drivers/drvic/motor.h",line 532,column 3,is_stmt
    1940 00000130 D0AC          MOVB      XAR0,#172             ; [CPU_] |532| 
    1941 00000131 8A96          MOVL      XAR4,*+XAR6[AR0]      ; [CPU_] |532| 
    1942 00000132 92C4          MOV       AL,*+XAR4[0]          ; [CPU_] |532| 
    1943 00000133 EC60          BF        $C$L14,EQ             ; [CPU_] |532| 
    1944                      ; branchcc occurs ; [] |532| 
    1945                      .dwpsn  file "D:/BM1000_v1.1/sw/modules/ctrl/src/32b/ctrl.h",line 1283,column 3,is_stmt
    1946 00000134 8A04-         MOVL      XAR4,@_ctrlHandle     ; [CPU_] |1283| 
    1947 00000135 D0F1          MOVB      XAR0,#241             ; [CPU_] |1283| 
    1948 00000136 FF69          SPM       #0                    ; [CPU_] 
    1949 00000137 56BF          MOVB      *+XAR4[AR0],#1,UNC    ; [CPU_] |1283| 
         00000138 0194 
    1950                      .dwpsn  file "D:/BM1000_v1.1/sw/solutions/instaspin/src/proj_bm1000.c",line 281,column 3,is_stmt
    1951 00000139 D0D4          MOVB      XAR0,#212             ; [CPU_] |281| 
    1952 0000013a 8A96          MOVL      XAR4,*+XAR6[AR0]      ; [CPU_] |281| 
TMS320C2000 Assembler PC v6.2.5 Tue Nov 21 22:57:45 2017

Tools Copyright (c) 1996-2014 Texas Instruments Incorporated
C:\Users\wmj\AppData\Local\Temp\1055210                              PAGE   39

    1953              $C$DW$242       .dwtag  DW_TAG_TI_branch
    1954                      .dwattr $C$DW$242, DW_AT_low_pc(0x00)
    1955                      .dwattr $C$DW$242, DW_AT_name("_FSM_getPortStatus")
    1956                      .dwattr $C$DW$242, DW_AT_TI_call
    1957 0000013b 7640!         LCR       #_FSM_getPortStatus   ; [CPU_] |281| 
         0000013c 0000 
    1958                      ; call occurs [#_FSM_getPortStatus] ; [] |281| 
    1959 0000013d 761F-         MOVW      DP,#_proctrlHandle    ; [CPU_U] 
         0000013e 0000 
    1960                      .dwpsn  file "D:/BM1000_v1.1/sw/solutions/instaspin/src/proj_bm1000.c",line 283,column 3,is_stmt
    1961 0000013f 8A06-         MOVL      XAR4,@_proctrlHandle  ; [CPU_] |283| 
    1962 00000140 D0D4          MOVB      XAR0,#212             ; [CPU_] |283| 
    1963 00000141 8A94          MOVL      XAR4,*+XAR4[AR0]      ; [CPU_] |283| 
    1964              $C$DW$243       .dwtag  DW_TAG_TI_branch
    1965                      .dwattr $C$DW$243, DW_AT_low_pc(0x00)
    1966                      .dwattr $C$DW$243, DW_AT_name("_FSM_ParamInit")
    1967                      .dwattr $C$DW$243, DW_AT_TI_call
    1968 00000142 7640!         LCR       #_FSM_ParamInit       ; [CPU_] |283| 
         00000143 0000 
    1969                      ; call occurs [#_FSM_ParamInit] ; [] |283| 
    1970 00000144 761F-         MOVW      DP,#_proctrlHandle    ; [CPU_U] 
         00000145 0000 
    1971                      .dwpsn  file "D:/BM1000_v1.1/sw/solutions/instaspin/src/proj_bm1000.c",line 286,column 3,is_stmt
    1972 00000146 8A06-         MOVL      XAR4,@_proctrlHandle  ; [CPU_] |286| 
    1973                      .dwpsn  file "D:/BM1000_v1.1/sw/drivers/drvic/motor.h",line 572,column 3,is_stmt
    1974 00000147 D0AC          MOVB      XAR0,#172             ; [CPU_] |572| 
    1975 00000148 8394          MOVL      XAR5,*+XAR4[AR0]      ; [CPU_] |572| 
    1976 00000149 D011          MOVB      XAR0,#17              ; [CPU_] |572| 
    1977 0000014a 9295          MOV       AL,*+XAR5[AR0]        ; [CPU_] |572| 
    1978                      .dwpsn  file "D:/BM1000_v1.1/sw/drivers/drvic/motor.h",line 478,column 3,is_stmt
    1979 0000014b 56B1          MOVB      *+XAR5[6],#1,EQ       ; [CPU_] |478| 
         0000014c 01F5 
    1980                      .dwpsn  file "D:/BM1000_v1.1/sw/drivers/drvic/motor.h",line 480,column 3,is_stmt
    1981 0000014d EC04          BF        $C$L12,EQ             ; [CPU_] |480| 
    1982                      ; branchcc occurs ; [] |480| 
    1983                      .dwpsn  file "D:/BM1000_v1.1/sw/drivers/drvic/motor.h",line 487,column 3,is_stmt
    1984 0000014e D0AC          MOVB      XAR0,#172             ; [CPU_] |487| 
    1985 0000014f 8394          MOVL      XAR5,*+XAR4[AR0]      ; [CPU_] |487| 
    1986 00000150 2BF5          MOV       *+XAR5[6],#0          ; [CPU_] |487| 
    1987 00000151       $C$L12:    
    1988                      .dwpsn  file "D:/BM1000_v1.1/sw/solutions/instaspin/src/proj_bm1000.c",line 295,column 3,is_stmt
    1989 00000151 83A1          MOVL      XAR5,XAR1             ; [CPU_] |295| 
    1990              $C$DW$244       .dwtag  DW_TAG_TI_branch
    1991                      .dwattr $C$DW$244, DW_AT_low_pc(0x00)
    1992                      .dwattr $C$DW$244, DW_AT_name("_PROCTRL_getScaleActors")
    1993                      .dwattr $C$DW$244, DW_AT_TI_call
    1994 00000152 7640!         LCR       #_PROCTRL_getScaleActors ; [CPU_] |295| 
         00000153 0000 
    1995                      ; call occurs [#_PROCTRL_getScaleActors] ; [] |295| 
    1996 00000154 761F-         MOVW      DP,#_ctrlHandle       ; [CPU_U] 
         00000155 0000 
    1997                      .dwpsn  file "D:/BM1000_v1.1/sw/solutions/instaspin/src/proj_bm1000.c",line 298,column 3,is_stmt
    1998 00000156 83A1          MOVL      XAR5,XAR1             ; [CPU_] |298| 
    1999 00000157 8A04-         MOVL      XAR4,@_ctrlHandle     ; [CPU_] |298| 
    2000              $C$DW$245       .dwtag  DW_TAG_TI_branch
TMS320C2000 Assembler PC v6.2.5 Tue Nov 21 22:57:45 2017

Tools Copyright (c) 1996-2014 Texas Instruments Incorporated
C:\Users\wmj\AppData\Local\Temp\1055210                              PAGE   40

    2001                      .dwattr $C$DW$245, DW_AT_low_pc(0x00)
    2002                      .dwattr $C$DW$245, DW_AT_name("_CTRL_setParams")
    2003                      .dwattr $C$DW$245, DW_AT_TI_call
    2004 00000158 7640!         LCR       #_CTRL_setParams      ; [CPU_] |298| 
         00000159 0000 
    2005                      ; call occurs [#_CTRL_setParams] ; [] |298| 
    2006 0000015a 761F-         MOVW      DP,#_proctrlHandle    ; [CPU_U] 
         0000015b 0000 
    2007                      .dwpsn  file "D:/BM1000_v1.1/sw/solutions/instaspin/src/proj_bm1000.c",line 300,column 3,is_stmt
    2008 0000015c 8A06-         MOVL      XAR4,@_proctrlHandle  ; [CPU_] |300| 
    2009              $C$DW$246       .dwtag  DW_TAG_TI_branch
    2010                      .dwattr $C$DW$246, DW_AT_low_pc(0x00)
    2011                      .dwattr $C$DW$246, DW_AT_name("_PROCTRL_setDcBrakeCurrent")
    2012                      .dwattr $C$DW$246, DW_AT_TI_call
    2013 0000015d 7640!         LCR       #_PROCTRL_setDcBrakeCurrent ; [CPU_] |300| 
         0000015e 0000 
    2014                      ; call occurs [#_PROCTRL_setDcBrakeCurrent] ; [] |300| 
    2015 0000015f 761F-         MOVW      DP,#_proctrlHandle    ; [CPU_U] 
         00000160 0000 
    2016                      .dwpsn  file "D:/BM1000_v1.1/sw/solutions/instaspin/src/proj_bm1000.c",line 303,column 3,is_stmt
    2017 00000161 8306-         MOVL      XAR5,@_proctrlHandle  ; [CPU_] |303| 
    2018                      .dwpsn  file "D:/BM1000_v1.1/sw/modules/ctrl/src/32b/ctrl.h",line 1804,column 3,is_stmt
    2019 00000162 D0AC          MOVB      XAR0,#172             ; [CPU_] |1804| 
    2020 00000163 C495          MOVL      XAR6,*+XAR5[AR0]      ; [CPU_] |1804| 
    2021                      .dwpsn  file "D:/BM1000_v1.1/sw/solutions/instaspin/src/proj_bm1000.c",line 303,column 3,is_stmt
    2022 00000164 8A04-         MOVL      XAR4,@_ctrlHandle     ; [CPU_] |303| 
    2023                      .dwpsn  file "D:/BM1000_v1.1/sw/modules/ctrl/src/32b/ctrl.h",line 1804,column 3,is_stmt
    2024 00000165 D022          MOVB      XAR0,#34              ; [CPU_] |1804| 
    2025 00000166 0696          MOVL      ACC,*+XAR6[AR0]       ; [CPU_] |1804| 
    2026 00000167 D0F8          MOVB      XAR0,#248             ; [CPU_] |1804| 
    2027 00000168 1E94          MOVL      *+XAR4[AR0],ACC       ; [CPU_] |1804| 
    2028                      .dwpsn  file "D:/BM1000_v1.1/sw/modules/ctrl/src/32b/ctrl.h",line 1325,column 3,is_stmt
    2029 00000169 D0F4          MOVB      XAR0,#244             ; [CPU_] |1325| 
    2030 0000016a 56BF          MOVB      *+XAR4[AR0],#1,UNC    ; [CPU_] |1325| 
         0000016b 0194 
    2031                      .dwpsn  file "D:/BM1000_v1.1/sw/modules/ctrl/src/32b/ctrl.h",line 1341,column 3,is_stmt
    2032 0000016c D0AC          MOVB      XAR0,#172             ; [CPU_] |1341| 
    2033 0000016d C495          MOVL      XAR6,*+XAR5[AR0]      ; [CPU_] |1341| 
    2034 0000016e D0F5          MOVB      XAR0,#245             ; [CPU_] |1341| 
    2035 0000016f 92F6          MOV       AL,*+XAR6[6]          ; [CPU_] |1341| 
    2036 00000170 9694          MOV       *+XAR4[AR0],AL        ; [CPU_] |1341| 
    2037                      .dwpsn  file "D:/BM1000_v1.1/sw/solutions/instaspin/src/proj_bm1000.c",line 317,column 3,is_stmt
    2038 00000171 D018          MOVB      XAR0,#24              ; [CPU_] |317| 
    2039 00000172 8A94          MOVL      XAR4,*+XAR4[AR0]      ; [CPU_] |317| 
    2040 00000173 D0AC          MOVB      XAR0,#172             ; [CPU_] |317| 
    2041 00000174 8395          MOVL      XAR5,*+XAR5[AR0]      ; [CPU_] |317| 
    2042 00000175 92ED          MOV       AL,*+XAR5[5]          ; [CPU_] |317| 
    2043              $C$DW$247       .dwtag  DW_TAG_TI_branch
    2044                      .dwattr $C$DW$247, DW_AT_low_pc(0x00)
    2045                      .dwattr $C$DW$247, DW_AT_name("_EST_setFlag_enableRsRecalc")
    2046                      .dwattr $C$DW$247, DW_AT_TI_call
    2047 00000176 7640!         LCR       #_EST_setFlag_enableRsRecalc ; [CPU_] |317| 
         00000177 0000 
    2048                      ; call occurs [#_EST_setFlag_enableRsRecalc] ; [] |317| 
    2049 00000178 761F-         MOVW      DP,#_proctrlHandle    ; [CPU_U] 
TMS320C2000 Assembler PC v6.2.5 Tue Nov 21 22:57:45 2017

Tools Copyright (c) 1996-2014 Texas Instruments Incorporated
C:\Users\wmj\AppData\Local\Temp\1055210                              PAGE   41

         00000179 0000 
    2050                      .dwpsn  file "D:/BM1000_v1.1/sw/solutions/instaspin/src/proj_bm1000.c",line 320,column 3,is_stmt
    2051 0000017a C406-         MOVL      XAR6,@_proctrlHandle  ; [CPU_] |320| 
    2052                      .dwpsn  file "D:/BM1000_v1.1/sw/modules/ctrl/src/32b/ctrl.h",line 1312,column 3,is_stmt
    2053 0000017b D0AC          MOVB      XAR0,#172             ; [CPU_] |1312| 
    2054 0000017c 8A96          MOVL      XAR4,*+XAR6[AR0]      ; [CPU_] |1312| 
    2055 0000017d 92FC          MOV       AL,*+XAR4[7]          ; [CPU_] |1312| 
    2056 0000017e 8A04-         MOVL      XAR4,@_ctrlHandle     ; [CPU_] |1312| 
    2057 0000017f D0F3          MOVB      XAR0,#243             ; [CPU_] |1312| 
    2058 00000180 9694          MOV       *+XAR4[AR0],AL        ; [CPU_] |1312| 
    2059 00000181       $C$L13:    
    2060                      .dwpsn  file "D:/BM1000_v1.1/sw/drivers/drvic/motor.h",line 532,column 3,is_stmt
    2061 00000181 D0AC          MOVB      XAR0,#172             ; [CPU_] |532| 
    2062 00000182 C596          MOVL      XAR7,*+XAR6[AR0]      ; [CPU_] |532| 
    2063 00000183 92C7          MOV       AL,*+XAR7[0]          ; [CPU_] |532| 
    2064 00000184 EC97          BF        $C$L10,EQ             ; [CPU_] |532| 
    2065                      ; branchcc occurs ; [] |532| 
    2066                      .dwpsn  file "D:/BM1000_v1.1/sw/solutions/instaspin/src/proj_bm1000.c",line 325,column 5,is_stmt
    2067 00000185 D03A          MOVB      XAR0,#58              ; [CPU_] |325| 
    2068 00000186 8A96          MOVL      XAR4,*+XAR6[AR0]      ; [CPU_] |325| 
    2069              $C$DW$248       .dwtag  DW_TAG_TI_branch
    2070                      .dwattr $C$DW$248, DW_AT_low_pc(0x00)
    2071                      .dwattr $C$DW$248, DW_AT_name("_MB_Poll")
    2072                      .dwattr $C$DW$248, DW_AT_TI_call
    2073 00000187 7640!         LCR       #_MB_Poll             ; [CPU_] |325| 
         00000188 0000 
    2074                      ; call occurs [#_MB_Poll] ; [] |325| 
    2075 00000189 761F-         MOVW      DP,#_proctrlHandle    ; [CPU_U] 
         0000018a 0000 
    2076                      .dwpsn  file "D:/BM1000_v1.1/sw/solutions/instaspin/src/proj_bm1000.c",line 326,column 5,is_stmt
    2077 0000018b 83A1          MOVL      XAR5,XAR1             ; [CPU_] |326| 
    2078 0000018c 8A06-         MOVL      XAR4,@_proctrlHandle  ; [CPU_] |326| 
    2079              $C$DW$249       .dwtag  DW_TAG_TI_branch
    2080                      .dwattr $C$DW$249, DW_AT_low_pc(0x00)
    2081                      .dwattr $C$DW$249, DW_AT_name("_PROCTRL_MainLoop")
    2082                      .dwattr $C$DW$249, DW_AT_TI_call
    2083 0000018d 7640!         LCR       #_PROCTRL_MainLoop    ; [CPU_] |326| 
         0000018e 0000 
    2084                      ; call occurs [#_PROCTRL_MainLoop] ; [] |326| 
    2085 0000018f 761F-         MOVW      DP,#_proctrlHandle    ; [CPU_U] 
         00000190 0000 
    2086 00000191 C406-         MOVL      XAR6,@_proctrlHandle  ; [CPU_] |326| 
    2087 00000192 6FEF          B         $C$L13,UNC            ; [CPU_] |326| 
    2088                      ; branch occurs ; [] |326| 
    2089 00000193       $C$L14:    
    2090                      .dwpsn  file "D:/BM1000_v1.1/sw/solutions/instaspin/src/proj_bm1000.c",line 266,column 6,is_stmt
    2091 00000193 D03A          MOVB      XAR0,#58              ; [CPU_] |266| 
    2092 00000194 FF69          SPM       #0                    ; [CPU_] 
    2093 00000195 8A96          MOVL      XAR4,*+XAR6[AR0]      ; [CPU_] |266| 
    2094              $C$DW$250       .dwtag  DW_TAG_TI_branch
    2095                      .dwattr $C$DW$250, DW_AT_low_pc(0x00)
    2096                      .dwattr $C$DW$250, DW_AT_name("_MB_Poll")
    2097                      .dwattr $C$DW$250, DW_AT_TI_call
    2098 00000196 7640!         LCR       #_MB_Poll             ; [CPU_] |266| 
         00000197 0000 
TMS320C2000 Assembler PC v6.2.5 Tue Nov 21 22:57:45 2017

Tools Copyright (c) 1996-2014 Texas Instruments Incorporated
C:\Users\wmj\AppData\Local\Temp\1055210                              PAGE   42

    2099                      ; call occurs [#_MB_Poll] ; [] |266| 
    2100 00000198 761F-         MOVW      DP,#_proctrlHandle    ; [CPU_U] 
         00000199 0000 
    2101                      .dwpsn  file "D:/BM1000_v1.1/sw/solutions/instaspin/src/proj_bm1000.c",line 268,column 6,is_stmt
    2102 0000019a 8A06-         MOVL      XAR4,@_proctrlHandle  ; [CPU_] |268| 
    2103              $C$DW$251       .dwtag  DW_TAG_TI_branch
    2104                      .dwattr $C$DW$251, DW_AT_low_pc(0x00)
    2105                      .dwattr $C$DW$251, DW_AT_name("_PROCTRL_CheckMotorError")
    2106                      .dwattr $C$DW$251, DW_AT_TI_call
    2107 0000019b 7640!         LCR       #_PROCTRL_CheckMotorError ; [CPU_] |268| 
         0000019c 0000 
    2108                      ; call occurs [#_PROCTRL_CheckMotorError] ; [] |268| 
    2109 0000019d 761F-         MOVW      DP,#_proctrlHandle    ; [CPU_U] 
         0000019e 0000 
    2110 0000019f C406-         MOVL      XAR6,@_proctrlHandle  ; [CPU_] |268| 
    2111 000001a0 6F90          B         $C$L11,UNC            ; [CPU_] |268| 
    2112                      ; branch occurs ; [] |268| 
    2113                      .dwattr $C$DW$193, DW_AT_TI_end_file("D:/BM1000_v1.1/sw/solutions/instaspin/src/proj_bm1000.c")
    2114                      .dwattr $C$DW$193, DW_AT_TI_end_line(0x154)
    2115                      .dwattr $C$DW$193, DW_AT_TI_end_column(0x01)
    2116                      .dwendentry
    2117                      .dwendtag $C$DW$193
    2118              
    2119 00000000               .sect   ".text:retain"
    2120                      .retain
    2121                      .retainrefs
    2122                      .global _UART_TxReadyISR
    2123              
    2124              $C$DW$252       .dwtag  DW_TAG_subprogram, DW_AT_name("UART_TxReadyISR")
    2125                      .dwattr $C$DW$252, DW_AT_low_pc(_UART_TxReadyISR)
    2126                      .dwattr $C$DW$252, DW_AT_high_pc(0x00)
    2127                      .dwattr $C$DW$252, DW_AT_TI_symbol_name("_UART_TxReadyISR")
    2128                      .dwattr $C$DW$252, DW_AT_external
    2129                      .dwattr $C$DW$252, DW_AT_TI_begin_file("D:/BM1000_v1.1/sw/solutions/instaspin/src/proj_bm1000.c")
    2130                      .dwattr $C$DW$252, DW_AT_TI_begin_line(0x1c2)
    2131                      .dwattr $C$DW$252, DW_AT_TI_begin_column(0x10)
    2132                      .dwattr $C$DW$252, DW_AT_TI_interrupt
    2133                      .dwattr $C$DW$252, DW_AT_TI_max_frame_size(-14)
    2134                      .dwpsn  file "D:/BM1000_v1.1/sw/solutions/instaspin/src/proj_bm1000.c",line 451,column 1,is_stmt,addr
    2135              
    2136                      .dwfde $C$DW$CIE, _UART_TxReadyISR
    2137              
    2138              ;***************************************************************
    2139              ;* FNAME: _UART_TxReadyISR              FR SIZE:  12           *
    2140              ;*                                                             *
    2141              ;* FUNCTION ENVIRONMENT                                        *
    2142              ;*                                                             *
    2143              ;* FUNCTION PROPERTIES                                         *
    2144              ;*                            0 Parameter,  0 Auto, 12 SOE     *
    2145              ;***************************************************************
    2146              
    2147 00000000       _UART_TxReadyISR:
    2148                      .dwcfi  cfa_offset, -2
    2149                      .dwcfi  save_reg_to_mem, 26, 0
    2150                      .dwcfi  save_reg_to_reg, 78, 26
TMS320C2000 Assembler PC v6.2.5 Tue Nov 21 22:57:45 2017

Tools Copyright (c) 1996-2014 Texas Instruments Incorporated
C:\Users\wmj\AppData\Local\Temp\1055210                              PAGE   43

    2151 00000000 761B          ASP       ; [CPU_] 
    2152 00000001 0005          PUSH      AR1H:AR0H             ; [CPU_] 
    2153                      .dwcfi  save_reg_to_mem, 5, 2
    2154                      .dwcfi  save_reg_to_mem, 7, 3
    2155                      .dwcfi  cfa_offset, -4
    2156 00000002 FF69          SPM       0                     ; [CPU_] 
    2157 00000003 ABBD          MOVL      *SP++,XT              ; [CPU_] 
    2158                      .dwcfi  save_reg_to_mem, 21, 4
    2159                      .dwcfi  save_reg_to_mem, 22, 5
    2160                      .dwcfi  cfa_offset, -6
    2161 00000004 A8BD          MOVL      *SP++,XAR4            ; [CPU_] 
    2162                      .dwcfi  save_reg_to_mem, 12, 6
    2163                      .dwcfi  save_reg_to_mem, 13, 7
    2164                      .dwcfi  cfa_offset, -8
    2165 00000005 A0BD          MOVL      *SP++,XAR5            ; [CPU_] 
    2166                      .dwcfi  save_reg_to_mem, 14, 8
    2167                      .dwcfi  save_reg_to_mem, 15, 9
    2168                      .dwcfi  cfa_offset, -10
    2169 00000006 C2BD          MOVL      *SP++,XAR6            ; [CPU_] 
    2170                      .dwcfi  save_reg_to_mem, 16, 10
    2171                      .dwcfi  save_reg_to_mem, 17, 11
    2172                      .dwcfi  cfa_offset, -12
    2173 00000007 C3BD          MOVL      *SP++,XAR7            ; [CPU_] 
    2174                      .dwcfi  save_reg_to_mem, 18, 12
    2175                      .dwcfi  save_reg_to_mem, 19, 13
    2176                      .dwcfi  cfa_offset, -14
    2177 00000008 2942          CLRC      PAGE0,OVM             ; [CPU_] 
    2178 00000009 5616          CLRC      AMODE                 ; [CPU_] 
    2179 0000000a 761F-         MOVW      DP,#_proctrlHandle    ; [CPU_U] 
         0000000b 0000 
    2180                      .dwpsn  file "D:/BM1000_v1.1/sw/solutions/instaspin/src/proj_bm1000.c",line 452,column 5,is_stmt
    2181 0000000c 8A06-         MOVL      XAR4,@_proctrlHandle  ; [CPU_] |452| 
    2182 0000000d D03A          MOVB      XAR0,#58              ; [CPU_] |452| 
    2183 0000000e 8A94          MOVL      XAR4,*+XAR4[AR0]      ; [CPU_] |452| 
    2184              $C$DW$253       .dwtag  DW_TAG_TI_branch
    2185                      .dwattr $C$DW$253, DW_AT_low_pc(0x00)
    2186                      .dwattr $C$DW$253, DW_AT_name("_MB_RTUTransmitFSM")
    2187                      .dwattr $C$DW$253, DW_AT_TI_call
    2188 0000000f 7640!         LCR       #_MB_RTUTransmitFSM   ; [CPU_] |452| 
         00000010 0000 
    2189                      ; call occurs [#_MB_RTUTransmitFSM] ; [] |452| 
    2190 00000011 761F-         MOVW      DP,#_halHandle        ; [CPU_U] 
         00000012 0000 
    2191                      .dwpsn  file "D:/BM1000_v1.1/sw/solutions/instaspin/src/proj_bm1000.c",line 454,column 2,is_stmt
    2192 00000013 8A02-         MOVL      XAR4,@_halHandle      ; [CPU_] |454| 
    2193 00000014 D094          MOVB      XAR0,#148             ; [CPU_] |454| 
    2194 00000015 8A94          MOVL      XAR4,*+XAR4[AR0]      ; [CPU_] |454| 
    2195              $C$DW$254       .dwtag  DW_TAG_TI_branch
    2196                      .dwattr $C$DW$254, DW_AT_low_pc(0x00)
    2197                      .dwattr $C$DW$254, DW_AT_name("_SCI_clearTxFifoInt")
    2198                      .dwattr $C$DW$254, DW_AT_TI_call
    2199 00000016 7640!         LCR       #_SCI_clearTxFifoInt  ; [CPU_] |454| 
         00000017 0000 
    2200                      ; call occurs [#_SCI_clearTxFifoInt] ; [] |454| 
    2201 00000018 761F-         MOVW      DP,#_halHandle        ; [CPU_U] 
TMS320C2000 Assembler PC v6.2.5 Tue Nov 21 22:57:45 2017

Tools Copyright (c) 1996-2014 Texas Instruments Incorporated
C:\Users\wmj\AppData\Local\Temp\1055210                              PAGE   44

         00000019 0000 
    2202                      .dwpsn  file "D:/BM1000_v1.1/sw/drivers/pie/src/32b/f28x/f2802x/pie.h",line 757,column 5,is_stmt
    2203 0000001a 8A02-         MOVL      XAR4,@_halHandle      ; [CPU_] |757| 
    2204 0000001b D078          MOVB      XAR0,#120             ; [CPU_] |757| 
    2205 0000001c 8A94          MOVL      XAR4,*+XAR4[AR0]      ; [CPU_] |757| 
    2206 0000001d 28CC          MOV       *+XAR4[1],#256        ; [CPU_] |757| 
         0000001e 0100 
    2207 0000001f C5BE          MOVL      XAR7,*--SP            ; [CPU_] 
    2208                      .dwcfi  cfa_offset, -12
    2209                      .dwcfi  restore_reg, 18
    2210 00000020 C4BE          MOVL      XAR6,*--SP            ; [CPU_] 
    2211                      .dwcfi  cfa_offset, -10
    2212                      .dwcfi  restore_reg, 16
    2213 00000021 83BE          MOVL      XAR5,*--SP            ; [CPU_] 
    2214                      .dwcfi  cfa_offset, -8
    2215                      .dwcfi  restore_reg, 14
    2216 00000022 8ABE          MOVL      XAR4,*--SP            ; [CPU_] 
    2217                      .dwcfi  cfa_offset, -6
    2218                      .dwcfi  restore_reg, 12
    2219 00000023 87BE          MOVL      XT,*--SP              ; [CPU_] 
    2220                      .dwcfi  cfa_offset, -4
    2221                      .dwcfi  restore_reg, 22
    2222                      .dwcfi  restore_reg, 21
    2223 00000024 0003          POP       AR1H:AR0H             ; [CPU_] 
    2224                      .dwcfi  cfa_offset, -2
    2225                      .dwcfi  restore_reg, 5
    2226                      .dwcfi  restore_reg, 7
    2227 00000025 7617          NASP      ; [CPU_] 
    2228              $C$DW$255       .dwtag  DW_TAG_TI_branch
    2229                      .dwattr $C$DW$255, DW_AT_low_pc(0x00)
    2230                      .dwattr $C$DW$255, DW_AT_TI_return
    2231 00000026 7602          IRET      ; [CPU_] 
    2232                      ; return occurs ; [] 
    2233                      .dwattr $C$DW$252, DW_AT_TI_end_file("D:/BM1000_v1.1/sw/solutions/instaspin/src/proj_bm1000.c")
    2234                      .dwattr $C$DW$252, DW_AT_TI_end_line(0x1c9)
    2235                      .dwattr $C$DW$252, DW_AT_TI_end_column(0x01)
    2236                      .dwendentry
    2237                      .dwendtag $C$DW$252
    2238              
    2239 00000027               .sect   ".text:retain"
    2240                      .retain
    2241                      .retainrefs
    2242                      .global _UART_RxISR
    2243              
    2244              $C$DW$256       .dwtag  DW_TAG_subprogram, DW_AT_name("UART_RxISR")
    2245                      .dwattr $C$DW$256, DW_AT_low_pc(_UART_RxISR)
    2246                      .dwattr $C$DW$256, DW_AT_high_pc(0x00)
    2247                      .dwattr $C$DW$256, DW_AT_TI_symbol_name("_UART_RxISR")
    2248                      .dwattr $C$DW$256, DW_AT_external
    2249                      .dwattr $C$DW$256, DW_AT_TI_begin_file("D:/BM1000_v1.1/sw/solutions/instaspin/src/proj_bm1000.c")
    2250                      .dwattr $C$DW$256, DW_AT_TI_begin_line(0x1cb)
    2251                      .dwattr $C$DW$256, DW_AT_TI_begin_column(0x10)
    2252                      .dwattr $C$DW$256, DW_AT_TI_interrupt
    2253                      .dwattr $C$DW$256, DW_AT_TI_max_frame_size(-14)
    2254                      .dwpsn  file "D:/BM1000_v1.1/sw/solutions/instaspin/src/proj_bm1000.c",line 460,column 1,is_stmt,addr
TMS320C2000 Assembler PC v6.2.5 Tue Nov 21 22:57:45 2017

Tools Copyright (c) 1996-2014 Texas Instruments Incorporated
C:\Users\wmj\AppData\Local\Temp\1055210                              PAGE   45

    2255              
    2256                      .dwfde $C$DW$CIE, _UART_RxISR
    2257              
    2258              ;***************************************************************
    2259              ;* FNAME: _UART_RxISR                   FR SIZE:  12           *
    2260              ;*                                                             *
    2261              ;* FUNCTION ENVIRONMENT                                        *
    2262              ;*                                                             *
    2263              ;* FUNCTION PROPERTIES                                         *
    2264              ;*                            0 Parameter,  0 Auto, 12 SOE     *
    2265              ;***************************************************************
    2266              
    2267 00000027       _UART_RxISR:
    2268                      .dwcfi  cfa_offset, -2
    2269                      .dwcfi  save_reg_to_mem, 26, 0
    2270                      .dwcfi  save_reg_to_reg, 78, 26
    2271 00000027 761B          ASP       ; [CPU_] 
    2272 00000028 0005          PUSH      AR1H:AR0H             ; [CPU_] 
    2273                      .dwcfi  save_reg_to_mem, 5, 2
    2274                      .dwcfi  save_reg_to_mem, 7, 3
    2275                      .dwcfi  cfa_offset, -4
    2276 00000029 FF69          SPM       0                     ; [CPU_] 
    2277 0000002a ABBD          MOVL      *SP++,XT              ; [CPU_] 
    2278                      .dwcfi  save_reg_to_mem, 21, 4
    2279                      .dwcfi  save_reg_to_mem, 22, 5
    2280                      .dwcfi  cfa_offset, -6
    2281 0000002b A8BD          MOVL      *SP++,XAR4            ; [CPU_] 
    2282                      .dwcfi  save_reg_to_mem, 12, 6
    2283                      .dwcfi  save_reg_to_mem, 13, 7
    2284                      .dwcfi  cfa_offset, -8
    2285 0000002c A0BD          MOVL      *SP++,XAR5            ; [CPU_] 
    2286                      .dwcfi  save_reg_to_mem, 14, 8
    2287                      .dwcfi  save_reg_to_mem, 15, 9
    2288                      .dwcfi  cfa_offset, -10
    2289 0000002d C2BD          MOVL      *SP++,XAR6            ; [CPU_] 
    2290                      .dwcfi  save_reg_to_mem, 16, 10
    2291                      .dwcfi  save_reg_to_mem, 17, 11
    2292                      .dwcfi  cfa_offset, -12
    2293 0000002e C3BD          MOVL      *SP++,XAR7            ; [CPU_] 
    2294                      .dwcfi  save_reg_to_mem, 18, 12
    2295                      .dwcfi  save_reg_to_mem, 19, 13
    2296                      .dwcfi  cfa_offset, -14
    2297 0000002f 2942          CLRC      PAGE0,OVM             ; [CPU_] 
    2298 00000030 5616          CLRC      AMODE                 ; [CPU_] 
    2299 00000031 761F-         MOVW      DP,#_proctrlHandle    ; [CPU_U] 
         00000032 0000 
    2300                      .dwpsn  file "D:/BM1000_v1.1/sw/solutions/instaspin/src/proj_bm1000.c",line 461,column 5,is_stmt
    2301 00000033 8A06-         MOVL      XAR4,@_proctrlHandle  ; [CPU_] |461| 
    2302 00000034 D03A          MOVB      XAR0,#58              ; [CPU_] |461| 
    2303 00000035 8A94          MOVL      XAR4,*+XAR4[AR0]      ; [CPU_] |461| 
    2304              $C$DW$257       .dwtag  DW_TAG_TI_branch
    2305                      .dwattr $C$DW$257, DW_AT_low_pc(0x00)
    2306                      .dwattr $C$DW$257, DW_AT_name("_MB_RTUReceiveFSM")
    2307                      .dwattr $C$DW$257, DW_AT_TI_call
    2308 00000036 7640!         LCR       #_MB_RTUReceiveFSM    ; [CPU_] |461| 
TMS320C2000 Assembler PC v6.2.5 Tue Nov 21 22:57:45 2017

Tools Copyright (c) 1996-2014 Texas Instruments Incorporated
C:\Users\wmj\AppData\Local\Temp\1055210                              PAGE   46

         00000037 0000 
    2309                      ; call occurs [#_MB_RTUReceiveFSM] ; [] |461| 
    2310 00000038 761F-         MOVW      DP,#_halHandle        ; [CPU_U] 
         00000039 0000 
    2311                      .dwpsn  file "D:/BM1000_v1.1/sw/solutions/instaspin/src/proj_bm1000.c",line 463,column 2,is_stmt
    2312 0000003a 8A02-         MOVL      XAR4,@_halHandle      ; [CPU_] |463| 
    2313 0000003b D094          MOVB      XAR0,#148             ; [CPU_] |463| 
    2314 0000003c 8A94          MOVL      XAR4,*+XAR4[AR0]      ; [CPU_] |463| 
    2315              $C$DW$258       .dwtag  DW_TAG_TI_branch
    2316                      .dwattr $C$DW$258, DW_AT_low_pc(0x00)
    2317                      .dwattr $C$DW$258, DW_AT_name("_SCI_clearRxFifoOvf")
    2318                      .dwattr $C$DW$258, DW_AT_TI_call
    2319 0000003d 7640!         LCR       #_SCI_clearRxFifoOvf  ; [CPU_] |463| 
         0000003e 0000 
    2320                      ; call occurs [#_SCI_clearRxFifoOvf] ; [] |463| 
    2321 0000003f 761F-         MOVW      DP,#_halHandle        ; [CPU_U] 
         00000040 0000 
    2322                      .dwpsn  file "D:/BM1000_v1.1/sw/solutions/instaspin/src/proj_bm1000.c",line 464,column 2,is_stmt
    2323 00000041 8A02-         MOVL      XAR4,@_halHandle      ; [CPU_] |464| 
    2324 00000042 D094          MOVB      XAR0,#148             ; [CPU_] |464| 
    2325 00000043 8A94          MOVL      XAR4,*+XAR4[AR0]      ; [CPU_] |464| 
    2326              $C$DW$259       .dwtag  DW_TAG_TI_branch
    2327                      .dwattr $C$DW$259, DW_AT_low_pc(0x00)
    2328                      .dwattr $C$DW$259, DW_AT_name("_SCI_clearRxFifoInt")
    2329                      .dwattr $C$DW$259, DW_AT_TI_call
    2330 00000044 7640!         LCR       #_SCI_clearRxFifoInt  ; [CPU_] |464| 
         00000045 0000 
    2331                      ; call occurs [#_SCI_clearRxFifoInt] ; [] |464| 
    2332 00000046 761F-         MOVW      DP,#_halHandle        ; [CPU_U] 
         00000047 0000 
    2333                      .dwpsn  file "D:/BM1000_v1.1/sw/drivers/pie/src/32b/f28x/f2802x/pie.h",line 757,column 5,is_stmt
    2334 00000048 8A02-         MOVL      XAR4,@_halHandle      ; [CPU_] |757| 
    2335 00000049 D078          MOVB      XAR0,#120             ; [CPU_] |757| 
    2336 0000004a 8A94          MOVL      XAR4,*+XAR4[AR0]      ; [CPU_] |757| 
    2337 0000004b 28CC          MOV       *+XAR4[1],#256        ; [CPU_] |757| 
         0000004c 0100 
    2338 0000004d C5BE          MOVL      XAR7,*--SP            ; [CPU_] 
    2339                      .dwcfi  cfa_offset, -12
    2340                      .dwcfi  restore_reg, 18
    2341 0000004e C4BE          MOVL      XAR6,*--SP            ; [CPU_] 
    2342                      .dwcfi  cfa_offset, -10
    2343                      .dwcfi  restore_reg, 16
    2344 0000004f 83BE          MOVL      XAR5,*--SP            ; [CPU_] 
    2345                      .dwcfi  cfa_offset, -8
    2346                      .dwcfi  restore_reg, 14
    2347 00000050 8ABE          MOVL      XAR4,*--SP            ; [CPU_] 
    2348                      .dwcfi  cfa_offset, -6
    2349                      .dwcfi  restore_reg, 12
    2350 00000051 87BE          MOVL      XT,*--SP              ; [CPU_] 
    2351                      .dwcfi  cfa_offset, -4
    2352                      .dwcfi  restore_reg, 22
    2353                      .dwcfi  restore_reg, 21
    2354 00000052 0003          POP       AR1H:AR0H             ; [CPU_] 
    2355                      .dwcfi  cfa_offset, -2
    2356                      .dwcfi  restore_reg, 5
TMS320C2000 Assembler PC v6.2.5 Tue Nov 21 22:57:45 2017

Tools Copyright (c) 1996-2014 Texas Instruments Incorporated
C:\Users\wmj\AppData\Local\Temp\1055210                              PAGE   47

    2357                      .dwcfi  restore_reg, 7
    2358 00000053 7617          NASP      ; [CPU_] 
    2359              $C$DW$260       .dwtag  DW_TAG_TI_branch
    2360                      .dwattr $C$DW$260, DW_AT_low_pc(0x00)
    2361                      .dwattr $C$DW$260, DW_AT_TI_return
    2362 00000054 7602          IRET      ; [CPU_] 
    2363                      ; return occurs ; [] 
    2364                      .dwattr $C$DW$256, DW_AT_TI_end_file("D:/BM1000_v1.1/sw/solutions/instaspin/src/proj_bm1000.c")
    2365                      .dwattr $C$DW$256, DW_AT_TI_end_line(0x1d3)
    2366                      .dwattr $C$DW$256, DW_AT_TI_end_column(0x01)
    2367                      .dwendentry
    2368                      .dwendtag $C$DW$256
    2369              
    2370 00000055               .sect   ".text:retain"
    2371                      .retain
    2372                      .retainrefs
    2373                      .global _Timer1ISR
    2374              
    2375              $C$DW$261       .dwtag  DW_TAG_subprogram, DW_AT_name("Timer1ISR")
    2376                      .dwattr $C$DW$261, DW_AT_low_pc(_Timer1ISR)
    2377                      .dwattr $C$DW$261, DW_AT_high_pc(0x00)
    2378                      .dwattr $C$DW$261, DW_AT_TI_symbol_name("_Timer1ISR")
    2379                      .dwattr $C$DW$261, DW_AT_external
    2380                      .dwattr $C$DW$261, DW_AT_TI_begin_file("D:/BM1000_v1.1/sw/solutions/instaspin/src/proj_bm1000.c")
    2381                      .dwattr $C$DW$261, DW_AT_TI_begin_line(0x1b9)
    2382                      .dwattr $C$DW$261, DW_AT_TI_begin_column(0x10)
    2383                      .dwattr $C$DW$261, DW_AT_TI_interrupt
    2384                      .dwattr $C$DW$261, DW_AT_TI_max_frame_size(-14)
    2385                      .dwpsn  file "D:/BM1000_v1.1/sw/solutions/instaspin/src/proj_bm1000.c",line 442,column 1,is_stmt,addr
    2386              
    2387                      .dwfde $C$DW$CIE, _Timer1ISR
    2388              
    2389              ;***************************************************************
    2390              ;* FNAME: _Timer1ISR                    FR SIZE:  12           *
    2391              ;*                                                             *
    2392              ;* FUNCTION ENVIRONMENT                                        *
    2393              ;*                                                             *
    2394              ;* FUNCTION PROPERTIES                                         *
    2395              ;*                            0 Parameter,  0 Auto, 12 SOE     *
    2396              ;***************************************************************
    2397              
    2398 00000055       _Timer1ISR:
    2399                      .dwcfi  cfa_offset, -2
    2400                      .dwcfi  save_reg_to_mem, 26, 0
    2401                      .dwcfi  save_reg_to_reg, 78, 26
    2402 00000055 761B          ASP       ; [CPU_] 
    2403 00000056 0005          PUSH      AR1H:AR0H             ; [CPU_] 
    2404                      .dwcfi  save_reg_to_mem, 5, 2
    2405                      .dwcfi  save_reg_to_mem, 7, 3
    2406                      .dwcfi  cfa_offset, -4
    2407 00000057 FF69          SPM       0                     ; [CPU_] 
    2408 00000058 ABBD          MOVL      *SP++,XT              ; [CPU_] 
    2409                      .dwcfi  save_reg_to_mem, 21, 4
    2410                      .dwcfi  save_reg_to_mem, 22, 5
    2411                      .dwcfi  cfa_offset, -6
TMS320C2000 Assembler PC v6.2.5 Tue Nov 21 22:57:45 2017

Tools Copyright (c) 1996-2014 Texas Instruments Incorporated
C:\Users\wmj\AppData\Local\Temp\1055210                              PAGE   48

    2412 00000059 A8BD          MOVL      *SP++,XAR4            ; [CPU_] 
    2413                      .dwcfi  save_reg_to_mem, 12, 6
    2414                      .dwcfi  save_reg_to_mem, 13, 7
    2415                      .dwcfi  cfa_offset, -8
    2416 0000005a A0BD          MOVL      *SP++,XAR5            ; [CPU_] 
    2417                      .dwcfi  save_reg_to_mem, 14, 8
    2418                      .dwcfi  save_reg_to_mem, 15, 9
    2419                      .dwcfi  cfa_offset, -10
    2420 0000005b C2BD          MOVL      *SP++,XAR6            ; [CPU_] 
    2421                      .dwcfi  save_reg_to_mem, 16, 10
    2422                      .dwcfi  save_reg_to_mem, 17, 11
    2423                      .dwcfi  cfa_offset, -12
    2424 0000005c C3BD          MOVL      *SP++,XAR7            ; [CPU_] 
    2425                      .dwcfi  save_reg_to_mem, 18, 12
    2426                      .dwcfi  save_reg_to_mem, 19, 13
    2427                      .dwcfi  cfa_offset, -14
    2428 0000005d 2942          CLRC      PAGE0,OVM             ; [CPU_] 
    2429 0000005e 5616          CLRC      AMODE                 ; [CPU_] 
    2430 0000005f 761F-         MOVW      DP,#_proctrlHandle    ; [CPU_U] 
         00000060 0000 
    2431                      .dwpsn  file "D:/BM1000_v1.1/sw/solutions/instaspin/src/proj_bm1000.c",line 444,column 5,is_stmt
    2432 00000061 8A06-         MOVL      XAR4,@_proctrlHandle  ; [CPU_] |444| 
    2433 00000062 D03A          MOVB      XAR0,#58              ; [CPU_] |444| 
    2434 00000063 8A94          MOVL      XAR4,*+XAR4[AR0]      ; [CPU_] |444| 
    2435              $C$DW$262       .dwtag  DW_TAG_TI_branch
    2436                      .dwattr $C$DW$262, DW_AT_low_pc(0x00)
    2437                      .dwattr $C$DW$262, DW_AT_name("_MB_RTUTimerFSM")
    2438                      .dwattr $C$DW$262, DW_AT_TI_call
    2439 00000064 7640!         LCR       #_MB_RTUTimerFSM      ; [CPU_] |444| 
         00000065 0000 
    2440                      ; call occurs [#_MB_RTUTimerFSM] ; [] |444| 
    2441 00000066 761F-         MOVW      DP,#_halHandle        ; [CPU_U] 
         00000067 0000 
    2442                      .dwpsn  file "D:/BM1000_v1.1/sw/solutions/instaspin/src/proj_bm1000.c",line 445,column 2,is_stmt
    2443 00000068 8A02-         MOVL      XAR4,@_halHandle      ; [CPU_] |445| 
    2444 00000069 D08C          MOVB      XAR0,#140             ; [CPU_] |445| 
    2445 0000006a 8A94          MOVL      XAR4,*+XAR4[AR0]      ; [CPU_] |445| 
    2446              $C$DW$263       .dwtag  DW_TAG_TI_branch
    2447                      .dwattr $C$DW$263, DW_AT_low_pc(0x00)
    2448                      .dwattr $C$DW$263, DW_AT_name("_TIMER_clearFlag")
    2449                      .dwattr $C$DW$263, DW_AT_TI_call
    2450 0000006b 7640!         LCR       #_TIMER_clearFlag     ; [CPU_] |445| 
         0000006c 0000 
    2451                      ; call occurs [#_TIMER_clearFlag] ; [] |445| 
    2452 0000006d C5BE          MOVL      XAR7,*--SP            ; [CPU_] 
    2453                      .dwcfi  cfa_offset, -12
    2454                      .dwcfi  restore_reg, 18
    2455 0000006e C4BE          MOVL      XAR6,*--SP            ; [CPU_] 
    2456                      .dwcfi  cfa_offset, -10
    2457                      .dwcfi  restore_reg, 16
    2458 0000006f 83BE          MOVL      XAR5,*--SP            ; [CPU_] 
    2459                      .dwcfi  cfa_offset, -8
    2460                      .dwcfi  restore_reg, 14
    2461 00000070 8ABE          MOVL      XAR4,*--SP            ; [CPU_] 
    2462                      .dwcfi  cfa_offset, -6
TMS320C2000 Assembler PC v6.2.5 Tue Nov 21 22:57:45 2017

Tools Copyright (c) 1996-2014 Texas Instruments Incorporated
C:\Users\wmj\AppData\Local\Temp\1055210                              PAGE   49

    2463                      .dwcfi  restore_reg, 12
    2464 00000071 87BE          MOVL      XT,*--SP              ; [CPU_] 
    2465                      .dwcfi  cfa_offset, -4
    2466                      .dwcfi  restore_reg, 22
    2467                      .dwcfi  restore_reg, 21
    2468 00000072 0003          POP       AR1H:AR0H             ; [CPU_] 
    2469                      .dwcfi  cfa_offset, -2
    2470                      .dwcfi  restore_reg, 5
    2471                      .dwcfi  restore_reg, 7
    2472 00000073 7617          NASP      ; [CPU_] 
    2473              $C$DW$264       .dwtag  DW_TAG_TI_branch
    2474                      .dwattr $C$DW$264, DW_AT_low_pc(0x00)
    2475                      .dwattr $C$DW$264, DW_AT_TI_return
    2476 00000074 7602          IRET      ; [CPU_] 
    2477                      ; return occurs ; [] 
    2478                      .dwattr $C$DW$261, DW_AT_TI_end_file("D:/BM1000_v1.1/sw/solutions/instaspin/src/proj_bm1000.c")
    2479                      .dwattr $C$DW$261, DW_AT_TI_end_line(0x1c0)
    2480                      .dwattr $C$DW$261, DW_AT_TI_end_column(0x01)
    2481                      .dwendentry
    2482                      .dwendtag $C$DW$261
    2483              
    2484              ;**************************************************************
    2485              ;* UNDEFINED EXTERNAL REFERENCES                              *
    2486              ;**************************************************************
    2487                      .global _MOTOR_getMaxCurrent
    2488                      .global _HAL_enableTimer1Int
    2489                      .global _MOTOR_CtrlVersion_Init
    2490                      .global _HAL_enableSciaInt
    2491                      .global _FSM_getPortStatus
    2492                      .global _FSM_ParamInit
    2493                      .global _HAL_setupFaults
    2494                      .global _HAL_enableGlobalInts
    2495                      .global _HAL_enableAdcInts
    2496                      .global _HAL_enableDebugInt
    2497                      .global _HAL_setupAdcParams
    2498                      .global _HAL_setParams
    2499                      .global _PROCTRL_getDCbusVoltage
    2500                      .global _PROCTRL_getChipTemperture
    2501                      .global _PROCTRL_setDcBrakeCurrent
    2502                      .global _PROCTRL_CheckMotorError
    2503                      .global _PROCTRL_getScaleActors
    2504                      .global _PROCTRL_getSensorData
    2505                      .global _PROCTRL_MainLoop
    2506                      .global _MB_RTUReceiveFSM
    2507                      .global _PROCTRL_setHalHandle
    2508                      .global _MB_RTUTransmitFSM
    2509                      .global _MB_RTUTimerFSM
    2510                      .global _PROCTRL_setupMotors
    2511                      .global _PROCTRL_setupFSM
    2512                      .global _PROCTRL_setupModbus
    2513                      .global _PROCTRL_setUserParams
    2514                      .global _PROCTRL_setupFlyingStart
    2515                      .global _USER_setSysParams
    2516                      .global _USER_setParams
    2517                      .global _usDelay
TMS320C2000 Assembler PC v6.2.5 Tue Nov 21 22:57:45 2017

Tools Copyright (c) 1996-2014 Texas Instruments Incorporated
C:\Users\wmj\AppData\Local\Temp\1055210                              PAGE   50

    2518                      .global _SCI_clearRxFifoInt
    2519                      .global _SCI_clearTxFifoInt
    2520                      .global _SCI_clearRxFifoOvf
    2521                      .global _USER_checkForErrors
    2522                      .global _USER_checkDefErrors
    2523                      .global _USER_setMotorIDs
    2524                      .global _USER_setMotorParams
    2525                      .global _USER_setBoardParams
    2526                      .global _EST_setFlag_enableRsRecalc
    2527                      .global _memCopy
    2528                      .global _TIMER_clearFlag
    2529                      .global _USER_setWaitTimeParams
    2530                      .global _GPIO_setLow
    2531                      .global _GPIO_setHigh
    2532                      .global _CTRL_setParams
    2533                      .global _PROCTRL_setCtrlHandle
    2534                      .global _CTRL_setup
    2535                      .global _CTRL_getVersion
    2536                      .global _CTRL_run
    2537                      .global _GPIO_read
    2538                      .global _USER_getErrorCode
    2539                      .global _MB_Poll
    2540                      .global _RamfuncsRunStart
    2541                      .global _RamfuncsLoadEnd
    2542                      .global _PROCTRL_init
    2543                      .global _CTRL_initCtrl
    2544                      .global _RamfuncsLoadStart
    2545                      .global _HAL_init
    2546                      .global _EST_getFm_pu
    2547                      .global _hal
    2548              
    2549              ;***************************************************************
    2550              ;* TYPE INFORMATION                                            *
    2551              ;***************************************************************
    2552              
    2553              $C$DW$T$41      .dwtag  DW_TAG_enumeration_type
    2554                      .dwattr $C$DW$T$41, DW_AT_byte_size(0x01)
    2555              $C$DW$265       .dwtag  DW_TAG_enumerator, DW_AT_name("CTRL_State_Error"), DW_AT_const_value(0x00)
    2556              $C$DW$266       .dwtag  DW_TAG_enumerator, DW_AT_name("CTRL_State_Idle"), DW_AT_const_value(0x01)
    2557              $C$DW$267       .dwtag  DW_TAG_enumerator, DW_AT_name("CTRL_State_OffLine"), DW_AT_const_value(0x02)
    2558              $C$DW$268       .dwtag  DW_TAG_enumerator, DW_AT_name("CTRL_State_OnLine"), DW_AT_const_value(0x03)
    2559              $C$DW$269       .dwtag  DW_TAG_enumerator, DW_AT_name("CTRL_numStates"), DW_AT_const_value(0x04)
    2560                      .dwendtag $C$DW$T$41
    2561              
    2562              $C$DW$T$42      .dwtag  DW_TAG_typedef, DW_AT_name("CTRL_State_e")
    2563                      .dwattr $C$DW$T$42, DW_AT_type(*$C$DW$T$41)
    2564                      .dwattr $C$DW$T$42, DW_AT_language(DW_LANG_C)
    2565              
    2566              $C$DW$T$43      .dwtag  DW_TAG_enumeration_type
    2567                      .dwattr $C$DW$T$43, DW_AT_byte_size(0x01)
    2568              $C$DW$270       .dwtag  DW_TAG_enumerator, DW_AT_name("CTRL_ErrorCode_NoError"), DW_AT_const_value(0x00)
    2569              $C$DW$271       .dwtag  DW_TAG_enumerator, DW_AT_name("CTRL_ErrorCode_IdClip"), DW_AT_const_value(0x01)
    2570              $C$DW$272       .dwtag  DW_TAG_enumerator, DW_AT_name("CTRL_ErrorCode_EstError"), DW_AT_const_value(0x02)
    2571              $C$DW$273       .dwtag  DW_TAG_enumerator, DW_AT_name("CTRL_numErrorCodes"), DW_AT_const_value(0x03)
    2572                      .dwendtag $C$DW$T$43
TMS320C2000 Assembler PC v6.2.5 Tue Nov 21 22:57:45 2017

Tools Copyright (c) 1996-2014 Texas Instruments Incorporated
C:\Users\wmj\AppData\Local\Temp\1055210                              PAGE   51

    2573              
    2574              $C$DW$T$44      .dwtag  DW_TAG_typedef, DW_AT_name("CTRL_ErrorCode_e")
    2575                      .dwattr $C$DW$T$44, DW_AT_type(*$C$DW$T$43)
    2576                      .dwattr $C$DW$T$44, DW_AT_language(DW_LANG_C)
    2577              
    2578              $C$DW$T$75      .dwtag  DW_TAG_enumeration_type
    2579                      .dwattr $C$DW$T$75, DW_AT_byte_size(0x01)
    2580              $C$DW$274       .dwtag  DW_TAG_enumerator, DW_AT_name("CTRL_TargetProc_2806x"), DW_AT_const_value(0x00)
    2581              $C$DW$275       .dwtag  DW_TAG_enumerator, DW_AT_name("CTRL_TargetProc_2805x"), DW_AT_const_value(0x01)
    2582              $C$DW$276       .dwtag  DW_TAG_enumerator, DW_AT_name("CTRL_TargetProc_2803x"), DW_AT_const_value(0x02)
    2583              $C$DW$277       .dwtag  DW_TAG_enumerator, DW_AT_name("CTRL_TargetProc_2802x"), DW_AT_const_value(0x03)
    2584              $C$DW$278       .dwtag  DW_TAG_enumerator, DW_AT_name("CTRL_TargetProc_Unknown"), DW_AT_const_value(0x04)
    2585                      .dwendtag $C$DW$T$75
    2586              
    2587              $C$DW$T$76      .dwtag  DW_TAG_typedef, DW_AT_name("CTRL_TargetProc_e")
    2588                      .dwattr $C$DW$T$76, DW_AT_type(*$C$DW$T$75)
    2589                      .dwattr $C$DW$T$76, DW_AT_language(DW_LANG_C)
    2590              
    2591              $C$DW$T$86      .dwtag  DW_TAG_enumeration_type
    2592                      .dwattr $C$DW$T$86, DW_AT_byte_size(0x01)
    2593              $C$DW$279       .dwtag  DW_TAG_enumerator, DW_AT_name("Fsm_State_Idle"), DW_AT_const_value(0x00)
    2594              $C$DW$280       .dwtag  DW_TAG_enumerator, DW_AT_name("Fsm_State_MotorFunc"), DW_AT_const_value(0x01)
    2595              $C$DW$281       .dwtag  DW_TAG_enumerator, DW_AT_name("Fsm_State_Spinning"), DW_AT_const_value(0x02)
    2596              $C$DW$282       .dwtag  DW_TAG_enumerator, DW_AT_name("Fsm_State_Reverse"), DW_AT_const_value(0x03)
    2597              $C$DW$283       .dwtag  DW_TAG_enumerator, DW_AT_name("Fsm_State_Slowdown"), DW_AT_const_value(0x04)
    2598              $C$DW$284       .dwtag  DW_TAG_enumerator, DW_AT_name("Fsm_State_ConstTorque"), DW_AT_const_value(0x05)
    2599              $C$DW$285       .dwtag  DW_TAG_enumerator, DW_AT_name("Fsm_State_MagneticBrake"), DW_AT_const_value(0x06)
    2600              $C$DW$286       .dwtag  DW_TAG_enumerator, DW_AT_name("Fsm_State_FullyClose"), DW_AT_const_value(0x07)
    2601              $C$DW$287       .dwtag  DW_TAG_enumerator, DW_AT_name("Fsm_State_InchingOpen"), DW_AT_const_value(0x08)
    2602              $C$DW$288       .dwtag  DW_TAG_enumerator, DW_AT_name("Fsm_State_FullyOpen"), DW_AT_const_value(0x09)
    2603              $C$DW$289       .dwtag  DW_TAG_enumerator, DW_AT_name("Fsm_State_SharedState1"), DW_AT_const_value(0x0a)
    2604              $C$DW$290       .dwtag  DW_TAG_enumerator, DW_AT_name("Fsm_State_SharedState2"), DW_AT_const_value(0x0b)
    2605              $C$DW$291       .dwtag  DW_TAG_enumerator, DW_AT_name("Fsm_State_SharedState3"), DW_AT_const_value(0x0c)
    2606              $C$DW$292       .dwtag  DW_TAG_enumerator, DW_AT_name("Fsm_State_NormWait"), DW_AT_const_value(0x0d)
    2607              $C$DW$293       .dwtag  DW_TAG_enumerator, DW_AT_name("Fsm_State_STOP"), DW_AT_const_value(0x0e)
    2608              $C$DW$294       .dwtag  DW_TAG_enumerator, DW_AT_name("Fsm_State_Num"), DW_AT_const_value(0x0f)
    2609                      .dwendtag $C$DW$T$86
    2610              
    2611              $C$DW$T$87      .dwtag  DW_TAG_typedef, DW_AT_name("FSM_State_e")
    2612                      .dwattr $C$DW$T$87, DW_AT_type(*$C$DW$T$86)
    2613                      .dwattr $C$DW$T$87, DW_AT_language(DW_LANG_C)
    2614              
    2615              $C$DW$T$109     .dwtag  DW_TAG_array_type
    2616                      .dwattr $C$DW$T$109, DW_AT_type(*$C$DW$T$87)
    2617                      .dwattr $C$DW$T$109, DW_AT_language(DW_LANG_C)
    2618                      .dwattr $C$DW$T$109, DW_AT_byte_size(0x0f)
    2619              $C$DW$295       .dwtag  DW_TAG_subrange_type
    2620                      .dwattr $C$DW$295, DW_AT_upper_bound(0x0e)
    2621                      .dwendtag $C$DW$T$109
    2622              
    2623              
    2624              $C$DW$T$88      .dwtag  DW_TAG_enumeration_type
    2625                      .dwattr $C$DW$T$88, DW_AT_byte_size(0x01)
    2626              $C$DW$296       .dwtag  DW_TAG_enumerator, DW_AT_name("FSM_Trans_RetireState"), DW_AT_const_value(0x00)
    2627              $C$DW$297       .dwtag  DW_TAG_enumerator, DW_AT_name("FSM_Trans_LoopForever"), DW_AT_const_value(0x01)
TMS320C2000 Assembler PC v6.2.5 Tue Nov 21 22:57:45 2017

Tools Copyright (c) 1996-2014 Texas Instruments Incorporated
C:\Users\wmj\AppData\Local\Temp\1055210                              PAGE   52

    2628              $C$DW$298       .dwtag  DW_TAG_enumerator, DW_AT_name("FSM_Trans_JumpState1"), DW_AT_const_value(0x02)
    2629              $C$DW$299       .dwtag  DW_TAG_enumerator, DW_AT_name("FSM_Trans_JumpState2"), DW_AT_const_value(0x03)
    2630                      .dwendtag $C$DW$T$88
    2631              
    2632              $C$DW$T$89      .dwtag  DW_TAG_typedef, DW_AT_name("FSM_Trans_e")
    2633                      .dwattr $C$DW$T$89, DW_AT_type(*$C$DW$T$88)
    2634                      .dwattr $C$DW$T$89, DW_AT_language(DW_LANG_C)
    2635              
    2636              $C$DW$T$90      .dwtag  DW_TAG_enumeration_type
    2637                      .dwattr $C$DW$T$90, DW_AT_byte_size(0x01)
    2638              $C$DW$300       .dwtag  DW_TAG_enumerator, DW_AT_name("FSM_Event_IDLE"), DW_AT_const_value(0x00)
    2639              $C$DW$301       .dwtag  DW_TAG_enumerator, DW_AT_name("FSM_Event_MeetTime"), DW_AT_const_value(0x01)
    2640              $C$DW$302       .dwtag  DW_TAG_enumerator, DW_AT_name("FSM_Event_ArriveRefSpd"), DW_AT_const_value(0x02)
    2641              $C$DW$303       .dwtag  DW_TAG_enumerator, DW_AT_name("FSM_Event_485Start"), DW_AT_const_value(0x03)
    2642              $C$DW$304       .dwtag  DW_TAG_enumerator, DW_AT_name("FSM_Event_Sensor0"), DW_AT_const_value(0x04)
    2643              $C$DW$305       .dwtag  DW_TAG_enumerator, DW_AT_name("FSM_Event_Sensor1"), DW_AT_const_value(0x05)
    2644              $C$DW$306       .dwtag  DW_TAG_enumerator, DW_AT_name("FSM_Event_arrive_point"), DW_AT_const_value(0x06)
    2645              $C$DW$307       .dwtag  DW_TAG_enumerator, DW_AT_name("FSM_Event_ContactSensor"), DW_AT_const_value(0x07)
    2646              $C$DW$308       .dwtag  DW_TAG_enumerator, DW_AT_name("FSM_Event_ZeroSpeed"), DW_AT_const_value(0x08)
    2647              $C$DW$309       .dwtag  DW_TAG_enumerator, DW_AT_name("FSM_Event_MoveIdle"), DW_AT_const_value(0x09)
    2648              $C$DW$310       .dwtag  DW_TAG_enumerator, DW_AT_name("FSM_Event_Num"), DW_AT_const_value(0x0a)
    2649                      .dwendtag $C$DW$T$90
    2650              
    2651              $C$DW$T$91      .dwtag  DW_TAG_typedef, DW_AT_name("FSM_Event_e")
    2652                      .dwattr $C$DW$T$91, DW_AT_type(*$C$DW$T$90)
    2653                      .dwattr $C$DW$T$91, DW_AT_language(DW_LANG_C)
    2654              
    2655              $C$DW$T$92      .dwtag  DW_TAG_enumeration_type
    2656                      .dwattr $C$DW$T$92, DW_AT_byte_size(0x01)
    2657              $C$DW$311       .dwtag  DW_TAG_enumerator, DW_AT_name("FSM_StateMode_Free_mode"), DW_AT_const_value(0x00)
    2658              $C$DW$312       .dwtag  DW_TAG_enumerator, DW_AT_name("FSM_StateMode_Nipping_mode"), DW_AT_const_value(0x01)
    2659              $C$DW$313       .dwtag  DW_TAG_enumerator, DW_AT_name("FSM_StateMode_Notching_mode"), DW_AT_const_value(0x02)
    2660              $C$DW$314       .dwtag  DW_TAG_enumerator, DW_AT_name("FSM_StateMode_TrimPlat_mode"), DW_AT_const_value(0x03)
    2661              $C$DW$315       .dwtag  DW_TAG_enumerator, DW_AT_name("FSM_StateMode_Clamper_mode"), DW_AT_const_value(0x04)
    2662              $C$DW$316       .dwtag  DW_TAG_enumerator, DW_AT_name("FSM_StateMode_GlueTank_mode"), DW_AT_const_value(0x05)
    2663              $C$DW$317       .dwtag  DW_TAG_enumerator, DW_AT_name("FSM_StateMode_BlowerFan_mode"), DW_AT_const_value(0x06
    2664              $C$DW$318       .dwtag  DW_TAG_enumerator, DW_AT_name("FSM_StateMode_Trolley_mode"), DW_AT_const_value(0x07)
    2665              $C$DW$319       .dwtag  DW_TAG_enumerator, DW_AT_name("FSM_StateMode_Num"), DW_AT_const_value(0x08)
    2666                      .dwendtag $C$DW$T$92
    2667              
    2668              $C$DW$T$93      .dwtag  DW_TAG_typedef, DW_AT_name("FSM_StateMode_e")
    2669                      .dwattr $C$DW$T$93, DW_AT_type(*$C$DW$T$92)
    2670                      .dwattr $C$DW$T$93, DW_AT_language(DW_LANG_C)
    2671              
    2672              $C$DW$T$94      .dwtag  DW_TAG_enumeration_type
    2673                      .dwattr $C$DW$T$94, DW_AT_byte_size(0x01)
    2674              $C$DW$320       .dwtag  DW_TAG_enumerator, DW_AT_name("FSM_485EditOpt_RefSpeed"), DW_AT_const_value(0x00)
    2675              $C$DW$321       .dwtag  DW_TAG_enumerator, DW_AT_name("FSM_485EditOpt_CondValue"), DW_AT_const_value(0x01)
    2676              $C$DW$322       .dwtag  DW_TAG_enumerator, DW_AT_name("FSM_485EditOpt_Condition"), DW_AT_const_value(0x02)
    2677              $C$DW$323       .dwtag  DW_TAG_enumerator, DW_AT_name("FSM_485EditOpt_RunAction"), DW_AT_const_value(0x03)
    2678              $C$DW$324       .dwtag  DW_TAG_enumerator, DW_AT_name("FSM_485EditOpt_NextState"), DW_AT_const_value(0x04)
    2679              $C$DW$325       .dwtag  DW_TAG_enumerator, DW_AT_name("FSM_485EditOpt_Num"), DW_AT_const_value(0x05)
    2680                      .dwendtag $C$DW$T$94
    2681              
    2682              $C$DW$T$95      .dwtag  DW_TAG_typedef, DW_AT_name("FSM_EditOpt_e")
TMS320C2000 Assembler PC v6.2.5 Tue Nov 21 22:57:45 2017

Tools Copyright (c) 1996-2014 Texas Instruments Incorporated
C:\Users\wmj\AppData\Local\Temp\1055210                              PAGE   53

    2683                      .dwattr $C$DW$T$95, DW_AT_type(*$C$DW$T$94)
    2684                      .dwattr $C$DW$T$95, DW_AT_language(DW_LANG_C)
    2685              
    2686              $C$DW$T$96      .dwtag  DW_TAG_enumeration_type
    2687                      .dwattr $C$DW$T$96, DW_AT_byte_size(0x01)
    2688              $C$DW$326       .dwtag  DW_TAG_enumerator, DW_AT_name("FSM_Condition_Times"), DW_AT_const_value(0x00)
    2689              $C$DW$327       .dwtag  DW_TAG_enumerator, DW_AT_name("FSM_Condition_Speed"), DW_AT_const_value(0x01)
    2690              $C$DW$328       .dwtag  DW_TAG_enumerator, DW_AT_name("FSM_Condition_485Cmd"), DW_AT_const_value(0x02)
    2691              $C$DW$329       .dwtag  DW_TAG_enumerator, DW_AT_name("FSM_Condition_KeyS1"), DW_AT_const_value(0x03)
    2692              $C$DW$330       .dwtag  DW_TAG_enumerator, DW_AT_name("FSM_Condition_KeyS2"), DW_AT_const_value(0x04)
    2693              $C$DW$331       .dwtag  DW_TAG_enumerator, DW_AT_name("FSM_Condition_AnalogS1"), DW_AT_const_value(0x05)
    2694              $C$DW$332       .dwtag  DW_TAG_enumerator, DW_AT_name("FSM_Condition_AnalogS2"), DW_AT_const_value(0x06)
    2695              $C$DW$333       .dwtag  DW_TAG_enumerator, DW_AT_name("FSM_Condition_ContactS1"), DW_AT_const_value(0x07)
    2696              $C$DW$334       .dwtag  DW_TAG_enumerator, DW_AT_name("FSM_Condition_ContactS2"), DW_AT_const_value(0x08)
    2697              $C$DW$335       .dwtag  DW_TAG_enumerator, DW_AT_name("FSM_Condition_ZeroSpeed"), DW_AT_const_value(0x09)
    2698              $C$DW$336       .dwtag  DW_TAG_enumerator, DW_AT_name("FSM_Condition_MoveStatus"), DW_AT_const_value(0x0a)
    2699              $C$DW$337       .dwtag  DW_TAG_enumerator, DW_AT_name("FSM_Condition_Num"), DW_AT_const_value(0x0b)
    2700                      .dwendtag $C$DW$T$96
    2701              
    2702              $C$DW$T$97      .dwtag  DW_TAG_typedef, DW_AT_name("FSM_Cond_e")
    2703                      .dwattr $C$DW$T$97, DW_AT_type(*$C$DW$T$96)
    2704                      .dwattr $C$DW$T$97, DW_AT_language(DW_LANG_C)
    2705              
    2706              $C$DW$T$105     .dwtag  DW_TAG_array_type
    2707                      .dwattr $C$DW$T$105, DW_AT_type(*$C$DW$T$97)
    2708                      .dwattr $C$DW$T$105, DW_AT_language(DW_LANG_C)
    2709                      .dwattr $C$DW$T$105, DW_AT_byte_size(0x0f)
    2710              $C$DW$338       .dwtag  DW_TAG_subrange_type
    2711                      .dwattr $C$DW$338, DW_AT_upper_bound(0x0e)
    2712                      .dwendtag $C$DW$T$105
    2713              
    2714              
    2715              $C$DW$T$106     .dwtag  DW_TAG_enumeration_type
    2716                      .dwattr $C$DW$T$106, DW_AT_byte_size(0x01)
    2717              $C$DW$339       .dwtag  DW_TAG_enumerator, DW_AT_name("FSM_Action_RunIDLE"), DW_AT_const_value(0x00)
    2718              $C$DW$340       .dwtag  DW_TAG_enumerator, DW_AT_name("FSM_Action_calcSensorPos"), DW_AT_const_value(0x01)
    2719              $C$DW$341       .dwtag  DW_TAG_enumerator, DW_AT_name("FSM_Action_calcRelativePos"), DW_AT_const_value(0x02)
    2720              $C$DW$342       .dwtag  DW_TAG_enumerator, DW_AT_name("FSM_Action_CheckCoverSensor"), DW_AT_const_value(0x03)
    2721              $C$DW$343       .dwtag  DW_TAG_enumerator, DW_AT_name("FSM_Action_SetPosStep"), DW_AT_const_value(0x04)
    2722              $C$DW$344       .dwtag  DW_TAG_enumerator, DW_AT_name("FSM_Action_CheckPosition"), DW_AT_const_value(0x05)
    2723              $C$DW$345       .dwtag  DW_TAG_enumerator, DW_AT_name("FSM_Action_VelTransToPos"), DW_AT_const_value(0x06)
    2724              $C$DW$346       .dwtag  DW_TAG_enumerator, DW_AT_name("FSM_Action_SetVelocity"), DW_AT_const_value(0x07)
    2725              $C$DW$347       .dwtag  DW_TAG_enumerator, DW_AT_name("FSM_Action_RunVelocityMode"), DW_AT_const_value(0x08)
    2726              $C$DW$348       .dwtag  DW_TAG_enumerator, DW_AT_name("FSM_Action_ReleaseDcBrake"), DW_AT_const_value(0x09)
    2727              $C$DW$349       .dwtag  DW_TAG_enumerator, DW_AT_name("FSM_Action_RunSTOP"), DW_AT_const_value(0x0a)
    2728              $C$DW$350       .dwtag  DW_TAG_enumerator, DW_AT_name("FSM_Action_Num"), DW_AT_const_value(0x0b)
    2729                      .dwendtag $C$DW$T$106
    2730              
    2731              $C$DW$T$107     .dwtag  DW_TAG_typedef, DW_AT_name("FSM_Action_e")
    2732                      .dwattr $C$DW$T$107, DW_AT_type(*$C$DW$T$106)
    2733                      .dwattr $C$DW$T$107, DW_AT_language(DW_LANG_C)
    2734              
    2735              $C$DW$T$108     .dwtag  DW_TAG_array_type
    2736                      .dwattr $C$DW$T$108, DW_AT_type(*$C$DW$T$107)
    2737                      .dwattr $C$DW$T$108, DW_AT_language(DW_LANG_C)
TMS320C2000 Assembler PC v6.2.5 Tue Nov 21 22:57:45 2017

Tools Copyright (c) 1996-2014 Texas Instruments Incorporated
C:\Users\wmj\AppData\Local\Temp\1055210                              PAGE   54

    2738                      .dwattr $C$DW$T$108, DW_AT_byte_size(0x0f)
    2739              $C$DW$351       .dwtag  DW_TAG_subrange_type
    2740                      .dwattr $C$DW$351, DW_AT_upper_bound(0x0e)
    2741                      .dwendtag $C$DW$T$108
    2742              
    2743              
    2744              $C$DW$T$154     .dwtag  DW_TAG_enumeration_type
    2745                      .dwattr $C$DW$T$154, DW_AT_byte_size(0x01)
    2746              $C$DW$352       .dwtag  DW_TAG_enumerator, DW_AT_name("HAL_BoardAddr_Motor1"), DW_AT_const_value(0x00)
    2747              $C$DW$353       .dwtag  DW_TAG_enumerator, DW_AT_name("HAL_BoardAddr_Motor2"), DW_AT_const_value(0x01)
    2748              $C$DW$354       .dwtag  DW_TAG_enumerator, DW_AT_name("HAL_BoardAddr_Motor3"), DW_AT_const_value(0x02)
    2749              $C$DW$355       .dwtag  DW_TAG_enumerator, DW_AT_name("HAL_BoardAddr_Motor4"), DW_AT_const_value(0x03)
    2750              $C$DW$356       .dwtag  DW_TAG_enumerator, DW_AT_name("HAL_BoardAddr_Motor5"), DW_AT_const_value(0x04)
    2751              $C$DW$357       .dwtag  DW_TAG_enumerator, DW_AT_name("HAL_BoardAddr_Motor6"), DW_AT_const_value(0x05)
    2752              $C$DW$358       .dwtag  DW_TAG_enumerator, DW_AT_name("HAL_BoardAddr_Motor7"), DW_AT_const_value(0x06)
    2753              $C$DW$359       .dwtag  DW_TAG_enumerator, DW_AT_name("HAL_BoardAddr_Heater"), DW_AT_const_value(0x07)
    2754              $C$DW$360       .dwtag  DW_TAG_enumerator, DW_AT_name("HAL_BoardAddr_OpenLoop"), DW_AT_const_value(0x08)
    2755              $C$DW$361       .dwtag  DW_TAG_enumerator, DW_AT_name("HAL_BoardAddr_Short"), DW_AT_const_value(0x09)
    2756                      .dwendtag $C$DW$T$154
    2757              
    2758              $C$DW$T$155     .dwtag  DW_TAG_typedef, DW_AT_name("HAL_BdAddr_e")
    2759                      .dwattr $C$DW$T$155, DW_AT_type(*$C$DW$T$154)
    2760                      .dwattr $C$DW$T$155, DW_AT_language(DW_LANG_C)
    2761              
    2762              $C$DW$T$171     .dwtag  DW_TAG_enumeration_type
    2763                      .dwattr $C$DW$T$171, DW_AT_byte_size(0x01)
    2764              $C$DW$362       .dwtag  DW_TAG_enumerator, DW_AT_name("MB_ENOERR"), DW_AT_const_value(0x00)
    2765              $C$DW$363       .dwtag  DW_TAG_enumerator, DW_AT_name("MB_ENOREG"), DW_AT_const_value(0x01)
    2766              $C$DW$364       .dwtag  DW_TAG_enumerator, DW_AT_name("MB_EINVAL"), DW_AT_const_value(0x02)
    2767              $C$DW$365       .dwtag  DW_TAG_enumerator, DW_AT_name("MB_EPORTERR"), DW_AT_const_value(0x03)
    2768              $C$DW$366       .dwtag  DW_TAG_enumerator, DW_AT_name("MB_ENORES"), DW_AT_const_value(0x04)
    2769              $C$DW$367       .dwtag  DW_TAG_enumerator, DW_AT_name("MB_EIO"), DW_AT_const_value(0x05)
    2770              $C$DW$368       .dwtag  DW_TAG_enumerator, DW_AT_name("MB_EILLSTATE"), DW_AT_const_value(0x06)
    2771              $C$DW$369       .dwtag  DW_TAG_enumerator, DW_AT_name("MB_ETIMEDOUT"), DW_AT_const_value(0x07)
    2772                      .dwendtag $C$DW$T$171
    2773              
    2774              $C$DW$T$172     .dwtag  DW_TAG_typedef, DW_AT_name("eMBErrorCode")
    2775                      .dwattr $C$DW$T$172, DW_AT_type(*$C$DW$T$171)
    2776                      .dwattr $C$DW$T$172, DW_AT_language(DW_LANG_C)
    2777              
    2778              $C$DW$T$173     .dwtag  DW_TAG_enumeration_type
    2779                      .dwattr $C$DW$T$173, DW_AT_byte_size(0x01)
    2780              $C$DW$370       .dwtag  DW_TAG_enumerator, DW_AT_name("STATE_TX_IDLE"), DW_AT_const_value(0x00)
    2781              $C$DW$371       .dwtag  DW_TAG_enumerator, DW_AT_name("STATE_TX_XMIT"), DW_AT_const_value(0x01)
    2782                      .dwendtag $C$DW$T$173
    2783              
    2784              $C$DW$T$174     .dwtag  DW_TAG_typedef, DW_AT_name("eMBSndState")
    2785                      .dwattr $C$DW$T$174, DW_AT_type(*$C$DW$T$173)
    2786                      .dwattr $C$DW$T$174, DW_AT_language(DW_LANG_C)
    2787              
    2788              $C$DW$T$175     .dwtag  DW_TAG_enumeration_type
    2789                      .dwattr $C$DW$T$175, DW_AT_byte_size(0x01)
    2790              $C$DW$372       .dwtag  DW_TAG_enumerator, DW_AT_name("STATE_RX_INIT"), DW_AT_const_value(0x00)
    2791              $C$DW$373       .dwtag  DW_TAG_enumerator, DW_AT_name("STATE_RX_IDLE"), DW_AT_const_value(0x01)
    2792              $C$DW$374       .dwtag  DW_TAG_enumerator, DW_AT_name("STATE_RX_RCV"), DW_AT_const_value(0x02)
TMS320C2000 Assembler PC v6.2.5 Tue Nov 21 22:57:45 2017

Tools Copyright (c) 1996-2014 Texas Instruments Incorporated
C:\Users\wmj\AppData\Local\Temp\1055210                              PAGE   55

    2793              $C$DW$375       .dwtag  DW_TAG_enumerator, DW_AT_name("STATE_RX_ERROR"), DW_AT_const_value(0x03)
    2794                      .dwendtag $C$DW$T$175
    2795              
    2796              $C$DW$T$176     .dwtag  DW_TAG_typedef, DW_AT_name("eMBRcvState")
    2797                      .dwattr $C$DW$T$176, DW_AT_type(*$C$DW$T$175)
    2798                      .dwattr $C$DW$T$176, DW_AT_language(DW_LANG_C)
    2799              
    2800              $C$DW$T$177     .dwtag  DW_TAG_enumeration_type
    2801                      .dwattr $C$DW$T$177, DW_AT_byte_size(0x01)
    2802              $C$DW$376       .dwtag  DW_TAG_enumerator, DW_AT_name("EV_READY"), DW_AT_const_value(0x00)
    2803              $C$DW$377       .dwtag  DW_TAG_enumerator, DW_AT_name("EV_FRAME_RECEIVED"), DW_AT_const_value(0x01)
    2804              $C$DW$378       .dwtag  DW_TAG_enumerator, DW_AT_name("EV_EXECUTE"), DW_AT_const_value(0x02)
    2805              $C$DW$379       .dwtag  DW_TAG_enumerator, DW_AT_name("EV_FRAME_SENT"), DW_AT_const_value(0x03)
    2806                      .dwendtag $C$DW$T$177
    2807              
    2808              $C$DW$T$178     .dwtag  DW_TAG_typedef, DW_AT_name("eMBEventType")
    2809                      .dwattr $C$DW$T$178, DW_AT_type(*$C$DW$T$177)
    2810                      .dwattr $C$DW$T$178, DW_AT_language(DW_LANG_C)
    2811              
    2812              $C$DW$T$182     .dwtag  DW_TAG_enumeration_type
    2813                      .dwattr $C$DW$T$182, DW_AT_byte_size(0x01)
    2814              $C$DW$380       .dwtag  DW_TAG_enumerator, DW_AT_name("EST_State_Error"), DW_AT_const_value(0x00)
    2815              $C$DW$381       .dwtag  DW_TAG_enumerator, DW_AT_name("EST_State_Idle"), DW_AT_const_value(0x01)
    2816              $C$DW$382       .dwtag  DW_TAG_enumerator, DW_AT_name("EST_State_RoverL"), DW_AT_const_value(0x02)
    2817              $C$DW$383       .dwtag  DW_TAG_enumerator, DW_AT_name("EST_State_Rs"), DW_AT_const_value(0x03)
    2818              $C$DW$384       .dwtag  DW_TAG_enumerator, DW_AT_name("EST_State_RampUp"), DW_AT_const_value(0x04)
    2819              $C$DW$385       .dwtag  DW_TAG_enumerator, DW_AT_name("EST_State_IdRated"), DW_AT_const_value(0x05)
    2820              $C$DW$386       .dwtag  DW_TAG_enumerator, DW_AT_name("EST_State_RatedFlux_OL"), DW_AT_const_value(0x06)
    2821              $C$DW$387       .dwtag  DW_TAG_enumerator, DW_AT_name("EST_State_RatedFlux"), DW_AT_const_value(0x07)
    2822              $C$DW$388       .dwtag  DW_TAG_enumerator, DW_AT_name("EST_State_RampDown"), DW_AT_const_value(0x08)
    2823              $C$DW$389       .dwtag  DW_TAG_enumerator, DW_AT_name("EST_State_LockRotor"), DW_AT_const_value(0x09)
    2824              $C$DW$390       .dwtag  DW_TAG_enumerator, DW_AT_name("EST_State_Ls"), DW_AT_const_value(0x0a)
    2825              $C$DW$391       .dwtag  DW_TAG_enumerator, DW_AT_name("EST_State_Rr"), DW_AT_const_value(0x0b)
    2826              $C$DW$392       .dwtag  DW_TAG_enumerator, DW_AT_name("EST_State_MotorIdentified"), DW_AT_const_value(0x0c)
    2827              $C$DW$393       .dwtag  DW_TAG_enumerator, DW_AT_name("EST_State_OnLine"), DW_AT_const_value(0x0d)
    2828              $C$DW$394       .dwtag  DW_TAG_enumerator, DW_AT_name("EST_numStates"), DW_AT_const_value(0x0e)
    2829                      .dwendtag $C$DW$T$182
    2830              
    2831              $C$DW$T$183     .dwtag  DW_TAG_typedef, DW_AT_name("EST_State_e")
    2832                      .dwattr $C$DW$T$183, DW_AT_type(*$C$DW$T$182)
    2833                      .dwattr $C$DW$T$183, DW_AT_language(DW_LANG_C)
    2834              
    2835              $C$DW$T$184     .dwtag  DW_TAG_enumeration_type
    2836                      .dwattr $C$DW$T$184, DW_AT_byte_size(0x01)
    2837              $C$DW$395       .dwtag  DW_TAG_enumerator, DW_AT_name("USER_ErrorCode_NoError"), DW_AT_const_value(0x00)
    2838              $C$DW$396       .dwtag  DW_TAG_enumerator, DW_AT_name("USER_ErrorCode_iqFullScaleCurrent_A_High"), DW_AT_cons
    2839              $C$DW$397       .dwtag  DW_TAG_enumerator, DW_AT_name("USER_ErrorCode_iqFullScaleCurrent_A_Low"), DW_AT_const
    2840              $C$DW$398       .dwtag  DW_TAG_enumerator, DW_AT_name("USER_ErrorCode_iqFullScaleVoltage_V_High"), DW_AT_cons
    2841              $C$DW$399       .dwtag  DW_TAG_enumerator, DW_AT_name("USER_ErrorCode_iqFullScaleVoltage_V_Low"), DW_AT_const
    2842              $C$DW$400       .dwtag  DW_TAG_enumerator, DW_AT_name("USER_ErrorCode_iqFullScaleFreq_Hz_High"), DW_AT_const_
    2843              $C$DW$401       .dwtag  DW_TAG_enumerator, DW_AT_name("USER_ErrorCode_iqFullScaleFreq_Hz_Low"), DW_AT_const_v
    2844              $C$DW$402       .dwtag  DW_TAG_enumerator, DW_AT_name("USER_ErrorCode_numPwmTicksPerIsrTick_High"), DW_AT_con
    2845              $C$DW$403       .dwtag  DW_TAG_enumerator, DW_AT_name("USER_ErrorCode_numPwmTicksPerIsrTick_Low"), DW_AT_cons
    2846              $C$DW$404       .dwtag  DW_TAG_enumerator, DW_AT_name("USER_ErrorCode_numIsrTicksPerCtrlTick_High"), DW_AT_co
    2847              $C$DW$405       .dwtag  DW_TAG_enumerator, DW_AT_name("USER_ErrorCode_numIsrTicksPerCtrlTick_Low"), DW_AT_con
TMS320C2000 Assembler PC v6.2.5 Tue Nov 21 22:57:45 2017

Tools Copyright (c) 1996-2014 Texas Instruments Incorporated
C:\Users\wmj\AppData\Local\Temp\1055210                              PAGE   56

    2848              $C$DW$406       .dwtag  DW_TAG_enumerator, DW_AT_name("USER_ErrorCode_numCtrlTicksPerCurrentTick_High"), DW_A
    2849              $C$DW$407       .dwtag  DW_TAG_enumerator, DW_AT_name("USER_ErrorCode_numCtrlTicksPerCurrentTick_Low"), DW_AT
    2850              $C$DW$408       .dwtag  DW_TAG_enumerator, DW_AT_name("USER_ErrorCode_numCtrlTicksPerEstTick_High"), DW_AT_co
    2851              $C$DW$409       .dwtag  DW_TAG_enumerator, DW_AT_name("USER_ErrorCode_numCtrlTicksPerEstTick_Low"), DW_AT_con
    2852              $C$DW$410       .dwtag  DW_TAG_enumerator, DW_AT_name("USER_ErrorCode_numCtrlTicksPerSpeedTick_High"), DW_AT_
    2853              $C$DW$411       .dwtag  DW_TAG_enumerator, DW_AT_name("USER_ErrorCode_numCtrlTicksPerSpeedTick_Low"), DW_AT_c
    2854              $C$DW$412       .dwtag  DW_TAG_enumerator, DW_AT_name("USER_ErrorCode_numCtrlTicksPerTrajTick_High"), DW_AT_c
    2855              $C$DW$413       .dwtag  DW_TAG_enumerator, DW_AT_name("USER_ErrorCode_numCtrlTicksPerTrajTick_Low"), DW_AT_co
    2856              $C$DW$414       .dwtag  DW_TAG_enumerator, DW_AT_name("USER_ErrorCode_numCurrentSensors_High"), DW_AT_const_v
    2857              $C$DW$415       .dwtag  DW_TAG_enumerator, DW_AT_name("USER_ErrorCode_numCurrentSensors_Low"), DW_AT_const_va
    2858              $C$DW$416       .dwtag  DW_TAG_enumerator, DW_AT_name("USER_ErrorCode_numVoltageSensors_High"), DW_AT_const_v
    2859              $C$DW$417       .dwtag  DW_TAG_enumerator, DW_AT_name("USER_ErrorCode_numVoltageSensors_Low"), DW_AT_const_va
    2860              $C$DW$418       .dwtag  DW_TAG_enumerator, DW_AT_name("USER_ErrorCode_offsetPole_rps_High"), DW_AT_const_valu
    2861              $C$DW$419       .dwtag  DW_TAG_enumerator, DW_AT_name("USER_ErrorCode_offsetPole_rps_Low"), DW_AT_const_value
    2862              $C$DW$420       .dwtag  DW_TAG_enumerator, DW_AT_name("USER_ErrorCode_fluxPole_rps_High"), DW_AT_const_value(
    2863              $C$DW$421       .dwtag  DW_TAG_enumerator, DW_AT_name("USER_ErrorCode_fluxPole_rps_Low"), DW_AT_const_value(0
    2864              $C$DW$422       .dwtag  DW_TAG_enumerator, DW_AT_name("USER_ErrorCode_zeroSpeedLimit_High"), DW_AT_const_valu
    2865              $C$DW$423       .dwtag  DW_TAG_enumerator, DW_AT_name("USER_ErrorCode_zeroSpeedLimit_Low"), DW_AT_const_value
    2866              $C$DW$424       .dwtag  DW_TAG_enumerator, DW_AT_name("USER_ErrorCode_forceAngleFreq_Hz_High"), DW_AT_const_v
    2867              $C$DW$425       .dwtag  DW_TAG_enumerator, DW_AT_name("USER_ErrorCode_forceAngleFreq_Hz_Low"), DW_AT_const_va
    2868              $C$DW$426       .dwtag  DW_TAG_enumerator, DW_AT_name("USER_ErrorCode_maxAccel_Hzps_High"), DW_AT_const_value
    2869              $C$DW$427       .dwtag  DW_TAG_enumerator, DW_AT_name("USER_ErrorCode_maxAccel_Hzps_Low"), DW_AT_const_value(
    2870              $C$DW$428       .dwtag  DW_TAG_enumerator, DW_AT_name("USER_ErrorCode_maxAccel_est_Hzps_High"), DW_AT_const_v
    2871              $C$DW$429       .dwtag  DW_TAG_enumerator, DW_AT_name("USER_ErrorCode_maxAccel_est_Hzps_Low"), DW_AT_const_va
    2872              $C$DW$430       .dwtag  DW_TAG_enumerator, DW_AT_name("USER_ErrorCode_directionPole_rps_High"), DW_AT_const_v
    2873              $C$DW$431       .dwtag  DW_TAG_enumerator, DW_AT_name("USER_ErrorCode_directionPole_rps_Low"), DW_AT_const_va
    2874              $C$DW$432       .dwtag  DW_TAG_enumerator, DW_AT_name("USER_ErrorCode_speedPole_rps_High"), DW_AT_const_value
    2875              $C$DW$433       .dwtag  DW_TAG_enumerator, DW_AT_name("USER_ErrorCode_speedPole_rps_Low"), DW_AT_const_value(
    2876              $C$DW$434       .dwtag  DW_TAG_enumerator, DW_AT_name("USER_ErrorCode_dcBusPole_rps_High"), DW_AT_const_value
    2877              $C$DW$435       .dwtag  DW_TAG_enumerator, DW_AT_name("USER_ErrorCode_dcBusPole_rps_Low"), DW_AT_const_value(
    2878              $C$DW$436       .dwtag  DW_TAG_enumerator, DW_AT_name("USER_ErrorCode_fluxFraction_High"), DW_AT_const_value(
    2879              $C$DW$437       .dwtag  DW_TAG_enumerator, DW_AT_name("USER_ErrorCode_fluxFraction_Low"), DW_AT_const_value(0
    2880              $C$DW$438       .dwtag  DW_TAG_enumerator, DW_AT_name("USER_ErrorCode_indEst_speedMaxFraction_High"), DW_AT_c
    2881              $C$DW$439       .dwtag  DW_TAG_enumerator, DW_AT_name("USER_ErrorCode_indEst_speedMaxFraction_Low"), DW_AT_co
    2882              $C$DW$440       .dwtag  DW_TAG_enumerator, DW_AT_name("USER_ErrorCode_powerWarpGain_High"), DW_AT_const_value
    2883              $C$DW$441       .dwtag  DW_TAG_enumerator, DW_AT_name("USER_ErrorCode_powerWarpGain_Low"), DW_AT_const_value(
    2884              $C$DW$442       .dwtag  DW_TAG_enumerator, DW_AT_name("USER_ErrorCode_systemFreq_MHz_High"), DW_AT_const_valu
    2885              $C$DW$443       .dwtag  DW_TAG_enumerator, DW_AT_name("USER_ErrorCode_systemFreq_MHz_Low"), DW_AT_const_value
    2886              $C$DW$444       .dwtag  DW_TAG_enumerator, DW_AT_name("USER_ErrorCode_pwmFreq_kHz_High"), DW_AT_const_value(0
    2887              $C$DW$445       .dwtag  DW_TAG_enumerator, DW_AT_name("USER_ErrorCode_pwmFreq_kHz_Low"), DW_AT_const_value(0x
    2888              $C$DW$446       .dwtag  DW_TAG_enumerator, DW_AT_name("USER_ErrorCode_voltage_sf_High"), DW_AT_const_value(0x
    2889              $C$DW$447       .dwtag  DW_TAG_enumerator, DW_AT_name("USER_ErrorCode_voltage_sf_Low"), DW_AT_const_value(0x3
    2890              $C$DW$448       .dwtag  DW_TAG_enumerator, DW_AT_name("USER_ErrorCode_current_sf_High"), DW_AT_const_value(0x
    2891              $C$DW$449       .dwtag  DW_TAG_enumerator, DW_AT_name("USER_ErrorCode_current_sf_Low"), DW_AT_const_value(0x3
    2892              $C$DW$450       .dwtag  DW_TAG_enumerator, DW_AT_name("USER_ErrorCode_voltageFilterPole_Hz_High"), DW_AT_cons
    2893              $C$DW$451       .dwtag  DW_TAG_enumerator, DW_AT_name("USER_ErrorCode_voltageFilterPole_Hz_Low"), DW_AT_const
    2894              $C$DW$452       .dwtag  DW_TAG_enumerator, DW_AT_name("USER_ErrorCode_maxVsMag_pu_High"), DW_AT_const_value(0
    2895              $C$DW$453       .dwtag  DW_TAG_enumerator, DW_AT_name("USER_ErrorCode_maxVsMag_pu_Low"), DW_AT_const_value(0x
    2896              $C$DW$454       .dwtag  DW_TAG_enumerator, DW_AT_name("USER_ErrorCode_estKappa_High"), DW_AT_const_value(0x3b
    2897              $C$DW$455       .dwtag  DW_TAG_enumerator, DW_AT_name("USER_ErrorCode_estKappa_Low"), DW_AT_const_value(0x3c)
    2898              $C$DW$456       .dwtag  DW_TAG_enumerator, DW_AT_name("USER_ErrorCode_motor_type_Unknown"), DW_AT_const_value
    2899              $C$DW$457       .dwtag  DW_TAG_enumerator, DW_AT_name("USER_ErrorCode_motor_numPolePairs_High"), DW_AT_const_
    2900              $C$DW$458       .dwtag  DW_TAG_enumerator, DW_AT_name("USER_ErrorCode_motor_numPolePairs_Low"), DW_AT_const_v
    2901              $C$DW$459       .dwtag  DW_TAG_enumerator, DW_AT_name("USER_ErrorCode_motor_ratedFlux_High"), DW_AT_const_val
    2902              $C$DW$460       .dwtag  DW_TAG_enumerator, DW_AT_name("USER_ErrorCode_motor_ratedFlux_Low"), DW_AT_const_valu
TMS320C2000 Assembler PC v6.2.5 Tue Nov 21 22:57:45 2017

Tools Copyright (c) 1996-2014 Texas Instruments Incorporated
C:\Users\wmj\AppData\Local\Temp\1055210                              PAGE   57

    2903              $C$DW$461       .dwtag  DW_TAG_enumerator, DW_AT_name("USER_ErrorCode_motor_Rr_High"), DW_AT_const_value(0x42
    2904              $C$DW$462       .dwtag  DW_TAG_enumerator, DW_AT_name("USER_ErrorCode_motor_Rr_Low"), DW_AT_const_value(0x43)
    2905              $C$DW$463       .dwtag  DW_TAG_enumerator, DW_AT_name("USER_ErrorCode_motor_Rs_High"), DW_AT_const_value(0x44
    2906              $C$DW$464       .dwtag  DW_TAG_enumerator, DW_AT_name("USER_ErrorCode_motor_Rs_Low"), DW_AT_const_value(0x45)
    2907              $C$DW$465       .dwtag  DW_TAG_enumerator, DW_AT_name("USER_ErrorCode_motor_Ls_d_High"), DW_AT_const_value(0x
    2908              $C$DW$466       .dwtag  DW_TAG_enumerator, DW_AT_name("USER_ErrorCode_motor_Ls_d_Low"), DW_AT_const_value(0x4
    2909              $C$DW$467       .dwtag  DW_TAG_enumerator, DW_AT_name("USER_ErrorCode_motor_Ls_q_High"), DW_AT_const_value(0x
    2910              $C$DW$468       .dwtag  DW_TAG_enumerator, DW_AT_name("USER_ErrorCode_motor_Ls_q_Low"), DW_AT_const_value(0x4
    2911              $C$DW$469       .dwtag  DW_TAG_enumerator, DW_AT_name("USER_ErrorCode_maxCurrent_High"), DW_AT_const_value(0x
    2912              $C$DW$470       .dwtag  DW_TAG_enumerator, DW_AT_name("USER_ErrorCode_maxCurrent_Low"), DW_AT_const_value(0x4
    2913              $C$DW$471       .dwtag  DW_TAG_enumerator, DW_AT_name("USER_ErrorCode_maxCurrent_resEst_High"), DW_AT_const_v
    2914              $C$DW$472       .dwtag  DW_TAG_enumerator, DW_AT_name("USER_ErrorCode_maxCurrent_resEst_Low"), DW_AT_const_va
    2915              $C$DW$473       .dwtag  DW_TAG_enumerator, DW_AT_name("USER_ErrorCode_maxCurrent_indEst_High"), DW_AT_const_v
    2916              $C$DW$474       .dwtag  DW_TAG_enumerator, DW_AT_name("USER_ErrorCode_maxCurrent_indEst_Low"), DW_AT_const_va
    2917              $C$DW$475       .dwtag  DW_TAG_enumerator, DW_AT_name("USER_ErrorCode_maxCurrentSlope_High"), DW_AT_const_val
    2918              $C$DW$476       .dwtag  DW_TAG_enumerator, DW_AT_name("USER_ErrorCode_maxCurrentSlope_Low"), DW_AT_const_valu
    2919              $C$DW$477       .dwtag  DW_TAG_enumerator, DW_AT_name("USER_ErrorCode_maxCurrentSlope_powerWarp_High"), DW_AT
    2920              $C$DW$478       .dwtag  DW_TAG_enumerator, DW_AT_name("USER_ErrorCode_maxCurrentSlope_powerWarp_Low"), DW_AT_
    2921              $C$DW$479       .dwtag  DW_TAG_enumerator, DW_AT_name("USER_ErrorCode_IdRated_High"), DW_AT_const_value(0x54)
    2922              $C$DW$480       .dwtag  DW_TAG_enumerator, DW_AT_name("USER_ErrorCode_IdRated_Low"), DW_AT_const_value(0x55)
    2923              $C$DW$481       .dwtag  DW_TAG_enumerator, DW_AT_name("USER_ErrorCode_IdRatedFraction_indEst_High"), DW_AT_co
    2924              $C$DW$482       .dwtag  DW_TAG_enumerator, DW_AT_name("USER_ErrorCode_IdRatedFraction_indEst_Low"), DW_AT_con
    2925              $C$DW$483       .dwtag  DW_TAG_enumerator, DW_AT_name("USER_ErrorCode_IdRatedFraction_ratedFlux_High"), DW_AT
    2926              $C$DW$484       .dwtag  DW_TAG_enumerator, DW_AT_name("USER_ErrorCode_IdRatedFraction_ratedFlux_Low"), DW_AT_
    2927              $C$DW$485       .dwtag  DW_TAG_enumerator, DW_AT_name("USER_ErrorCode_IdRated_delta_High"), DW_AT_const_value
    2928              $C$DW$486       .dwtag  DW_TAG_enumerator, DW_AT_name("USER_ErrorCode_IdRated_delta_Low"), DW_AT_const_value(
    2929              $C$DW$487       .dwtag  DW_TAG_enumerator, DW_AT_name("USER_ErrorCode_fluxEstFreq_Hz_High"), DW_AT_const_valu
    2930              $C$DW$488       .dwtag  DW_TAG_enumerator, DW_AT_name("USER_ErrorCode_fluxEstFreq_Hz_Low"), DW_AT_const_value
    2931              $C$DW$489       .dwtag  DW_TAG_enumerator, DW_AT_name("USER_ErrorCode_ctrlFreq_Hz_High"), DW_AT_const_value(0
    2932              $C$DW$490       .dwtag  DW_TAG_enumerator, DW_AT_name("USER_ErrorCode_ctrlFreq_Hz_Low"), DW_AT_const_value(0x
    2933              $C$DW$491       .dwtag  DW_TAG_enumerator, DW_AT_name("USER_ErrorCode_estFreq_Hz_High"), DW_AT_const_value(0x
    2934              $C$DW$492       .dwtag  DW_TAG_enumerator, DW_AT_name("USER_ErrorCode_estFreq_Hz_Low"), DW_AT_const_value(0x6
    2935              $C$DW$493       .dwtag  DW_TAG_enumerator, DW_AT_name("USER_ErrorCode_RoverL_estFreq_Hz_High"), DW_AT_const_v
    2936              $C$DW$494       .dwtag  DW_TAG_enumerator, DW_AT_name("USER_ErrorCode_RoverL_estFreq_Hz_Low"), DW_AT_const_va
    2937              $C$DW$495       .dwtag  DW_TAG_enumerator, DW_AT_name("USER_ErrorCode_trajFreq_Hz_High"), DW_AT_const_value(0
    2938              $C$DW$496       .dwtag  DW_TAG_enumerator, DW_AT_name("USER_ErrorCode_trajFreq_Hz_Low"), DW_AT_const_value(0x
    2939              $C$DW$497       .dwtag  DW_TAG_enumerator, DW_AT_name("USER_ErrorCode_ctrlPeriod_sec_High"), DW_AT_const_valu
    2940              $C$DW$498       .dwtag  DW_TAG_enumerator, DW_AT_name("USER_ErrorCode_ctrlPeriod_sec_Low"), DW_AT_const_value
    2941              $C$DW$499       .dwtag  DW_TAG_enumerator, DW_AT_name("USER_ErrorCode_maxNegativeIdCurrent_a_High"), DW_AT_co
    2942              $C$DW$500       .dwtag  DW_TAG_enumerator, DW_AT_name("USER_ErrorCode_maxNegativeIdCurrent_a_Low"), DW_AT_con
    2943              $C$DW$501       .dwtag  DW_TAG_enumerator, DW_AT_name("USER_numErrorCodes"), DW_AT_const_value(0x6a)
    2944                      .dwendtag $C$DW$T$184
    2945              
    2946              $C$DW$T$185     .dwtag  DW_TAG_typedef, DW_AT_name("USER_ErrorCode_e")
    2947                      .dwattr $C$DW$T$185, DW_AT_type(*$C$DW$T$184)
    2948                      .dwattr $C$DW$T$185, DW_AT_language(DW_LANG_C)
    2949              
    2950              $C$DW$T$188     .dwtag  DW_TAG_enumeration_type
    2951                      .dwattr $C$DW$T$188, DW_AT_byte_size(0x01)
    2952              $C$DW$502       .dwtag  DW_TAG_enumerator, DW_AT_name("MOTOR_Type_Induction"), DW_AT_const_value(0x00)
    2953              $C$DW$503       .dwtag  DW_TAG_enumerator, DW_AT_name("MOTOR_Type_Pm"), DW_AT_const_value(0x01)
    2954                      .dwendtag $C$DW$T$188
    2955              
    2956              $C$DW$T$189     .dwtag  DW_TAG_typedef, DW_AT_name("MOTOR_Type_e")
    2957                      .dwattr $C$DW$T$189, DW_AT_type(*$C$DW$T$188)
TMS320C2000 Assembler PC v6.2.5 Tue Nov 21 22:57:45 2017

Tools Copyright (c) 1996-2014 Texas Instruments Incorporated
C:\Users\wmj\AppData\Local\Temp\1055210                              PAGE   58

    2958                      .dwattr $C$DW$T$189, DW_AT_language(DW_LANG_C)
    2959              
    2960              $C$DW$T$245     .dwtag  DW_TAG_enumeration_type
    2961                      .dwattr $C$DW$T$245, DW_AT_byte_size(0x01)
    2962              $C$DW$504       .dwtag  DW_TAG_enumerator, DW_AT_name("ADC_IntNumber_1"), DW_AT_const_value(0x00)
    2963              $C$DW$505       .dwtag  DW_TAG_enumerator, DW_AT_name("ADC_IntNumber_2"), DW_AT_const_value(0x01)
    2964              $C$DW$506       .dwtag  DW_TAG_enumerator, DW_AT_name("ADC_IntNumber_3"), DW_AT_const_value(0x02)
    2965              $C$DW$507       .dwtag  DW_TAG_enumerator, DW_AT_name("ADC_IntNumber_4"), DW_AT_const_value(0x03)
    2966              $C$DW$508       .dwtag  DW_TAG_enumerator, DW_AT_name("ADC_IntNumber_5"), DW_AT_const_value(0x04)
    2967              $C$DW$509       .dwtag  DW_TAG_enumerator, DW_AT_name("ADC_IntNumber_6"), DW_AT_const_value(0x05)
    2968              $C$DW$510       .dwtag  DW_TAG_enumerator, DW_AT_name("ADC_IntNumber_7"), DW_AT_const_value(0x06)
    2969              $C$DW$511       .dwtag  DW_TAG_enumerator, DW_AT_name("ADC_IntNumber_8"), DW_AT_const_value(0x07)
    2970              $C$DW$512       .dwtag  DW_TAG_enumerator, DW_AT_name("ADC_IntNumber_9"), DW_AT_const_value(0x08)
    2971              $C$DW$513       .dwtag  DW_TAG_enumerator, DW_AT_name("ADC_IntNumber_1HP"), DW_AT_const_value(0x09)
    2972              $C$DW$514       .dwtag  DW_TAG_enumerator, DW_AT_name("ADC_IntNumber_2HP"), DW_AT_const_value(0x0a)
    2973              $C$DW$515       .dwtag  DW_TAG_enumerator, DW_AT_name("ADC_IntNumber_9HP"), DW_AT_const_value(0x0e)
    2974                      .dwendtag $C$DW$T$245
    2975              
    2976              $C$DW$T$246     .dwtag  DW_TAG_typedef, DW_AT_name("ADC_IntNumber_e")
    2977                      .dwattr $C$DW$T$246, DW_AT_type(*$C$DW$T$245)
    2978                      .dwattr $C$DW$T$246, DW_AT_language(DW_LANG_C)
    2979              
    2980              $C$DW$T$248     .dwtag  DW_TAG_enumeration_type
    2981                      .dwattr $C$DW$T$248, DW_AT_byte_size(0x01)
    2982              $C$DW$516       .dwtag  DW_TAG_enumerator, DW_AT_name("ADC_ResultNumber_0"), DW_AT_const_value(0x00)
    2983              $C$DW$517       .dwtag  DW_TAG_enumerator, DW_AT_name("ADC_ResultNumber_1"), DW_AT_const_value(0x01)
    2984              $C$DW$518       .dwtag  DW_TAG_enumerator, DW_AT_name("ADC_ResultNumber_2"), DW_AT_const_value(0x02)
    2985              $C$DW$519       .dwtag  DW_TAG_enumerator, DW_AT_name("ADC_ResultNumber_3"), DW_AT_const_value(0x03)
    2986              $C$DW$520       .dwtag  DW_TAG_enumerator, DW_AT_name("ADC_ResultNumber_4"), DW_AT_const_value(0x04)
    2987              $C$DW$521       .dwtag  DW_TAG_enumerator, DW_AT_name("ADC_ResultNumber_5"), DW_AT_const_value(0x05)
    2988              $C$DW$522       .dwtag  DW_TAG_enumerator, DW_AT_name("ADC_ResultNumber_6"), DW_AT_const_value(0x06)
    2989              $C$DW$523       .dwtag  DW_TAG_enumerator, DW_AT_name("ADC_ResultNumber_7"), DW_AT_const_value(0x07)
    2990              $C$DW$524       .dwtag  DW_TAG_enumerator, DW_AT_name("ADC_ResultNumber_8"), DW_AT_const_value(0x08)
    2991              $C$DW$525       .dwtag  DW_TAG_enumerator, DW_AT_name("ADC_ResultNumber_9"), DW_AT_const_value(0x09)
    2992              $C$DW$526       .dwtag  DW_TAG_enumerator, DW_AT_name("ADC_ResultNumber_10"), DW_AT_const_value(0x0a)
    2993              $C$DW$527       .dwtag  DW_TAG_enumerator, DW_AT_name("ADC_ResultNumber_11"), DW_AT_const_value(0x0b)
    2994              $C$DW$528       .dwtag  DW_TAG_enumerator, DW_AT_name("ADC_ResultNumber_12"), DW_AT_const_value(0x0c)
    2995              $C$DW$529       .dwtag  DW_TAG_enumerator, DW_AT_name("ADC_ResultNumber_13"), DW_AT_const_value(0x0d)
    2996              $C$DW$530       .dwtag  DW_TAG_enumerator, DW_AT_name("ADC_ResultNumber_14"), DW_AT_const_value(0x0e)
    2997              $C$DW$531       .dwtag  DW_TAG_enumerator, DW_AT_name("ADC_ResultNumber_15"), DW_AT_const_value(0x0f)
    2998                      .dwendtag $C$DW$T$248
    2999              
    3000              $C$DW$T$249     .dwtag  DW_TAG_typedef, DW_AT_name("ADC_ResultNumber_e")
    3001                      .dwattr $C$DW$T$249, DW_AT_type(*$C$DW$T$248)
    3002                      .dwattr $C$DW$T$249, DW_AT_language(DW_LANG_C)
    3003              
    3004              $C$DW$T$251     .dwtag  DW_TAG_enumeration_type
    3005                      .dwattr $C$DW$T$251, DW_AT_byte_size(0x01)
    3006              $C$DW$532       .dwtag  DW_TAG_enumerator, DW_AT_name("GPIO_Number_0"), DW_AT_const_value(0x00)
    3007              $C$DW$533       .dwtag  DW_TAG_enumerator, DW_AT_name("GPIO_Number_1"), DW_AT_const_value(0x01)
    3008              $C$DW$534       .dwtag  DW_TAG_enumerator, DW_AT_name("GPIO_Number_2"), DW_AT_const_value(0x02)
    3009              $C$DW$535       .dwtag  DW_TAG_enumerator, DW_AT_name("GPIO_Number_3"), DW_AT_const_value(0x03)
    3010              $C$DW$536       .dwtag  DW_TAG_enumerator, DW_AT_name("GPIO_Number_4"), DW_AT_const_value(0x04)
    3011              $C$DW$537       .dwtag  DW_TAG_enumerator, DW_AT_name("GPIO_Number_5"), DW_AT_const_value(0x05)
    3012              $C$DW$538       .dwtag  DW_TAG_enumerator, DW_AT_name("GPIO_Number_6"), DW_AT_const_value(0x06)
TMS320C2000 Assembler PC v6.2.5 Tue Nov 21 22:57:45 2017

Tools Copyright (c) 1996-2014 Texas Instruments Incorporated
C:\Users\wmj\AppData\Local\Temp\1055210                              PAGE   59

    3013              $C$DW$539       .dwtag  DW_TAG_enumerator, DW_AT_name("GPIO_Number_7"), DW_AT_const_value(0x07)
    3014              $C$DW$540       .dwtag  DW_TAG_enumerator, DW_AT_name("GPIO_Rsvd_8"), DW_AT_const_value(0x08)
    3015              $C$DW$541       .dwtag  DW_TAG_enumerator, DW_AT_name("GPIO_Rsvd_9"), DW_AT_const_value(0x09)
    3016              $C$DW$542       .dwtag  DW_TAG_enumerator, DW_AT_name("GPIO_Rsvd_10"), DW_AT_const_value(0x0a)
    3017              $C$DW$543       .dwtag  DW_TAG_enumerator, DW_AT_name("GPIO_Rsvd_11"), DW_AT_const_value(0x0b)
    3018              $C$DW$544       .dwtag  DW_TAG_enumerator, DW_AT_name("GPIO_Number_12"), DW_AT_const_value(0x0c)
    3019              $C$DW$545       .dwtag  DW_TAG_enumerator, DW_AT_name("GPIO_Rsvd_13"), DW_AT_const_value(0x0d)
    3020              $C$DW$546       .dwtag  DW_TAG_enumerator, DW_AT_name("GPIO_Rsvd_14"), DW_AT_const_value(0x0e)
    3021              $C$DW$547       .dwtag  DW_TAG_enumerator, DW_AT_name("GPIO_Rsvd_15"), DW_AT_const_value(0x0f)
    3022              $C$DW$548       .dwtag  DW_TAG_enumerator, DW_AT_name("GPIO_Number_16"), DW_AT_const_value(0x10)
    3023              $C$DW$549       .dwtag  DW_TAG_enumerator, DW_AT_name("GPIO_Number_17"), DW_AT_const_value(0x11)
    3024              $C$DW$550       .dwtag  DW_TAG_enumerator, DW_AT_name("GPIO_Number_18"), DW_AT_const_value(0x12)
    3025              $C$DW$551       .dwtag  DW_TAG_enumerator, DW_AT_name("GPIO_Number_19"), DW_AT_const_value(0x13)
    3026              $C$DW$552       .dwtag  DW_TAG_enumerator, DW_AT_name("GPIO_Rsvd_20"), DW_AT_const_value(0x14)
    3027              $C$DW$553       .dwtag  DW_TAG_enumerator, DW_AT_name("GPIO_Rsvd_21"), DW_AT_const_value(0x15)
    3028              $C$DW$554       .dwtag  DW_TAG_enumerator, DW_AT_name("GPIO_Rsvd_22"), DW_AT_const_value(0x16)
    3029              $C$DW$555       .dwtag  DW_TAG_enumerator, DW_AT_name("GPIO_Rsvd_23"), DW_AT_const_value(0x17)
    3030              $C$DW$556       .dwtag  DW_TAG_enumerator, DW_AT_name("GPIO_Rsvd_24"), DW_AT_const_value(0x18)
    3031              $C$DW$557       .dwtag  DW_TAG_enumerator, DW_AT_name("GPIO_Rsvd_25"), DW_AT_const_value(0x19)
    3032              $C$DW$558       .dwtag  DW_TAG_enumerator, DW_AT_name("GPIO_Rsvd_26"), DW_AT_const_value(0x1a)
    3033              $C$DW$559       .dwtag  DW_TAG_enumerator, DW_AT_name("GPIO_Rsvd_27"), DW_AT_const_value(0x1b)
    3034              $C$DW$560       .dwtag  DW_TAG_enumerator, DW_AT_name("GPIO_Number_28"), DW_AT_const_value(0x1c)
    3035              $C$DW$561       .dwtag  DW_TAG_enumerator, DW_AT_name("GPIO_Number_29"), DW_AT_const_value(0x1d)
    3036              $C$DW$562       .dwtag  DW_TAG_enumerator, DW_AT_name("GPIO_Rsvd_30"), DW_AT_const_value(0x1e)
    3037              $C$DW$563       .dwtag  DW_TAG_enumerator, DW_AT_name("GPIO_Rsvd_31"), DW_AT_const_value(0x1f)
    3038              $C$DW$564       .dwtag  DW_TAG_enumerator, DW_AT_name("GPIO_Number_32"), DW_AT_const_value(0x20)
    3039              $C$DW$565       .dwtag  DW_TAG_enumerator, DW_AT_name("GPIO_Number_33"), DW_AT_const_value(0x21)
    3040              $C$DW$566       .dwtag  DW_TAG_enumerator, DW_AT_name("GPIO_Number_34"), DW_AT_const_value(0x22)
    3041              $C$DW$567       .dwtag  DW_TAG_enumerator, DW_AT_name("GPIO_Number_35"), DW_AT_const_value(0x23)
    3042              $C$DW$568       .dwtag  DW_TAG_enumerator, DW_AT_name("GPIO_Number_36"), DW_AT_const_value(0x24)
    3043              $C$DW$569       .dwtag  DW_TAG_enumerator, DW_AT_name("GPIO_Number_37"), DW_AT_const_value(0x25)
    3044              $C$DW$570       .dwtag  DW_TAG_enumerator, DW_AT_name("GPIO_Number_38"), DW_AT_const_value(0x26)
    3045              $C$DW$571       .dwtag  DW_TAG_enumerator, DW_AT_name("GPIO_numGpios"), DW_AT_const_value(0x27)
    3046                      .dwendtag $C$DW$T$251
    3047              
    3048              $C$DW$T$252     .dwtag  DW_TAG_typedef, DW_AT_name("GPIO_Number_e")
    3049                      .dwattr $C$DW$T$252, DW_AT_type(*$C$DW$T$251)
    3050                      .dwattr $C$DW$T$252, DW_AT_language(DW_LANG_C)
    3051              $C$DW$572       .dwtag  DW_TAG_TI_far_type
    3052                      .dwattr $C$DW$572, DW_AT_type(*$C$DW$T$252)
    3053              $C$DW$T$253     .dwtag  DW_TAG_const_type
    3054                      .dwattr $C$DW$T$253, DW_AT_type(*$C$DW$572)
    3055              
    3056              $C$DW$T$254     .dwtag  DW_TAG_enumeration_type
    3057                      .dwattr $C$DW$T$254, DW_AT_byte_size(0x01)
    3058              $C$DW$573       .dwtag  DW_TAG_enumerator, DW_AT_name("PIE_GroupNumber_1"), DW_AT_const_value(0x00)
    3059              $C$DW$574       .dwtag  DW_TAG_enumerator, DW_AT_name("PIE_GroupNumber_2"), DW_AT_const_value(0x01)
    3060              $C$DW$575       .dwtag  DW_TAG_enumerator, DW_AT_name("PIE_GroupNumber_3"), DW_AT_const_value(0x02)
    3061              $C$DW$576       .dwtag  DW_TAG_enumerator, DW_AT_name("PIE_GroupNumber_4"), DW_AT_const_value(0x03)
    3062              $C$DW$577       .dwtag  DW_TAG_enumerator, DW_AT_name("PIE_GroupNumber_5"), DW_AT_const_value(0x04)
    3063              $C$DW$578       .dwtag  DW_TAG_enumerator, DW_AT_name("PIE_GroupNumber_6"), DW_AT_const_value(0x05)
    3064              $C$DW$579       .dwtag  DW_TAG_enumerator, DW_AT_name("PIE_GroupNumber_7"), DW_AT_const_value(0x06)
    3065              $C$DW$580       .dwtag  DW_TAG_enumerator, DW_AT_name("PIE_GroupNumber_8"), DW_AT_const_value(0x07)
    3066              $C$DW$581       .dwtag  DW_TAG_enumerator, DW_AT_name("PIE_GroupNumber_9"), DW_AT_const_value(0x08)
    3067              $C$DW$582       .dwtag  DW_TAG_enumerator, DW_AT_name("PIE_GroupNumber_10"), DW_AT_const_value(0x09)
TMS320C2000 Assembler PC v6.2.5 Tue Nov 21 22:57:45 2017

Tools Copyright (c) 1996-2014 Texas Instruments Incorporated
C:\Users\wmj\AppData\Local\Temp\1055210                              PAGE   60

    3068              $C$DW$583       .dwtag  DW_TAG_enumerator, DW_AT_name("PIE_GroupNumber_11"), DW_AT_const_value(0x0a)
    3069              $C$DW$584       .dwtag  DW_TAG_enumerator, DW_AT_name("PIE_GroupNumber_12"), DW_AT_const_value(0x0b)
    3070                      .dwendtag $C$DW$T$254
    3071              
    3072              $C$DW$T$255     .dwtag  DW_TAG_typedef, DW_AT_name("PIE_GroupNumber_e")
    3073                      .dwattr $C$DW$T$255, DW_AT_type(*$C$DW$T$254)
    3074                      .dwattr $C$DW$T$255, DW_AT_language(DW_LANG_C)
    3075              
    3076              $C$DW$T$30      .dwtag  DW_TAG_structure_type
    3077                      .dwattr $C$DW$T$30, DW_AT_name("_ADC_Obj_")
    3078                      .dwattr $C$DW$T$30, DW_AT_byte_size(0x6650)
    3079              $C$DW$585       .dwtag  DW_TAG_member
    3080                      .dwattr $C$DW$585, DW_AT_type(*$C$DW$T$24)
    3081                      .dwattr $C$DW$585, DW_AT_name("ADCRESULT")
    3082                      .dwattr $C$DW$585, DW_AT_TI_symbol_name("_ADCRESULT")
    3083                      .dwattr $C$DW$585, DW_AT_data_member_location[DW_OP_plus_uconst 0x0]
    3084                      .dwattr $C$DW$585, DW_AT_accessibility(DW_ACCESS_public)
    3085              $C$DW$586       .dwtag  DW_TAG_member
    3086                      .dwattr $C$DW$586, DW_AT_type(*$C$DW$T$25)
    3087                      .dwattr $C$DW$586, DW_AT_name("resvd_1")
    3088                      .dwattr $C$DW$586, DW_AT_TI_symbol_name("_resvd_1")
    3089                      .dwattr $C$DW$586, DW_AT_data_member_location[DW_OP_plus_uconst 0x10]
    3090                      .dwattr $C$DW$586, DW_AT_accessibility(DW_ACCESS_public)
    3091              $C$DW$587       .dwtag  DW_TAG_member
    3092                      .dwattr $C$DW$587, DW_AT_type(*$C$DW$T$23)
    3093                      .dwattr $C$DW$587, DW_AT_name("ADCCTL1")
    3094                      .dwattr $C$DW$587, DW_AT_TI_symbol_name("_ADCCTL1")
    3095                      .dwattr $C$DW$587, DW_AT_data_member_location[DW_OP_plus_uconst 0x6600]
    3096                      .dwattr $C$DW$587, DW_AT_accessibility(DW_ACCESS_public)
    3097              $C$DW$588       .dwtag  DW_TAG_member
    3098                      .dwattr $C$DW$588, DW_AT_type(*$C$DW$T$23)
    3099                      .dwattr $C$DW$588, DW_AT_name("ADCCTL2")
    3100                      .dwattr $C$DW$588, DW_AT_TI_symbol_name("_ADCCTL2")
    3101                      .dwattr $C$DW$588, DW_AT_data_member_location[DW_OP_plus_uconst 0x6601]
    3102                      .dwattr $C$DW$588, DW_AT_accessibility(DW_ACCESS_public)
    3103              $C$DW$589       .dwtag  DW_TAG_member
    3104                      .dwattr $C$DW$589, DW_AT_type(*$C$DW$T$26)
    3105                      .dwattr $C$DW$589, DW_AT_name("rsvd_2")
    3106                      .dwattr $C$DW$589, DW_AT_TI_symbol_name("_rsvd_2")
    3107                      .dwattr $C$DW$589, DW_AT_data_member_location[DW_OP_plus_uconst 0x6602]
    3108                      .dwattr $C$DW$589, DW_AT_accessibility(DW_ACCESS_public)
    3109              $C$DW$590       .dwtag  DW_TAG_member
    3110                      .dwattr $C$DW$590, DW_AT_type(*$C$DW$T$23)
    3111                      .dwattr $C$DW$590, DW_AT_name("ADCINTFLG")
    3112                      .dwattr $C$DW$590, DW_AT_TI_symbol_name("_ADCINTFLG")
    3113                      .dwattr $C$DW$590, DW_AT_data_member_location[DW_OP_plus_uconst 0x6604]
    3114                      .dwattr $C$DW$590, DW_AT_accessibility(DW_ACCESS_public)
    3115              $C$DW$591       .dwtag  DW_TAG_member
    3116                      .dwattr $C$DW$591, DW_AT_type(*$C$DW$T$23)
    3117                      .dwattr $C$DW$591, DW_AT_name("ADCINTFLGCLR")
    3118                      .dwattr $C$DW$591, DW_AT_TI_symbol_name("_ADCINTFLGCLR")
    3119                      .dwattr $C$DW$591, DW_AT_data_member_location[DW_OP_plus_uconst 0x6605]
    3120                      .dwattr $C$DW$591, DW_AT_accessibility(DW_ACCESS_public)
    3121              $C$DW$592       .dwtag  DW_TAG_member
    3122                      .dwattr $C$DW$592, DW_AT_type(*$C$DW$T$23)
TMS320C2000 Assembler PC v6.2.5 Tue Nov 21 22:57:45 2017

Tools Copyright (c) 1996-2014 Texas Instruments Incorporated
C:\Users\wmj\AppData\Local\Temp\1055210                              PAGE   61

    3123                      .dwattr $C$DW$592, DW_AT_name("ADCINTOVF")
    3124                      .dwattr $C$DW$592, DW_AT_TI_symbol_name("_ADCINTOVF")
    3125                      .dwattr $C$DW$592, DW_AT_data_member_location[DW_OP_plus_uconst 0x6606]
    3126                      .dwattr $C$DW$592, DW_AT_accessibility(DW_ACCESS_public)
    3127              $C$DW$593       .dwtag  DW_TAG_member
    3128                      .dwattr $C$DW$593, DW_AT_type(*$C$DW$T$23)
    3129                      .dwattr $C$DW$593, DW_AT_name("ADCINTOVFCLR")
    3130                      .dwattr $C$DW$593, DW_AT_TI_symbol_name("_ADCINTOVFCLR")
    3131                      .dwattr $C$DW$593, DW_AT_data_member_location[DW_OP_plus_uconst 0x6607]
    3132                      .dwattr $C$DW$593, DW_AT_accessibility(DW_ACCESS_public)
    3133              $C$DW$594       .dwtag  DW_TAG_member
    3134                      .dwattr $C$DW$594, DW_AT_type(*$C$DW$T$27)
    3135                      .dwattr $C$DW$594, DW_AT_name("INTSELxNy")
    3136                      .dwattr $C$DW$594, DW_AT_TI_symbol_name("_INTSELxNy")
    3137                      .dwattr $C$DW$594, DW_AT_data_member_location[DW_OP_plus_uconst 0x6608]
    3138                      .dwattr $C$DW$594, DW_AT_accessibility(DW_ACCESS_public)
    3139              $C$DW$595       .dwtag  DW_TAG_member
    3140                      .dwattr $C$DW$595, DW_AT_type(*$C$DW$T$28)
    3141                      .dwattr $C$DW$595, DW_AT_name("rsvd_3")
    3142                      .dwattr $C$DW$595, DW_AT_TI_symbol_name("_rsvd_3")
    3143                      .dwattr $C$DW$595, DW_AT_data_member_location[DW_OP_plus_uconst 0x660d]
    3144                      .dwattr $C$DW$595, DW_AT_accessibility(DW_ACCESS_public)
    3145              $C$DW$596       .dwtag  DW_TAG_member
    3146                      .dwattr $C$DW$596, DW_AT_type(*$C$DW$T$23)
    3147                      .dwattr $C$DW$596, DW_AT_name("SOCPRICTRL")
    3148                      .dwattr $C$DW$596, DW_AT_TI_symbol_name("_SOCPRICTRL")
    3149                      .dwattr $C$DW$596, DW_AT_data_member_location[DW_OP_plus_uconst 0x6610]
    3150                      .dwattr $C$DW$596, DW_AT_accessibility(DW_ACCESS_public)
    3151              $C$DW$597       .dwtag  DW_TAG_member
    3152                      .dwattr $C$DW$597, DW_AT_type(*$C$DW$T$23)
    3153                      .dwattr $C$DW$597, DW_AT_name("rsvd_4")
    3154                      .dwattr $C$DW$597, DW_AT_TI_symbol_name("_rsvd_4")
    3155                      .dwattr $C$DW$597, DW_AT_data_member_location[DW_OP_plus_uconst 0x6611]
    3156                      .dwattr $C$DW$597, DW_AT_accessibility(DW_ACCESS_public)
    3157              $C$DW$598       .dwtag  DW_TAG_member
    3158                      .dwattr $C$DW$598, DW_AT_type(*$C$DW$T$23)
    3159                      .dwattr $C$DW$598, DW_AT_name("ADCSAMPLEMODE")
    3160                      .dwattr $C$DW$598, DW_AT_TI_symbol_name("_ADCSAMPLEMODE")
    3161                      .dwattr $C$DW$598, DW_AT_data_member_location[DW_OP_plus_uconst 0x6612]
    3162                      .dwattr $C$DW$598, DW_AT_accessibility(DW_ACCESS_public)
    3163              $C$DW$599       .dwtag  DW_TAG_member
    3164                      .dwattr $C$DW$599, DW_AT_type(*$C$DW$T$23)
    3165                      .dwattr $C$DW$599, DW_AT_name("rsvd_5")
    3166                      .dwattr $C$DW$599, DW_AT_TI_symbol_name("_rsvd_5")
    3167                      .dwattr $C$DW$599, DW_AT_data_member_location[DW_OP_plus_uconst 0x6613]
    3168                      .dwattr $C$DW$599, DW_AT_accessibility(DW_ACCESS_public)
    3169              $C$DW$600       .dwtag  DW_TAG_member
    3170                      .dwattr $C$DW$600, DW_AT_type(*$C$DW$T$23)
    3171                      .dwattr $C$DW$600, DW_AT_name("ADCINTSOCSEL1")
    3172                      .dwattr $C$DW$600, DW_AT_TI_symbol_name("_ADCINTSOCSEL1")
    3173                      .dwattr $C$DW$600, DW_AT_data_member_location[DW_OP_plus_uconst 0x6614]
    3174                      .dwattr $C$DW$600, DW_AT_accessibility(DW_ACCESS_public)
    3175              $C$DW$601       .dwtag  DW_TAG_member
    3176                      .dwattr $C$DW$601, DW_AT_type(*$C$DW$T$23)
    3177                      .dwattr $C$DW$601, DW_AT_name("ADCINTSOCSEL2")
TMS320C2000 Assembler PC v6.2.5 Tue Nov 21 22:57:45 2017

Tools Copyright (c) 1996-2014 Texas Instruments Incorporated
C:\Users\wmj\AppData\Local\Temp\1055210                              PAGE   62

    3178                      .dwattr $C$DW$601, DW_AT_TI_symbol_name("_ADCINTSOCSEL2")
    3179                      .dwattr $C$DW$601, DW_AT_data_member_location[DW_OP_plus_uconst 0x6615]
    3180                      .dwattr $C$DW$601, DW_AT_accessibility(DW_ACCESS_public)
    3181              $C$DW$602       .dwtag  DW_TAG_member
    3182                      .dwattr $C$DW$602, DW_AT_type(*$C$DW$T$26)
    3183                      .dwattr $C$DW$602, DW_AT_name("rsvd_6")
    3184                      .dwattr $C$DW$602, DW_AT_TI_symbol_name("_rsvd_6")
    3185                      .dwattr $C$DW$602, DW_AT_data_member_location[DW_OP_plus_uconst 0x6616]
    3186                      .dwattr $C$DW$602, DW_AT_accessibility(DW_ACCESS_public)
    3187              $C$DW$603       .dwtag  DW_TAG_member
    3188                      .dwattr $C$DW$603, DW_AT_type(*$C$DW$T$23)
    3189                      .dwattr $C$DW$603, DW_AT_name("ADCSOCFLG1")
    3190                      .dwattr $C$DW$603, DW_AT_TI_symbol_name("_ADCSOCFLG1")
    3191                      .dwattr $C$DW$603, DW_AT_data_member_location[DW_OP_plus_uconst 0x6618]
    3192                      .dwattr $C$DW$603, DW_AT_accessibility(DW_ACCESS_public)
    3193              $C$DW$604       .dwtag  DW_TAG_member
    3194                      .dwattr $C$DW$604, DW_AT_type(*$C$DW$T$23)
    3195                      .dwattr $C$DW$604, DW_AT_name("rsvd_7")
    3196                      .dwattr $C$DW$604, DW_AT_TI_symbol_name("_rsvd_7")
    3197                      .dwattr $C$DW$604, DW_AT_data_member_location[DW_OP_plus_uconst 0x6619]
    3198                      .dwattr $C$DW$604, DW_AT_accessibility(DW_ACCESS_public)
    3199              $C$DW$605       .dwtag  DW_TAG_member
    3200                      .dwattr $C$DW$605, DW_AT_type(*$C$DW$T$23)
    3201                      .dwattr $C$DW$605, DW_AT_name("ADCSOCFRC1")
    3202                      .dwattr $C$DW$605, DW_AT_TI_symbol_name("_ADCSOCFRC1")
    3203                      .dwattr $C$DW$605, DW_AT_data_member_location[DW_OP_plus_uconst 0x661a]
    3204                      .dwattr $C$DW$605, DW_AT_accessibility(DW_ACCESS_public)
    3205              $C$DW$606       .dwtag  DW_TAG_member
    3206                      .dwattr $C$DW$606, DW_AT_type(*$C$DW$T$23)
    3207                      .dwattr $C$DW$606, DW_AT_name("rsvd_8")
    3208                      .dwattr $C$DW$606, DW_AT_TI_symbol_name("_rsvd_8")
    3209                      .dwattr $C$DW$606, DW_AT_data_member_location[DW_OP_plus_uconst 0x661b]
    3210                      .dwattr $C$DW$606, DW_AT_accessibility(DW_ACCESS_public)
    3211              $C$DW$607       .dwtag  DW_TAG_member
    3212                      .dwattr $C$DW$607, DW_AT_type(*$C$DW$T$23)
    3213                      .dwattr $C$DW$607, DW_AT_name("ADCSOCOVF1")
    3214                      .dwattr $C$DW$607, DW_AT_TI_symbol_name("_ADCSOCOVF1")
    3215                      .dwattr $C$DW$607, DW_AT_data_member_location[DW_OP_plus_uconst 0x661c]
    3216                      .dwattr $C$DW$607, DW_AT_accessibility(DW_ACCESS_public)
    3217              $C$DW$608       .dwtag  DW_TAG_member
    3218                      .dwattr $C$DW$608, DW_AT_type(*$C$DW$T$23)
    3219                      .dwattr $C$DW$608, DW_AT_name("rsvd_9")
    3220                      .dwattr $C$DW$608, DW_AT_TI_symbol_name("_rsvd_9")
    3221                      .dwattr $C$DW$608, DW_AT_data_member_location[DW_OP_plus_uconst 0x661d]
    3222                      .dwattr $C$DW$608, DW_AT_accessibility(DW_ACCESS_public)
    3223              $C$DW$609       .dwtag  DW_TAG_member
    3224                      .dwattr $C$DW$609, DW_AT_type(*$C$DW$T$23)
    3225                      .dwattr $C$DW$609, DW_AT_name("ADCSOCOVFCLR1")
    3226                      .dwattr $C$DW$609, DW_AT_TI_symbol_name("_ADCSOCOVFCLR1")
    3227                      .dwattr $C$DW$609, DW_AT_data_member_location[DW_OP_plus_uconst 0x661e]
    3228                      .dwattr $C$DW$609, DW_AT_accessibility(DW_ACCESS_public)
    3229              $C$DW$610       .dwtag  DW_TAG_member
    3230                      .dwattr $C$DW$610, DW_AT_type(*$C$DW$T$23)
    3231                      .dwattr $C$DW$610, DW_AT_name("rsvd_10")
    3232                      .dwattr $C$DW$610, DW_AT_TI_symbol_name("_rsvd_10")
TMS320C2000 Assembler PC v6.2.5 Tue Nov 21 22:57:45 2017

Tools Copyright (c) 1996-2014 Texas Instruments Incorporated
C:\Users\wmj\AppData\Local\Temp\1055210                              PAGE   63

    3233                      .dwattr $C$DW$610, DW_AT_data_member_location[DW_OP_plus_uconst 0x661f]
    3234                      .dwattr $C$DW$610, DW_AT_accessibility(DW_ACCESS_public)
    3235              $C$DW$611       .dwtag  DW_TAG_member
    3236                      .dwattr $C$DW$611, DW_AT_type(*$C$DW$T$24)
    3237                      .dwattr $C$DW$611, DW_AT_name("ADCSOCxCTL")
    3238                      .dwattr $C$DW$611, DW_AT_TI_symbol_name("_ADCSOCxCTL")
    3239                      .dwattr $C$DW$611, DW_AT_data_member_location[DW_OP_plus_uconst 0x6620]
    3240                      .dwattr $C$DW$611, DW_AT_accessibility(DW_ACCESS_public)
    3241              $C$DW$612       .dwtag  DW_TAG_member
    3242                      .dwattr $C$DW$612, DW_AT_type(*$C$DW$T$24)
    3243                      .dwattr $C$DW$612, DW_AT_name("rsvd_11")
    3244                      .dwattr $C$DW$612, DW_AT_TI_symbol_name("_rsvd_11")
    3245                      .dwattr $C$DW$612, DW_AT_data_member_location[DW_OP_plus_uconst 0x6630]
    3246                      .dwattr $C$DW$612, DW_AT_accessibility(DW_ACCESS_public)
    3247              $C$DW$613       .dwtag  DW_TAG_member
    3248                      .dwattr $C$DW$613, DW_AT_type(*$C$DW$T$23)
    3249                      .dwattr $C$DW$613, DW_AT_name("ADCREFTRIM")
    3250                      .dwattr $C$DW$613, DW_AT_TI_symbol_name("_ADCREFTRIM")
    3251                      .dwattr $C$DW$613, DW_AT_data_member_location[DW_OP_plus_uconst 0x6640]
    3252                      .dwattr $C$DW$613, DW_AT_accessibility(DW_ACCESS_public)
    3253              $C$DW$614       .dwtag  DW_TAG_member
    3254                      .dwattr $C$DW$614, DW_AT_type(*$C$DW$T$23)
    3255                      .dwattr $C$DW$614, DW_AT_name("ADCOFFTRIM")
    3256                      .dwattr $C$DW$614, DW_AT_TI_symbol_name("_ADCOFFTRIM")
    3257                      .dwattr $C$DW$614, DW_AT_data_member_location[DW_OP_plus_uconst 0x6641]
    3258                      .dwattr $C$DW$614, DW_AT_accessibility(DW_ACCESS_public)
    3259              $C$DW$615       .dwtag  DW_TAG_member
    3260                      .dwattr $C$DW$615, DW_AT_type(*$C$DW$T$29)
    3261                      .dwattr $C$DW$615, DW_AT_name("resvd_12")
    3262                      .dwattr $C$DW$615, DW_AT_TI_symbol_name("_resvd_12")
    3263                      .dwattr $C$DW$615, DW_AT_data_member_location[DW_OP_plus_uconst 0x6642]
    3264                      .dwattr $C$DW$615, DW_AT_accessibility(DW_ACCESS_public)
    3265              $C$DW$616       .dwtag  DW_TAG_member
    3266                      .dwattr $C$DW$616, DW_AT_type(*$C$DW$T$23)
    3267                      .dwattr $C$DW$616, DW_AT_name("ADCREV")
    3268                      .dwattr $C$DW$616, DW_AT_TI_symbol_name("_ADCREV")
    3269                      .dwattr $C$DW$616, DW_AT_data_member_location[DW_OP_plus_uconst 0x664f]
    3270                      .dwattr $C$DW$616, DW_AT_accessibility(DW_ACCESS_public)
    3271                      .dwendtag $C$DW$T$30
    3272              
    3273              $C$DW$T$257     .dwtag  DW_TAG_typedef, DW_AT_name("ADC_Obj")
    3274                      .dwattr $C$DW$T$257, DW_AT_type(*$C$DW$T$30)
    3275                      .dwattr $C$DW$T$257, DW_AT_language(DW_LANG_C)
    3276              $C$DW$T$118     .dwtag  DW_TAG_pointer_type
    3277                      .dwattr $C$DW$T$118, DW_AT_type(*$C$DW$T$30)
    3278                      .dwattr $C$DW$T$118, DW_AT_address_class(0x16)
    3279              $C$DW$T$119     .dwtag  DW_TAG_typedef, DW_AT_name("ADC_Handle")
    3280                      .dwattr $C$DW$T$119, DW_AT_type(*$C$DW$T$118)
    3281                      .dwattr $C$DW$T$119, DW_AT_language(DW_LANG_C)
    3282              
    3283              $C$DW$T$34      .dwtag  DW_TAG_structure_type
    3284                      .dwattr $C$DW$T$34, DW_AT_name("_BRAKE_Obj_")
    3285                      .dwattr $C$DW$T$34, DW_AT_byte_size(0x08)
    3286              $C$DW$617       .dwtag  DW_TAG_member
    3287                      .dwattr $C$DW$617, DW_AT_type(*$C$DW$T$31)
TMS320C2000 Assembler PC v6.2.5 Tue Nov 21 22:57:45 2017

Tools Copyright (c) 1996-2014 Texas Instruments Incorporated
C:\Users\wmj\AppData\Local\Temp\1055210                              PAGE   64

    3288                      .dwattr $C$DW$617, DW_AT_name("angle_pu")
    3289                      .dwattr $C$DW$617, DW_AT_TI_symbol_name("_angle_pu")
    3290                      .dwattr $C$DW$617, DW_AT_data_member_location[DW_OP_plus_uconst 0x0]
    3291                      .dwattr $C$DW$617, DW_AT_accessibility(DW_ACCESS_public)
    3292              $C$DW$618       .dwtag  DW_TAG_member
    3293                      .dwattr $C$DW$618, DW_AT_type(*$C$DW$T$32)
    3294                      .dwattr $C$DW$618, DW_AT_name("Idq_brake")
    3295                      .dwattr $C$DW$618, DW_AT_TI_symbol_name("_Idq_brake")
    3296                      .dwattr $C$DW$618, DW_AT_data_member_location[DW_OP_plus_uconst 0x2]
    3297                      .dwattr $C$DW$618, DW_AT_accessibility(DW_ACCESS_public)
    3298              $C$DW$619       .dwtag  DW_TAG_member
    3299                      .dwattr $C$DW$619, DW_AT_type(*$C$DW$T$33)
    3300                      .dwattr $C$DW$619, DW_AT_name("brake_enable")
    3301                      .dwattr $C$DW$619, DW_AT_TI_symbol_name("_brake_enable")
    3302                      .dwattr $C$DW$619, DW_AT_data_member_location[DW_OP_plus_uconst 0x6]
    3303                      .dwattr $C$DW$619, DW_AT_accessibility(DW_ACCESS_public)
    3304                      .dwendtag $C$DW$T$34
    3305              
    3306              $C$DW$T$73      .dwtag  DW_TAG_typedef, DW_AT_name("BRAKE_Obj")
    3307                      .dwattr $C$DW$T$73, DW_AT_type(*$C$DW$T$34)
    3308                      .dwattr $C$DW$T$73, DW_AT_language(DW_LANG_C)
    3309              $C$DW$T$71      .dwtag  DW_TAG_pointer_type
    3310                      .dwattr $C$DW$T$71, DW_AT_type(*$C$DW$T$34)
    3311                      .dwattr $C$DW$T$71, DW_AT_address_class(0x16)
    3312              $C$DW$T$72      .dwtag  DW_TAG_typedef, DW_AT_name("BRAKE_Handle")
    3313                      .dwattr $C$DW$T$72, DW_AT_type(*$C$DW$T$71)
    3314                      .dwattr $C$DW$T$72, DW_AT_language(DW_LANG_C)
    3315              
    3316              $C$DW$T$36      .dwtag  DW_TAG_structure_type
    3317                      .dwattr $C$DW$T$36, DW_AT_name("_CLARKE_Obj_")
    3318                      .dwattr $C$DW$T$36, DW_AT_byte_size(0x06)
    3319              $C$DW$620       .dwtag  DW_TAG_member
    3320                      .dwattr $C$DW$620, DW_AT_type(*$C$DW$T$31)
    3321                      .dwattr $C$DW$620, DW_AT_name("alpha_sf")
    3322                      .dwattr $C$DW$620, DW_AT_TI_symbol_name("_alpha_sf")
    3323                      .dwattr $C$DW$620, DW_AT_data_member_location[DW_OP_plus_uconst 0x0]
    3324                      .dwattr $C$DW$620, DW_AT_accessibility(DW_ACCESS_public)
    3325              $C$DW$621       .dwtag  DW_TAG_member
    3326                      .dwattr $C$DW$621, DW_AT_type(*$C$DW$T$31)
    3327                      .dwattr $C$DW$621, DW_AT_name("beta_sf")
    3328                      .dwattr $C$DW$621, DW_AT_TI_symbol_name("_beta_sf")
    3329                      .dwattr $C$DW$621, DW_AT_data_member_location[DW_OP_plus_uconst 0x2]
    3330                      .dwattr $C$DW$621, DW_AT_accessibility(DW_ACCESS_public)
    3331              $C$DW$622       .dwtag  DW_TAG_member
    3332                      .dwattr $C$DW$622, DW_AT_type(*$C$DW$T$35)
    3333                      .dwattr $C$DW$622, DW_AT_name("numSensors")
    3334                      .dwattr $C$DW$622, DW_AT_TI_symbol_name("_numSensors")
    3335                      .dwattr $C$DW$622, DW_AT_data_member_location[DW_OP_plus_uconst 0x4]
    3336                      .dwattr $C$DW$622, DW_AT_accessibility(DW_ACCESS_public)
    3337                      .dwendtag $C$DW$T$36
    3338              
    3339              $C$DW$T$47      .dwtag  DW_TAG_typedef, DW_AT_name("CLARKE_Obj")
    3340                      .dwattr $C$DW$T$47, DW_AT_type(*$C$DW$T$36)
    3341                      .dwattr $C$DW$T$47, DW_AT_language(DW_LANG_C)
    3342              $C$DW$T$45      .dwtag  DW_TAG_pointer_type
TMS320C2000 Assembler PC v6.2.5 Tue Nov 21 22:57:45 2017

Tools Copyright (c) 1996-2014 Texas Instruments Incorporated
C:\Users\wmj\AppData\Local\Temp\1055210                              PAGE   65

    3343                      .dwattr $C$DW$T$45, DW_AT_type(*$C$DW$T$36)
    3344                      .dwattr $C$DW$T$45, DW_AT_address_class(0x16)
    3345              $C$DW$T$46      .dwtag  DW_TAG_typedef, DW_AT_name("CLARKE_Handle")
    3346                      .dwattr $C$DW$T$46, DW_AT_type(*$C$DW$T$45)
    3347                      .dwattr $C$DW$T$46, DW_AT_language(DW_LANG_C)
    3348              
    3349              $C$DW$T$38      .dwtag  DW_TAG_structure_type
    3350                      .dwattr $C$DW$T$38, DW_AT_name("_CLK_Obj_")
    3351                      .dwattr $C$DW$T$38, DW_AT_byte_size(0x11)
    3352              $C$DW$623       .dwtag  DW_TAG_member
    3353                      .dwattr $C$DW$623, DW_AT_type(*$C$DW$T$23)
    3354                      .dwattr $C$DW$623, DW_AT_name("XCLK")
    3355                      .dwattr $C$DW$623, DW_AT_TI_symbol_name("_XCLK")
    3356                      .dwattr $C$DW$623, DW_AT_data_member_location[DW_OP_plus_uconst 0x0]
    3357                      .dwattr $C$DW$623, DW_AT_accessibility(DW_ACCESS_public)
    3358              $C$DW$624       .dwtag  DW_TAG_member
    3359                      .dwattr $C$DW$624, DW_AT_type(*$C$DW$T$23)
    3360                      .dwattr $C$DW$624, DW_AT_name("rsvd_1")
    3361                      .dwattr $C$DW$624, DW_AT_TI_symbol_name("_rsvd_1")
    3362                      .dwattr $C$DW$624, DW_AT_data_member_location[DW_OP_plus_uconst 0x1]
    3363                      .dwattr $C$DW$624, DW_AT_accessibility(DW_ACCESS_public)
    3364              $C$DW$625       .dwtag  DW_TAG_member
    3365                      .dwattr $C$DW$625, DW_AT_type(*$C$DW$T$23)
    3366                      .dwattr $C$DW$625, DW_AT_name("CLKCTL")
    3367                      .dwattr $C$DW$625, DW_AT_TI_symbol_name("_CLKCTL")
    3368                      .dwattr $C$DW$625, DW_AT_data_member_location[DW_OP_plus_uconst 0x2]
    3369                      .dwattr $C$DW$625, DW_AT_accessibility(DW_ACCESS_public)
    3370              $C$DW$626       .dwtag  DW_TAG_member
    3371                      .dwattr $C$DW$626, DW_AT_type(*$C$DW$T$37)
    3372                      .dwattr $C$DW$626, DW_AT_name("rsvd_2")
    3373                      .dwattr $C$DW$626, DW_AT_TI_symbol_name("_rsvd_2")
    3374                      .dwattr $C$DW$626, DW_AT_data_member_location[DW_OP_plus_uconst 0x3]
    3375                      .dwattr $C$DW$626, DW_AT_accessibility(DW_ACCESS_public)
    3376              $C$DW$627       .dwtag  DW_TAG_member
    3377                      .dwattr $C$DW$627, DW_AT_type(*$C$DW$T$23)
    3378                      .dwattr $C$DW$627, DW_AT_name("LOSPCP")
    3379                      .dwattr $C$DW$627, DW_AT_TI_symbol_name("_LOSPCP")
    3380                      .dwattr $C$DW$627, DW_AT_data_member_location[DW_OP_plus_uconst 0xb]
    3381                      .dwattr $C$DW$627, DW_AT_accessibility(DW_ACCESS_public)
    3382              $C$DW$628       .dwtag  DW_TAG_member
    3383                      .dwattr $C$DW$628, DW_AT_type(*$C$DW$T$23)
    3384                      .dwattr $C$DW$628, DW_AT_name("PCLKCR0")
    3385                      .dwattr $C$DW$628, DW_AT_TI_symbol_name("_PCLKCR0")
    3386                      .dwattr $C$DW$628, DW_AT_data_member_location[DW_OP_plus_uconst 0xc]
    3387                      .dwattr $C$DW$628, DW_AT_accessibility(DW_ACCESS_public)
    3388              $C$DW$629       .dwtag  DW_TAG_member
    3389                      .dwattr $C$DW$629, DW_AT_type(*$C$DW$T$23)
    3390                      .dwattr $C$DW$629, DW_AT_name("PCLKCR1")
    3391                      .dwattr $C$DW$629, DW_AT_TI_symbol_name("_PCLKCR1")
    3392                      .dwattr $C$DW$629, DW_AT_data_member_location[DW_OP_plus_uconst 0xd]
    3393                      .dwattr $C$DW$629, DW_AT_accessibility(DW_ACCESS_public)
    3394              $C$DW$630       .dwtag  DW_TAG_member
    3395                      .dwattr $C$DW$630, DW_AT_type(*$C$DW$T$26)
    3396                      .dwattr $C$DW$630, DW_AT_name("rsvd_3")
    3397                      .dwattr $C$DW$630, DW_AT_TI_symbol_name("_rsvd_3")
TMS320C2000 Assembler PC v6.2.5 Tue Nov 21 22:57:45 2017

Tools Copyright (c) 1996-2014 Texas Instruments Incorporated
C:\Users\wmj\AppData\Local\Temp\1055210                              PAGE   66

    3398                      .dwattr $C$DW$630, DW_AT_data_member_location[DW_OP_plus_uconst 0xe]
    3399                      .dwattr $C$DW$630, DW_AT_accessibility(DW_ACCESS_public)
    3400              $C$DW$631       .dwtag  DW_TAG_member
    3401                      .dwattr $C$DW$631, DW_AT_type(*$C$DW$T$23)
    3402                      .dwattr $C$DW$631, DW_AT_name("PCLKCR3")
    3403                      .dwattr $C$DW$631, DW_AT_TI_symbol_name("_PCLKCR3")
    3404                      .dwattr $C$DW$631, DW_AT_data_member_location[DW_OP_plus_uconst 0x10]
    3405                      .dwattr $C$DW$631, DW_AT_accessibility(DW_ACCESS_public)
    3406                      .dwendtag $C$DW$T$38
    3407              
    3408              $C$DW$T$120     .dwtag  DW_TAG_pointer_type
    3409                      .dwattr $C$DW$T$120, DW_AT_type(*$C$DW$T$38)
    3410                      .dwattr $C$DW$T$120, DW_AT_address_class(0x16)
    3411              $C$DW$T$121     .dwtag  DW_TAG_typedef, DW_AT_name("CLK_Handle")
    3412                      .dwattr $C$DW$T$121, DW_AT_type(*$C$DW$T$120)
    3413                      .dwattr $C$DW$T$121, DW_AT_language(DW_LANG_C)
    3414              
    3415              $C$DW$T$39      .dwtag  DW_TAG_structure_type
    3416                      .dwattr $C$DW$T$39, DW_AT_name("_CPU_Obj_")
    3417                      .dwattr $C$DW$T$39, DW_AT_byte_size(0x01)
    3418              $C$DW$632       .dwtag  DW_TAG_member
    3419                      .dwattr $C$DW$632, DW_AT_type(*$C$DW$T$35)
    3420                      .dwattr $C$DW$632, DW_AT_name("tmp")
    3421                      .dwattr $C$DW$632, DW_AT_TI_symbol_name("_tmp")
    3422                      .dwattr $C$DW$632, DW_AT_data_member_location[DW_OP_plus_uconst 0x0]
    3423                      .dwattr $C$DW$632, DW_AT_accessibility(DW_ACCESS_public)
    3424                      .dwendtag $C$DW$T$39
    3425              
    3426              $C$DW$T$122     .dwtag  DW_TAG_pointer_type
    3427                      .dwattr $C$DW$T$122, DW_AT_type(*$C$DW$T$39)
    3428                      .dwattr $C$DW$T$122, DW_AT_address_class(0x16)
    3429              $C$DW$T$123     .dwtag  DW_TAG_typedef, DW_AT_name("CPU_Handle")
    3430                      .dwattr $C$DW$T$123, DW_AT_type(*$C$DW$T$122)
    3431                      .dwattr $C$DW$T$123, DW_AT_language(DW_LANG_C)
    3432              
    3433              $C$DW$T$74      .dwtag  DW_TAG_structure_type
    3434                      .dwattr $C$DW$T$74, DW_AT_name("_CTRL_Obj_")
    3435                      .dwattr $C$DW$T$74, DW_AT_byte_size(0x108)
    3436              $C$DW$633       .dwtag  DW_TAG_member
    3437                      .dwattr $C$DW$633, DW_AT_type(*$C$DW$T$40)
    3438                      .dwattr $C$DW$633, DW_AT_name("version")
    3439                      .dwattr $C$DW$633, DW_AT_TI_symbol_name("_version")
    3440                      .dwattr $C$DW$633, DW_AT_data_member_location[DW_OP_plus_uconst 0x0]
    3441                      .dwattr $C$DW$633, DW_AT_accessibility(DW_ACCESS_public)
    3442              $C$DW$634       .dwtag  DW_TAG_member
    3443                      .dwattr $C$DW$634, DW_AT_type(*$C$DW$T$42)
    3444                      .dwattr $C$DW$634, DW_AT_name("state")
    3445                      .dwattr $C$DW$634, DW_AT_TI_symbol_name("_state")
    3446                      .dwattr $C$DW$634, DW_AT_data_member_location[DW_OP_plus_uconst 0x4]
    3447                      .dwattr $C$DW$634, DW_AT_accessibility(DW_ACCESS_public)
    3448              $C$DW$635       .dwtag  DW_TAG_member
    3449                      .dwattr $C$DW$635, DW_AT_type(*$C$DW$T$42)
    3450                      .dwattr $C$DW$635, DW_AT_name("prevState")
    3451                      .dwattr $C$DW$635, DW_AT_TI_symbol_name("_prevState")
    3452                      .dwattr $C$DW$635, DW_AT_data_member_location[DW_OP_plus_uconst 0x5]
TMS320C2000 Assembler PC v6.2.5 Tue Nov 21 22:57:45 2017

Tools Copyright (c) 1996-2014 Texas Instruments Incorporated
C:\Users\wmj\AppData\Local\Temp\1055210                              PAGE   67

    3453                      .dwattr $C$DW$635, DW_AT_accessibility(DW_ACCESS_public)
    3454              $C$DW$636       .dwtag  DW_TAG_member
    3455                      .dwattr $C$DW$636, DW_AT_type(*$C$DW$T$44)
    3456                      .dwattr $C$DW$636, DW_AT_name("errorCode")
    3457                      .dwattr $C$DW$636, DW_AT_TI_symbol_name("_errorCode")
    3458                      .dwattr $C$DW$636, DW_AT_data_member_location[DW_OP_plus_uconst 0x6]
    3459                      .dwattr $C$DW$636, DW_AT_accessibility(DW_ACCESS_public)
    3460              $C$DW$637       .dwtag  DW_TAG_member
    3461                      .dwattr $C$DW$637, DW_AT_type(*$C$DW$T$46)
    3462                      .dwattr $C$DW$637, DW_AT_name("clarkeHandle_I")
    3463                      .dwattr $C$DW$637, DW_AT_TI_symbol_name("_clarkeHandle_I")
    3464                      .dwattr $C$DW$637, DW_AT_data_member_location[DW_OP_plus_uconst 0x8]
    3465                      .dwattr $C$DW$637, DW_AT_accessibility(DW_ACCESS_public)
    3466              $C$DW$638       .dwtag  DW_TAG_member
    3467                      .dwattr $C$DW$638, DW_AT_type(*$C$DW$T$47)
    3468                      .dwattr $C$DW$638, DW_AT_name("clarke_I")
    3469                      .dwattr $C$DW$638, DW_AT_TI_symbol_name("_clarke_I")
    3470                      .dwattr $C$DW$638, DW_AT_data_member_location[DW_OP_plus_uconst 0xa]
    3471                      .dwattr $C$DW$638, DW_AT_accessibility(DW_ACCESS_public)
    3472              $C$DW$639       .dwtag  DW_TAG_member
    3473                      .dwattr $C$DW$639, DW_AT_type(*$C$DW$T$46)
    3474                      .dwattr $C$DW$639, DW_AT_name("clarkeHandle_V")
    3475                      .dwattr $C$DW$639, DW_AT_TI_symbol_name("_clarkeHandle_V")
    3476                      .dwattr $C$DW$639, DW_AT_data_member_location[DW_OP_plus_uconst 0x10]
    3477                      .dwattr $C$DW$639, DW_AT_accessibility(DW_ACCESS_public)
    3478              $C$DW$640       .dwtag  DW_TAG_member
    3479                      .dwattr $C$DW$640, DW_AT_type(*$C$DW$T$47)
    3480                      .dwattr $C$DW$640, DW_AT_name("clarke_V")
    3481                      .dwattr $C$DW$640, DW_AT_TI_symbol_name("_clarke_V")
    3482                      .dwattr $C$DW$640, DW_AT_data_member_location[DW_OP_plus_uconst 0x12]
    3483                      .dwattr $C$DW$640, DW_AT_accessibility(DW_ACCESS_public)
    3484              $C$DW$641       .dwtag  DW_TAG_member
    3485                      .dwattr $C$DW$641, DW_AT_type(*$C$DW$T$49)
    3486                      .dwattr $C$DW$641, DW_AT_name("estHandle")
    3487                      .dwattr $C$DW$641, DW_AT_TI_symbol_name("_estHandle")
    3488                      .dwattr $C$DW$641, DW_AT_data_member_location[DW_OP_plus_uconst 0x18]
    3489                      .dwattr $C$DW$641, DW_AT_accessibility(DW_ACCESS_public)
    3490              $C$DW$642       .dwtag  DW_TAG_member
    3491                      .dwattr $C$DW$642, DW_AT_type(*$C$DW$T$51)
    3492                      .dwattr $C$DW$642, DW_AT_name("parkHandle")
    3493                      .dwattr $C$DW$642, DW_AT_TI_symbol_name("_parkHandle")
    3494                      .dwattr $C$DW$642, DW_AT_data_member_location[DW_OP_plus_uconst 0x1a]
    3495                      .dwattr $C$DW$642, DW_AT_accessibility(DW_ACCESS_public)
    3496              $C$DW$643       .dwtag  DW_TAG_member
    3497                      .dwattr $C$DW$643, DW_AT_type(*$C$DW$T$52)
    3498                      .dwattr $C$DW$643, DW_AT_name("park")
    3499                      .dwattr $C$DW$643, DW_AT_TI_symbol_name("_park")
    3500                      .dwattr $C$DW$643, DW_AT_data_member_location[DW_OP_plus_uconst 0x1c]
    3501                      .dwattr $C$DW$643, DW_AT_accessibility(DW_ACCESS_public)
    3502              $C$DW$644       .dwtag  DW_TAG_member
    3503                      .dwattr $C$DW$644, DW_AT_type(*$C$DW$T$54)
    3504                      .dwattr $C$DW$644, DW_AT_name("pidHandle_Id")
    3505                      .dwattr $C$DW$644, DW_AT_TI_symbol_name("_pidHandle_Id")
    3506                      .dwattr $C$DW$644, DW_AT_data_member_location[DW_OP_plus_uconst 0x20]
    3507                      .dwattr $C$DW$644, DW_AT_accessibility(DW_ACCESS_public)
TMS320C2000 Assembler PC v6.2.5 Tue Nov 21 22:57:45 2017

Tools Copyright (c) 1996-2014 Texas Instruments Incorporated
C:\Users\wmj\AppData\Local\Temp\1055210                              PAGE   68

    3508              $C$DW$645       .dwtag  DW_TAG_member
    3509                      .dwattr $C$DW$645, DW_AT_type(*$C$DW$T$55)
    3510                      .dwattr $C$DW$645, DW_AT_name("pid_Id")
    3511                      .dwattr $C$DW$645, DW_AT_TI_symbol_name("_pid_Id")
    3512                      .dwattr $C$DW$645, DW_AT_data_member_location[DW_OP_plus_uconst 0x22]
    3513                      .dwattr $C$DW$645, DW_AT_accessibility(DW_ACCESS_public)
    3514              $C$DW$646       .dwtag  DW_TAG_member
    3515                      .dwattr $C$DW$646, DW_AT_type(*$C$DW$T$54)
    3516                      .dwattr $C$DW$646, DW_AT_name("pidHandle_Iq")
    3517                      .dwattr $C$DW$646, DW_AT_TI_symbol_name("_pidHandle_Iq")
    3518                      .dwattr $C$DW$646, DW_AT_data_member_location[DW_OP_plus_uconst 0x32]
    3519                      .dwattr $C$DW$646, DW_AT_accessibility(DW_ACCESS_public)
    3520              $C$DW$647       .dwtag  DW_TAG_member
    3521                      .dwattr $C$DW$647, DW_AT_type(*$C$DW$T$55)
    3522                      .dwattr $C$DW$647, DW_AT_name("pid_Iq")
    3523                      .dwattr $C$DW$647, DW_AT_TI_symbol_name("_pid_Iq")
    3524                      .dwattr $C$DW$647, DW_AT_data_member_location[DW_OP_plus_uconst 0x34]
    3525                      .dwattr $C$DW$647, DW_AT_accessibility(DW_ACCESS_public)
    3526              $C$DW$648       .dwtag  DW_TAG_member
    3527                      .dwattr $C$DW$648, DW_AT_type(*$C$DW$T$54)
    3528                      .dwattr $C$DW$648, DW_AT_name("pidHandle_spd")
    3529                      .dwattr $C$DW$648, DW_AT_TI_symbol_name("_pidHandle_spd")
    3530                      .dwattr $C$DW$648, DW_AT_data_member_location[DW_OP_plus_uconst 0x44]
    3531                      .dwattr $C$DW$648, DW_AT_accessibility(DW_ACCESS_public)
    3532              $C$DW$649       .dwtag  DW_TAG_member
    3533                      .dwattr $C$DW$649, DW_AT_type(*$C$DW$T$55)
    3534                      .dwattr $C$DW$649, DW_AT_name("pid_spd")
    3535                      .dwattr $C$DW$649, DW_AT_TI_symbol_name("_pid_spd")
    3536                      .dwattr $C$DW$649, DW_AT_data_member_location[DW_OP_plus_uconst 0x46]
    3537                      .dwattr $C$DW$649, DW_AT_accessibility(DW_ACCESS_public)
    3538              $C$DW$650       .dwtag  DW_TAG_member
    3539                      .dwattr $C$DW$650, DW_AT_type(*$C$DW$T$57)
    3540                      .dwattr $C$DW$650, DW_AT_name("iparkHandle")
    3541                      .dwattr $C$DW$650, DW_AT_TI_symbol_name("_iparkHandle")
    3542                      .dwattr $C$DW$650, DW_AT_data_member_location[DW_OP_plus_uconst 0x56]
    3543                      .dwattr $C$DW$650, DW_AT_accessibility(DW_ACCESS_public)
    3544              $C$DW$651       .dwtag  DW_TAG_member
    3545                      .dwattr $C$DW$651, DW_AT_type(*$C$DW$T$58)
    3546                      .dwattr $C$DW$651, DW_AT_name("ipark")
    3547                      .dwattr $C$DW$651, DW_AT_TI_symbol_name("_ipark")
    3548                      .dwattr $C$DW$651, DW_AT_data_member_location[DW_OP_plus_uconst 0x58]
    3549                      .dwattr $C$DW$651, DW_AT_accessibility(DW_ACCESS_public)
    3550              $C$DW$652       .dwtag  DW_TAG_member
    3551                      .dwattr $C$DW$652, DW_AT_type(*$C$DW$T$60)
    3552                      .dwattr $C$DW$652, DW_AT_name("svgenHandle")
    3553                      .dwattr $C$DW$652, DW_AT_TI_symbol_name("_svgenHandle")
    3554                      .dwattr $C$DW$652, DW_AT_data_member_location[DW_OP_plus_uconst 0x5c]
    3555                      .dwattr $C$DW$652, DW_AT_accessibility(DW_ACCESS_public)
    3556              $C$DW$653       .dwtag  DW_TAG_member
    3557                      .dwattr $C$DW$653, DW_AT_type(*$C$DW$T$61)
    3558                      .dwattr $C$DW$653, DW_AT_name("svgen")
    3559                      .dwattr $C$DW$653, DW_AT_TI_symbol_name("_svgen")
    3560                      .dwattr $C$DW$653, DW_AT_data_member_location[DW_OP_plus_uconst 0x5e]
    3561                      .dwattr $C$DW$653, DW_AT_accessibility(DW_ACCESS_public)
    3562              $C$DW$654       .dwtag  DW_TAG_member
TMS320C2000 Assembler PC v6.2.5 Tue Nov 21 22:57:45 2017

Tools Copyright (c) 1996-2014 Texas Instruments Incorporated
C:\Users\wmj\AppData\Local\Temp\1055210                              PAGE   69

    3563                      .dwattr $C$DW$654, DW_AT_type(*$C$DW$T$63)
    3564                      .dwattr $C$DW$654, DW_AT_name("trajHandle_Id")
    3565                      .dwattr $C$DW$654, DW_AT_TI_symbol_name("_trajHandle_Id")
    3566                      .dwattr $C$DW$654, DW_AT_data_member_location[DW_OP_plus_uconst 0x60]
    3567                      .dwattr $C$DW$654, DW_AT_accessibility(DW_ACCESS_public)
    3568              $C$DW$655       .dwtag  DW_TAG_member
    3569                      .dwattr $C$DW$655, DW_AT_type(*$C$DW$T$64)
    3570                      .dwattr $C$DW$655, DW_AT_name("traj_Id")
    3571                      .dwattr $C$DW$655, DW_AT_TI_symbol_name("_traj_Id")
    3572                      .dwattr $C$DW$655, DW_AT_data_member_location[DW_OP_plus_uconst 0x62]
    3573                      .dwattr $C$DW$655, DW_AT_accessibility(DW_ACCESS_public)
    3574              $C$DW$656       .dwtag  DW_TAG_member
    3575                      .dwattr $C$DW$656, DW_AT_type(*$C$DW$T$63)
    3576                      .dwattr $C$DW$656, DW_AT_name("trajHandle_spd")
    3577                      .dwattr $C$DW$656, DW_AT_TI_symbol_name("_trajHandle_spd")
    3578                      .dwattr $C$DW$656, DW_AT_data_member_location[DW_OP_plus_uconst 0x6c]
    3579                      .dwattr $C$DW$656, DW_AT_accessibility(DW_ACCESS_public)
    3580              $C$DW$657       .dwtag  DW_TAG_member
    3581                      .dwattr $C$DW$657, DW_AT_type(*$C$DW$T$64)
    3582                      .dwattr $C$DW$657, DW_AT_name("traj_spd")
    3583                      .dwattr $C$DW$657, DW_AT_TI_symbol_name("_traj_spd")
    3584                      .dwattr $C$DW$657, DW_AT_data_member_location[DW_OP_plus_uconst 0x6e]
    3585                      .dwattr $C$DW$657, DW_AT_accessibility(DW_ACCESS_public)
    3586              $C$DW$658       .dwtag  DW_TAG_member
    3587                      .dwattr $C$DW$658, DW_AT_type(*$C$DW$T$63)
    3588                      .dwattr $C$DW$658, DW_AT_name("trajHandle_spdMax")
    3589                      .dwattr $C$DW$658, DW_AT_TI_symbol_name("_trajHandle_spdMax")
    3590                      .dwattr $C$DW$658, DW_AT_data_member_location[DW_OP_plus_uconst 0x78]
    3591                      .dwattr $C$DW$658, DW_AT_accessibility(DW_ACCESS_public)
    3592              $C$DW$659       .dwtag  DW_TAG_member
    3593                      .dwattr $C$DW$659, DW_AT_type(*$C$DW$T$64)
    3594                      .dwattr $C$DW$659, DW_AT_name("traj_spdMax")
    3595                      .dwattr $C$DW$659, DW_AT_TI_symbol_name("_traj_spdMax")
    3596                      .dwattr $C$DW$659, DW_AT_data_member_location[DW_OP_plus_uconst 0x7a]
    3597                      .dwattr $C$DW$659, DW_AT_accessibility(DW_ACCESS_public)
    3598              $C$DW$660       .dwtag  DW_TAG_member
    3599                      .dwattr $C$DW$660, DW_AT_type(*$C$DW$T$65)
    3600                      .dwattr $C$DW$660, DW_AT_name("motorParams")
    3601                      .dwattr $C$DW$660, DW_AT_TI_symbol_name("_motorParams")
    3602                      .dwattr $C$DW$660, DW_AT_data_member_location[DW_OP_plus_uconst 0x84]
    3603                      .dwattr $C$DW$660, DW_AT_accessibility(DW_ACCESS_public)
    3604              $C$DW$661       .dwtag  DW_TAG_member
    3605                      .dwattr $C$DW$661, DW_AT_type(*$C$DW$T$68)
    3606                      .dwattr $C$DW$661, DW_AT_name("waitTimes")
    3607                      .dwattr $C$DW$661, DW_AT_TI_symbol_name("_waitTimes")
    3608                      .dwattr $C$DW$661, DW_AT_data_member_location[DW_OP_plus_uconst 0x92]
    3609                      .dwattr $C$DW$661, DW_AT_accessibility(DW_ACCESS_public)
    3610              $C$DW$662       .dwtag  DW_TAG_member
    3611                      .dwattr $C$DW$662, DW_AT_type(*$C$DW$T$67)
    3612                      .dwattr $C$DW$662, DW_AT_name("counter_state")
    3613                      .dwattr $C$DW$662, DW_AT_TI_symbol_name("_counter_state")
    3614                      .dwattr $C$DW$662, DW_AT_data_member_location[DW_OP_plus_uconst 0x9a]
    3615                      .dwattr $C$DW$662, DW_AT_accessibility(DW_ACCESS_public)
    3616              $C$DW$663       .dwtag  DW_TAG_member
    3617                      .dwattr $C$DW$663, DW_AT_type(*$C$DW$T$69)
TMS320C2000 Assembler PC v6.2.5 Tue Nov 21 22:57:45 2017

Tools Copyright (c) 1996-2014 Texas Instruments Incorporated
C:\Users\wmj\AppData\Local\Temp\1055210                              PAGE   70

    3618                      .dwattr $C$DW$663, DW_AT_name("numIsrTicksPerCtrlTick")
    3619                      .dwattr $C$DW$663, DW_AT_TI_symbol_name("_numIsrTicksPerCtrlTick")
    3620                      .dwattr $C$DW$663, DW_AT_data_member_location[DW_OP_plus_uconst 0x9c]
    3621                      .dwattr $C$DW$663, DW_AT_accessibility(DW_ACCESS_public)
    3622              $C$DW$664       .dwtag  DW_TAG_member
    3623                      .dwattr $C$DW$664, DW_AT_type(*$C$DW$T$69)
    3624                      .dwattr $C$DW$664, DW_AT_name("numCtrlTicksPerCurrentTick")
    3625                      .dwattr $C$DW$664, DW_AT_TI_symbol_name("_numCtrlTicksPerCurrentTick")
    3626                      .dwattr $C$DW$664, DW_AT_data_member_location[DW_OP_plus_uconst 0x9d]
    3627                      .dwattr $C$DW$664, DW_AT_accessibility(DW_ACCESS_public)
    3628              $C$DW$665       .dwtag  DW_TAG_member
    3629                      .dwattr $C$DW$665, DW_AT_type(*$C$DW$T$69)
    3630                      .dwattr $C$DW$665, DW_AT_name("numCtrlTicksPerSpeedTick")
    3631                      .dwattr $C$DW$665, DW_AT_TI_symbol_name("_numCtrlTicksPerSpeedTick")
    3632                      .dwattr $C$DW$665, DW_AT_data_member_location[DW_OP_plus_uconst 0x9e]
    3633                      .dwattr $C$DW$665, DW_AT_accessibility(DW_ACCESS_public)
    3634              $C$DW$666       .dwtag  DW_TAG_member
    3635                      .dwattr $C$DW$666, DW_AT_type(*$C$DW$T$69)
    3636                      .dwattr $C$DW$666, DW_AT_name("numCtrlTicksPerTrajTick")
    3637                      .dwattr $C$DW$666, DW_AT_TI_symbol_name("_numCtrlTicksPerTrajTick")
    3638                      .dwattr $C$DW$666, DW_AT_data_member_location[DW_OP_plus_uconst 0x9f]
    3639                      .dwattr $C$DW$666, DW_AT_accessibility(DW_ACCESS_public)
    3640              $C$DW$667       .dwtag  DW_TAG_member
    3641                      .dwattr $C$DW$667, DW_AT_type(*$C$DW$T$67)
    3642                      .dwattr $C$DW$667, DW_AT_name("ctrlFreq_Hz")
    3643                      .dwattr $C$DW$667, DW_AT_TI_symbol_name("_ctrlFreq_Hz")
    3644                      .dwattr $C$DW$667, DW_AT_data_member_location[DW_OP_plus_uconst 0xa0]
    3645                      .dwattr $C$DW$667, DW_AT_accessibility(DW_ACCESS_public)
    3646              $C$DW$668       .dwtag  DW_TAG_member
    3647                      .dwattr $C$DW$668, DW_AT_type(*$C$DW$T$67)
    3648                      .dwattr $C$DW$668, DW_AT_name("trajFreq_Hz")
    3649                      .dwattr $C$DW$668, DW_AT_TI_symbol_name("_trajFreq_Hz")
    3650                      .dwattr $C$DW$668, DW_AT_data_member_location[DW_OP_plus_uconst 0xa2]
    3651                      .dwattr $C$DW$668, DW_AT_accessibility(DW_ACCESS_public)
    3652              $C$DW$669       .dwtag  DW_TAG_member
    3653                      .dwattr $C$DW$669, DW_AT_type(*$C$DW$T$31)
    3654                      .dwattr $C$DW$669, DW_AT_name("trajPeriod_sec")
    3655                      .dwattr $C$DW$669, DW_AT_TI_symbol_name("_trajPeriod_sec")
    3656                      .dwattr $C$DW$669, DW_AT_data_member_location[DW_OP_plus_uconst 0xa4]
    3657                      .dwattr $C$DW$669, DW_AT_accessibility(DW_ACCESS_public)
    3658              $C$DW$670       .dwtag  DW_TAG_member
    3659                      .dwattr $C$DW$670, DW_AT_type(*$C$DW$T$70)
    3660                      .dwattr $C$DW$670, DW_AT_name("ctrlPeriod_sec")
    3661                      .dwattr $C$DW$670, DW_AT_TI_symbol_name("_ctrlPeriod_sec")
    3662                      .dwattr $C$DW$670, DW_AT_data_member_location[DW_OP_plus_uconst 0xa6]
    3663                      .dwattr $C$DW$670, DW_AT_accessibility(DW_ACCESS_public)
    3664              $C$DW$671       .dwtag  DW_TAG_member
    3665                      .dwattr $C$DW$671, DW_AT_type(*$C$DW$T$31)
    3666                      .dwattr $C$DW$671, DW_AT_name("maxVsMag_pu")
    3667                      .dwattr $C$DW$671, DW_AT_TI_symbol_name("_maxVsMag_pu")
    3668                      .dwattr $C$DW$671, DW_AT_data_member_location[DW_OP_plus_uconst 0xa8]
    3669                      .dwattr $C$DW$671, DW_AT_accessibility(DW_ACCESS_public)
    3670              $C$DW$672       .dwtag  DW_TAG_member
    3671                      .dwattr $C$DW$672, DW_AT_type(*$C$DW$T$32)
    3672                      .dwattr $C$DW$672, DW_AT_name("Iab_in")
TMS320C2000 Assembler PC v6.2.5 Tue Nov 21 22:57:45 2017

Tools Copyright (c) 1996-2014 Texas Instruments Incorporated
C:\Users\wmj\AppData\Local\Temp\1055210                              PAGE   71

    3673                      .dwattr $C$DW$672, DW_AT_TI_symbol_name("_Iab_in")
    3674                      .dwattr $C$DW$672, DW_AT_data_member_location[DW_OP_plus_uconst 0xaa]
    3675                      .dwattr $C$DW$672, DW_AT_accessibility(DW_ACCESS_public)
    3676              $C$DW$673       .dwtag  DW_TAG_member
    3677                      .dwattr $C$DW$673, DW_AT_type(*$C$DW$T$32)
    3678                      .dwattr $C$DW$673, DW_AT_name("Iab_filt")
    3679                      .dwattr $C$DW$673, DW_AT_TI_symbol_name("_Iab_filt")
    3680                      .dwattr $C$DW$673, DW_AT_data_member_location[DW_OP_plus_uconst 0xae]
    3681                      .dwattr $C$DW$673, DW_AT_accessibility(DW_ACCESS_public)
    3682              $C$DW$674       .dwtag  DW_TAG_member
    3683                      .dwattr $C$DW$674, DW_AT_type(*$C$DW$T$32)
    3684                      .dwattr $C$DW$674, DW_AT_name("Idq_in")
    3685                      .dwattr $C$DW$674, DW_AT_TI_symbol_name("_Idq_in")
    3686                      .dwattr $C$DW$674, DW_AT_data_member_location[DW_OP_plus_uconst 0xb2]
    3687                      .dwattr $C$DW$674, DW_AT_accessibility(DW_ACCESS_public)
    3688              $C$DW$675       .dwtag  DW_TAG_member
    3689                      .dwattr $C$DW$675, DW_AT_type(*$C$DW$T$32)
    3690                      .dwattr $C$DW$675, DW_AT_name("Vab_in")
    3691                      .dwattr $C$DW$675, DW_AT_TI_symbol_name("_Vab_in")
    3692                      .dwattr $C$DW$675, DW_AT_data_member_location[DW_OP_plus_uconst 0xb6]
    3693                      .dwattr $C$DW$675, DW_AT_accessibility(DW_ACCESS_public)
    3694              $C$DW$676       .dwtag  DW_TAG_member
    3695                      .dwattr $C$DW$676, DW_AT_type(*$C$DW$T$31)
    3696                      .dwattr $C$DW$676, DW_AT_name("spd_out")
    3697                      .dwattr $C$DW$676, DW_AT_TI_symbol_name("_spd_out")
    3698                      .dwattr $C$DW$676, DW_AT_data_member_location[DW_OP_plus_uconst 0xba]
    3699                      .dwattr $C$DW$676, DW_AT_accessibility(DW_ACCESS_public)
    3700              $C$DW$677       .dwtag  DW_TAG_member
    3701                      .dwattr $C$DW$677, DW_AT_type(*$C$DW$T$32)
    3702                      .dwattr $C$DW$677, DW_AT_name("Vab_out")
    3703                      .dwattr $C$DW$677, DW_AT_TI_symbol_name("_Vab_out")
    3704                      .dwattr $C$DW$677, DW_AT_data_member_location[DW_OP_plus_uconst 0xbc]
    3705                      .dwattr $C$DW$677, DW_AT_accessibility(DW_ACCESS_public)
    3706              $C$DW$678       .dwtag  DW_TAG_member
    3707                      .dwattr $C$DW$678, DW_AT_type(*$C$DW$T$32)
    3708                      .dwattr $C$DW$678, DW_AT_name("Vdq_out")
    3709                      .dwattr $C$DW$678, DW_AT_TI_symbol_name("_Vdq_out")
    3710                      .dwattr $C$DW$678, DW_AT_data_member_location[DW_OP_plus_uconst 0xc0]
    3711                      .dwattr $C$DW$678, DW_AT_accessibility(DW_ACCESS_public)
    3712              $C$DW$679       .dwtag  DW_TAG_member
    3713                      .dwattr $C$DW$679, DW_AT_type(*$C$DW$T$70)
    3714                      .dwattr $C$DW$679, DW_AT_name("Rhf")
    3715                      .dwattr $C$DW$679, DW_AT_TI_symbol_name("_Rhf")
    3716                      .dwattr $C$DW$679, DW_AT_data_member_location[DW_OP_plus_uconst 0xc4]
    3717                      .dwattr $C$DW$679, DW_AT_accessibility(DW_ACCESS_public)
    3718              $C$DW$680       .dwtag  DW_TAG_member
    3719                      .dwattr $C$DW$680, DW_AT_type(*$C$DW$T$70)
    3720                      .dwattr $C$DW$680, DW_AT_name("Lhf")
    3721                      .dwattr $C$DW$680, DW_AT_TI_symbol_name("_Lhf")
    3722                      .dwattr $C$DW$680, DW_AT_data_member_location[DW_OP_plus_uconst 0xc6]
    3723                      .dwattr $C$DW$680, DW_AT_accessibility(DW_ACCESS_public)
    3724              $C$DW$681       .dwtag  DW_TAG_member
    3725                      .dwattr $C$DW$681, DW_AT_type(*$C$DW$T$70)
    3726                      .dwattr $C$DW$681, DW_AT_name("RoverL")
    3727                      .dwattr $C$DW$681, DW_AT_TI_symbol_name("_RoverL")
TMS320C2000 Assembler PC v6.2.5 Tue Nov 21 22:57:45 2017

Tools Copyright (c) 1996-2014 Texas Instruments Incorporated
C:\Users\wmj\AppData\Local\Temp\1055210                              PAGE   72

    3728                      .dwattr $C$DW$681, DW_AT_data_member_location[DW_OP_plus_uconst 0xc8]
    3729                      .dwattr $C$DW$681, DW_AT_accessibility(DW_ACCESS_public)
    3730              $C$DW$682       .dwtag  DW_TAG_member
    3731                      .dwattr $C$DW$682, DW_AT_type(*$C$DW$T$31)
    3732                      .dwattr $C$DW$682, DW_AT_name("Kp_Id")
    3733                      .dwattr $C$DW$682, DW_AT_TI_symbol_name("_Kp_Id")
    3734                      .dwattr $C$DW$682, DW_AT_data_member_location[DW_OP_plus_uconst 0xca]
    3735                      .dwattr $C$DW$682, DW_AT_accessibility(DW_ACCESS_public)
    3736              $C$DW$683       .dwtag  DW_TAG_member
    3737                      .dwattr $C$DW$683, DW_AT_type(*$C$DW$T$31)
    3738                      .dwattr $C$DW$683, DW_AT_name("Kp_Iq")
    3739                      .dwattr $C$DW$683, DW_AT_TI_symbol_name("_Kp_Iq")
    3740                      .dwattr $C$DW$683, DW_AT_data_member_location[DW_OP_plus_uconst 0xcc]
    3741                      .dwattr $C$DW$683, DW_AT_accessibility(DW_ACCESS_public)
    3742              $C$DW$684       .dwtag  DW_TAG_member
    3743                      .dwattr $C$DW$684, DW_AT_type(*$C$DW$T$31)
    3744                      .dwattr $C$DW$684, DW_AT_name("Kp_spd")
    3745                      .dwattr $C$DW$684, DW_AT_TI_symbol_name("_Kp_spd")
    3746                      .dwattr $C$DW$684, DW_AT_data_member_location[DW_OP_plus_uconst 0xce]
    3747                      .dwattr $C$DW$684, DW_AT_accessibility(DW_ACCESS_public)
    3748              $C$DW$685       .dwtag  DW_TAG_member
    3749                      .dwattr $C$DW$685, DW_AT_type(*$C$DW$T$31)
    3750                      .dwattr $C$DW$685, DW_AT_name("Ki_Id")
    3751                      .dwattr $C$DW$685, DW_AT_TI_symbol_name("_Ki_Id")
    3752                      .dwattr $C$DW$685, DW_AT_data_member_location[DW_OP_plus_uconst 0xd0]
    3753                      .dwattr $C$DW$685, DW_AT_accessibility(DW_ACCESS_public)
    3754              $C$DW$686       .dwtag  DW_TAG_member
    3755                      .dwattr $C$DW$686, DW_AT_type(*$C$DW$T$31)
    3756                      .dwattr $C$DW$686, DW_AT_name("Ki_Iq")
    3757                      .dwattr $C$DW$686, DW_AT_TI_symbol_name("_Ki_Iq")
    3758                      .dwattr $C$DW$686, DW_AT_data_member_location[DW_OP_plus_uconst 0xd2]
    3759                      .dwattr $C$DW$686, DW_AT_accessibility(DW_ACCESS_public)
    3760              $C$DW$687       .dwtag  DW_TAG_member
    3761                      .dwattr $C$DW$687, DW_AT_type(*$C$DW$T$31)
    3762                      .dwattr $C$DW$687, DW_AT_name("Ki_spd")
    3763                      .dwattr $C$DW$687, DW_AT_TI_symbol_name("_Ki_spd")
    3764                      .dwattr $C$DW$687, DW_AT_data_member_location[DW_OP_plus_uconst 0xd4]
    3765                      .dwattr $C$DW$687, DW_AT_accessibility(DW_ACCESS_public)
    3766              $C$DW$688       .dwtag  DW_TAG_member
    3767                      .dwattr $C$DW$688, DW_AT_type(*$C$DW$T$31)
    3768                      .dwattr $C$DW$688, DW_AT_name("Kd_Id")
    3769                      .dwattr $C$DW$688, DW_AT_TI_symbol_name("_Kd_Id")
    3770                      .dwattr $C$DW$688, DW_AT_data_member_location[DW_OP_plus_uconst 0xd6]
    3771                      .dwattr $C$DW$688, DW_AT_accessibility(DW_ACCESS_public)
    3772              $C$DW$689       .dwtag  DW_TAG_member
    3773                      .dwattr $C$DW$689, DW_AT_type(*$C$DW$T$31)
    3774                      .dwattr $C$DW$689, DW_AT_name("Kd_Iq")
    3775                      .dwattr $C$DW$689, DW_AT_TI_symbol_name("_Kd_Iq")
    3776                      .dwattr $C$DW$689, DW_AT_data_member_location[DW_OP_plus_uconst 0xd8]
    3777                      .dwattr $C$DW$689, DW_AT_accessibility(DW_ACCESS_public)
    3778              $C$DW$690       .dwtag  DW_TAG_member
    3779                      .dwattr $C$DW$690, DW_AT_type(*$C$DW$T$31)
    3780                      .dwattr $C$DW$690, DW_AT_name("Kd_spd")
    3781                      .dwattr $C$DW$690, DW_AT_TI_symbol_name("_Kd_spd")
    3782                      .dwattr $C$DW$690, DW_AT_data_member_location[DW_OP_plus_uconst 0xda]
TMS320C2000 Assembler PC v6.2.5 Tue Nov 21 22:57:45 2017

Tools Copyright (c) 1996-2014 Texas Instruments Incorporated
C:\Users\wmj\AppData\Local\Temp\1055210                              PAGE   73

    3783                      .dwattr $C$DW$690, DW_AT_accessibility(DW_ACCESS_public)
    3784              $C$DW$691       .dwtag  DW_TAG_member
    3785                      .dwattr $C$DW$691, DW_AT_type(*$C$DW$T$31)
    3786                      .dwattr $C$DW$691, DW_AT_name("Ui_Id")
    3787                      .dwattr $C$DW$691, DW_AT_TI_symbol_name("_Ui_Id")
    3788                      .dwattr $C$DW$691, DW_AT_data_member_location[DW_OP_plus_uconst 0xdc]
    3789                      .dwattr $C$DW$691, DW_AT_accessibility(DW_ACCESS_public)
    3790              $C$DW$692       .dwtag  DW_TAG_member
    3791                      .dwattr $C$DW$692, DW_AT_type(*$C$DW$T$31)
    3792                      .dwattr $C$DW$692, DW_AT_name("Ui_Iq")
    3793                      .dwattr $C$DW$692, DW_AT_TI_symbol_name("_Ui_Iq")
    3794                      .dwattr $C$DW$692, DW_AT_data_member_location[DW_OP_plus_uconst 0xde]
    3795                      .dwattr $C$DW$692, DW_AT_accessibility(DW_ACCESS_public)
    3796              $C$DW$693       .dwtag  DW_TAG_member
    3797                      .dwattr $C$DW$693, DW_AT_type(*$C$DW$T$31)
    3798                      .dwattr $C$DW$693, DW_AT_name("Ui_spd")
    3799                      .dwattr $C$DW$693, DW_AT_TI_symbol_name("_Ui_spd")
    3800                      .dwattr $C$DW$693, DW_AT_data_member_location[DW_OP_plus_uconst 0xe0]
    3801                      .dwattr $C$DW$693, DW_AT_accessibility(DW_ACCESS_public)
    3802              $C$DW$694       .dwtag  DW_TAG_member
    3803                      .dwattr $C$DW$694, DW_AT_type(*$C$DW$T$32)
    3804                      .dwattr $C$DW$694, DW_AT_name("Idq_ref")
    3805                      .dwattr $C$DW$694, DW_AT_TI_symbol_name("_Idq_ref")
    3806                      .dwattr $C$DW$694, DW_AT_data_member_location[DW_OP_plus_uconst 0xe2]
    3807                      .dwattr $C$DW$694, DW_AT_accessibility(DW_ACCESS_public)
    3808              $C$DW$695       .dwtag  DW_TAG_member
    3809                      .dwattr $C$DW$695, DW_AT_type(*$C$DW$T$31)
    3810                      .dwattr $C$DW$695, DW_AT_name("IdRated")
    3811                      .dwattr $C$DW$695, DW_AT_TI_symbol_name("_IdRated")
    3812                      .dwattr $C$DW$695, DW_AT_data_member_location[DW_OP_plus_uconst 0xe6]
    3813                      .dwattr $C$DW$695, DW_AT_accessibility(DW_ACCESS_public)
    3814              $C$DW$696       .dwtag  DW_TAG_member
    3815                      .dwattr $C$DW$696, DW_AT_type(*$C$DW$T$31)
    3816                      .dwattr $C$DW$696, DW_AT_name("spd_ref")
    3817                      .dwattr $C$DW$696, DW_AT_TI_symbol_name("_spd_ref")
    3818                      .dwattr $C$DW$696, DW_AT_data_member_location[DW_OP_plus_uconst 0xe8]
    3819                      .dwattr $C$DW$696, DW_AT_accessibility(DW_ACCESS_public)
    3820              $C$DW$697       .dwtag  DW_TAG_member
    3821                      .dwattr $C$DW$697, DW_AT_type(*$C$DW$T$31)
    3822                      .dwattr $C$DW$697, DW_AT_name("spd_max")
    3823                      .dwattr $C$DW$697, DW_AT_TI_symbol_name("_spd_max")
    3824                      .dwattr $C$DW$697, DW_AT_data_member_location[DW_OP_plus_uconst 0xea]
    3825                      .dwattr $C$DW$697, DW_AT_accessibility(DW_ACCESS_public)
    3826              $C$DW$698       .dwtag  DW_TAG_member
    3827                      .dwattr $C$DW$698, DW_AT_type(*$C$DW$T$69)
    3828                      .dwattr $C$DW$698, DW_AT_name("counter_current")
    3829                      .dwattr $C$DW$698, DW_AT_TI_symbol_name("_counter_current")
    3830                      .dwattr $C$DW$698, DW_AT_data_member_location[DW_OP_plus_uconst 0xec]
    3831                      .dwattr $C$DW$698, DW_AT_accessibility(DW_ACCESS_public)
    3832              $C$DW$699       .dwtag  DW_TAG_member
    3833                      .dwattr $C$DW$699, DW_AT_type(*$C$DW$T$69)
    3834                      .dwattr $C$DW$699, DW_AT_name("counter_isr")
    3835                      .dwattr $C$DW$699, DW_AT_TI_symbol_name("_counter_isr")
    3836                      .dwattr $C$DW$699, DW_AT_data_member_location[DW_OP_plus_uconst 0xed]
    3837                      .dwattr $C$DW$699, DW_AT_accessibility(DW_ACCESS_public)
TMS320C2000 Assembler PC v6.2.5 Tue Nov 21 22:57:45 2017

Tools Copyright (c) 1996-2014 Texas Instruments Incorporated
C:\Users\wmj\AppData\Local\Temp\1055210                              PAGE   74

    3838              $C$DW$700       .dwtag  DW_TAG_member
    3839                      .dwattr $C$DW$700, DW_AT_type(*$C$DW$T$69)
    3840                      .dwattr $C$DW$700, DW_AT_name("counter_speed")
    3841                      .dwattr $C$DW$700, DW_AT_TI_symbol_name("_counter_speed")
    3842                      .dwattr $C$DW$700, DW_AT_data_member_location[DW_OP_plus_uconst 0xee]
    3843                      .dwattr $C$DW$700, DW_AT_accessibility(DW_ACCESS_public)
    3844              $C$DW$701       .dwtag  DW_TAG_member
    3845                      .dwattr $C$DW$701, DW_AT_type(*$C$DW$T$69)
    3846                      .dwattr $C$DW$701, DW_AT_name("counter_traj")
    3847                      .dwattr $C$DW$701, DW_AT_TI_symbol_name("_counter_traj")
    3848                      .dwattr $C$DW$701, DW_AT_data_member_location[DW_OP_plus_uconst 0xef]
    3849                      .dwattr $C$DW$701, DW_AT_accessibility(DW_ACCESS_public)
    3850              $C$DW$702       .dwtag  DW_TAG_member
    3851                      .dwattr $C$DW$702, DW_AT_type(*$C$DW$T$33)
    3852                      .dwattr $C$DW$702, DW_AT_name("flag_enableCtrl")
    3853                      .dwattr $C$DW$702, DW_AT_TI_symbol_name("_flag_enableCtrl")
    3854                      .dwattr $C$DW$702, DW_AT_data_member_location[DW_OP_plus_uconst 0xf0]
    3855                      .dwattr $C$DW$702, DW_AT_accessibility(DW_ACCESS_public)
    3856              $C$DW$703       .dwtag  DW_TAG_member
    3857                      .dwattr $C$DW$703, DW_AT_type(*$C$DW$T$33)
    3858                      .dwattr $C$DW$703, DW_AT_name("flag_enableDcBusComp")
    3859                      .dwattr $C$DW$703, DW_AT_TI_symbol_name("_flag_enableDcBusComp")
    3860                      .dwattr $C$DW$703, DW_AT_data_member_location[DW_OP_plus_uconst 0xf1]
    3861                      .dwattr $C$DW$703, DW_AT_accessibility(DW_ACCESS_public)
    3862              $C$DW$704       .dwtag  DW_TAG_member
    3863                      .dwattr $C$DW$704, DW_AT_type(*$C$DW$T$33)
    3864                      .dwattr $C$DW$704, DW_AT_name("flag_enablePowerWarp")
    3865                      .dwattr $C$DW$704, DW_AT_TI_symbol_name("_flag_enablePowerWarp")
    3866                      .dwattr $C$DW$704, DW_AT_data_member_location[DW_OP_plus_uconst 0xf2]
    3867                      .dwattr $C$DW$704, DW_AT_accessibility(DW_ACCESS_public)
    3868              $C$DW$705       .dwtag  DW_TAG_member
    3869                      .dwattr $C$DW$705, DW_AT_type(*$C$DW$T$33)
    3870                      .dwattr $C$DW$705, DW_AT_name("flag_enableOffset")
    3871                      .dwattr $C$DW$705, DW_AT_TI_symbol_name("_flag_enableOffset")
    3872                      .dwattr $C$DW$705, DW_AT_data_member_location[DW_OP_plus_uconst 0xf3]
    3873                      .dwattr $C$DW$705, DW_AT_accessibility(DW_ACCESS_public)
    3874              $C$DW$706       .dwtag  DW_TAG_member
    3875                      .dwattr $C$DW$706, DW_AT_type(*$C$DW$T$33)
    3876                      .dwattr $C$DW$706, DW_AT_name("flag_enableSpeedCtrl")
    3877                      .dwattr $C$DW$706, DW_AT_TI_symbol_name("_flag_enableSpeedCtrl")
    3878                      .dwattr $C$DW$706, DW_AT_data_member_location[DW_OP_plus_uconst 0xf4]
    3879                      .dwattr $C$DW$706, DW_AT_accessibility(DW_ACCESS_public)
    3880              $C$DW$707       .dwtag  DW_TAG_member
    3881                      .dwattr $C$DW$707, DW_AT_type(*$C$DW$T$33)
    3882                      .dwattr $C$DW$707, DW_AT_name("flag_enableUserMotorParams")
    3883                      .dwattr $C$DW$707, DW_AT_TI_symbol_name("_flag_enableUserMotorParams")
    3884                      .dwattr $C$DW$707, DW_AT_data_member_location[DW_OP_plus_uconst 0xf5]
    3885                      .dwattr $C$DW$707, DW_AT_accessibility(DW_ACCESS_public)
    3886              $C$DW$708       .dwtag  DW_TAG_member
    3887                      .dwattr $C$DW$708, DW_AT_type(*$C$DW$T$33)
    3888                      .dwattr $C$DW$708, DW_AT_name("flag_enableCurrentCtrl")
    3889                      .dwattr $C$DW$708, DW_AT_TI_symbol_name("_flag_enableCurrentCtrl")
    3890                      .dwattr $C$DW$708, DW_AT_data_member_location[DW_OP_plus_uconst 0xf6]
    3891                      .dwattr $C$DW$708, DW_AT_accessibility(DW_ACCESS_public)
    3892              $C$DW$709       .dwtag  DW_TAG_member
TMS320C2000 Assembler PC v6.2.5 Tue Nov 21 22:57:45 2017

Tools Copyright (c) 1996-2014 Texas Instruments Incorporated
C:\Users\wmj\AppData\Local\Temp\1055210                              PAGE   75

    3893                      .dwattr $C$DW$709, DW_AT_type(*$C$DW$T$31)
    3894                      .dwattr $C$DW$709, DW_AT_name("spd_outMaxRatio_pu")
    3895                      .dwattr $C$DW$709, DW_AT_TI_symbol_name("_spd_outMaxRatio_pu")
    3896                      .dwattr $C$DW$709, DW_AT_data_member_location[DW_OP_plus_uconst 0xf8]
    3897                      .dwattr $C$DW$709, DW_AT_accessibility(DW_ACCESS_public)
    3898              $C$DW$710       .dwtag  DW_TAG_member
    3899                      .dwattr $C$DW$710, DW_AT_type(*$C$DW$T$31)
    3900                      .dwattr $C$DW$710, DW_AT_name("enc_Angle")
    3901                      .dwattr $C$DW$710, DW_AT_TI_symbol_name("_enc_Angle")
    3902                      .dwattr $C$DW$710, DW_AT_data_member_location[DW_OP_plus_uconst 0xfa]
    3903                      .dwattr $C$DW$710, DW_AT_accessibility(DW_ACCESS_public)
    3904              $C$DW$711       .dwtag  DW_TAG_member
    3905                      .dwattr $C$DW$711, DW_AT_type(*$C$DW$T$33)
    3906                      .dwattr $C$DW$711, DW_AT_name("flag_enableEncAngle")
    3907                      .dwattr $C$DW$711, DW_AT_TI_symbol_name("_flag_enableEncAngle")
    3908                      .dwattr $C$DW$711, DW_AT_data_member_location[DW_OP_plus_uconst 0xfc]
    3909                      .dwattr $C$DW$711, DW_AT_accessibility(DW_ACCESS_public)
    3910              $C$DW$712       .dwtag  DW_TAG_member
    3911                      .dwattr $C$DW$712, DW_AT_type(*$C$DW$T$72)
    3912                      .dwattr $C$DW$712, DW_AT_name("brakeHandle")
    3913                      .dwattr $C$DW$712, DW_AT_TI_symbol_name("_brakeHandle")
    3914                      .dwattr $C$DW$712, DW_AT_data_member_location[DW_OP_plus_uconst 0xfe]
    3915                      .dwattr $C$DW$712, DW_AT_accessibility(DW_ACCESS_public)
    3916              $C$DW$713       .dwtag  DW_TAG_member
    3917                      .dwattr $C$DW$713, DW_AT_type(*$C$DW$T$73)
    3918                      .dwattr $C$DW$713, DW_AT_name("brake")
    3919                      .dwattr $C$DW$713, DW_AT_TI_symbol_name("_brake")
    3920                      .dwattr $C$DW$713, DW_AT_data_member_location[DW_OP_plus_uconst 0x100]
    3921                      .dwattr $C$DW$713, DW_AT_accessibility(DW_ACCESS_public)
    3922                      .dwendtag $C$DW$T$74
    3923              
    3924              $C$DW$T$258     .dwtag  DW_TAG_typedef, DW_AT_name("CTRL_Obj")
    3925                      .dwattr $C$DW$T$258, DW_AT_type(*$C$DW$T$74)
    3926                      .dwattr $C$DW$T$258, DW_AT_language(DW_LANG_C)
    3927              $C$DW$T$259     .dwtag  DW_TAG_pointer_type
    3928                      .dwattr $C$DW$T$259, DW_AT_type(*$C$DW$T$258)
    3929                      .dwattr $C$DW$T$259, DW_AT_address_class(0x16)
    3930              $C$DW$T$210     .dwtag  DW_TAG_pointer_type
    3931                      .dwattr $C$DW$T$210, DW_AT_type(*$C$DW$T$74)
    3932                      .dwattr $C$DW$T$210, DW_AT_address_class(0x16)
    3933              $C$DW$T$211     .dwtag  DW_TAG_typedef, DW_AT_name("CTRL_Handle")
    3934                      .dwattr $C$DW$T$211, DW_AT_type(*$C$DW$T$210)
    3935                      .dwattr $C$DW$T$211, DW_AT_language(DW_LANG_C)
    3936              
    3937              $C$DW$T$77      .dwtag  DW_TAG_structure_type
    3938                      .dwattr $C$DW$T$77, DW_AT_name("_CTRL_Version_")
    3939                      .dwattr $C$DW$T$77, DW_AT_byte_size(0x04)
    3940              $C$DW$714       .dwtag  DW_TAG_member
    3941                      .dwattr $C$DW$714, DW_AT_type(*$C$DW$T$22)
    3942                      .dwattr $C$DW$714, DW_AT_name("rsvd")
    3943                      .dwattr $C$DW$714, DW_AT_TI_symbol_name("_rsvd")
    3944                      .dwattr $C$DW$714, DW_AT_data_member_location[DW_OP_plus_uconst 0x0]
    3945                      .dwattr $C$DW$714, DW_AT_accessibility(DW_ACCESS_public)
    3946              $C$DW$715       .dwtag  DW_TAG_member
    3947                      .dwattr $C$DW$715, DW_AT_type(*$C$DW$T$76)
TMS320C2000 Assembler PC v6.2.5 Tue Nov 21 22:57:45 2017

Tools Copyright (c) 1996-2014 Texas Instruments Incorporated
C:\Users\wmj\AppData\Local\Temp\1055210                              PAGE   76

    3948                      .dwattr $C$DW$715, DW_AT_name("targetProc")
    3949                      .dwattr $C$DW$715, DW_AT_TI_symbol_name("_targetProc")
    3950                      .dwattr $C$DW$715, DW_AT_data_member_location[DW_OP_plus_uconst 0x1]
    3951                      .dwattr $C$DW$715, DW_AT_accessibility(DW_ACCESS_public)
    3952              $C$DW$716       .dwtag  DW_TAG_member
    3953                      .dwattr $C$DW$716, DW_AT_type(*$C$DW$T$22)
    3954                      .dwattr $C$DW$716, DW_AT_name("major")
    3955                      .dwattr $C$DW$716, DW_AT_TI_symbol_name("_major")
    3956                      .dwattr $C$DW$716, DW_AT_data_member_location[DW_OP_plus_uconst 0x2]
    3957                      .dwattr $C$DW$716, DW_AT_accessibility(DW_ACCESS_public)
    3958              $C$DW$717       .dwtag  DW_TAG_member
    3959                      .dwattr $C$DW$717, DW_AT_type(*$C$DW$T$22)
    3960                      .dwattr $C$DW$717, DW_AT_name("minor")
    3961                      .dwattr $C$DW$717, DW_AT_TI_symbol_name("_minor")
    3962                      .dwattr $C$DW$717, DW_AT_data_member_location[DW_OP_plus_uconst 0x3]
    3963                      .dwattr $C$DW$717, DW_AT_accessibility(DW_ACCESS_public)
    3964                      .dwendtag $C$DW$T$77
    3965              
    3966              $C$DW$T$40      .dwtag  DW_TAG_typedef, DW_AT_name("CTRL_Version")
    3967                      .dwattr $C$DW$T$40, DW_AT_type(*$C$DW$T$77)
    3968                      .dwattr $C$DW$T$40, DW_AT_language(DW_LANG_C)
    3969              $C$DW$T$266     .dwtag  DW_TAG_pointer_type
    3970                      .dwattr $C$DW$T$266, DW_AT_type(*$C$DW$T$40)
    3971                      .dwattr $C$DW$T$266, DW_AT_address_class(0x16)
    3972              
    3973              $C$DW$T$19      .dwtag  DW_TAG_structure_type
    3974                      .dwattr $C$DW$T$19, DW_AT_name("_EST_Obj_")
    3975                      .dwattr $C$DW$T$19, DW_AT_declaration
    3976                      .dwendtag $C$DW$T$19
    3977              
    3978              $C$DW$T$48      .dwtag  DW_TAG_pointer_type
    3979                      .dwattr $C$DW$T$48, DW_AT_type(*$C$DW$T$19)
    3980                      .dwattr $C$DW$T$48, DW_AT_address_class(0x16)
    3981              $C$DW$T$49      .dwtag  DW_TAG_typedef, DW_AT_name("EST_Handle")
    3982                      .dwattr $C$DW$T$49, DW_AT_type(*$C$DW$T$48)
    3983                      .dwattr $C$DW$T$49, DW_AT_language(DW_LANG_C)
    3984              
    3985              $C$DW$T$78      .dwtag  DW_TAG_structure_type
    3986                      .dwattr $C$DW$T$78, DW_AT_name("_FILTER_FO_")
    3987                      .dwattr $C$DW$T$78, DW_AT_byte_size(0x0a)
    3988              $C$DW$718       .dwtag  DW_TAG_member
    3989                      .dwattr $C$DW$718, DW_AT_type(*$C$DW$T$31)
    3990                      .dwattr $C$DW$718, DW_AT_name("a1")
    3991                      .dwattr $C$DW$718, DW_AT_TI_symbol_name("_a1")
    3992                      .dwattr $C$DW$718, DW_AT_data_member_location[DW_OP_plus_uconst 0x0]
    3993                      .dwattr $C$DW$718, DW_AT_accessibility(DW_ACCESS_public)
    3994              $C$DW$719       .dwtag  DW_TAG_member
    3995                      .dwattr $C$DW$719, DW_AT_type(*$C$DW$T$31)
    3996                      .dwattr $C$DW$719, DW_AT_name("b0")
    3997                      .dwattr $C$DW$719, DW_AT_TI_symbol_name("_b0")
    3998                      .dwattr $C$DW$719, DW_AT_data_member_location[DW_OP_plus_uconst 0x2]
    3999                      .dwattr $C$DW$719, DW_AT_accessibility(DW_ACCESS_public)
    4000              $C$DW$720       .dwtag  DW_TAG_member
    4001                      .dwattr $C$DW$720, DW_AT_type(*$C$DW$T$31)
    4002                      .dwattr $C$DW$720, DW_AT_name("b1")
TMS320C2000 Assembler PC v6.2.5 Tue Nov 21 22:57:45 2017

Tools Copyright (c) 1996-2014 Texas Instruments Incorporated
C:\Users\wmj\AppData\Local\Temp\1055210                              PAGE   77

    4003                      .dwattr $C$DW$720, DW_AT_TI_symbol_name("_b1")
    4004                      .dwattr $C$DW$720, DW_AT_data_member_location[DW_OP_plus_uconst 0x4]
    4005                      .dwattr $C$DW$720, DW_AT_accessibility(DW_ACCESS_public)
    4006              $C$DW$721       .dwtag  DW_TAG_member
    4007                      .dwattr $C$DW$721, DW_AT_type(*$C$DW$T$31)
    4008                      .dwattr $C$DW$721, DW_AT_name("x1")
    4009                      .dwattr $C$DW$721, DW_AT_TI_symbol_name("_x1")
    4010                      .dwattr $C$DW$721, DW_AT_data_member_location[DW_OP_plus_uconst 0x6]
    4011                      .dwattr $C$DW$721, DW_AT_accessibility(DW_ACCESS_public)
    4012              $C$DW$722       .dwtag  DW_TAG_member
    4013                      .dwattr $C$DW$722, DW_AT_type(*$C$DW$T$31)
    4014                      .dwattr $C$DW$722, DW_AT_name("y1")
    4015                      .dwattr $C$DW$722, DW_AT_TI_symbol_name("_y1")
    4016                      .dwattr $C$DW$722, DW_AT_data_member_location[DW_OP_plus_uconst 0x8]
    4017                      .dwattr $C$DW$722, DW_AT_accessibility(DW_ACCESS_public)
    4018                      .dwendtag $C$DW$T$78
    4019              
    4020              $C$DW$T$191     .dwtag  DW_TAG_typedef, DW_AT_name("FILTER_FO_Obj")
    4021                      .dwattr $C$DW$T$191, DW_AT_type(*$C$DW$T$78)
    4022                      .dwattr $C$DW$T$191, DW_AT_language(DW_LANG_C)
    4023              
    4024              $C$DW$T$20      .dwtag  DW_TAG_structure_type
    4025                      .dwattr $C$DW$T$20, DW_AT_name("_FILTER_FO_Obj_")
    4026                      .dwattr $C$DW$T$20, DW_AT_declaration
    4027                      .dwendtag $C$DW$T$20
    4028              
    4029              $C$DW$T$192     .dwtag  DW_TAG_pointer_type
    4030                      .dwattr $C$DW$T$192, DW_AT_type(*$C$DW$T$20)
    4031                      .dwattr $C$DW$T$192, DW_AT_address_class(0x16)
    4032              $C$DW$T$193     .dwtag  DW_TAG_typedef, DW_AT_name("FILTER_FO_Handle")
    4033                      .dwattr $C$DW$T$193, DW_AT_type(*$C$DW$T$192)
    4034                      .dwattr $C$DW$T$193, DW_AT_language(DW_LANG_C)
    4035              
    4036              $C$DW$T$79      .dwtag  DW_TAG_structure_type
    4037                      .dwattr $C$DW$T$79, DW_AT_name("_FLASH_Obj_")
    4038                      .dwattr $C$DW$T$79, DW_AT_byte_size(0x08)
    4039              $C$DW$723       .dwtag  DW_TAG_member
    4040                      .dwattr $C$DW$723, DW_AT_type(*$C$DW$T$23)
    4041                      .dwattr $C$DW$723, DW_AT_name("FOPT")
    4042                      .dwattr $C$DW$723, DW_AT_TI_symbol_name("_FOPT")
    4043                      .dwattr $C$DW$723, DW_AT_data_member_location[DW_OP_plus_uconst 0x0]
    4044                      .dwattr $C$DW$723, DW_AT_accessibility(DW_ACCESS_public)
    4045              $C$DW$724       .dwtag  DW_TAG_member
    4046                      .dwattr $C$DW$724, DW_AT_type(*$C$DW$T$23)
    4047                      .dwattr $C$DW$724, DW_AT_name("rsvd_1")
    4048                      .dwattr $C$DW$724, DW_AT_TI_symbol_name("_rsvd_1")
    4049                      .dwattr $C$DW$724, DW_AT_data_member_location[DW_OP_plus_uconst 0x1]
    4050                      .dwattr $C$DW$724, DW_AT_accessibility(DW_ACCESS_public)
    4051              $C$DW$725       .dwtag  DW_TAG_member
    4052                      .dwattr $C$DW$725, DW_AT_type(*$C$DW$T$23)
    4053                      .dwattr $C$DW$725, DW_AT_name("FPWR")
    4054                      .dwattr $C$DW$725, DW_AT_TI_symbol_name("_FPWR")
    4055                      .dwattr $C$DW$725, DW_AT_data_member_location[DW_OP_plus_uconst 0x2]
    4056                      .dwattr $C$DW$725, DW_AT_accessibility(DW_ACCESS_public)
    4057              $C$DW$726       .dwtag  DW_TAG_member
TMS320C2000 Assembler PC v6.2.5 Tue Nov 21 22:57:45 2017

Tools Copyright (c) 1996-2014 Texas Instruments Incorporated
C:\Users\wmj\AppData\Local\Temp\1055210                              PAGE   78

    4058                      .dwattr $C$DW$726, DW_AT_type(*$C$DW$T$23)
    4059                      .dwattr $C$DW$726, DW_AT_name("FSTATUS")
    4060                      .dwattr $C$DW$726, DW_AT_TI_symbol_name("_FSTATUS")
    4061                      .dwattr $C$DW$726, DW_AT_data_member_location[DW_OP_plus_uconst 0x3]
    4062                      .dwattr $C$DW$726, DW_AT_accessibility(DW_ACCESS_public)
    4063              $C$DW$727       .dwtag  DW_TAG_member
    4064                      .dwattr $C$DW$727, DW_AT_type(*$C$DW$T$23)
    4065                      .dwattr $C$DW$727, DW_AT_name("FSTDBYWAIT")
    4066                      .dwattr $C$DW$727, DW_AT_TI_symbol_name("_FSTDBYWAIT")
    4067                      .dwattr $C$DW$727, DW_AT_data_member_location[DW_OP_plus_uconst 0x4]
    4068                      .dwattr $C$DW$727, DW_AT_accessibility(DW_ACCESS_public)
    4069              $C$DW$728       .dwtag  DW_TAG_member
    4070                      .dwattr $C$DW$728, DW_AT_type(*$C$DW$T$23)
    4071                      .dwattr $C$DW$728, DW_AT_name("FACTIVEWAIT")
    4072                      .dwattr $C$DW$728, DW_AT_TI_symbol_name("_FACTIVEWAIT")
    4073                      .dwattr $C$DW$728, DW_AT_data_member_location[DW_OP_plus_uconst 0x5]
    4074                      .dwattr $C$DW$728, DW_AT_accessibility(DW_ACCESS_public)
    4075              $C$DW$729       .dwtag  DW_TAG_member
    4076                      .dwattr $C$DW$729, DW_AT_type(*$C$DW$T$23)
    4077                      .dwattr $C$DW$729, DW_AT_name("FBANKWAIT")
    4078                      .dwattr $C$DW$729, DW_AT_TI_symbol_name("_FBANKWAIT")
    4079                      .dwattr $C$DW$729, DW_AT_data_member_location[DW_OP_plus_uconst 0x6]
    4080                      .dwattr $C$DW$729, DW_AT_accessibility(DW_ACCESS_public)
    4081              $C$DW$730       .dwtag  DW_TAG_member
    4082                      .dwattr $C$DW$730, DW_AT_type(*$C$DW$T$23)
    4083                      .dwattr $C$DW$730, DW_AT_name("FOTPWAIT")
    4084                      .dwattr $C$DW$730, DW_AT_TI_symbol_name("_FOTPWAIT")
    4085                      .dwattr $C$DW$730, DW_AT_data_member_location[DW_OP_plus_uconst 0x7]
    4086                      .dwattr $C$DW$730, DW_AT_accessibility(DW_ACCESS_public)
    4087                      .dwendtag $C$DW$T$79
    4088              
    4089              $C$DW$T$124     .dwtag  DW_TAG_pointer_type
    4090                      .dwattr $C$DW$T$124, DW_AT_type(*$C$DW$T$79)
    4091                      .dwattr $C$DW$T$124, DW_AT_address_class(0x16)
    4092              $C$DW$T$125     .dwtag  DW_TAG_typedef, DW_AT_name("FLASH_Handle")
    4093                      .dwattr $C$DW$T$125, DW_AT_type(*$C$DW$T$124)
    4094                      .dwattr $C$DW$T$125, DW_AT_language(DW_LANG_C)
    4095              
    4096              $C$DW$T$99      .dwtag  DW_TAG_structure_type
    4097                      .dwattr $C$DW$T$99, DW_AT_name("_FSM_Obj_")
    4098                      .dwattr $C$DW$T$99, DW_AT_byte_size(0x26)
    4099              $C$DW$731       .dwtag  DW_TAG_member
    4100                      .dwattr $C$DW$731, DW_AT_type(*$C$DW$T$81)
    4101                      .dwattr $C$DW$731, DW_AT_name("motorHandle")
    4102                      .dwattr $C$DW$731, DW_AT_TI_symbol_name("_motorHandle")
    4103                      .dwattr $C$DW$731, DW_AT_data_member_location[DW_OP_plus_uconst 0x0]
    4104                      .dwattr $C$DW$731, DW_AT_accessibility(DW_ACCESS_public)
    4105              $C$DW$732       .dwtag  DW_TAG_member
    4106                      .dwattr $C$DW$732, DW_AT_type(*$C$DW$T$83)
    4107                      .dwattr $C$DW$732, DW_AT_name("halHandle")
    4108                      .dwattr $C$DW$732, DW_AT_TI_symbol_name("_halHandle")
    4109                      .dwattr $C$DW$732, DW_AT_data_member_location[DW_OP_plus_uconst 0x2]
    4110                      .dwattr $C$DW$732, DW_AT_accessibility(DW_ACCESS_public)
    4111              $C$DW$733       .dwtag  DW_TAG_member
    4112                      .dwattr $C$DW$733, DW_AT_type(*$C$DW$T$85)
TMS320C2000 Assembler PC v6.2.5 Tue Nov 21 22:57:45 2017

Tools Copyright (c) 1996-2014 Texas Instruments Incorporated
C:\Users\wmj\AppData\Local\Temp\1055210                              PAGE   79

    4113                      .dwattr $C$DW$733, DW_AT_name("StBoxHandle")
    4114                      .dwattr $C$DW$733, DW_AT_TI_symbol_name("_StBoxHandle")
    4115                      .dwattr $C$DW$733, DW_AT_data_member_location[DW_OP_plus_uconst 0x4]
    4116                      .dwattr $C$DW$733, DW_AT_accessibility(DW_ACCESS_public)
    4117              $C$DW$734       .dwtag  DW_TAG_member
    4118                      .dwattr $C$DW$734, DW_AT_type(*$C$DW$T$87)
    4119                      .dwattr $C$DW$734, DW_AT_name("FSM_State")
    4120                      .dwattr $C$DW$734, DW_AT_TI_symbol_name("_FSM_State")
    4121                      .dwattr $C$DW$734, DW_AT_data_member_location[DW_OP_plus_uconst 0x6]
    4122                      .dwattr $C$DW$734, DW_AT_accessibility(DW_ACCESS_public)
    4123              $C$DW$735       .dwtag  DW_TAG_member
    4124                      .dwattr $C$DW$735, DW_AT_type(*$C$DW$T$87)
    4125                      .dwattr $C$DW$735, DW_AT_name("FSM_CurState")
    4126                      .dwattr $C$DW$735, DW_AT_TI_symbol_name("_FSM_CurState")
    4127                      .dwattr $C$DW$735, DW_AT_data_member_location[DW_OP_plus_uconst 0x7]
    4128                      .dwattr $C$DW$735, DW_AT_accessibility(DW_ACCESS_public)
    4129              $C$DW$736       .dwtag  DW_TAG_member
    4130                      .dwattr $C$DW$736, DW_AT_type(*$C$DW$T$89)
    4131                      .dwattr $C$DW$736, DW_AT_name("FSM_Trans")
    4132                      .dwattr $C$DW$736, DW_AT_TI_symbol_name("_FSM_Trans")
    4133                      .dwattr $C$DW$736, DW_AT_data_member_location[DW_OP_plus_uconst 0x8]
    4134                      .dwattr $C$DW$736, DW_AT_accessibility(DW_ACCESS_public)
    4135              $C$DW$737       .dwtag  DW_TAG_member
    4136                      .dwattr $C$DW$737, DW_AT_type(*$C$DW$T$91)
    4137                      .dwattr $C$DW$737, DW_AT_name("FSM_Event")
    4138                      .dwattr $C$DW$737, DW_AT_TI_symbol_name("_FSM_Event")
    4139                      .dwattr $C$DW$737, DW_AT_data_member_location[DW_OP_plus_uconst 0x9]
    4140                      .dwattr $C$DW$737, DW_AT_accessibility(DW_ACCESS_public)
    4141              $C$DW$738       .dwtag  DW_TAG_member
    4142                      .dwattr $C$DW$738, DW_AT_type(*$C$DW$T$93)
    4143                      .dwattr $C$DW$738, DW_AT_name("FSM_StMode")
    4144                      .dwattr $C$DW$738, DW_AT_TI_symbol_name("_FSM_StMode")
    4145                      .dwattr $C$DW$738, DW_AT_data_member_location[DW_OP_plus_uconst 0xa]
    4146                      .dwattr $C$DW$738, DW_AT_accessibility(DW_ACCESS_public)
    4147              $C$DW$739       .dwtag  DW_TAG_member
    4148                      .dwattr $C$DW$739, DW_AT_type(*$C$DW$T$22)
    4149                      .dwattr $C$DW$739, DW_AT_name("FSM_ErrFlg")
    4150                      .dwattr $C$DW$739, DW_AT_TI_symbol_name("_FSM_ErrFlg")
    4151                      .dwattr $C$DW$739, DW_AT_data_member_location[DW_OP_plus_uconst 0xb]
    4152                      .dwattr $C$DW$739, DW_AT_accessibility(DW_ACCESS_public)
    4153              $C$DW$740       .dwtag  DW_TAG_member
    4154                      .dwattr $C$DW$740, DW_AT_type(*$C$DW$T$22)
    4155                      .dwattr $C$DW$740, DW_AT_name("FSM_ErrMask")
    4156                      .dwattr $C$DW$740, DW_AT_TI_symbol_name("_FSM_ErrMask")
    4157                      .dwattr $C$DW$740, DW_AT_data_member_location[DW_OP_plus_uconst 0xc]
    4158                      .dwattr $C$DW$740, DW_AT_accessibility(DW_ACCESS_public)
    4159              $C$DW$741       .dwtag  DW_TAG_member
    4160                      .dwattr $C$DW$741, DW_AT_type(*$C$DW$T$22)
    4161                      .dwattr $C$DW$741, DW_AT_name("FSM_runTime")
    4162                      .dwattr $C$DW$741, DW_AT_TI_symbol_name("_FSM_runTime")
    4163                      .dwattr $C$DW$741, DW_AT_data_member_location[DW_OP_plus_uconst 0xd]
    4164                      .dwattr $C$DW$741, DW_AT_accessibility(DW_ACCESS_public)
    4165              $C$DW$742       .dwtag  DW_TAG_member
    4166                      .dwattr $C$DW$742, DW_AT_type(*$C$DW$T$22)
    4167                      .dwattr $C$DW$742, DW_AT_name("FSM_485Cmd")
TMS320C2000 Assembler PC v6.2.5 Tue Nov 21 22:57:45 2017

Tools Copyright (c) 1996-2014 Texas Instruments Incorporated
C:\Users\wmj\AppData\Local\Temp\1055210                              PAGE   80

    4168                      .dwattr $C$DW$742, DW_AT_TI_symbol_name("_FSM_485Cmd")
    4169                      .dwattr $C$DW$742, DW_AT_data_member_location[DW_OP_plus_uconst 0xe]
    4170                      .dwattr $C$DW$742, DW_AT_accessibility(DW_ACCESS_public)
    4171              $C$DW$743       .dwtag  DW_TAG_member
    4172                      .dwattr $C$DW$743, DW_AT_type(*$C$DW$T$87)
    4173                      .dwattr $C$DW$743, DW_AT_name("FSM_485EditState")
    4174                      .dwattr $C$DW$743, DW_AT_TI_symbol_name("_FSM_485EditState")
    4175                      .dwattr $C$DW$743, DW_AT_data_member_location[DW_OP_plus_uconst 0xf]
    4176                      .dwattr $C$DW$743, DW_AT_accessibility(DW_ACCESS_public)
    4177              $C$DW$744       .dwtag  DW_TAG_member
    4178                      .dwattr $C$DW$744, DW_AT_type(*$C$DW$T$95)
    4179                      .dwattr $C$DW$744, DW_AT_name("FSM_485EditOpt")
    4180                      .dwattr $C$DW$744, DW_AT_TI_symbol_name("_FSM_485EditOpt")
    4181                      .dwattr $C$DW$744, DW_AT_data_member_location[DW_OP_plus_uconst 0x10]
    4182                      .dwattr $C$DW$744, DW_AT_accessibility(DW_ACCESS_public)
    4183              $C$DW$745       .dwtag  DW_TAG_member
    4184                      .dwattr $C$DW$745, DW_AT_type(*$C$DW$T$22)
    4185                      .dwattr $C$DW$745, DW_AT_name("FSM_485RefSpeed")
    4186                      .dwattr $C$DW$745, DW_AT_TI_symbol_name("_FSM_485RefSpeed")
    4187                      .dwattr $C$DW$745, DW_AT_data_member_location[DW_OP_plus_uconst 0x11]
    4188                      .dwattr $C$DW$745, DW_AT_accessibility(DW_ACCESS_public)
    4189              $C$DW$746       .dwtag  DW_TAG_member
    4190                      .dwattr $C$DW$746, DW_AT_type(*$C$DW$T$31)
    4191                      .dwattr $C$DW$746, DW_AT_name("MaxTorque_Nm")
    4192                      .dwattr $C$DW$746, DW_AT_TI_symbol_name("_MaxTorque_Nm")
    4193                      .dwattr $C$DW$746, DW_AT_data_member_location[DW_OP_plus_uconst 0x12]
    4194                      .dwattr $C$DW$746, DW_AT_accessibility(DW_ACCESS_public)
    4195              $C$DW$747       .dwtag  DW_TAG_member
    4196                      .dwattr $C$DW$747, DW_AT_type(*$C$DW$T$97)
    4197                      .dwattr $C$DW$747, DW_AT_name("FSM_CheckCond")
    4198                      .dwattr $C$DW$747, DW_AT_TI_symbol_name("_FSM_CheckCond")
    4199                      .dwattr $C$DW$747, DW_AT_data_member_location[DW_OP_plus_uconst 0x14]
    4200                      .dwattr $C$DW$747, DW_AT_accessibility(DW_ACCESS_public)
    4201              $C$DW$748       .dwtag  DW_TAG_member
    4202                      .dwattr $C$DW$748, DW_AT_type(*$C$DW$T$22)
    4203                      .dwattr $C$DW$748, DW_AT_name("FSM_CondValue")
    4204                      .dwattr $C$DW$748, DW_AT_TI_symbol_name("_FSM_CondValue")
    4205                      .dwattr $C$DW$748, DW_AT_data_member_location[DW_OP_plus_uconst 0x15]
    4206                      .dwattr $C$DW$748, DW_AT_accessibility(DW_ACCESS_public)
    4207              $C$DW$749       .dwtag  DW_TAG_member
    4208                      .dwattr $C$DW$749, DW_AT_type(*$C$DW$T$98)
    4209                      .dwattr $C$DW$749, DW_AT_name("OldAbsPos")
    4210                      .dwattr $C$DW$749, DW_AT_TI_symbol_name("_OldAbsPos")
    4211                      .dwattr $C$DW$749, DW_AT_data_member_location[DW_OP_plus_uconst 0x16]
    4212                      .dwattr $C$DW$749, DW_AT_accessibility(DW_ACCESS_public)
    4213              $C$DW$750       .dwtag  DW_TAG_member
    4214                      .dwattr $C$DW$750, DW_AT_type(*$C$DW$T$98)
    4215                      .dwattr $C$DW$750, DW_AT_name("NewAbsPos")
    4216                      .dwattr $C$DW$750, DW_AT_TI_symbol_name("_NewAbsPos")
    4217                      .dwattr $C$DW$750, DW_AT_data_member_location[DW_OP_plus_uconst 0x1a]
    4218                      .dwattr $C$DW$750, DW_AT_accessibility(DW_ACCESS_public)
    4219              $C$DW$751       .dwtag  DW_TAG_member
    4220                      .dwattr $C$DW$751, DW_AT_type(*$C$DW$T$33)
    4221                      .dwattr $C$DW$751, DW_AT_name("Flag_485StartMotor")
    4222                      .dwattr $C$DW$751, DW_AT_TI_symbol_name("_Flag_485StartMotor")
TMS320C2000 Assembler PC v6.2.5 Tue Nov 21 22:57:45 2017

Tools Copyright (c) 1996-2014 Texas Instruments Incorporated
C:\Users\wmj\AppData\Local\Temp\1055210                              PAGE   81

    4223                      .dwattr $C$DW$751, DW_AT_data_member_location[DW_OP_plus_uconst 0x1e]
    4224                      .dwattr $C$DW$751, DW_AT_accessibility(DW_ACCESS_public)
    4225              $C$DW$752       .dwtag  DW_TAG_member
    4226                      .dwattr $C$DW$752, DW_AT_type(*$C$DW$T$33)
    4227                      .dwattr $C$DW$752, DW_AT_name("Flag_MaxTimeLimit")
    4228                      .dwattr $C$DW$752, DW_AT_TI_symbol_name("_Flag_MaxTimeLimit")
    4229                      .dwattr $C$DW$752, DW_AT_data_member_location[DW_OP_plus_uconst 0x1f]
    4230                      .dwattr $C$DW$752, DW_AT_accessibility(DW_ACCESS_public)
    4231              $C$DW$753       .dwtag  DW_TAG_member
    4232                      .dwattr $C$DW$753, DW_AT_type(*$C$DW$T$33)
    4233                      .dwattr $C$DW$753, DW_AT_name("runTime_Enable")
    4234                      .dwattr $C$DW$753, DW_AT_TI_symbol_name("_runTime_Enable")
    4235                      .dwattr $C$DW$753, DW_AT_data_member_location[DW_OP_plus_uconst 0x20]
    4236                      .dwattr $C$DW$753, DW_AT_accessibility(DW_ACCESS_public)
    4237              $C$DW$754       .dwtag  DW_TAG_member
    4238                      .dwattr $C$DW$754, DW_AT_type(*$C$DW$T$33)
    4239                      .dwattr $C$DW$754, DW_AT_name("Flag_StallEnable")
    4240                      .dwattr $C$DW$754, DW_AT_TI_symbol_name("_Flag_StallEnable")
    4241                      .dwattr $C$DW$754, DW_AT_data_member_location[DW_OP_plus_uconst 0x21]
    4242                      .dwattr $C$DW$754, DW_AT_accessibility(DW_ACCESS_public)
    4243              $C$DW$755       .dwtag  DW_TAG_member
    4244                      .dwattr $C$DW$755, DW_AT_type(*$C$DW$T$33)
    4245                      .dwattr $C$DW$755, DW_AT_name("Flag_ReportState")
    4246                      .dwattr $C$DW$755, DW_AT_TI_symbol_name("_Flag_ReportState")
    4247                      .dwattr $C$DW$755, DW_AT_data_member_location[DW_OP_plus_uconst 0x22]
    4248                      .dwattr $C$DW$755, DW_AT_accessibility(DW_ACCESS_public)
    4249              $C$DW$756       .dwtag  DW_TAG_member
    4250                      .dwattr $C$DW$756, DW_AT_type(*$C$DW$T$33)
    4251                      .dwattr $C$DW$756, DW_AT_name("Flag_RunMode")
    4252                      .dwattr $C$DW$756, DW_AT_TI_symbol_name("_Flag_RunMode")
    4253                      .dwattr $C$DW$756, DW_AT_data_member_location[DW_OP_plus_uconst 0x23]
    4254                      .dwattr $C$DW$756, DW_AT_accessibility(DW_ACCESS_public)
    4255              $C$DW$757       .dwtag  DW_TAG_member
    4256                      .dwattr $C$DW$757, DW_AT_type(*$C$DW$T$33)
    4257                      .dwattr $C$DW$757, DW_AT_name("Flag_DcBrake")
    4258                      .dwattr $C$DW$757, DW_AT_TI_symbol_name("_Flag_DcBrake")
    4259                      .dwattr $C$DW$757, DW_AT_data_member_location[DW_OP_plus_uconst 0x24]
    4260                      .dwattr $C$DW$757, DW_AT_accessibility(DW_ACCESS_public)
    4261                      .dwendtag $C$DW$T$99
    4262              
    4263              $C$DW$T$221     .dwtag  DW_TAG_typedef, DW_AT_name("FSM_Obj")
    4264                      .dwattr $C$DW$T$221, DW_AT_type(*$C$DW$T$99)
    4265                      .dwattr $C$DW$T$221, DW_AT_language(DW_LANG_C)
    4266              $C$DW$T$163     .dwtag  DW_TAG_pointer_type
    4267                      .dwattr $C$DW$T$163, DW_AT_type(*$C$DW$T$99)
    4268                      .dwattr $C$DW$T$163, DW_AT_address_class(0x16)
    4269              $C$DW$T$164     .dwtag  DW_TAG_typedef, DW_AT_name("FSM_Handle")
    4270                      .dwattr $C$DW$T$164, DW_AT_type(*$C$DW$T$163)
    4271                      .dwattr $C$DW$T$164, DW_AT_language(DW_LANG_C)
    4272              
    4273              $C$DW$T$101     .dwtag  DW_TAG_structure_type
    4274                      .dwattr $C$DW$T$101, DW_AT_name("_FSM_Position_t_")
    4275                      .dwattr $C$DW$T$101, DW_AT_byte_size(0x04)
    4276              $C$DW$758       .dwtag  DW_TAG_member
    4277                      .dwattr $C$DW$758, DW_AT_type(*$C$DW$T$100)
TMS320C2000 Assembler PC v6.2.5 Tue Nov 21 22:57:45 2017

Tools Copyright (c) 1996-2014 Texas Instruments Incorporated
C:\Users\wmj\AppData\Local\Temp\1055210                              PAGE   82

    4278                      .dwattr $C$DW$758, DW_AT_name("PosInt_MRev")
    4279                      .dwattr $C$DW$758, DW_AT_TI_symbol_name("_PosInt_MRev")
    4280                      .dwattr $C$DW$758, DW_AT_data_member_location[DW_OP_plus_uconst 0x0]
    4281                      .dwattr $C$DW$758, DW_AT_accessibility(DW_ACCESS_public)
    4282              $C$DW$759       .dwtag  DW_TAG_member
    4283                      .dwattr $C$DW$759, DW_AT_type(*$C$DW$T$31)
    4284                      .dwattr $C$DW$759, DW_AT_name("PosFrac_MRev")
    4285                      .dwattr $C$DW$759, DW_AT_TI_symbol_name("_PosFrac_MRev")
    4286                      .dwattr $C$DW$759, DW_AT_data_member_location[DW_OP_plus_uconst 0x2]
    4287                      .dwattr $C$DW$759, DW_AT_accessibility(DW_ACCESS_public)
    4288                      .dwendtag $C$DW$T$101
    4289              
    4290              $C$DW$T$98      .dwtag  DW_TAG_typedef, DW_AT_name("FSM_Position_t")
    4291                      .dwattr $C$DW$T$98, DW_AT_type(*$C$DW$T$101)
    4292                      .dwattr $C$DW$T$98, DW_AT_language(DW_LANG_C)
    4293              
    4294              $C$DW$T$110     .dwtag  DW_TAG_structure_type
    4295                      .dwattr $C$DW$T$110, DW_AT_name("_FSM_StatePool_t_")
    4296                      .dwattr $C$DW$T$110, DW_AT_byte_size(0x4b)
    4297              $C$DW$760       .dwtag  DW_TAG_member
    4298                      .dwattr $C$DW$760, DW_AT_type(*$C$DW$T$103)
    4299                      .dwattr $C$DW$760, DW_AT_name("FSM_RefSpeed")
    4300                      .dwattr $C$DW$760, DW_AT_TI_symbol_name("_FSM_RefSpeed")
    4301                      .dwattr $C$DW$760, DW_AT_data_member_location[DW_OP_plus_uconst 0x0]
    4302                      .dwattr $C$DW$760, DW_AT_accessibility(DW_ACCESS_public)
    4303              $C$DW$761       .dwtag  DW_TAG_member
    4304                      .dwattr $C$DW$761, DW_AT_type(*$C$DW$T$104)
    4305                      .dwattr $C$DW$761, DW_AT_name("FSM_CondValue")
    4306                      .dwattr $C$DW$761, DW_AT_TI_symbol_name("_FSM_CondValue")
    4307                      .dwattr $C$DW$761, DW_AT_data_member_location[DW_OP_plus_uconst 0xf]
    4308                      .dwattr $C$DW$761, DW_AT_accessibility(DW_ACCESS_public)
    4309              $C$DW$762       .dwtag  DW_TAG_member
    4310                      .dwattr $C$DW$762, DW_AT_type(*$C$DW$T$105)
    4311                      .dwattr $C$DW$762, DW_AT_name("FSM_Condition")
    4312                      .dwattr $C$DW$762, DW_AT_TI_symbol_name("_FSM_Condition")
    4313                      .dwattr $C$DW$762, DW_AT_data_member_location[DW_OP_plus_uconst 0x1e]
    4314                      .dwattr $C$DW$762, DW_AT_accessibility(DW_ACCESS_public)
    4315              $C$DW$763       .dwtag  DW_TAG_member
    4316                      .dwattr $C$DW$763, DW_AT_type(*$C$DW$T$108)
    4317                      .dwattr $C$DW$763, DW_AT_name("FSM_RunAction")
    4318                      .dwattr $C$DW$763, DW_AT_TI_symbol_name("_FSM_RunAction")
    4319                      .dwattr $C$DW$763, DW_AT_data_member_location[DW_OP_plus_uconst 0x2d]
    4320                      .dwattr $C$DW$763, DW_AT_accessibility(DW_ACCESS_public)
    4321              $C$DW$764       .dwtag  DW_TAG_member
    4322                      .dwattr $C$DW$764, DW_AT_type(*$C$DW$T$109)
    4323                      .dwattr $C$DW$764, DW_AT_name("FSM_NextState")
    4324                      .dwattr $C$DW$764, DW_AT_TI_symbol_name("_FSM_NextState")
    4325                      .dwattr $C$DW$764, DW_AT_data_member_location[DW_OP_plus_uconst 0x3c]
    4326                      .dwattr $C$DW$764, DW_AT_accessibility(DW_ACCESS_public)
    4327                      .dwendtag $C$DW$T$110
    4328              
    4329              $C$DW$T$84      .dwtag  DW_TAG_pointer_type
    4330                      .dwattr $C$DW$T$84, DW_AT_type(*$C$DW$T$110)
    4331                      .dwattr $C$DW$T$84, DW_AT_address_class(0x16)
    4332              $C$DW$T$85      .dwtag  DW_TAG_typedef, DW_AT_name("StPool_Handle")
TMS320C2000 Assembler PC v6.2.5 Tue Nov 21 22:57:45 2017

Tools Copyright (c) 1996-2014 Texas Instruments Incorporated
C:\Users\wmj\AppData\Local\Temp\1055210                              PAGE   83

    4333                      .dwattr $C$DW$T$85, DW_AT_type(*$C$DW$T$84)
    4334                      .dwattr $C$DW$T$85, DW_AT_language(DW_LANG_C)
    4335              
    4336              $C$DW$T$111     .dwtag  DW_TAG_structure_type
    4337                      .dwattr $C$DW$T$111, DW_AT_name("_FS_Obj_")
    4338                      .dwattr $C$DW$T$111, DW_AT_byte_size(0x12)
    4339              $C$DW$765       .dwtag  DW_TAG_member
    4340                      .dwattr $C$DW$765, DW_AT_type(*$C$DW$T$31)
    4341                      .dwattr $C$DW$765, DW_AT_name("speed_ref_pu")
    4342                      .dwattr $C$DW$765, DW_AT_TI_symbol_name("_speed_ref_pu")
    4343                      .dwattr $C$DW$765, DW_AT_data_member_location[DW_OP_plus_uconst 0x0]
    4344                      .dwattr $C$DW$765, DW_AT_accessibility(DW_ACCESS_public)
    4345              $C$DW$766       .dwtag  DW_TAG_member
    4346                      .dwattr $C$DW$766, DW_AT_type(*$C$DW$T$31)
    4347                      .dwattr $C$DW$766, DW_AT_name("speed_set_pu")
    4348                      .dwattr $C$DW$766, DW_AT_TI_symbol_name("_speed_set_pu")
    4349                      .dwattr $C$DW$766, DW_AT_data_member_location[DW_OP_plus_uconst 0x2]
    4350                      .dwattr $C$DW$766, DW_AT_accessibility(DW_ACCESS_public)
    4351              $C$DW$767       .dwtag  DW_TAG_member
    4352                      .dwattr $C$DW$767, DW_AT_type(*$C$DW$T$31)
    4353                      .dwattr $C$DW$767, DW_AT_name("speed_est_pu")
    4354                      .dwattr $C$DW$767, DW_AT_TI_symbol_name("_speed_est_pu")
    4355                      .dwattr $C$DW$767, DW_AT_data_member_location[DW_OP_plus_uconst 0x4]
    4356                      .dwattr $C$DW$767, DW_AT_accessibility(DW_ACCESS_public)
    4357              $C$DW$768       .dwtag  DW_TAG_member
    4358                      .dwattr $C$DW$768, DW_AT_type(*$C$DW$T$31)
    4359                      .dwattr $C$DW$768, DW_AT_name("speed_est_avg")
    4360                      .dwattr $C$DW$768, DW_AT_TI_symbol_name("_speed_est_avg")
    4361                      .dwattr $C$DW$768, DW_AT_data_member_location[DW_OP_plus_uconst 0x6]
    4362                      .dwattr $C$DW$768, DW_AT_accessibility(DW_ACCESS_public)
    4363              $C$DW$769       .dwtag  DW_TAG_member
    4364                      .dwattr $C$DW$769, DW_AT_type(*$C$DW$T$31)
    4365                      .dwattr $C$DW$769, DW_AT_name("speed_fs_min")
    4366                      .dwattr $C$DW$769, DW_AT_TI_symbol_name("_speed_fs_min")
    4367                      .dwattr $C$DW$769, DW_AT_data_member_location[DW_OP_plus_uconst 0x8]
    4368                      .dwattr $C$DW$769, DW_AT_accessibility(DW_ACCESS_public)
    4369              $C$DW$770       .dwtag  DW_TAG_member
    4370                      .dwattr $C$DW$770, DW_AT_type(*$C$DW$T$31)
    4371                      .dwattr $C$DW$770, DW_AT_name("run_direction")
    4372                      .dwattr $C$DW$770, DW_AT_TI_symbol_name("_run_direction")
    4373                      .dwattr $C$DW$770, DW_AT_data_member_location[DW_OP_plus_uconst 0xa]
    4374                      .dwattr $C$DW$770, DW_AT_accessibility(DW_ACCESS_public)
    4375              $C$DW$771       .dwtag  DW_TAG_member
    4376                      .dwattr $C$DW$771, DW_AT_type(*$C$DW$T$66)
    4377                      .dwattr $C$DW$771, DW_AT_name("cnt_checktime")
    4378                      .dwattr $C$DW$771, DW_AT_TI_symbol_name("_cnt_checktime")
    4379                      .dwattr $C$DW$771, DW_AT_data_member_location[DW_OP_plus_uconst 0xc]
    4380                      .dwattr $C$DW$771, DW_AT_accessibility(DW_ACCESS_public)
    4381              $C$DW$772       .dwtag  DW_TAG_member
    4382                      .dwattr $C$DW$772, DW_AT_type(*$C$DW$T$66)
    4383                      .dwattr $C$DW$772, DW_AT_name("max_checktime")
    4384                      .dwattr $C$DW$772, DW_AT_TI_symbol_name("_max_checktime")
    4385                      .dwattr $C$DW$772, DW_AT_data_member_location[DW_OP_plus_uconst 0xe]
    4386                      .dwattr $C$DW$772, DW_AT_accessibility(DW_ACCESS_public)
    4387              $C$DW$773       .dwtag  DW_TAG_member
TMS320C2000 Assembler PC v6.2.5 Tue Nov 21 22:57:45 2017

Tools Copyright (c) 1996-2014 Texas Instruments Incorporated
C:\Users\wmj\AppData\Local\Temp\1055210                              PAGE   84

    4388                      .dwattr $C$DW$773, DW_AT_type(*$C$DW$T$33)
    4389                      .dwattr $C$DW$773, DW_AT_name("flag_enableSpeedCtrl")
    4390                      .dwattr $C$DW$773, DW_AT_TI_symbol_name("_flag_enableSpeedCtrl")
    4391                      .dwattr $C$DW$773, DW_AT_data_member_location[DW_OP_plus_uconst 0x10]
    4392                      .dwattr $C$DW$773, DW_AT_accessibility(DW_ACCESS_public)
    4393              $C$DW$774       .dwtag  DW_TAG_member
    4394                      .dwattr $C$DW$774, DW_AT_type(*$C$DW$T$33)
    4395                      .dwattr $C$DW$774, DW_AT_name("flag_enableFs")
    4396                      .dwattr $C$DW$774, DW_AT_TI_symbol_name("_flag_enableFs")
    4397                      .dwattr $C$DW$774, DW_AT_data_member_location[DW_OP_plus_uconst 0x11]
    4398                      .dwattr $C$DW$774, DW_AT_accessibility(DW_ACCESS_public)
    4399                      .dwendtag $C$DW$T$111
    4400              
    4401              $C$DW$T$214     .dwtag  DW_TAG_typedef, DW_AT_name("FS_Obj")
    4402                      .dwattr $C$DW$T$214, DW_AT_type(*$C$DW$T$111)
    4403                      .dwattr $C$DW$T$214, DW_AT_language(DW_LANG_C)
    4404              $C$DW$T$268     .dwtag  DW_TAG_pointer_type
    4405                      .dwattr $C$DW$T$268, DW_AT_type(*$C$DW$T$214)
    4406                      .dwattr $C$DW$T$268, DW_AT_address_class(0x16)
    4407              $C$DW$T$215     .dwtag  DW_TAG_pointer_type
    4408                      .dwattr $C$DW$T$215, DW_AT_type(*$C$DW$T$111)
    4409                      .dwattr $C$DW$T$215, DW_AT_address_class(0x16)
    4410              $C$DW$T$216     .dwtag  DW_TAG_typedef, DW_AT_name("FS_Handle")
    4411                      .dwattr $C$DW$T$216, DW_AT_type(*$C$DW$T$215)
    4412                      .dwattr $C$DW$T$216, DW_AT_language(DW_LANG_C)
    4413              
    4414              $C$DW$T$115     .dwtag  DW_TAG_structure_type
    4415                      .dwattr $C$DW$T$115, DW_AT_name("_GPIO_Obj_")
    4416                      .dwattr $C$DW$T$115, DW_AT_byte_size(0x6a)
    4417              $C$DW$775       .dwtag  DW_TAG_member
    4418                      .dwattr $C$DW$775, DW_AT_type(*$C$DW$T$112)
    4419                      .dwattr $C$DW$775, DW_AT_name("GPACTRL")
    4420                      .dwattr $C$DW$775, DW_AT_TI_symbol_name("_GPACTRL")
    4421                      .dwattr $C$DW$775, DW_AT_data_member_location[DW_OP_plus_uconst 0x0]
    4422                      .dwattr $C$DW$775, DW_AT_accessibility(DW_ACCESS_public)
    4423              $C$DW$776       .dwtag  DW_TAG_member
    4424                      .dwattr $C$DW$776, DW_AT_type(*$C$DW$T$112)
    4425                      .dwattr $C$DW$776, DW_AT_name("GPAQSEL1")
    4426                      .dwattr $C$DW$776, DW_AT_TI_symbol_name("_GPAQSEL1")
    4427                      .dwattr $C$DW$776, DW_AT_data_member_location[DW_OP_plus_uconst 0x2]
    4428                      .dwattr $C$DW$776, DW_AT_accessibility(DW_ACCESS_public)
    4429              $C$DW$777       .dwtag  DW_TAG_member
    4430                      .dwattr $C$DW$777, DW_AT_type(*$C$DW$T$112)
    4431                      .dwattr $C$DW$777, DW_AT_name("GPAQSEL2")
    4432                      .dwattr $C$DW$777, DW_AT_TI_symbol_name("_GPAQSEL2")
    4433                      .dwattr $C$DW$777, DW_AT_data_member_location[DW_OP_plus_uconst 0x4]
    4434                      .dwattr $C$DW$777, DW_AT_accessibility(DW_ACCESS_public)
    4435              $C$DW$778       .dwtag  DW_TAG_member
    4436                      .dwattr $C$DW$778, DW_AT_type(*$C$DW$T$112)
    4437                      .dwattr $C$DW$778, DW_AT_name("GPAMUX1")
    4438                      .dwattr $C$DW$778, DW_AT_TI_symbol_name("_GPAMUX1")
    4439                      .dwattr $C$DW$778, DW_AT_data_member_location[DW_OP_plus_uconst 0x6]
    4440                      .dwattr $C$DW$778, DW_AT_accessibility(DW_ACCESS_public)
    4441              $C$DW$779       .dwtag  DW_TAG_member
    4442                      .dwattr $C$DW$779, DW_AT_type(*$C$DW$T$112)
TMS320C2000 Assembler PC v6.2.5 Tue Nov 21 22:57:45 2017

Tools Copyright (c) 1996-2014 Texas Instruments Incorporated
C:\Users\wmj\AppData\Local\Temp\1055210                              PAGE   85

    4443                      .dwattr $C$DW$779, DW_AT_name("GPAMUX2")
    4444                      .dwattr $C$DW$779, DW_AT_TI_symbol_name("_GPAMUX2")
    4445                      .dwattr $C$DW$779, DW_AT_data_member_location[DW_OP_plus_uconst 0x8]
    4446                      .dwattr $C$DW$779, DW_AT_accessibility(DW_ACCESS_public)
    4447              $C$DW$780       .dwtag  DW_TAG_member
    4448                      .dwattr $C$DW$780, DW_AT_type(*$C$DW$T$112)
    4449                      .dwattr $C$DW$780, DW_AT_name("GPADIR")
    4450                      .dwattr $C$DW$780, DW_AT_TI_symbol_name("_GPADIR")
    4451                      .dwattr $C$DW$780, DW_AT_data_member_location[DW_OP_plus_uconst 0xa]
    4452                      .dwattr $C$DW$780, DW_AT_accessibility(DW_ACCESS_public)
    4453              $C$DW$781       .dwtag  DW_TAG_member
    4454                      .dwattr $C$DW$781, DW_AT_type(*$C$DW$T$112)
    4455                      .dwattr $C$DW$781, DW_AT_name("GPAPUD")
    4456                      .dwattr $C$DW$781, DW_AT_TI_symbol_name("_GPAPUD")
    4457                      .dwattr $C$DW$781, DW_AT_data_member_location[DW_OP_plus_uconst 0xc]
    4458                      .dwattr $C$DW$781, DW_AT_accessibility(DW_ACCESS_public)
    4459              $C$DW$782       .dwtag  DW_TAG_member
    4460                      .dwattr $C$DW$782, DW_AT_type(*$C$DW$T$26)
    4461                      .dwattr $C$DW$782, DW_AT_name("rsvd_1")
    4462                      .dwattr $C$DW$782, DW_AT_TI_symbol_name("_rsvd_1")
    4463                      .dwattr $C$DW$782, DW_AT_data_member_location[DW_OP_plus_uconst 0xe]
    4464                      .dwattr $C$DW$782, DW_AT_accessibility(DW_ACCESS_public)
    4465              $C$DW$783       .dwtag  DW_TAG_member
    4466                      .dwattr $C$DW$783, DW_AT_type(*$C$DW$T$112)
    4467                      .dwattr $C$DW$783, DW_AT_name("GPBCTRL")
    4468                      .dwattr $C$DW$783, DW_AT_TI_symbol_name("_GPBCTRL")
    4469                      .dwattr $C$DW$783, DW_AT_data_member_location[DW_OP_plus_uconst 0x10]
    4470                      .dwattr $C$DW$783, DW_AT_accessibility(DW_ACCESS_public)
    4471              $C$DW$784       .dwtag  DW_TAG_member
    4472                      .dwattr $C$DW$784, DW_AT_type(*$C$DW$T$112)
    4473                      .dwattr $C$DW$784, DW_AT_name("GPBQSEL1")
    4474                      .dwattr $C$DW$784, DW_AT_TI_symbol_name("_GPBQSEL1")
    4475                      .dwattr $C$DW$784, DW_AT_data_member_location[DW_OP_plus_uconst 0x12]
    4476                      .dwattr $C$DW$784, DW_AT_accessibility(DW_ACCESS_public)
    4477              $C$DW$785       .dwtag  DW_TAG_member
    4478                      .dwattr $C$DW$785, DW_AT_type(*$C$DW$T$26)
    4479                      .dwattr $C$DW$785, DW_AT_name("rsvd_2")
    4480                      .dwattr $C$DW$785, DW_AT_TI_symbol_name("_rsvd_2")
    4481                      .dwattr $C$DW$785, DW_AT_data_member_location[DW_OP_plus_uconst 0x14]
    4482                      .dwattr $C$DW$785, DW_AT_accessibility(DW_ACCESS_public)
    4483              $C$DW$786       .dwtag  DW_TAG_member
    4484                      .dwattr $C$DW$786, DW_AT_type(*$C$DW$T$112)
    4485                      .dwattr $C$DW$786, DW_AT_name("GPBMUX1")
    4486                      .dwattr $C$DW$786, DW_AT_TI_symbol_name("_GPBMUX1")
    4487                      .dwattr $C$DW$786, DW_AT_data_member_location[DW_OP_plus_uconst 0x16]
    4488                      .dwattr $C$DW$786, DW_AT_accessibility(DW_ACCESS_public)
    4489              $C$DW$787       .dwtag  DW_TAG_member
    4490                      .dwattr $C$DW$787, DW_AT_type(*$C$DW$T$26)
    4491                      .dwattr $C$DW$787, DW_AT_name("rsvd_3")
    4492                      .dwattr $C$DW$787, DW_AT_TI_symbol_name("_rsvd_3")
    4493                      .dwattr $C$DW$787, DW_AT_data_member_location[DW_OP_plus_uconst 0x18]
    4494                      .dwattr $C$DW$787, DW_AT_accessibility(DW_ACCESS_public)
    4495              $C$DW$788       .dwtag  DW_TAG_member
    4496                      .dwattr $C$DW$788, DW_AT_type(*$C$DW$T$112)
    4497                      .dwattr $C$DW$788, DW_AT_name("GPBDIR")
TMS320C2000 Assembler PC v6.2.5 Tue Nov 21 22:57:45 2017

Tools Copyright (c) 1996-2014 Texas Instruments Incorporated
C:\Users\wmj\AppData\Local\Temp\1055210                              PAGE   86

    4498                      .dwattr $C$DW$788, DW_AT_TI_symbol_name("_GPBDIR")
    4499                      .dwattr $C$DW$788, DW_AT_data_member_location[DW_OP_plus_uconst 0x1a]
    4500                      .dwattr $C$DW$788, DW_AT_accessibility(DW_ACCESS_public)
    4501              $C$DW$789       .dwtag  DW_TAG_member
    4502                      .dwattr $C$DW$789, DW_AT_type(*$C$DW$T$112)
    4503                      .dwattr $C$DW$789, DW_AT_name("GPBPUD")
    4504                      .dwattr $C$DW$789, DW_AT_TI_symbol_name("_GPBPUD")
    4505                      .dwattr $C$DW$789, DW_AT_data_member_location[DW_OP_plus_uconst 0x1c]
    4506                      .dwattr $C$DW$789, DW_AT_accessibility(DW_ACCESS_public)
    4507              $C$DW$790       .dwtag  DW_TAG_member
    4508                      .dwattr $C$DW$790, DW_AT_type(*$C$DW$T$113)
    4509                      .dwattr $C$DW$790, DW_AT_name("rsvd_4")
    4510                      .dwattr $C$DW$790, DW_AT_TI_symbol_name("_rsvd_4")
    4511                      .dwattr $C$DW$790, DW_AT_data_member_location[DW_OP_plus_uconst 0x1e]
    4512                      .dwattr $C$DW$790, DW_AT_accessibility(DW_ACCESS_public)
    4513              $C$DW$791       .dwtag  DW_TAG_member
    4514                      .dwattr $C$DW$791, DW_AT_type(*$C$DW$T$112)
    4515                      .dwattr $C$DW$791, DW_AT_name("AIOMUX1")
    4516                      .dwattr $C$DW$791, DW_AT_TI_symbol_name("_AIOMUX1")
    4517                      .dwattr $C$DW$791, DW_AT_data_member_location[DW_OP_plus_uconst 0x36]
    4518                      .dwattr $C$DW$791, DW_AT_accessibility(DW_ACCESS_public)
    4519              $C$DW$792       .dwtag  DW_TAG_member
    4520                      .dwattr $C$DW$792, DW_AT_type(*$C$DW$T$26)
    4521                      .dwattr $C$DW$792, DW_AT_name("rsvd_5")
    4522                      .dwattr $C$DW$792, DW_AT_TI_symbol_name("_rsvd_5")
    4523                      .dwattr $C$DW$792, DW_AT_data_member_location[DW_OP_plus_uconst 0x38]
    4524                      .dwattr $C$DW$792, DW_AT_accessibility(DW_ACCESS_public)
    4525              $C$DW$793       .dwtag  DW_TAG_member
    4526                      .dwattr $C$DW$793, DW_AT_type(*$C$DW$T$112)
    4527                      .dwattr $C$DW$793, DW_AT_name("AIODIR")
    4528                      .dwattr $C$DW$793, DW_AT_TI_symbol_name("_AIODIR")
    4529                      .dwattr $C$DW$793, DW_AT_data_member_location[DW_OP_plus_uconst 0x3a]
    4530                      .dwattr $C$DW$793, DW_AT_accessibility(DW_ACCESS_public)
    4531              $C$DW$794       .dwtag  DW_TAG_member
    4532                      .dwattr $C$DW$794, DW_AT_type(*$C$DW$T$114)
    4533                      .dwattr $C$DW$794, DW_AT_name("rsvd_6")
    4534                      .dwattr $C$DW$794, DW_AT_TI_symbol_name("_rsvd_6")
    4535                      .dwattr $C$DW$794, DW_AT_data_member_location[DW_OP_plus_uconst 0x3c]
    4536                      .dwattr $C$DW$794, DW_AT_accessibility(DW_ACCESS_public)
    4537              $C$DW$795       .dwtag  DW_TAG_member
    4538                      .dwattr $C$DW$795, DW_AT_type(*$C$DW$T$112)
    4539                      .dwattr $C$DW$795, DW_AT_name("GPADAT")
    4540                      .dwattr $C$DW$795, DW_AT_TI_symbol_name("_GPADAT")
    4541                      .dwattr $C$DW$795, DW_AT_data_member_location[DW_OP_plus_uconst 0x40]
    4542                      .dwattr $C$DW$795, DW_AT_accessibility(DW_ACCESS_public)
    4543              $C$DW$796       .dwtag  DW_TAG_member
    4544                      .dwattr $C$DW$796, DW_AT_type(*$C$DW$T$112)
    4545                      .dwattr $C$DW$796, DW_AT_name("GPASET")
    4546                      .dwattr $C$DW$796, DW_AT_TI_symbol_name("_GPASET")
    4547                      .dwattr $C$DW$796, DW_AT_data_member_location[DW_OP_plus_uconst 0x42]
    4548                      .dwattr $C$DW$796, DW_AT_accessibility(DW_ACCESS_public)
    4549              $C$DW$797       .dwtag  DW_TAG_member
    4550                      .dwattr $C$DW$797, DW_AT_type(*$C$DW$T$112)
    4551                      .dwattr $C$DW$797, DW_AT_name("GPACLEAR")
    4552                      .dwattr $C$DW$797, DW_AT_TI_symbol_name("_GPACLEAR")
TMS320C2000 Assembler PC v6.2.5 Tue Nov 21 22:57:45 2017

Tools Copyright (c) 1996-2014 Texas Instruments Incorporated
C:\Users\wmj\AppData\Local\Temp\1055210                              PAGE   87

    4553                      .dwattr $C$DW$797, DW_AT_data_member_location[DW_OP_plus_uconst 0x44]
    4554                      .dwattr $C$DW$797, DW_AT_accessibility(DW_ACCESS_public)
    4555              $C$DW$798       .dwtag  DW_TAG_member
    4556                      .dwattr $C$DW$798, DW_AT_type(*$C$DW$T$112)
    4557                      .dwattr $C$DW$798, DW_AT_name("GPATOGGLE")
    4558                      .dwattr $C$DW$798, DW_AT_TI_symbol_name("_GPATOGGLE")
    4559                      .dwattr $C$DW$798, DW_AT_data_member_location[DW_OP_plus_uconst 0x46]
    4560                      .dwattr $C$DW$798, DW_AT_accessibility(DW_ACCESS_public)
    4561              $C$DW$799       .dwtag  DW_TAG_member
    4562                      .dwattr $C$DW$799, DW_AT_type(*$C$DW$T$112)
    4563                      .dwattr $C$DW$799, DW_AT_name("GPBDAT")
    4564                      .dwattr $C$DW$799, DW_AT_TI_symbol_name("_GPBDAT")
    4565                      .dwattr $C$DW$799, DW_AT_data_member_location[DW_OP_plus_uconst 0x48]
    4566                      .dwattr $C$DW$799, DW_AT_accessibility(DW_ACCESS_public)
    4567              $C$DW$800       .dwtag  DW_TAG_member
    4568                      .dwattr $C$DW$800, DW_AT_type(*$C$DW$T$112)
    4569                      .dwattr $C$DW$800, DW_AT_name("GPBSET")
    4570                      .dwattr $C$DW$800, DW_AT_TI_symbol_name("_GPBSET")
    4571                      .dwattr $C$DW$800, DW_AT_data_member_location[DW_OP_plus_uconst 0x4a]
    4572                      .dwattr $C$DW$800, DW_AT_accessibility(DW_ACCESS_public)
    4573              $C$DW$801       .dwtag  DW_TAG_member
    4574                      .dwattr $C$DW$801, DW_AT_type(*$C$DW$T$112)
    4575                      .dwattr $C$DW$801, DW_AT_name("GPBCLEAR")
    4576                      .dwattr $C$DW$801, DW_AT_TI_symbol_name("_GPBCLEAR")
    4577                      .dwattr $C$DW$801, DW_AT_data_member_location[DW_OP_plus_uconst 0x4c]
    4578                      .dwattr $C$DW$801, DW_AT_accessibility(DW_ACCESS_public)
    4579              $C$DW$802       .dwtag  DW_TAG_member
    4580                      .dwattr $C$DW$802, DW_AT_type(*$C$DW$T$112)
    4581                      .dwattr $C$DW$802, DW_AT_name("GPBTOGGLE")
    4582                      .dwattr $C$DW$802, DW_AT_TI_symbol_name("_GPBTOGGLE")
    4583                      .dwattr $C$DW$802, DW_AT_data_member_location[DW_OP_plus_uconst 0x4e]
    4584                      .dwattr $C$DW$802, DW_AT_accessibility(DW_ACCESS_public)
    4585              $C$DW$803       .dwtag  DW_TAG_member
    4586                      .dwattr $C$DW$803, DW_AT_type(*$C$DW$T$37)
    4587                      .dwattr $C$DW$803, DW_AT_name("rsvd_7")
    4588                      .dwattr $C$DW$803, DW_AT_TI_symbol_name("_rsvd_7")
    4589                      .dwattr $C$DW$803, DW_AT_data_member_location[DW_OP_plus_uconst 0x50]
    4590                      .dwattr $C$DW$803, DW_AT_accessibility(DW_ACCESS_public)
    4591              $C$DW$804       .dwtag  DW_TAG_member
    4592                      .dwattr $C$DW$804, DW_AT_type(*$C$DW$T$112)
    4593                      .dwattr $C$DW$804, DW_AT_name("AIODAT")
    4594                      .dwattr $C$DW$804, DW_AT_TI_symbol_name("_AIODAT")
    4595                      .dwattr $C$DW$804, DW_AT_data_member_location[DW_OP_plus_uconst 0x58]
    4596                      .dwattr $C$DW$804, DW_AT_accessibility(DW_ACCESS_public)
    4597              $C$DW$805       .dwtag  DW_TAG_member
    4598                      .dwattr $C$DW$805, DW_AT_type(*$C$DW$T$112)
    4599                      .dwattr $C$DW$805, DW_AT_name("AIOSET")
    4600                      .dwattr $C$DW$805, DW_AT_TI_symbol_name("_AIOSET")
    4601                      .dwattr $C$DW$805, DW_AT_data_member_location[DW_OP_plus_uconst 0x5a]
    4602                      .dwattr $C$DW$805, DW_AT_accessibility(DW_ACCESS_public)
    4603              $C$DW$806       .dwtag  DW_TAG_member
    4604                      .dwattr $C$DW$806, DW_AT_type(*$C$DW$T$112)
    4605                      .dwattr $C$DW$806, DW_AT_name("AIOCLEAR")
    4606                      .dwattr $C$DW$806, DW_AT_TI_symbol_name("_AIOCLEAR")
    4607                      .dwattr $C$DW$806, DW_AT_data_member_location[DW_OP_plus_uconst 0x5c]
TMS320C2000 Assembler PC v6.2.5 Tue Nov 21 22:57:45 2017

Tools Copyright (c) 1996-2014 Texas Instruments Incorporated
C:\Users\wmj\AppData\Local\Temp\1055210                              PAGE   88

    4608                      .dwattr $C$DW$806, DW_AT_accessibility(DW_ACCESS_public)
    4609              $C$DW$807       .dwtag  DW_TAG_member
    4610                      .dwattr $C$DW$807, DW_AT_type(*$C$DW$T$112)
    4611                      .dwattr $C$DW$807, DW_AT_name("AIOTOGGLE")
    4612                      .dwattr $C$DW$807, DW_AT_TI_symbol_name("_AIOTOGGLE")
    4613                      .dwattr $C$DW$807, DW_AT_data_member_location[DW_OP_plus_uconst 0x5e]
    4614                      .dwattr $C$DW$807, DW_AT_accessibility(DW_ACCESS_public)
    4615              $C$DW$808       .dwtag  DW_TAG_member
    4616                      .dwattr $C$DW$808, DW_AT_type(*$C$DW$T$28)
    4617                      .dwattr $C$DW$808, DW_AT_name("GPIOXINTnSEL")
    4618                      .dwattr $C$DW$808, DW_AT_TI_symbol_name("_GPIOXINTnSEL")
    4619                      .dwattr $C$DW$808, DW_AT_data_member_location[DW_OP_plus_uconst 0x60]
    4620                      .dwattr $C$DW$808, DW_AT_accessibility(DW_ACCESS_public)
    4621              $C$DW$809       .dwtag  DW_TAG_member
    4622                      .dwattr $C$DW$809, DW_AT_type(*$C$DW$T$27)
    4623                      .dwattr $C$DW$809, DW_AT_name("rsvd_8")
    4624                      .dwattr $C$DW$809, DW_AT_TI_symbol_name("_rsvd_8")
    4625                      .dwattr $C$DW$809, DW_AT_data_member_location[DW_OP_plus_uconst 0x63]
    4626                      .dwattr $C$DW$809, DW_AT_accessibility(DW_ACCESS_public)
    4627              $C$DW$810       .dwtag  DW_TAG_member
    4628                      .dwattr $C$DW$810, DW_AT_type(*$C$DW$T$112)
    4629                      .dwattr $C$DW$810, DW_AT_name("GPIOLPMSEL")
    4630                      .dwattr $C$DW$810, DW_AT_TI_symbol_name("_GPIOLPMSEL")
    4631                      .dwattr $C$DW$810, DW_AT_data_member_location[DW_OP_plus_uconst 0x68]
    4632                      .dwattr $C$DW$810, DW_AT_accessibility(DW_ACCESS_public)
    4633                      .dwendtag $C$DW$T$115
    4634              
    4635              $C$DW$T$126     .dwtag  DW_TAG_pointer_type
    4636                      .dwattr $C$DW$T$126, DW_AT_type(*$C$DW$T$115)
    4637                      .dwattr $C$DW$T$126, DW_AT_address_class(0x16)
    4638              $C$DW$T$127     .dwtag  DW_TAG_typedef, DW_AT_name("GPIO_Handle")
    4639                      .dwattr $C$DW$T$127, DW_AT_type(*$C$DW$T$126)
    4640                      .dwattr $C$DW$T$127, DW_AT_language(DW_LANG_C)
    4641              
    4642              $C$DW$T$117     .dwtag  DW_TAG_structure_type
    4643                      .dwattr $C$DW$T$117, DW_AT_name("_HAL_AdcData_t_")
    4644                      .dwattr $C$DW$T$117, DW_AT_byte_size(0x16)
    4645              $C$DW$811       .dwtag  DW_TAG_member
    4646                      .dwattr $C$DW$811, DW_AT_type(*$C$DW$T$116)
    4647                      .dwattr $C$DW$811, DW_AT_name("I")
    4648                      .dwattr $C$DW$811, DW_AT_TI_symbol_name("_I")
    4649                      .dwattr $C$DW$811, DW_AT_data_member_location[DW_OP_plus_uconst 0x0]
    4650                      .dwattr $C$DW$811, DW_AT_accessibility(DW_ACCESS_public)
    4651              $C$DW$812       .dwtag  DW_TAG_member
    4652                      .dwattr $C$DW$812, DW_AT_type(*$C$DW$T$116)
    4653                      .dwattr $C$DW$812, DW_AT_name("V")
    4654                      .dwattr $C$DW$812, DW_AT_TI_symbol_name("_V")
    4655                      .dwattr $C$DW$812, DW_AT_data_member_location[DW_OP_plus_uconst 0x6]
    4656                      .dwattr $C$DW$812, DW_AT_accessibility(DW_ACCESS_public)
    4657              $C$DW$813       .dwtag  DW_TAG_member
    4658                      .dwattr $C$DW$813, DW_AT_type(*$C$DW$T$31)
    4659                      .dwattr $C$DW$813, DW_AT_name("dcBus")
    4660                      .dwattr $C$DW$813, DW_AT_TI_symbol_name("_dcBus")
    4661                      .dwattr $C$DW$813, DW_AT_data_member_location[DW_OP_plus_uconst 0xc]
    4662                      .dwattr $C$DW$813, DW_AT_accessibility(DW_ACCESS_public)
TMS320C2000 Assembler PC v6.2.5 Tue Nov 21 22:57:45 2017

Tools Copyright (c) 1996-2014 Texas Instruments Incorporated
C:\Users\wmj\AppData\Local\Temp\1055210                              PAGE   89

    4663              $C$DW$814       .dwtag  DW_TAG_member
    4664                      .dwattr $C$DW$814, DW_AT_type(*$C$DW$T$31)
    4665                      .dwattr $C$DW$814, DW_AT_name("analogSensor1")
    4666                      .dwattr $C$DW$814, DW_AT_TI_symbol_name("_analogSensor1")
    4667                      .dwattr $C$DW$814, DW_AT_data_member_location[DW_OP_plus_uconst 0xe]
    4668                      .dwattr $C$DW$814, DW_AT_accessibility(DW_ACCESS_public)
    4669              $C$DW$815       .dwtag  DW_TAG_member
    4670                      .dwattr $C$DW$815, DW_AT_type(*$C$DW$T$31)
    4671                      .dwattr $C$DW$815, DW_AT_name("analogSensor2")
    4672                      .dwattr $C$DW$815, DW_AT_TI_symbol_name("_analogSensor2")
    4673                      .dwattr $C$DW$815, DW_AT_data_member_location[DW_OP_plus_uconst 0x10]
    4674                      .dwattr $C$DW$815, DW_AT_accessibility(DW_ACCESS_public)
    4675              $C$DW$816       .dwtag  DW_TAG_member
    4676                      .dwattr $C$DW$816, DW_AT_type(*$C$DW$T$31)
    4677                      .dwattr $C$DW$816, DW_AT_name("igbtNTC")
    4678                      .dwattr $C$DW$816, DW_AT_TI_symbol_name("_igbtNTC")
    4679                      .dwattr $C$DW$816, DW_AT_data_member_location[DW_OP_plus_uconst 0x12]
    4680                      .dwattr $C$DW$816, DW_AT_accessibility(DW_ACCESS_public)
    4681              $C$DW$817       .dwtag  DW_TAG_member
    4682                      .dwattr $C$DW$817, DW_AT_type(*$C$DW$T$31)
    4683                      .dwattr $C$DW$817, DW_AT_name("boardAddr")
    4684                      .dwattr $C$DW$817, DW_AT_TI_symbol_name("_boardAddr")
    4685                      .dwattr $C$DW$817, DW_AT_data_member_location[DW_OP_plus_uconst 0x14]
    4686                      .dwattr $C$DW$817, DW_AT_accessibility(DW_ACCESS_public)
    4687                      .dwendtag $C$DW$T$117
    4688              
    4689              $C$DW$T$153     .dwtag  DW_TAG_typedef, DW_AT_name("HAL_AdcData_t")
    4690                      .dwattr $C$DW$T$153, DW_AT_type(*$C$DW$T$117)
    4691                      .dwattr $C$DW$T$153, DW_AT_language(DW_LANG_C)
    4692              $C$DW$818       .dwtag  DW_TAG_TI_far_type
    4693                      .dwattr $C$DW$818, DW_AT_type(*$C$DW$T$153)
    4694              $C$DW$T$269     .dwtag  DW_TAG_const_type
    4695                      .dwattr $C$DW$T$269, DW_AT_type(*$C$DW$818)
    4696              $C$DW$T$270     .dwtag  DW_TAG_pointer_type
    4697                      .dwattr $C$DW$T$270, DW_AT_type(*$C$DW$T$269)
    4698                      .dwattr $C$DW$T$270, DW_AT_address_class(0x16)
    4699              $C$DW$T$271     .dwtag  DW_TAG_pointer_type
    4700                      .dwattr $C$DW$T$271, DW_AT_type(*$C$DW$T$153)
    4701                      .dwattr $C$DW$T$271, DW_AT_address_class(0x16)
    4702              
    4703              $C$DW$T$156     .dwtag  DW_TAG_structure_type
    4704                      .dwattr $C$DW$T$156, DW_AT_name("_HAL_Obj_")
    4705                      .dwattr $C$DW$T$156, DW_AT_byte_size(0xb4)
    4706              $C$DW$819       .dwtag  DW_TAG_member
    4707                      .dwattr $C$DW$819, DW_AT_type(*$C$DW$T$119)
    4708                      .dwattr $C$DW$819, DW_AT_name("adcHandle")
    4709                      .dwattr $C$DW$819, DW_AT_TI_symbol_name("_adcHandle")
    4710                      .dwattr $C$DW$819, DW_AT_data_member_location[DW_OP_plus_uconst 0x0]
    4711                      .dwattr $C$DW$819, DW_AT_accessibility(DW_ACCESS_public)
    4712              $C$DW$820       .dwtag  DW_TAG_member
    4713                      .dwattr $C$DW$820, DW_AT_type(*$C$DW$T$121)
    4714                      .dwattr $C$DW$820, DW_AT_name("clkHandle")
    4715                      .dwattr $C$DW$820, DW_AT_TI_symbol_name("_clkHandle")
    4716                      .dwattr $C$DW$820, DW_AT_data_member_location[DW_OP_plus_uconst 0x2]
    4717                      .dwattr $C$DW$820, DW_AT_accessibility(DW_ACCESS_public)
TMS320C2000 Assembler PC v6.2.5 Tue Nov 21 22:57:45 2017

Tools Copyright (c) 1996-2014 Texas Instruments Incorporated
C:\Users\wmj\AppData\Local\Temp\1055210                              PAGE   90

    4718              $C$DW$821       .dwtag  DW_TAG_member
    4719                      .dwattr $C$DW$821, DW_AT_type(*$C$DW$T$123)
    4720                      .dwattr $C$DW$821, DW_AT_name("cpuHandle")
    4721                      .dwattr $C$DW$821, DW_AT_TI_symbol_name("_cpuHandle")
    4722                      .dwattr $C$DW$821, DW_AT_data_member_location[DW_OP_plus_uconst 0x4]
    4723                      .dwattr $C$DW$821, DW_AT_accessibility(DW_ACCESS_public)
    4724              $C$DW$822       .dwtag  DW_TAG_member
    4725                      .dwattr $C$DW$822, DW_AT_type(*$C$DW$T$125)
    4726                      .dwattr $C$DW$822, DW_AT_name("flashHandle")
    4727                      .dwattr $C$DW$822, DW_AT_TI_symbol_name("_flashHandle")
    4728                      .dwattr $C$DW$822, DW_AT_data_member_location[DW_OP_plus_uconst 0x6]
    4729                      .dwattr $C$DW$822, DW_AT_accessibility(DW_ACCESS_public)
    4730              $C$DW$823       .dwtag  DW_TAG_member
    4731                      .dwattr $C$DW$823, DW_AT_type(*$C$DW$T$127)
    4732                      .dwattr $C$DW$823, DW_AT_name("gpioHandle")
    4733                      .dwattr $C$DW$823, DW_AT_TI_symbol_name("_gpioHandle")
    4734                      .dwattr $C$DW$823, DW_AT_data_member_location[DW_OP_plus_uconst 0x8]
    4735                      .dwattr $C$DW$823, DW_AT_accessibility(DW_ACCESS_public)
    4736              $C$DW$824       .dwtag  DW_TAG_member
    4737                      .dwattr $C$DW$824, DW_AT_type(*$C$DW$T$130)
    4738                      .dwattr $C$DW$824, DW_AT_name("offsetHandle_I")
    4739                      .dwattr $C$DW$824, DW_AT_TI_symbol_name("_offsetHandle_I")
    4740                      .dwattr $C$DW$824, DW_AT_data_member_location[DW_OP_plus_uconst 0xa]
    4741                      .dwattr $C$DW$824, DW_AT_accessibility(DW_ACCESS_public)
    4742              $C$DW$825       .dwtag  DW_TAG_member
    4743                      .dwattr $C$DW$825, DW_AT_type(*$C$DW$T$132)
    4744                      .dwattr $C$DW$825, DW_AT_name("offset_I")
    4745                      .dwattr $C$DW$825, DW_AT_TI_symbol_name("_offset_I")
    4746                      .dwattr $C$DW$825, DW_AT_data_member_location[DW_OP_plus_uconst 0x10]
    4747                      .dwattr $C$DW$825, DW_AT_accessibility(DW_ACCESS_public)
    4748              $C$DW$826       .dwtag  DW_TAG_member
    4749                      .dwattr $C$DW$826, DW_AT_type(*$C$DW$T$130)
    4750                      .dwattr $C$DW$826, DW_AT_name("offsetHandle_V")
    4751                      .dwattr $C$DW$826, DW_AT_TI_symbol_name("_offsetHandle_V")
    4752                      .dwattr $C$DW$826, DW_AT_data_member_location[DW_OP_plus_uconst 0x40]
    4753                      .dwattr $C$DW$826, DW_AT_accessibility(DW_ACCESS_public)
    4754              $C$DW$827       .dwtag  DW_TAG_member
    4755                      .dwattr $C$DW$827, DW_AT_type(*$C$DW$T$132)
    4756                      .dwattr $C$DW$827, DW_AT_name("offset_V")
    4757                      .dwattr $C$DW$827, DW_AT_TI_symbol_name("_offset_V")
    4758                      .dwattr $C$DW$827, DW_AT_data_member_location[DW_OP_plus_uconst 0x46]
    4759                      .dwattr $C$DW$827, DW_AT_accessibility(DW_ACCESS_public)
    4760              $C$DW$828       .dwtag  DW_TAG_member
    4761                      .dwattr $C$DW$828, DW_AT_type(*$C$DW$T$134)
    4762                      .dwattr $C$DW$828, DW_AT_name("oscHandle")
    4763                      .dwattr $C$DW$828, DW_AT_TI_symbol_name("_oscHandle")
    4764                      .dwattr $C$DW$828, DW_AT_data_member_location[DW_OP_plus_uconst 0x76]
    4765                      .dwattr $C$DW$828, DW_AT_accessibility(DW_ACCESS_public)
    4766              $C$DW$829       .dwtag  DW_TAG_member
    4767                      .dwattr $C$DW$829, DW_AT_type(*$C$DW$T$136)
    4768                      .dwattr $C$DW$829, DW_AT_name("pieHandle")
    4769                      .dwattr $C$DW$829, DW_AT_TI_symbol_name("_pieHandle")
    4770                      .dwattr $C$DW$829, DW_AT_data_member_location[DW_OP_plus_uconst 0x78]
    4771                      .dwattr $C$DW$829, DW_AT_accessibility(DW_ACCESS_public)
    4772              $C$DW$830       .dwtag  DW_TAG_member
TMS320C2000 Assembler PC v6.2.5 Tue Nov 21 22:57:45 2017

Tools Copyright (c) 1996-2014 Texas Instruments Incorporated
C:\Users\wmj\AppData\Local\Temp\1055210                              PAGE   91

    4773                      .dwattr $C$DW$830, DW_AT_type(*$C$DW$T$138)
    4774                      .dwattr $C$DW$830, DW_AT_name("pllHandle")
    4775                      .dwattr $C$DW$830, DW_AT_TI_symbol_name("_pllHandle")
    4776                      .dwattr $C$DW$830, DW_AT_data_member_location[DW_OP_plus_uconst 0x7a]
    4777                      .dwattr $C$DW$830, DW_AT_accessibility(DW_ACCESS_public)
    4778              $C$DW$831       .dwtag  DW_TAG_member
    4779                      .dwattr $C$DW$831, DW_AT_type(*$C$DW$T$141)
    4780                      .dwattr $C$DW$831, DW_AT_name("pwmHandle")
    4781                      .dwattr $C$DW$831, DW_AT_TI_symbol_name("_pwmHandle")
    4782                      .dwattr $C$DW$831, DW_AT_data_member_location[DW_OP_plus_uconst 0x7c]
    4783                      .dwattr $C$DW$831, DW_AT_accessibility(DW_ACCESS_public)
    4784              $C$DW$832       .dwtag  DW_TAG_member
    4785                      .dwattr $C$DW$832, DW_AT_type(*$C$DW$T$141)
    4786                      .dwattr $C$DW$832, DW_AT_name("pwmDacHandle")
    4787                      .dwattr $C$DW$832, DW_AT_TI_symbol_name("_pwmDacHandle")
    4788                      .dwattr $C$DW$832, DW_AT_data_member_location[DW_OP_plus_uconst 0x82]
    4789                      .dwattr $C$DW$832, DW_AT_accessibility(DW_ACCESS_public)
    4790              $C$DW$833       .dwtag  DW_TAG_member
    4791                      .dwattr $C$DW$833, DW_AT_type(*$C$DW$T$143)
    4792                      .dwattr $C$DW$833, DW_AT_name("pwrHandle")
    4793                      .dwattr $C$DW$833, DW_AT_TI_symbol_name("_pwrHandle")
    4794                      .dwattr $C$DW$833, DW_AT_data_member_location[DW_OP_plus_uconst 0x88]
    4795                      .dwattr $C$DW$833, DW_AT_accessibility(DW_ACCESS_public)
    4796              $C$DW$834       .dwtag  DW_TAG_member
    4797                      .dwattr $C$DW$834, DW_AT_type(*$C$DW$T$146)
    4798                      .dwattr $C$DW$834, DW_AT_name("timerHandle")
    4799                      .dwattr $C$DW$834, DW_AT_TI_symbol_name("_timerHandle")
    4800                      .dwattr $C$DW$834, DW_AT_data_member_location[DW_OP_plus_uconst 0x8a]
    4801                      .dwattr $C$DW$834, DW_AT_accessibility(DW_ACCESS_public)
    4802              $C$DW$835       .dwtag  DW_TAG_member
    4803                      .dwattr $C$DW$835, DW_AT_type(*$C$DW$T$148)
    4804                      .dwattr $C$DW$835, DW_AT_name("spiAHandle")
    4805                      .dwattr $C$DW$835, DW_AT_TI_symbol_name("_spiAHandle")
    4806                      .dwattr $C$DW$835, DW_AT_data_member_location[DW_OP_plus_uconst 0x90]
    4807                      .dwattr $C$DW$835, DW_AT_accessibility(DW_ACCESS_public)
    4808              $C$DW$836       .dwtag  DW_TAG_member
    4809                      .dwattr $C$DW$836, DW_AT_type(*$C$DW$T$150)
    4810                      .dwattr $C$DW$836, DW_AT_name("wdogHandle")
    4811                      .dwattr $C$DW$836, DW_AT_TI_symbol_name("_wdogHandle")
    4812                      .dwattr $C$DW$836, DW_AT_data_member_location[DW_OP_plus_uconst 0x92]
    4813                      .dwattr $C$DW$836, DW_AT_accessibility(DW_ACCESS_public)
    4814              $C$DW$837       .dwtag  DW_TAG_member
    4815                      .dwattr $C$DW$837, DW_AT_type(*$C$DW$T$152)
    4816                      .dwattr $C$DW$837, DW_AT_name("sciHandle")
    4817                      .dwattr $C$DW$837, DW_AT_TI_symbol_name("_sciHandle")
    4818                      .dwattr $C$DW$837, DW_AT_data_member_location[DW_OP_plus_uconst 0x94]
    4819                      .dwattr $C$DW$837, DW_AT_accessibility(DW_ACCESS_public)
    4820              $C$DW$838       .dwtag  DW_TAG_member
    4821                      .dwattr $C$DW$838, DW_AT_type(*$C$DW$T$153)
    4822                      .dwattr $C$DW$838, DW_AT_name("adcBias")
    4823                      .dwattr $C$DW$838, DW_AT_TI_symbol_name("_adcBias")
    4824                      .dwattr $C$DW$838, DW_AT_data_member_location[DW_OP_plus_uconst 0x96]
    4825                      .dwattr $C$DW$838, DW_AT_accessibility(DW_ACCESS_public)
    4826              $C$DW$839       .dwtag  DW_TAG_member
    4827                      .dwattr $C$DW$839, DW_AT_type(*$C$DW$T$31)
TMS320C2000 Assembler PC v6.2.5 Tue Nov 21 22:57:45 2017

Tools Copyright (c) 1996-2014 Texas Instruments Incorporated
C:\Users\wmj\AppData\Local\Temp\1055210                              PAGE   92

    4828                      .dwattr $C$DW$839, DW_AT_name("current_sf")
    4829                      .dwattr $C$DW$839, DW_AT_TI_symbol_name("_current_sf")
    4830                      .dwattr $C$DW$839, DW_AT_data_member_location[DW_OP_plus_uconst 0xac]
    4831                      .dwattr $C$DW$839, DW_AT_accessibility(DW_ACCESS_public)
    4832              $C$DW$840       .dwtag  DW_TAG_member
    4833                      .dwattr $C$DW$840, DW_AT_type(*$C$DW$T$31)
    4834                      .dwattr $C$DW$840, DW_AT_name("voltage_sf")
    4835                      .dwattr $C$DW$840, DW_AT_TI_symbol_name("_voltage_sf")
    4836                      .dwattr $C$DW$840, DW_AT_data_member_location[DW_OP_plus_uconst 0xae]
    4837                      .dwattr $C$DW$840, DW_AT_accessibility(DW_ACCESS_public)
    4838              $C$DW$841       .dwtag  DW_TAG_member
    4839                      .dwattr $C$DW$841, DW_AT_type(*$C$DW$T$35)
    4840                      .dwattr $C$DW$841, DW_AT_name("numCurrentSensors")
    4841                      .dwattr $C$DW$841, DW_AT_TI_symbol_name("_numCurrentSensors")
    4842                      .dwattr $C$DW$841, DW_AT_data_member_location[DW_OP_plus_uconst 0xb0]
    4843                      .dwattr $C$DW$841, DW_AT_accessibility(DW_ACCESS_public)
    4844              $C$DW$842       .dwtag  DW_TAG_member
    4845                      .dwattr $C$DW$842, DW_AT_type(*$C$DW$T$35)
    4846                      .dwattr $C$DW$842, DW_AT_name("numVoltageSensors")
    4847                      .dwattr $C$DW$842, DW_AT_TI_symbol_name("_numVoltageSensors")
    4848                      .dwattr $C$DW$842, DW_AT_data_member_location[DW_OP_plus_uconst 0xb1]
    4849                      .dwattr $C$DW$842, DW_AT_accessibility(DW_ACCESS_public)
    4850              $C$DW$843       .dwtag  DW_TAG_member
    4851                      .dwattr $C$DW$843, DW_AT_type(*$C$DW$T$155)
    4852                      .dwattr $C$DW$843, DW_AT_name("boardAddress")
    4853                      .dwattr $C$DW$843, DW_AT_TI_symbol_name("_boardAddress")
    4854                      .dwattr $C$DW$843, DW_AT_data_member_location[DW_OP_plus_uconst 0xb2]
    4855                      .dwattr $C$DW$843, DW_AT_accessibility(DW_ACCESS_public)
    4856                      .dwendtag $C$DW$T$156
    4857              
    4858              $C$DW$T$273     .dwtag  DW_TAG_typedef, DW_AT_name("HAL_Obj")
    4859                      .dwattr $C$DW$T$273, DW_AT_type(*$C$DW$T$156)
    4860                      .dwattr $C$DW$T$273, DW_AT_language(DW_LANG_C)
    4861              $C$DW$T$274     .dwtag  DW_TAG_pointer_type
    4862                      .dwattr $C$DW$T$274, DW_AT_type(*$C$DW$T$273)
    4863                      .dwattr $C$DW$T$274, DW_AT_address_class(0x16)
    4864              $C$DW$T$82      .dwtag  DW_TAG_pointer_type
    4865                      .dwattr $C$DW$T$82, DW_AT_type(*$C$DW$T$156)
    4866                      .dwattr $C$DW$T$82, DW_AT_address_class(0x16)
    4867              $C$DW$T$83      .dwtag  DW_TAG_typedef, DW_AT_name("HAL_Handle")
    4868                      .dwattr $C$DW$T$83, DW_AT_type(*$C$DW$T$82)
    4869                      .dwattr $C$DW$T$83, DW_AT_language(DW_LANG_C)
    4870              
    4871              $C$DW$T$157     .dwtag  DW_TAG_structure_type
    4872                      .dwattr $C$DW$T$157, DW_AT_name("_HAL_PwmData_t_")
    4873                      .dwattr $C$DW$T$157, DW_AT_byte_size(0x06)
    4874              $C$DW$844       .dwtag  DW_TAG_member
    4875                      .dwattr $C$DW$844, DW_AT_type(*$C$DW$T$116)
    4876                      .dwattr $C$DW$844, DW_AT_name("Tabc")
    4877                      .dwattr $C$DW$844, DW_AT_TI_symbol_name("_Tabc")
    4878                      .dwattr $C$DW$844, DW_AT_data_member_location[DW_OP_plus_uconst 0x0]
    4879                      .dwattr $C$DW$844, DW_AT_accessibility(DW_ACCESS_public)
    4880                      .dwendtag $C$DW$T$157
    4881              
    4882              $C$DW$T$222     .dwtag  DW_TAG_typedef, DW_AT_name("HAL_PwmData_t")
TMS320C2000 Assembler PC v6.2.5 Tue Nov 21 22:57:45 2017

Tools Copyright (c) 1996-2014 Texas Instruments Incorporated
C:\Users\wmj\AppData\Local\Temp\1055210                              PAGE   93

    4883                      .dwattr $C$DW$T$222, DW_AT_type(*$C$DW$T$157)
    4884                      .dwattr $C$DW$T$222, DW_AT_language(DW_LANG_C)
    4885              $C$DW$T$278     .dwtag  DW_TAG_pointer_type
    4886                      .dwattr $C$DW$T$278, DW_AT_type(*$C$DW$T$222)
    4887                      .dwattr $C$DW$T$278, DW_AT_address_class(0x16)
    4888              
    4889              $C$DW$T$158     .dwtag  DW_TAG_structure_type
    4890                      .dwattr $C$DW$T$158, DW_AT_name("_IPARK_Obj_")
    4891                      .dwattr $C$DW$T$158, DW_AT_byte_size(0x04)
    4892              $C$DW$845       .dwtag  DW_TAG_member
    4893                      .dwattr $C$DW$845, DW_AT_type(*$C$DW$T$31)
    4894                      .dwattr $C$DW$845, DW_AT_name("sinTh")
    4895                      .dwattr $C$DW$845, DW_AT_TI_symbol_name("_sinTh")
    4896                      .dwattr $C$DW$845, DW_AT_data_member_location[DW_OP_plus_uconst 0x0]
    4897                      .dwattr $C$DW$845, DW_AT_accessibility(DW_ACCESS_public)
    4898              $C$DW$846       .dwtag  DW_TAG_member
    4899                      .dwattr $C$DW$846, DW_AT_type(*$C$DW$T$31)
    4900                      .dwattr $C$DW$846, DW_AT_name("cosTh")
    4901                      .dwattr $C$DW$846, DW_AT_TI_symbol_name("_cosTh")
    4902                      .dwattr $C$DW$846, DW_AT_data_member_location[DW_OP_plus_uconst 0x2]
    4903                      .dwattr $C$DW$846, DW_AT_accessibility(DW_ACCESS_public)
    4904                      .dwendtag $C$DW$T$158
    4905              
    4906              $C$DW$T$58      .dwtag  DW_TAG_typedef, DW_AT_name("IPARK_Obj")
    4907                      .dwattr $C$DW$T$58, DW_AT_type(*$C$DW$T$158)
    4908                      .dwattr $C$DW$T$58, DW_AT_language(DW_LANG_C)
    4909              $C$DW$T$56      .dwtag  DW_TAG_pointer_type
    4910                      .dwattr $C$DW$T$56, DW_AT_type(*$C$DW$T$158)
    4911                      .dwattr $C$DW$T$56, DW_AT_address_class(0x16)
    4912              $C$DW$T$57      .dwtag  DW_TAG_typedef, DW_AT_name("IPARK_Handle")
    4913                      .dwattr $C$DW$T$57, DW_AT_type(*$C$DW$T$56)
    4914                      .dwattr $C$DW$T$57, DW_AT_language(DW_LANG_C)
    4915              
    4916              $C$DW$T$160     .dwtag  DW_TAG_structure_type
    4917                      .dwattr $C$DW$T$160, DW_AT_name("_MATH_vec2_")
    4918                      .dwattr $C$DW$T$160, DW_AT_byte_size(0x04)
    4919              $C$DW$847       .dwtag  DW_TAG_member
    4920                      .dwattr $C$DW$847, DW_AT_type(*$C$DW$T$159)
    4921                      .dwattr $C$DW$847, DW_AT_name("value")
    4922                      .dwattr $C$DW$847, DW_AT_TI_symbol_name("_value")
    4923                      .dwattr $C$DW$847, DW_AT_data_member_location[DW_OP_plus_uconst 0x0]
    4924                      .dwattr $C$DW$847, DW_AT_accessibility(DW_ACCESS_public)
    4925                      .dwendtag $C$DW$T$160
    4926              
    4927              $C$DW$T$32      .dwtag  DW_TAG_typedef, DW_AT_name("MATH_vec2")
    4928                      .dwattr $C$DW$T$32, DW_AT_type(*$C$DW$T$160)
    4929                      .dwattr $C$DW$T$32, DW_AT_language(DW_LANG_C)
    4930              
    4931              $C$DW$T$162     .dwtag  DW_TAG_structure_type
    4932                      .dwattr $C$DW$T$162, DW_AT_name("_MATH_vec3_")
    4933                      .dwattr $C$DW$T$162, DW_AT_byte_size(0x06)
    4934              $C$DW$848       .dwtag  DW_TAG_member
    4935                      .dwattr $C$DW$848, DW_AT_type(*$C$DW$T$161)
    4936                      .dwattr $C$DW$848, DW_AT_name("value")
    4937                      .dwattr $C$DW$848, DW_AT_TI_symbol_name("_value")
TMS320C2000 Assembler PC v6.2.5 Tue Nov 21 22:57:45 2017

Tools Copyright (c) 1996-2014 Texas Instruments Incorporated
C:\Users\wmj\AppData\Local\Temp\1055210                              PAGE   94

    4938                      .dwattr $C$DW$848, DW_AT_data_member_location[DW_OP_plus_uconst 0x0]
    4939                      .dwattr $C$DW$848, DW_AT_accessibility(DW_ACCESS_public)
    4940                      .dwendtag $C$DW$T$162
    4941              
    4942              $C$DW$T$116     .dwtag  DW_TAG_typedef, DW_AT_name("MATH_vec3")
    4943                      .dwattr $C$DW$T$116, DW_AT_type(*$C$DW$T$162)
    4944                      .dwattr $C$DW$T$116, DW_AT_language(DW_LANG_C)
    4945              
    4946              $C$DW$T$179     .dwtag  DW_TAG_structure_type
    4947                      .dwattr $C$DW$T$179, DW_AT_name("_MB_Obj_")
    4948                      .dwattr $C$DW$T$179, DW_AT_byte_size(0x20)
    4949              $C$DW$849       .dwtag  DW_TAG_member
    4950                      .dwattr $C$DW$849, DW_AT_type(*$C$DW$T$81)
    4951                      .dwattr $C$DW$849, DW_AT_name("motorHandle")
    4952                      .dwattr $C$DW$849, DW_AT_TI_symbol_name("_motorHandle")
    4953                      .dwattr $C$DW$849, DW_AT_data_member_location[DW_OP_plus_uconst 0x0]
    4954                      .dwattr $C$DW$849, DW_AT_accessibility(DW_ACCESS_public)
    4955              $C$DW$850       .dwtag  DW_TAG_member
    4956                      .dwattr $C$DW$850, DW_AT_type(*$C$DW$T$164)
    4957                      .dwattr $C$DW$850, DW_AT_name("fsmHandle")
    4958                      .dwattr $C$DW$850, DW_AT_TI_symbol_name("_fsmHandle")
    4959                      .dwattr $C$DW$850, DW_AT_data_member_location[DW_OP_plus_uconst 0x2]
    4960                      .dwattr $C$DW$850, DW_AT_accessibility(DW_ACCESS_public)
    4961              $C$DW$851       .dwtag  DW_TAG_member
    4962                      .dwattr $C$DW$851, DW_AT_type(*$C$DW$T$127)
    4963                      .dwattr $C$DW$851, DW_AT_name("gpioHandle")
    4964                      .dwattr $C$DW$851, DW_AT_TI_symbol_name("_gpioHandle")
    4965                      .dwattr $C$DW$851, DW_AT_data_member_location[DW_OP_plus_uconst 0x4]
    4966                      .dwattr $C$DW$851, DW_AT_accessibility(DW_ACCESS_public)
    4967              $C$DW$852       .dwtag  DW_TAG_member
    4968                      .dwattr $C$DW$852, DW_AT_type(*$C$DW$T$145)
    4969                      .dwattr $C$DW$852, DW_AT_name("timerHandle")
    4970                      .dwattr $C$DW$852, DW_AT_TI_symbol_name("_timerHandle")
    4971                      .dwattr $C$DW$852, DW_AT_data_member_location[DW_OP_plus_uconst 0x6]
    4972                      .dwattr $C$DW$852, DW_AT_accessibility(DW_ACCESS_public)
    4973              $C$DW$853       .dwtag  DW_TAG_member
    4974                      .dwattr $C$DW$853, DW_AT_type(*$C$DW$T$152)
    4975                      .dwattr $C$DW$853, DW_AT_name("sciHandle")
    4976                      .dwattr $C$DW$853, DW_AT_TI_symbol_name("_sciHandle")
    4977                      .dwattr $C$DW$853, DW_AT_data_member_location[DW_OP_plus_uconst 0x8]
    4978                      .dwattr $C$DW$853, DW_AT_accessibility(DW_ACCESS_public)
    4979              $C$DW$854       .dwtag  DW_TAG_member
    4980                      .dwattr $C$DW$854, DW_AT_type(*$C$DW$T$166)
    4981                      .dwattr $C$DW$854, DW_AT_name("RTU_Frame")
    4982                      .dwattr $C$DW$854, DW_AT_TI_symbol_name("_RTU_Frame")
    4983                      .dwattr $C$DW$854, DW_AT_data_member_location[DW_OP_plus_uconst 0xa]
    4984                      .dwattr $C$DW$854, DW_AT_accessibility(DW_ACCESS_public)
    4985              $C$DW$855       .dwtag  DW_TAG_member
    4986                      .dwattr $C$DW$855, DW_AT_type(*$C$DW$T$168)
    4987                      .dwattr $C$DW$855, DW_AT_name("RTUBuf")
    4988                      .dwattr $C$DW$855, DW_AT_TI_symbol_name("_RTUBuf")
    4989                      .dwattr $C$DW$855, DW_AT_data_member_location[DW_OP_plus_uconst 0xc]
    4990                      .dwattr $C$DW$855, DW_AT_accessibility(DW_ACCESS_public)
    4991              $C$DW$856       .dwtag  DW_TAG_member
    4992                      .dwattr $C$DW$856, DW_AT_type(*$C$DW$T$167)
TMS320C2000 Assembler PC v6.2.5 Tue Nov 21 22:57:45 2017

Tools Copyright (c) 1996-2014 Texas Instruments Incorporated
C:\Users\wmj\AppData\Local\Temp\1055210                              PAGE   95

    4993                      .dwattr $C$DW$856, DW_AT_name("RcvBufferPos")
    4994                      .dwattr $C$DW$856, DW_AT_TI_symbol_name("_RcvBufferPos")
    4995                      .dwattr $C$DW$856, DW_AT_data_member_location[DW_OP_plus_uconst 0x14]
    4996                      .dwattr $C$DW$856, DW_AT_accessibility(DW_ACCESS_public)
    4997              $C$DW$857       .dwtag  DW_TAG_member
    4998                      .dwattr $C$DW$857, DW_AT_type(*$C$DW$T$169)
    4999                      .dwattr $C$DW$857, DW_AT_name("SndBufferCur")
    5000                      .dwattr $C$DW$857, DW_AT_TI_symbol_name("_SndBufferCur")
    5001                      .dwattr $C$DW$857, DW_AT_data_member_location[DW_OP_plus_uconst 0x16]
    5002                      .dwattr $C$DW$857, DW_AT_accessibility(DW_ACCESS_public)
    5003              $C$DW$858       .dwtag  DW_TAG_member
    5004                      .dwattr $C$DW$858, DW_AT_type(*$C$DW$T$170)
    5005                      .dwattr $C$DW$858, DW_AT_name("SndBufferCount")
    5006                      .dwattr $C$DW$858, DW_AT_TI_symbol_name("_SndBufferCount")
    5007                      .dwattr $C$DW$858, DW_AT_data_member_location[DW_OP_plus_uconst 0x18]
    5008                      .dwattr $C$DW$858, DW_AT_accessibility(DW_ACCESS_public)
    5009              $C$DW$859       .dwtag  DW_TAG_member
    5010                      .dwattr $C$DW$859, DW_AT_type(*$C$DW$T$167)
    5011                      .dwattr $C$DW$859, DW_AT_name("SlaveAddress")
    5012                      .dwattr $C$DW$859, DW_AT_TI_symbol_name("_SlaveAddress")
    5013                      .dwattr $C$DW$859, DW_AT_data_member_location[DW_OP_plus_uconst 0x19]
    5014                      .dwattr $C$DW$859, DW_AT_accessibility(DW_ACCESS_public)
    5015              $C$DW$860       .dwtag  DW_TAG_member
    5016                      .dwattr $C$DW$860, DW_AT_type(*$C$DW$T$172)
    5017                      .dwattr $C$DW$860, DW_AT_name("eStatus")
    5018                      .dwattr $C$DW$860, DW_AT_TI_symbol_name("_eStatus")
    5019                      .dwattr $C$DW$860, DW_AT_data_member_location[DW_OP_plus_uconst 0x1a]
    5020                      .dwattr $C$DW$860, DW_AT_accessibility(DW_ACCESS_public)
    5021              $C$DW$861       .dwtag  DW_TAG_member
    5022                      .dwattr $C$DW$861, DW_AT_type(*$C$DW$T$174)
    5023                      .dwattr $C$DW$861, DW_AT_name("eSndState")
    5024                      .dwattr $C$DW$861, DW_AT_TI_symbol_name("_eSndState")
    5025                      .dwattr $C$DW$861, DW_AT_data_member_location[DW_OP_plus_uconst 0x1b]
    5026                      .dwattr $C$DW$861, DW_AT_accessibility(DW_ACCESS_public)
    5027              $C$DW$862       .dwtag  DW_TAG_member
    5028                      .dwattr $C$DW$862, DW_AT_type(*$C$DW$T$176)
    5029                      .dwattr $C$DW$862, DW_AT_name("eRcvState")
    5030                      .dwattr $C$DW$862, DW_AT_TI_symbol_name("_eRcvState")
    5031                      .dwattr $C$DW$862, DW_AT_data_member_location[DW_OP_plus_uconst 0x1c]
    5032                      .dwattr $C$DW$862, DW_AT_accessibility(DW_ACCESS_public)
    5033              $C$DW$863       .dwtag  DW_TAG_member
    5034                      .dwattr $C$DW$863, DW_AT_type(*$C$DW$T$33)
    5035                      .dwattr $C$DW$863, DW_AT_name("xEventInQueue")
    5036                      .dwattr $C$DW$863, DW_AT_TI_symbol_name("_xEventInQueue")
    5037                      .dwattr $C$DW$863, DW_AT_data_member_location[DW_OP_plus_uconst 0x1d]
    5038                      .dwattr $C$DW$863, DW_AT_accessibility(DW_ACCESS_public)
    5039              $C$DW$864       .dwtag  DW_TAG_member
    5040                      .dwattr $C$DW$864, DW_AT_type(*$C$DW$T$178)
    5041                      .dwattr $C$DW$864, DW_AT_name("eQueuedEvent")
    5042                      .dwattr $C$DW$864, DW_AT_TI_symbol_name("_eQueuedEvent")
    5043                      .dwattr $C$DW$864, DW_AT_data_member_location[DW_OP_plus_uconst 0x1e]
    5044                      .dwattr $C$DW$864, DW_AT_accessibility(DW_ACCESS_public)
    5045                      .dwendtag $C$DW$T$179
    5046              
    5047              $C$DW$T$217     .dwtag  DW_TAG_typedef, DW_AT_name("MB_Obj")
TMS320C2000 Assembler PC v6.2.5 Tue Nov 21 22:57:45 2017

Tools Copyright (c) 1996-2014 Texas Instruments Incorporated
C:\Users\wmj\AppData\Local\Temp\1055210                              PAGE   96

    5048                      .dwattr $C$DW$T$217, DW_AT_type(*$C$DW$T$179)
    5049                      .dwattr $C$DW$T$217, DW_AT_language(DW_LANG_C)
    5050              $C$DW$T$218     .dwtag  DW_TAG_pointer_type
    5051                      .dwattr $C$DW$T$218, DW_AT_type(*$C$DW$T$179)
    5052                      .dwattr $C$DW$T$218, DW_AT_address_class(0x16)
    5053              $C$DW$T$219     .dwtag  DW_TAG_typedef, DW_AT_name("MB_Handle")
    5054                      .dwattr $C$DW$T$219, DW_AT_type(*$C$DW$T$218)
    5055                      .dwattr $C$DW$T$219, DW_AT_language(DW_LANG_C)
    5056              
    5057              $C$DW$T$181     .dwtag  DW_TAG_structure_type
    5058                      .dwattr $C$DW$T$181, DW_AT_name("_MB_RTU_t_")
    5059                      .dwattr $C$DW$T$181, DW_AT_byte_size(0x08)
    5060              $C$DW$865       .dwtag  DW_TAG_member
    5061                      .dwattr $C$DW$865, DW_AT_type(*$C$DW$T$167)
    5062                      .dwattr $C$DW$865, DW_AT_name("PDU_Address")
    5063                      .dwattr $C$DW$865, DW_AT_TI_symbol_name("_PDU_Address")
    5064                      .dwattr $C$DW$865, DW_AT_data_member_location[DW_OP_plus_uconst 0x0]
    5065                      .dwattr $C$DW$865, DW_AT_accessibility(DW_ACCESS_public)
    5066              $C$DW$866       .dwtag  DW_TAG_member
    5067                      .dwattr $C$DW$866, DW_AT_type(*$C$DW$T$167)
    5068                      .dwattr $C$DW$866, DW_AT_name("PDU_FunctionCode")
    5069                      .dwattr $C$DW$866, DW_AT_TI_symbol_name("_PDU_FunctionCode")
    5070                      .dwattr $C$DW$866, DW_AT_data_member_location[DW_OP_plus_uconst 0x1]
    5071                      .dwattr $C$DW$866, DW_AT_accessibility(DW_ACCESS_public)
    5072              $C$DW$867       .dwtag  DW_TAG_member
    5073                      .dwattr $C$DW$867, DW_AT_type(*$C$DW$T$180)
    5074                      .dwattr $C$DW$867, DW_AT_name("PDU_RegAddress")
    5075                      .dwattr $C$DW$867, DW_AT_TI_symbol_name("_PDU_RegAddress")
    5076                      .dwattr $C$DW$867, DW_AT_data_member_location[DW_OP_plus_uconst 0x2]
    5077                      .dwattr $C$DW$867, DW_AT_accessibility(DW_ACCESS_public)
    5078              $C$DW$868       .dwtag  DW_TAG_member
    5079                      .dwattr $C$DW$868, DW_AT_type(*$C$DW$T$180)
    5080                      .dwattr $C$DW$868, DW_AT_name("PDU_Data")
    5081                      .dwattr $C$DW$868, DW_AT_TI_symbol_name("_PDU_Data")
    5082                      .dwattr $C$DW$868, DW_AT_data_member_location[DW_OP_plus_uconst 0x4]
    5083                      .dwattr $C$DW$868, DW_AT_accessibility(DW_ACCESS_public)
    5084              $C$DW$869       .dwtag  DW_TAG_member
    5085                      .dwattr $C$DW$869, DW_AT_type(*$C$DW$T$167)
    5086                      .dwattr $C$DW$869, DW_AT_name("PDU_CRC_LByte")
    5087                      .dwattr $C$DW$869, DW_AT_TI_symbol_name("_PDU_CRC_LByte")
    5088                      .dwattr $C$DW$869, DW_AT_data_member_location[DW_OP_plus_uconst 0x6]
    5089                      .dwattr $C$DW$869, DW_AT_accessibility(DW_ACCESS_public)
    5090              $C$DW$870       .dwtag  DW_TAG_member
    5091                      .dwattr $C$DW$870, DW_AT_type(*$C$DW$T$167)
    5092                      .dwattr $C$DW$870, DW_AT_name("PDU_CRC_HByte")
    5093                      .dwattr $C$DW$870, DW_AT_TI_symbol_name("_PDU_CRC_HByte")
    5094                      .dwattr $C$DW$870, DW_AT_data_member_location[DW_OP_plus_uconst 0x7]
    5095                      .dwattr $C$DW$870, DW_AT_accessibility(DW_ACCESS_public)
    5096                      .dwendtag $C$DW$T$181
    5097              
    5098              $C$DW$T$165     .dwtag  DW_TAG_pointer_type
    5099                      .dwattr $C$DW$T$165, DW_AT_type(*$C$DW$T$181)
    5100                      .dwattr $C$DW$T$165, DW_AT_address_class(0x16)
    5101              $C$DW$T$166     .dwtag  DW_TAG_typedef, DW_AT_name("RTU_Frame")
    5102                      .dwattr $C$DW$T$166, DW_AT_type(*$C$DW$T$165)
TMS320C2000 Assembler PC v6.2.5 Tue Nov 21 22:57:45 2017

Tools Copyright (c) 1996-2014 Texas Instruments Incorporated
C:\Users\wmj\AppData\Local\Temp\1055210                              PAGE   97

    5103                      .dwattr $C$DW$T$166, DW_AT_language(DW_LANG_C)
    5104              
    5105              $C$DW$T$187     .dwtag  DW_TAG_structure_type
    5106                      .dwattr $C$DW$T$187, DW_AT_name("_MOTOR_Obj_")
    5107                      .dwattr $C$DW$T$187, DW_AT_byte_size(0x70)
    5108              $C$DW$871       .dwtag  DW_TAG_member
    5109                      .dwattr $C$DW$871, DW_AT_type(*$C$DW$T$33)
    5110                      .dwattr $C$DW$871, DW_AT_name("Flag_enableSys")
    5111                      .dwattr $C$DW$871, DW_AT_TI_symbol_name("_Flag_enableSys")
    5112                      .dwattr $C$DW$871, DW_AT_data_member_location[DW_OP_plus_uconst 0x0]
    5113                      .dwattr $C$DW$871, DW_AT_accessibility(DW_ACCESS_public)
    5114              $C$DW$872       .dwtag  DW_TAG_member
    5115                      .dwattr $C$DW$872, DW_AT_type(*$C$DW$T$33)
    5116                      .dwattr $C$DW$872, DW_AT_name("Flag_Run_Identify")
    5117                      .dwattr $C$DW$872, DW_AT_TI_symbol_name("_Flag_Run_Identify")
    5118                      .dwattr $C$DW$872, DW_AT_data_member_location[DW_OP_plus_uconst 0x1]
    5119                      .dwattr $C$DW$872, DW_AT_accessibility(DW_ACCESS_public)
    5120              $C$DW$873       .dwtag  DW_TAG_member
    5121                      .dwattr $C$DW$873, DW_AT_type(*$C$DW$T$33)
    5122                      .dwattr $C$DW$873, DW_AT_name("Flag_MotorIdentified")
    5123                      .dwattr $C$DW$873, DW_AT_TI_symbol_name("_Flag_MotorIdentified")
    5124                      .dwattr $C$DW$873, DW_AT_data_member_location[DW_OP_plus_uconst 0x2]
    5125                      .dwattr $C$DW$873, DW_AT_accessibility(DW_ACCESS_public)
    5126              $C$DW$874       .dwtag  DW_TAG_member
    5127                      .dwattr $C$DW$874, DW_AT_type(*$C$DW$T$33)
    5128                      .dwattr $C$DW$874, DW_AT_name("Flag_enableForceAngle")
    5129                      .dwattr $C$DW$874, DW_AT_TI_symbol_name("_Flag_enableForceAngle")
    5130                      .dwattr $C$DW$874, DW_AT_data_member_location[DW_OP_plus_uconst 0x3]
    5131                      .dwattr $C$DW$874, DW_AT_accessibility(DW_ACCESS_public)
    5132              $C$DW$875       .dwtag  DW_TAG_member
    5133                      .dwattr $C$DW$875, DW_AT_type(*$C$DW$T$33)
    5134                      .dwattr $C$DW$875, DW_AT_name("Flag_ZeroPiont_Identify")
    5135                      .dwattr $C$DW$875, DW_AT_TI_symbol_name("_Flag_ZeroPiont_Identify")
    5136                      .dwattr $C$DW$875, DW_AT_data_member_location[DW_OP_plus_uconst 0x4]
    5137                      .dwattr $C$DW$875, DW_AT_accessibility(DW_ACCESS_public)
    5138              $C$DW$876       .dwtag  DW_TAG_member
    5139                      .dwattr $C$DW$876, DW_AT_type(*$C$DW$T$33)
    5140                      .dwattr $C$DW$876, DW_AT_name("Flag_enableRsRecalc")
    5141                      .dwattr $C$DW$876, DW_AT_TI_symbol_name("_Flag_enableRsRecalc")
    5142                      .dwattr $C$DW$876, DW_AT_data_member_location[DW_OP_plus_uconst 0x5]
    5143                      .dwattr $C$DW$876, DW_AT_accessibility(DW_ACCESS_public)
    5144              $C$DW$877       .dwtag  DW_TAG_member
    5145                      .dwattr $C$DW$877, DW_AT_type(*$C$DW$T$33)
    5146                      .dwattr $C$DW$877, DW_AT_name("Flag_enableUserParams")
    5147                      .dwattr $C$DW$877, DW_AT_TI_symbol_name("_Flag_enableUserParams")
    5148                      .dwattr $C$DW$877, DW_AT_data_member_location[DW_OP_plus_uconst 0x6]
    5149                      .dwattr $C$DW$877, DW_AT_accessibility(DW_ACCESS_public)
    5150              $C$DW$878       .dwtag  DW_TAG_member
    5151                      .dwattr $C$DW$878, DW_AT_type(*$C$DW$T$33)
    5152                      .dwattr $C$DW$878, DW_AT_name("Flag_enableOffsetcalc")
    5153                      .dwattr $C$DW$878, DW_AT_TI_symbol_name("_Flag_enableOffsetcalc")
    5154                      .dwattr $C$DW$878, DW_AT_data_member_location[DW_OP_plus_uconst 0x7]
    5155                      .dwattr $C$DW$878, DW_AT_accessibility(DW_ACCESS_public)
    5156              $C$DW$879       .dwtag  DW_TAG_member
    5157                      .dwattr $C$DW$879, DW_AT_type(*$C$DW$T$33)
TMS320C2000 Assembler PC v6.2.5 Tue Nov 21 22:57:45 2017

Tools Copyright (c) 1996-2014 Texas Instruments Incorporated
C:\Users\wmj\AppData\Local\Temp\1055210                              PAGE   98

    5158                      .dwattr $C$DW$879, DW_AT_name("Flag_enablePowerWarp")
    5159                      .dwattr $C$DW$879, DW_AT_TI_symbol_name("_Flag_enablePowerWarp")
    5160                      .dwattr $C$DW$879, DW_AT_data_member_location[DW_OP_plus_uconst 0x8]
    5161                      .dwattr $C$DW$879, DW_AT_accessibility(DW_ACCESS_public)
    5162              $C$DW$880       .dwtag  DW_TAG_member
    5163                      .dwattr $C$DW$880, DW_AT_type(*$C$DW$T$33)
    5164                      .dwattr $C$DW$880, DW_AT_name("Flag_enableSpeedCtrl")
    5165                      .dwattr $C$DW$880, DW_AT_TI_symbol_name("_Flag_enableSpeedCtrl")
    5166                      .dwattr $C$DW$880, DW_AT_data_member_location[DW_OP_plus_uconst 0x9]
    5167                      .dwattr $C$DW$880, DW_AT_accessibility(DW_ACCESS_public)
    5168              $C$DW$881       .dwtag  DW_TAG_member
    5169                      .dwattr $C$DW$881, DW_AT_type(*$C$DW$T$33)
    5170                      .dwattr $C$DW$881, DW_AT_name("Flag_enableRun")
    5171                      .dwattr $C$DW$881, DW_AT_TI_symbol_name("_Flag_enableRun")
    5172                      .dwattr $C$DW$881, DW_AT_data_member_location[DW_OP_plus_uconst 0xa]
    5173                      .dwattr $C$DW$881, DW_AT_accessibility(DW_ACCESS_public)
    5174              $C$DW$882       .dwtag  DW_TAG_member
    5175                      .dwattr $C$DW$882, DW_AT_type(*$C$DW$T$33)
    5176                      .dwattr $C$DW$882, DW_AT_name("Flag_RunState")
    5177                      .dwattr $C$DW$882, DW_AT_TI_symbol_name("_Flag_RunState")
    5178                      .dwattr $C$DW$882, DW_AT_data_member_location[DW_OP_plus_uconst 0xb]
    5179                      .dwattr $C$DW$882, DW_AT_accessibility(DW_ACCESS_public)
    5180              $C$DW$883       .dwtag  DW_TAG_member
    5181                      .dwattr $C$DW$883, DW_AT_type(*$C$DW$T$33)
    5182                      .dwattr $C$DW$883, DW_AT_name("Flag_enableFlyingStart")
    5183                      .dwattr $C$DW$883, DW_AT_TI_symbol_name("_Flag_enableFlyingStart")
    5184                      .dwattr $C$DW$883, DW_AT_data_member_location[DW_OP_plus_uconst 0xc]
    5185                      .dwattr $C$DW$883, DW_AT_accessibility(DW_ACCESS_public)
    5186              $C$DW$884       .dwtag  DW_TAG_member
    5187                      .dwattr $C$DW$884, DW_AT_type(*$C$DW$T$33)
    5188                      .dwattr $C$DW$884, DW_AT_name("Flag_ContactSensor")
    5189                      .dwattr $C$DW$884, DW_AT_TI_symbol_name("_Flag_ContactSensor")
    5190                      .dwattr $C$DW$884, DW_AT_data_member_location[DW_OP_plus_uconst 0xd]
    5191                      .dwattr $C$DW$884, DW_AT_accessibility(DW_ACCESS_public)
    5192              $C$DW$885       .dwtag  DW_TAG_member
    5193                      .dwattr $C$DW$885, DW_AT_type(*$C$DW$T$33)
    5194                      .dwattr $C$DW$885, DW_AT_name("RunPositionProfile")
    5195                      .dwattr $C$DW$885, DW_AT_TI_symbol_name("_RunPositionProfile")
    5196                      .dwattr $C$DW$885, DW_AT_data_member_location[DW_OP_plus_uconst 0xe]
    5197                      .dwattr $C$DW$885, DW_AT_accessibility(DW_ACCESS_public)
    5198              $C$DW$886       .dwtag  DW_TAG_member
    5199                      .dwattr $C$DW$886, DW_AT_type(*$C$DW$T$33)
    5200                      .dwattr $C$DW$886, DW_AT_name("getSensor")
    5201                      .dwattr $C$DW$886, DW_AT_TI_symbol_name("_getSensor")
    5202                      .dwattr $C$DW$886, DW_AT_data_member_location[DW_OP_plus_uconst 0xf]
    5203                      .dwattr $C$DW$886, DW_AT_accessibility(DW_ACCESS_public)
    5204              $C$DW$887       .dwtag  DW_TAG_member
    5205                      .dwattr $C$DW$887, DW_AT_type(*$C$DW$T$33)
    5206                      .dwattr $C$DW$887, DW_AT_name("Flag_UseSpinTAC")
    5207                      .dwattr $C$DW$887, DW_AT_TI_symbol_name("_Flag_UseSpinTAC")
    5208                      .dwattr $C$DW$887, DW_AT_data_member_location[DW_OP_plus_uconst 0x10]
    5209                      .dwattr $C$DW$887, DW_AT_accessibility(DW_ACCESS_public)
    5210              $C$DW$888       .dwtag  DW_TAG_member
    5211                      .dwattr $C$DW$888, DW_AT_type(*$C$DW$T$33)
    5212                      .dwattr $C$DW$888, DW_AT_name("Flag_MotorParamsEst")
TMS320C2000 Assembler PC v6.2.5 Tue Nov 21 22:57:45 2017

Tools Copyright (c) 1996-2014 Texas Instruments Incorporated
C:\Users\wmj\AppData\Local\Temp\1055210                              PAGE   99

    5213                      .dwattr $C$DW$888, DW_AT_TI_symbol_name("_Flag_MotorParamsEst")
    5214                      .dwattr $C$DW$888, DW_AT_data_member_location[DW_OP_plus_uconst 0x11]
    5215                      .dwattr $C$DW$888, DW_AT_accessibility(DW_ACCESS_public)
    5216              $C$DW$889       .dwtag  DW_TAG_member
    5217                      .dwattr $C$DW$889, DW_AT_type(*$C$DW$T$42)
    5218                      .dwattr $C$DW$889, DW_AT_name("CtrlState")
    5219                      .dwattr $C$DW$889, DW_AT_TI_symbol_name("_CtrlState")
    5220                      .dwattr $C$DW$889, DW_AT_data_member_location[DW_OP_plus_uconst 0x12]
    5221                      .dwattr $C$DW$889, DW_AT_accessibility(DW_ACCESS_public)
    5222              $C$DW$890       .dwtag  DW_TAG_member
    5223                      .dwattr $C$DW$890, DW_AT_type(*$C$DW$T$183)
    5224                      .dwattr $C$DW$890, DW_AT_name("EstState")
    5225                      .dwattr $C$DW$890, DW_AT_TI_symbol_name("_EstState")
    5226                      .dwattr $C$DW$890, DW_AT_data_member_location[DW_OP_plus_uconst 0x13]
    5227                      .dwattr $C$DW$890, DW_AT_accessibility(DW_ACCESS_public)
    5228              $C$DW$891       .dwtag  DW_TAG_member
    5229                      .dwattr $C$DW$891, DW_AT_type(*$C$DW$T$185)
    5230                      .dwattr $C$DW$891, DW_AT_name("UserErrorCode")
    5231                      .dwattr $C$DW$891, DW_AT_TI_symbol_name("_UserErrorCode")
    5232                      .dwattr $C$DW$891, DW_AT_data_member_location[DW_OP_plus_uconst 0x14]
    5233                      .dwattr $C$DW$891, DW_AT_accessibility(DW_ACCESS_public)
    5234              $C$DW$892       .dwtag  DW_TAG_member
    5235                      .dwattr $C$DW$892, DW_AT_type(*$C$DW$T$40)
    5236                      .dwattr $C$DW$892, DW_AT_name("CtrlVersion")
    5237                      .dwattr $C$DW$892, DW_AT_TI_symbol_name("_CtrlVersion")
    5238                      .dwattr $C$DW$892, DW_AT_data_member_location[DW_OP_plus_uconst 0x15]
    5239                      .dwattr $C$DW$892, DW_AT_accessibility(DW_ACCESS_public)
    5240              $C$DW$893       .dwtag  DW_TAG_member
    5241                      .dwattr $C$DW$893, DW_AT_type(*$C$DW$T$31)
    5242                      .dwattr $C$DW$893, DW_AT_name("SpeedRef_krpm")
    5243                      .dwattr $C$DW$893, DW_AT_TI_symbol_name("_SpeedRef_krpm")
    5244                      .dwattr $C$DW$893, DW_AT_data_member_location[DW_OP_plus_uconst 0x1a]
    5245                      .dwattr $C$DW$893, DW_AT_accessibility(DW_ACCESS_public)
    5246              $C$DW$894       .dwtag  DW_TAG_member
    5247                      .dwattr $C$DW$894, DW_AT_type(*$C$DW$T$31)
    5248                      .dwattr $C$DW$894, DW_AT_name("MaxAccel_krpmps")
    5249                      .dwattr $C$DW$894, DW_AT_TI_symbol_name("_MaxAccel_krpmps")
    5250                      .dwattr $C$DW$894, DW_AT_data_member_location[DW_OP_plus_uconst 0x1c]
    5251                      .dwattr $C$DW$894, DW_AT_accessibility(DW_ACCESS_public)
    5252              $C$DW$895       .dwtag  DW_TAG_member
    5253                      .dwattr $C$DW$895, DW_AT_type(*$C$DW$T$31)
    5254                      .dwattr $C$DW$895, DW_AT_name("MaxDecel_krpmps")
    5255                      .dwattr $C$DW$895, DW_AT_TI_symbol_name("_MaxDecel_krpmps")
    5256                      .dwattr $C$DW$895, DW_AT_data_member_location[DW_OP_plus_uconst 0x1e]
    5257                      .dwattr $C$DW$895, DW_AT_accessibility(DW_ACCESS_public)
    5258              $C$DW$896       .dwtag  DW_TAG_member
    5259                      .dwattr $C$DW$896, DW_AT_type(*$C$DW$T$186)
    5260                      .dwattr $C$DW$896, DW_AT_name("MaxJrk_krpmps2")
    5261                      .dwattr $C$DW$896, DW_AT_TI_symbol_name("_MaxJrk_krpmps2")
    5262                      .dwattr $C$DW$896, DW_AT_data_member_location[DW_OP_plus_uconst 0x20]
    5263                      .dwattr $C$DW$896, DW_AT_accessibility(DW_ACCESS_public)
    5264              $C$DW$897       .dwtag  DW_TAG_member
    5265                      .dwattr $C$DW$897, DW_AT_type(*$C$DW$T$31)
    5266                      .dwattr $C$DW$897, DW_AT_name("MaxCurrentRatio_pu")
    5267                      .dwattr $C$DW$897, DW_AT_TI_symbol_name("_MaxCurrentRatio_pu")
TMS320C2000 Assembler PC v6.2.5 Tue Nov 21 22:57:45 2017

Tools Copyright (c) 1996-2014 Texas Instruments Incorporated
C:\Users\wmj\AppData\Local\Temp\1055210                              PAGE  100

    5268                      .dwattr $C$DW$897, DW_AT_data_member_location[DW_OP_plus_uconst 0x22]
    5269                      .dwattr $C$DW$897, DW_AT_accessibility(DW_ACCESS_public)
    5270              $C$DW$898       .dwtag  DW_TAG_member
    5271                      .dwattr $C$DW$898, DW_AT_type(*$C$DW$T$31)
    5272                      .dwattr $C$DW$898, DW_AT_name("Speed_krpm")
    5273                      .dwattr $C$DW$898, DW_AT_TI_symbol_name("_Speed_krpm")
    5274                      .dwattr $C$DW$898, DW_AT_data_member_location[DW_OP_plus_uconst 0x24]
    5275                      .dwattr $C$DW$898, DW_AT_accessibility(DW_ACCESS_public)
    5276              $C$DW$899       .dwtag  DW_TAG_member
    5277                      .dwattr $C$DW$899, DW_AT_type(*$C$DW$T$31)
    5278                      .dwattr $C$DW$899, DW_AT_name("Flux_Wb")
    5279                      .dwattr $C$DW$899, DW_AT_TI_symbol_name("_Flux_Wb")
    5280                      .dwattr $C$DW$899, DW_AT_data_member_location[DW_OP_plus_uconst 0x26]
    5281                      .dwattr $C$DW$899, DW_AT_accessibility(DW_ACCESS_public)
    5282              $C$DW$900       .dwtag  DW_TAG_member
    5283                      .dwattr $C$DW$900, DW_AT_type(*$C$DW$T$31)
    5284                      .dwattr $C$DW$900, DW_AT_name("Torque_Nm")
    5285                      .dwattr $C$DW$900, DW_AT_TI_symbol_name("_Torque_Nm")
    5286                      .dwattr $C$DW$900, DW_AT_data_member_location[DW_OP_plus_uconst 0x28]
    5287                      .dwattr $C$DW$900, DW_AT_accessibility(DW_ACCESS_public)
    5288              $C$DW$901       .dwtag  DW_TAG_member
    5289                      .dwattr $C$DW$901, DW_AT_type(*$C$DW$T$70)
    5290                      .dwattr $C$DW$901, DW_AT_name("Rr_Ohm")
    5291                      .dwattr $C$DW$901, DW_AT_TI_symbol_name("_Rr_Ohm")
    5292                      .dwattr $C$DW$901, DW_AT_data_member_location[DW_OP_plus_uconst 0x2a]
    5293                      .dwattr $C$DW$901, DW_AT_accessibility(DW_ACCESS_public)
    5294              $C$DW$902       .dwtag  DW_TAG_member
    5295                      .dwattr $C$DW$902, DW_AT_type(*$C$DW$T$70)
    5296                      .dwattr $C$DW$902, DW_AT_name("Rs_Ohm")
    5297                      .dwattr $C$DW$902, DW_AT_TI_symbol_name("_Rs_Ohm")
    5298                      .dwattr $C$DW$902, DW_AT_data_member_location[DW_OP_plus_uconst 0x2c]
    5299                      .dwattr $C$DW$902, DW_AT_accessibility(DW_ACCESS_public)
    5300              $C$DW$903       .dwtag  DW_TAG_member
    5301                      .dwattr $C$DW$903, DW_AT_type(*$C$DW$T$70)
    5302                      .dwattr $C$DW$903, DW_AT_name("Lsd_H")
    5303                      .dwattr $C$DW$903, DW_AT_TI_symbol_name("_Lsd_H")
    5304                      .dwattr $C$DW$903, DW_AT_data_member_location[DW_OP_plus_uconst 0x2e]
    5305                      .dwattr $C$DW$903, DW_AT_accessibility(DW_ACCESS_public)
    5306              $C$DW$904       .dwtag  DW_TAG_member
    5307                      .dwattr $C$DW$904, DW_AT_type(*$C$DW$T$70)
    5308                      .dwattr $C$DW$904, DW_AT_name("Lsq_H")
    5309                      .dwattr $C$DW$904, DW_AT_TI_symbol_name("_Lsq_H")
    5310                      .dwattr $C$DW$904, DW_AT_data_member_location[DW_OP_plus_uconst 0x30]
    5311                      .dwattr $C$DW$904, DW_AT_accessibility(DW_ACCESS_public)
    5312              $C$DW$905       .dwtag  DW_TAG_member
    5313                      .dwattr $C$DW$905, DW_AT_type(*$C$DW$T$70)
    5314                      .dwattr $C$DW$905, DW_AT_name("MaxCurr_A")
    5315                      .dwattr $C$DW$905, DW_AT_TI_symbol_name("_MaxCurr_A")
    5316                      .dwattr $C$DW$905, DW_AT_data_member_location[DW_OP_plus_uconst 0x32]
    5317                      .dwattr $C$DW$905, DW_AT_accessibility(DW_ACCESS_public)
    5318              $C$DW$906       .dwtag  DW_TAG_member
    5319                      .dwattr $C$DW$906, DW_AT_type(*$C$DW$T$70)
    5320                      .dwattr $C$DW$906, DW_AT_name("MagnCurr_A")
    5321                      .dwattr $C$DW$906, DW_AT_TI_symbol_name("_MagnCurr_A")
    5322                      .dwattr $C$DW$906, DW_AT_data_member_location[DW_OP_plus_uconst 0x34]
TMS320C2000 Assembler PC v6.2.5 Tue Nov 21 22:57:45 2017

Tools Copyright (c) 1996-2014 Texas Instruments Incorporated
C:\Users\wmj\AppData\Local\Temp\1055210                              PAGE  101

    5323                      .dwattr $C$DW$906, DW_AT_accessibility(DW_ACCESS_public)
    5324              $C$DW$907       .dwtag  DW_TAG_member
    5325                      .dwattr $C$DW$907, DW_AT_type(*$C$DW$T$70)
    5326                      .dwattr $C$DW$907, DW_AT_name("Flux_VpHz")
    5327                      .dwattr $C$DW$907, DW_AT_TI_symbol_name("_Flux_VpHz")
    5328                      .dwattr $C$DW$907, DW_AT_data_member_location[DW_OP_plus_uconst 0x36]
    5329                      .dwattr $C$DW$907, DW_AT_accessibility(DW_ACCESS_public)
    5330              $C$DW$908       .dwtag  DW_TAG_member
    5331                      .dwattr $C$DW$908, DW_AT_type(*$C$DW$T$70)
    5332                      .dwattr $C$DW$908, DW_AT_name("RsOnLine_Ohm")
    5333                      .dwattr $C$DW$908, DW_AT_TI_symbol_name("_RsOnLine_Ohm")
    5334                      .dwattr $C$DW$908, DW_AT_data_member_location[DW_OP_plus_uconst 0x38]
    5335                      .dwattr $C$DW$908, DW_AT_accessibility(DW_ACCESS_public)
    5336              $C$DW$909       .dwtag  DW_TAG_member
    5337                      .dwattr $C$DW$909, DW_AT_type(*$C$DW$T$31)
    5338                      .dwattr $C$DW$909, DW_AT_name("OverModulation")
    5339                      .dwattr $C$DW$909, DW_AT_TI_symbol_name("_OverModulation")
    5340                      .dwattr $C$DW$909, DW_AT_data_member_location[DW_OP_plus_uconst 0x3a]
    5341                      .dwattr $C$DW$909, DW_AT_accessibility(DW_ACCESS_public)
    5342              $C$DW$910       .dwtag  DW_TAG_member
    5343                      .dwattr $C$DW$910, DW_AT_type(*$C$DW$T$31)
    5344                      .dwattr $C$DW$910, DW_AT_name("RsOnLineCurrent_A")
    5345                      .dwattr $C$DW$910, DW_AT_TI_symbol_name("_RsOnLineCurrent_A")
    5346                      .dwattr $C$DW$910, DW_AT_data_member_location[DW_OP_plus_uconst 0x3c]
    5347                      .dwattr $C$DW$910, DW_AT_accessibility(DW_ACCESS_public)
    5348              $C$DW$911       .dwtag  DW_TAG_member
    5349                      .dwattr $C$DW$911, DW_AT_type(*$C$DW$T$31)
    5350                      .dwattr $C$DW$911, DW_AT_name("Kp_Idq")
    5351                      .dwattr $C$DW$911, DW_AT_TI_symbol_name("_Kp_Idq")
    5352                      .dwattr $C$DW$911, DW_AT_data_member_location[DW_OP_plus_uconst 0x3e]
    5353                      .dwattr $C$DW$911, DW_AT_accessibility(DW_ACCESS_public)
    5354              $C$DW$912       .dwtag  DW_TAG_member
    5355                      .dwattr $C$DW$912, DW_AT_type(*$C$DW$T$31)
    5356                      .dwattr $C$DW$912, DW_AT_name("Ki_Idq")
    5357                      .dwattr $C$DW$912, DW_AT_TI_symbol_name("_Ki_Idq")
    5358                      .dwattr $C$DW$912, DW_AT_data_member_location[DW_OP_plus_uconst 0x40]
    5359                      .dwattr $C$DW$912, DW_AT_accessibility(DW_ACCESS_public)
    5360              $C$DW$913       .dwtag  DW_TAG_member
    5361                      .dwattr $C$DW$913, DW_AT_type(*$C$DW$T$31)
    5362                      .dwattr $C$DW$913, DW_AT_name("Kp_spd")
    5363                      .dwattr $C$DW$913, DW_AT_TI_symbol_name("_Kp_spd")
    5364                      .dwattr $C$DW$913, DW_AT_data_member_location[DW_OP_plus_uconst 0x42]
    5365                      .dwattr $C$DW$913, DW_AT_accessibility(DW_ACCESS_public)
    5366              $C$DW$914       .dwtag  DW_TAG_member
    5367                      .dwattr $C$DW$914, DW_AT_type(*$C$DW$T$31)
    5368                      .dwattr $C$DW$914, DW_AT_name("Ki_spd")
    5369                      .dwattr $C$DW$914, DW_AT_TI_symbol_name("_Ki_spd")
    5370                      .dwattr $C$DW$914, DW_AT_data_member_location[DW_OP_plus_uconst 0x44]
    5371                      .dwattr $C$DW$914, DW_AT_accessibility(DW_ACCESS_public)
    5372              $C$DW$915       .dwtag  DW_TAG_member
    5373                      .dwattr $C$DW$915, DW_AT_type(*$C$DW$T$31)
    5374                      .dwattr $C$DW$915, DW_AT_name("Vd")
    5375                      .dwattr $C$DW$915, DW_AT_TI_symbol_name("_Vd")
    5376                      .dwattr $C$DW$915, DW_AT_data_member_location[DW_OP_plus_uconst 0x46]
    5377                      .dwattr $C$DW$915, DW_AT_accessibility(DW_ACCESS_public)
TMS320C2000 Assembler PC v6.2.5 Tue Nov 21 22:57:45 2017

Tools Copyright (c) 1996-2014 Texas Instruments Incorporated
C:\Users\wmj\AppData\Local\Temp\1055210                              PAGE  102

    5378              $C$DW$916       .dwtag  DW_TAG_member
    5379                      .dwattr $C$DW$916, DW_AT_type(*$C$DW$T$31)
    5380                      .dwattr $C$DW$916, DW_AT_name("Vq")
    5381                      .dwattr $C$DW$916, DW_AT_TI_symbol_name("_Vq")
    5382                      .dwattr $C$DW$916, DW_AT_data_member_location[DW_OP_plus_uconst 0x48]
    5383                      .dwattr $C$DW$916, DW_AT_accessibility(DW_ACCESS_public)
    5384              $C$DW$917       .dwtag  DW_TAG_member
    5385                      .dwattr $C$DW$917, DW_AT_type(*$C$DW$T$31)
    5386                      .dwattr $C$DW$917, DW_AT_name("Vs")
    5387                      .dwattr $C$DW$917, DW_AT_TI_symbol_name("_Vs")
    5388                      .dwattr $C$DW$917, DW_AT_data_member_location[DW_OP_plus_uconst 0x4a]
    5389                      .dwattr $C$DW$917, DW_AT_accessibility(DW_ACCESS_public)
    5390              $C$DW$918       .dwtag  DW_TAG_member
    5391                      .dwattr $C$DW$918, DW_AT_type(*$C$DW$T$31)
    5392                      .dwattr $C$DW$918, DW_AT_name("Id_A")
    5393                      .dwattr $C$DW$918, DW_AT_TI_symbol_name("_Id_A")
    5394                      .dwattr $C$DW$918, DW_AT_data_member_location[DW_OP_plus_uconst 0x4c]
    5395                      .dwattr $C$DW$918, DW_AT_accessibility(DW_ACCESS_public)
    5396              $C$DW$919       .dwtag  DW_TAG_member
    5397                      .dwattr $C$DW$919, DW_AT_type(*$C$DW$T$31)
    5398                      .dwattr $C$DW$919, DW_AT_name("Iq_A")
    5399                      .dwattr $C$DW$919, DW_AT_TI_symbol_name("_Iq_A")
    5400                      .dwattr $C$DW$919, DW_AT_data_member_location[DW_OP_plus_uconst 0x4e]
    5401                      .dwattr $C$DW$919, DW_AT_accessibility(DW_ACCESS_public)
    5402              $C$DW$920       .dwtag  DW_TAG_member
    5403                      .dwattr $C$DW$920, DW_AT_type(*$C$DW$T$31)
    5404                      .dwattr $C$DW$920, DW_AT_name("Is_A")
    5405                      .dwattr $C$DW$920, DW_AT_TI_symbol_name("_Is_A")
    5406                      .dwattr $C$DW$920, DW_AT_data_member_location[DW_OP_plus_uconst 0x50]
    5407                      .dwattr $C$DW$920, DW_AT_accessibility(DW_ACCESS_public)
    5408              $C$DW$921       .dwtag  DW_TAG_member
    5409                      .dwattr $C$DW$921, DW_AT_type(*$C$DW$T$31)
    5410                      .dwattr $C$DW$921, DW_AT_name("IdRef_A")
    5411                      .dwattr $C$DW$921, DW_AT_TI_symbol_name("_IdRef_A")
    5412                      .dwattr $C$DW$921, DW_AT_data_member_location[DW_OP_plus_uconst 0x52]
    5413                      .dwattr $C$DW$921, DW_AT_accessibility(DW_ACCESS_public)
    5414              $C$DW$922       .dwtag  DW_TAG_member
    5415                      .dwattr $C$DW$922, DW_AT_type(*$C$DW$T$31)
    5416                      .dwattr $C$DW$922, DW_AT_name("IqRef_A")
    5417                      .dwattr $C$DW$922, DW_AT_TI_symbol_name("_IqRef_A")
    5418                      .dwattr $C$DW$922, DW_AT_data_member_location[DW_OP_plus_uconst 0x54]
    5419                      .dwattr $C$DW$922, DW_AT_accessibility(DW_ACCESS_public)
    5420              $C$DW$923       .dwtag  DW_TAG_member
    5421                      .dwattr $C$DW$923, DW_AT_type(*$C$DW$T$31)
    5422                      .dwattr $C$DW$923, DW_AT_name("Ibrake_Ratio")
    5423                      .dwattr $C$DW$923, DW_AT_TI_symbol_name("_Ibrake_Ratio")
    5424                      .dwattr $C$DW$923, DW_AT_data_member_location[DW_OP_plus_uconst 0x56]
    5425                      .dwattr $C$DW$923, DW_AT_accessibility(DW_ACCESS_public)
    5426              $C$DW$924       .dwtag  DW_TAG_member
    5427                      .dwattr $C$DW$924, DW_AT_type(*$C$DW$T$116)
    5428                      .dwattr $C$DW$924, DW_AT_name("I_bias")
    5429                      .dwattr $C$DW$924, DW_AT_TI_symbol_name("_I_bias")
    5430                      .dwattr $C$DW$924, DW_AT_data_member_location[DW_OP_plus_uconst 0x58]
    5431                      .dwattr $C$DW$924, DW_AT_accessibility(DW_ACCESS_public)
    5432              $C$DW$925       .dwtag  DW_TAG_member
TMS320C2000 Assembler PC v6.2.5 Tue Nov 21 22:57:45 2017

Tools Copyright (c) 1996-2014 Texas Instruments Incorporated
C:\Users\wmj\AppData\Local\Temp\1055210                              PAGE  103

    5433                      .dwattr $C$DW$925, DW_AT_type(*$C$DW$T$116)
    5434                      .dwattr $C$DW$925, DW_AT_name("V_bias")
    5435                      .dwattr $C$DW$925, DW_AT_TI_symbol_name("_V_bias")
    5436                      .dwattr $C$DW$925, DW_AT_data_member_location[DW_OP_plus_uconst 0x5e]
    5437                      .dwattr $C$DW$925, DW_AT_accessibility(DW_ACCESS_public)
    5438              $C$DW$926       .dwtag  DW_TAG_member
    5439                      .dwattr $C$DW$926, DW_AT_type(*$C$DW$T$31)
    5440                      .dwattr $C$DW$926, DW_AT_name("Sensor0_Value")
    5441                      .dwattr $C$DW$926, DW_AT_TI_symbol_name("_Sensor0_Value")
    5442                      .dwattr $C$DW$926, DW_AT_data_member_location[DW_OP_plus_uconst 0x64]
    5443                      .dwattr $C$DW$926, DW_AT_accessibility(DW_ACCESS_public)
    5444              $C$DW$927       .dwtag  DW_TAG_member
    5445                      .dwattr $C$DW$927, DW_AT_type(*$C$DW$T$31)
    5446                      .dwattr $C$DW$927, DW_AT_name("Sensor1_Value")
    5447                      .dwattr $C$DW$927, DW_AT_TI_symbol_name("_Sensor1_Value")
    5448                      .dwattr $C$DW$927, DW_AT_data_member_location[DW_OP_plus_uconst 0x66]
    5449                      .dwattr $C$DW$927, DW_AT_accessibility(DW_ACCESS_public)
    5450              $C$DW$928       .dwtag  DW_TAG_member
    5451                      .dwattr $C$DW$928, DW_AT_type(*$C$DW$T$31)
    5452                      .dwattr $C$DW$928, DW_AT_name("ZeroPoint_Value")
    5453                      .dwattr $C$DW$928, DW_AT_TI_symbol_name("_ZeroPoint_Value")
    5454                      .dwattr $C$DW$928, DW_AT_data_member_location[DW_OP_plus_uconst 0x68]
    5455                      .dwattr $C$DW$928, DW_AT_accessibility(DW_ACCESS_public)
    5456              $C$DW$929       .dwtag  DW_TAG_member
    5457                      .dwattr $C$DW$929, DW_AT_type(*$C$DW$T$186)
    5458                      .dwattr $C$DW$929, DW_AT_name("ChipTemp")
    5459                      .dwattr $C$DW$929, DW_AT_TI_symbol_name("_ChipTemp")
    5460                      .dwattr $C$DW$929, DW_AT_data_member_location[DW_OP_plus_uconst 0x6a]
    5461                      .dwattr $C$DW$929, DW_AT_accessibility(DW_ACCESS_public)
    5462              $C$DW$930       .dwtag  DW_TAG_member
    5463                      .dwattr $C$DW$930, DW_AT_type(*$C$DW$T$31)
    5464                      .dwattr $C$DW$930, DW_AT_name("VdcBus_kV")
    5465                      .dwattr $C$DW$930, DW_AT_TI_symbol_name("_VdcBus_kV")
    5466                      .dwattr $C$DW$930, DW_AT_data_member_location[DW_OP_plus_uconst 0x6c]
    5467                      .dwattr $C$DW$930, DW_AT_accessibility(DW_ACCESS_public)
    5468              $C$DW$931       .dwtag  DW_TAG_member
    5469                      .dwattr $C$DW$931, DW_AT_type(*$C$DW$T$22)
    5470                      .dwattr $C$DW$931, DW_AT_name("MotorID")
    5471                      .dwattr $C$DW$931, DW_AT_TI_symbol_name("_MotorID")
    5472                      .dwattr $C$DW$931, DW_AT_data_member_location[DW_OP_plus_uconst 0x6e]
    5473                      .dwattr $C$DW$931, DW_AT_accessibility(DW_ACCESS_public)
    5474                      .dwendtag $C$DW$T$187
    5475              
    5476              $C$DW$T$220     .dwtag  DW_TAG_typedef, DW_AT_name("MOTOR_Obj")
    5477                      .dwattr $C$DW$T$220, DW_AT_type(*$C$DW$T$187)
    5478                      .dwattr $C$DW$T$220, DW_AT_language(DW_LANG_C)
    5479              $C$DW$T$80      .dwtag  DW_TAG_pointer_type
    5480                      .dwattr $C$DW$T$80, DW_AT_type(*$C$DW$T$187)
    5481                      .dwattr $C$DW$T$80, DW_AT_address_class(0x16)
    5482              $C$DW$T$81      .dwtag  DW_TAG_typedef, DW_AT_name("MOTOR_Handle")
    5483                      .dwattr $C$DW$T$81, DW_AT_type(*$C$DW$T$80)
    5484                      .dwattr $C$DW$T$81, DW_AT_language(DW_LANG_C)
    5485              
    5486              $C$DW$T$190     .dwtag  DW_TAG_structure_type
    5487                      .dwattr $C$DW$T$190, DW_AT_name("_MOTOR_Params_")
TMS320C2000 Assembler PC v6.2.5 Tue Nov 21 22:57:45 2017

Tools Copyright (c) 1996-2014 Texas Instruments Incorporated
C:\Users\wmj\AppData\Local\Temp\1055210                              PAGE  104

    5488                      .dwattr $C$DW$T$190, DW_AT_byte_size(0x0e)
    5489              $C$DW$932       .dwtag  DW_TAG_member
    5490                      .dwattr $C$DW$932, DW_AT_type(*$C$DW$T$189)
    5491                      .dwattr $C$DW$932, DW_AT_name("type")
    5492                      .dwattr $C$DW$932, DW_AT_TI_symbol_name("_type")
    5493                      .dwattr $C$DW$932, DW_AT_data_member_location[DW_OP_plus_uconst 0x0]
    5494                      .dwattr $C$DW$932, DW_AT_accessibility(DW_ACCESS_public)
    5495              $C$DW$933       .dwtag  DW_TAG_member
    5496                      .dwattr $C$DW$933, DW_AT_type(*$C$DW$T$69)
    5497                      .dwattr $C$DW$933, DW_AT_name("numPolePairs")
    5498                      .dwattr $C$DW$933, DW_AT_TI_symbol_name("_numPolePairs")
    5499                      .dwattr $C$DW$933, DW_AT_data_member_location[DW_OP_plus_uconst 0x1]
    5500                      .dwattr $C$DW$933, DW_AT_accessibility(DW_ACCESS_public)
    5501              $C$DW$934       .dwtag  DW_TAG_member
    5502                      .dwattr $C$DW$934, DW_AT_type(*$C$DW$T$70)
    5503                      .dwattr $C$DW$934, DW_AT_name("Lr_H")
    5504                      .dwattr $C$DW$934, DW_AT_TI_symbol_name("_Lr_H")
    5505                      .dwattr $C$DW$934, DW_AT_data_member_location[DW_OP_plus_uconst 0x2]
    5506                      .dwattr $C$DW$934, DW_AT_accessibility(DW_ACCESS_public)
    5507              $C$DW$935       .dwtag  DW_TAG_member
    5508                      .dwattr $C$DW$935, DW_AT_type(*$C$DW$T$70)
    5509                      .dwattr $C$DW$935, DW_AT_name("Ls_d_H")
    5510                      .dwattr $C$DW$935, DW_AT_TI_symbol_name("_Ls_d_H")
    5511                      .dwattr $C$DW$935, DW_AT_data_member_location[DW_OP_plus_uconst 0x4]
    5512                      .dwattr $C$DW$935, DW_AT_accessibility(DW_ACCESS_public)
    5513              $C$DW$936       .dwtag  DW_TAG_member
    5514                      .dwattr $C$DW$936, DW_AT_type(*$C$DW$T$70)
    5515                      .dwattr $C$DW$936, DW_AT_name("Ls_q_H")
    5516                      .dwattr $C$DW$936, DW_AT_TI_symbol_name("_Ls_q_H")
    5517                      .dwattr $C$DW$936, DW_AT_data_member_location[DW_OP_plus_uconst 0x6]
    5518                      .dwattr $C$DW$936, DW_AT_accessibility(DW_ACCESS_public)
    5519              $C$DW$937       .dwtag  DW_TAG_member
    5520                      .dwattr $C$DW$937, DW_AT_type(*$C$DW$T$70)
    5521                      .dwattr $C$DW$937, DW_AT_name("Rr_Ohm")
    5522                      .dwattr $C$DW$937, DW_AT_TI_symbol_name("_Rr_Ohm")
    5523                      .dwattr $C$DW$937, DW_AT_data_member_location[DW_OP_plus_uconst 0x8]
    5524                      .dwattr $C$DW$937, DW_AT_accessibility(DW_ACCESS_public)
    5525              $C$DW$938       .dwtag  DW_TAG_member
    5526                      .dwattr $C$DW$938, DW_AT_type(*$C$DW$T$70)
    5527                      .dwattr $C$DW$938, DW_AT_name("Rs_Ohm")
    5528                      .dwattr $C$DW$938, DW_AT_TI_symbol_name("_Rs_Ohm")
    5529                      .dwattr $C$DW$938, DW_AT_data_member_location[DW_OP_plus_uconst 0xa]
    5530                      .dwattr $C$DW$938, DW_AT_accessibility(DW_ACCESS_public)
    5531              $C$DW$939       .dwtag  DW_TAG_member
    5532                      .dwattr $C$DW$939, DW_AT_type(*$C$DW$T$70)
    5533                      .dwattr $C$DW$939, DW_AT_name("ratedFlux_VpHz")
    5534                      .dwattr $C$DW$939, DW_AT_TI_symbol_name("_ratedFlux_VpHz")
    5535                      .dwattr $C$DW$939, DW_AT_data_member_location[DW_OP_plus_uconst 0xc]
    5536                      .dwattr $C$DW$939, DW_AT_accessibility(DW_ACCESS_public)
    5537                      .dwendtag $C$DW$T$190
    5538              
    5539              $C$DW$T$65      .dwtag  DW_TAG_typedef, DW_AT_name("MOTOR_Params")
    5540                      .dwattr $C$DW$T$65, DW_AT_type(*$C$DW$T$190)
    5541                      .dwattr $C$DW$T$65, DW_AT_language(DW_LANG_C)
    5542              
TMS320C2000 Assembler PC v6.2.5 Tue Nov 21 22:57:45 2017

Tools Copyright (c) 1996-2014 Texas Instruments Incorporated
C:\Users\wmj\AppData\Local\Temp\1055210                              PAGE  105

    5543              $C$DW$T$194     .dwtag  DW_TAG_structure_type
    5544                      .dwattr $C$DW$T$194, DW_AT_name("_OFFSET_")
    5545                      .dwattr $C$DW$T$194, DW_AT_byte_size(0x10)
    5546              $C$DW$940       .dwtag  DW_TAG_member
    5547                      .dwattr $C$DW$940, DW_AT_type(*$C$DW$T$31)
    5548                      .dwattr $C$DW$940, DW_AT_name("value")
    5549                      .dwattr $C$DW$940, DW_AT_TI_symbol_name("_value")
    5550                      .dwattr $C$DW$940, DW_AT_data_member_location[DW_OP_plus_uconst 0x0]
    5551                      .dwattr $C$DW$940, DW_AT_accessibility(DW_ACCESS_public)
    5552              $C$DW$941       .dwtag  DW_TAG_member
    5553                      .dwattr $C$DW$941, DW_AT_type(*$C$DW$T$31)
    5554                      .dwattr $C$DW$941, DW_AT_name("bias")
    5555                      .dwattr $C$DW$941, DW_AT_TI_symbol_name("_bias")
    5556                      .dwattr $C$DW$941, DW_AT_data_member_location[DW_OP_plus_uconst 0x2]
    5557                      .dwattr $C$DW$941, DW_AT_accessibility(DW_ACCESS_public)
    5558              $C$DW$942       .dwtag  DW_TAG_member
    5559                      .dwattr $C$DW$942, DW_AT_type(*$C$DW$T$191)
    5560                      .dwattr $C$DW$942, DW_AT_name("filter")
    5561                      .dwattr $C$DW$942, DW_AT_TI_symbol_name("_filter")
    5562                      .dwattr $C$DW$942, DW_AT_data_member_location[DW_OP_plus_uconst 0x4]
    5563                      .dwattr $C$DW$942, DW_AT_accessibility(DW_ACCESS_public)
    5564              $C$DW$943       .dwtag  DW_TAG_member
    5565                      .dwattr $C$DW$943, DW_AT_type(*$C$DW$T$193)
    5566                      .dwattr $C$DW$943, DW_AT_name("filterHandle")
    5567                      .dwattr $C$DW$943, DW_AT_TI_symbol_name("_filterHandle")
    5568                      .dwattr $C$DW$943, DW_AT_data_member_location[DW_OP_plus_uconst 0xe]
    5569                      .dwattr $C$DW$943, DW_AT_accessibility(DW_ACCESS_public)
    5570                      .dwendtag $C$DW$T$194
    5571              
    5572              $C$DW$T$131     .dwtag  DW_TAG_typedef, DW_AT_name("OFFSET_Obj")
    5573                      .dwattr $C$DW$T$131, DW_AT_type(*$C$DW$T$194)
    5574                      .dwattr $C$DW$T$131, DW_AT_language(DW_LANG_C)
    5575              
    5576              $C$DW$T$132     .dwtag  DW_TAG_array_type
    5577                      .dwattr $C$DW$T$132, DW_AT_type(*$C$DW$T$131)
    5578                      .dwattr $C$DW$T$132, DW_AT_language(DW_LANG_C)
    5579                      .dwattr $C$DW$T$132, DW_AT_byte_size(0x30)
    5580              $C$DW$944       .dwtag  DW_TAG_subrange_type
    5581                      .dwattr $C$DW$944, DW_AT_upper_bound(0x02)
    5582                      .dwendtag $C$DW$T$132
    5583              
    5584              
    5585              $C$DW$T$21      .dwtag  DW_TAG_structure_type
    5586                      .dwattr $C$DW$T$21, DW_AT_name("_OFFSET_Obj_")
    5587                      .dwattr $C$DW$T$21, DW_AT_declaration
    5588                      .dwendtag $C$DW$T$21
    5589              
    5590              $C$DW$T$128     .dwtag  DW_TAG_pointer_type
    5591                      .dwattr $C$DW$T$128, DW_AT_type(*$C$DW$T$21)
    5592                      .dwattr $C$DW$T$128, DW_AT_address_class(0x16)
    5593              $C$DW$T$129     .dwtag  DW_TAG_typedef, DW_AT_name("OFFSET_Handle")
    5594                      .dwattr $C$DW$T$129, DW_AT_type(*$C$DW$T$128)
    5595                      .dwattr $C$DW$T$129, DW_AT_language(DW_LANG_C)
    5596              
    5597              $C$DW$T$130     .dwtag  DW_TAG_array_type
TMS320C2000 Assembler PC v6.2.5 Tue Nov 21 22:57:45 2017

Tools Copyright (c) 1996-2014 Texas Instruments Incorporated
C:\Users\wmj\AppData\Local\Temp\1055210                              PAGE  106

    5598                      .dwattr $C$DW$T$130, DW_AT_type(*$C$DW$T$129)
    5599                      .dwattr $C$DW$T$130, DW_AT_language(DW_LANG_C)
    5600                      .dwattr $C$DW$T$130, DW_AT_byte_size(0x06)
    5601              $C$DW$945       .dwtag  DW_TAG_subrange_type
    5602                      .dwattr $C$DW$945, DW_AT_upper_bound(0x02)
    5603                      .dwendtag $C$DW$T$130
    5604              
    5605              
    5606              $C$DW$T$195     .dwtag  DW_TAG_structure_type
    5607                      .dwattr $C$DW$T$195, DW_AT_name("_OSC_Obj_")
    5608                      .dwattr $C$DW$T$195, DW_AT_byte_size(0x03)
    5609              $C$DW$946       .dwtag  DW_TAG_member
    5610                      .dwattr $C$DW$946, DW_AT_type(*$C$DW$T$23)
    5611                      .dwattr $C$DW$946, DW_AT_name("INTOSC1TRIM")
    5612                      .dwattr $C$DW$946, DW_AT_TI_symbol_name("_INTOSC1TRIM")
    5613                      .dwattr $C$DW$946, DW_AT_data_member_location[DW_OP_plus_uconst 0x0]
    5614                      .dwattr $C$DW$946, DW_AT_accessibility(DW_ACCESS_public)
    5615              $C$DW$947       .dwtag  DW_TAG_member
    5616                      .dwattr $C$DW$947, DW_AT_type(*$C$DW$T$23)
    5617                      .dwattr $C$DW$947, DW_AT_name("rsvd_1")
    5618                      .dwattr $C$DW$947, DW_AT_TI_symbol_name("_rsvd_1")
    5619                      .dwattr $C$DW$947, DW_AT_data_member_location[DW_OP_plus_uconst 0x1]
    5620                      .dwattr $C$DW$947, DW_AT_accessibility(DW_ACCESS_public)
    5621              $C$DW$948       .dwtag  DW_TAG_member
    5622                      .dwattr $C$DW$948, DW_AT_type(*$C$DW$T$23)
    5623                      .dwattr $C$DW$948, DW_AT_name("INTOSC2TRIM")
    5624                      .dwattr $C$DW$948, DW_AT_TI_symbol_name("_INTOSC2TRIM")
    5625                      .dwattr $C$DW$948, DW_AT_data_member_location[DW_OP_plus_uconst 0x2]
    5626                      .dwattr $C$DW$948, DW_AT_accessibility(DW_ACCESS_public)
    5627                      .dwendtag $C$DW$T$195
    5628              
    5629              $C$DW$T$133     .dwtag  DW_TAG_pointer_type
    5630                      .dwattr $C$DW$T$133, DW_AT_type(*$C$DW$T$195)
    5631                      .dwattr $C$DW$T$133, DW_AT_address_class(0x16)
    5632              $C$DW$T$134     .dwtag  DW_TAG_typedef, DW_AT_name("OSC_Handle")
    5633                      .dwattr $C$DW$T$134, DW_AT_type(*$C$DW$T$133)
    5634                      .dwattr $C$DW$T$134, DW_AT_language(DW_LANG_C)
    5635              
    5636              $C$DW$T$196     .dwtag  DW_TAG_structure_type
    5637                      .dwattr $C$DW$T$196, DW_AT_name("_PARK_Obj_")
    5638                      .dwattr $C$DW$T$196, DW_AT_byte_size(0x04)
    5639              $C$DW$949       .dwtag  DW_TAG_member
    5640                      .dwattr $C$DW$949, DW_AT_type(*$C$DW$T$31)
    5641                      .dwattr $C$DW$949, DW_AT_name("sinTh")
    5642                      .dwattr $C$DW$949, DW_AT_TI_symbol_name("_sinTh")
    5643                      .dwattr $C$DW$949, DW_AT_data_member_location[DW_OP_plus_uconst 0x0]
    5644                      .dwattr $C$DW$949, DW_AT_accessibility(DW_ACCESS_public)
    5645              $C$DW$950       .dwtag  DW_TAG_member
    5646                      .dwattr $C$DW$950, DW_AT_type(*$C$DW$T$31)
    5647                      .dwattr $C$DW$950, DW_AT_name("cosTh")
    5648                      .dwattr $C$DW$950, DW_AT_TI_symbol_name("_cosTh")
    5649                      .dwattr $C$DW$950, DW_AT_data_member_location[DW_OP_plus_uconst 0x2]
    5650                      .dwattr $C$DW$950, DW_AT_accessibility(DW_ACCESS_public)
    5651                      .dwendtag $C$DW$T$196
    5652              
TMS320C2000 Assembler PC v6.2.5 Tue Nov 21 22:57:45 2017

Tools Copyright (c) 1996-2014 Texas Instruments Incorporated
C:\Users\wmj\AppData\Local\Temp\1055210                              PAGE  107

    5653              $C$DW$T$52      .dwtag  DW_TAG_typedef, DW_AT_name("PARK_Obj")
    5654                      .dwattr $C$DW$T$52, DW_AT_type(*$C$DW$T$196)
    5655                      .dwattr $C$DW$T$52, DW_AT_language(DW_LANG_C)
    5656              $C$DW$T$50      .dwtag  DW_TAG_pointer_type
    5657                      .dwattr $C$DW$T$50, DW_AT_type(*$C$DW$T$196)
    5658                      .dwattr $C$DW$T$50, DW_AT_address_class(0x16)
    5659              $C$DW$T$51      .dwtag  DW_TAG_typedef, DW_AT_name("PARK_Handle")
    5660                      .dwattr $C$DW$T$51, DW_AT_type(*$C$DW$T$50)
    5661                      .dwattr $C$DW$T$51, DW_AT_language(DW_LANG_C)
    5662              
    5663              $C$DW$T$197     .dwtag  DW_TAG_structure_type
    5664                      .dwattr $C$DW$T$197, DW_AT_name("_PID_Obj_")
    5665                      .dwattr $C$DW$T$197, DW_AT_byte_size(0x10)
    5666              $C$DW$951       .dwtag  DW_TAG_member
    5667                      .dwattr $C$DW$951, DW_AT_type(*$C$DW$T$31)
    5668                      .dwattr $C$DW$951, DW_AT_name("Kp")
    5669                      .dwattr $C$DW$951, DW_AT_TI_symbol_name("_Kp")
    5670                      .dwattr $C$DW$951, DW_AT_data_member_location[DW_OP_plus_uconst 0x0]
    5671                      .dwattr $C$DW$951, DW_AT_accessibility(DW_ACCESS_public)
    5672              $C$DW$952       .dwtag  DW_TAG_member
    5673                      .dwattr $C$DW$952, DW_AT_type(*$C$DW$T$31)
    5674                      .dwattr $C$DW$952, DW_AT_name("Ki")
    5675                      .dwattr $C$DW$952, DW_AT_TI_symbol_name("_Ki")
    5676                      .dwattr $C$DW$952, DW_AT_data_member_location[DW_OP_plus_uconst 0x2]
    5677                      .dwattr $C$DW$952, DW_AT_accessibility(DW_ACCESS_public)
    5678              $C$DW$953       .dwtag  DW_TAG_member
    5679                      .dwattr $C$DW$953, DW_AT_type(*$C$DW$T$31)
    5680                      .dwattr $C$DW$953, DW_AT_name("Kd")
    5681                      .dwattr $C$DW$953, DW_AT_TI_symbol_name("_Kd")
    5682                      .dwattr $C$DW$953, DW_AT_data_member_location[DW_OP_plus_uconst 0x4]
    5683                      .dwattr $C$DW$953, DW_AT_accessibility(DW_ACCESS_public)
    5684              $C$DW$954       .dwtag  DW_TAG_member
    5685                      .dwattr $C$DW$954, DW_AT_type(*$C$DW$T$31)
    5686                      .dwattr $C$DW$954, DW_AT_name("Ui")
    5687                      .dwattr $C$DW$954, DW_AT_TI_symbol_name("_Ui")
    5688                      .dwattr $C$DW$954, DW_AT_data_member_location[DW_OP_plus_uconst 0x6]
    5689                      .dwattr $C$DW$954, DW_AT_accessibility(DW_ACCESS_public)
    5690              $C$DW$955       .dwtag  DW_TAG_member
    5691                      .dwattr $C$DW$955, DW_AT_type(*$C$DW$T$31)
    5692                      .dwattr $C$DW$955, DW_AT_name("refValue")
    5693                      .dwattr $C$DW$955, DW_AT_TI_symbol_name("_refValue")
    5694                      .dwattr $C$DW$955, DW_AT_data_member_location[DW_OP_plus_uconst 0x8]
    5695                      .dwattr $C$DW$955, DW_AT_accessibility(DW_ACCESS_public)
    5696              $C$DW$956       .dwtag  DW_TAG_member
    5697                      .dwattr $C$DW$956, DW_AT_type(*$C$DW$T$31)
    5698                      .dwattr $C$DW$956, DW_AT_name("fbackValue")
    5699                      .dwattr $C$DW$956, DW_AT_TI_symbol_name("_fbackValue")
    5700                      .dwattr $C$DW$956, DW_AT_data_member_location[DW_OP_plus_uconst 0xa]
    5701                      .dwattr $C$DW$956, DW_AT_accessibility(DW_ACCESS_public)
    5702              $C$DW$957       .dwtag  DW_TAG_member
    5703                      .dwattr $C$DW$957, DW_AT_type(*$C$DW$T$31)
    5704                      .dwattr $C$DW$957, DW_AT_name("outMin")
    5705                      .dwattr $C$DW$957, DW_AT_TI_symbol_name("_outMin")
    5706                      .dwattr $C$DW$957, DW_AT_data_member_location[DW_OP_plus_uconst 0xc]
    5707                      .dwattr $C$DW$957, DW_AT_accessibility(DW_ACCESS_public)
TMS320C2000 Assembler PC v6.2.5 Tue Nov 21 22:57:45 2017

Tools Copyright (c) 1996-2014 Texas Instruments Incorporated
C:\Users\wmj\AppData\Local\Temp\1055210                              PAGE  108

    5708              $C$DW$958       .dwtag  DW_TAG_member
    5709                      .dwattr $C$DW$958, DW_AT_type(*$C$DW$T$31)
    5710                      .dwattr $C$DW$958, DW_AT_name("outMax")
    5711                      .dwattr $C$DW$958, DW_AT_TI_symbol_name("_outMax")
    5712                      .dwattr $C$DW$958, DW_AT_data_member_location[DW_OP_plus_uconst 0xe]
    5713                      .dwattr $C$DW$958, DW_AT_accessibility(DW_ACCESS_public)
    5714                      .dwendtag $C$DW$T$197
    5715              
    5716              $C$DW$T$55      .dwtag  DW_TAG_typedef, DW_AT_name("PID_Obj")
    5717                      .dwattr $C$DW$T$55, DW_AT_type(*$C$DW$T$197)
    5718                      .dwattr $C$DW$T$55, DW_AT_language(DW_LANG_C)
    5719              $C$DW$T$53      .dwtag  DW_TAG_pointer_type
    5720                      .dwattr $C$DW$T$53, DW_AT_type(*$C$DW$T$197)
    5721                      .dwattr $C$DW$T$53, DW_AT_address_class(0x16)
    5722              $C$DW$T$54      .dwtag  DW_TAG_typedef, DW_AT_name("PID_Handle")
    5723                      .dwattr $C$DW$T$54, DW_AT_type(*$C$DW$T$53)
    5724                      .dwattr $C$DW$T$54, DW_AT_language(DW_LANG_C)
    5725              
    5726              $C$DW$T$198     .dwtag  DW_TAG_structure_type
    5727                      .dwattr $C$DW$T$198, DW_AT_name("_PIE_IERIFR_t")
    5728                      .dwattr $C$DW$T$198, DW_AT_byte_size(0x02)
    5729              $C$DW$959       .dwtag  DW_TAG_member
    5730                      .dwattr $C$DW$959, DW_AT_type(*$C$DW$T$23)
    5731                      .dwattr $C$DW$959, DW_AT_name("IER")
    5732                      .dwattr $C$DW$959, DW_AT_TI_symbol_name("_IER")
    5733                      .dwattr $C$DW$959, DW_AT_data_member_location[DW_OP_plus_uconst 0x0]
    5734                      .dwattr $C$DW$959, DW_AT_accessibility(DW_ACCESS_public)
    5735              $C$DW$960       .dwtag  DW_TAG_member
    5736                      .dwattr $C$DW$960, DW_AT_type(*$C$DW$T$23)
    5737                      .dwattr $C$DW$960, DW_AT_name("IFR")
    5738                      .dwattr $C$DW$960, DW_AT_TI_symbol_name("_IFR")
    5739                      .dwattr $C$DW$960, DW_AT_data_member_location[DW_OP_plus_uconst 0x1]
    5740                      .dwattr $C$DW$960, DW_AT_accessibility(DW_ACCESS_public)
    5741                      .dwendtag $C$DW$T$198
    5742              
    5743              $C$DW$T$199     .dwtag  DW_TAG_typedef, DW_AT_name("PIE_IERIFR_t")
    5744                      .dwattr $C$DW$T$199, DW_AT_type(*$C$DW$T$198)
    5745                      .dwattr $C$DW$T$199, DW_AT_language(DW_LANG_C)
    5746              $C$DW$961       .dwtag  DW_TAG_TI_far_type
    5747                      .dwattr $C$DW$961, DW_AT_type(*$C$DW$T$199)
    5748              $C$DW$T$200     .dwtag  DW_TAG_volatile_type
    5749                      .dwattr $C$DW$T$200, DW_AT_type(*$C$DW$961)
    5750              
    5751              $C$DW$T$201     .dwtag  DW_TAG_array_type
    5752                      .dwattr $C$DW$T$201, DW_AT_type(*$C$DW$T$200)
    5753                      .dwattr $C$DW$T$201, DW_AT_language(DW_LANG_C)
    5754                      .dwattr $C$DW$T$201, DW_AT_byte_size(0x18)
    5755              $C$DW$962       .dwtag  DW_TAG_subrange_type
    5756                      .dwattr $C$DW$962, DW_AT_upper_bound(0x0b)
    5757                      .dwendtag $C$DW$T$201
    5758              
    5759              
    5760              $C$DW$T$208     .dwtag  DW_TAG_structure_type
    5761                      .dwattr $C$DW$T$208, DW_AT_name("_PIE_Obj_")
    5762                      .dwattr $C$DW$T$208, DW_AT_byte_size(0x639c)
TMS320C2000 Assembler PC v6.2.5 Tue Nov 21 22:57:45 2017

Tools Copyright (c) 1996-2014 Texas Instruments Incorporated
C:\Users\wmj\AppData\Local\Temp\1055210                              PAGE  109

    5763              $C$DW$963       .dwtag  DW_TAG_member
    5764                      .dwattr $C$DW$963, DW_AT_type(*$C$DW$T$23)
    5765                      .dwattr $C$DW$963, DW_AT_name("PIECTRL")
    5766                      .dwattr $C$DW$963, DW_AT_TI_symbol_name("_PIECTRL")
    5767                      .dwattr $C$DW$963, DW_AT_data_member_location[DW_OP_plus_uconst 0x0]
    5768                      .dwattr $C$DW$963, DW_AT_accessibility(DW_ACCESS_public)
    5769              $C$DW$964       .dwtag  DW_TAG_member
    5770                      .dwattr $C$DW$964, DW_AT_type(*$C$DW$T$23)
    5771                      .dwattr $C$DW$964, DW_AT_name("PIEACK")
    5772                      .dwattr $C$DW$964, DW_AT_TI_symbol_name("_PIEACK")
    5773                      .dwattr $C$DW$964, DW_AT_data_member_location[DW_OP_plus_uconst 0x1]
    5774                      .dwattr $C$DW$964, DW_AT_accessibility(DW_ACCESS_public)
    5775              $C$DW$965       .dwtag  DW_TAG_member
    5776                      .dwattr $C$DW$965, DW_AT_type(*$C$DW$T$201)
    5777                      .dwattr $C$DW$965, DW_AT_name("PIEIER_PIEIFR")
    5778                      .dwattr $C$DW$965, DW_AT_TI_symbol_name("_PIEIER_PIEIFR")
    5779                      .dwattr $C$DW$965, DW_AT_data_member_location[DW_OP_plus_uconst 0x2]
    5780                      .dwattr $C$DW$965, DW_AT_accessibility(DW_ACCESS_public)
    5781              $C$DW$966       .dwtag  DW_TAG_member
    5782                      .dwattr $C$DW$966, DW_AT_type(*$C$DW$T$202)
    5783                      .dwattr $C$DW$966, DW_AT_name("rsvd_1")
    5784                      .dwattr $C$DW$966, DW_AT_TI_symbol_name("_rsvd_1")
    5785                      .dwattr $C$DW$966, DW_AT_data_member_location[DW_OP_plus_uconst 0x1a]
    5786                      .dwattr $C$DW$966, DW_AT_accessibility(DW_ACCESS_public)
    5787              $C$DW$967       .dwtag  DW_TAG_member
    5788                      .dwattr $C$DW$967, DW_AT_type(*$C$DW$T$206)
    5789                      .dwattr $C$DW$967, DW_AT_name("Reset")
    5790                      .dwattr $C$DW$967, DW_AT_TI_symbol_name("_Reset")
    5791                      .dwattr $C$DW$967, DW_AT_data_member_location[DW_OP_plus_uconst 0x20]
    5792                      .dwattr $C$DW$967, DW_AT_accessibility(DW_ACCESS_public)
    5793              $C$DW$968       .dwtag  DW_TAG_member
    5794                      .dwattr $C$DW$968, DW_AT_type(*$C$DW$T$206)
    5795                      .dwattr $C$DW$968, DW_AT_name("INT1")
    5796                      .dwattr $C$DW$968, DW_AT_TI_symbol_name("_INT1")
    5797                      .dwattr $C$DW$968, DW_AT_data_member_location[DW_OP_plus_uconst 0x22]
    5798                      .dwattr $C$DW$968, DW_AT_accessibility(DW_ACCESS_public)
    5799              $C$DW$969       .dwtag  DW_TAG_member
    5800                      .dwattr $C$DW$969, DW_AT_type(*$C$DW$T$206)
    5801                      .dwattr $C$DW$969, DW_AT_name("INT2")
    5802                      .dwattr $C$DW$969, DW_AT_TI_symbol_name("_INT2")
    5803                      .dwattr $C$DW$969, DW_AT_data_member_location[DW_OP_plus_uconst 0x24]
    5804                      .dwattr $C$DW$969, DW_AT_accessibility(DW_ACCESS_public)
    5805              $C$DW$970       .dwtag  DW_TAG_member
    5806                      .dwattr $C$DW$970, DW_AT_type(*$C$DW$T$206)
    5807                      .dwattr $C$DW$970, DW_AT_name("INT3")
    5808                      .dwattr $C$DW$970, DW_AT_TI_symbol_name("_INT3")
    5809                      .dwattr $C$DW$970, DW_AT_data_member_location[DW_OP_plus_uconst 0x26]
    5810                      .dwattr $C$DW$970, DW_AT_accessibility(DW_ACCESS_public)
    5811              $C$DW$971       .dwtag  DW_TAG_member
    5812                      .dwattr $C$DW$971, DW_AT_type(*$C$DW$T$206)
    5813                      .dwattr $C$DW$971, DW_AT_name("INT4")
    5814                      .dwattr $C$DW$971, DW_AT_TI_symbol_name("_INT4")
    5815                      .dwattr $C$DW$971, DW_AT_data_member_location[DW_OP_plus_uconst 0x28]
    5816                      .dwattr $C$DW$971, DW_AT_accessibility(DW_ACCESS_public)
    5817              $C$DW$972       .dwtag  DW_TAG_member
TMS320C2000 Assembler PC v6.2.5 Tue Nov 21 22:57:45 2017

Tools Copyright (c) 1996-2014 Texas Instruments Incorporated
C:\Users\wmj\AppData\Local\Temp\1055210                              PAGE  110

    5818                      .dwattr $C$DW$972, DW_AT_type(*$C$DW$T$206)
    5819                      .dwattr $C$DW$972, DW_AT_name("INT5")
    5820                      .dwattr $C$DW$972, DW_AT_TI_symbol_name("_INT5")
    5821                      .dwattr $C$DW$972, DW_AT_data_member_location[DW_OP_plus_uconst 0x2a]
    5822                      .dwattr $C$DW$972, DW_AT_accessibility(DW_ACCESS_public)
    5823              $C$DW$973       .dwtag  DW_TAG_member
    5824                      .dwattr $C$DW$973, DW_AT_type(*$C$DW$T$206)
    5825                      .dwattr $C$DW$973, DW_AT_name("INT6")
    5826                      .dwattr $C$DW$973, DW_AT_TI_symbol_name("_INT6")
    5827                      .dwattr $C$DW$973, DW_AT_data_member_location[DW_OP_plus_uconst 0x2c]
    5828                      .dwattr $C$DW$973, DW_AT_accessibility(DW_ACCESS_public)
    5829              $C$DW$974       .dwtag  DW_TAG_member
    5830                      .dwattr $C$DW$974, DW_AT_type(*$C$DW$T$206)
    5831                      .dwattr $C$DW$974, DW_AT_name("INT7")
    5832                      .dwattr $C$DW$974, DW_AT_TI_symbol_name("_INT7")
    5833                      .dwattr $C$DW$974, DW_AT_data_member_location[DW_OP_plus_uconst 0x2e]
    5834                      .dwattr $C$DW$974, DW_AT_accessibility(DW_ACCESS_public)
    5835              $C$DW$975       .dwtag  DW_TAG_member
    5836                      .dwattr $C$DW$975, DW_AT_type(*$C$DW$T$206)
    5837                      .dwattr $C$DW$975, DW_AT_name("INT8")
    5838                      .dwattr $C$DW$975, DW_AT_TI_symbol_name("_INT8")
    5839                      .dwattr $C$DW$975, DW_AT_data_member_location[DW_OP_plus_uconst 0x30]
    5840                      .dwattr $C$DW$975, DW_AT_accessibility(DW_ACCESS_public)
    5841              $C$DW$976       .dwtag  DW_TAG_member
    5842                      .dwattr $C$DW$976, DW_AT_type(*$C$DW$T$206)
    5843                      .dwattr $C$DW$976, DW_AT_name("INT9")
    5844                      .dwattr $C$DW$976, DW_AT_TI_symbol_name("_INT9")
    5845                      .dwattr $C$DW$976, DW_AT_data_member_location[DW_OP_plus_uconst 0x32]
    5846                      .dwattr $C$DW$976, DW_AT_accessibility(DW_ACCESS_public)
    5847              $C$DW$977       .dwtag  DW_TAG_member
    5848                      .dwattr $C$DW$977, DW_AT_type(*$C$DW$T$206)
    5849                      .dwattr $C$DW$977, DW_AT_name("INT10")
    5850                      .dwattr $C$DW$977, DW_AT_TI_symbol_name("_INT10")
    5851                      .dwattr $C$DW$977, DW_AT_data_member_location[DW_OP_plus_uconst 0x34]
    5852                      .dwattr $C$DW$977, DW_AT_accessibility(DW_ACCESS_public)
    5853              $C$DW$978       .dwtag  DW_TAG_member
    5854                      .dwattr $C$DW$978, DW_AT_type(*$C$DW$T$206)
    5855                      .dwattr $C$DW$978, DW_AT_name("INT11")
    5856                      .dwattr $C$DW$978, DW_AT_TI_symbol_name("_INT11")
    5857                      .dwattr $C$DW$978, DW_AT_data_member_location[DW_OP_plus_uconst 0x36]
    5858                      .dwattr $C$DW$978, DW_AT_accessibility(DW_ACCESS_public)
    5859              $C$DW$979       .dwtag  DW_TAG_member
    5860                      .dwattr $C$DW$979, DW_AT_type(*$C$DW$T$206)
    5861                      .dwattr $C$DW$979, DW_AT_name("INT12")
    5862                      .dwattr $C$DW$979, DW_AT_TI_symbol_name("_INT12")
    5863                      .dwattr $C$DW$979, DW_AT_data_member_location[DW_OP_plus_uconst 0x38]
    5864                      .dwattr $C$DW$979, DW_AT_accessibility(DW_ACCESS_public)
    5865              $C$DW$980       .dwtag  DW_TAG_member
    5866                      .dwattr $C$DW$980, DW_AT_type(*$C$DW$T$206)
    5867                      .dwattr $C$DW$980, DW_AT_name("TINT1")
    5868                      .dwattr $C$DW$980, DW_AT_TI_symbol_name("_TINT1")
    5869                      .dwattr $C$DW$980, DW_AT_data_member_location[DW_OP_plus_uconst 0x3a]
    5870                      .dwattr $C$DW$980, DW_AT_accessibility(DW_ACCESS_public)
    5871              $C$DW$981       .dwtag  DW_TAG_member
    5872                      .dwattr $C$DW$981, DW_AT_type(*$C$DW$T$206)
TMS320C2000 Assembler PC v6.2.5 Tue Nov 21 22:57:45 2017

Tools Copyright (c) 1996-2014 Texas Instruments Incorporated
C:\Users\wmj\AppData\Local\Temp\1055210                              PAGE  111

    5873                      .dwattr $C$DW$981, DW_AT_name("TINT2")
    5874                      .dwattr $C$DW$981, DW_AT_TI_symbol_name("_TINT2")
    5875                      .dwattr $C$DW$981, DW_AT_data_member_location[DW_OP_plus_uconst 0x3c]
    5876                      .dwattr $C$DW$981, DW_AT_accessibility(DW_ACCESS_public)
    5877              $C$DW$982       .dwtag  DW_TAG_member
    5878                      .dwattr $C$DW$982, DW_AT_type(*$C$DW$T$206)
    5879                      .dwattr $C$DW$982, DW_AT_name("DATALOG")
    5880                      .dwattr $C$DW$982, DW_AT_TI_symbol_name("_DATALOG")
    5881                      .dwattr $C$DW$982, DW_AT_data_member_location[DW_OP_plus_uconst 0x3e]
    5882                      .dwattr $C$DW$982, DW_AT_accessibility(DW_ACCESS_public)
    5883              $C$DW$983       .dwtag  DW_TAG_member
    5884                      .dwattr $C$DW$983, DW_AT_type(*$C$DW$T$206)
    5885                      .dwattr $C$DW$983, DW_AT_name("RTOSINT")
    5886                      .dwattr $C$DW$983, DW_AT_TI_symbol_name("_RTOSINT")
    5887                      .dwattr $C$DW$983, DW_AT_data_member_location[DW_OP_plus_uconst 0x40]
    5888                      .dwattr $C$DW$983, DW_AT_accessibility(DW_ACCESS_public)
    5889              $C$DW$984       .dwtag  DW_TAG_member
    5890                      .dwattr $C$DW$984, DW_AT_type(*$C$DW$T$206)
    5891                      .dwattr $C$DW$984, DW_AT_name("EMUINT")
    5892                      .dwattr $C$DW$984, DW_AT_TI_symbol_name("_EMUINT")
    5893                      .dwattr $C$DW$984, DW_AT_data_member_location[DW_OP_plus_uconst 0x42]
    5894                      .dwattr $C$DW$984, DW_AT_accessibility(DW_ACCESS_public)
    5895              $C$DW$985       .dwtag  DW_TAG_member
    5896                      .dwattr $C$DW$985, DW_AT_type(*$C$DW$T$206)
    5897                      .dwattr $C$DW$985, DW_AT_name("NMI")
    5898                      .dwattr $C$DW$985, DW_AT_TI_symbol_name("_NMI")
    5899                      .dwattr $C$DW$985, DW_AT_data_member_location[DW_OP_plus_uconst 0x44]
    5900                      .dwattr $C$DW$985, DW_AT_accessibility(DW_ACCESS_public)
    5901              $C$DW$986       .dwtag  DW_TAG_member
    5902                      .dwattr $C$DW$986, DW_AT_type(*$C$DW$T$206)
    5903                      .dwattr $C$DW$986, DW_AT_name("ILLEGAL")
    5904                      .dwattr $C$DW$986, DW_AT_TI_symbol_name("_ILLEGAL")
    5905                      .dwattr $C$DW$986, DW_AT_data_member_location[DW_OP_plus_uconst 0x46]
    5906                      .dwattr $C$DW$986, DW_AT_accessibility(DW_ACCESS_public)
    5907              $C$DW$987       .dwtag  DW_TAG_member
    5908                      .dwattr $C$DW$987, DW_AT_type(*$C$DW$T$206)
    5909                      .dwattr $C$DW$987, DW_AT_name("USER1")
    5910                      .dwattr $C$DW$987, DW_AT_TI_symbol_name("_USER1")
    5911                      .dwattr $C$DW$987, DW_AT_data_member_location[DW_OP_plus_uconst 0x48]
    5912                      .dwattr $C$DW$987, DW_AT_accessibility(DW_ACCESS_public)
    5913              $C$DW$988       .dwtag  DW_TAG_member
    5914                      .dwattr $C$DW$988, DW_AT_type(*$C$DW$T$206)
    5915                      .dwattr $C$DW$988, DW_AT_name("USER2")
    5916                      .dwattr $C$DW$988, DW_AT_TI_symbol_name("_USER2")
    5917                      .dwattr $C$DW$988, DW_AT_data_member_location[DW_OP_plus_uconst 0x4a]
    5918                      .dwattr $C$DW$988, DW_AT_accessibility(DW_ACCESS_public)
    5919              $C$DW$989       .dwtag  DW_TAG_member
    5920                      .dwattr $C$DW$989, DW_AT_type(*$C$DW$T$206)
    5921                      .dwattr $C$DW$989, DW_AT_name("USER3")
    5922                      .dwattr $C$DW$989, DW_AT_TI_symbol_name("_USER3")
    5923                      .dwattr $C$DW$989, DW_AT_data_member_location[DW_OP_plus_uconst 0x4c]
    5924                      .dwattr $C$DW$989, DW_AT_accessibility(DW_ACCESS_public)
    5925              $C$DW$990       .dwtag  DW_TAG_member
    5926                      .dwattr $C$DW$990, DW_AT_type(*$C$DW$T$206)
    5927                      .dwattr $C$DW$990, DW_AT_name("USER4")
TMS320C2000 Assembler PC v6.2.5 Tue Nov 21 22:57:45 2017

Tools Copyright (c) 1996-2014 Texas Instruments Incorporated
C:\Users\wmj\AppData\Local\Temp\1055210                              PAGE  112

    5928                      .dwattr $C$DW$990, DW_AT_TI_symbol_name("_USER4")
    5929                      .dwattr $C$DW$990, DW_AT_data_member_location[DW_OP_plus_uconst 0x4e]
    5930                      .dwattr $C$DW$990, DW_AT_accessibility(DW_ACCESS_public)
    5931              $C$DW$991       .dwtag  DW_TAG_member
    5932                      .dwattr $C$DW$991, DW_AT_type(*$C$DW$T$206)
    5933                      .dwattr $C$DW$991, DW_AT_name("USER5")
    5934                      .dwattr $C$DW$991, DW_AT_TI_symbol_name("_USER5")
    5935                      .dwattr $C$DW$991, DW_AT_data_member_location[DW_OP_plus_uconst 0x50]
    5936                      .dwattr $C$DW$991, DW_AT_accessibility(DW_ACCESS_public)
    5937              $C$DW$992       .dwtag  DW_TAG_member
    5938                      .dwattr $C$DW$992, DW_AT_type(*$C$DW$T$206)
    5939                      .dwattr $C$DW$992, DW_AT_name("USER6")
    5940                      .dwattr $C$DW$992, DW_AT_TI_symbol_name("_USER6")
    5941                      .dwattr $C$DW$992, DW_AT_data_member_location[DW_OP_plus_uconst 0x52]
    5942                      .dwattr $C$DW$992, DW_AT_accessibility(DW_ACCESS_public)
    5943              $C$DW$993       .dwtag  DW_TAG_member
    5944                      .dwattr $C$DW$993, DW_AT_type(*$C$DW$T$206)
    5945                      .dwattr $C$DW$993, DW_AT_name("USER7")
    5946                      .dwattr $C$DW$993, DW_AT_TI_symbol_name("_USER7")
    5947                      .dwattr $C$DW$993, DW_AT_data_member_location[DW_OP_plus_uconst 0x54]
    5948                      .dwattr $C$DW$993, DW_AT_accessibility(DW_ACCESS_public)
    5949              $C$DW$994       .dwtag  DW_TAG_member
    5950                      .dwattr $C$DW$994, DW_AT_type(*$C$DW$T$206)
    5951                      .dwattr $C$DW$994, DW_AT_name("USER8")
    5952                      .dwattr $C$DW$994, DW_AT_TI_symbol_name("_USER8")
    5953                      .dwattr $C$DW$994, DW_AT_data_member_location[DW_OP_plus_uconst 0x56]
    5954                      .dwattr $C$DW$994, DW_AT_accessibility(DW_ACCESS_public)
    5955              $C$DW$995       .dwtag  DW_TAG_member
    5956                      .dwattr $C$DW$995, DW_AT_type(*$C$DW$T$206)
    5957                      .dwattr $C$DW$995, DW_AT_name("USER9")
    5958                      .dwattr $C$DW$995, DW_AT_TI_symbol_name("_USER9")
    5959                      .dwattr $C$DW$995, DW_AT_data_member_location[DW_OP_plus_uconst 0x58]
    5960                      .dwattr $C$DW$995, DW_AT_accessibility(DW_ACCESS_public)
    5961              $C$DW$996       .dwtag  DW_TAG_member
    5962                      .dwattr $C$DW$996, DW_AT_type(*$C$DW$T$206)
    5963                      .dwattr $C$DW$996, DW_AT_name("USER10")
    5964                      .dwattr $C$DW$996, DW_AT_TI_symbol_name("_USER10")
    5965                      .dwattr $C$DW$996, DW_AT_data_member_location[DW_OP_plus_uconst 0x5a]
    5966                      .dwattr $C$DW$996, DW_AT_accessibility(DW_ACCESS_public)
    5967              $C$DW$997       .dwtag  DW_TAG_member
    5968                      .dwattr $C$DW$997, DW_AT_type(*$C$DW$T$206)
    5969                      .dwattr $C$DW$997, DW_AT_name("USER11")
    5970                      .dwattr $C$DW$997, DW_AT_TI_symbol_name("_USER11")
    5971                      .dwattr $C$DW$997, DW_AT_data_member_location[DW_OP_plus_uconst 0x5c]
    5972                      .dwattr $C$DW$997, DW_AT_accessibility(DW_ACCESS_public)
    5973              $C$DW$998       .dwtag  DW_TAG_member
    5974                      .dwattr $C$DW$998, DW_AT_type(*$C$DW$T$206)
    5975                      .dwattr $C$DW$998, DW_AT_name("USER12")
    5976                      .dwattr $C$DW$998, DW_AT_TI_symbol_name("_USER12")
    5977                      .dwattr $C$DW$998, DW_AT_data_member_location[DW_OP_plus_uconst 0x5e]
    5978                      .dwattr $C$DW$998, DW_AT_accessibility(DW_ACCESS_public)
    5979              $C$DW$999       .dwtag  DW_TAG_member
    5980                      .dwattr $C$DW$999, DW_AT_type(*$C$DW$T$206)
    5981                      .dwattr $C$DW$999, DW_AT_name("ADCINT1_HP")
    5982                      .dwattr $C$DW$999, DW_AT_TI_symbol_name("_ADCINT1_HP")
TMS320C2000 Assembler PC v6.2.5 Tue Nov 21 22:57:45 2017

Tools Copyright (c) 1996-2014 Texas Instruments Incorporated
C:\Users\wmj\AppData\Local\Temp\1055210                              PAGE  113

    5983                      .dwattr $C$DW$999, DW_AT_data_member_location[DW_OP_plus_uconst 0x60]
    5984                      .dwattr $C$DW$999, DW_AT_accessibility(DW_ACCESS_public)
    5985              $C$DW$1000      .dwtag  DW_TAG_member
    5986                      .dwattr $C$DW$1000, DW_AT_type(*$C$DW$T$206)
    5987                      .dwattr $C$DW$1000, DW_AT_name("ADCINT2_HP")
    5988                      .dwattr $C$DW$1000, DW_AT_TI_symbol_name("_ADCINT2_HP")
    5989                      .dwattr $C$DW$1000, DW_AT_data_member_location[DW_OP_plus_uconst 0x62]
    5990                      .dwattr $C$DW$1000, DW_AT_accessibility(DW_ACCESS_public)
    5991              $C$DW$1001      .dwtag  DW_TAG_member
    5992                      .dwattr $C$DW$1001, DW_AT_type(*$C$DW$T$206)
    5993                      .dwattr $C$DW$1001, DW_AT_name("rsvd1_3")
    5994                      .dwattr $C$DW$1001, DW_AT_TI_symbol_name("_rsvd1_3")
    5995                      .dwattr $C$DW$1001, DW_AT_data_member_location[DW_OP_plus_uconst 0x64]
    5996                      .dwattr $C$DW$1001, DW_AT_accessibility(DW_ACCESS_public)
    5997              $C$DW$1002      .dwtag  DW_TAG_member
    5998                      .dwattr $C$DW$1002, DW_AT_type(*$C$DW$T$206)
    5999                      .dwattr $C$DW$1002, DW_AT_name("XINT1")
    6000                      .dwattr $C$DW$1002, DW_AT_TI_symbol_name("_XINT1")
    6001                      .dwattr $C$DW$1002, DW_AT_data_member_location[DW_OP_plus_uconst 0x66]
    6002                      .dwattr $C$DW$1002, DW_AT_accessibility(DW_ACCESS_public)
    6003              $C$DW$1003      .dwtag  DW_TAG_member
    6004                      .dwattr $C$DW$1003, DW_AT_type(*$C$DW$T$206)
    6005                      .dwattr $C$DW$1003, DW_AT_name("XINT2")
    6006                      .dwattr $C$DW$1003, DW_AT_TI_symbol_name("_XINT2")
    6007                      .dwattr $C$DW$1003, DW_AT_data_member_location[DW_OP_plus_uconst 0x68]
    6008                      .dwattr $C$DW$1003, DW_AT_accessibility(DW_ACCESS_public)
    6009              $C$DW$1004      .dwtag  DW_TAG_member
    6010                      .dwattr $C$DW$1004, DW_AT_type(*$C$DW$T$206)
    6011                      .dwattr $C$DW$1004, DW_AT_name("ADCINT9")
    6012                      .dwattr $C$DW$1004, DW_AT_TI_symbol_name("_ADCINT9")
    6013                      .dwattr $C$DW$1004, DW_AT_data_member_location[DW_OP_plus_uconst 0x6a]
    6014                      .dwattr $C$DW$1004, DW_AT_accessibility(DW_ACCESS_public)
    6015              $C$DW$1005      .dwtag  DW_TAG_member
    6016                      .dwattr $C$DW$1005, DW_AT_type(*$C$DW$T$206)
    6017                      .dwattr $C$DW$1005, DW_AT_name("TINT0")
    6018                      .dwattr $C$DW$1005, DW_AT_TI_symbol_name("_TINT0")
    6019                      .dwattr $C$DW$1005, DW_AT_data_member_location[DW_OP_plus_uconst 0x6c]
    6020                      .dwattr $C$DW$1005, DW_AT_accessibility(DW_ACCESS_public)
    6021              $C$DW$1006      .dwtag  DW_TAG_member
    6022                      .dwattr $C$DW$1006, DW_AT_type(*$C$DW$T$206)
    6023                      .dwattr $C$DW$1006, DW_AT_name("WAKEINT")
    6024                      .dwattr $C$DW$1006, DW_AT_TI_symbol_name("_WAKEINT")
    6025                      .dwattr $C$DW$1006, DW_AT_data_member_location[DW_OP_plus_uconst 0x6e]
    6026                      .dwattr $C$DW$1006, DW_AT_accessibility(DW_ACCESS_public)
    6027              $C$DW$1007      .dwtag  DW_TAG_member
    6028                      .dwattr $C$DW$1007, DW_AT_type(*$C$DW$T$206)
    6029                      .dwattr $C$DW$1007, DW_AT_name("EPWM1_TZINT")
    6030                      .dwattr $C$DW$1007, DW_AT_TI_symbol_name("_EPWM1_TZINT")
    6031                      .dwattr $C$DW$1007, DW_AT_data_member_location[DW_OP_plus_uconst 0x70]
    6032                      .dwattr $C$DW$1007, DW_AT_accessibility(DW_ACCESS_public)
    6033              $C$DW$1008      .dwtag  DW_TAG_member
    6034                      .dwattr $C$DW$1008, DW_AT_type(*$C$DW$T$206)
    6035                      .dwattr $C$DW$1008, DW_AT_name("EPWM2_TZINT")
    6036                      .dwattr $C$DW$1008, DW_AT_TI_symbol_name("_EPWM2_TZINT")
    6037                      .dwattr $C$DW$1008, DW_AT_data_member_location[DW_OP_plus_uconst 0x72]
TMS320C2000 Assembler PC v6.2.5 Tue Nov 21 22:57:45 2017

Tools Copyright (c) 1996-2014 Texas Instruments Incorporated
C:\Users\wmj\AppData\Local\Temp\1055210                              PAGE  114

    6038                      .dwattr $C$DW$1008, DW_AT_accessibility(DW_ACCESS_public)
    6039              $C$DW$1009      .dwtag  DW_TAG_member
    6040                      .dwattr $C$DW$1009, DW_AT_type(*$C$DW$T$206)
    6041                      .dwattr $C$DW$1009, DW_AT_name("EPWM3_TZINT")
    6042                      .dwattr $C$DW$1009, DW_AT_TI_symbol_name("_EPWM3_TZINT")
    6043                      .dwattr $C$DW$1009, DW_AT_data_member_location[DW_OP_plus_uconst 0x74]
    6044                      .dwattr $C$DW$1009, DW_AT_accessibility(DW_ACCESS_public)
    6045              $C$DW$1010      .dwtag  DW_TAG_member
    6046                      .dwattr $C$DW$1010, DW_AT_type(*$C$DW$T$206)
    6047                      .dwattr $C$DW$1010, DW_AT_name("EPWM4_TZINT")
    6048                      .dwattr $C$DW$1010, DW_AT_TI_symbol_name("_EPWM4_TZINT")
    6049                      .dwattr $C$DW$1010, DW_AT_data_member_location[DW_OP_plus_uconst 0x76]
    6050                      .dwattr $C$DW$1010, DW_AT_accessibility(DW_ACCESS_public)
    6051              $C$DW$1011      .dwtag  DW_TAG_member
    6052                      .dwattr $C$DW$1011, DW_AT_type(*$C$DW$T$206)
    6053                      .dwattr $C$DW$1011, DW_AT_name("rsvd2_5")
    6054                      .dwattr $C$DW$1011, DW_AT_TI_symbol_name("_rsvd2_5")
    6055                      .dwattr $C$DW$1011, DW_AT_data_member_location[DW_OP_plus_uconst 0x78]
    6056                      .dwattr $C$DW$1011, DW_AT_accessibility(DW_ACCESS_public)
    6057              $C$DW$1012      .dwtag  DW_TAG_member
    6058                      .dwattr $C$DW$1012, DW_AT_type(*$C$DW$T$206)
    6059                      .dwattr $C$DW$1012, DW_AT_name("rsvd2_6")
    6060                      .dwattr $C$DW$1012, DW_AT_TI_symbol_name("_rsvd2_6")
    6061                      .dwattr $C$DW$1012, DW_AT_data_member_location[DW_OP_plus_uconst 0x7a]
    6062                      .dwattr $C$DW$1012, DW_AT_accessibility(DW_ACCESS_public)
    6063              $C$DW$1013      .dwtag  DW_TAG_member
    6064                      .dwattr $C$DW$1013, DW_AT_type(*$C$DW$T$206)
    6065                      .dwattr $C$DW$1013, DW_AT_name("rsvd2_7")
    6066                      .dwattr $C$DW$1013, DW_AT_TI_symbol_name("_rsvd2_7")
    6067                      .dwattr $C$DW$1013, DW_AT_data_member_location[DW_OP_plus_uconst 0x7c]
    6068                      .dwattr $C$DW$1013, DW_AT_accessibility(DW_ACCESS_public)
    6069              $C$DW$1014      .dwtag  DW_TAG_member
    6070                      .dwattr $C$DW$1014, DW_AT_type(*$C$DW$T$206)
    6071                      .dwattr $C$DW$1014, DW_AT_name("rsvd2_8")
    6072                      .dwattr $C$DW$1014, DW_AT_TI_symbol_name("_rsvd2_8")
    6073                      .dwattr $C$DW$1014, DW_AT_data_member_location[DW_OP_plus_uconst 0x7e]
    6074                      .dwattr $C$DW$1014, DW_AT_accessibility(DW_ACCESS_public)
    6075              $C$DW$1015      .dwtag  DW_TAG_member
    6076                      .dwattr $C$DW$1015, DW_AT_type(*$C$DW$T$206)
    6077                      .dwattr $C$DW$1015, DW_AT_name("EPWM1_INT")
    6078                      .dwattr $C$DW$1015, DW_AT_TI_symbol_name("_EPWM1_INT")
    6079                      .dwattr $C$DW$1015, DW_AT_data_member_location[DW_OP_plus_uconst 0x80]
    6080                      .dwattr $C$DW$1015, DW_AT_accessibility(DW_ACCESS_public)
    6081              $C$DW$1016      .dwtag  DW_TAG_member
    6082                      .dwattr $C$DW$1016, DW_AT_type(*$C$DW$T$206)
    6083                      .dwattr $C$DW$1016, DW_AT_name("EPWM2_INT")
    6084                      .dwattr $C$DW$1016, DW_AT_TI_symbol_name("_EPWM2_INT")
    6085                      .dwattr $C$DW$1016, DW_AT_data_member_location[DW_OP_plus_uconst 0x82]
    6086                      .dwattr $C$DW$1016, DW_AT_accessibility(DW_ACCESS_public)
    6087              $C$DW$1017      .dwtag  DW_TAG_member
    6088                      .dwattr $C$DW$1017, DW_AT_type(*$C$DW$T$206)
    6089                      .dwattr $C$DW$1017, DW_AT_name("EPWM3_INT")
    6090                      .dwattr $C$DW$1017, DW_AT_TI_symbol_name("_EPWM3_INT")
    6091                      .dwattr $C$DW$1017, DW_AT_data_member_location[DW_OP_plus_uconst 0x84]
    6092                      .dwattr $C$DW$1017, DW_AT_accessibility(DW_ACCESS_public)
TMS320C2000 Assembler PC v6.2.5 Tue Nov 21 22:57:45 2017

Tools Copyright (c) 1996-2014 Texas Instruments Incorporated
C:\Users\wmj\AppData\Local\Temp\1055210                              PAGE  115

    6093              $C$DW$1018      .dwtag  DW_TAG_member
    6094                      .dwattr $C$DW$1018, DW_AT_type(*$C$DW$T$206)
    6095                      .dwattr $C$DW$1018, DW_AT_name("EPWM4_INT")
    6096                      .dwattr $C$DW$1018, DW_AT_TI_symbol_name("_EPWM4_INT")
    6097                      .dwattr $C$DW$1018, DW_AT_data_member_location[DW_OP_plus_uconst 0x86]
    6098                      .dwattr $C$DW$1018, DW_AT_accessibility(DW_ACCESS_public)
    6099              $C$DW$1019      .dwtag  DW_TAG_member
    6100                      .dwattr $C$DW$1019, DW_AT_type(*$C$DW$T$206)
    6101                      .dwattr $C$DW$1019, DW_AT_name("rsvd3_5")
    6102                      .dwattr $C$DW$1019, DW_AT_TI_symbol_name("_rsvd3_5")
    6103                      .dwattr $C$DW$1019, DW_AT_data_member_location[DW_OP_plus_uconst 0x88]
    6104                      .dwattr $C$DW$1019, DW_AT_accessibility(DW_ACCESS_public)
    6105              $C$DW$1020      .dwtag  DW_TAG_member
    6106                      .dwattr $C$DW$1020, DW_AT_type(*$C$DW$T$206)
    6107                      .dwattr $C$DW$1020, DW_AT_name("rsvd3_6")
    6108                      .dwattr $C$DW$1020, DW_AT_TI_symbol_name("_rsvd3_6")
    6109                      .dwattr $C$DW$1020, DW_AT_data_member_location[DW_OP_plus_uconst 0x8a]
    6110                      .dwattr $C$DW$1020, DW_AT_accessibility(DW_ACCESS_public)
    6111              $C$DW$1021      .dwtag  DW_TAG_member
    6112                      .dwattr $C$DW$1021, DW_AT_type(*$C$DW$T$206)
    6113                      .dwattr $C$DW$1021, DW_AT_name("rsvd3_7")
    6114                      .dwattr $C$DW$1021, DW_AT_TI_symbol_name("_rsvd3_7")
    6115                      .dwattr $C$DW$1021, DW_AT_data_member_location[DW_OP_plus_uconst 0x8c]
    6116                      .dwattr $C$DW$1021, DW_AT_accessibility(DW_ACCESS_public)
    6117              $C$DW$1022      .dwtag  DW_TAG_member
    6118                      .dwattr $C$DW$1022, DW_AT_type(*$C$DW$T$206)
    6119                      .dwattr $C$DW$1022, DW_AT_name("rsvd3_8")
    6120                      .dwattr $C$DW$1022, DW_AT_TI_symbol_name("_rsvd3_8")
    6121                      .dwattr $C$DW$1022, DW_AT_data_member_location[DW_OP_plus_uconst 0x8e]
    6122                      .dwattr $C$DW$1022, DW_AT_accessibility(DW_ACCESS_public)
    6123              $C$DW$1023      .dwtag  DW_TAG_member
    6124                      .dwattr $C$DW$1023, DW_AT_type(*$C$DW$T$206)
    6125                      .dwattr $C$DW$1023, DW_AT_name("ECAP1_INT")
    6126                      .dwattr $C$DW$1023, DW_AT_TI_symbol_name("_ECAP1_INT")
    6127                      .dwattr $C$DW$1023, DW_AT_data_member_location[DW_OP_plus_uconst 0x90]
    6128                      .dwattr $C$DW$1023, DW_AT_accessibility(DW_ACCESS_public)
    6129              $C$DW$1024      .dwtag  DW_TAG_member
    6130                      .dwattr $C$DW$1024, DW_AT_type(*$C$DW$T$206)
    6131                      .dwattr $C$DW$1024, DW_AT_name("rsvd4_2")
    6132                      .dwattr $C$DW$1024, DW_AT_TI_symbol_name("_rsvd4_2")
    6133                      .dwattr $C$DW$1024, DW_AT_data_member_location[DW_OP_plus_uconst 0x92]
    6134                      .dwattr $C$DW$1024, DW_AT_accessibility(DW_ACCESS_public)
    6135              $C$DW$1025      .dwtag  DW_TAG_member
    6136                      .dwattr $C$DW$1025, DW_AT_type(*$C$DW$T$206)
    6137                      .dwattr $C$DW$1025, DW_AT_name("rsvd4_3")
    6138                      .dwattr $C$DW$1025, DW_AT_TI_symbol_name("_rsvd4_3")
    6139                      .dwattr $C$DW$1025, DW_AT_data_member_location[DW_OP_plus_uconst 0x94]
    6140                      .dwattr $C$DW$1025, DW_AT_accessibility(DW_ACCESS_public)
    6141              $C$DW$1026      .dwtag  DW_TAG_member
    6142                      .dwattr $C$DW$1026, DW_AT_type(*$C$DW$T$206)
    6143                      .dwattr $C$DW$1026, DW_AT_name("rsvd4_4")
    6144                      .dwattr $C$DW$1026, DW_AT_TI_symbol_name("_rsvd4_4")
    6145                      .dwattr $C$DW$1026, DW_AT_data_member_location[DW_OP_plus_uconst 0x96]
    6146                      .dwattr $C$DW$1026, DW_AT_accessibility(DW_ACCESS_public)
    6147              $C$DW$1027      .dwtag  DW_TAG_member
TMS320C2000 Assembler PC v6.2.5 Tue Nov 21 22:57:45 2017

Tools Copyright (c) 1996-2014 Texas Instruments Incorporated
C:\Users\wmj\AppData\Local\Temp\1055210                              PAGE  116

    6148                      .dwattr $C$DW$1027, DW_AT_type(*$C$DW$T$206)
    6149                      .dwattr $C$DW$1027, DW_AT_name("rsvd4_5")
    6150                      .dwattr $C$DW$1027, DW_AT_TI_symbol_name("_rsvd4_5")
    6151                      .dwattr $C$DW$1027, DW_AT_data_member_location[DW_OP_plus_uconst 0x98]
    6152                      .dwattr $C$DW$1027, DW_AT_accessibility(DW_ACCESS_public)
    6153              $C$DW$1028      .dwtag  DW_TAG_member
    6154                      .dwattr $C$DW$1028, DW_AT_type(*$C$DW$T$206)
    6155                      .dwattr $C$DW$1028, DW_AT_name("rsvd4_6")
    6156                      .dwattr $C$DW$1028, DW_AT_TI_symbol_name("_rsvd4_6")
    6157                      .dwattr $C$DW$1028, DW_AT_data_member_location[DW_OP_plus_uconst 0x9a]
    6158                      .dwattr $C$DW$1028, DW_AT_accessibility(DW_ACCESS_public)
    6159              $C$DW$1029      .dwtag  DW_TAG_member
    6160                      .dwattr $C$DW$1029, DW_AT_type(*$C$DW$T$206)
    6161                      .dwattr $C$DW$1029, DW_AT_name("rsvd4_7")
    6162                      .dwattr $C$DW$1029, DW_AT_TI_symbol_name("_rsvd4_7")
    6163                      .dwattr $C$DW$1029, DW_AT_data_member_location[DW_OP_plus_uconst 0x9c]
    6164                      .dwattr $C$DW$1029, DW_AT_accessibility(DW_ACCESS_public)
    6165              $C$DW$1030      .dwtag  DW_TAG_member
    6166                      .dwattr $C$DW$1030, DW_AT_type(*$C$DW$T$206)
    6167                      .dwattr $C$DW$1030, DW_AT_name("rsvd4_8")
    6168                      .dwattr $C$DW$1030, DW_AT_TI_symbol_name("_rsvd4_8")
    6169                      .dwattr $C$DW$1030, DW_AT_data_member_location[DW_OP_plus_uconst 0x9e]
    6170                      .dwattr $C$DW$1030, DW_AT_accessibility(DW_ACCESS_public)
    6171              $C$DW$1031      .dwtag  DW_TAG_member
    6172                      .dwattr $C$DW$1031, DW_AT_type(*$C$DW$T$206)
    6173                      .dwattr $C$DW$1031, DW_AT_name("rsvd5_1")
    6174                      .dwattr $C$DW$1031, DW_AT_TI_symbol_name("_rsvd5_1")
    6175                      .dwattr $C$DW$1031, DW_AT_data_member_location[DW_OP_plus_uconst 0xa0]
    6176                      .dwattr $C$DW$1031, DW_AT_accessibility(DW_ACCESS_public)
    6177              $C$DW$1032      .dwtag  DW_TAG_member
    6178                      .dwattr $C$DW$1032, DW_AT_type(*$C$DW$T$206)
    6179                      .dwattr $C$DW$1032, DW_AT_name("rsvd5_2")
    6180                      .dwattr $C$DW$1032, DW_AT_TI_symbol_name("_rsvd5_2")
    6181                      .dwattr $C$DW$1032, DW_AT_data_member_location[DW_OP_plus_uconst 0xa2]
    6182                      .dwattr $C$DW$1032, DW_AT_accessibility(DW_ACCESS_public)
    6183              $C$DW$1033      .dwtag  DW_TAG_member
    6184                      .dwattr $C$DW$1033, DW_AT_type(*$C$DW$T$206)
    6185                      .dwattr $C$DW$1033, DW_AT_name("rsvd5_3")
    6186                      .dwattr $C$DW$1033, DW_AT_TI_symbol_name("_rsvd5_3")
    6187                      .dwattr $C$DW$1033, DW_AT_data_member_location[DW_OP_plus_uconst 0xa4]
    6188                      .dwattr $C$DW$1033, DW_AT_accessibility(DW_ACCESS_public)
    6189              $C$DW$1034      .dwtag  DW_TAG_member
    6190                      .dwattr $C$DW$1034, DW_AT_type(*$C$DW$T$206)
    6191                      .dwattr $C$DW$1034, DW_AT_name("rsvd5_4")
    6192                      .dwattr $C$DW$1034, DW_AT_TI_symbol_name("_rsvd5_4")
    6193                      .dwattr $C$DW$1034, DW_AT_data_member_location[DW_OP_plus_uconst 0xa6]
    6194                      .dwattr $C$DW$1034, DW_AT_accessibility(DW_ACCESS_public)
    6195              $C$DW$1035      .dwtag  DW_TAG_member
    6196                      .dwattr $C$DW$1035, DW_AT_type(*$C$DW$T$206)
    6197                      .dwattr $C$DW$1035, DW_AT_name("rsvd5_5")
    6198                      .dwattr $C$DW$1035, DW_AT_TI_symbol_name("_rsvd5_5")
    6199                      .dwattr $C$DW$1035, DW_AT_data_member_location[DW_OP_plus_uconst 0xa8]
    6200                      .dwattr $C$DW$1035, DW_AT_accessibility(DW_ACCESS_public)
    6201              $C$DW$1036      .dwtag  DW_TAG_member
    6202                      .dwattr $C$DW$1036, DW_AT_type(*$C$DW$T$206)
TMS320C2000 Assembler PC v6.2.5 Tue Nov 21 22:57:45 2017

Tools Copyright (c) 1996-2014 Texas Instruments Incorporated
C:\Users\wmj\AppData\Local\Temp\1055210                              PAGE  117

    6203                      .dwattr $C$DW$1036, DW_AT_name("rsvd5_6")
    6204                      .dwattr $C$DW$1036, DW_AT_TI_symbol_name("_rsvd5_6")
    6205                      .dwattr $C$DW$1036, DW_AT_data_member_location[DW_OP_plus_uconst 0xaa]
    6206                      .dwattr $C$DW$1036, DW_AT_accessibility(DW_ACCESS_public)
    6207              $C$DW$1037      .dwtag  DW_TAG_member
    6208                      .dwattr $C$DW$1037, DW_AT_type(*$C$DW$T$206)
    6209                      .dwattr $C$DW$1037, DW_AT_name("rsvd5_7")
    6210                      .dwattr $C$DW$1037, DW_AT_TI_symbol_name("_rsvd5_7")
    6211                      .dwattr $C$DW$1037, DW_AT_data_member_location[DW_OP_plus_uconst 0xac]
    6212                      .dwattr $C$DW$1037, DW_AT_accessibility(DW_ACCESS_public)
    6213              $C$DW$1038      .dwtag  DW_TAG_member
    6214                      .dwattr $C$DW$1038, DW_AT_type(*$C$DW$T$206)
    6215                      .dwattr $C$DW$1038, DW_AT_name("rsvd5_8")
    6216                      .dwattr $C$DW$1038, DW_AT_TI_symbol_name("_rsvd5_8")
    6217                      .dwattr $C$DW$1038, DW_AT_data_member_location[DW_OP_plus_uconst 0xae]
    6218                      .dwattr $C$DW$1038, DW_AT_accessibility(DW_ACCESS_public)
    6219              $C$DW$1039      .dwtag  DW_TAG_member
    6220                      .dwattr $C$DW$1039, DW_AT_type(*$C$DW$T$206)
    6221                      .dwattr $C$DW$1039, DW_AT_name("SPIRXINTA")
    6222                      .dwattr $C$DW$1039, DW_AT_TI_symbol_name("_SPIRXINTA")
    6223                      .dwattr $C$DW$1039, DW_AT_data_member_location[DW_OP_plus_uconst 0xb0]
    6224                      .dwattr $C$DW$1039, DW_AT_accessibility(DW_ACCESS_public)
    6225              $C$DW$1040      .dwtag  DW_TAG_member
    6226                      .dwattr $C$DW$1040, DW_AT_type(*$C$DW$T$206)
    6227                      .dwattr $C$DW$1040, DW_AT_name("SPITXINTA")
    6228                      .dwattr $C$DW$1040, DW_AT_TI_symbol_name("_SPITXINTA")
    6229                      .dwattr $C$DW$1040, DW_AT_data_member_location[DW_OP_plus_uconst 0xb2]
    6230                      .dwattr $C$DW$1040, DW_AT_accessibility(DW_ACCESS_public)
    6231              $C$DW$1041      .dwtag  DW_TAG_member
    6232                      .dwattr $C$DW$1041, DW_AT_type(*$C$DW$T$206)
    6233                      .dwattr $C$DW$1041, DW_AT_name("rsvd6_3")
    6234                      .dwattr $C$DW$1041, DW_AT_TI_symbol_name("_rsvd6_3")
    6235                      .dwattr $C$DW$1041, DW_AT_data_member_location[DW_OP_plus_uconst 0xb4]
    6236                      .dwattr $C$DW$1041, DW_AT_accessibility(DW_ACCESS_public)
    6237              $C$DW$1042      .dwtag  DW_TAG_member
    6238                      .dwattr $C$DW$1042, DW_AT_type(*$C$DW$T$206)
    6239                      .dwattr $C$DW$1042, DW_AT_name("rsvd6_4")
    6240                      .dwattr $C$DW$1042, DW_AT_TI_symbol_name("_rsvd6_4")
    6241                      .dwattr $C$DW$1042, DW_AT_data_member_location[DW_OP_plus_uconst 0xb6]
    6242                      .dwattr $C$DW$1042, DW_AT_accessibility(DW_ACCESS_public)
    6243              $C$DW$1043      .dwtag  DW_TAG_member
    6244                      .dwattr $C$DW$1043, DW_AT_type(*$C$DW$T$206)
    6245                      .dwattr $C$DW$1043, DW_AT_name("rsvd6_5")
    6246                      .dwattr $C$DW$1043, DW_AT_TI_symbol_name("_rsvd6_5")
    6247                      .dwattr $C$DW$1043, DW_AT_data_member_location[DW_OP_plus_uconst 0xb8]
    6248                      .dwattr $C$DW$1043, DW_AT_accessibility(DW_ACCESS_public)
    6249              $C$DW$1044      .dwtag  DW_TAG_member
    6250                      .dwattr $C$DW$1044, DW_AT_type(*$C$DW$T$206)
    6251                      .dwattr $C$DW$1044, DW_AT_name("rsvd6_6")
    6252                      .dwattr $C$DW$1044, DW_AT_TI_symbol_name("_rsvd6_6")
    6253                      .dwattr $C$DW$1044, DW_AT_data_member_location[DW_OP_plus_uconst 0xba]
    6254                      .dwattr $C$DW$1044, DW_AT_accessibility(DW_ACCESS_public)
    6255              $C$DW$1045      .dwtag  DW_TAG_member
    6256                      .dwattr $C$DW$1045, DW_AT_type(*$C$DW$T$206)
    6257                      .dwattr $C$DW$1045, DW_AT_name("rsvd6_7")
TMS320C2000 Assembler PC v6.2.5 Tue Nov 21 22:57:45 2017

Tools Copyright (c) 1996-2014 Texas Instruments Incorporated
C:\Users\wmj\AppData\Local\Temp\1055210                              PAGE  118

    6258                      .dwattr $C$DW$1045, DW_AT_TI_symbol_name("_rsvd6_7")
    6259                      .dwattr $C$DW$1045, DW_AT_data_member_location[DW_OP_plus_uconst 0xbc]
    6260                      .dwattr $C$DW$1045, DW_AT_accessibility(DW_ACCESS_public)
    6261              $C$DW$1046      .dwtag  DW_TAG_member
    6262                      .dwattr $C$DW$1046, DW_AT_type(*$C$DW$T$206)
    6263                      .dwattr $C$DW$1046, DW_AT_name("rsvd6_8")
    6264                      .dwattr $C$DW$1046, DW_AT_TI_symbol_name("_rsvd6_8")
    6265                      .dwattr $C$DW$1046, DW_AT_data_member_location[DW_OP_plus_uconst 0xbe]
    6266                      .dwattr $C$DW$1046, DW_AT_accessibility(DW_ACCESS_public)
    6267              $C$DW$1047      .dwtag  DW_TAG_member
    6268                      .dwattr $C$DW$1047, DW_AT_type(*$C$DW$T$206)
    6269                      .dwattr $C$DW$1047, DW_AT_name("rsvd7_1")
    6270                      .dwattr $C$DW$1047, DW_AT_TI_symbol_name("_rsvd7_1")
    6271                      .dwattr $C$DW$1047, DW_AT_data_member_location[DW_OP_plus_uconst 0xc0]
    6272                      .dwattr $C$DW$1047, DW_AT_accessibility(DW_ACCESS_public)
    6273              $C$DW$1048      .dwtag  DW_TAG_member
    6274                      .dwattr $C$DW$1048, DW_AT_type(*$C$DW$T$206)
    6275                      .dwattr $C$DW$1048, DW_AT_name("rsvd7_2")
    6276                      .dwattr $C$DW$1048, DW_AT_TI_symbol_name("_rsvd7_2")
    6277                      .dwattr $C$DW$1048, DW_AT_data_member_location[DW_OP_plus_uconst 0xc2]
    6278                      .dwattr $C$DW$1048, DW_AT_accessibility(DW_ACCESS_public)
    6279              $C$DW$1049      .dwtag  DW_TAG_member
    6280                      .dwattr $C$DW$1049, DW_AT_type(*$C$DW$T$206)
    6281                      .dwattr $C$DW$1049, DW_AT_name("rsvd7_3")
    6282                      .dwattr $C$DW$1049, DW_AT_TI_symbol_name("_rsvd7_3")
    6283                      .dwattr $C$DW$1049, DW_AT_data_member_location[DW_OP_plus_uconst 0xc4]
    6284                      .dwattr $C$DW$1049, DW_AT_accessibility(DW_ACCESS_public)
    6285              $C$DW$1050      .dwtag  DW_TAG_member
    6286                      .dwattr $C$DW$1050, DW_AT_type(*$C$DW$T$206)
    6287                      .dwattr $C$DW$1050, DW_AT_name("rsvd7_4")
    6288                      .dwattr $C$DW$1050, DW_AT_TI_symbol_name("_rsvd7_4")
    6289                      .dwattr $C$DW$1050, DW_AT_data_member_location[DW_OP_plus_uconst 0xc6]
    6290                      .dwattr $C$DW$1050, DW_AT_accessibility(DW_ACCESS_public)
    6291              $C$DW$1051      .dwtag  DW_TAG_member
    6292                      .dwattr $C$DW$1051, DW_AT_type(*$C$DW$T$206)
    6293                      .dwattr $C$DW$1051, DW_AT_name("rsvd7_5")
    6294                      .dwattr $C$DW$1051, DW_AT_TI_symbol_name("_rsvd7_5")
    6295                      .dwattr $C$DW$1051, DW_AT_data_member_location[DW_OP_plus_uconst 0xc8]
    6296                      .dwattr $C$DW$1051, DW_AT_accessibility(DW_ACCESS_public)
    6297              $C$DW$1052      .dwtag  DW_TAG_member
    6298                      .dwattr $C$DW$1052, DW_AT_type(*$C$DW$T$206)
    6299                      .dwattr $C$DW$1052, DW_AT_name("rsvd7_6")
    6300                      .dwattr $C$DW$1052, DW_AT_TI_symbol_name("_rsvd7_6")
    6301                      .dwattr $C$DW$1052, DW_AT_data_member_location[DW_OP_plus_uconst 0xca]
    6302                      .dwattr $C$DW$1052, DW_AT_accessibility(DW_ACCESS_public)
    6303              $C$DW$1053      .dwtag  DW_TAG_member
    6304                      .dwattr $C$DW$1053, DW_AT_type(*$C$DW$T$206)
    6305                      .dwattr $C$DW$1053, DW_AT_name("rsvd7_7")
    6306                      .dwattr $C$DW$1053, DW_AT_TI_symbol_name("_rsvd7_7")
    6307                      .dwattr $C$DW$1053, DW_AT_data_member_location[DW_OP_plus_uconst 0xcc]
    6308                      .dwattr $C$DW$1053, DW_AT_accessibility(DW_ACCESS_public)
    6309              $C$DW$1054      .dwtag  DW_TAG_member
    6310                      .dwattr $C$DW$1054, DW_AT_type(*$C$DW$T$206)
    6311                      .dwattr $C$DW$1054, DW_AT_name("rsvd7_8")
    6312                      .dwattr $C$DW$1054, DW_AT_TI_symbol_name("_rsvd7_8")
TMS320C2000 Assembler PC v6.2.5 Tue Nov 21 22:57:45 2017

Tools Copyright (c) 1996-2014 Texas Instruments Incorporated
C:\Users\wmj\AppData\Local\Temp\1055210                              PAGE  119

    6313                      .dwattr $C$DW$1054, DW_AT_data_member_location[DW_OP_plus_uconst 0xce]
    6314                      .dwattr $C$DW$1054, DW_AT_accessibility(DW_ACCESS_public)
    6315              $C$DW$1055      .dwtag  DW_TAG_member
    6316                      .dwattr $C$DW$1055, DW_AT_type(*$C$DW$T$206)
    6317                      .dwattr $C$DW$1055, DW_AT_name("I2CINT1A")
    6318                      .dwattr $C$DW$1055, DW_AT_TI_symbol_name("_I2CINT1A")
    6319                      .dwattr $C$DW$1055, DW_AT_data_member_location[DW_OP_plus_uconst 0xd0]
    6320                      .dwattr $C$DW$1055, DW_AT_accessibility(DW_ACCESS_public)
    6321              $C$DW$1056      .dwtag  DW_TAG_member
    6322                      .dwattr $C$DW$1056, DW_AT_type(*$C$DW$T$206)
    6323                      .dwattr $C$DW$1056, DW_AT_name("I2CINT2A")
    6324                      .dwattr $C$DW$1056, DW_AT_TI_symbol_name("_I2CINT2A")
    6325                      .dwattr $C$DW$1056, DW_AT_data_member_location[DW_OP_plus_uconst 0xd2]
    6326                      .dwattr $C$DW$1056, DW_AT_accessibility(DW_ACCESS_public)
    6327              $C$DW$1057      .dwtag  DW_TAG_member
    6328                      .dwattr $C$DW$1057, DW_AT_type(*$C$DW$T$206)
    6329                      .dwattr $C$DW$1057, DW_AT_name("rsvd8_3")
    6330                      .dwattr $C$DW$1057, DW_AT_TI_symbol_name("_rsvd8_3")
    6331                      .dwattr $C$DW$1057, DW_AT_data_member_location[DW_OP_plus_uconst 0xd4]
    6332                      .dwattr $C$DW$1057, DW_AT_accessibility(DW_ACCESS_public)
    6333              $C$DW$1058      .dwtag  DW_TAG_member
    6334                      .dwattr $C$DW$1058, DW_AT_type(*$C$DW$T$206)
    6335                      .dwattr $C$DW$1058, DW_AT_name("rsvd8_4")
    6336                      .dwattr $C$DW$1058, DW_AT_TI_symbol_name("_rsvd8_4")
    6337                      .dwattr $C$DW$1058, DW_AT_data_member_location[DW_OP_plus_uconst 0xd6]
    6338                      .dwattr $C$DW$1058, DW_AT_accessibility(DW_ACCESS_public)
    6339              $C$DW$1059      .dwtag  DW_TAG_member
    6340                      .dwattr $C$DW$1059, DW_AT_type(*$C$DW$T$206)
    6341                      .dwattr $C$DW$1059, DW_AT_name("rsvd8_5")
    6342                      .dwattr $C$DW$1059, DW_AT_TI_symbol_name("_rsvd8_5")
    6343                      .dwattr $C$DW$1059, DW_AT_data_member_location[DW_OP_plus_uconst 0xd8]
    6344                      .dwattr $C$DW$1059, DW_AT_accessibility(DW_ACCESS_public)
    6345              $C$DW$1060      .dwtag  DW_TAG_member
    6346                      .dwattr $C$DW$1060, DW_AT_type(*$C$DW$T$206)
    6347                      .dwattr $C$DW$1060, DW_AT_name("rsvd8_6")
    6348                      .dwattr $C$DW$1060, DW_AT_TI_symbol_name("_rsvd8_6")
    6349                      .dwattr $C$DW$1060, DW_AT_data_member_location[DW_OP_plus_uconst 0xda]
    6350                      .dwattr $C$DW$1060, DW_AT_accessibility(DW_ACCESS_public)
    6351              $C$DW$1061      .dwtag  DW_TAG_member
    6352                      .dwattr $C$DW$1061, DW_AT_type(*$C$DW$T$206)
    6353                      .dwattr $C$DW$1061, DW_AT_name("rsvd8_7")
    6354                      .dwattr $C$DW$1061, DW_AT_TI_symbol_name("_rsvd8_7")
    6355                      .dwattr $C$DW$1061, DW_AT_data_member_location[DW_OP_plus_uconst 0xdc]
    6356                      .dwattr $C$DW$1061, DW_AT_accessibility(DW_ACCESS_public)
    6357              $C$DW$1062      .dwtag  DW_TAG_member
    6358                      .dwattr $C$DW$1062, DW_AT_type(*$C$DW$T$206)
    6359                      .dwattr $C$DW$1062, DW_AT_name("rsvd8_8")
    6360                      .dwattr $C$DW$1062, DW_AT_TI_symbol_name("_rsvd8_8")
    6361                      .dwattr $C$DW$1062, DW_AT_data_member_location[DW_OP_plus_uconst 0xde]
    6362                      .dwattr $C$DW$1062, DW_AT_accessibility(DW_ACCESS_public)
    6363              $C$DW$1063      .dwtag  DW_TAG_member
    6364                      .dwattr $C$DW$1063, DW_AT_type(*$C$DW$T$206)
    6365                      .dwattr $C$DW$1063, DW_AT_name("SCIRXINTA")
    6366                      .dwattr $C$DW$1063, DW_AT_TI_symbol_name("_SCIRXINTA")
    6367                      .dwattr $C$DW$1063, DW_AT_data_member_location[DW_OP_plus_uconst 0xe0]
TMS320C2000 Assembler PC v6.2.5 Tue Nov 21 22:57:45 2017

Tools Copyright (c) 1996-2014 Texas Instruments Incorporated
C:\Users\wmj\AppData\Local\Temp\1055210                              PAGE  120

    6368                      .dwattr $C$DW$1063, DW_AT_accessibility(DW_ACCESS_public)
    6369              $C$DW$1064      .dwtag  DW_TAG_member
    6370                      .dwattr $C$DW$1064, DW_AT_type(*$C$DW$T$206)
    6371                      .dwattr $C$DW$1064, DW_AT_name("SCITXINTA")
    6372                      .dwattr $C$DW$1064, DW_AT_TI_symbol_name("_SCITXINTA")
    6373                      .dwattr $C$DW$1064, DW_AT_data_member_location[DW_OP_plus_uconst 0xe2]
    6374                      .dwattr $C$DW$1064, DW_AT_accessibility(DW_ACCESS_public)
    6375              $C$DW$1065      .dwtag  DW_TAG_member
    6376                      .dwattr $C$DW$1065, DW_AT_type(*$C$DW$T$206)
    6377                      .dwattr $C$DW$1065, DW_AT_name("rsvd9_3")
    6378                      .dwattr $C$DW$1065, DW_AT_TI_symbol_name("_rsvd9_3")
    6379                      .dwattr $C$DW$1065, DW_AT_data_member_location[DW_OP_plus_uconst 0xe4]
    6380                      .dwattr $C$DW$1065, DW_AT_accessibility(DW_ACCESS_public)
    6381              $C$DW$1066      .dwtag  DW_TAG_member
    6382                      .dwattr $C$DW$1066, DW_AT_type(*$C$DW$T$206)
    6383                      .dwattr $C$DW$1066, DW_AT_name("rsvd9_4")
    6384                      .dwattr $C$DW$1066, DW_AT_TI_symbol_name("_rsvd9_4")
    6385                      .dwattr $C$DW$1066, DW_AT_data_member_location[DW_OP_plus_uconst 0xe6]
    6386                      .dwattr $C$DW$1066, DW_AT_accessibility(DW_ACCESS_public)
    6387              $C$DW$1067      .dwtag  DW_TAG_member
    6388                      .dwattr $C$DW$1067, DW_AT_type(*$C$DW$T$206)
    6389                      .dwattr $C$DW$1067, DW_AT_name("rsvd9_5")
    6390                      .dwattr $C$DW$1067, DW_AT_TI_symbol_name("_rsvd9_5")
    6391                      .dwattr $C$DW$1067, DW_AT_data_member_location[DW_OP_plus_uconst 0xe8]
    6392                      .dwattr $C$DW$1067, DW_AT_accessibility(DW_ACCESS_public)
    6393              $C$DW$1068      .dwtag  DW_TAG_member
    6394                      .dwattr $C$DW$1068, DW_AT_type(*$C$DW$T$206)
    6395                      .dwattr $C$DW$1068, DW_AT_name("rsvd9_6")
    6396                      .dwattr $C$DW$1068, DW_AT_TI_symbol_name("_rsvd9_6")
    6397                      .dwattr $C$DW$1068, DW_AT_data_member_location[DW_OP_plus_uconst 0xea]
    6398                      .dwattr $C$DW$1068, DW_AT_accessibility(DW_ACCESS_public)
    6399              $C$DW$1069      .dwtag  DW_TAG_member
    6400                      .dwattr $C$DW$1069, DW_AT_type(*$C$DW$T$206)
    6401                      .dwattr $C$DW$1069, DW_AT_name("rsvd9_7")
    6402                      .dwattr $C$DW$1069, DW_AT_TI_symbol_name("_rsvd9_7")
    6403                      .dwattr $C$DW$1069, DW_AT_data_member_location[DW_OP_plus_uconst 0xec]
    6404                      .dwattr $C$DW$1069, DW_AT_accessibility(DW_ACCESS_public)
    6405              $C$DW$1070      .dwtag  DW_TAG_member
    6406                      .dwattr $C$DW$1070, DW_AT_type(*$C$DW$T$206)
    6407                      .dwattr $C$DW$1070, DW_AT_name("rsvd9_8")
    6408                      .dwattr $C$DW$1070, DW_AT_TI_symbol_name("_rsvd9_8")
    6409                      .dwattr $C$DW$1070, DW_AT_data_member_location[DW_OP_plus_uconst 0xee]
    6410                      .dwattr $C$DW$1070, DW_AT_accessibility(DW_ACCESS_public)
    6411              $C$DW$1071      .dwtag  DW_TAG_member
    6412                      .dwattr $C$DW$1071, DW_AT_type(*$C$DW$T$206)
    6413                      .dwattr $C$DW$1071, DW_AT_name("ADCINT1")
    6414                      .dwattr $C$DW$1071, DW_AT_TI_symbol_name("_ADCINT1")
    6415                      .dwattr $C$DW$1071, DW_AT_data_member_location[DW_OP_plus_uconst 0xf0]
    6416                      .dwattr $C$DW$1071, DW_AT_accessibility(DW_ACCESS_public)
    6417              $C$DW$1072      .dwtag  DW_TAG_member
    6418                      .dwattr $C$DW$1072, DW_AT_type(*$C$DW$T$206)
    6419                      .dwattr $C$DW$1072, DW_AT_name("ADCINT2")
    6420                      .dwattr $C$DW$1072, DW_AT_TI_symbol_name("_ADCINT2")
    6421                      .dwattr $C$DW$1072, DW_AT_data_member_location[DW_OP_plus_uconst 0xf2]
    6422                      .dwattr $C$DW$1072, DW_AT_accessibility(DW_ACCESS_public)
TMS320C2000 Assembler PC v6.2.5 Tue Nov 21 22:57:45 2017

Tools Copyright (c) 1996-2014 Texas Instruments Incorporated
C:\Users\wmj\AppData\Local\Temp\1055210                              PAGE  121

    6423              $C$DW$1073      .dwtag  DW_TAG_member
    6424                      .dwattr $C$DW$1073, DW_AT_type(*$C$DW$T$206)
    6425                      .dwattr $C$DW$1073, DW_AT_name("ADCINT3")
    6426                      .dwattr $C$DW$1073, DW_AT_TI_symbol_name("_ADCINT3")
    6427                      .dwattr $C$DW$1073, DW_AT_data_member_location[DW_OP_plus_uconst 0xf4]
    6428                      .dwattr $C$DW$1073, DW_AT_accessibility(DW_ACCESS_public)
    6429              $C$DW$1074      .dwtag  DW_TAG_member
    6430                      .dwattr $C$DW$1074, DW_AT_type(*$C$DW$T$206)
    6431                      .dwattr $C$DW$1074, DW_AT_name("ADCINT4")
    6432                      .dwattr $C$DW$1074, DW_AT_TI_symbol_name("_ADCINT4")
    6433                      .dwattr $C$DW$1074, DW_AT_data_member_location[DW_OP_plus_uconst 0xf6]
    6434                      .dwattr $C$DW$1074, DW_AT_accessibility(DW_ACCESS_public)
    6435              $C$DW$1075      .dwtag  DW_TAG_member
    6436                      .dwattr $C$DW$1075, DW_AT_type(*$C$DW$T$206)
    6437                      .dwattr $C$DW$1075, DW_AT_name("ADCINT5")
    6438                      .dwattr $C$DW$1075, DW_AT_TI_symbol_name("_ADCINT5")
    6439                      .dwattr $C$DW$1075, DW_AT_data_member_location[DW_OP_plus_uconst 0xf8]
    6440                      .dwattr $C$DW$1075, DW_AT_accessibility(DW_ACCESS_public)
    6441              $C$DW$1076      .dwtag  DW_TAG_member
    6442                      .dwattr $C$DW$1076, DW_AT_type(*$C$DW$T$206)
    6443                      .dwattr $C$DW$1076, DW_AT_name("ADCINT6")
    6444                      .dwattr $C$DW$1076, DW_AT_TI_symbol_name("_ADCINT6")
    6445                      .dwattr $C$DW$1076, DW_AT_data_member_location[DW_OP_plus_uconst 0xfa]
    6446                      .dwattr $C$DW$1076, DW_AT_accessibility(DW_ACCESS_public)
    6447              $C$DW$1077      .dwtag  DW_TAG_member
    6448                      .dwattr $C$DW$1077, DW_AT_type(*$C$DW$T$206)
    6449                      .dwattr $C$DW$1077, DW_AT_name("ADCINT7")
    6450                      .dwattr $C$DW$1077, DW_AT_TI_symbol_name("_ADCINT7")
    6451                      .dwattr $C$DW$1077, DW_AT_data_member_location[DW_OP_plus_uconst 0xfc]
    6452                      .dwattr $C$DW$1077, DW_AT_accessibility(DW_ACCESS_public)
    6453              $C$DW$1078      .dwtag  DW_TAG_member
    6454                      .dwattr $C$DW$1078, DW_AT_type(*$C$DW$T$206)
    6455                      .dwattr $C$DW$1078, DW_AT_name("ADCINT8")
    6456                      .dwattr $C$DW$1078, DW_AT_TI_symbol_name("_ADCINT8")
    6457                      .dwattr $C$DW$1078, DW_AT_data_member_location[DW_OP_plus_uconst 0xfe]
    6458                      .dwattr $C$DW$1078, DW_AT_accessibility(DW_ACCESS_public)
    6459              $C$DW$1079      .dwtag  DW_TAG_member
    6460                      .dwattr $C$DW$1079, DW_AT_type(*$C$DW$T$206)
    6461                      .dwattr $C$DW$1079, DW_AT_name("rsvd11_1")
    6462                      .dwattr $C$DW$1079, DW_AT_TI_symbol_name("_rsvd11_1")
    6463                      .dwattr $C$DW$1079, DW_AT_data_member_location[DW_OP_plus_uconst 0x100]
    6464                      .dwattr $C$DW$1079, DW_AT_accessibility(DW_ACCESS_public)
    6465              $C$DW$1080      .dwtag  DW_TAG_member
    6466                      .dwattr $C$DW$1080, DW_AT_type(*$C$DW$T$206)
    6467                      .dwattr $C$DW$1080, DW_AT_name("rsvd11_2")
    6468                      .dwattr $C$DW$1080, DW_AT_TI_symbol_name("_rsvd11_2")
    6469                      .dwattr $C$DW$1080, DW_AT_data_member_location[DW_OP_plus_uconst 0x102]
    6470                      .dwattr $C$DW$1080, DW_AT_accessibility(DW_ACCESS_public)
    6471              $C$DW$1081      .dwtag  DW_TAG_member
    6472                      .dwattr $C$DW$1081, DW_AT_type(*$C$DW$T$206)
    6473                      .dwattr $C$DW$1081, DW_AT_name("rsvd11_3")
    6474                      .dwattr $C$DW$1081, DW_AT_TI_symbol_name("_rsvd11_3")
    6475                      .dwattr $C$DW$1081, DW_AT_data_member_location[DW_OP_plus_uconst 0x104]
    6476                      .dwattr $C$DW$1081, DW_AT_accessibility(DW_ACCESS_public)
    6477              $C$DW$1082      .dwtag  DW_TAG_member
TMS320C2000 Assembler PC v6.2.5 Tue Nov 21 22:57:45 2017

Tools Copyright (c) 1996-2014 Texas Instruments Incorporated
C:\Users\wmj\AppData\Local\Temp\1055210                              PAGE  122

    6478                      .dwattr $C$DW$1082, DW_AT_type(*$C$DW$T$206)
    6479                      .dwattr $C$DW$1082, DW_AT_name("rsvd11_4")
    6480                      .dwattr $C$DW$1082, DW_AT_TI_symbol_name("_rsvd11_4")
    6481                      .dwattr $C$DW$1082, DW_AT_data_member_location[DW_OP_plus_uconst 0x106]
    6482                      .dwattr $C$DW$1082, DW_AT_accessibility(DW_ACCESS_public)
    6483              $C$DW$1083      .dwtag  DW_TAG_member
    6484                      .dwattr $C$DW$1083, DW_AT_type(*$C$DW$T$206)
    6485                      .dwattr $C$DW$1083, DW_AT_name("rsvd11_5")
    6486                      .dwattr $C$DW$1083, DW_AT_TI_symbol_name("_rsvd11_5")
    6487                      .dwattr $C$DW$1083, DW_AT_data_member_location[DW_OP_plus_uconst 0x108]
    6488                      .dwattr $C$DW$1083, DW_AT_accessibility(DW_ACCESS_public)
    6489              $C$DW$1084      .dwtag  DW_TAG_member
    6490                      .dwattr $C$DW$1084, DW_AT_type(*$C$DW$T$206)
    6491                      .dwattr $C$DW$1084, DW_AT_name("rsvd11_6")
    6492                      .dwattr $C$DW$1084, DW_AT_TI_symbol_name("_rsvd11_6")
    6493                      .dwattr $C$DW$1084, DW_AT_data_member_location[DW_OP_plus_uconst 0x10a]
    6494                      .dwattr $C$DW$1084, DW_AT_accessibility(DW_ACCESS_public)
    6495              $C$DW$1085      .dwtag  DW_TAG_member
    6496                      .dwattr $C$DW$1085, DW_AT_type(*$C$DW$T$206)
    6497                      .dwattr $C$DW$1085, DW_AT_name("rsvd11_7")
    6498                      .dwattr $C$DW$1085, DW_AT_TI_symbol_name("_rsvd11_7")
    6499                      .dwattr $C$DW$1085, DW_AT_data_member_location[DW_OP_plus_uconst 0x10c]
    6500                      .dwattr $C$DW$1085, DW_AT_accessibility(DW_ACCESS_public)
    6501              $C$DW$1086      .dwtag  DW_TAG_member
    6502                      .dwattr $C$DW$1086, DW_AT_type(*$C$DW$T$206)
    6503                      .dwattr $C$DW$1086, DW_AT_name("rsvd11_8")
    6504                      .dwattr $C$DW$1086, DW_AT_TI_symbol_name("_rsvd11_8")
    6505                      .dwattr $C$DW$1086, DW_AT_data_member_location[DW_OP_plus_uconst 0x10e]
    6506                      .dwattr $C$DW$1086, DW_AT_accessibility(DW_ACCESS_public)
    6507              $C$DW$1087      .dwtag  DW_TAG_member
    6508                      .dwattr $C$DW$1087, DW_AT_type(*$C$DW$T$206)
    6509                      .dwattr $C$DW$1087, DW_AT_name("XINT3")
    6510                      .dwattr $C$DW$1087, DW_AT_TI_symbol_name("_XINT3")
    6511                      .dwattr $C$DW$1087, DW_AT_data_member_location[DW_OP_plus_uconst 0x110]
    6512                      .dwattr $C$DW$1087, DW_AT_accessibility(DW_ACCESS_public)
    6513              $C$DW$1088      .dwtag  DW_TAG_member
    6514                      .dwattr $C$DW$1088, DW_AT_type(*$C$DW$T$206)
    6515                      .dwattr $C$DW$1088, DW_AT_name("rsvd12_2")
    6516                      .dwattr $C$DW$1088, DW_AT_TI_symbol_name("_rsvd12_2")
    6517                      .dwattr $C$DW$1088, DW_AT_data_member_location[DW_OP_plus_uconst 0x112]
    6518                      .dwattr $C$DW$1088, DW_AT_accessibility(DW_ACCESS_public)
    6519              $C$DW$1089      .dwtag  DW_TAG_member
    6520                      .dwattr $C$DW$1089, DW_AT_type(*$C$DW$T$206)
    6521                      .dwattr $C$DW$1089, DW_AT_name("rsvd12_3")
    6522                      .dwattr $C$DW$1089, DW_AT_TI_symbol_name("_rsvd12_3")
    6523                      .dwattr $C$DW$1089, DW_AT_data_member_location[DW_OP_plus_uconst 0x114]
    6524                      .dwattr $C$DW$1089, DW_AT_accessibility(DW_ACCESS_public)
    6525              $C$DW$1090      .dwtag  DW_TAG_member
    6526                      .dwattr $C$DW$1090, DW_AT_type(*$C$DW$T$206)
    6527                      .dwattr $C$DW$1090, DW_AT_name("rsvd12_4")
    6528                      .dwattr $C$DW$1090, DW_AT_TI_symbol_name("_rsvd12_4")
    6529                      .dwattr $C$DW$1090, DW_AT_data_member_location[DW_OP_plus_uconst 0x116]
    6530                      .dwattr $C$DW$1090, DW_AT_accessibility(DW_ACCESS_public)
    6531              $C$DW$1091      .dwtag  DW_TAG_member
    6532                      .dwattr $C$DW$1091, DW_AT_type(*$C$DW$T$206)
TMS320C2000 Assembler PC v6.2.5 Tue Nov 21 22:57:45 2017

Tools Copyright (c) 1996-2014 Texas Instruments Incorporated
C:\Users\wmj\AppData\Local\Temp\1055210                              PAGE  123

    6533                      .dwattr $C$DW$1091, DW_AT_name("rsvd12_5")
    6534                      .dwattr $C$DW$1091, DW_AT_TI_symbol_name("_rsvd12_5")
    6535                      .dwattr $C$DW$1091, DW_AT_data_member_location[DW_OP_plus_uconst 0x118]
    6536                      .dwattr $C$DW$1091, DW_AT_accessibility(DW_ACCESS_public)
    6537              $C$DW$1092      .dwtag  DW_TAG_member
    6538                      .dwattr $C$DW$1092, DW_AT_type(*$C$DW$T$206)
    6539                      .dwattr $C$DW$1092, DW_AT_name("rsvd12_6")
    6540                      .dwattr $C$DW$1092, DW_AT_TI_symbol_name("_rsvd12_6")
    6541                      .dwattr $C$DW$1092, DW_AT_data_member_location[DW_OP_plus_uconst 0x11a]
    6542                      .dwattr $C$DW$1092, DW_AT_accessibility(DW_ACCESS_public)
    6543              $C$DW$1093      .dwtag  DW_TAG_member
    6544                      .dwattr $C$DW$1093, DW_AT_type(*$C$DW$T$206)
    6545                      .dwattr $C$DW$1093, DW_AT_name("rsvd12_7")
    6546                      .dwattr $C$DW$1093, DW_AT_TI_symbol_name("_rsvd12_7")
    6547                      .dwattr $C$DW$1093, DW_AT_data_member_location[DW_OP_plus_uconst 0x11c]
    6548                      .dwattr $C$DW$1093, DW_AT_accessibility(DW_ACCESS_public)
    6549              $C$DW$1094      .dwtag  DW_TAG_member
    6550                      .dwattr $C$DW$1094, DW_AT_type(*$C$DW$T$206)
    6551                      .dwattr $C$DW$1094, DW_AT_name("rsvd12_8")
    6552                      .dwattr $C$DW$1094, DW_AT_TI_symbol_name("_rsvd12_8")
    6553                      .dwattr $C$DW$1094, DW_AT_data_member_location[DW_OP_plus_uconst 0x11e]
    6554                      .dwattr $C$DW$1094, DW_AT_accessibility(DW_ACCESS_public)
    6555              $C$DW$1095      .dwtag  DW_TAG_member
    6556                      .dwattr $C$DW$1095, DW_AT_type(*$C$DW$T$207)
    6557                      .dwattr $C$DW$1095, DW_AT_name("rsvd13")
    6558                      .dwattr $C$DW$1095, DW_AT_TI_symbol_name("_rsvd13")
    6559                      .dwattr $C$DW$1095, DW_AT_data_member_location[DW_OP_plus_uconst 0x120]
    6560                      .dwattr $C$DW$1095, DW_AT_accessibility(DW_ACCESS_public)
    6561              $C$DW$1096      .dwtag  DW_TAG_member
    6562                      .dwattr $C$DW$1096, DW_AT_type(*$C$DW$T$28)
    6563                      .dwattr $C$DW$1096, DW_AT_name("XINTnCR")
    6564                      .dwattr $C$DW$1096, DW_AT_TI_symbol_name("_XINTnCR")
    6565                      .dwattr $C$DW$1096, DW_AT_data_member_location[DW_OP_plus_uconst 0x6390]
    6566                      .dwattr $C$DW$1096, DW_AT_accessibility(DW_ACCESS_public)
    6567              $C$DW$1097      .dwtag  DW_TAG_member
    6568                      .dwattr $C$DW$1097, DW_AT_type(*$C$DW$T$27)
    6569                      .dwattr $C$DW$1097, DW_AT_name("rsvd14")
    6570                      .dwattr $C$DW$1097, DW_AT_TI_symbol_name("_rsvd14")
    6571                      .dwattr $C$DW$1097, DW_AT_data_member_location[DW_OP_plus_uconst 0x6393]
    6572                      .dwattr $C$DW$1097, DW_AT_accessibility(DW_ACCESS_public)
    6573              $C$DW$1098      .dwtag  DW_TAG_member
    6574                      .dwattr $C$DW$1098, DW_AT_type(*$C$DW$T$28)
    6575                      .dwattr $C$DW$1098, DW_AT_name("XINTnCTR")
    6576                      .dwattr $C$DW$1098, DW_AT_TI_symbol_name("_XINTnCTR")
    6577                      .dwattr $C$DW$1098, DW_AT_data_member_location[DW_OP_plus_uconst 0x6398]
    6578                      .dwattr $C$DW$1098, DW_AT_accessibility(DW_ACCESS_public)
    6579                      .dwendtag $C$DW$T$208
    6580              
    6581              $C$DW$T$280     .dwtag  DW_TAG_typedef, DW_AT_name("PIE_Obj")
    6582                      .dwattr $C$DW$T$280, DW_AT_type(*$C$DW$T$208)
    6583                      .dwattr $C$DW$T$280, DW_AT_language(DW_LANG_C)
    6584              $C$DW$T$281     .dwtag  DW_TAG_pointer_type
    6585                      .dwattr $C$DW$T$281, DW_AT_type(*$C$DW$T$280)
    6586                      .dwattr $C$DW$T$281, DW_AT_address_class(0x16)
    6587              $C$DW$T$135     .dwtag  DW_TAG_pointer_type
TMS320C2000 Assembler PC v6.2.5 Tue Nov 21 22:57:45 2017

Tools Copyright (c) 1996-2014 Texas Instruments Incorporated
C:\Users\wmj\AppData\Local\Temp\1055210                              PAGE  124

    6588                      .dwattr $C$DW$T$135, DW_AT_type(*$C$DW$T$208)
    6589                      .dwattr $C$DW$T$135, DW_AT_address_class(0x16)
    6590              $C$DW$T$136     .dwtag  DW_TAG_typedef, DW_AT_name("PIE_Handle")
    6591                      .dwattr $C$DW$T$136, DW_AT_type(*$C$DW$T$135)
    6592                      .dwattr $C$DW$T$136, DW_AT_language(DW_LANG_C)
    6593              
    6594              $C$DW$T$209     .dwtag  DW_TAG_structure_type
    6595                      .dwattr $C$DW$T$209, DW_AT_name("_PLL_Obj_")
    6596                      .dwattr $C$DW$T$209, DW_AT_byte_size(0x11)
    6597              $C$DW$1099      .dwtag  DW_TAG_member
    6598                      .dwattr $C$DW$1099, DW_AT_type(*$C$DW$T$23)
    6599                      .dwattr $C$DW$1099, DW_AT_name("PLLSTS")
    6600                      .dwattr $C$DW$1099, DW_AT_TI_symbol_name("_PLLSTS")
    6601                      .dwattr $C$DW$1099, DW_AT_data_member_location[DW_OP_plus_uconst 0x0]
    6602                      .dwattr $C$DW$1099, DW_AT_accessibility(DW_ACCESS_public)
    6603              $C$DW$1100      .dwtag  DW_TAG_member
    6604                      .dwattr $C$DW$1100, DW_AT_type(*$C$DW$T$23)
    6605                      .dwattr $C$DW$1100, DW_AT_name("rsvd_1")
    6606                      .dwattr $C$DW$1100, DW_AT_TI_symbol_name("_rsvd_1")
    6607                      .dwattr $C$DW$1100, DW_AT_data_member_location[DW_OP_plus_uconst 0x1]
    6608                      .dwattr $C$DW$1100, DW_AT_accessibility(DW_ACCESS_public)
    6609              $C$DW$1101      .dwtag  DW_TAG_member
    6610                      .dwattr $C$DW$1101, DW_AT_type(*$C$DW$T$23)
    6611                      .dwattr $C$DW$1101, DW_AT_name("PLLLOCKPRD")
    6612                      .dwattr $C$DW$1101, DW_AT_TI_symbol_name("_PLLLOCKPRD")
    6613                      .dwattr $C$DW$1101, DW_AT_data_member_location[DW_OP_plus_uconst 0x2]
    6614                      .dwattr $C$DW$1101, DW_AT_accessibility(DW_ACCESS_public)
    6615              $C$DW$1102      .dwtag  DW_TAG_member
    6616                      .dwattr $C$DW$1102, DW_AT_type(*$C$DW$T$29)
    6617                      .dwattr $C$DW$1102, DW_AT_name("rsvd_2")
    6618                      .dwattr $C$DW$1102, DW_AT_TI_symbol_name("_rsvd_2")
    6619                      .dwattr $C$DW$1102, DW_AT_data_member_location[DW_OP_plus_uconst 0x3]
    6620                      .dwattr $C$DW$1102, DW_AT_accessibility(DW_ACCESS_public)
    6621              $C$DW$1103      .dwtag  DW_TAG_member
    6622                      .dwattr $C$DW$1103, DW_AT_type(*$C$DW$T$23)
    6623                      .dwattr $C$DW$1103, DW_AT_name("PLLCR")
    6624                      .dwattr $C$DW$1103, DW_AT_TI_symbol_name("_PLLCR")
    6625                      .dwattr $C$DW$1103, DW_AT_data_member_location[DW_OP_plus_uconst 0x10]
    6626                      .dwattr $C$DW$1103, DW_AT_accessibility(DW_ACCESS_public)
    6627                      .dwendtag $C$DW$T$209
    6628              
    6629              $C$DW$T$137     .dwtag  DW_TAG_pointer_type
    6630                      .dwattr $C$DW$T$137, DW_AT_type(*$C$DW$T$209)
    6631                      .dwattr $C$DW$T$137, DW_AT_address_class(0x16)
    6632              $C$DW$T$138     .dwtag  DW_TAG_typedef, DW_AT_name("PLL_Handle")
    6633                      .dwattr $C$DW$T$138, DW_AT_type(*$C$DW$T$137)
    6634                      .dwattr $C$DW$T$138, DW_AT_language(DW_LANG_C)
    6635              
    6636              $C$DW$T$223     .dwtag  DW_TAG_structure_type
    6637                      .dwattr $C$DW$T$223, DW_AT_name("_PROCTRL_Obj_")
    6638                      .dwattr $C$DW$T$223, DW_AT_byte_size(0xfc)
    6639              $C$DW$1104      .dwtag  DW_TAG_member
    6640                      .dwattr $C$DW$1104, DW_AT_type(*$C$DW$T$83)
    6641                      .dwattr $C$DW$1104, DW_AT_name("halHandle")
    6642                      .dwattr $C$DW$1104, DW_AT_TI_symbol_name("_halHandle")
TMS320C2000 Assembler PC v6.2.5 Tue Nov 21 22:57:45 2017

Tools Copyright (c) 1996-2014 Texas Instruments Incorporated
C:\Users\wmj\AppData\Local\Temp\1055210                              PAGE  125

    6643                      .dwattr $C$DW$1104, DW_AT_data_member_location[DW_OP_plus_uconst 0x0]
    6644                      .dwattr $C$DW$1104, DW_AT_accessibility(DW_ACCESS_public)
    6645              $C$DW$1105      .dwtag  DW_TAG_member
    6646                      .dwattr $C$DW$1105, DW_AT_type(*$C$DW$T$211)
    6647                      .dwattr $C$DW$1105, DW_AT_name("ctrlHandle")
    6648                      .dwattr $C$DW$1105, DW_AT_TI_symbol_name("_ctrlHandle")
    6649                      .dwattr $C$DW$1105, DW_AT_data_member_location[DW_OP_plus_uconst 0x2]
    6650                      .dwattr $C$DW$1105, DW_AT_accessibility(DW_ACCESS_public)
    6651              $C$DW$1106      .dwtag  DW_TAG_member
    6652                      .dwattr $C$DW$1106, DW_AT_type(*$C$DW$T$213)
    6653                      .dwattr $C$DW$1106, DW_AT_name("pUserParams")
    6654                      .dwattr $C$DW$1106, DW_AT_TI_symbol_name("_pUserParams")
    6655                      .dwattr $C$DW$1106, DW_AT_data_member_location[DW_OP_plus_uconst 0x4]
    6656                      .dwattr $C$DW$1106, DW_AT_accessibility(DW_ACCESS_public)
    6657              $C$DW$1107      .dwtag  DW_TAG_member
    6658                      .dwattr $C$DW$1107, DW_AT_type(*$C$DW$T$214)
    6659                      .dwattr $C$DW$1107, DW_AT_name("fs")
    6660                      .dwattr $C$DW$1107, DW_AT_TI_symbol_name("_fs")
    6661                      .dwattr $C$DW$1107, DW_AT_data_member_location[DW_OP_plus_uconst 0x6]
    6662                      .dwattr $C$DW$1107, DW_AT_accessibility(DW_ACCESS_public)
    6663              $C$DW$1108      .dwtag  DW_TAG_member
    6664                      .dwattr $C$DW$1108, DW_AT_type(*$C$DW$T$216)
    6665                      .dwattr $C$DW$1108, DW_AT_name("fsHandle")
    6666                      .dwattr $C$DW$1108, DW_AT_TI_symbol_name("_fsHandle")
    6667                      .dwattr $C$DW$1108, DW_AT_data_member_location[DW_OP_plus_uconst 0x18]
    6668                      .dwattr $C$DW$1108, DW_AT_accessibility(DW_ACCESS_public)
    6669              $C$DW$1109      .dwtag  DW_TAG_member
    6670                      .dwattr $C$DW$1109, DW_AT_type(*$C$DW$T$217)
    6671                      .dwattr $C$DW$1109, DW_AT_name("My_ModBus")
    6672                      .dwattr $C$DW$1109, DW_AT_TI_symbol_name("_My_ModBus")
    6673                      .dwattr $C$DW$1109, DW_AT_data_member_location[DW_OP_plus_uconst 0x1a]
    6674                      .dwattr $C$DW$1109, DW_AT_accessibility(DW_ACCESS_public)
    6675              $C$DW$1110      .dwtag  DW_TAG_member
    6676                      .dwattr $C$DW$1110, DW_AT_type(*$C$DW$T$219)
    6677                      .dwattr $C$DW$1110, DW_AT_name("modbusHandle")
    6678                      .dwattr $C$DW$1110, DW_AT_TI_symbol_name("_modbusHandle")
    6679                      .dwattr $C$DW$1110, DW_AT_data_member_location[DW_OP_plus_uconst 0x3a]
    6680                      .dwattr $C$DW$1110, DW_AT_accessibility(DW_ACCESS_public)
    6681              $C$DW$1111      .dwtag  DW_TAG_member
    6682                      .dwattr $C$DW$1111, DW_AT_type(*$C$DW$T$220)
    6683                      .dwattr $C$DW$1111, DW_AT_name("MotorVars")
    6684                      .dwattr $C$DW$1111, DW_AT_TI_symbol_name("_MotorVars")
    6685                      .dwattr $C$DW$1111, DW_AT_data_member_location[DW_OP_plus_uconst 0x3c]
    6686                      .dwattr $C$DW$1111, DW_AT_accessibility(DW_ACCESS_public)
    6687              $C$DW$1112      .dwtag  DW_TAG_member
    6688                      .dwattr $C$DW$1112, DW_AT_type(*$C$DW$T$81)
    6689                      .dwattr $C$DW$1112, DW_AT_name("motorHandle")
    6690                      .dwattr $C$DW$1112, DW_AT_TI_symbol_name("_motorHandle")
    6691                      .dwattr $C$DW$1112, DW_AT_data_member_location[DW_OP_plus_uconst 0xac]
    6692                      .dwattr $C$DW$1112, DW_AT_accessibility(DW_ACCESS_public)
    6693              $C$DW$1113      .dwtag  DW_TAG_member
    6694                      .dwattr $C$DW$1113, DW_AT_type(*$C$DW$T$221)
    6695                      .dwattr $C$DW$1113, DW_AT_name("MyFSM")
    6696                      .dwattr $C$DW$1113, DW_AT_TI_symbol_name("_MyFSM")
    6697                      .dwattr $C$DW$1113, DW_AT_data_member_location[DW_OP_plus_uconst 0xae]
TMS320C2000 Assembler PC v6.2.5 Tue Nov 21 22:57:45 2017

Tools Copyright (c) 1996-2014 Texas Instruments Incorporated
C:\Users\wmj\AppData\Local\Temp\1055210                              PAGE  126

    6698                      .dwattr $C$DW$1113, DW_AT_accessibility(DW_ACCESS_public)
    6699              $C$DW$1114      .dwtag  DW_TAG_member
    6700                      .dwattr $C$DW$1114, DW_AT_type(*$C$DW$T$164)
    6701                      .dwattr $C$DW$1114, DW_AT_name("fsmHandle")
    6702                      .dwattr $C$DW$1114, DW_AT_TI_symbol_name("_fsmHandle")
    6703                      .dwattr $C$DW$1114, DW_AT_data_member_location[DW_OP_plus_uconst 0xd4]
    6704                      .dwattr $C$DW$1114, DW_AT_accessibility(DW_ACCESS_public)
    6705              $C$DW$1115      .dwtag  DW_TAG_member
    6706                      .dwattr $C$DW$1115, DW_AT_type(*$C$DW$T$153)
    6707                      .dwattr $C$DW$1115, DW_AT_name("AdcData")
    6708                      .dwattr $C$DW$1115, DW_AT_TI_symbol_name("_AdcData")
    6709                      .dwattr $C$DW$1115, DW_AT_data_member_location[DW_OP_plus_uconst 0xd6]
    6710                      .dwattr $C$DW$1115, DW_AT_accessibility(DW_ACCESS_public)
    6711              $C$DW$1116      .dwtag  DW_TAG_member
    6712                      .dwattr $C$DW$1116, DW_AT_type(*$C$DW$T$222)
    6713                      .dwattr $C$DW$1116, DW_AT_name("PwmData")
    6714                      .dwattr $C$DW$1116, DW_AT_TI_symbol_name("_PwmData")
    6715                      .dwattr $C$DW$1116, DW_AT_data_member_location[DW_OP_plus_uconst 0xec]
    6716                      .dwattr $C$DW$1116, DW_AT_accessibility(DW_ACCESS_public)
    6717              $C$DW$1117      .dwtag  DW_TAG_member
    6718                      .dwattr $C$DW$1117, DW_AT_type(*$C$DW$T$33)
    6719                      .dwattr $C$DW$1117, DW_AT_name("Ext_Int_Flag")
    6720                      .dwattr $C$DW$1117, DW_AT_TI_symbol_name("_Ext_Int_Flag")
    6721                      .dwattr $C$DW$1117, DW_AT_data_member_location[DW_OP_plus_uconst 0xf2]
    6722                      .dwattr $C$DW$1117, DW_AT_accessibility(DW_ACCESS_public)
    6723              $C$DW$1118      .dwtag  DW_TAG_member
    6724                      .dwattr $C$DW$1118, DW_AT_type(*$C$DW$T$31)
    6725                      .dwattr $C$DW$1118, DW_AT_name("Flux_pu_to_Wb_sf")
    6726                      .dwattr $C$DW$1118, DW_AT_TI_symbol_name("_Flux_pu_to_Wb_sf")
    6727                      .dwattr $C$DW$1118, DW_AT_data_member_location[DW_OP_plus_uconst 0xf4]
    6728                      .dwattr $C$DW$1118, DW_AT_accessibility(DW_ACCESS_public)
    6729              $C$DW$1119      .dwtag  DW_TAG_member
    6730                      .dwattr $C$DW$1119, DW_AT_type(*$C$DW$T$31)
    6731                      .dwattr $C$DW$1119, DW_AT_name("Flux_pu_to_VpHz_sf")
    6732                      .dwattr $C$DW$1119, DW_AT_TI_symbol_name("_Flux_pu_to_VpHz_sf")
    6733                      .dwattr $C$DW$1119, DW_AT_data_member_location[DW_OP_plus_uconst 0xf6]
    6734                      .dwattr $C$DW$1119, DW_AT_accessibility(DW_ACCESS_public)
    6735              $C$DW$1120      .dwtag  DW_TAG_member
    6736                      .dwattr $C$DW$1120, DW_AT_type(*$C$DW$T$31)
    6737                      .dwattr $C$DW$1120, DW_AT_name("Torque_Ls_Id_Iq_pu_to_Nm_sf")
    6738                      .dwattr $C$DW$1120, DW_AT_TI_symbol_name("_Torque_Ls_Id_Iq_pu_to_Nm_sf")
    6739                      .dwattr $C$DW$1120, DW_AT_data_member_location[DW_OP_plus_uconst 0xf8]
    6740                      .dwattr $C$DW$1120, DW_AT_accessibility(DW_ACCESS_public)
    6741              $C$DW$1121      .dwtag  DW_TAG_member
    6742                      .dwattr $C$DW$1121, DW_AT_type(*$C$DW$T$31)
    6743                      .dwattr $C$DW$1121, DW_AT_name("Torque_Flux_Iq_pu_to_Nm_sf")
    6744                      .dwattr $C$DW$1121, DW_AT_TI_symbol_name("_Torque_Flux_Iq_pu_to_Nm_sf")
    6745                      .dwattr $C$DW$1121, DW_AT_data_member_location[DW_OP_plus_uconst 0xfa]
    6746                      .dwattr $C$DW$1121, DW_AT_accessibility(DW_ACCESS_public)
    6747                      .dwendtag $C$DW$T$223
    6748              
    6749              $C$DW$T$282     .dwtag  DW_TAG_typedef, DW_AT_name("PROCTRL_Obj")
    6750                      .dwattr $C$DW$T$282, DW_AT_type(*$C$DW$T$223)
    6751                      .dwattr $C$DW$T$282, DW_AT_language(DW_LANG_C)
    6752              $C$DW$T$283     .dwtag  DW_TAG_pointer_type
TMS320C2000 Assembler PC v6.2.5 Tue Nov 21 22:57:45 2017

Tools Copyright (c) 1996-2014 Texas Instruments Incorporated
C:\Users\wmj\AppData\Local\Temp\1055210                              PAGE  127

    6753                      .dwattr $C$DW$T$283, DW_AT_type(*$C$DW$T$223)
    6754                      .dwattr $C$DW$T$283, DW_AT_address_class(0x16)
    6755              $C$DW$T$284     .dwtag  DW_TAG_typedef, DW_AT_name("PROCTRL_Handle")
    6756                      .dwattr $C$DW$T$284, DW_AT_type(*$C$DW$T$283)
    6757                      .dwattr $C$DW$T$284, DW_AT_language(DW_LANG_C)
    6758              
    6759              $C$DW$T$224     .dwtag  DW_TAG_structure_type
    6760                      .dwattr $C$DW$T$224, DW_AT_name("_PWM_Obj_")
    6761                      .dwattr $C$DW$T$224, DW_AT_byte_size(0x3a)
    6762              $C$DW$1122      .dwtag  DW_TAG_member
    6763                      .dwattr $C$DW$1122, DW_AT_type(*$C$DW$T$23)
    6764                      .dwattr $C$DW$1122, DW_AT_name("TBCTL")
    6765                      .dwattr $C$DW$1122, DW_AT_TI_symbol_name("_TBCTL")
    6766                      .dwattr $C$DW$1122, DW_AT_data_member_location[DW_OP_plus_uconst 0x0]
    6767                      .dwattr $C$DW$1122, DW_AT_accessibility(DW_ACCESS_public)
    6768              $C$DW$1123      .dwtag  DW_TAG_member
    6769                      .dwattr $C$DW$1123, DW_AT_type(*$C$DW$T$23)
    6770                      .dwattr $C$DW$1123, DW_AT_name("TBSTS")
    6771                      .dwattr $C$DW$1123, DW_AT_TI_symbol_name("_TBSTS")
    6772                      .dwattr $C$DW$1123, DW_AT_data_member_location[DW_OP_plus_uconst 0x1]
    6773                      .dwattr $C$DW$1123, DW_AT_accessibility(DW_ACCESS_public)
    6774              $C$DW$1124      .dwtag  DW_TAG_member
    6775                      .dwattr $C$DW$1124, DW_AT_type(*$C$DW$T$23)
    6776                      .dwattr $C$DW$1124, DW_AT_name("TBPHSHR")
    6777                      .dwattr $C$DW$1124, DW_AT_TI_symbol_name("_TBPHSHR")
    6778                      .dwattr $C$DW$1124, DW_AT_data_member_location[DW_OP_plus_uconst 0x2]
    6779                      .dwattr $C$DW$1124, DW_AT_accessibility(DW_ACCESS_public)
    6780              $C$DW$1125      .dwtag  DW_TAG_member
    6781                      .dwattr $C$DW$1125, DW_AT_type(*$C$DW$T$23)
    6782                      .dwattr $C$DW$1125, DW_AT_name("TBPHS")
    6783                      .dwattr $C$DW$1125, DW_AT_TI_symbol_name("_TBPHS")
    6784                      .dwattr $C$DW$1125, DW_AT_data_member_location[DW_OP_plus_uconst 0x3]
    6785                      .dwattr $C$DW$1125, DW_AT_accessibility(DW_ACCESS_public)
    6786              $C$DW$1126      .dwtag  DW_TAG_member
    6787                      .dwattr $C$DW$1126, DW_AT_type(*$C$DW$T$23)
    6788                      .dwattr $C$DW$1126, DW_AT_name("TBCTR")
    6789                      .dwattr $C$DW$1126, DW_AT_TI_symbol_name("_TBCTR")
    6790                      .dwattr $C$DW$1126, DW_AT_data_member_location[DW_OP_plus_uconst 0x4]
    6791                      .dwattr $C$DW$1126, DW_AT_accessibility(DW_ACCESS_public)
    6792              $C$DW$1127      .dwtag  DW_TAG_member
    6793                      .dwattr $C$DW$1127, DW_AT_type(*$C$DW$T$23)
    6794                      .dwattr $C$DW$1127, DW_AT_name("TBPRD")
    6795                      .dwattr $C$DW$1127, DW_AT_TI_symbol_name("_TBPRD")
    6796                      .dwattr $C$DW$1127, DW_AT_data_member_location[DW_OP_plus_uconst 0x5]
    6797                      .dwattr $C$DW$1127, DW_AT_accessibility(DW_ACCESS_public)
    6798              $C$DW$1128      .dwtag  DW_TAG_member
    6799                      .dwattr $C$DW$1128, DW_AT_type(*$C$DW$T$23)
    6800                      .dwattr $C$DW$1128, DW_AT_name("TBPRDHR")
    6801                      .dwattr $C$DW$1128, DW_AT_TI_symbol_name("_TBPRDHR")
    6802                      .dwattr $C$DW$1128, DW_AT_data_member_location[DW_OP_plus_uconst 0x6]
    6803                      .dwattr $C$DW$1128, DW_AT_accessibility(DW_ACCESS_public)
    6804              $C$DW$1129      .dwtag  DW_TAG_member
    6805                      .dwattr $C$DW$1129, DW_AT_type(*$C$DW$T$23)
    6806                      .dwattr $C$DW$1129, DW_AT_name("CMPCTL")
    6807                      .dwattr $C$DW$1129, DW_AT_TI_symbol_name("_CMPCTL")
TMS320C2000 Assembler PC v6.2.5 Tue Nov 21 22:57:45 2017

Tools Copyright (c) 1996-2014 Texas Instruments Incorporated
C:\Users\wmj\AppData\Local\Temp\1055210                              PAGE  128

    6808                      .dwattr $C$DW$1129, DW_AT_data_member_location[DW_OP_plus_uconst 0x7]
    6809                      .dwattr $C$DW$1129, DW_AT_accessibility(DW_ACCESS_public)
    6810              $C$DW$1130      .dwtag  DW_TAG_member
    6811                      .dwattr $C$DW$1130, DW_AT_type(*$C$DW$T$23)
    6812                      .dwattr $C$DW$1130, DW_AT_name("CMPAHR")
    6813                      .dwattr $C$DW$1130, DW_AT_TI_symbol_name("_CMPAHR")
    6814                      .dwattr $C$DW$1130, DW_AT_data_member_location[DW_OP_plus_uconst 0x8]
    6815                      .dwattr $C$DW$1130, DW_AT_accessibility(DW_ACCESS_public)
    6816              $C$DW$1131      .dwtag  DW_TAG_member
    6817                      .dwattr $C$DW$1131, DW_AT_type(*$C$DW$T$23)
    6818                      .dwattr $C$DW$1131, DW_AT_name("CMPA")
    6819                      .dwattr $C$DW$1131, DW_AT_TI_symbol_name("_CMPA")
    6820                      .dwattr $C$DW$1131, DW_AT_data_member_location[DW_OP_plus_uconst 0x9]
    6821                      .dwattr $C$DW$1131, DW_AT_accessibility(DW_ACCESS_public)
    6822              $C$DW$1132      .dwtag  DW_TAG_member
    6823                      .dwattr $C$DW$1132, DW_AT_type(*$C$DW$T$23)
    6824                      .dwattr $C$DW$1132, DW_AT_name("CMPB")
    6825                      .dwattr $C$DW$1132, DW_AT_TI_symbol_name("_CMPB")
    6826                      .dwattr $C$DW$1132, DW_AT_data_member_location[DW_OP_plus_uconst 0xa]
    6827                      .dwattr $C$DW$1132, DW_AT_accessibility(DW_ACCESS_public)
    6828              $C$DW$1133      .dwtag  DW_TAG_member
    6829                      .dwattr $C$DW$1133, DW_AT_type(*$C$DW$T$23)
    6830                      .dwattr $C$DW$1133, DW_AT_name("AQCTLA")
    6831                      .dwattr $C$DW$1133, DW_AT_TI_symbol_name("_AQCTLA")
    6832                      .dwattr $C$DW$1133, DW_AT_data_member_location[DW_OP_plus_uconst 0xb]
    6833                      .dwattr $C$DW$1133, DW_AT_accessibility(DW_ACCESS_public)
    6834              $C$DW$1134      .dwtag  DW_TAG_member
    6835                      .dwattr $C$DW$1134, DW_AT_type(*$C$DW$T$23)
    6836                      .dwattr $C$DW$1134, DW_AT_name("AQCTLB")
    6837                      .dwattr $C$DW$1134, DW_AT_TI_symbol_name("_AQCTLB")
    6838                      .dwattr $C$DW$1134, DW_AT_data_member_location[DW_OP_plus_uconst 0xc]
    6839                      .dwattr $C$DW$1134, DW_AT_accessibility(DW_ACCESS_public)
    6840              $C$DW$1135      .dwtag  DW_TAG_member
    6841                      .dwattr $C$DW$1135, DW_AT_type(*$C$DW$T$23)
    6842                      .dwattr $C$DW$1135, DW_AT_name("AQSFRC")
    6843                      .dwattr $C$DW$1135, DW_AT_TI_symbol_name("_AQSFRC")
    6844                      .dwattr $C$DW$1135, DW_AT_data_member_location[DW_OP_plus_uconst 0xd]
    6845                      .dwattr $C$DW$1135, DW_AT_accessibility(DW_ACCESS_public)
    6846              $C$DW$1136      .dwtag  DW_TAG_member
    6847                      .dwattr $C$DW$1136, DW_AT_type(*$C$DW$T$23)
    6848                      .dwattr $C$DW$1136, DW_AT_name("AQCSFRC")
    6849                      .dwattr $C$DW$1136, DW_AT_TI_symbol_name("_AQCSFRC")
    6850                      .dwattr $C$DW$1136, DW_AT_data_member_location[DW_OP_plus_uconst 0xe]
    6851                      .dwattr $C$DW$1136, DW_AT_accessibility(DW_ACCESS_public)
    6852              $C$DW$1137      .dwtag  DW_TAG_member
    6853                      .dwattr $C$DW$1137, DW_AT_type(*$C$DW$T$23)
    6854                      .dwattr $C$DW$1137, DW_AT_name("DBCTL")
    6855                      .dwattr $C$DW$1137, DW_AT_TI_symbol_name("_DBCTL")
    6856                      .dwattr $C$DW$1137, DW_AT_data_member_location[DW_OP_plus_uconst 0xf]
    6857                      .dwattr $C$DW$1137, DW_AT_accessibility(DW_ACCESS_public)
    6858              $C$DW$1138      .dwtag  DW_TAG_member
    6859                      .dwattr $C$DW$1138, DW_AT_type(*$C$DW$T$23)
    6860                      .dwattr $C$DW$1138, DW_AT_name("DBRED")
    6861                      .dwattr $C$DW$1138, DW_AT_TI_symbol_name("_DBRED")
    6862                      .dwattr $C$DW$1138, DW_AT_data_member_location[DW_OP_plus_uconst 0x10]
TMS320C2000 Assembler PC v6.2.5 Tue Nov 21 22:57:45 2017

Tools Copyright (c) 1996-2014 Texas Instruments Incorporated
C:\Users\wmj\AppData\Local\Temp\1055210                              PAGE  129

    6863                      .dwattr $C$DW$1138, DW_AT_accessibility(DW_ACCESS_public)
    6864              $C$DW$1139      .dwtag  DW_TAG_member
    6865                      .dwattr $C$DW$1139, DW_AT_type(*$C$DW$T$23)
    6866                      .dwattr $C$DW$1139, DW_AT_name("DBFED")
    6867                      .dwattr $C$DW$1139, DW_AT_TI_symbol_name("_DBFED")
    6868                      .dwattr $C$DW$1139, DW_AT_data_member_location[DW_OP_plus_uconst 0x11]
    6869                      .dwattr $C$DW$1139, DW_AT_accessibility(DW_ACCESS_public)
    6870              $C$DW$1140      .dwtag  DW_TAG_member
    6871                      .dwattr $C$DW$1140, DW_AT_type(*$C$DW$T$23)
    6872                      .dwattr $C$DW$1140, DW_AT_name("TZSEL")
    6873                      .dwattr $C$DW$1140, DW_AT_TI_symbol_name("_TZSEL")
    6874                      .dwattr $C$DW$1140, DW_AT_data_member_location[DW_OP_plus_uconst 0x12]
    6875                      .dwattr $C$DW$1140, DW_AT_accessibility(DW_ACCESS_public)
    6876              $C$DW$1141      .dwtag  DW_TAG_member
    6877                      .dwattr $C$DW$1141, DW_AT_type(*$C$DW$T$23)
    6878                      .dwattr $C$DW$1141, DW_AT_name("TZDCSEL")
    6879                      .dwattr $C$DW$1141, DW_AT_TI_symbol_name("_TZDCSEL")
    6880                      .dwattr $C$DW$1141, DW_AT_data_member_location[DW_OP_plus_uconst 0x13]
    6881                      .dwattr $C$DW$1141, DW_AT_accessibility(DW_ACCESS_public)
    6882              $C$DW$1142      .dwtag  DW_TAG_member
    6883                      .dwattr $C$DW$1142, DW_AT_type(*$C$DW$T$23)
    6884                      .dwattr $C$DW$1142, DW_AT_name("TZCTL")
    6885                      .dwattr $C$DW$1142, DW_AT_TI_symbol_name("_TZCTL")
    6886                      .dwattr $C$DW$1142, DW_AT_data_member_location[DW_OP_plus_uconst 0x14]
    6887                      .dwattr $C$DW$1142, DW_AT_accessibility(DW_ACCESS_public)
    6888              $C$DW$1143      .dwtag  DW_TAG_member
    6889                      .dwattr $C$DW$1143, DW_AT_type(*$C$DW$T$23)
    6890                      .dwattr $C$DW$1143, DW_AT_name("TZEINT")
    6891                      .dwattr $C$DW$1143, DW_AT_TI_symbol_name("_TZEINT")
    6892                      .dwattr $C$DW$1143, DW_AT_data_member_location[DW_OP_plus_uconst 0x15]
    6893                      .dwattr $C$DW$1143, DW_AT_accessibility(DW_ACCESS_public)
    6894              $C$DW$1144      .dwtag  DW_TAG_member
    6895                      .dwattr $C$DW$1144, DW_AT_type(*$C$DW$T$23)
    6896                      .dwattr $C$DW$1144, DW_AT_name("TZFLG")
    6897                      .dwattr $C$DW$1144, DW_AT_TI_symbol_name("_TZFLG")
    6898                      .dwattr $C$DW$1144, DW_AT_data_member_location[DW_OP_plus_uconst 0x16]
    6899                      .dwattr $C$DW$1144, DW_AT_accessibility(DW_ACCESS_public)
    6900              $C$DW$1145      .dwtag  DW_TAG_member
    6901                      .dwattr $C$DW$1145, DW_AT_type(*$C$DW$T$23)
    6902                      .dwattr $C$DW$1145, DW_AT_name("TZCLR")
    6903                      .dwattr $C$DW$1145, DW_AT_TI_symbol_name("_TZCLR")
    6904                      .dwattr $C$DW$1145, DW_AT_data_member_location[DW_OP_plus_uconst 0x17]
    6905                      .dwattr $C$DW$1145, DW_AT_accessibility(DW_ACCESS_public)
    6906              $C$DW$1146      .dwtag  DW_TAG_member
    6907                      .dwattr $C$DW$1146, DW_AT_type(*$C$DW$T$23)
    6908                      .dwattr $C$DW$1146, DW_AT_name("TZFRC")
    6909                      .dwattr $C$DW$1146, DW_AT_TI_symbol_name("_TZFRC")
    6910                      .dwattr $C$DW$1146, DW_AT_data_member_location[DW_OP_plus_uconst 0x18]
    6911                      .dwattr $C$DW$1146, DW_AT_accessibility(DW_ACCESS_public)
    6912              $C$DW$1147      .dwtag  DW_TAG_member
    6913                      .dwattr $C$DW$1147, DW_AT_type(*$C$DW$T$23)
    6914                      .dwattr $C$DW$1147, DW_AT_name("ETSEL")
    6915                      .dwattr $C$DW$1147, DW_AT_TI_symbol_name("_ETSEL")
    6916                      .dwattr $C$DW$1147, DW_AT_data_member_location[DW_OP_plus_uconst 0x19]
    6917                      .dwattr $C$DW$1147, DW_AT_accessibility(DW_ACCESS_public)
TMS320C2000 Assembler PC v6.2.5 Tue Nov 21 22:57:45 2017

Tools Copyright (c) 1996-2014 Texas Instruments Incorporated
C:\Users\wmj\AppData\Local\Temp\1055210                              PAGE  130

    6918              $C$DW$1148      .dwtag  DW_TAG_member
    6919                      .dwattr $C$DW$1148, DW_AT_type(*$C$DW$T$23)
    6920                      .dwattr $C$DW$1148, DW_AT_name("ETPS")
    6921                      .dwattr $C$DW$1148, DW_AT_TI_symbol_name("_ETPS")
    6922                      .dwattr $C$DW$1148, DW_AT_data_member_location[DW_OP_plus_uconst 0x1a]
    6923                      .dwattr $C$DW$1148, DW_AT_accessibility(DW_ACCESS_public)
    6924              $C$DW$1149      .dwtag  DW_TAG_member
    6925                      .dwattr $C$DW$1149, DW_AT_type(*$C$DW$T$23)
    6926                      .dwattr $C$DW$1149, DW_AT_name("ETFLG")
    6927                      .dwattr $C$DW$1149, DW_AT_TI_symbol_name("_ETFLG")
    6928                      .dwattr $C$DW$1149, DW_AT_data_member_location[DW_OP_plus_uconst 0x1b]
    6929                      .dwattr $C$DW$1149, DW_AT_accessibility(DW_ACCESS_public)
    6930              $C$DW$1150      .dwtag  DW_TAG_member
    6931                      .dwattr $C$DW$1150, DW_AT_type(*$C$DW$T$23)
    6932                      .dwattr $C$DW$1150, DW_AT_name("ETCLR")
    6933                      .dwattr $C$DW$1150, DW_AT_TI_symbol_name("_ETCLR")
    6934                      .dwattr $C$DW$1150, DW_AT_data_member_location[DW_OP_plus_uconst 0x1c]
    6935                      .dwattr $C$DW$1150, DW_AT_accessibility(DW_ACCESS_public)
    6936              $C$DW$1151      .dwtag  DW_TAG_member
    6937                      .dwattr $C$DW$1151, DW_AT_type(*$C$DW$T$23)
    6938                      .dwattr $C$DW$1151, DW_AT_name("ETFRC")
    6939                      .dwattr $C$DW$1151, DW_AT_TI_symbol_name("_ETFRC")
    6940                      .dwattr $C$DW$1151, DW_AT_data_member_location[DW_OP_plus_uconst 0x1d]
    6941                      .dwattr $C$DW$1151, DW_AT_accessibility(DW_ACCESS_public)
    6942              $C$DW$1152      .dwtag  DW_TAG_member
    6943                      .dwattr $C$DW$1152, DW_AT_type(*$C$DW$T$23)
    6944                      .dwattr $C$DW$1152, DW_AT_name("PCCTL")
    6945                      .dwattr $C$DW$1152, DW_AT_TI_symbol_name("_PCCTL")
    6946                      .dwattr $C$DW$1152, DW_AT_data_member_location[DW_OP_plus_uconst 0x1e]
    6947                      .dwattr $C$DW$1152, DW_AT_accessibility(DW_ACCESS_public)
    6948              $C$DW$1153      .dwtag  DW_TAG_member
    6949                      .dwattr $C$DW$1153, DW_AT_type(*$C$DW$T$23)
    6950                      .dwattr $C$DW$1153, DW_AT_name("rsvd_1")
    6951                      .dwattr $C$DW$1153, DW_AT_TI_symbol_name("_rsvd_1")
    6952                      .dwattr $C$DW$1153, DW_AT_data_member_location[DW_OP_plus_uconst 0x1f]
    6953                      .dwattr $C$DW$1153, DW_AT_accessibility(DW_ACCESS_public)
    6954              $C$DW$1154      .dwtag  DW_TAG_member
    6955                      .dwattr $C$DW$1154, DW_AT_type(*$C$DW$T$23)
    6956                      .dwattr $C$DW$1154, DW_AT_name("HRCNFG")
    6957                      .dwattr $C$DW$1154, DW_AT_TI_symbol_name("_HRCNFG")
    6958                      .dwattr $C$DW$1154, DW_AT_data_member_location[DW_OP_plus_uconst 0x20]
    6959                      .dwattr $C$DW$1154, DW_AT_accessibility(DW_ACCESS_public)
    6960              $C$DW$1155      .dwtag  DW_TAG_member
    6961                      .dwattr $C$DW$1155, DW_AT_type(*$C$DW$T$23)
    6962                      .dwattr $C$DW$1155, DW_AT_name("HRPWR")
    6963                      .dwattr $C$DW$1155, DW_AT_TI_symbol_name("_HRPWR")
    6964                      .dwattr $C$DW$1155, DW_AT_data_member_location[DW_OP_plus_uconst 0x21]
    6965                      .dwattr $C$DW$1155, DW_AT_accessibility(DW_ACCESS_public)
    6966              $C$DW$1156      .dwtag  DW_TAG_member
    6967                      .dwattr $C$DW$1156, DW_AT_type(*$C$DW$T$114)
    6968                      .dwattr $C$DW$1156, DW_AT_name("rsvd_2")
    6969                      .dwattr $C$DW$1156, DW_AT_TI_symbol_name("_rsvd_2")
    6970                      .dwattr $C$DW$1156, DW_AT_data_member_location[DW_OP_plus_uconst 0x22]
    6971                      .dwattr $C$DW$1156, DW_AT_accessibility(DW_ACCESS_public)
    6972              $C$DW$1157      .dwtag  DW_TAG_member
TMS320C2000 Assembler PC v6.2.5 Tue Nov 21 22:57:45 2017

Tools Copyright (c) 1996-2014 Texas Instruments Incorporated
C:\Users\wmj\AppData\Local\Temp\1055210                              PAGE  131

    6973                      .dwattr $C$DW$1157, DW_AT_type(*$C$DW$T$23)
    6974                      .dwattr $C$DW$1157, DW_AT_name("HRMSTEP")
    6975                      .dwattr $C$DW$1157, DW_AT_TI_symbol_name("_HRMSTEP")
    6976                      .dwattr $C$DW$1157, DW_AT_data_member_location[DW_OP_plus_uconst 0x26]
    6977                      .dwattr $C$DW$1157, DW_AT_accessibility(DW_ACCESS_public)
    6978              $C$DW$1158      .dwtag  DW_TAG_member
    6979                      .dwattr $C$DW$1158, DW_AT_type(*$C$DW$T$23)
    6980                      .dwattr $C$DW$1158, DW_AT_name("rsvd_3")
    6981                      .dwattr $C$DW$1158, DW_AT_TI_symbol_name("_rsvd_3")
    6982                      .dwattr $C$DW$1158, DW_AT_data_member_location[DW_OP_plus_uconst 0x27]
    6983                      .dwattr $C$DW$1158, DW_AT_accessibility(DW_ACCESS_public)
    6984              $C$DW$1159      .dwtag  DW_TAG_member
    6985                      .dwattr $C$DW$1159, DW_AT_type(*$C$DW$T$23)
    6986                      .dwattr $C$DW$1159, DW_AT_name("HRPCTL")
    6987                      .dwattr $C$DW$1159, DW_AT_TI_symbol_name("_HRPCTL")
    6988                      .dwattr $C$DW$1159, DW_AT_data_member_location[DW_OP_plus_uconst 0x28]
    6989                      .dwattr $C$DW$1159, DW_AT_accessibility(DW_ACCESS_public)
    6990              $C$DW$1160      .dwtag  DW_TAG_member
    6991                      .dwattr $C$DW$1160, DW_AT_type(*$C$DW$T$23)
    6992                      .dwattr $C$DW$1160, DW_AT_name("rsvd_4")
    6993                      .dwattr $C$DW$1160, DW_AT_TI_symbol_name("_rsvd_4")
    6994                      .dwattr $C$DW$1160, DW_AT_data_member_location[DW_OP_plus_uconst 0x29]
    6995                      .dwattr $C$DW$1160, DW_AT_accessibility(DW_ACCESS_public)
    6996              $C$DW$1161      .dwtag  DW_TAG_member
    6997                      .dwattr $C$DW$1161, DW_AT_type(*$C$DW$T$23)
    6998                      .dwattr $C$DW$1161, DW_AT_name("TBPRDHRM")
    6999                      .dwattr $C$DW$1161, DW_AT_TI_symbol_name("_TBPRDHRM")
    7000                      .dwattr $C$DW$1161, DW_AT_data_member_location[DW_OP_plus_uconst 0x2a]
    7001                      .dwattr $C$DW$1161, DW_AT_accessibility(DW_ACCESS_public)
    7002              $C$DW$1162      .dwtag  DW_TAG_member
    7003                      .dwattr $C$DW$1162, DW_AT_type(*$C$DW$T$23)
    7004                      .dwattr $C$DW$1162, DW_AT_name("TBPRDM")
    7005                      .dwattr $C$DW$1162, DW_AT_TI_symbol_name("_TBPRDM")
    7006                      .dwattr $C$DW$1162, DW_AT_data_member_location[DW_OP_plus_uconst 0x2b]
    7007                      .dwattr $C$DW$1162, DW_AT_accessibility(DW_ACCESS_public)
    7008              $C$DW$1163      .dwtag  DW_TAG_member
    7009                      .dwattr $C$DW$1163, DW_AT_type(*$C$DW$T$23)
    7010                      .dwattr $C$DW$1163, DW_AT_name("CMPAHRM")
    7011                      .dwattr $C$DW$1163, DW_AT_TI_symbol_name("_CMPAHRM")
    7012                      .dwattr $C$DW$1163, DW_AT_data_member_location[DW_OP_plus_uconst 0x2c]
    7013                      .dwattr $C$DW$1163, DW_AT_accessibility(DW_ACCESS_public)
    7014              $C$DW$1164      .dwtag  DW_TAG_member
    7015                      .dwattr $C$DW$1164, DW_AT_type(*$C$DW$T$23)
    7016                      .dwattr $C$DW$1164, DW_AT_name("CMPAM")
    7017                      .dwattr $C$DW$1164, DW_AT_TI_symbol_name("_CMPAM")
    7018                      .dwattr $C$DW$1164, DW_AT_data_member_location[DW_OP_plus_uconst 0x2d]
    7019                      .dwattr $C$DW$1164, DW_AT_accessibility(DW_ACCESS_public)
    7020              $C$DW$1165      .dwtag  DW_TAG_member
    7021                      .dwattr $C$DW$1165, DW_AT_type(*$C$DW$T$26)
    7022                      .dwattr $C$DW$1165, DW_AT_name("rsvd_5")
    7023                      .dwattr $C$DW$1165, DW_AT_TI_symbol_name("_rsvd_5")
    7024                      .dwattr $C$DW$1165, DW_AT_data_member_location[DW_OP_plus_uconst 0x2e]
    7025                      .dwattr $C$DW$1165, DW_AT_accessibility(DW_ACCESS_public)
    7026              $C$DW$1166      .dwtag  DW_TAG_member
    7027                      .dwattr $C$DW$1166, DW_AT_type(*$C$DW$T$23)
TMS320C2000 Assembler PC v6.2.5 Tue Nov 21 22:57:45 2017

Tools Copyright (c) 1996-2014 Texas Instruments Incorporated
C:\Users\wmj\AppData\Local\Temp\1055210                              PAGE  132

    7028                      .dwattr $C$DW$1166, DW_AT_name("DCTRIPSEL")
    7029                      .dwattr $C$DW$1166, DW_AT_TI_symbol_name("_DCTRIPSEL")
    7030                      .dwattr $C$DW$1166, DW_AT_data_member_location[DW_OP_plus_uconst 0x30]
    7031                      .dwattr $C$DW$1166, DW_AT_accessibility(DW_ACCESS_public)
    7032              $C$DW$1167      .dwtag  DW_TAG_member
    7033                      .dwattr $C$DW$1167, DW_AT_type(*$C$DW$T$23)
    7034                      .dwattr $C$DW$1167, DW_AT_name("DCACTL")
    7035                      .dwattr $C$DW$1167, DW_AT_TI_symbol_name("_DCACTL")
    7036                      .dwattr $C$DW$1167, DW_AT_data_member_location[DW_OP_plus_uconst 0x31]
    7037                      .dwattr $C$DW$1167, DW_AT_accessibility(DW_ACCESS_public)
    7038              $C$DW$1168      .dwtag  DW_TAG_member
    7039                      .dwattr $C$DW$1168, DW_AT_type(*$C$DW$T$23)
    7040                      .dwattr $C$DW$1168, DW_AT_name("DCBCTL")
    7041                      .dwattr $C$DW$1168, DW_AT_TI_symbol_name("_DCBCTL")
    7042                      .dwattr $C$DW$1168, DW_AT_data_member_location[DW_OP_plus_uconst 0x32]
    7043                      .dwattr $C$DW$1168, DW_AT_accessibility(DW_ACCESS_public)
    7044              $C$DW$1169      .dwtag  DW_TAG_member
    7045                      .dwattr $C$DW$1169, DW_AT_type(*$C$DW$T$23)
    7046                      .dwattr $C$DW$1169, DW_AT_name("DCFCTL")
    7047                      .dwattr $C$DW$1169, DW_AT_TI_symbol_name("_DCFCTL")
    7048                      .dwattr $C$DW$1169, DW_AT_data_member_location[DW_OP_plus_uconst 0x33]
    7049                      .dwattr $C$DW$1169, DW_AT_accessibility(DW_ACCESS_public)
    7050              $C$DW$1170      .dwtag  DW_TAG_member
    7051                      .dwattr $C$DW$1170, DW_AT_type(*$C$DW$T$23)
    7052                      .dwattr $C$DW$1170, DW_AT_name("DCCAPCTL")
    7053                      .dwattr $C$DW$1170, DW_AT_TI_symbol_name("_DCCAPCTL")
    7054                      .dwattr $C$DW$1170, DW_AT_data_member_location[DW_OP_plus_uconst 0x34]
    7055                      .dwattr $C$DW$1170, DW_AT_accessibility(DW_ACCESS_public)
    7056              $C$DW$1171      .dwtag  DW_TAG_member
    7057                      .dwattr $C$DW$1171, DW_AT_type(*$C$DW$T$23)
    7058                      .dwattr $C$DW$1171, DW_AT_name("DCFOFFSET")
    7059                      .dwattr $C$DW$1171, DW_AT_TI_symbol_name("_DCFOFFSET")
    7060                      .dwattr $C$DW$1171, DW_AT_data_member_location[DW_OP_plus_uconst 0x35]
    7061                      .dwattr $C$DW$1171, DW_AT_accessibility(DW_ACCESS_public)
    7062              $C$DW$1172      .dwtag  DW_TAG_member
    7063                      .dwattr $C$DW$1172, DW_AT_type(*$C$DW$T$23)
    7064                      .dwattr $C$DW$1172, DW_AT_name("DCFOFFSETCNT")
    7065                      .dwattr $C$DW$1172, DW_AT_TI_symbol_name("_DCFOFFSETCNT")
    7066                      .dwattr $C$DW$1172, DW_AT_data_member_location[DW_OP_plus_uconst 0x36]
    7067                      .dwattr $C$DW$1172, DW_AT_accessibility(DW_ACCESS_public)
    7068              $C$DW$1173      .dwtag  DW_TAG_member
    7069                      .dwattr $C$DW$1173, DW_AT_type(*$C$DW$T$23)
    7070                      .dwattr $C$DW$1173, DW_AT_name("DCFWINDOW")
    7071                      .dwattr $C$DW$1173, DW_AT_TI_symbol_name("_DCFWINDOW")
    7072                      .dwattr $C$DW$1173, DW_AT_data_member_location[DW_OP_plus_uconst 0x37]
    7073                      .dwattr $C$DW$1173, DW_AT_accessibility(DW_ACCESS_public)
    7074              $C$DW$1174      .dwtag  DW_TAG_member
    7075                      .dwattr $C$DW$1174, DW_AT_type(*$C$DW$T$23)
    7076                      .dwattr $C$DW$1174, DW_AT_name("DCFWINDOWCNT")
    7077                      .dwattr $C$DW$1174, DW_AT_TI_symbol_name("_DCFWINDOWCNT")
    7078                      .dwattr $C$DW$1174, DW_AT_data_member_location[DW_OP_plus_uconst 0x38]
    7079                      .dwattr $C$DW$1174, DW_AT_accessibility(DW_ACCESS_public)
    7080              $C$DW$1175      .dwtag  DW_TAG_member
    7081                      .dwattr $C$DW$1175, DW_AT_type(*$C$DW$T$23)
    7082                      .dwattr $C$DW$1175, DW_AT_name("DCCAP")
TMS320C2000 Assembler PC v6.2.5 Tue Nov 21 22:57:45 2017

Tools Copyright (c) 1996-2014 Texas Instruments Incorporated
C:\Users\wmj\AppData\Local\Temp\1055210                              PAGE  133

    7083                      .dwattr $C$DW$1175, DW_AT_TI_symbol_name("_DCCAP")
    7084                      .dwattr $C$DW$1175, DW_AT_data_member_location[DW_OP_plus_uconst 0x39]
    7085                      .dwattr $C$DW$1175, DW_AT_accessibility(DW_ACCESS_public)
    7086                      .dwendtag $C$DW$T$224
    7087              
    7088              $C$DW$T$288     .dwtag  DW_TAG_typedef, DW_AT_name("PWM_Obj")
    7089                      .dwattr $C$DW$T$288, DW_AT_type(*$C$DW$T$224)
    7090                      .dwattr $C$DW$T$288, DW_AT_language(DW_LANG_C)
    7091              $C$DW$T$139     .dwtag  DW_TAG_pointer_type
    7092                      .dwattr $C$DW$T$139, DW_AT_type(*$C$DW$T$224)
    7093                      .dwattr $C$DW$T$139, DW_AT_address_class(0x16)
    7094              $C$DW$T$140     .dwtag  DW_TAG_typedef, DW_AT_name("PWM_Handle")
    7095                      .dwattr $C$DW$T$140, DW_AT_type(*$C$DW$T$139)
    7096                      .dwattr $C$DW$T$140, DW_AT_language(DW_LANG_C)
    7097              
    7098              $C$DW$T$141     .dwtag  DW_TAG_array_type
    7099                      .dwattr $C$DW$T$141, DW_AT_type(*$C$DW$T$140)
    7100                      .dwattr $C$DW$T$141, DW_AT_language(DW_LANG_C)
    7101                      .dwattr $C$DW$T$141, DW_AT_byte_size(0x06)
    7102              $C$DW$1176      .dwtag  DW_TAG_subrange_type
    7103                      .dwattr $C$DW$1176, DW_AT_upper_bound(0x02)
    7104                      .dwendtag $C$DW$T$141
    7105              
    7106              
    7107              $C$DW$T$226     .dwtag  DW_TAG_structure_type
    7108                      .dwattr $C$DW$T$226, DW_AT_name("_PWR_Obj_")
    7109                      .dwattr $C$DW$T$226, DW_AT_byte_size(0x669a)
    7110              $C$DW$1177      .dwtag  DW_TAG_member
    7111                      .dwattr $C$DW$1177, DW_AT_type(*$C$DW$T$23)
    7112                      .dwattr $C$DW$1177, DW_AT_name("BORCFG")
    7113                      .dwattr $C$DW$1177, DW_AT_TI_symbol_name("_BORCFG")
    7114                      .dwattr $C$DW$1177, DW_AT_data_member_location[DW_OP_plus_uconst 0x0]
    7115                      .dwattr $C$DW$1177, DW_AT_accessibility(DW_ACCESS_public)
    7116              $C$DW$1178      .dwtag  DW_TAG_member
    7117                      .dwattr $C$DW$1178, DW_AT_type(*$C$DW$T$225)
    7118                      .dwattr $C$DW$1178, DW_AT_name("rsvd_1")
    7119                      .dwattr $C$DW$1178, DW_AT_TI_symbol_name("_rsvd_1")
    7120                      .dwattr $C$DW$1178, DW_AT_data_member_location[DW_OP_plus_uconst 0x1]
    7121                      .dwattr $C$DW$1178, DW_AT_accessibility(DW_ACCESS_public)
    7122              $C$DW$1179      .dwtag  DW_TAG_member
    7123                      .dwattr $C$DW$1179, DW_AT_type(*$C$DW$T$23)
    7124                      .dwattr $C$DW$1179, DW_AT_name("LPMCR0")
    7125                      .dwattr $C$DW$1179, DW_AT_TI_symbol_name("_LPMCR0")
    7126                      .dwattr $C$DW$1179, DW_AT_data_member_location[DW_OP_plus_uconst 0x6699]
    7127                      .dwattr $C$DW$1179, DW_AT_accessibility(DW_ACCESS_public)
    7128                      .dwendtag $C$DW$T$226
    7129              
    7130              $C$DW$T$142     .dwtag  DW_TAG_pointer_type
    7131                      .dwattr $C$DW$T$142, DW_AT_type(*$C$DW$T$226)
    7132                      .dwattr $C$DW$T$142, DW_AT_address_class(0x16)
    7133              $C$DW$T$143     .dwtag  DW_TAG_typedef, DW_AT_name("PWR_Handle")
    7134                      .dwattr $C$DW$T$143, DW_AT_type(*$C$DW$T$142)
    7135                      .dwattr $C$DW$T$143, DW_AT_language(DW_LANG_C)
    7136              
    7137              $C$DW$T$227     .dwtag  DW_TAG_structure_type
TMS320C2000 Assembler PC v6.2.5 Tue Nov 21 22:57:45 2017

Tools Copyright (c) 1996-2014 Texas Instruments Incorporated
C:\Users\wmj\AppData\Local\Temp\1055210                              PAGE  134

    7138                      .dwattr $C$DW$T$227, DW_AT_name("_SCI_Obj_")
    7139                      .dwattr $C$DW$T$227, DW_AT_byte_size(0x10)
    7140              $C$DW$1180      .dwtag  DW_TAG_member
    7141                      .dwattr $C$DW$1180, DW_AT_type(*$C$DW$T$23)
    7142                      .dwattr $C$DW$1180, DW_AT_name("SCICCR")
    7143                      .dwattr $C$DW$1180, DW_AT_TI_symbol_name("_SCICCR")
    7144                      .dwattr $C$DW$1180, DW_AT_data_member_location[DW_OP_plus_uconst 0x0]
    7145                      .dwattr $C$DW$1180, DW_AT_accessibility(DW_ACCESS_public)
    7146              $C$DW$1181      .dwtag  DW_TAG_member
    7147                      .dwattr $C$DW$1181, DW_AT_type(*$C$DW$T$23)
    7148                      .dwattr $C$DW$1181, DW_AT_name("SCICTL1")
    7149                      .dwattr $C$DW$1181, DW_AT_TI_symbol_name("_SCICTL1")
    7150                      .dwattr $C$DW$1181, DW_AT_data_member_location[DW_OP_plus_uconst 0x1]
    7151                      .dwattr $C$DW$1181, DW_AT_accessibility(DW_ACCESS_public)
    7152              $C$DW$1182      .dwtag  DW_TAG_member
    7153                      .dwattr $C$DW$1182, DW_AT_type(*$C$DW$T$23)
    7154                      .dwattr $C$DW$1182, DW_AT_name("SCIHBAUD")
    7155                      .dwattr $C$DW$1182, DW_AT_TI_symbol_name("_SCIHBAUD")
    7156                      .dwattr $C$DW$1182, DW_AT_data_member_location[DW_OP_plus_uconst 0x2]
    7157                      .dwattr $C$DW$1182, DW_AT_accessibility(DW_ACCESS_public)
    7158              $C$DW$1183      .dwtag  DW_TAG_member
    7159                      .dwattr $C$DW$1183, DW_AT_type(*$C$DW$T$23)
    7160                      .dwattr $C$DW$1183, DW_AT_name("SCILBAUD")
    7161                      .dwattr $C$DW$1183, DW_AT_TI_symbol_name("_SCILBAUD")
    7162                      .dwattr $C$DW$1183, DW_AT_data_member_location[DW_OP_plus_uconst 0x3]
    7163                      .dwattr $C$DW$1183, DW_AT_accessibility(DW_ACCESS_public)
    7164              $C$DW$1184      .dwtag  DW_TAG_member
    7165                      .dwattr $C$DW$1184, DW_AT_type(*$C$DW$T$23)
    7166                      .dwattr $C$DW$1184, DW_AT_name("SCICTL2")
    7167                      .dwattr $C$DW$1184, DW_AT_TI_symbol_name("_SCICTL2")
    7168                      .dwattr $C$DW$1184, DW_AT_data_member_location[DW_OP_plus_uconst 0x4]
    7169                      .dwattr $C$DW$1184, DW_AT_accessibility(DW_ACCESS_public)
    7170              $C$DW$1185      .dwtag  DW_TAG_member
    7171                      .dwattr $C$DW$1185, DW_AT_type(*$C$DW$T$23)
    7172                      .dwattr $C$DW$1185, DW_AT_name("SCIRXST")
    7173                      .dwattr $C$DW$1185, DW_AT_TI_symbol_name("_SCIRXST")
    7174                      .dwattr $C$DW$1185, DW_AT_data_member_location[DW_OP_plus_uconst 0x5]
    7175                      .dwattr $C$DW$1185, DW_AT_accessibility(DW_ACCESS_public)
    7176              $C$DW$1186      .dwtag  DW_TAG_member
    7177                      .dwattr $C$DW$1186, DW_AT_type(*$C$DW$T$23)
    7178                      .dwattr $C$DW$1186, DW_AT_name("SCIRXEMU")
    7179                      .dwattr $C$DW$1186, DW_AT_TI_symbol_name("_SCIRXEMU")
    7180                      .dwattr $C$DW$1186, DW_AT_data_member_location[DW_OP_plus_uconst 0x6]
    7181                      .dwattr $C$DW$1186, DW_AT_accessibility(DW_ACCESS_public)
    7182              $C$DW$1187      .dwtag  DW_TAG_member
    7183                      .dwattr $C$DW$1187, DW_AT_type(*$C$DW$T$23)
    7184                      .dwattr $C$DW$1187, DW_AT_name("SCIRXBUF")
    7185                      .dwattr $C$DW$1187, DW_AT_TI_symbol_name("_SCIRXBUF")
    7186                      .dwattr $C$DW$1187, DW_AT_data_member_location[DW_OP_plus_uconst 0x7]
    7187                      .dwattr $C$DW$1187, DW_AT_accessibility(DW_ACCESS_public)
    7188              $C$DW$1188      .dwtag  DW_TAG_member
    7189                      .dwattr $C$DW$1188, DW_AT_type(*$C$DW$T$23)
    7190                      .dwattr $C$DW$1188, DW_AT_name("rsvd_1")
    7191                      .dwattr $C$DW$1188, DW_AT_TI_symbol_name("_rsvd_1")
    7192                      .dwattr $C$DW$1188, DW_AT_data_member_location[DW_OP_plus_uconst 0x8]
TMS320C2000 Assembler PC v6.2.5 Tue Nov 21 22:57:45 2017

Tools Copyright (c) 1996-2014 Texas Instruments Incorporated
C:\Users\wmj\AppData\Local\Temp\1055210                              PAGE  135

    7193                      .dwattr $C$DW$1188, DW_AT_accessibility(DW_ACCESS_public)
    7194              $C$DW$1189      .dwtag  DW_TAG_member
    7195                      .dwattr $C$DW$1189, DW_AT_type(*$C$DW$T$23)
    7196                      .dwattr $C$DW$1189, DW_AT_name("SCITXBUF")
    7197                      .dwattr $C$DW$1189, DW_AT_TI_symbol_name("_SCITXBUF")
    7198                      .dwattr $C$DW$1189, DW_AT_data_member_location[DW_OP_plus_uconst 0x9]
    7199                      .dwattr $C$DW$1189, DW_AT_accessibility(DW_ACCESS_public)
    7200              $C$DW$1190      .dwtag  DW_TAG_member
    7201                      .dwattr $C$DW$1190, DW_AT_type(*$C$DW$T$23)
    7202                      .dwattr $C$DW$1190, DW_AT_name("SCIFFTX")
    7203                      .dwattr $C$DW$1190, DW_AT_TI_symbol_name("_SCIFFTX")
    7204                      .dwattr $C$DW$1190, DW_AT_data_member_location[DW_OP_plus_uconst 0xa]
    7205                      .dwattr $C$DW$1190, DW_AT_accessibility(DW_ACCESS_public)
    7206              $C$DW$1191      .dwtag  DW_TAG_member
    7207                      .dwattr $C$DW$1191, DW_AT_type(*$C$DW$T$23)
    7208                      .dwattr $C$DW$1191, DW_AT_name("SCIFFRX")
    7209                      .dwattr $C$DW$1191, DW_AT_TI_symbol_name("_SCIFFRX")
    7210                      .dwattr $C$DW$1191, DW_AT_data_member_location[DW_OP_plus_uconst 0xb]
    7211                      .dwattr $C$DW$1191, DW_AT_accessibility(DW_ACCESS_public)
    7212              $C$DW$1192      .dwtag  DW_TAG_member
    7213                      .dwattr $C$DW$1192, DW_AT_type(*$C$DW$T$23)
    7214                      .dwattr $C$DW$1192, DW_AT_name("SCIFFCT")
    7215                      .dwattr $C$DW$1192, DW_AT_TI_symbol_name("_SCIFFCT")
    7216                      .dwattr $C$DW$1192, DW_AT_data_member_location[DW_OP_plus_uconst 0xc]
    7217                      .dwattr $C$DW$1192, DW_AT_accessibility(DW_ACCESS_public)
    7218              $C$DW$1193      .dwtag  DW_TAG_member
    7219                      .dwattr $C$DW$1193, DW_AT_type(*$C$DW$T$26)
    7220                      .dwattr $C$DW$1193, DW_AT_name("rsvd_2")
    7221                      .dwattr $C$DW$1193, DW_AT_TI_symbol_name("_rsvd_2")
    7222                      .dwattr $C$DW$1193, DW_AT_data_member_location[DW_OP_plus_uconst 0xd]
    7223                      .dwattr $C$DW$1193, DW_AT_accessibility(DW_ACCESS_public)
    7224              $C$DW$1194      .dwtag  DW_TAG_member
    7225                      .dwattr $C$DW$1194, DW_AT_type(*$C$DW$T$23)
    7226                      .dwattr $C$DW$1194, DW_AT_name("SCIPRI")
    7227                      .dwattr $C$DW$1194, DW_AT_TI_symbol_name("_SCIPRI")
    7228                      .dwattr $C$DW$1194, DW_AT_data_member_location[DW_OP_plus_uconst 0xf]
    7229                      .dwattr $C$DW$1194, DW_AT_accessibility(DW_ACCESS_public)
    7230                      .dwendtag $C$DW$T$227
    7231              
    7232              $C$DW$T$151     .dwtag  DW_TAG_pointer_type
    7233                      .dwattr $C$DW$T$151, DW_AT_type(*$C$DW$T$227)
    7234                      .dwattr $C$DW$T$151, DW_AT_address_class(0x16)
    7235              $C$DW$T$152     .dwtag  DW_TAG_typedef, DW_AT_name("SCI_Handle")
    7236                      .dwattr $C$DW$T$152, DW_AT_type(*$C$DW$T$151)
    7237                      .dwattr $C$DW$T$152, DW_AT_language(DW_LANG_C)
    7238              
    7239              $C$DW$T$228     .dwtag  DW_TAG_structure_type
    7240                      .dwattr $C$DW$T$228, DW_AT_name("_SPI_Obj_")
    7241                      .dwattr $C$DW$T$228, DW_AT_byte_size(0x10)
    7242              $C$DW$1195      .dwtag  DW_TAG_member
    7243                      .dwattr $C$DW$1195, DW_AT_type(*$C$DW$T$23)
    7244                      .dwattr $C$DW$1195, DW_AT_name("SPICCR")
    7245                      .dwattr $C$DW$1195, DW_AT_TI_symbol_name("_SPICCR")
    7246                      .dwattr $C$DW$1195, DW_AT_data_member_location[DW_OP_plus_uconst 0x0]
    7247                      .dwattr $C$DW$1195, DW_AT_accessibility(DW_ACCESS_public)
TMS320C2000 Assembler PC v6.2.5 Tue Nov 21 22:57:45 2017

Tools Copyright (c) 1996-2014 Texas Instruments Incorporated
C:\Users\wmj\AppData\Local\Temp\1055210                              PAGE  136

    7248              $C$DW$1196      .dwtag  DW_TAG_member
    7249                      .dwattr $C$DW$1196, DW_AT_type(*$C$DW$T$23)
    7250                      .dwattr $C$DW$1196, DW_AT_name("SPICTL")
    7251                      .dwattr $C$DW$1196, DW_AT_TI_symbol_name("_SPICTL")
    7252                      .dwattr $C$DW$1196, DW_AT_data_member_location[DW_OP_plus_uconst 0x1]
    7253                      .dwattr $C$DW$1196, DW_AT_accessibility(DW_ACCESS_public)
    7254              $C$DW$1197      .dwtag  DW_TAG_member
    7255                      .dwattr $C$DW$1197, DW_AT_type(*$C$DW$T$23)
    7256                      .dwattr $C$DW$1197, DW_AT_name("SPIST")
    7257                      .dwattr $C$DW$1197, DW_AT_TI_symbol_name("_SPIST")
    7258                      .dwattr $C$DW$1197, DW_AT_data_member_location[DW_OP_plus_uconst 0x2]
    7259                      .dwattr $C$DW$1197, DW_AT_accessibility(DW_ACCESS_public)
    7260              $C$DW$1198      .dwtag  DW_TAG_member
    7261                      .dwattr $C$DW$1198, DW_AT_type(*$C$DW$T$23)
    7262                      .dwattr $C$DW$1198, DW_AT_name("rsvd_1")
    7263                      .dwattr $C$DW$1198, DW_AT_TI_symbol_name("_rsvd_1")
    7264                      .dwattr $C$DW$1198, DW_AT_data_member_location[DW_OP_plus_uconst 0x3]
    7265                      .dwattr $C$DW$1198, DW_AT_accessibility(DW_ACCESS_public)
    7266              $C$DW$1199      .dwtag  DW_TAG_member
    7267                      .dwattr $C$DW$1199, DW_AT_type(*$C$DW$T$23)
    7268                      .dwattr $C$DW$1199, DW_AT_name("SPIBRR")
    7269                      .dwattr $C$DW$1199, DW_AT_TI_symbol_name("_SPIBRR")
    7270                      .dwattr $C$DW$1199, DW_AT_data_member_location[DW_OP_plus_uconst 0x4]
    7271                      .dwattr $C$DW$1199, DW_AT_accessibility(DW_ACCESS_public)
    7272              $C$DW$1200      .dwtag  DW_TAG_member
    7273                      .dwattr $C$DW$1200, DW_AT_type(*$C$DW$T$23)
    7274                      .dwattr $C$DW$1200, DW_AT_name("rsvd_2")
    7275                      .dwattr $C$DW$1200, DW_AT_TI_symbol_name("_rsvd_2")
    7276                      .dwattr $C$DW$1200, DW_AT_data_member_location[DW_OP_plus_uconst 0x5]
    7277                      .dwattr $C$DW$1200, DW_AT_accessibility(DW_ACCESS_public)
    7278              $C$DW$1201      .dwtag  DW_TAG_member
    7279                      .dwattr $C$DW$1201, DW_AT_type(*$C$DW$T$23)
    7280                      .dwattr $C$DW$1201, DW_AT_name("SPIEMU")
    7281                      .dwattr $C$DW$1201, DW_AT_TI_symbol_name("_SPIEMU")
    7282                      .dwattr $C$DW$1201, DW_AT_data_member_location[DW_OP_plus_uconst 0x6]
    7283                      .dwattr $C$DW$1201, DW_AT_accessibility(DW_ACCESS_public)
    7284              $C$DW$1202      .dwtag  DW_TAG_member
    7285                      .dwattr $C$DW$1202, DW_AT_type(*$C$DW$T$23)
    7286                      .dwattr $C$DW$1202, DW_AT_name("SPIRXBUF")
    7287                      .dwattr $C$DW$1202, DW_AT_TI_symbol_name("_SPIRXBUF")
    7288                      .dwattr $C$DW$1202, DW_AT_data_member_location[DW_OP_plus_uconst 0x7]
    7289                      .dwattr $C$DW$1202, DW_AT_accessibility(DW_ACCESS_public)
    7290              $C$DW$1203      .dwtag  DW_TAG_member
    7291                      .dwattr $C$DW$1203, DW_AT_type(*$C$DW$T$23)
    7292                      .dwattr $C$DW$1203, DW_AT_name("SPITXBUF")
    7293                      .dwattr $C$DW$1203, DW_AT_TI_symbol_name("_SPITXBUF")
    7294                      .dwattr $C$DW$1203, DW_AT_data_member_location[DW_OP_plus_uconst 0x8]
    7295                      .dwattr $C$DW$1203, DW_AT_accessibility(DW_ACCESS_public)
    7296              $C$DW$1204      .dwtag  DW_TAG_member
    7297                      .dwattr $C$DW$1204, DW_AT_type(*$C$DW$T$23)
    7298                      .dwattr $C$DW$1204, DW_AT_name("SPIDAT")
    7299                      .dwattr $C$DW$1204, DW_AT_TI_symbol_name("_SPIDAT")
    7300                      .dwattr $C$DW$1204, DW_AT_data_member_location[DW_OP_plus_uconst 0x9]
    7301                      .dwattr $C$DW$1204, DW_AT_accessibility(DW_ACCESS_public)
    7302              $C$DW$1205      .dwtag  DW_TAG_member
TMS320C2000 Assembler PC v6.2.5 Tue Nov 21 22:57:45 2017

Tools Copyright (c) 1996-2014 Texas Instruments Incorporated
C:\Users\wmj\AppData\Local\Temp\1055210                              PAGE  137

    7303                      .dwattr $C$DW$1205, DW_AT_type(*$C$DW$T$23)
    7304                      .dwattr $C$DW$1205, DW_AT_name("SPIFFTX")
    7305                      .dwattr $C$DW$1205, DW_AT_TI_symbol_name("_SPIFFTX")
    7306                      .dwattr $C$DW$1205, DW_AT_data_member_location[DW_OP_plus_uconst 0xa]
    7307                      .dwattr $C$DW$1205, DW_AT_accessibility(DW_ACCESS_public)
    7308              $C$DW$1206      .dwtag  DW_TAG_member
    7309                      .dwattr $C$DW$1206, DW_AT_type(*$C$DW$T$23)
    7310                      .dwattr $C$DW$1206, DW_AT_name("SPIFFRX")
    7311                      .dwattr $C$DW$1206, DW_AT_TI_symbol_name("_SPIFFRX")
    7312                      .dwattr $C$DW$1206, DW_AT_data_member_location[DW_OP_plus_uconst 0xb]
    7313                      .dwattr $C$DW$1206, DW_AT_accessibility(DW_ACCESS_public)
    7314              $C$DW$1207      .dwtag  DW_TAG_member
    7315                      .dwattr $C$DW$1207, DW_AT_type(*$C$DW$T$23)
    7316                      .dwattr $C$DW$1207, DW_AT_name("SPIFFCT")
    7317                      .dwattr $C$DW$1207, DW_AT_TI_symbol_name("_SPIFFCT")
    7318                      .dwattr $C$DW$1207, DW_AT_data_member_location[DW_OP_plus_uconst 0xc]
    7319                      .dwattr $C$DW$1207, DW_AT_accessibility(DW_ACCESS_public)
    7320              $C$DW$1208      .dwtag  DW_TAG_member
    7321                      .dwattr $C$DW$1208, DW_AT_type(*$C$DW$T$26)
    7322                      .dwattr $C$DW$1208, DW_AT_name("rsvd_3")
    7323                      .dwattr $C$DW$1208, DW_AT_TI_symbol_name("_rsvd_3")
    7324                      .dwattr $C$DW$1208, DW_AT_data_member_location[DW_OP_plus_uconst 0xd]
    7325                      .dwattr $C$DW$1208, DW_AT_accessibility(DW_ACCESS_public)
    7326              $C$DW$1209      .dwtag  DW_TAG_member
    7327                      .dwattr $C$DW$1209, DW_AT_type(*$C$DW$T$23)
    7328                      .dwattr $C$DW$1209, DW_AT_name("SPIPRI")
    7329                      .dwattr $C$DW$1209, DW_AT_TI_symbol_name("_SPIPRI")
    7330                      .dwattr $C$DW$1209, DW_AT_data_member_location[DW_OP_plus_uconst 0xf]
    7331                      .dwattr $C$DW$1209, DW_AT_accessibility(DW_ACCESS_public)
    7332                      .dwendtag $C$DW$T$228
    7333              
    7334              $C$DW$T$147     .dwtag  DW_TAG_pointer_type
    7335                      .dwattr $C$DW$T$147, DW_AT_type(*$C$DW$T$228)
    7336                      .dwattr $C$DW$T$147, DW_AT_address_class(0x16)
    7337              $C$DW$T$148     .dwtag  DW_TAG_typedef, DW_AT_name("SPI_Handle")
    7338                      .dwattr $C$DW$T$148, DW_AT_type(*$C$DW$T$147)
    7339                      .dwattr $C$DW$T$148, DW_AT_language(DW_LANG_C)
    7340              
    7341              $C$DW$T$229     .dwtag  DW_TAG_structure_type
    7342                      .dwattr $C$DW$T$229, DW_AT_name("_SVGEN_Obj_")
    7343                      .dwattr $C$DW$T$229, DW_AT_byte_size(0x02)
    7344              $C$DW$1210      .dwtag  DW_TAG_member
    7345                      .dwattr $C$DW$1210, DW_AT_type(*$C$DW$T$31)
    7346                      .dwattr $C$DW$1210, DW_AT_name("maxModulation")
    7347                      .dwattr $C$DW$1210, DW_AT_TI_symbol_name("_maxModulation")
    7348                      .dwattr $C$DW$1210, DW_AT_data_member_location[DW_OP_plus_uconst 0x0]
    7349                      .dwattr $C$DW$1210, DW_AT_accessibility(DW_ACCESS_public)
    7350                      .dwendtag $C$DW$T$229
    7351              
    7352              $C$DW$T$61      .dwtag  DW_TAG_typedef, DW_AT_name("SVGEN_Obj")
    7353                      .dwattr $C$DW$T$61, DW_AT_type(*$C$DW$T$229)
    7354                      .dwattr $C$DW$T$61, DW_AT_language(DW_LANG_C)
    7355              $C$DW$T$59      .dwtag  DW_TAG_pointer_type
    7356                      .dwattr $C$DW$T$59, DW_AT_type(*$C$DW$T$229)
    7357                      .dwattr $C$DW$T$59, DW_AT_address_class(0x16)
TMS320C2000 Assembler PC v6.2.5 Tue Nov 21 22:57:45 2017

Tools Copyright (c) 1996-2014 Texas Instruments Incorporated
C:\Users\wmj\AppData\Local\Temp\1055210                              PAGE  138

    7358              $C$DW$T$60      .dwtag  DW_TAG_typedef, DW_AT_name("SVGEN_Handle")
    7359                      .dwattr $C$DW$T$60, DW_AT_type(*$C$DW$T$59)
    7360                      .dwattr $C$DW$T$60, DW_AT_language(DW_LANG_C)
    7361              
    7362              $C$DW$T$230     .dwtag  DW_TAG_structure_type
    7363                      .dwattr $C$DW$T$230, DW_AT_name("_TIMER_Obj_")
    7364                      .dwattr $C$DW$T$230, DW_AT_byte_size(0x08)
    7365              $C$DW$1211      .dwtag  DW_TAG_member
    7366                      .dwattr $C$DW$1211, DW_AT_type(*$C$DW$T$112)
    7367                      .dwattr $C$DW$1211, DW_AT_name("TIM")
    7368                      .dwattr $C$DW$1211, DW_AT_TI_symbol_name("_TIM")
    7369                      .dwattr $C$DW$1211, DW_AT_data_member_location[DW_OP_plus_uconst 0x0]
    7370                      .dwattr $C$DW$1211, DW_AT_accessibility(DW_ACCESS_public)
    7371              $C$DW$1212      .dwtag  DW_TAG_member
    7372                      .dwattr $C$DW$1212, DW_AT_type(*$C$DW$T$112)
    7373                      .dwattr $C$DW$1212, DW_AT_name("PRD")
    7374                      .dwattr $C$DW$1212, DW_AT_TI_symbol_name("_PRD")
    7375                      .dwattr $C$DW$1212, DW_AT_data_member_location[DW_OP_plus_uconst 0x2]
    7376                      .dwattr $C$DW$1212, DW_AT_accessibility(DW_ACCESS_public)
    7377              $C$DW$1213      .dwtag  DW_TAG_member
    7378                      .dwattr $C$DW$1213, DW_AT_type(*$C$DW$T$23)
    7379                      .dwattr $C$DW$1213, DW_AT_name("TCR")
    7380                      .dwattr $C$DW$1213, DW_AT_TI_symbol_name("_TCR")
    7381                      .dwattr $C$DW$1213, DW_AT_data_member_location[DW_OP_plus_uconst 0x4]
    7382                      .dwattr $C$DW$1213, DW_AT_accessibility(DW_ACCESS_public)
    7383              $C$DW$1214      .dwtag  DW_TAG_member
    7384                      .dwattr $C$DW$1214, DW_AT_type(*$C$DW$T$23)
    7385                      .dwattr $C$DW$1214, DW_AT_name("resvd_1")
    7386                      .dwattr $C$DW$1214, DW_AT_TI_symbol_name("_resvd_1")
    7387                      .dwattr $C$DW$1214, DW_AT_data_member_location[DW_OP_plus_uconst 0x5]
    7388                      .dwattr $C$DW$1214, DW_AT_accessibility(DW_ACCESS_public)
    7389              $C$DW$1215      .dwtag  DW_TAG_member
    7390                      .dwattr $C$DW$1215, DW_AT_type(*$C$DW$T$112)
    7391                      .dwattr $C$DW$1215, DW_AT_name("TPR")
    7392                      .dwattr $C$DW$1215, DW_AT_TI_symbol_name("_TPR")
    7393                      .dwattr $C$DW$1215, DW_AT_data_member_location[DW_OP_plus_uconst 0x6]
    7394                      .dwattr $C$DW$1215, DW_AT_accessibility(DW_ACCESS_public)
    7395                      .dwendtag $C$DW$T$230
    7396              
    7397              $C$DW$T$144     .dwtag  DW_TAG_pointer_type
    7398                      .dwattr $C$DW$T$144, DW_AT_type(*$C$DW$T$230)
    7399                      .dwattr $C$DW$T$144, DW_AT_address_class(0x16)
    7400              $C$DW$T$145     .dwtag  DW_TAG_typedef, DW_AT_name("TIMER_Handle")
    7401                      .dwattr $C$DW$T$145, DW_AT_type(*$C$DW$T$144)
    7402                      .dwattr $C$DW$T$145, DW_AT_language(DW_LANG_C)
    7403              
    7404              $C$DW$T$146     .dwtag  DW_TAG_array_type
    7405                      .dwattr $C$DW$T$146, DW_AT_type(*$C$DW$T$145)
    7406                      .dwattr $C$DW$T$146, DW_AT_language(DW_LANG_C)
    7407                      .dwattr $C$DW$T$146, DW_AT_byte_size(0x06)
    7408              $C$DW$1216      .dwtag  DW_TAG_subrange_type
    7409                      .dwattr $C$DW$1216, DW_AT_upper_bound(0x02)
    7410                      .dwendtag $C$DW$T$146
    7411              
    7412              
TMS320C2000 Assembler PC v6.2.5 Tue Nov 21 22:57:45 2017

Tools Copyright (c) 1996-2014 Texas Instruments Incorporated
C:\Users\wmj\AppData\Local\Temp\1055210                              PAGE  139

    7413              $C$DW$T$231     .dwtag  DW_TAG_structure_type
    7414                      .dwattr $C$DW$T$231, DW_AT_name("_TRAJ_Obj_")
    7415                      .dwattr $C$DW$T$231, DW_AT_byte_size(0x0a)
    7416              $C$DW$1217      .dwtag  DW_TAG_member
    7417                      .dwattr $C$DW$1217, DW_AT_type(*$C$DW$T$31)
    7418                      .dwattr $C$DW$1217, DW_AT_name("targetValue")
    7419                      .dwattr $C$DW$1217, DW_AT_TI_symbol_name("_targetValue")
    7420                      .dwattr $C$DW$1217, DW_AT_data_member_location[DW_OP_plus_uconst 0x0]
    7421                      .dwattr $C$DW$1217, DW_AT_accessibility(DW_ACCESS_public)
    7422              $C$DW$1218      .dwtag  DW_TAG_member
    7423                      .dwattr $C$DW$1218, DW_AT_type(*$C$DW$T$31)
    7424                      .dwattr $C$DW$1218, DW_AT_name("intValue")
    7425                      .dwattr $C$DW$1218, DW_AT_TI_symbol_name("_intValue")
    7426                      .dwattr $C$DW$1218, DW_AT_data_member_location[DW_OP_plus_uconst 0x2]
    7427                      .dwattr $C$DW$1218, DW_AT_accessibility(DW_ACCESS_public)
    7428              $C$DW$1219      .dwtag  DW_TAG_member
    7429                      .dwattr $C$DW$1219, DW_AT_type(*$C$DW$T$31)
    7430                      .dwattr $C$DW$1219, DW_AT_name("minValue")
    7431                      .dwattr $C$DW$1219, DW_AT_TI_symbol_name("_minValue")
    7432                      .dwattr $C$DW$1219, DW_AT_data_member_location[DW_OP_plus_uconst 0x4]
    7433                      .dwattr $C$DW$1219, DW_AT_accessibility(DW_ACCESS_public)
    7434              $C$DW$1220      .dwtag  DW_TAG_member
    7435                      .dwattr $C$DW$1220, DW_AT_type(*$C$DW$T$31)
    7436                      .dwattr $C$DW$1220, DW_AT_name("maxValue")
    7437                      .dwattr $C$DW$1220, DW_AT_TI_symbol_name("_maxValue")
    7438                      .dwattr $C$DW$1220, DW_AT_data_member_location[DW_OP_plus_uconst 0x6]
    7439                      .dwattr $C$DW$1220, DW_AT_accessibility(DW_ACCESS_public)
    7440              $C$DW$1221      .dwtag  DW_TAG_member
    7441                      .dwattr $C$DW$1221, DW_AT_type(*$C$DW$T$31)
    7442                      .dwattr $C$DW$1221, DW_AT_name("maxDelta")
    7443                      .dwattr $C$DW$1221, DW_AT_TI_symbol_name("_maxDelta")
    7444                      .dwattr $C$DW$1221, DW_AT_data_member_location[DW_OP_plus_uconst 0x8]
    7445                      .dwattr $C$DW$1221, DW_AT_accessibility(DW_ACCESS_public)
    7446                      .dwendtag $C$DW$T$231
    7447              
    7448              $C$DW$T$64      .dwtag  DW_TAG_typedef, DW_AT_name("TRAJ_Obj")
    7449                      .dwattr $C$DW$T$64, DW_AT_type(*$C$DW$T$231)
    7450                      .dwattr $C$DW$T$64, DW_AT_language(DW_LANG_C)
    7451              $C$DW$T$62      .dwtag  DW_TAG_pointer_type
    7452                      .dwattr $C$DW$T$62, DW_AT_type(*$C$DW$T$231)
    7453                      .dwattr $C$DW$T$62, DW_AT_address_class(0x16)
    7454              $C$DW$T$63      .dwtag  DW_TAG_typedef, DW_AT_name("TRAJ_Handle")
    7455                      .dwattr $C$DW$T$63, DW_AT_type(*$C$DW$T$62)
    7456                      .dwattr $C$DW$T$63, DW_AT_language(DW_LANG_C)
    7457              
    7458              $C$DW$T$235     .dwtag  DW_TAG_structure_type
    7459                      .dwattr $C$DW$T$235, DW_AT_name("_USER_Params_")
    7460                      .dwattr $C$DW$T$235, DW_AT_byte_size(0xac)
    7461              $C$DW$1222      .dwtag  DW_TAG_member
    7462                      .dwattr $C$DW$1222, DW_AT_type(*$C$DW$T$70)
    7463                      .dwattr $C$DW$1222, DW_AT_name("iqFullScaleCurrent_A")
    7464                      .dwattr $C$DW$1222, DW_AT_TI_symbol_name("_iqFullScaleCurrent_A")
    7465                      .dwattr $C$DW$1222, DW_AT_data_member_location[DW_OP_plus_uconst 0x0]
    7466                      .dwattr $C$DW$1222, DW_AT_accessibility(DW_ACCESS_public)
    7467              $C$DW$1223      .dwtag  DW_TAG_member
TMS320C2000 Assembler PC v6.2.5 Tue Nov 21 22:57:45 2017

Tools Copyright (c) 1996-2014 Texas Instruments Incorporated
C:\Users\wmj\AppData\Local\Temp\1055210                              PAGE  140

    7468                      .dwattr $C$DW$1223, DW_AT_type(*$C$DW$T$70)
    7469                      .dwattr $C$DW$1223, DW_AT_name("iqFullScaleVoltage_V")
    7470                      .dwattr $C$DW$1223, DW_AT_TI_symbol_name("_iqFullScaleVoltage_V")
    7471                      .dwattr $C$DW$1223, DW_AT_data_member_location[DW_OP_plus_uconst 0x2]
    7472                      .dwattr $C$DW$1223, DW_AT_accessibility(DW_ACCESS_public)
    7473              $C$DW$1224      .dwtag  DW_TAG_member
    7474                      .dwattr $C$DW$1224, DW_AT_type(*$C$DW$T$70)
    7475                      .dwattr $C$DW$1224, DW_AT_name("iqFullScaleFreq_Hz")
    7476                      .dwattr $C$DW$1224, DW_AT_TI_symbol_name("_iqFullScaleFreq_Hz")
    7477                      .dwattr $C$DW$1224, DW_AT_data_member_location[DW_OP_plus_uconst 0x4]
    7478                      .dwattr $C$DW$1224, DW_AT_accessibility(DW_ACCESS_public)
    7479              $C$DW$1225      .dwtag  DW_TAG_member
    7480                      .dwattr $C$DW$1225, DW_AT_type(*$C$DW$T$69)
    7481                      .dwattr $C$DW$1225, DW_AT_name("numIsrTicksPerCtrlTick")
    7482                      .dwattr $C$DW$1225, DW_AT_TI_symbol_name("_numIsrTicksPerCtrlTick")
    7483                      .dwattr $C$DW$1225, DW_AT_data_member_location[DW_OP_plus_uconst 0x6]
    7484                      .dwattr $C$DW$1225, DW_AT_accessibility(DW_ACCESS_public)
    7485              $C$DW$1226      .dwtag  DW_TAG_member
    7486                      .dwattr $C$DW$1226, DW_AT_type(*$C$DW$T$69)
    7487                      .dwattr $C$DW$1226, DW_AT_name("numCtrlTicksPerCurrentTick")
    7488                      .dwattr $C$DW$1226, DW_AT_TI_symbol_name("_numCtrlTicksPerCurrentTick")
    7489                      .dwattr $C$DW$1226, DW_AT_data_member_location[DW_OP_plus_uconst 0x7]
    7490                      .dwattr $C$DW$1226, DW_AT_accessibility(DW_ACCESS_public)
    7491              $C$DW$1227      .dwtag  DW_TAG_member
    7492                      .dwattr $C$DW$1227, DW_AT_type(*$C$DW$T$69)
    7493                      .dwattr $C$DW$1227, DW_AT_name("numCtrlTicksPerEstTick")
    7494                      .dwattr $C$DW$1227, DW_AT_TI_symbol_name("_numCtrlTicksPerEstTick")
    7495                      .dwattr $C$DW$1227, DW_AT_data_member_location[DW_OP_plus_uconst 0x8]
    7496                      .dwattr $C$DW$1227, DW_AT_accessibility(DW_ACCESS_public)
    7497              $C$DW$1228      .dwtag  DW_TAG_member
    7498                      .dwattr $C$DW$1228, DW_AT_type(*$C$DW$T$69)
    7499                      .dwattr $C$DW$1228, DW_AT_name("numCtrlTicksPerSpeedTick")
    7500                      .dwattr $C$DW$1228, DW_AT_TI_symbol_name("_numCtrlTicksPerSpeedTick")
    7501                      .dwattr $C$DW$1228, DW_AT_data_member_location[DW_OP_plus_uconst 0x9]
    7502                      .dwattr $C$DW$1228, DW_AT_accessibility(DW_ACCESS_public)
    7503              $C$DW$1229      .dwtag  DW_TAG_member
    7504                      .dwattr $C$DW$1229, DW_AT_type(*$C$DW$T$69)
    7505                      .dwattr $C$DW$1229, DW_AT_name("numCtrlTicksPerTrajTick")
    7506                      .dwattr $C$DW$1229, DW_AT_TI_symbol_name("_numCtrlTicksPerTrajTick")
    7507                      .dwattr $C$DW$1229, DW_AT_data_member_location[DW_OP_plus_uconst 0xa]
    7508                      .dwattr $C$DW$1229, DW_AT_accessibility(DW_ACCESS_public)
    7509              $C$DW$1230      .dwtag  DW_TAG_member
    7510                      .dwattr $C$DW$1230, DW_AT_type(*$C$DW$T$35)
    7511                      .dwattr $C$DW$1230, DW_AT_name("numCurrentSensors")
    7512                      .dwattr $C$DW$1230, DW_AT_TI_symbol_name("_numCurrentSensors")
    7513                      .dwattr $C$DW$1230, DW_AT_data_member_location[DW_OP_plus_uconst 0xb]
    7514                      .dwattr $C$DW$1230, DW_AT_accessibility(DW_ACCESS_public)
    7515              $C$DW$1231      .dwtag  DW_TAG_member
    7516                      .dwattr $C$DW$1231, DW_AT_type(*$C$DW$T$35)
    7517                      .dwattr $C$DW$1231, DW_AT_name("numVoltageSensors")
    7518                      .dwattr $C$DW$1231, DW_AT_TI_symbol_name("_numVoltageSensors")
    7519                      .dwattr $C$DW$1231, DW_AT_data_member_location[DW_OP_plus_uconst 0xc]
    7520                      .dwattr $C$DW$1231, DW_AT_accessibility(DW_ACCESS_public)
    7521              $C$DW$1232      .dwtag  DW_TAG_member
    7522                      .dwattr $C$DW$1232, DW_AT_type(*$C$DW$T$70)
TMS320C2000 Assembler PC v6.2.5 Tue Nov 21 22:57:45 2017

Tools Copyright (c) 1996-2014 Texas Instruments Incorporated
C:\Users\wmj\AppData\Local\Temp\1055210                              PAGE  141

    7523                      .dwattr $C$DW$1232, DW_AT_name("offsetPole_rps")
    7524                      .dwattr $C$DW$1232, DW_AT_TI_symbol_name("_offsetPole_rps")
    7525                      .dwattr $C$DW$1232, DW_AT_data_member_location[DW_OP_plus_uconst 0xe]
    7526                      .dwattr $C$DW$1232, DW_AT_accessibility(DW_ACCESS_public)
    7527              $C$DW$1233      .dwtag  DW_TAG_member
    7528                      .dwattr $C$DW$1233, DW_AT_type(*$C$DW$T$70)
    7529                      .dwattr $C$DW$1233, DW_AT_name("fluxPole_rps")
    7530                      .dwattr $C$DW$1233, DW_AT_TI_symbol_name("_fluxPole_rps")
    7531                      .dwattr $C$DW$1233, DW_AT_data_member_location[DW_OP_plus_uconst 0x10]
    7532                      .dwattr $C$DW$1233, DW_AT_accessibility(DW_ACCESS_public)
    7533              $C$DW$1234      .dwtag  DW_TAG_member
    7534                      .dwattr $C$DW$1234, DW_AT_type(*$C$DW$T$70)
    7535                      .dwattr $C$DW$1234, DW_AT_name("zeroSpeedLimit")
    7536                      .dwattr $C$DW$1234, DW_AT_TI_symbol_name("_zeroSpeedLimit")
    7537                      .dwattr $C$DW$1234, DW_AT_data_member_location[DW_OP_plus_uconst 0x12]
    7538                      .dwattr $C$DW$1234, DW_AT_accessibility(DW_ACCESS_public)
    7539              $C$DW$1235      .dwtag  DW_TAG_member
    7540                      .dwattr $C$DW$1235, DW_AT_type(*$C$DW$T$70)
    7541                      .dwattr $C$DW$1235, DW_AT_name("forceAngleFreq_Hz")
    7542                      .dwattr $C$DW$1235, DW_AT_TI_symbol_name("_forceAngleFreq_Hz")
    7543                      .dwattr $C$DW$1235, DW_AT_data_member_location[DW_OP_plus_uconst 0x14]
    7544                      .dwattr $C$DW$1235, DW_AT_accessibility(DW_ACCESS_public)
    7545              $C$DW$1236      .dwtag  DW_TAG_member
    7546                      .dwattr $C$DW$1236, DW_AT_type(*$C$DW$T$70)
    7547                      .dwattr $C$DW$1236, DW_AT_name("maxAccel_Hzps")
    7548                      .dwattr $C$DW$1236, DW_AT_TI_symbol_name("_maxAccel_Hzps")
    7549                      .dwattr $C$DW$1236, DW_AT_data_member_location[DW_OP_plus_uconst 0x16]
    7550                      .dwattr $C$DW$1236, DW_AT_accessibility(DW_ACCESS_public)
    7551              $C$DW$1237      .dwtag  DW_TAG_member
    7552                      .dwattr $C$DW$1237, DW_AT_type(*$C$DW$T$70)
    7553                      .dwattr $C$DW$1237, DW_AT_name("maxAccel_est_Hzps")
    7554                      .dwattr $C$DW$1237, DW_AT_TI_symbol_name("_maxAccel_est_Hzps")
    7555                      .dwattr $C$DW$1237, DW_AT_data_member_location[DW_OP_plus_uconst 0x18]
    7556                      .dwattr $C$DW$1237, DW_AT_accessibility(DW_ACCESS_public)
    7557              $C$DW$1238      .dwtag  DW_TAG_member
    7558                      .dwattr $C$DW$1238, DW_AT_type(*$C$DW$T$70)
    7559                      .dwattr $C$DW$1238, DW_AT_name("directionPole_rps")
    7560                      .dwattr $C$DW$1238, DW_AT_TI_symbol_name("_directionPole_rps")
    7561                      .dwattr $C$DW$1238, DW_AT_data_member_location[DW_OP_plus_uconst 0x1a]
    7562                      .dwattr $C$DW$1238, DW_AT_accessibility(DW_ACCESS_public)
    7563              $C$DW$1239      .dwtag  DW_TAG_member
    7564                      .dwattr $C$DW$1239, DW_AT_type(*$C$DW$T$70)
    7565                      .dwattr $C$DW$1239, DW_AT_name("speedPole_rps")
    7566                      .dwattr $C$DW$1239, DW_AT_TI_symbol_name("_speedPole_rps")
    7567                      .dwattr $C$DW$1239, DW_AT_data_member_location[DW_OP_plus_uconst 0x1c]
    7568                      .dwattr $C$DW$1239, DW_AT_accessibility(DW_ACCESS_public)
    7569              $C$DW$1240      .dwtag  DW_TAG_member
    7570                      .dwattr $C$DW$1240, DW_AT_type(*$C$DW$T$70)
    7571                      .dwattr $C$DW$1240, DW_AT_name("dcBusPole_rps")
    7572                      .dwattr $C$DW$1240, DW_AT_TI_symbol_name("_dcBusPole_rps")
    7573                      .dwattr $C$DW$1240, DW_AT_data_member_location[DW_OP_plus_uconst 0x1e]
    7574                      .dwattr $C$DW$1240, DW_AT_accessibility(DW_ACCESS_public)
    7575              $C$DW$1241      .dwtag  DW_TAG_member
    7576                      .dwattr $C$DW$1241, DW_AT_type(*$C$DW$T$70)
    7577                      .dwattr $C$DW$1241, DW_AT_name("fluxFraction")
TMS320C2000 Assembler PC v6.2.5 Tue Nov 21 22:57:45 2017

Tools Copyright (c) 1996-2014 Texas Instruments Incorporated
C:\Users\wmj\AppData\Local\Temp\1055210                              PAGE  142

    7578                      .dwattr $C$DW$1241, DW_AT_TI_symbol_name("_fluxFraction")
    7579                      .dwattr $C$DW$1241, DW_AT_data_member_location[DW_OP_plus_uconst 0x20]
    7580                      .dwattr $C$DW$1241, DW_AT_accessibility(DW_ACCESS_public)
    7581              $C$DW$1242      .dwtag  DW_TAG_member
    7582                      .dwattr $C$DW$1242, DW_AT_type(*$C$DW$T$70)
    7583                      .dwattr $C$DW$1242, DW_AT_name("indEst_speedMaxFraction")
    7584                      .dwattr $C$DW$1242, DW_AT_TI_symbol_name("_indEst_speedMaxFraction")
    7585                      .dwattr $C$DW$1242, DW_AT_data_member_location[DW_OP_plus_uconst 0x22]
    7586                      .dwattr $C$DW$1242, DW_AT_accessibility(DW_ACCESS_public)
    7587              $C$DW$1243      .dwtag  DW_TAG_member
    7588                      .dwattr $C$DW$1243, DW_AT_type(*$C$DW$T$70)
    7589                      .dwattr $C$DW$1243, DW_AT_name("powerWarpGain")
    7590                      .dwattr $C$DW$1243, DW_AT_TI_symbol_name("_powerWarpGain")
    7591                      .dwattr $C$DW$1243, DW_AT_data_member_location[DW_OP_plus_uconst 0x24]
    7592                      .dwattr $C$DW$1243, DW_AT_accessibility(DW_ACCESS_public)
    7593              $C$DW$1244      .dwtag  DW_TAG_member
    7594                      .dwattr $C$DW$1244, DW_AT_type(*$C$DW$T$69)
    7595                      .dwattr $C$DW$1244, DW_AT_name("systemFreq_MHz")
    7596                      .dwattr $C$DW$1244, DW_AT_TI_symbol_name("_systemFreq_MHz")
    7597                      .dwattr $C$DW$1244, DW_AT_data_member_location[DW_OP_plus_uconst 0x26]
    7598                      .dwattr $C$DW$1244, DW_AT_accessibility(DW_ACCESS_public)
    7599              $C$DW$1245      .dwtag  DW_TAG_member
    7600                      .dwattr $C$DW$1245, DW_AT_type(*$C$DW$T$70)
    7601                      .dwattr $C$DW$1245, DW_AT_name("pwmPeriod_usec")
    7602                      .dwattr $C$DW$1245, DW_AT_TI_symbol_name("_pwmPeriod_usec")
    7603                      .dwattr $C$DW$1245, DW_AT_data_member_location[DW_OP_plus_uconst 0x28]
    7604                      .dwattr $C$DW$1245, DW_AT_accessibility(DW_ACCESS_public)
    7605              $C$DW$1246      .dwtag  DW_TAG_member
    7606                      .dwattr $C$DW$1246, DW_AT_type(*$C$DW$T$70)
    7607                      .dwattr $C$DW$1246, DW_AT_name("voltage_sf")
    7608                      .dwattr $C$DW$1246, DW_AT_TI_symbol_name("_voltage_sf")
    7609                      .dwattr $C$DW$1246, DW_AT_data_member_location[DW_OP_plus_uconst 0x2a]
    7610                      .dwattr $C$DW$1246, DW_AT_accessibility(DW_ACCESS_public)
    7611              $C$DW$1247      .dwtag  DW_TAG_member
    7612                      .dwattr $C$DW$1247, DW_AT_type(*$C$DW$T$70)
    7613                      .dwattr $C$DW$1247, DW_AT_name("current_sf")
    7614                      .dwattr $C$DW$1247, DW_AT_TI_symbol_name("_current_sf")
    7615                      .dwattr $C$DW$1247, DW_AT_data_member_location[DW_OP_plus_uconst 0x2c]
    7616                      .dwattr $C$DW$1247, DW_AT_accessibility(DW_ACCESS_public)
    7617              $C$DW$1248      .dwtag  DW_TAG_member
    7618                      .dwattr $C$DW$1248, DW_AT_type(*$C$DW$T$70)
    7619                      .dwattr $C$DW$1248, DW_AT_name("voltageFilterPole_rps")
    7620                      .dwattr $C$DW$1248, DW_AT_TI_symbol_name("_voltageFilterPole_rps")
    7621                      .dwattr $C$DW$1248, DW_AT_data_member_location[DW_OP_plus_uconst 0x2e]
    7622                      .dwattr $C$DW$1248, DW_AT_accessibility(DW_ACCESS_public)
    7623              $C$DW$1249      .dwtag  DW_TAG_member
    7624                      .dwattr $C$DW$1249, DW_AT_type(*$C$DW$T$70)
    7625                      .dwattr $C$DW$1249, DW_AT_name("maxVsMag_pu")
    7626                      .dwattr $C$DW$1249, DW_AT_TI_symbol_name("_maxVsMag_pu")
    7627                      .dwattr $C$DW$1249, DW_AT_data_member_location[DW_OP_plus_uconst 0x30]
    7628                      .dwattr $C$DW$1249, DW_AT_accessibility(DW_ACCESS_public)
    7629              $C$DW$1250      .dwtag  DW_TAG_member
    7630                      .dwattr $C$DW$1250, DW_AT_type(*$C$DW$T$70)
    7631                      .dwattr $C$DW$1250, DW_AT_name("estKappa")
    7632                      .dwattr $C$DW$1250, DW_AT_TI_symbol_name("_estKappa")
TMS320C2000 Assembler PC v6.2.5 Tue Nov 21 22:57:45 2017

Tools Copyright (c) 1996-2014 Texas Instruments Incorporated
C:\Users\wmj\AppData\Local\Temp\1055210                              PAGE  143

    7633                      .dwattr $C$DW$1250, DW_AT_data_member_location[DW_OP_plus_uconst 0x32]
    7634                      .dwattr $C$DW$1250, DW_AT_accessibility(DW_ACCESS_public)
    7635              $C$DW$1251      .dwtag  DW_TAG_member
    7636                      .dwattr $C$DW$1251, DW_AT_type(*$C$DW$T$189)
    7637                      .dwattr $C$DW$1251, DW_AT_name("motor_type")
    7638                      .dwattr $C$DW$1251, DW_AT_TI_symbol_name("_motor_type")
    7639                      .dwattr $C$DW$1251, DW_AT_data_member_location[DW_OP_plus_uconst 0x34]
    7640                      .dwattr $C$DW$1251, DW_AT_accessibility(DW_ACCESS_public)
    7641              $C$DW$1252      .dwtag  DW_TAG_member
    7642                      .dwattr $C$DW$1252, DW_AT_type(*$C$DW$T$69)
    7643                      .dwattr $C$DW$1252, DW_AT_name("motor_numPolePairs")
    7644                      .dwattr $C$DW$1252, DW_AT_TI_symbol_name("_motor_numPolePairs")
    7645                      .dwattr $C$DW$1252, DW_AT_data_member_location[DW_OP_plus_uconst 0x35]
    7646                      .dwattr $C$DW$1252, DW_AT_accessibility(DW_ACCESS_public)
    7647              $C$DW$1253      .dwtag  DW_TAG_member
    7648                      .dwattr $C$DW$1253, DW_AT_type(*$C$DW$T$70)
    7649                      .dwattr $C$DW$1253, DW_AT_name("motor_ratedFlux")
    7650                      .dwattr $C$DW$1253, DW_AT_TI_symbol_name("_motor_ratedFlux")
    7651                      .dwattr $C$DW$1253, DW_AT_data_member_location[DW_OP_plus_uconst 0x36]
    7652                      .dwattr $C$DW$1253, DW_AT_accessibility(DW_ACCESS_public)
    7653              $C$DW$1254      .dwtag  DW_TAG_member
    7654                      .dwattr $C$DW$1254, DW_AT_type(*$C$DW$T$70)
    7655                      .dwattr $C$DW$1254, DW_AT_name("motor_Rr")
    7656                      .dwattr $C$DW$1254, DW_AT_TI_symbol_name("_motor_Rr")
    7657                      .dwattr $C$DW$1254, DW_AT_data_member_location[DW_OP_plus_uconst 0x38]
    7658                      .dwattr $C$DW$1254, DW_AT_accessibility(DW_ACCESS_public)
    7659              $C$DW$1255      .dwtag  DW_TAG_member
    7660                      .dwattr $C$DW$1255, DW_AT_type(*$C$DW$T$70)
    7661                      .dwattr $C$DW$1255, DW_AT_name("motor_Rs")
    7662                      .dwattr $C$DW$1255, DW_AT_TI_symbol_name("_motor_Rs")
    7663                      .dwattr $C$DW$1255, DW_AT_data_member_location[DW_OP_plus_uconst 0x3a]
    7664                      .dwattr $C$DW$1255, DW_AT_accessibility(DW_ACCESS_public)
    7665              $C$DW$1256      .dwtag  DW_TAG_member
    7666                      .dwattr $C$DW$1256, DW_AT_type(*$C$DW$T$70)
    7667                      .dwattr $C$DW$1256, DW_AT_name("motor_Ls_d")
    7668                      .dwattr $C$DW$1256, DW_AT_TI_symbol_name("_motor_Ls_d")
    7669                      .dwattr $C$DW$1256, DW_AT_data_member_location[DW_OP_plus_uconst 0x3c]
    7670                      .dwattr $C$DW$1256, DW_AT_accessibility(DW_ACCESS_public)
    7671              $C$DW$1257      .dwtag  DW_TAG_member
    7672                      .dwattr $C$DW$1257, DW_AT_type(*$C$DW$T$70)
    7673                      .dwattr $C$DW$1257, DW_AT_name("motor_Ls_q")
    7674                      .dwattr $C$DW$1257, DW_AT_TI_symbol_name("_motor_Ls_q")
    7675                      .dwattr $C$DW$1257, DW_AT_data_member_location[DW_OP_plus_uconst 0x3e]
    7676                      .dwattr $C$DW$1257, DW_AT_accessibility(DW_ACCESS_public)
    7677              $C$DW$1258      .dwtag  DW_TAG_member
    7678                      .dwattr $C$DW$1258, DW_AT_type(*$C$DW$T$70)
    7679                      .dwattr $C$DW$1258, DW_AT_name("maxCurrent")
    7680                      .dwattr $C$DW$1258, DW_AT_TI_symbol_name("_maxCurrent")
    7681                      .dwattr $C$DW$1258, DW_AT_data_member_location[DW_OP_plus_uconst 0x40]
    7682                      .dwattr $C$DW$1258, DW_AT_accessibility(DW_ACCESS_public)
    7683              $C$DW$1259      .dwtag  DW_TAG_member
    7684                      .dwattr $C$DW$1259, DW_AT_type(*$C$DW$T$70)
    7685                      .dwattr $C$DW$1259, DW_AT_name("maxCurrent_resEst")
    7686                      .dwattr $C$DW$1259, DW_AT_TI_symbol_name("_maxCurrent_resEst")
    7687                      .dwattr $C$DW$1259, DW_AT_data_member_location[DW_OP_plus_uconst 0x42]
TMS320C2000 Assembler PC v6.2.5 Tue Nov 21 22:57:45 2017

Tools Copyright (c) 1996-2014 Texas Instruments Incorporated
C:\Users\wmj\AppData\Local\Temp\1055210                              PAGE  144

    7688                      .dwattr $C$DW$1259, DW_AT_accessibility(DW_ACCESS_public)
    7689              $C$DW$1260      .dwtag  DW_TAG_member
    7690                      .dwattr $C$DW$1260, DW_AT_type(*$C$DW$T$70)
    7691                      .dwattr $C$DW$1260, DW_AT_name("maxCurrent_indEst")
    7692                      .dwattr $C$DW$1260, DW_AT_TI_symbol_name("_maxCurrent_indEst")
    7693                      .dwattr $C$DW$1260, DW_AT_data_member_location[DW_OP_plus_uconst 0x44]
    7694                      .dwattr $C$DW$1260, DW_AT_accessibility(DW_ACCESS_public)
    7695              $C$DW$1261      .dwtag  DW_TAG_member
    7696                      .dwattr $C$DW$1261, DW_AT_type(*$C$DW$T$70)
    7697                      .dwattr $C$DW$1261, DW_AT_name("maxCurrentSlope")
    7698                      .dwattr $C$DW$1261, DW_AT_TI_symbol_name("_maxCurrentSlope")
    7699                      .dwattr $C$DW$1261, DW_AT_data_member_location[DW_OP_plus_uconst 0x46]
    7700                      .dwattr $C$DW$1261, DW_AT_accessibility(DW_ACCESS_public)
    7701              $C$DW$1262      .dwtag  DW_TAG_member
    7702                      .dwattr $C$DW$1262, DW_AT_type(*$C$DW$T$70)
    7703                      .dwattr $C$DW$1262, DW_AT_name("maxCurrentSlope_powerWarp")
    7704                      .dwattr $C$DW$1262, DW_AT_TI_symbol_name("_maxCurrentSlope_powerWarp")
    7705                      .dwattr $C$DW$1262, DW_AT_data_member_location[DW_OP_plus_uconst 0x48]
    7706                      .dwattr $C$DW$1262, DW_AT_accessibility(DW_ACCESS_public)
    7707              $C$DW$1263      .dwtag  DW_TAG_member
    7708                      .dwattr $C$DW$1263, DW_AT_type(*$C$DW$T$70)
    7709                      .dwattr $C$DW$1263, DW_AT_name("IdRated")
    7710                      .dwattr $C$DW$1263, DW_AT_TI_symbol_name("_IdRated")
    7711                      .dwattr $C$DW$1263, DW_AT_data_member_location[DW_OP_plus_uconst 0x4a]
    7712                      .dwattr $C$DW$1263, DW_AT_accessibility(DW_ACCESS_public)
    7713              $C$DW$1264      .dwtag  DW_TAG_member
    7714                      .dwattr $C$DW$1264, DW_AT_type(*$C$DW$T$70)
    7715                      .dwattr $C$DW$1264, DW_AT_name("IdRatedFraction_indEst")
    7716                      .dwattr $C$DW$1264, DW_AT_TI_symbol_name("_IdRatedFraction_indEst")
    7717                      .dwattr $C$DW$1264, DW_AT_data_member_location[DW_OP_plus_uconst 0x4c]
    7718                      .dwattr $C$DW$1264, DW_AT_accessibility(DW_ACCESS_public)
    7719              $C$DW$1265      .dwtag  DW_TAG_member
    7720                      .dwattr $C$DW$1265, DW_AT_type(*$C$DW$T$70)
    7721                      .dwattr $C$DW$1265, DW_AT_name("IdRatedFraction_ratedFlux")
    7722                      .dwattr $C$DW$1265, DW_AT_TI_symbol_name("_IdRatedFraction_ratedFlux")
    7723                      .dwattr $C$DW$1265, DW_AT_data_member_location[DW_OP_plus_uconst 0x4e]
    7724                      .dwattr $C$DW$1265, DW_AT_accessibility(DW_ACCESS_public)
    7725              $C$DW$1266      .dwtag  DW_TAG_member
    7726                      .dwattr $C$DW$1266, DW_AT_type(*$C$DW$T$70)
    7727                      .dwattr $C$DW$1266, DW_AT_name("IdRated_delta")
    7728                      .dwattr $C$DW$1266, DW_AT_TI_symbol_name("_IdRated_delta")
    7729                      .dwattr $C$DW$1266, DW_AT_data_member_location[DW_OP_plus_uconst 0x50]
    7730                      .dwattr $C$DW$1266, DW_AT_accessibility(DW_ACCESS_public)
    7731              $C$DW$1267      .dwtag  DW_TAG_member
    7732                      .dwattr $C$DW$1267, DW_AT_type(*$C$DW$T$70)
    7733                      .dwattr $C$DW$1267, DW_AT_name("fluxEstFreq_Hz")
    7734                      .dwattr $C$DW$1267, DW_AT_TI_symbol_name("_fluxEstFreq_Hz")
    7735                      .dwattr $C$DW$1267, DW_AT_data_member_location[DW_OP_plus_uconst 0x52]
    7736                      .dwattr $C$DW$1267, DW_AT_accessibility(DW_ACCESS_public)
    7737              $C$DW$1268      .dwtag  DW_TAG_member
    7738                      .dwattr $C$DW$1268, DW_AT_type(*$C$DW$T$68)
    7739                      .dwattr $C$DW$1268, DW_AT_name("ctrlWaitTime")
    7740                      .dwattr $C$DW$1268, DW_AT_TI_symbol_name("_ctrlWaitTime")
    7741                      .dwattr $C$DW$1268, DW_AT_data_member_location[DW_OP_plus_uconst 0x54]
    7742                      .dwattr $C$DW$1268, DW_AT_accessibility(DW_ACCESS_public)
TMS320C2000 Assembler PC v6.2.5 Tue Nov 21 22:57:45 2017

Tools Copyright (c) 1996-2014 Texas Instruments Incorporated
C:\Users\wmj\AppData\Local\Temp\1055210                              PAGE  145

    7743              $C$DW$1269      .dwtag  DW_TAG_member
    7744                      .dwattr $C$DW$1269, DW_AT_type(*$C$DW$T$232)
    7745                      .dwattr $C$DW$1269, DW_AT_name("estWaitTime")
    7746                      .dwattr $C$DW$1269, DW_AT_TI_symbol_name("_estWaitTime")
    7747                      .dwattr $C$DW$1269, DW_AT_data_member_location[DW_OP_plus_uconst 0x5c]
    7748                      .dwattr $C$DW$1269, DW_AT_accessibility(DW_ACCESS_public)
    7749              $C$DW$1270      .dwtag  DW_TAG_member
    7750                      .dwattr $C$DW$1270, DW_AT_type(*$C$DW$T$233)
    7751                      .dwattr $C$DW$1270, DW_AT_name("FluxWaitTime")
    7752                      .dwattr $C$DW$1270, DW_AT_TI_symbol_name("_FluxWaitTime")
    7753                      .dwattr $C$DW$1270, DW_AT_data_member_location[DW_OP_plus_uconst 0x78]
    7754                      .dwattr $C$DW$1270, DW_AT_accessibility(DW_ACCESS_public)
    7755              $C$DW$1271      .dwtag  DW_TAG_member
    7756                      .dwattr $C$DW$1271, DW_AT_type(*$C$DW$T$234)
    7757                      .dwattr $C$DW$1271, DW_AT_name("LsWaitTime")
    7758                      .dwattr $C$DW$1271, DW_AT_TI_symbol_name("_LsWaitTime")
    7759                      .dwattr $C$DW$1271, DW_AT_data_member_location[DW_OP_plus_uconst 0x84]
    7760                      .dwattr $C$DW$1271, DW_AT_accessibility(DW_ACCESS_public)
    7761              $C$DW$1272      .dwtag  DW_TAG_member
    7762                      .dwattr $C$DW$1272, DW_AT_type(*$C$DW$T$233)
    7763                      .dwattr $C$DW$1272, DW_AT_name("RsWaitTime")
    7764                      .dwattr $C$DW$1272, DW_AT_TI_symbol_name("_RsWaitTime")
    7765                      .dwattr $C$DW$1272, DW_AT_data_member_location[DW_OP_plus_uconst 0x92]
    7766                      .dwattr $C$DW$1272, DW_AT_accessibility(DW_ACCESS_public)
    7767              $C$DW$1273      .dwtag  DW_TAG_member
    7768                      .dwattr $C$DW$1273, DW_AT_type(*$C$DW$T$67)
    7769                      .dwattr $C$DW$1273, DW_AT_name("ctrlFreq_Hz")
    7770                      .dwattr $C$DW$1273, DW_AT_TI_symbol_name("_ctrlFreq_Hz")
    7771                      .dwattr $C$DW$1273, DW_AT_data_member_location[DW_OP_plus_uconst 0x9e]
    7772                      .dwattr $C$DW$1273, DW_AT_accessibility(DW_ACCESS_public)
    7773              $C$DW$1274      .dwtag  DW_TAG_member
    7774                      .dwattr $C$DW$1274, DW_AT_type(*$C$DW$T$67)
    7775                      .dwattr $C$DW$1274, DW_AT_name("estFreq_Hz")
    7776                      .dwattr $C$DW$1274, DW_AT_TI_symbol_name("_estFreq_Hz")
    7777                      .dwattr $C$DW$1274, DW_AT_data_member_location[DW_OP_plus_uconst 0xa0]
    7778                      .dwattr $C$DW$1274, DW_AT_accessibility(DW_ACCESS_public)
    7779              $C$DW$1275      .dwtag  DW_TAG_member
    7780                      .dwattr $C$DW$1275, DW_AT_type(*$C$DW$T$67)
    7781                      .dwattr $C$DW$1275, DW_AT_name("RoverL_estFreq_Hz")
    7782                      .dwattr $C$DW$1275, DW_AT_TI_symbol_name("_RoverL_estFreq_Hz")
    7783                      .dwattr $C$DW$1275, DW_AT_data_member_location[DW_OP_plus_uconst 0xa2]
    7784                      .dwattr $C$DW$1275, DW_AT_accessibility(DW_ACCESS_public)
    7785              $C$DW$1276      .dwtag  DW_TAG_member
    7786                      .dwattr $C$DW$1276, DW_AT_type(*$C$DW$T$67)
    7787                      .dwattr $C$DW$1276, DW_AT_name("trajFreq_Hz")
    7788                      .dwattr $C$DW$1276, DW_AT_TI_symbol_name("_trajFreq_Hz")
    7789                      .dwattr $C$DW$1276, DW_AT_data_member_location[DW_OP_plus_uconst 0xa4]
    7790                      .dwattr $C$DW$1276, DW_AT_accessibility(DW_ACCESS_public)
    7791              $C$DW$1277      .dwtag  DW_TAG_member
    7792                      .dwattr $C$DW$1277, DW_AT_type(*$C$DW$T$70)
    7793                      .dwattr $C$DW$1277, DW_AT_name("ctrlPeriod_sec")
    7794                      .dwattr $C$DW$1277, DW_AT_TI_symbol_name("_ctrlPeriod_sec")
    7795                      .dwattr $C$DW$1277, DW_AT_data_member_location[DW_OP_plus_uconst 0xa6]
    7796                      .dwattr $C$DW$1277, DW_AT_accessibility(DW_ACCESS_public)
    7797              $C$DW$1278      .dwtag  DW_TAG_member
TMS320C2000 Assembler PC v6.2.5 Tue Nov 21 22:57:45 2017

Tools Copyright (c) 1996-2014 Texas Instruments Incorporated
C:\Users\wmj\AppData\Local\Temp\1055210                              PAGE  146

    7798                      .dwattr $C$DW$1278, DW_AT_type(*$C$DW$T$70)
    7799                      .dwattr $C$DW$1278, DW_AT_name("maxNegativeIdCurrent_a")
    7800                      .dwattr $C$DW$1278, DW_AT_TI_symbol_name("_maxNegativeIdCurrent_a")
    7801                      .dwattr $C$DW$1278, DW_AT_data_member_location[DW_OP_plus_uconst 0xa8]
    7802                      .dwattr $C$DW$1278, DW_AT_accessibility(DW_ACCESS_public)
    7803              $C$DW$1279      .dwtag  DW_TAG_member
    7804                      .dwattr $C$DW$1279, DW_AT_type(*$C$DW$T$185)
    7805                      .dwattr $C$DW$1279, DW_AT_name("errorCode")
    7806                      .dwattr $C$DW$1279, DW_AT_TI_symbol_name("_errorCode")
    7807                      .dwattr $C$DW$1279, DW_AT_data_member_location[DW_OP_plus_uconst 0xaa]
    7808                      .dwattr $C$DW$1279, DW_AT_accessibility(DW_ACCESS_public)
    7809              $C$DW$1280      .dwtag  DW_TAG_member
    7810                      .dwattr $C$DW$1280, DW_AT_type(*$C$DW$T$35)
    7811                      .dwattr $C$DW$1280, DW_AT_name("motor_ID")
    7812                      .dwattr $C$DW$1280, DW_AT_TI_symbol_name("_motor_ID")
    7813                      .dwattr $C$DW$1280, DW_AT_data_member_location[DW_OP_plus_uconst 0xab]
    7814                      .dwattr $C$DW$1280, DW_AT_accessibility(DW_ACCESS_public)
    7815                      .dwendtag $C$DW$T$235
    7816              
    7817              $C$DW$T$240     .dwtag  DW_TAG_typedef, DW_AT_name("USER_Params")
    7818                      .dwattr $C$DW$T$240, DW_AT_type(*$C$DW$T$235)
    7819                      .dwattr $C$DW$T$240, DW_AT_language(DW_LANG_C)
    7820              $C$DW$1281      .dwtag  DW_TAG_TI_far_type
    7821                      .dwattr $C$DW$1281, DW_AT_type(*$C$DW$T$240)
    7822              $C$DW$T$291     .dwtag  DW_TAG_const_type
    7823                      .dwattr $C$DW$T$291, DW_AT_type(*$C$DW$1281)
    7824              $C$DW$T$292     .dwtag  DW_TAG_pointer_type
    7825                      .dwattr $C$DW$T$292, DW_AT_type(*$C$DW$T$291)
    7826                      .dwattr $C$DW$T$292, DW_AT_address_class(0x16)
    7827              $C$DW$T$241     .dwtag  DW_TAG_pointer_type
    7828                      .dwattr $C$DW$T$241, DW_AT_type(*$C$DW$T$240)
    7829                      .dwattr $C$DW$T$241, DW_AT_address_class(0x16)
    7830              $C$DW$T$212     .dwtag  DW_TAG_pointer_type
    7831                      .dwattr $C$DW$T$212, DW_AT_type(*$C$DW$T$235)
    7832                      .dwattr $C$DW$T$212, DW_AT_address_class(0x16)
    7833              $C$DW$T$213     .dwtag  DW_TAG_typedef, DW_AT_name("pUSER_Params")
    7834                      .dwattr $C$DW$T$213, DW_AT_type(*$C$DW$T$212)
    7835                      .dwattr $C$DW$T$213, DW_AT_language(DW_LANG_C)
    7836              
    7837              $C$DW$T$236     .dwtag  DW_TAG_structure_type
    7838                      .dwattr $C$DW$T$236, DW_AT_name("_WDOG_Obj_")
    7839                      .dwattr $C$DW$T$236, DW_AT_byte_size(0x08)
    7840              $C$DW$1282      .dwtag  DW_TAG_member
    7841                      .dwattr $C$DW$1282, DW_AT_type(*$C$DW$T$23)
    7842                      .dwattr $C$DW$1282, DW_AT_name("SCSR")
    7843                      .dwattr $C$DW$1282, DW_AT_TI_symbol_name("_SCSR")
    7844                      .dwattr $C$DW$1282, DW_AT_data_member_location[DW_OP_plus_uconst 0x0]
    7845                      .dwattr $C$DW$1282, DW_AT_accessibility(DW_ACCESS_public)
    7846              $C$DW$1283      .dwtag  DW_TAG_member
    7847                      .dwattr $C$DW$1283, DW_AT_type(*$C$DW$T$23)
    7848                      .dwattr $C$DW$1283, DW_AT_name("WDCNTR")
    7849                      .dwattr $C$DW$1283, DW_AT_TI_symbol_name("_WDCNTR")
    7850                      .dwattr $C$DW$1283, DW_AT_data_member_location[DW_OP_plus_uconst 0x1]
    7851                      .dwattr $C$DW$1283, DW_AT_accessibility(DW_ACCESS_public)
    7852              $C$DW$1284      .dwtag  DW_TAG_member
TMS320C2000 Assembler PC v6.2.5 Tue Nov 21 22:57:45 2017

Tools Copyright (c) 1996-2014 Texas Instruments Incorporated
C:\Users\wmj\AppData\Local\Temp\1055210                              PAGE  147

    7853                      .dwattr $C$DW$1284, DW_AT_type(*$C$DW$T$23)
    7854                      .dwattr $C$DW$1284, DW_AT_name("rsvd_1")
    7855                      .dwattr $C$DW$1284, DW_AT_TI_symbol_name("_rsvd_1")
    7856                      .dwattr $C$DW$1284, DW_AT_data_member_location[DW_OP_plus_uconst 0x2]
    7857                      .dwattr $C$DW$1284, DW_AT_accessibility(DW_ACCESS_public)
    7858              $C$DW$1285      .dwtag  DW_TAG_member
    7859                      .dwattr $C$DW$1285, DW_AT_type(*$C$DW$T$23)
    7860                      .dwattr $C$DW$1285, DW_AT_name("WDKEY")
    7861                      .dwattr $C$DW$1285, DW_AT_TI_symbol_name("_WDKEY")
    7862                      .dwattr $C$DW$1285, DW_AT_data_member_location[DW_OP_plus_uconst 0x3]
    7863                      .dwattr $C$DW$1285, DW_AT_accessibility(DW_ACCESS_public)
    7864              $C$DW$1286      .dwtag  DW_TAG_member
    7865                      .dwattr $C$DW$1286, DW_AT_type(*$C$DW$T$28)
    7866                      .dwattr $C$DW$1286, DW_AT_name("rsvd_2")
    7867                      .dwattr $C$DW$1286, DW_AT_TI_symbol_name("_rsvd_2")
    7868                      .dwattr $C$DW$1286, DW_AT_data_member_location[DW_OP_plus_uconst 0x4]
    7869                      .dwattr $C$DW$1286, DW_AT_accessibility(DW_ACCESS_public)
    7870              $C$DW$1287      .dwtag  DW_TAG_member
    7871                      .dwattr $C$DW$1287, DW_AT_type(*$C$DW$T$23)
    7872                      .dwattr $C$DW$1287, DW_AT_name("WDCR")
    7873                      .dwattr $C$DW$1287, DW_AT_TI_symbol_name("_WDCR")
    7874                      .dwattr $C$DW$1287, DW_AT_data_member_location[DW_OP_plus_uconst 0x7]
    7875                      .dwattr $C$DW$1287, DW_AT_accessibility(DW_ACCESS_public)
    7876                      .dwendtag $C$DW$T$236
    7877              
    7878              $C$DW$T$149     .dwtag  DW_TAG_pointer_type
    7879                      .dwattr $C$DW$T$149, DW_AT_type(*$C$DW$T$236)
    7880                      .dwattr $C$DW$T$149, DW_AT_address_class(0x16)
    7881              $C$DW$T$150     .dwtag  DW_TAG_typedef, DW_AT_name("WDOG_Handle")
    7882                      .dwattr $C$DW$T$150, DW_AT_type(*$C$DW$T$149)
    7883                      .dwattr $C$DW$T$150, DW_AT_language(DW_LANG_C)
    7884              $C$DW$T$3       .dwtag  DW_TAG_pointer_type
    7885                      .dwattr $C$DW$T$3, DW_AT_address_class(0x16)
    7886              
    7887              $C$DW$T$203     .dwtag  DW_TAG_subroutine_type
    7888                      .dwattr $C$DW$T$203, DW_AT_language(DW_LANG_C)
    7889              $C$DW$T$204     .dwtag  DW_TAG_pointer_type
    7890                      .dwattr $C$DW$T$204, DW_AT_type(*$C$DW$T$203)
    7891                      .dwattr $C$DW$T$204, DW_AT_address_class(0x16)
    7892              $C$DW$T$205     .dwtag  DW_TAG_typedef, DW_AT_name("PIE_IntVec_t")
    7893                      .dwattr $C$DW$T$205, DW_AT_type(*$C$DW$T$204)
    7894                      .dwattr $C$DW$T$205, DW_AT_language(DW_LANG_C)
    7895              $C$DW$1288      .dwtag  DW_TAG_TI_far_type
    7896                      .dwattr $C$DW$1288, DW_AT_type(*$C$DW$T$205)
    7897              $C$DW$T$206     .dwtag  DW_TAG_volatile_type
    7898                      .dwattr $C$DW$T$206, DW_AT_type(*$C$DW$1288)
    7899              $C$DW$1289      .dwtag  DW_TAG_TI_far_type
    7900                      .dwattr $C$DW$1289, DW_AT_type(*$C$DW$T$205)
    7901              $C$DW$T$293     .dwtag  DW_TAG_const_type
    7902                      .dwattr $C$DW$T$293, DW_AT_type(*$C$DW$1289)
    7903              $C$DW$T$4       .dwtag  DW_TAG_base_type
    7904                      .dwattr $C$DW$T$4, DW_AT_encoding(DW_ATE_boolean)
    7905                      .dwattr $C$DW$T$4, DW_AT_name("bool")
    7906                      .dwattr $C$DW$T$4, DW_AT_byte_size(0x01)
    7907              $C$DW$T$5       .dwtag  DW_TAG_base_type
TMS320C2000 Assembler PC v6.2.5 Tue Nov 21 22:57:45 2017

Tools Copyright (c) 1996-2014 Texas Instruments Incorporated
C:\Users\wmj\AppData\Local\Temp\1055210                              PAGE  148

    7908                      .dwattr $C$DW$T$5, DW_AT_encoding(DW_ATE_signed_char)
    7909                      .dwattr $C$DW$T$5, DW_AT_name("signed char")
    7910                      .dwattr $C$DW$T$5, DW_AT_byte_size(0x01)
    7911              $C$DW$T$6       .dwtag  DW_TAG_base_type
    7912                      .dwattr $C$DW$T$6, DW_AT_encoding(DW_ATE_unsigned_char)
    7913                      .dwattr $C$DW$T$6, DW_AT_name("unsigned char")
    7914                      .dwattr $C$DW$T$6, DW_AT_byte_size(0x01)
    7915              $C$DW$T$167     .dwtag  DW_TAG_typedef, DW_AT_name("UCHAR")
    7916                      .dwattr $C$DW$T$167, DW_AT_type(*$C$DW$T$6)
    7917                      .dwattr $C$DW$T$167, DW_AT_language(DW_LANG_C)
    7918              
    7919              $C$DW$T$168     .dwtag  DW_TAG_array_type
    7920                      .dwattr $C$DW$T$168, DW_AT_type(*$C$DW$T$167)
    7921                      .dwattr $C$DW$T$168, DW_AT_language(DW_LANG_C)
    7922                      .dwattr $C$DW$T$168, DW_AT_byte_size(0x08)
    7923              $C$DW$1290      .dwtag  DW_TAG_subrange_type
    7924                      .dwattr $C$DW$1290, DW_AT_upper_bound(0x07)
    7925                      .dwendtag $C$DW$T$168
    7926              
    7927              $C$DW$T$169     .dwtag  DW_TAG_pointer_type
    7928                      .dwattr $C$DW$T$169, DW_AT_type(*$C$DW$T$167)
    7929                      .dwattr $C$DW$T$169, DW_AT_address_class(0x16)
    7930              
    7931              $C$DW$T$180     .dwtag  DW_TAG_array_type
    7932                      .dwattr $C$DW$T$180, DW_AT_type(*$C$DW$T$167)
    7933                      .dwattr $C$DW$T$180, DW_AT_language(DW_LANG_C)
    7934                      .dwattr $C$DW$T$180, DW_AT_byte_size(0x02)
    7935              $C$DW$1291      .dwtag  DW_TAG_subrange_type
    7936                      .dwattr $C$DW$1291, DW_AT_upper_bound(0x01)
    7937                      .dwendtag $C$DW$T$180
    7938              
    7939              $C$DW$T$33      .dwtag  DW_TAG_typedef, DW_AT_name("_Bool")
    7940                      .dwattr $C$DW$T$33, DW_AT_type(*$C$DW$T$6)
    7941                      .dwattr $C$DW$T$33, DW_AT_language(DW_LANG_C)
    7942              $C$DW$1292      .dwtag  DW_TAG_TI_far_type
    7943                      .dwattr $C$DW$1292, DW_AT_type(*$C$DW$T$33)
    7944              $C$DW$T$298     .dwtag  DW_TAG_const_type
    7945                      .dwattr $C$DW$T$298, DW_AT_type(*$C$DW$1292)
    7946              $C$DW$T$7       .dwtag  DW_TAG_base_type
    7947                      .dwattr $C$DW$T$7, DW_AT_encoding(DW_ATE_signed_char)
    7948                      .dwattr $C$DW$T$7, DW_AT_name("wchar_t")
    7949                      .dwattr $C$DW$T$7, DW_AT_byte_size(0x01)
    7950              $C$DW$T$8       .dwtag  DW_TAG_base_type
    7951                      .dwattr $C$DW$T$8, DW_AT_encoding(DW_ATE_signed)
    7952                      .dwattr $C$DW$T$8, DW_AT_name("short")
    7953                      .dwattr $C$DW$T$8, DW_AT_byte_size(0x01)
    7954              $C$DW$T$102     .dwtag  DW_TAG_typedef, DW_AT_name("int16_t")
    7955                      .dwattr $C$DW$T$102, DW_AT_type(*$C$DW$T$8)
    7956                      .dwattr $C$DW$T$102, DW_AT_language(DW_LANG_C)
    7957              
    7958              $C$DW$T$103     .dwtag  DW_TAG_array_type
    7959                      .dwattr $C$DW$T$103, DW_AT_type(*$C$DW$T$102)
    7960                      .dwattr $C$DW$T$103, DW_AT_language(DW_LANG_C)
    7961                      .dwattr $C$DW$T$103, DW_AT_byte_size(0x0f)
    7962              $C$DW$1293      .dwtag  DW_TAG_subrange_type
TMS320C2000 Assembler PC v6.2.5 Tue Nov 21 22:57:45 2017

Tools Copyright (c) 1996-2014 Texas Instruments Incorporated
C:\Users\wmj\AppData\Local\Temp\1055210                              PAGE  149

    7963                      .dwattr $C$DW$1293, DW_AT_upper_bound(0x0e)
    7964                      .dwendtag $C$DW$T$103
    7965              
    7966              $C$DW$T$9       .dwtag  DW_TAG_base_type
    7967                      .dwattr $C$DW$T$9, DW_AT_encoding(DW_ATE_unsigned)
    7968                      .dwattr $C$DW$T$9, DW_AT_name("unsigned short")
    7969                      .dwattr $C$DW$T$9, DW_AT_byte_size(0x01)
    7970              $C$DW$T$22      .dwtag  DW_TAG_typedef, DW_AT_name("uint16_t")
    7971                      .dwattr $C$DW$T$22, DW_AT_type(*$C$DW$T$9)
    7972                      .dwattr $C$DW$T$22, DW_AT_language(DW_LANG_C)
    7973              $C$DW$T$170     .dwtag  DW_TAG_typedef, DW_AT_name("USHORT")
    7974                      .dwattr $C$DW$T$170, DW_AT_type(*$C$DW$T$22)
    7975                      .dwattr $C$DW$T$170, DW_AT_language(DW_LANG_C)
    7976              
    7977              $C$DW$T$104     .dwtag  DW_TAG_array_type
    7978                      .dwattr $C$DW$T$104, DW_AT_type(*$C$DW$T$22)
    7979                      .dwattr $C$DW$T$104, DW_AT_language(DW_LANG_C)
    7980                      .dwattr $C$DW$T$104, DW_AT_byte_size(0x0f)
    7981              $C$DW$1294      .dwtag  DW_TAG_subrange_type
    7982                      .dwattr $C$DW$1294, DW_AT_upper_bound(0x0e)
    7983                      .dwendtag $C$DW$T$104
    7984              
    7985              $C$DW$T$295     .dwtag  DW_TAG_pointer_type
    7986                      .dwattr $C$DW$T$295, DW_AT_type(*$C$DW$T$22)
    7987                      .dwattr $C$DW$T$295, DW_AT_address_class(0x16)
    7988              $C$DW$1295      .dwtag  DW_TAG_TI_far_type
    7989                      .dwattr $C$DW$1295, DW_AT_type(*$C$DW$T$22)
    7990              $C$DW$T$23      .dwtag  DW_TAG_volatile_type
    7991                      .dwattr $C$DW$T$23, DW_AT_type(*$C$DW$1295)
    7992              
    7993              $C$DW$T$24      .dwtag  DW_TAG_array_type
    7994                      .dwattr $C$DW$T$24, DW_AT_type(*$C$DW$T$23)
    7995                      .dwattr $C$DW$T$24, DW_AT_language(DW_LANG_C)
    7996                      .dwattr $C$DW$T$24, DW_AT_byte_size(0x10)
    7997              $C$DW$1296      .dwtag  DW_TAG_subrange_type
    7998                      .dwattr $C$DW$1296, DW_AT_upper_bound(0x0f)
    7999                      .dwendtag $C$DW$T$24
    8000              
    8001              
    8002              $C$DW$T$25      .dwtag  DW_TAG_array_type
    8003                      .dwattr $C$DW$T$25, DW_AT_type(*$C$DW$T$23)
    8004                      .dwattr $C$DW$T$25, DW_AT_language(DW_LANG_C)
    8005                      .dwattr $C$DW$T$25, DW_AT_byte_size(0x65f0)
    8006              $C$DW$1297      .dwtag  DW_TAG_subrange_type
    8007                      .dwattr $C$DW$1297, DW_AT_upper_bound(0x65ef)
    8008                      .dwendtag $C$DW$T$25
    8009              
    8010              
    8011              $C$DW$T$26      .dwtag  DW_TAG_array_type
    8012                      .dwattr $C$DW$T$26, DW_AT_type(*$C$DW$T$23)
    8013                      .dwattr $C$DW$T$26, DW_AT_language(DW_LANG_C)
    8014                      .dwattr $C$DW$T$26, DW_AT_byte_size(0x02)
    8015              $C$DW$1298      .dwtag  DW_TAG_subrange_type
    8016                      .dwattr $C$DW$1298, DW_AT_upper_bound(0x01)
    8017                      .dwendtag $C$DW$T$26
TMS320C2000 Assembler PC v6.2.5 Tue Nov 21 22:57:45 2017

Tools Copyright (c) 1996-2014 Texas Instruments Incorporated
C:\Users\wmj\AppData\Local\Temp\1055210                              PAGE  150

    8018              
    8019              
    8020              $C$DW$T$27      .dwtag  DW_TAG_array_type
    8021                      .dwattr $C$DW$T$27, DW_AT_type(*$C$DW$T$23)
    8022                      .dwattr $C$DW$T$27, DW_AT_language(DW_LANG_C)
    8023                      .dwattr $C$DW$T$27, DW_AT_byte_size(0x05)
    8024              $C$DW$1299      .dwtag  DW_TAG_subrange_type
    8025                      .dwattr $C$DW$1299, DW_AT_upper_bound(0x04)
    8026                      .dwendtag $C$DW$T$27
    8027              
    8028              
    8029              $C$DW$T$28      .dwtag  DW_TAG_array_type
    8030                      .dwattr $C$DW$T$28, DW_AT_type(*$C$DW$T$23)
    8031                      .dwattr $C$DW$T$28, DW_AT_language(DW_LANG_C)
    8032                      .dwattr $C$DW$T$28, DW_AT_byte_size(0x03)
    8033              $C$DW$1300      .dwtag  DW_TAG_subrange_type
    8034                      .dwattr $C$DW$1300, DW_AT_upper_bound(0x02)
    8035                      .dwendtag $C$DW$T$28
    8036              
    8037              
    8038              $C$DW$T$29      .dwtag  DW_TAG_array_type
    8039                      .dwattr $C$DW$T$29, DW_AT_type(*$C$DW$T$23)
    8040                      .dwattr $C$DW$T$29, DW_AT_language(DW_LANG_C)
    8041                      .dwattr $C$DW$T$29, DW_AT_byte_size(0x0d)
    8042              $C$DW$1301      .dwtag  DW_TAG_subrange_type
    8043                      .dwattr $C$DW$1301, DW_AT_upper_bound(0x0c)
    8044                      .dwendtag $C$DW$T$29
    8045              
    8046              
    8047              $C$DW$T$37      .dwtag  DW_TAG_array_type
    8048                      .dwattr $C$DW$T$37, DW_AT_type(*$C$DW$T$23)
    8049                      .dwattr $C$DW$T$37, DW_AT_language(DW_LANG_C)
    8050                      .dwattr $C$DW$T$37, DW_AT_byte_size(0x08)
    8051              $C$DW$1302      .dwtag  DW_TAG_subrange_type
    8052                      .dwattr $C$DW$1302, DW_AT_upper_bound(0x07)
    8053                      .dwendtag $C$DW$T$37
    8054              
    8055              
    8056              $C$DW$T$113     .dwtag  DW_TAG_array_type
    8057                      .dwattr $C$DW$T$113, DW_AT_type(*$C$DW$T$23)
    8058                      .dwattr $C$DW$T$113, DW_AT_language(DW_LANG_C)
    8059                      .dwattr $C$DW$T$113, DW_AT_byte_size(0x18)
    8060              $C$DW$1303      .dwtag  DW_TAG_subrange_type
    8061                      .dwattr $C$DW$1303, DW_AT_upper_bound(0x17)
    8062                      .dwendtag $C$DW$T$113
    8063              
    8064              
    8065              $C$DW$T$114     .dwtag  DW_TAG_array_type
    8066                      .dwattr $C$DW$T$114, DW_AT_type(*$C$DW$T$23)
    8067                      .dwattr $C$DW$T$114, DW_AT_language(DW_LANG_C)
    8068                      .dwattr $C$DW$T$114, DW_AT_byte_size(0x04)
    8069              $C$DW$1304      .dwtag  DW_TAG_subrange_type
    8070                      .dwattr $C$DW$1304, DW_AT_upper_bound(0x03)
    8071                      .dwendtag $C$DW$T$114
    8072              
TMS320C2000 Assembler PC v6.2.5 Tue Nov 21 22:57:45 2017

Tools Copyright (c) 1996-2014 Texas Instruments Incorporated
C:\Users\wmj\AppData\Local\Temp\1055210                              PAGE  151

    8073              
    8074              $C$DW$T$202     .dwtag  DW_TAG_array_type
    8075                      .dwattr $C$DW$T$202, DW_AT_type(*$C$DW$T$23)
    8076                      .dwattr $C$DW$T$202, DW_AT_language(DW_LANG_C)
    8077                      .dwattr $C$DW$T$202, DW_AT_byte_size(0x06)
    8078              $C$DW$1305      .dwtag  DW_TAG_subrange_type
    8079                      .dwattr $C$DW$1305, DW_AT_upper_bound(0x05)
    8080                      .dwendtag $C$DW$T$202
    8081              
    8082              
    8083              $C$DW$T$207     .dwtag  DW_TAG_array_type
    8084                      .dwattr $C$DW$T$207, DW_AT_type(*$C$DW$T$23)
    8085                      .dwattr $C$DW$T$207, DW_AT_language(DW_LANG_C)
    8086                      .dwattr $C$DW$T$207, DW_AT_byte_size(0x6270)
    8087              $C$DW$1306      .dwtag  DW_TAG_subrange_type
    8088                      .dwattr $C$DW$1306, DW_AT_upper_bound(0x626f)
    8089                      .dwendtag $C$DW$T$207
    8090              
    8091              
    8092              $C$DW$T$225     .dwtag  DW_TAG_array_type
    8093                      .dwattr $C$DW$T$225, DW_AT_type(*$C$DW$T$23)
    8094                      .dwattr $C$DW$T$225, DW_AT_language(DW_LANG_C)
    8095                      .dwattr $C$DW$T$225, DW_AT_byte_size(0x6698)
    8096              $C$DW$1307      .dwtag  DW_TAG_subrange_type
    8097                      .dwattr $C$DW$1307, DW_AT_upper_bound(0x6697)
    8098                      .dwendtag $C$DW$T$225
    8099              
    8100              $C$DW$T$69      .dwtag  DW_TAG_typedef, DW_AT_name("uint_least16_t")
    8101                      .dwattr $C$DW$T$69, DW_AT_type(*$C$DW$T$22)
    8102                      .dwattr $C$DW$T$69, DW_AT_language(DW_LANG_C)
    8103              $C$DW$T$35      .dwtag  DW_TAG_typedef, DW_AT_name("uint_least8_t")
    8104                      .dwattr $C$DW$T$35, DW_AT_type(*$C$DW$T$22)
    8105                      .dwattr $C$DW$T$35, DW_AT_language(DW_LANG_C)
    8106              $C$DW$1308      .dwtag  DW_TAG_TI_far_type
    8107                      .dwattr $C$DW$1308, DW_AT_type(*$C$DW$T$35)
    8108              $C$DW$T$260     .dwtag  DW_TAG_const_type
    8109                      .dwattr $C$DW$T$260, DW_AT_type(*$C$DW$1308)
    8110              $C$DW$T$10      .dwtag  DW_TAG_base_type
    8111                      .dwattr $C$DW$T$10, DW_AT_encoding(DW_ATE_signed)
    8112                      .dwattr $C$DW$T$10, DW_AT_name("int")
    8113                      .dwattr $C$DW$T$10, DW_AT_byte_size(0x01)
    8114              $C$DW$T$11      .dwtag  DW_TAG_base_type
    8115                      .dwattr $C$DW$T$11, DW_AT_encoding(DW_ATE_unsigned)
    8116                      .dwattr $C$DW$T$11, DW_AT_name("unsigned int")
    8117                      .dwattr $C$DW$T$11, DW_AT_byte_size(0x01)
    8118              $C$DW$T$12      .dwtag  DW_TAG_base_type
    8119                      .dwattr $C$DW$T$12, DW_AT_encoding(DW_ATE_signed)
    8120                      .dwattr $C$DW$T$12, DW_AT_name("long")
    8121                      .dwattr $C$DW$T$12, DW_AT_byte_size(0x02)
    8122              $C$DW$T$31      .dwtag  DW_TAG_typedef, DW_AT_name("_iq")
    8123                      .dwattr $C$DW$T$31, DW_AT_type(*$C$DW$T$12)
    8124                      .dwattr $C$DW$T$31, DW_AT_language(DW_LANG_C)
    8125              
    8126              $C$DW$T$159     .dwtag  DW_TAG_array_type
    8127                      .dwattr $C$DW$T$159, DW_AT_type(*$C$DW$T$31)
TMS320C2000 Assembler PC v6.2.5 Tue Nov 21 22:57:45 2017

Tools Copyright (c) 1996-2014 Texas Instruments Incorporated
C:\Users\wmj\AppData\Local\Temp\1055210                              PAGE  152

    8128                      .dwattr $C$DW$T$159, DW_AT_language(DW_LANG_C)
    8129                      .dwattr $C$DW$T$159, DW_AT_byte_size(0x04)
    8130              $C$DW$1309      .dwtag  DW_TAG_subrange_type
    8131                      .dwattr $C$DW$1309, DW_AT_upper_bound(0x01)
    8132                      .dwendtag $C$DW$T$159
    8133              
    8134              
    8135              $C$DW$T$161     .dwtag  DW_TAG_array_type
    8136                      .dwattr $C$DW$T$161, DW_AT_type(*$C$DW$T$31)
    8137                      .dwattr $C$DW$T$161, DW_AT_language(DW_LANG_C)
    8138                      .dwattr $C$DW$T$161, DW_AT_byte_size(0x06)
    8139              $C$DW$1310      .dwtag  DW_TAG_subrange_type
    8140                      .dwattr $C$DW$1310, DW_AT_upper_bound(0x02)
    8141                      .dwendtag $C$DW$T$161
    8142              
    8143              $C$DW$T$186     .dwtag  DW_TAG_typedef, DW_AT_name("_iq20")
    8144                      .dwattr $C$DW$T$186, DW_AT_type(*$C$DW$T$12)
    8145                      .dwattr $C$DW$T$186, DW_AT_language(DW_LANG_C)
    8146              $C$DW$T$100     .dwtag  DW_TAG_typedef, DW_AT_name("int32_t")
    8147                      .dwattr $C$DW$T$100, DW_AT_type(*$C$DW$T$12)
    8148                      .dwattr $C$DW$T$100, DW_AT_language(DW_LANG_C)
    8149              $C$DW$T$13      .dwtag  DW_TAG_base_type
    8150                      .dwattr $C$DW$T$13, DW_AT_encoding(DW_ATE_unsigned)
    8151                      .dwattr $C$DW$T$13, DW_AT_name("unsigned long")
    8152                      .dwattr $C$DW$T$13, DW_AT_byte_size(0x02)
    8153              $C$DW$T$261     .dwtag  DW_TAG_typedef, DW_AT_name("size_t")
    8154                      .dwattr $C$DW$T$261, DW_AT_type(*$C$DW$T$13)
    8155                      .dwattr $C$DW$T$261, DW_AT_language(DW_LANG_C)
    8156              $C$DW$1311      .dwtag  DW_TAG_TI_far_type
    8157                      .dwattr $C$DW$1311, DW_AT_type(*$C$DW$T$261)
    8158              $C$DW$T$262     .dwtag  DW_TAG_const_type
    8159                      .dwattr $C$DW$T$262, DW_AT_type(*$C$DW$1311)
    8160              $C$DW$T$66      .dwtag  DW_TAG_typedef, DW_AT_name("uint32_t")
    8161                      .dwattr $C$DW$T$66, DW_AT_type(*$C$DW$T$13)
    8162                      .dwattr $C$DW$T$66, DW_AT_language(DW_LANG_C)
    8163              $C$DW$1312      .dwtag  DW_TAG_TI_far_type
    8164                      .dwattr $C$DW$1312, DW_AT_type(*$C$DW$T$66)
    8165              $C$DW$T$112     .dwtag  DW_TAG_volatile_type
    8166                      .dwattr $C$DW$T$112, DW_AT_type(*$C$DW$1312)
    8167              $C$DW$T$67      .dwtag  DW_TAG_typedef, DW_AT_name("uint_least32_t")
    8168                      .dwattr $C$DW$T$67, DW_AT_type(*$C$DW$T$66)
    8169                      .dwattr $C$DW$T$67, DW_AT_language(DW_LANG_C)
    8170              
    8171              $C$DW$T$68      .dwtag  DW_TAG_array_type
    8172                      .dwattr $C$DW$T$68, DW_AT_type(*$C$DW$T$67)
    8173                      .dwattr $C$DW$T$68, DW_AT_language(DW_LANG_C)
    8174                      .dwattr $C$DW$T$68, DW_AT_byte_size(0x08)
    8175              $C$DW$1313      .dwtag  DW_TAG_subrange_type
    8176                      .dwattr $C$DW$1313, DW_AT_upper_bound(0x03)
    8177                      .dwendtag $C$DW$T$68
    8178              
    8179              
    8180              $C$DW$T$232     .dwtag  DW_TAG_array_type
    8181                      .dwattr $C$DW$T$232, DW_AT_type(*$C$DW$T$67)
    8182                      .dwattr $C$DW$T$232, DW_AT_language(DW_LANG_C)
TMS320C2000 Assembler PC v6.2.5 Tue Nov 21 22:57:45 2017

Tools Copyright (c) 1996-2014 Texas Instruments Incorporated
C:\Users\wmj\AppData\Local\Temp\1055210                              PAGE  153

    8183                      .dwattr $C$DW$T$232, DW_AT_byte_size(0x1c)
    8184              $C$DW$1314      .dwtag  DW_TAG_subrange_type
    8185                      .dwattr $C$DW$1314, DW_AT_upper_bound(0x0d)
    8186                      .dwendtag $C$DW$T$232
    8187              
    8188              
    8189              $C$DW$T$233     .dwtag  DW_TAG_array_type
    8190                      .dwattr $C$DW$T$233, DW_AT_type(*$C$DW$T$67)
    8191                      .dwattr $C$DW$T$233, DW_AT_language(DW_LANG_C)
    8192                      .dwattr $C$DW$T$233, DW_AT_byte_size(0x0c)
    8193              $C$DW$1315      .dwtag  DW_TAG_subrange_type
    8194                      .dwattr $C$DW$1315, DW_AT_upper_bound(0x05)
    8195                      .dwendtag $C$DW$T$233
    8196              
    8197              
    8198              $C$DW$T$234     .dwtag  DW_TAG_array_type
    8199                      .dwattr $C$DW$T$234, DW_AT_type(*$C$DW$T$67)
    8200                      .dwattr $C$DW$T$234, DW_AT_language(DW_LANG_C)
    8201                      .dwattr $C$DW$T$234, DW_AT_byte_size(0x0e)
    8202              $C$DW$1316      .dwtag  DW_TAG_subrange_type
    8203                      .dwattr $C$DW$1316, DW_AT_upper_bound(0x06)
    8204                      .dwendtag $C$DW$T$234
    8205              
    8206              $C$DW$T$14      .dwtag  DW_TAG_base_type
    8207                      .dwattr $C$DW$T$14, DW_AT_encoding(DW_ATE_signed)
    8208                      .dwattr $C$DW$T$14, DW_AT_name("long long")
    8209                      .dwattr $C$DW$T$14, DW_AT_byte_size(0x04)
    8210              $C$DW$T$15      .dwtag  DW_TAG_base_type
    8211                      .dwattr $C$DW$T$15, DW_AT_encoding(DW_ATE_unsigned)
    8212                      .dwattr $C$DW$T$15, DW_AT_name("unsigned long long")
    8213                      .dwattr $C$DW$T$15, DW_AT_byte_size(0x04)
    8214              $C$DW$T$16      .dwtag  DW_TAG_base_type
    8215                      .dwattr $C$DW$T$16, DW_AT_encoding(DW_ATE_float)
    8216                      .dwattr $C$DW$T$16, DW_AT_name("float")
    8217                      .dwattr $C$DW$T$16, DW_AT_byte_size(0x02)
    8218              $C$DW$T$70      .dwtag  DW_TAG_typedef, DW_AT_name("float_t")
    8219                      .dwattr $C$DW$T$70, DW_AT_type(*$C$DW$T$16)
    8220                      .dwattr $C$DW$T$70, DW_AT_language(DW_LANG_C)
    8221              $C$DW$T$17      .dwtag  DW_TAG_base_type
    8222                      .dwattr $C$DW$T$17, DW_AT_encoding(DW_ATE_float)
    8223                      .dwattr $C$DW$T$17, DW_AT_name("double")
    8224                      .dwattr $C$DW$T$17, DW_AT_byte_size(0x02)
    8225              $C$DW$T$18      .dwtag  DW_TAG_base_type
    8226                      .dwattr $C$DW$T$18, DW_AT_encoding(DW_ATE_float)
    8227                      .dwattr $C$DW$T$18, DW_AT_name("long double")
    8228                      .dwattr $C$DW$T$18, DW_AT_byte_size(0x04)
    8229              $C$DW$T$352     .dwtag  DW_TAG_typedef, DW_AT_name("CHAR")
    8230                      .dwattr $C$DW$T$352, DW_AT_type(*$C$DW$T$5)
    8231                      .dwattr $C$DW$T$352, DW_AT_language(DW_LANG_C)
    8232                      .dwattr $C$DW$CU, DW_AT_language(DW_LANG_C)
    8233              
    8234              ;***************************************************************
    8235              ;* DWARF CIE ENTRIES                                           *
    8236              ;***************************************************************
    8237              
TMS320C2000 Assembler PC v6.2.5 Tue Nov 21 22:57:45 2017

Tools Copyright (c) 1996-2014 Texas Instruments Incorporated
C:\Users\wmj\AppData\Local\Temp\1055210                              PAGE  154

    8238              $C$DW$CIE       .dwcie 78
    8239                      .dwcfi  cfa_register, 20
    8240                      .dwcfi  cfa_offset, 0
    8241                      .dwcfi  undefined, 0
    8242                      .dwcfi  undefined, 1
    8243                      .dwcfi  undefined, 2
    8244                      .dwcfi  undefined, 3
    8245                      .dwcfi  undefined, 20
    8246                      .dwcfi  undefined, 21
    8247                      .dwcfi  undefined, 22
    8248                      .dwcfi  undefined, 23
    8249                      .dwcfi  undefined, 24
    8250                      .dwcfi  undefined, 25
    8251                      .dwcfi  undefined, 26
    8252                      .dwcfi  same_value, 28
    8253                      .dwcfi  undefined, 29
    8254                      .dwcfi  undefined, 30
    8255                      .dwcfi  undefined, 31
    8256                      .dwcfi  undefined, 32
    8257                      .dwcfi  undefined, 33
    8258                      .dwcfi  undefined, 34
    8259                      .dwcfi  undefined, 35
    8260                      .dwcfi  undefined, 36
    8261                      .dwcfi  undefined, 37
    8262                      .dwcfi  undefined, 38
    8263                      .dwcfi  undefined, 75
    8264                      .dwcfi  undefined, 76
    8265                      .dwcfi  undefined, 77
    8266                      .dwcfi  undefined, 4
    8267                      .dwcfi  same_value, 6
    8268                      .dwcfi  same_value, 8
    8269                      .dwcfi  same_value, 10
    8270                      .dwcfi  undefined, 12
    8271                      .dwcfi  undefined, 14
    8272                      .dwcfi  undefined, 16
    8273                      .dwcfi  undefined, 17
    8274                      .dwcfi  undefined, 18
    8275                      .dwcfi  undefined, 19
    8276                      .dwcfi  undefined, 5
    8277                      .dwcfi  same_value, 7
    8278                      .dwcfi  same_value, 9
    8279                      .dwcfi  same_value, 11
    8280                      .dwcfi  undefined, 13
    8281                      .dwcfi  undefined, 15
    8282                      .dwcfi  undefined, 78
    8283                      .dwendentry
    8284              
    8285              ;***************************************************************
    8286              ;* DWARF REGISTER MAP                                          *
    8287              ;***************************************************************
    8288              
    8289              $C$DW$1317      .dwtag  DW_TAG_TI_assign_register, DW_AT_name("AL")
    8290                      .dwattr $C$DW$1317, DW_AT_location[DW_OP_reg0]
    8291              $C$DW$1318      .dwtag  DW_TAG_TI_assign_register, DW_AT_name("AH")
    8292                      .dwattr $C$DW$1318, DW_AT_location[DW_OP_reg1]
TMS320C2000 Assembler PC v6.2.5 Tue Nov 21 22:57:45 2017

Tools Copyright (c) 1996-2014 Texas Instruments Incorporated
C:\Users\wmj\AppData\Local\Temp\1055210                              PAGE  155

    8293              $C$DW$1319      .dwtag  DW_TAG_TI_assign_register, DW_AT_name("PL")
    8294                      .dwattr $C$DW$1319, DW_AT_location[DW_OP_reg2]
    8295              $C$DW$1320      .dwtag  DW_TAG_TI_assign_register, DW_AT_name("PH")
    8296                      .dwattr $C$DW$1320, DW_AT_location[DW_OP_reg3]
    8297              $C$DW$1321      .dwtag  DW_TAG_TI_assign_register, DW_AT_name("SP")
    8298                      .dwattr $C$DW$1321, DW_AT_location[DW_OP_reg20]
    8299              $C$DW$1322      .dwtag  DW_TAG_TI_assign_register, DW_AT_name("XT")
    8300                      .dwattr $C$DW$1322, DW_AT_location[DW_OP_reg21]
    8301              $C$DW$1323      .dwtag  DW_TAG_TI_assign_register, DW_AT_name("T")
    8302                      .dwattr $C$DW$1323, DW_AT_location[DW_OP_reg22]
    8303              $C$DW$1324      .dwtag  DW_TAG_TI_assign_register, DW_AT_name("ST0")
    8304                      .dwattr $C$DW$1324, DW_AT_location[DW_OP_reg23]
    8305              $C$DW$1325      .dwtag  DW_TAG_TI_assign_register, DW_AT_name("ST1")
    8306                      .dwattr $C$DW$1325, DW_AT_location[DW_OP_reg24]
    8307              $C$DW$1326      .dwtag  DW_TAG_TI_assign_register, DW_AT_name("PC")
    8308                      .dwattr $C$DW$1326, DW_AT_location[DW_OP_reg25]
    8309              $C$DW$1327      .dwtag  DW_TAG_TI_assign_register, DW_AT_name("RPC")
    8310                      .dwattr $C$DW$1327, DW_AT_location[DW_OP_reg26]
    8311              $C$DW$1328      .dwtag  DW_TAG_TI_assign_register, DW_AT_name("FP")
    8312                      .dwattr $C$DW$1328, DW_AT_location[DW_OP_reg28]
    8313              $C$DW$1329      .dwtag  DW_TAG_TI_assign_register, DW_AT_name("DP")
    8314                      .dwattr $C$DW$1329, DW_AT_location[DW_OP_reg29]
    8315              $C$DW$1330      .dwtag  DW_TAG_TI_assign_register, DW_AT_name("SXM")
    8316                      .dwattr $C$DW$1330, DW_AT_location[DW_OP_reg30]
    8317              $C$DW$1331      .dwtag  DW_TAG_TI_assign_register, DW_AT_name("PM")
    8318                      .dwattr $C$DW$1331, DW_AT_location[DW_OP_reg31]
    8319              $C$DW$1332      .dwtag  DW_TAG_TI_assign_register, DW_AT_name("OVM")
    8320                      .dwattr $C$DW$1332, DW_AT_location[DW_OP_regx 0x20]
    8321              $C$DW$1333      .dwtag  DW_TAG_TI_assign_register, DW_AT_name("PAGE0")
    8322                      .dwattr $C$DW$1333, DW_AT_location[DW_OP_regx 0x21]
    8323              $C$DW$1334      .dwtag  DW_TAG_TI_assign_register, DW_AT_name("AMODE")
    8324                      .dwattr $C$DW$1334, DW_AT_location[DW_OP_regx 0x22]
    8325              $C$DW$1335      .dwtag  DW_TAG_TI_assign_register, DW_AT_name("INTM")
    8326                      .dwattr $C$DW$1335, DW_AT_location[DW_OP_regx 0x23]
    8327              $C$DW$1336      .dwtag  DW_TAG_TI_assign_register, DW_AT_name("IFR")
    8328                      .dwattr $C$DW$1336, DW_AT_location[DW_OP_regx 0x24]
    8329              $C$DW$1337      .dwtag  DW_TAG_TI_assign_register, DW_AT_name("IER")
    8330                      .dwattr $C$DW$1337, DW_AT_location[DW_OP_regx 0x25]
    8331              $C$DW$1338      .dwtag  DW_TAG_TI_assign_register, DW_AT_name("V")
    8332                      .dwattr $C$DW$1338, DW_AT_location[DW_OP_regx 0x26]
    8333              $C$DW$1339      .dwtag  DW_TAG_TI_assign_register, DW_AT_name("PSEUDOH")
    8334                      .dwattr $C$DW$1339, DW_AT_location[DW_OP_regx 0x4c]
    8335              $C$DW$1340      .dwtag  DW_TAG_TI_assign_register, DW_AT_name("VOL")
    8336                      .dwattr $C$DW$1340, DW_AT_location[DW_OP_regx 0x4d]
    8337              $C$DW$1341      .dwtag  DW_TAG_TI_assign_register, DW_AT_name("AR0")
    8338                      .dwattr $C$DW$1341, DW_AT_location[DW_OP_reg4]
    8339              $C$DW$1342      .dwtag  DW_TAG_TI_assign_register, DW_AT_name("AR1")
    8340                      .dwattr $C$DW$1342, DW_AT_location[DW_OP_reg6]
    8341              $C$DW$1343      .dwtag  DW_TAG_TI_assign_register, DW_AT_name("AR2")
    8342                      .dwattr $C$DW$1343, DW_AT_location[DW_OP_reg8]
    8343              $C$DW$1344      .dwtag  DW_TAG_TI_assign_register, DW_AT_name("AR3")
    8344                      .dwattr $C$DW$1344, DW_AT_location[DW_OP_reg10]
    8345              $C$DW$1345      .dwtag  DW_TAG_TI_assign_register, DW_AT_name("AR4")
    8346                      .dwattr $C$DW$1345, DW_AT_location[DW_OP_reg12]
    8347              $C$DW$1346      .dwtag  DW_TAG_TI_assign_register, DW_AT_name("AR5")
TMS320C2000 Assembler PC v6.2.5 Tue Nov 21 22:57:45 2017

Tools Copyright (c) 1996-2014 Texas Instruments Incorporated
C:\Users\wmj\AppData\Local\Temp\1055210                              PAGE  156

    8348                      .dwattr $C$DW$1346, DW_AT_location[DW_OP_reg14]
    8349              $C$DW$1347      .dwtag  DW_TAG_TI_assign_register, DW_AT_name("AR6")
    8350                      .dwattr $C$DW$1347, DW_AT_location[DW_OP_reg16]
    8351              $C$DW$1348      .dwtag  DW_TAG_TI_assign_register, DW_AT_name("XAR6")
    8352                      .dwattr $C$DW$1348, DW_AT_location[DW_OP_reg17]
    8353              $C$DW$1349      .dwtag  DW_TAG_TI_assign_register, DW_AT_name("AR7")
    8354                      .dwattr $C$DW$1349, DW_AT_location[DW_OP_reg18]
    8355              $C$DW$1350      .dwtag  DW_TAG_TI_assign_register, DW_AT_name("XAR7")
    8356                      .dwattr $C$DW$1350, DW_AT_location[DW_OP_reg19]
    8357              $C$DW$1351      .dwtag  DW_TAG_TI_assign_register, DW_AT_name("XAR0")
    8358                      .dwattr $C$DW$1351, DW_AT_location[DW_OP_reg5]
    8359              $C$DW$1352      .dwtag  DW_TAG_TI_assign_register, DW_AT_name("XAR1")
    8360                      .dwattr $C$DW$1352, DW_AT_location[DW_OP_reg7]
    8361              $C$DW$1353      .dwtag  DW_TAG_TI_assign_register, DW_AT_name("XAR2")
    8362                      .dwattr $C$DW$1353, DW_AT_location[DW_OP_reg9]
    8363              $C$DW$1354      .dwtag  DW_TAG_TI_assign_register, DW_AT_name("XAR3")
    8364                      .dwattr $C$DW$1354, DW_AT_location[DW_OP_reg11]
    8365              $C$DW$1355      .dwtag  DW_TAG_TI_assign_register, DW_AT_name("XAR4")
    8366                      .dwattr $C$DW$1355, DW_AT_location[DW_OP_reg13]
    8367              $C$DW$1356      .dwtag  DW_TAG_TI_assign_register, DW_AT_name("XAR5")
    8368                      .dwattr $C$DW$1356, DW_AT_location[DW_OP_reg15]
    8369              $C$DW$1357      .dwtag  DW_TAG_TI_assign_register, DW_AT_name("CIE_RETA")
    8370                      .dwattr $C$DW$1357, DW_AT_location[DW_OP_regx 0x4e]
    8371                      .dwendtag $C$DW$CU
    8372              

No Assembly Errors, No Assembly Warnings
