TMS320C2000 Assembler PC v6.2.5 Tue Nov 21 22:57:45 2017

Tools Copyright (c) 1996-2014 Texas Instruments Incorporated
C:\Users\wmj\AppData\Local\Temp\1055210                              PAGE    1

       1              ;***************************************************************
       2              ;* TMS320C2000 C/C++ Codegen                         PC v6.2.5 *
       3              ;* Date/Time created: Tue Nov 21 22:57:45 2017                 *
       4              ;***************************************************************
       5                      .compiler_opts --float_support=softlib --hll_source=on --mem_model:code=flat --mem_model:data=large -
       6        0002  FP      .set    XAR2
       7              
       8              $C$DW$CU        .dwtag  DW_TAG_compile_unit
       9                      .dwattr $C$DW$CU, DW_AT_name("D:/BM1000_v1.1/sw/solutions/instaspin/src/proj_bm1000.c")
      10                      .dwattr $C$DW$CU, DW_AT_producer("TMS320C2000 C/C++ Codegen PC v6.2.5 Copyright (c) 1996-2014 Texas I
      11                      .dwattr $C$DW$CU, DW_AT_TI_version(0x01)
      12                      .dwattr $C$DW$CU, DW_AT_comp_dir("D:\BM1000_v1.1\sw\solutions\instaspin_foc\boards\hvkit_rev1p1\f28x\
      13              ;**************************************************************
      14              ;* CINIT RECORDS                                              *
      15              ;**************************************************************
      16 00000000               .sect   ".cinit"
      17                      .align  1
      18 00000000 FFFF          .field          -1,16
      19 00000001 0000-         .field          _gLEDcnt+0,32
         00000002 0000 
      20 00000003 0000          .bits   0,16                    ; _gLEDcnt @ 0
      21              
      22 00000004               .sect   ".cinit"
      23                      .align  1
      24 00000004 FFFF          .field          -1,16
      25 00000005 0001-         .field          _MeasCnt$1+0,32
         00000006 0000 
      26 00000007 0000          .bits   0,16                    ; _MeasCnt$1 @ 0
      27              
      28              
      29              $C$DW$1 .dwtag  DW_TAG_subprogram, DW_AT_name("MOTOR_getMaxCurrent")
      30                      .dwattr $C$DW$1, DW_AT_TI_symbol_name("_MOTOR_getMaxCurrent")
      31                      .dwattr $C$DW$1, DW_AT_declaration
      32                      .dwattr $C$DW$1, DW_AT_external
      33              $C$DW$2 .dwtag  DW_TAG_formal_parameter
      34                      .dwattr $C$DW$2, DW_AT_type(*$C$DW$T$81)
      35              $C$DW$3 .dwtag  DW_TAG_formal_parameter
      36                      .dwattr $C$DW$3, DW_AT_type(*$C$DW$T$241)
      37                      .dwendtag $C$DW$1
      38              
      39              
      40              $C$DW$4 .dwtag  DW_TAG_subprogram, DW_AT_name("HAL_enableTimer1Int")
      41                      .dwattr $C$DW$4, DW_AT_TI_symbol_name("_HAL_enableTimer1Int")
      42                      .dwattr $C$DW$4, DW_AT_declaration
      43                      .dwattr $C$DW$4, DW_AT_external
      44              $C$DW$5 .dwtag  DW_TAG_formal_parameter
      45                      .dwattr $C$DW$5, DW_AT_type(*$C$DW$T$83)
      46              $C$DW$6 .dwtag  DW_TAG_formal_parameter
      47                      .dwattr $C$DW$6, DW_AT_type(*$C$DW$T$293)
      48                      .dwendtag $C$DW$4
      49              
      50              
      51              $C$DW$7 .dwtag  DW_TAG_subprogram, DW_AT_name("MOTOR_CtrlVersion_Init")
      52                      .dwattr $C$DW$7, DW_AT_TI_symbol_name("_MOTOR_CtrlVersion_Init")
      53                      .dwattr $C$DW$7, DW_AT_declaration
TMS320C2000 Assembler PC v6.2.5 Tue Nov 21 22:57:45 2017

Tools Copyright (c) 1996-2014 Texas Instruments Incorporated
C:\Users\wmj\AppData\Local\Temp\1055210                              PAGE    2

      54                      .dwattr $C$DW$7, DW_AT_external
      55              $C$DW$8 .dwtag  DW_TAG_formal_parameter
      56                      .dwattr $C$DW$8, DW_AT_type(*$C$DW$T$81)
      57                      .dwendtag $C$DW$7
      58              
      59              
      60              $C$DW$9 .dwtag  DW_TAG_subprogram, DW_AT_name("HAL_enableSciaInt")
      61                      .dwattr $C$DW$9, DW_AT_TI_symbol_name("_HAL_enableSciaInt")
      62                      .dwattr $C$DW$9, DW_AT_declaration
      63                      .dwattr $C$DW$9, DW_AT_external
      64              $C$DW$10        .dwtag  DW_TAG_formal_parameter
      65                      .dwattr $C$DW$10, DW_AT_type(*$C$DW$T$83)
      66                      .dwendtag $C$DW$9
      67              
      68              
      69              $C$DW$11        .dwtag  DW_TAG_subprogram, DW_AT_name("FSM_getPortStatus")
      70                      .dwattr $C$DW$11, DW_AT_TI_symbol_name("_FSM_getPortStatus")
      71                      .dwattr $C$DW$11, DW_AT_declaration
      72                      .dwattr $C$DW$11, DW_AT_external
      73              $C$DW$12        .dwtag  DW_TAG_formal_parameter
      74                      .dwattr $C$DW$12, DW_AT_type(*$C$DW$T$164)
      75                      .dwendtag $C$DW$11
      76              
      77              
      78              $C$DW$13        .dwtag  DW_TAG_subprogram, DW_AT_name("FSM_ParamInit")
      79                      .dwattr $C$DW$13, DW_AT_TI_symbol_name("_FSM_ParamInit")
      80                      .dwattr $C$DW$13, DW_AT_declaration
      81                      .dwattr $C$DW$13, DW_AT_external
      82              $C$DW$14        .dwtag  DW_TAG_formal_parameter
      83                      .dwattr $C$DW$14, DW_AT_type(*$C$DW$T$164)
      84                      .dwendtag $C$DW$13
      85              
      86              
      87              $C$DW$15        .dwtag  DW_TAG_subprogram, DW_AT_name("HAL_setupFaults")
      88                      .dwattr $C$DW$15, DW_AT_TI_symbol_name("_HAL_setupFaults")
      89                      .dwattr $C$DW$15, DW_AT_declaration
      90                      .dwattr $C$DW$15, DW_AT_external
      91              $C$DW$16        .dwtag  DW_TAG_formal_parameter
      92                      .dwattr $C$DW$16, DW_AT_type(*$C$DW$T$83)
      93                      .dwendtag $C$DW$15
      94              
      95              
      96              $C$DW$17        .dwtag  DW_TAG_subprogram, DW_AT_name("HAL_enableGlobalInts")
      97                      .dwattr $C$DW$17, DW_AT_TI_symbol_name("_HAL_enableGlobalInts")
      98                      .dwattr $C$DW$17, DW_AT_declaration
      99                      .dwattr $C$DW$17, DW_AT_external
     100              $C$DW$18        .dwtag  DW_TAG_formal_parameter
     101                      .dwattr $C$DW$18, DW_AT_type(*$C$DW$T$83)
     102                      .dwendtag $C$DW$17
     103              
     104              
     105              $C$DW$19        .dwtag  DW_TAG_subprogram, DW_AT_name("HAL_enableAdcInts")
     106                      .dwattr $C$DW$19, DW_AT_TI_symbol_name("_HAL_enableAdcInts")
     107                      .dwattr $C$DW$19, DW_AT_declaration
     108                      .dwattr $C$DW$19, DW_AT_external
TMS320C2000 Assembler PC v6.2.5 Tue Nov 21 22:57:45 2017

Tools Copyright (c) 1996-2014 Texas Instruments Incorporated
C:\Users\wmj\AppData\Local\Temp\1055210                              PAGE    3

     109              $C$DW$20        .dwtag  DW_TAG_formal_parameter
     110                      .dwattr $C$DW$20, DW_AT_type(*$C$DW$T$83)
     111                      .dwendtag $C$DW$19
     112              
     113              
     114              $C$DW$21        .dwtag  DW_TAG_subprogram, DW_AT_name("HAL_enableDebugInt")
     115                      .dwattr $C$DW$21, DW_AT_TI_symbol_name("_HAL_enableDebugInt")
     116                      .dwattr $C$DW$21, DW_AT_declaration
     117                      .dwattr $C$DW$21, DW_AT_external
     118              $C$DW$22        .dwtag  DW_TAG_formal_parameter
     119                      .dwattr $C$DW$22, DW_AT_type(*$C$DW$T$83)
     120                      .dwendtag $C$DW$21
     121              
     122              
     123              $C$DW$23        .dwtag  DW_TAG_subprogram, DW_AT_name("HAL_setupAdcParams")
     124                      .dwattr $C$DW$23, DW_AT_TI_symbol_name("_HAL_setupAdcParams")
     125                      .dwattr $C$DW$23, DW_AT_declaration
     126                      .dwattr $C$DW$23, DW_AT_external
     127              $C$DW$24        .dwtag  DW_TAG_formal_parameter
     128                      .dwattr $C$DW$24, DW_AT_type(*$C$DW$T$83)
     129              $C$DW$25        .dwtag  DW_TAG_formal_parameter
     130                      .dwattr $C$DW$25, DW_AT_type(*$C$DW$T$292)
     131                      .dwendtag $C$DW$23
     132              
     133              
     134              $C$DW$26        .dwtag  DW_TAG_subprogram, DW_AT_name("HAL_setParams")
     135                      .dwattr $C$DW$26, DW_AT_TI_symbol_name("_HAL_setParams")
     136                      .dwattr $C$DW$26, DW_AT_declaration
     137                      .dwattr $C$DW$26, DW_AT_external
     138              $C$DW$27        .dwtag  DW_TAG_formal_parameter
     139                      .dwattr $C$DW$27, DW_AT_type(*$C$DW$T$83)
     140              $C$DW$28        .dwtag  DW_TAG_formal_parameter
     141                      .dwattr $C$DW$28, DW_AT_type(*$C$DW$T$292)
     142                      .dwendtag $C$DW$26
     143              
     144              
     145              $C$DW$29        .dwtag  DW_TAG_subprogram, DW_AT_name("PROCTRL_getDCbusVoltage")
     146                      .dwattr $C$DW$29, DW_AT_TI_symbol_name("_PROCTRL_getDCbusVoltage")
     147                      .dwattr $C$DW$29, DW_AT_declaration
     148                      .dwattr $C$DW$29, DW_AT_external
     149              $C$DW$30        .dwtag  DW_TAG_formal_parameter
     150                      .dwattr $C$DW$30, DW_AT_type(*$C$DW$T$284)
     151              $C$DW$31        .dwtag  DW_TAG_formal_parameter
     152                      .dwattr $C$DW$31, DW_AT_type(*$C$DW$T$271)
     153                      .dwendtag $C$DW$29
     154              
     155              
     156              $C$DW$32        .dwtag  DW_TAG_subprogram, DW_AT_name("PROCTRL_getChipTemperture")
     157                      .dwattr $C$DW$32, DW_AT_TI_symbol_name("_PROCTRL_getChipTemperture")
     158                      .dwattr $C$DW$32, DW_AT_declaration
     159                      .dwattr $C$DW$32, DW_AT_external
     160              $C$DW$33        .dwtag  DW_TAG_formal_parameter
     161                      .dwattr $C$DW$33, DW_AT_type(*$C$DW$T$284)
     162              $C$DW$34        .dwtag  DW_TAG_formal_parameter
     163                      .dwattr $C$DW$34, DW_AT_type(*$C$DW$T$271)
TMS320C2000 Assembler PC v6.2.5 Tue Nov 21 22:57:45 2017

Tools Copyright (c) 1996-2014 Texas Instruments Incorporated
C:\Users\wmj\AppData\Local\Temp\1055210                              PAGE    4

     164                      .dwendtag $C$DW$32
     165              
     166              
     167              $C$DW$35        .dwtag  DW_TAG_subprogram, DW_AT_name("PROCTRL_setDcBrakeCurrent")
     168                      .dwattr $C$DW$35, DW_AT_TI_symbol_name("_PROCTRL_setDcBrakeCurrent")
     169                      .dwattr $C$DW$35, DW_AT_declaration
     170                      .dwattr $C$DW$35, DW_AT_external
     171              $C$DW$36        .dwtag  DW_TAG_formal_parameter
     172                      .dwattr $C$DW$36, DW_AT_type(*$C$DW$T$284)
     173                      .dwendtag $C$DW$35
     174              
     175              
     176              $C$DW$37        .dwtag  DW_TAG_subprogram, DW_AT_name("PROCTRL_CheckMotorError")
     177                      .dwattr $C$DW$37, DW_AT_TI_symbol_name("_PROCTRL_CheckMotorError")
     178                      .dwattr $C$DW$37, DW_AT_declaration
     179                      .dwattr $C$DW$37, DW_AT_external
     180              $C$DW$38        .dwtag  DW_TAG_formal_parameter
     181                      .dwattr $C$DW$38, DW_AT_type(*$C$DW$T$284)
     182                      .dwendtag $C$DW$37
     183              
     184              
     185              $C$DW$39        .dwtag  DW_TAG_subprogram, DW_AT_name("PROCTRL_getScaleActors")
     186                      .dwattr $C$DW$39, DW_AT_TI_symbol_name("_PROCTRL_getScaleActors")
     187                      .dwattr $C$DW$39, DW_AT_declaration
     188                      .dwattr $C$DW$39, DW_AT_external
     189              $C$DW$40        .dwtag  DW_TAG_formal_parameter
     190                      .dwattr $C$DW$40, DW_AT_type(*$C$DW$T$284)
     191              $C$DW$41        .dwtag  DW_TAG_formal_parameter
     192                      .dwattr $C$DW$41, DW_AT_type(*$C$DW$T$241)
     193                      .dwendtag $C$DW$39
     194              
     195              
     196              $C$DW$42        .dwtag  DW_TAG_subprogram, DW_AT_name("PROCTRL_getSensorData")
     197                      .dwattr $C$DW$42, DW_AT_TI_symbol_name("_PROCTRL_getSensorData")
     198                      .dwattr $C$DW$42, DW_AT_declaration
     199                      .dwattr $C$DW$42, DW_AT_external
     200              $C$DW$43        .dwtag  DW_TAG_formal_parameter
     201                      .dwattr $C$DW$43, DW_AT_type(*$C$DW$T$284)
     202              $C$DW$44        .dwtag  DW_TAG_formal_parameter
     203                      .dwattr $C$DW$44, DW_AT_type(*$C$DW$T$270)
     204                      .dwendtag $C$DW$42
     205              
     206              
     207              $C$DW$45        .dwtag  DW_TAG_subprogram, DW_AT_name("PROCTRL_MainLoop")
     208                      .dwattr $C$DW$45, DW_AT_TI_symbol_name("_PROCTRL_MainLoop")
     209                      .dwattr $C$DW$45, DW_AT_declaration
     210                      .dwattr $C$DW$45, DW_AT_external
     211              $C$DW$46        .dwtag  DW_TAG_formal_parameter
     212                      .dwattr $C$DW$46, DW_AT_type(*$C$DW$T$284)
     213              $C$DW$47        .dwtag  DW_TAG_formal_parameter
     214                      .dwattr $C$DW$47, DW_AT_type(*$C$DW$T$241)
     215                      .dwendtag $C$DW$45
     216              
     217              
     218              $C$DW$48        .dwtag  DW_TAG_subprogram, DW_AT_name("MB_RTUReceiveFSM")
TMS320C2000 Assembler PC v6.2.5 Tue Nov 21 22:57:45 2017

Tools Copyright (c) 1996-2014 Texas Instruments Incorporated
C:\Users\wmj\AppData\Local\Temp\1055210                              PAGE    5

     219                      .dwattr $C$DW$48, DW_AT_TI_symbol_name("_MB_RTUReceiveFSM")
     220                      .dwattr $C$DW$48, DW_AT_declaration
     221                      .dwattr $C$DW$48, DW_AT_external
     222              $C$DW$49        .dwtag  DW_TAG_formal_parameter
     223                      .dwattr $C$DW$49, DW_AT_type(*$C$DW$T$219)
     224                      .dwendtag $C$DW$48
     225              
     226              
     227              $C$DW$50        .dwtag  DW_TAG_subprogram, DW_AT_name("PROCTRL_setHalHandle")
     228                      .dwattr $C$DW$50, DW_AT_TI_symbol_name("_PROCTRL_setHalHandle")
     229                      .dwattr $C$DW$50, DW_AT_declaration
     230                      .dwattr $C$DW$50, DW_AT_external
     231              $C$DW$51        .dwtag  DW_TAG_formal_parameter
     232                      .dwattr $C$DW$51, DW_AT_type(*$C$DW$T$284)
     233              $C$DW$52        .dwtag  DW_TAG_formal_parameter
     234                      .dwattr $C$DW$52, DW_AT_type(*$C$DW$T$83)
     235                      .dwendtag $C$DW$50
     236              
     237              
     238              $C$DW$53        .dwtag  DW_TAG_subprogram, DW_AT_name("MB_RTUTransmitFSM")
     239                      .dwattr $C$DW$53, DW_AT_TI_symbol_name("_MB_RTUTransmitFSM")
     240                      .dwattr $C$DW$53, DW_AT_declaration
     241                      .dwattr $C$DW$53, DW_AT_external
     242              $C$DW$54        .dwtag  DW_TAG_formal_parameter
     243                      .dwattr $C$DW$54, DW_AT_type(*$C$DW$T$219)
     244                      .dwendtag $C$DW$53
     245              
     246              
     247              $C$DW$55        .dwtag  DW_TAG_subprogram, DW_AT_name("MB_RTUTimerFSM")
     248                      .dwattr $C$DW$55, DW_AT_TI_symbol_name("_MB_RTUTimerFSM")
     249                      .dwattr $C$DW$55, DW_AT_declaration
     250                      .dwattr $C$DW$55, DW_AT_external
     251              $C$DW$56        .dwtag  DW_TAG_formal_parameter
     252                      .dwattr $C$DW$56, DW_AT_type(*$C$DW$T$219)
     253                      .dwendtag $C$DW$55
     254              
     255              
     256              $C$DW$57        .dwtag  DW_TAG_subprogram, DW_AT_name("PROCTRL_setupMotors")
     257                      .dwattr $C$DW$57, DW_AT_TI_symbol_name("_PROCTRL_setupMotors")
     258                      .dwattr $C$DW$57, DW_AT_declaration
     259                      .dwattr $C$DW$57, DW_AT_external
     260              $C$DW$58        .dwtag  DW_TAG_formal_parameter
     261                      .dwattr $C$DW$58, DW_AT_type(*$C$DW$T$284)
     262                      .dwendtag $C$DW$57
     263              
     264              
     265              $C$DW$59        .dwtag  DW_TAG_subprogram, DW_AT_name("PROCTRL_setupFSM")
     266                      .dwattr $C$DW$59, DW_AT_TI_symbol_name("_PROCTRL_setupFSM")
     267                      .dwattr $C$DW$59, DW_AT_declaration
     268                      .dwattr $C$DW$59, DW_AT_external
     269              $C$DW$60        .dwtag  DW_TAG_formal_parameter
     270                      .dwattr $C$DW$60, DW_AT_type(*$C$DW$T$284)
     271                      .dwendtag $C$DW$59
     272              
     273              
TMS320C2000 Assembler PC v6.2.5 Tue Nov 21 22:57:45 2017

Tools Copyright (c) 1996-2014 Texas Instruments Incorporated
C:\Users\wmj\AppData\Local\Temp\1055210                              PAGE    6

     274              $C$DW$61        .dwtag  DW_TAG_subprogram, DW_AT_name("PROCTRL_setupModbus")
     275                      .dwattr $C$DW$61, DW_AT_TI_symbol_name("_PROCTRL_setupModbus")
     276                      .dwattr $C$DW$61, DW_AT_declaration
     277                      .dwattr $C$DW$61, DW_AT_external
     278              $C$DW$62        .dwtag  DW_TAG_formal_parameter
     279                      .dwattr $C$DW$62, DW_AT_type(*$C$DW$T$284)
     280                      .dwendtag $C$DW$61
     281              
     282              
     283              $C$DW$63        .dwtag  DW_TAG_subprogram, DW_AT_name("PROCTRL_setUserParams")
     284                      .dwattr $C$DW$63, DW_AT_TI_symbol_name("_PROCTRL_setUserParams")
     285                      .dwattr $C$DW$63, DW_AT_declaration
     286                      .dwattr $C$DW$63, DW_AT_external
     287              $C$DW$64        .dwtag  DW_TAG_formal_parameter
     288                      .dwattr $C$DW$64, DW_AT_type(*$C$DW$T$284)
     289              $C$DW$65        .dwtag  DW_TAG_formal_parameter
     290                      .dwattr $C$DW$65, DW_AT_type(*$C$DW$T$213)
     291                      .dwendtag $C$DW$63
     292              
     293              
     294              $C$DW$66        .dwtag  DW_TAG_subprogram, DW_AT_name("PROCTRL_setupFlyingStart")
     295                      .dwattr $C$DW$66, DW_AT_TI_symbol_name("_PROCTRL_setupFlyingStart")
     296                      .dwattr $C$DW$66, DW_AT_declaration
     297                      .dwattr $C$DW$66, DW_AT_external
     298              $C$DW$67        .dwtag  DW_TAG_formal_parameter
     299                      .dwattr $C$DW$67, DW_AT_type(*$C$DW$T$284)
     300                      .dwendtag $C$DW$66
     301              
     302              
     303              $C$DW$68        .dwtag  DW_TAG_subprogram, DW_AT_name("USER_setSysParams")
     304                      .dwattr $C$DW$68, DW_AT_TI_symbol_name("_USER_setSysParams")
     305                      .dwattr $C$DW$68, DW_AT_declaration
     306                      .dwattr $C$DW$68, DW_AT_external
     307              $C$DW$69        .dwtag  DW_TAG_formal_parameter
     308                      .dwattr $C$DW$69, DW_AT_type(*$C$DW$T$241)
     309                      .dwendtag $C$DW$68
     310              
     311              
     312              $C$DW$70        .dwtag  DW_TAG_subprogram, DW_AT_name("USER_setParams")
     313                      .dwattr $C$DW$70, DW_AT_TI_symbol_name("_USER_setParams")
     314                      .dwattr $C$DW$70, DW_AT_declaration
     315                      .dwattr $C$DW$70, DW_AT_external
     316              $C$DW$71        .dwtag  DW_TAG_formal_parameter
     317                      .dwattr $C$DW$71, DW_AT_type(*$C$DW$T$241)
     318                      .dwendtag $C$DW$70
     319              
     320              
     321              $C$DW$72        .dwtag  DW_TAG_subprogram, DW_AT_name("usDelay")
     322                      .dwattr $C$DW$72, DW_AT_TI_symbol_name("_usDelay")
     323                      .dwattr $C$DW$72, DW_AT_declaration
     324                      .dwattr $C$DW$72, DW_AT_external
     325              $C$DW$73        .dwtag  DW_TAG_formal_parameter
     326                      .dwattr $C$DW$73, DW_AT_type(*$C$DW$T$67)
     327                      .dwendtag $C$DW$72
     328              
TMS320C2000 Assembler PC v6.2.5 Tue Nov 21 22:57:45 2017

Tools Copyright (c) 1996-2014 Texas Instruments Incorporated
C:\Users\wmj\AppData\Local\Temp\1055210                              PAGE    7

     329              
     330              $C$DW$74        .dwtag  DW_TAG_subprogram, DW_AT_name("SCI_clearRxFifoInt")
     331                      .dwattr $C$DW$74, DW_AT_TI_symbol_name("_SCI_clearRxFifoInt")
     332                      .dwattr $C$DW$74, DW_AT_declaration
     333                      .dwattr $C$DW$74, DW_AT_external
     334              $C$DW$75        .dwtag  DW_TAG_formal_parameter
     335                      .dwattr $C$DW$75, DW_AT_type(*$C$DW$T$152)
     336                      .dwendtag $C$DW$74
     337              
     338              
     339              $C$DW$76        .dwtag  DW_TAG_subprogram, DW_AT_name("SCI_clearTxFifoInt")
     340                      .dwattr $C$DW$76, DW_AT_TI_symbol_name("_SCI_clearTxFifoInt")
     341                      .dwattr $C$DW$76, DW_AT_declaration
     342                      .dwattr $C$DW$76, DW_AT_external
     343              $C$DW$77        .dwtag  DW_TAG_formal_parameter
     344                      .dwattr $C$DW$77, DW_AT_type(*$C$DW$T$152)
     345                      .dwendtag $C$DW$76
     346              
     347              
     348              $C$DW$78        .dwtag  DW_TAG_subprogram, DW_AT_name("SCI_clearRxFifoOvf")
     349                      .dwattr $C$DW$78, DW_AT_TI_symbol_name("_SCI_clearRxFifoOvf")
     350                      .dwattr $C$DW$78, DW_AT_declaration
     351                      .dwattr $C$DW$78, DW_AT_external
     352              $C$DW$79        .dwtag  DW_TAG_formal_parameter
     353                      .dwattr $C$DW$79, DW_AT_type(*$C$DW$T$152)
     354                      .dwendtag $C$DW$78
     355              
     356              
     357              $C$DW$80        .dwtag  DW_TAG_subprogram, DW_AT_name("USER_checkForErrors")
     358                      .dwattr $C$DW$80, DW_AT_TI_symbol_name("_USER_checkForErrors")
     359                      .dwattr $C$DW$80, DW_AT_declaration
     360                      .dwattr $C$DW$80, DW_AT_external
     361              $C$DW$81        .dwtag  DW_TAG_formal_parameter
     362                      .dwattr $C$DW$81, DW_AT_type(*$C$DW$T$241)
     363                      .dwendtag $C$DW$80
     364              
     365              
     366              $C$DW$82        .dwtag  DW_TAG_subprogram, DW_AT_name("USER_checkDefErrors")
     367                      .dwattr $C$DW$82, DW_AT_TI_symbol_name("_USER_checkDefErrors")
     368                      .dwattr $C$DW$82, DW_AT_declaration
     369                      .dwattr $C$DW$82, DW_AT_external
     370              $C$DW$83        .dwtag  DW_TAG_formal_parameter
     371                      .dwattr $C$DW$83, DW_AT_type(*$C$DW$T$241)
     372                      .dwendtag $C$DW$82
     373              
     374              
     375              $C$DW$84        .dwtag  DW_TAG_subprogram, DW_AT_name("USER_setMotorIDs")
     376                      .dwattr $C$DW$84, DW_AT_TI_symbol_name("_USER_setMotorIDs")
     377                      .dwattr $C$DW$84, DW_AT_declaration
     378                      .dwattr $C$DW$84, DW_AT_external
     379              $C$DW$85        .dwtag  DW_TAG_formal_parameter
     380                      .dwattr $C$DW$85, DW_AT_type(*$C$DW$T$241)
     381              $C$DW$86        .dwtag  DW_TAG_formal_parameter
     382                      .dwattr $C$DW$86, DW_AT_type(*$C$DW$T$260)
     383                      .dwendtag $C$DW$84
TMS320C2000 Assembler PC v6.2.5 Tue Nov 21 22:57:45 2017

Tools Copyright (c) 1996-2014 Texas Instruments Incorporated
C:\Users\wmj\AppData\Local\Temp\1055210                              PAGE    8

     384              
     385              
     386              $C$DW$87        .dwtag  DW_TAG_subprogram, DW_AT_name("USER_setMotorParams")
     387                      .dwattr $C$DW$87, DW_AT_TI_symbol_name("_USER_setMotorParams")
     388                      .dwattr $C$DW$87, DW_AT_declaration
     389                      .dwattr $C$DW$87, DW_AT_external
     390              $C$DW$88        .dwtag  DW_TAG_formal_parameter
     391                      .dwattr $C$DW$88, DW_AT_type(*$C$DW$T$241)
     392                      .dwendtag $C$DW$87
     393              
     394              
     395              $C$DW$89        .dwtag  DW_TAG_subprogram, DW_AT_name("USER_setBoardParams")
     396                      .dwattr $C$DW$89, DW_AT_TI_symbol_name("_USER_setBoardParams")
     397                      .dwattr $C$DW$89, DW_AT_declaration
     398                      .dwattr $C$DW$89, DW_AT_external
     399              $C$DW$90        .dwtag  DW_TAG_formal_parameter
     400                      .dwattr $C$DW$90, DW_AT_type(*$C$DW$T$241)
     401                      .dwendtag $C$DW$89
     402              
     403              
     404              $C$DW$91        .dwtag  DW_TAG_subprogram, DW_AT_name("EST_setFlag_enableRsRecalc")
     405                      .dwattr $C$DW$91, DW_AT_TI_symbol_name("_EST_setFlag_enableRsRecalc")
     406                      .dwattr $C$DW$91, DW_AT_declaration
     407                      .dwattr $C$DW$91, DW_AT_external
     408              $C$DW$92        .dwtag  DW_TAG_formal_parameter
     409                      .dwattr $C$DW$92, DW_AT_type(*$C$DW$T$49)
     410              $C$DW$93        .dwtag  DW_TAG_formal_parameter
     411                      .dwattr $C$DW$93, DW_AT_type(*$C$DW$T$298)
     412                      .dwendtag $C$DW$91
     413              
     414              
     415              $C$DW$94        .dwtag  DW_TAG_subprogram, DW_AT_name("memCopy")
     416                      .dwattr $C$DW$94, DW_AT_TI_symbol_name("_memCopy")
     417                      .dwattr $C$DW$94, DW_AT_declaration
     418                      .dwattr $C$DW$94, DW_AT_external
     419              $C$DW$95        .dwtag  DW_TAG_formal_parameter
     420                      .dwattr $C$DW$95, DW_AT_type(*$C$DW$T$295)
     421              $C$DW$96        .dwtag  DW_TAG_formal_parameter
     422                      .dwattr $C$DW$96, DW_AT_type(*$C$DW$T$295)
     423              $C$DW$97        .dwtag  DW_TAG_formal_parameter
     424                      .dwattr $C$DW$97, DW_AT_type(*$C$DW$T$295)
     425                      .dwendtag $C$DW$94
     426              
     427              
     428              $C$DW$98        .dwtag  DW_TAG_subprogram, DW_AT_name("TIMER_clearFlag")
     429                      .dwattr $C$DW$98, DW_AT_TI_symbol_name("_TIMER_clearFlag")
     430                      .dwattr $C$DW$98, DW_AT_declaration
     431                      .dwattr $C$DW$98, DW_AT_external
     432              $C$DW$99        .dwtag  DW_TAG_formal_parameter
     433                      .dwattr $C$DW$99, DW_AT_type(*$C$DW$T$145)
     434                      .dwendtag $C$DW$98
     435              
     436              
     437              $C$DW$100       .dwtag  DW_TAG_subprogram, DW_AT_name("USER_setWaitTimeParams")
     438                      .dwattr $C$DW$100, DW_AT_TI_symbol_name("_USER_setWaitTimeParams")
TMS320C2000 Assembler PC v6.2.5 Tue Nov 21 22:57:45 2017

Tools Copyright (c) 1996-2014 Texas Instruments Incorporated
C:\Users\wmj\AppData\Local\Temp\1055210                              PAGE    9

     439                      .dwattr $C$DW$100, DW_AT_declaration
     440                      .dwattr $C$DW$100, DW_AT_external
     441              $C$DW$101       .dwtag  DW_TAG_formal_parameter
     442                      .dwattr $C$DW$101, DW_AT_type(*$C$DW$T$241)
     443                      .dwendtag $C$DW$100
     444              
     445              
     446              $C$DW$102       .dwtag  DW_TAG_subprogram, DW_AT_name("GPIO_setLow")
     447                      .dwattr $C$DW$102, DW_AT_TI_symbol_name("_GPIO_setLow")
     448                      .dwattr $C$DW$102, DW_AT_declaration
     449                      .dwattr $C$DW$102, DW_AT_external
     450              $C$DW$103       .dwtag  DW_TAG_formal_parameter
     451                      .dwattr $C$DW$103, DW_AT_type(*$C$DW$T$127)
     452              $C$DW$104       .dwtag  DW_TAG_formal_parameter
     453                      .dwattr $C$DW$104, DW_AT_type(*$C$DW$T$253)
     454                      .dwendtag $C$DW$102
     455              
     456              
     457              $C$DW$105       .dwtag  DW_TAG_subprogram, DW_AT_name("GPIO_setHigh")
     458                      .dwattr $C$DW$105, DW_AT_TI_symbol_name("_GPIO_setHigh")
     459                      .dwattr $C$DW$105, DW_AT_declaration
     460                      .dwattr $C$DW$105, DW_AT_external
     461              $C$DW$106       .dwtag  DW_TAG_formal_parameter
     462                      .dwattr $C$DW$106, DW_AT_type(*$C$DW$T$127)
     463              $C$DW$107       .dwtag  DW_TAG_formal_parameter
     464                      .dwattr $C$DW$107, DW_AT_type(*$C$DW$T$253)
     465                      .dwendtag $C$DW$105
     466              
     467              
     468              $C$DW$108       .dwtag  DW_TAG_subprogram, DW_AT_name("CTRL_setParams")
     469                      .dwattr $C$DW$108, DW_AT_TI_symbol_name("_CTRL_setParams")
     470                      .dwattr $C$DW$108, DW_AT_declaration
     471                      .dwattr $C$DW$108, DW_AT_external
     472              $C$DW$109       .dwtag  DW_TAG_formal_parameter
     473                      .dwattr $C$DW$109, DW_AT_type(*$C$DW$T$211)
     474              $C$DW$110       .dwtag  DW_TAG_formal_parameter
     475                      .dwattr $C$DW$110, DW_AT_type(*$C$DW$T$241)
     476                      .dwendtag $C$DW$108
     477              
     478              
     479              $C$DW$111       .dwtag  DW_TAG_subprogram, DW_AT_name("PROCTRL_setCtrlHandle")
     480                      .dwattr $C$DW$111, DW_AT_TI_symbol_name("_PROCTRL_setCtrlHandle")
     481                      .dwattr $C$DW$111, DW_AT_declaration
     482                      .dwattr $C$DW$111, DW_AT_external
     483              $C$DW$112       .dwtag  DW_TAG_formal_parameter
     484                      .dwattr $C$DW$112, DW_AT_type(*$C$DW$T$284)
     485              $C$DW$113       .dwtag  DW_TAG_formal_parameter
     486                      .dwattr $C$DW$113, DW_AT_type(*$C$DW$T$211)
     487                      .dwendtag $C$DW$111
     488              
     489              
     490              $C$DW$114       .dwtag  DW_TAG_subprogram, DW_AT_name("CTRL_setup")
     491                      .dwattr $C$DW$114, DW_AT_TI_symbol_name("_CTRL_setup")
     492                      .dwattr $C$DW$114, DW_AT_declaration
     493                      .dwattr $C$DW$114, DW_AT_external
TMS320C2000 Assembler PC v6.2.5 Tue Nov 21 22:57:45 2017

Tools Copyright (c) 1996-2014 Texas Instruments Incorporated
C:\Users\wmj\AppData\Local\Temp\1055210                              PAGE   10

     494              $C$DW$115       .dwtag  DW_TAG_formal_parameter
     495                      .dwattr $C$DW$115, DW_AT_type(*$C$DW$T$211)
     496                      .dwendtag $C$DW$114
     497              
     498              
     499              $C$DW$116       .dwtag  DW_TAG_subprogram, DW_AT_name("CTRL_getVersion")
     500                      .dwattr $C$DW$116, DW_AT_TI_symbol_name("_CTRL_getVersion")
     501                      .dwattr $C$DW$116, DW_AT_declaration
     502                      .dwattr $C$DW$116, DW_AT_external
     503              $C$DW$117       .dwtag  DW_TAG_formal_parameter
     504                      .dwattr $C$DW$117, DW_AT_type(*$C$DW$T$211)
     505              $C$DW$118       .dwtag  DW_TAG_formal_parameter
     506                      .dwattr $C$DW$118, DW_AT_type(*$C$DW$T$266)
     507                      .dwendtag $C$DW$116
     508              
     509              
     510              $C$DW$119       .dwtag  DW_TAG_subprogram, DW_AT_name("CTRL_run")
     511                      .dwattr $C$DW$119, DW_AT_TI_symbol_name("_CTRL_run")
     512                      .dwattr $C$DW$119, DW_AT_declaration
     513                      .dwattr $C$DW$119, DW_AT_external
     514              $C$DW$120       .dwtag  DW_TAG_formal_parameter
     515                      .dwattr $C$DW$120, DW_AT_type(*$C$DW$T$211)
     516              $C$DW$121       .dwtag  DW_TAG_formal_parameter
     517                      .dwattr $C$DW$121, DW_AT_type(*$C$DW$T$83)
     518              $C$DW$122       .dwtag  DW_TAG_formal_parameter
     519                      .dwattr $C$DW$122, DW_AT_type(*$C$DW$T$270)
     520              $C$DW$123       .dwtag  DW_TAG_formal_parameter
     521                      .dwattr $C$DW$123, DW_AT_type(*$C$DW$T$278)
     522                      .dwendtag $C$DW$119
     523              
     524              
     525              $C$DW$124       .dwtag  DW_TAG_subprogram, DW_AT_name("GPIO_read")
     526                      .dwattr $C$DW$124, DW_AT_TI_symbol_name("_GPIO_read")
     527                      .dwattr $C$DW$124, DW_AT_type(*$C$DW$T$33)
     528                      .dwattr $C$DW$124, DW_AT_declaration
     529                      .dwattr $C$DW$124, DW_AT_external
     530              $C$DW$125       .dwtag  DW_TAG_formal_parameter
     531                      .dwattr $C$DW$125, DW_AT_type(*$C$DW$T$127)
     532              $C$DW$126       .dwtag  DW_TAG_formal_parameter
     533                      .dwattr $C$DW$126, DW_AT_type(*$C$DW$T$253)
     534                      .dwendtag $C$DW$124
     535              
     536              
     537              $C$DW$127       .dwtag  DW_TAG_subprogram, DW_AT_name("USER_getErrorCode")
     538                      .dwattr $C$DW$127, DW_AT_TI_symbol_name("_USER_getErrorCode")
     539                      .dwattr $C$DW$127, DW_AT_type(*$C$DW$T$185)
     540                      .dwattr $C$DW$127, DW_AT_declaration
     541                      .dwattr $C$DW$127, DW_AT_external
     542              $C$DW$128       .dwtag  DW_TAG_formal_parameter
     543                      .dwattr $C$DW$128, DW_AT_type(*$C$DW$T$241)
     544                      .dwendtag $C$DW$127
     545              
     546                      .global _gLEDcnt
     547 00000000       _gLEDcnt:       .usect  ".ebss",1,1,0
     548              $C$DW$129       .dwtag  DW_TAG_variable, DW_AT_name("gLEDcnt")
TMS320C2000 Assembler PC v6.2.5 Tue Nov 21 22:57:45 2017

Tools Copyright (c) 1996-2014 Texas Instruments Incorporated
C:\Users\wmj\AppData\Local\Temp\1055210                              PAGE   11

     549                      .dwattr $C$DW$129, DW_AT_TI_symbol_name("_gLEDcnt")
     550                      .dwattr $C$DW$129, DW_AT_location[DW_OP_addr _gLEDcnt]
     551                      .dwattr $C$DW$129, DW_AT_type(*$C$DW$T$22)
     552                      .dwattr $C$DW$129, DW_AT_external
     553 00000001       _MeasCnt$1:     .usect  ".ebss",1,1,0
     554              
     555              $C$DW$130       .dwtag  DW_TAG_subprogram, DW_AT_name("MB_Poll")
     556                      .dwattr $C$DW$130, DW_AT_TI_symbol_name("_MB_Poll")
     557                      .dwattr $C$DW$130, DW_AT_type(*$C$DW$T$172)
     558                      .dwattr $C$DW$130, DW_AT_declaration
     559                      .dwattr $C$DW$130, DW_AT_external
     560              $C$DW$131       .dwtag  DW_TAG_formal_parameter
     561                      .dwattr $C$DW$131, DW_AT_type(*$C$DW$T$219)
     562                      .dwendtag $C$DW$130
     563              
     564              
     565              $C$DW$132       .dwtag  DW_TAG_subprogram, DW_AT_name("__IQmpy")
     566                      .dwattr $C$DW$132, DW_AT_TI_symbol_name("___IQmpy")
     567                      .dwattr $C$DW$132, DW_AT_type(*$C$DW$T$12)
     568                      .dwattr $C$DW$132, DW_AT_declaration
     569                      .dwattr $C$DW$132, DW_AT_external
     570              $C$DW$133       .dwtag  DW_TAG_formal_parameter
     571                      .dwattr $C$DW$133, DW_AT_type(*$C$DW$T$12)
     572              $C$DW$134       .dwtag  DW_TAG_formal_parameter
     573                      .dwattr $C$DW$134, DW_AT_type(*$C$DW$T$12)
     574              $C$DW$135       .dwtag  DW_TAG_formal_parameter
     575                      .dwattr $C$DW$135, DW_AT_type(*$C$DW$T$10)
     576                      .dwendtag $C$DW$132
     577              
     578                      .global _halHandle
     579 00000002       _halHandle:     .usect  ".ebss",2,1,1
     580              $C$DW$136       .dwtag  DW_TAG_variable, DW_AT_name("halHandle")
     581                      .dwattr $C$DW$136, DW_AT_TI_symbol_name("_halHandle")
     582                      .dwattr $C$DW$136, DW_AT_location[DW_OP_addr _halHandle]
     583                      .dwattr $C$DW$136, DW_AT_type(*$C$DW$T$83)
     584                      .dwattr $C$DW$136, DW_AT_external
     585                      .global _ctrlHandle
     586 00000004       _ctrlHandle:    .usect  ".ebss",2,1,1
     587              $C$DW$137       .dwtag  DW_TAG_variable, DW_AT_name("ctrlHandle")
     588                      .dwattr $C$DW$137, DW_AT_TI_symbol_name("_ctrlHandle")
     589                      .dwattr $C$DW$137, DW_AT_location[DW_OP_addr _ctrlHandle]
     590                      .dwattr $C$DW$137, DW_AT_type(*$C$DW$T$211)
     591                      .dwattr $C$DW$137, DW_AT_external
     592              
     593              $C$DW$138       .dwtag  DW_TAG_subprogram, DW_AT_name("labs")
     594                      .dwattr $C$DW$138, DW_AT_TI_symbol_name("_labs")
     595                      .dwattr $C$DW$138, DW_AT_type(*$C$DW$T$12)
     596                      .dwattr $C$DW$138, DW_AT_declaration
     597                      .dwattr $C$DW$138, DW_AT_external
     598              $C$DW$139       .dwtag  DW_TAG_formal_parameter
     599                      .dwattr $C$DW$139, DW_AT_type(*$C$DW$T$12)
     600                      .dwendtag $C$DW$138
     601              
     602              $C$DW$140       .dwtag  DW_TAG_variable, DW_AT_name("RamfuncsRunStart")
     603                      .dwattr $C$DW$140, DW_AT_TI_symbol_name("_RamfuncsRunStart")
TMS320C2000 Assembler PC v6.2.5 Tue Nov 21 22:57:45 2017

Tools Copyright (c) 1996-2014 Texas Instruments Incorporated
C:\Users\wmj\AppData\Local\Temp\1055210                              PAGE   12

     604                      .dwattr $C$DW$140, DW_AT_type(*$C$DW$T$295)
     605                      .dwattr $C$DW$140, DW_AT_declaration
     606                      .dwattr $C$DW$140, DW_AT_external
     607              $C$DW$141       .dwtag  DW_TAG_variable, DW_AT_name("RamfuncsLoadEnd")
     608                      .dwattr $C$DW$141, DW_AT_TI_symbol_name("_RamfuncsLoadEnd")
     609                      .dwattr $C$DW$141, DW_AT_type(*$C$DW$T$295)
     610                      .dwattr $C$DW$141, DW_AT_declaration
     611                      .dwattr $C$DW$141, DW_AT_external
     612                      .global _proctrlHandle
     613 00000006       _proctrlHandle: .usect  ".ebss",2,1,1
     614              $C$DW$142       .dwtag  DW_TAG_variable, DW_AT_name("proctrlHandle")
     615                      .dwattr $C$DW$142, DW_AT_TI_symbol_name("_proctrlHandle")
     616                      .dwattr $C$DW$142, DW_AT_location[DW_OP_addr _proctrlHandle]
     617                      .dwattr $C$DW$142, DW_AT_type(*$C$DW$T$284)
     618                      .dwattr $C$DW$142, DW_AT_external
     619              
     620              $C$DW$143       .dwtag  DW_TAG_subprogram, DW_AT_name("PROCTRL_init")
     621                      .dwattr $C$DW$143, DW_AT_TI_symbol_name("_PROCTRL_init")
     622                      .dwattr $C$DW$143, DW_AT_type(*$C$DW$T$284)
     623                      .dwattr $C$DW$143, DW_AT_declaration
     624                      .dwattr $C$DW$143, DW_AT_external
     625              $C$DW$144       .dwtag  DW_TAG_formal_parameter
     626                      .dwattr $C$DW$144, DW_AT_type(*$C$DW$T$3)
     627              $C$DW$145       .dwtag  DW_TAG_formal_parameter
     628                      .dwattr $C$DW$145, DW_AT_type(*$C$DW$T$262)
     629                      .dwendtag $C$DW$143
     630              
     631              
     632              $C$DW$146       .dwtag  DW_TAG_subprogram, DW_AT_name("CTRL_initCtrl")
     633                      .dwattr $C$DW$146, DW_AT_TI_symbol_name("_CTRL_initCtrl")
     634                      .dwattr $C$DW$146, DW_AT_type(*$C$DW$T$211)
     635                      .dwattr $C$DW$146, DW_AT_declaration
     636                      .dwattr $C$DW$146, DW_AT_external
     637              $C$DW$147       .dwtag  DW_TAG_formal_parameter
     638                      .dwattr $C$DW$147, DW_AT_type(*$C$DW$T$260)
     639              $C$DW$148       .dwtag  DW_TAG_formal_parameter
     640                      .dwattr $C$DW$148, DW_AT_type(*$C$DW$T$3)
     641              $C$DW$149       .dwtag  DW_TAG_formal_parameter
     642                      .dwattr $C$DW$149, DW_AT_type(*$C$DW$T$262)
     643                      .dwendtag $C$DW$146
     644              
     645              
     646              $C$DW$150       .dwtag  DW_TAG_subprogram, DW_AT_name("__IQsat")
     647                      .dwattr $C$DW$150, DW_AT_TI_symbol_name("___IQsat")
     648                      .dwattr $C$DW$150, DW_AT_type(*$C$DW$T$12)
     649                      .dwattr $C$DW$150, DW_AT_declaration
     650                      .dwattr $C$DW$150, DW_AT_external
     651              $C$DW$151       .dwtag  DW_TAG_formal_parameter
     652                      .dwattr $C$DW$151, DW_AT_type(*$C$DW$T$12)
     653              $C$DW$152       .dwtag  DW_TAG_formal_parameter
     654                      .dwattr $C$DW$152, DW_AT_type(*$C$DW$T$12)
     655              $C$DW$153       .dwtag  DW_TAG_formal_parameter
     656                      .dwattr $C$DW$153, DW_AT_type(*$C$DW$T$12)
     657                      .dwendtag $C$DW$150
     658              
TMS320C2000 Assembler PC v6.2.5 Tue Nov 21 22:57:45 2017

Tools Copyright (c) 1996-2014 Texas Instruments Incorporated
C:\Users\wmj\AppData\Local\Temp\1055210                              PAGE   13

     659              $C$DW$154       .dwtag  DW_TAG_variable, DW_AT_name("RamfuncsLoadStart")
     660                      .dwattr $C$DW$154, DW_AT_TI_symbol_name("_RamfuncsLoadStart")
     661                      .dwattr $C$DW$154, DW_AT_type(*$C$DW$T$295)
     662                      .dwattr $C$DW$154, DW_AT_declaration
     663                      .dwattr $C$DW$154, DW_AT_external
     664              
     665              $C$DW$155       .dwtag  DW_TAG_subprogram, DW_AT_name("HAL_init")
     666                      .dwattr $C$DW$155, DW_AT_TI_symbol_name("_HAL_init")
     667                      .dwattr $C$DW$155, DW_AT_type(*$C$DW$T$83)
     668                      .dwattr $C$DW$155, DW_AT_declaration
     669                      .dwattr $C$DW$155, DW_AT_external
     670              $C$DW$156       .dwtag  DW_TAG_formal_parameter
     671                      .dwattr $C$DW$156, DW_AT_type(*$C$DW$T$3)
     672              $C$DW$157       .dwtag  DW_TAG_formal_parameter
     673                      .dwattr $C$DW$157, DW_AT_type(*$C$DW$T$262)
     674                      .dwendtag $C$DW$155
     675              
     676              
     677              $C$DW$158       .dwtag  DW_TAG_subprogram, DW_AT_name("EST_getFm_pu")
     678                      .dwattr $C$DW$158, DW_AT_TI_symbol_name("_EST_getFm_pu")
     679                      .dwattr $C$DW$158, DW_AT_type(*$C$DW$T$31)
     680                      .dwattr $C$DW$158, DW_AT_declaration
     681                      .dwattr $C$DW$158, DW_AT_external
     682              $C$DW$159       .dwtag  DW_TAG_formal_parameter
     683                      .dwattr $C$DW$159, DW_AT_type(*$C$DW$T$49)
     684                      .dwendtag $C$DW$158
     685              
     686                      .global _gUserParams
     687 00000040       _gUserParams:   .usect  ".ebss",172,1,1
     688              $C$DW$160       .dwtag  DW_TAG_variable, DW_AT_name("gUserParams")
     689                      .dwattr $C$DW$160, DW_AT_TI_symbol_name("_gUserParams")
     690                      .dwattr $C$DW$160, DW_AT_location[DW_OP_addr _gUserParams]
     691                      .dwattr $C$DW$160, DW_AT_type(*$C$DW$T$240)
     692                      .dwattr $C$DW$160, DW_AT_external
     693              $C$DW$161       .dwtag  DW_TAG_variable, DW_AT_name("hal")
     694                      .dwattr $C$DW$161, DW_AT_TI_symbol_name("_hal")
     695                      .dwattr $C$DW$161, DW_AT_type(*$C$DW$T$273)
     696                      .dwattr $C$DW$161, DW_AT_declaration
     697                      .dwattr $C$DW$161, DW_AT_external
     698                      .global _MyProcessCtrl
     699 00000100       _MyProcessCtrl: .usect  ".ebss",252,1,1
     700              $C$DW$162       .dwtag  DW_TAG_variable, DW_AT_name("MyProcessCtrl")
     701                      .dwattr $C$DW$162, DW_AT_TI_symbol_name("_MyProcessCtrl")
     702                      .dwattr $C$DW$162, DW_AT_location[DW_OP_addr _MyProcessCtrl]
     703                      .dwattr $C$DW$162, DW_AT_type(*$C$DW$T$282)
     704                      .dwattr $C$DW$162, DW_AT_external
     705                      .global _ctrl
     706 00000200       _ctrl:  .usect  ".ebss",264,1,1
     707              $C$DW$163       .dwtag  DW_TAG_variable, DW_AT_name("ctrl")
     708                      .dwattr $C$DW$163, DW_AT_TI_symbol_name("_ctrl")
     709                      .dwattr $C$DW$163, DW_AT_location[DW_OP_addr _ctrl]
     710                      .dwattr $C$DW$163, DW_AT_type(*$C$DW$T$258)
     711                      .dwattr $C$DW$163, DW_AT_external
     712              ;       C:\ti\ccsv6\tools\compiler\c2000_6.2.5\bin\opt2000.exe C:\\Users\\wmj\\AppData\\Local\\Temp\\105522 C
     713              ;       C:\ti\ccsv6\tools\compiler\c2000_6.2.5\bin\ac2000.exe -@C:\\Users\\wmj\\AppData\\Local\\Temp\\1055216
TMS320C2000 Assembler PC v6.2.5 Tue Nov 21 22:57:45 2017

Tools Copyright (c) 1996-2014 Texas Instruments Incorporated
C:\Users\wmj\AppData\Local\Temp\1055210                              PAGE   14

     714 00000000               .sect   "ramfuncs:retain"
     715                      .retain
     716                      .retainrefs
     717                      .global _mainISR
     718              
     719              $C$DW$164       .dwtag  DW_TAG_subprogram, DW_AT_name("mainISR")
     720                      .dwattr $C$DW$164, DW_AT_low_pc(_mainISR)
     721                      .dwattr $C$DW$164, DW_AT_high_pc(0x00)
     722                      .dwattr $C$DW$164, DW_AT_TI_symbol_name("_mainISR")
     723                      .dwattr $C$DW$164, DW_AT_external
     724                      .dwattr $C$DW$164, DW_AT_TI_begin_file("D:/BM1000_v1.1/sw/solutions/instaspin/src/proj_bm1000.c")
     725                      .dwattr $C$DW$164, DW_AT_TI_begin_line(0x157)
     726                      .dwattr $C$DW$164, DW_AT_TI_begin_column(0x10)
     727                      .dwattr $C$DW$164, DW_AT_TI_interrupt
     728                      .dwattr $C$DW$164, DW_AT_TI_max_frame_size(-22)
     729                      .dwpsn  file "D:/BM1000_v1.1/sw/solutions/instaspin/src/proj_bm1000.c",line 344,column 1,is_stmt,addr
     730              
     731                      .dwfde $C$DW$CIE, _mainISR
     732              $C$DW$165       .dwtag  DW_TAG_variable, DW_AT_name("MeasCnt")
     733                      .dwattr $C$DW$165, DW_AT_TI_symbol_name("_MeasCnt$1")
     734                      .dwattr $C$DW$165, DW_AT_type(*$C$DW$T$22)
     735                      .dwattr $C$DW$165, DW_AT_location[DW_OP_addr _MeasCnt$1]
     736              
     737              ;***************************************************************
     738              ;* FNAME: _mainISR                      FR SIZE:  20           *
     739              ;*                                                             *
     740              ;* FUNCTION ENVIRONMENT                                        *
     741              ;*                                                             *
     742              ;* FUNCTION PROPERTIES                                         *
     743              ;*                            4 Parameter,  0 Auto, 16 SOE     *
     744              ;***************************************************************
     745              
     746              _mainISR:
     747              ;* AR4   assigned to $O$C3
     748              ;* AR4   assigned to $O$C4
     749              ;* AR5   assigned to $O$C5
     750              ;* AR7   assigned to $O$C6
     751              ;* AR6   assigned to $O$C7
     752              ;* AR4   assigned to $O$C8
     753              ;* AR6   assigned to $O$C9
     754              ;* AR0   assigned to $O$C10
     755              ;* AR7   assigned to $O$C11
     756              ;* AR4   assigned to $O$C12
     757              ;* AR7   assigned to $O$C13
     758              ;* AR4   assigned to $O$U96
     759              ;* AR5   assigned to $O$U0
     760              ;* AR4   assigned to $O$U158
     761              ;* AR5   assigned to $O$U168
     762              ;* AL    assigned to $O$U167
     763              ;* AR4   assigned to $O$U157
     764              ;* AR6   assigned to $O$L1
     765              ;* AR5   assigned to _obj
     766              $C$DW$166       .dwtag  DW_TAG_variable, DW_AT_name("obj")
     767                      .dwattr $C$DW$166, DW_AT_TI_symbol_name("_obj")
     768                      .dwattr $C$DW$166, DW_AT_type(*$C$DW$T$274)
TMS320C2000 Assembler PC v6.2.5 Tue Nov 21 22:57:45 2017

Tools Copyright (c) 1996-2014 Texas Instruments Incorporated
C:\Users\wmj\AppData\Local\Temp\1055210                              PAGE   15

     769                      .dwattr $C$DW$166, DW_AT_location[DW_OP_reg14]
     770              ;* AR4   assigned to _pAdcData
     771              $C$DW$167       .dwtag  DW_TAG_variable, DW_AT_name("pAdcData")
     772                      .dwattr $C$DW$167, DW_AT_TI_symbol_name("_pAdcData")
     773                      .dwattr $C$DW$167, DW_AT_type(*$C$DW$T$271)
     774                      .dwattr $C$DW$167, DW_AT_location[DW_OP_reg12]
     775              ;* AR2   assigned to _current_sf
     776              $C$DW$168       .dwtag  DW_TAG_variable, DW_AT_name("current_sf")
     777                      .dwattr $C$DW$168, DW_AT_TI_symbol_name("_current_sf")
     778                      .dwattr $C$DW$168, DW_AT_type(*$C$DW$T$31)
     779                      .dwattr $C$DW$168, DW_AT_location[DW_OP_reg8]
     780              ;* AR3   assigned to _voltage_sf
     781              $C$DW$169       .dwtag  DW_TAG_variable, DW_AT_name("voltage_sf")
     782                      .dwattr $C$DW$169, DW_AT_TI_symbol_name("_voltage_sf")
     783                      .dwattr $C$DW$169, DW_AT_type(*$C$DW$T$31)
     784                      .dwattr $C$DW$169, DW_AT_location[DW_OP_reg10]
     785              ;* AR3   assigned to _handle
     786              $C$DW$170       .dwtag  DW_TAG_variable, DW_AT_name("handle")
     787                      .dwattr $C$DW$170, DW_AT_TI_symbol_name("_handle")
     788                      .dwattr $C$DW$170, DW_AT_type(*$C$DW$T$211)
     789                      .dwattr $C$DW$170, DW_AT_location[DW_OP_reg10]
     790              ;* AR2   assigned to _ctrl
     791              $C$DW$171       .dwtag  DW_TAG_variable, DW_AT_name("ctrl")
     792                      .dwattr $C$DW$171, DW_AT_TI_symbol_name("_ctrl")
     793                      .dwattr $C$DW$171, DW_AT_type(*$C$DW$T$259)
     794                      .dwattr $C$DW$171, DW_AT_location[DW_OP_reg8]
     795              ;* AR1   assigned to _fs
     796              $C$DW$172       .dwtag  DW_TAG_variable, DW_AT_name("fs")
     797                      .dwattr $C$DW$172, DW_AT_TI_symbol_name("_fs")
     798                      .dwattr $C$DW$172, DW_AT_type(*$C$DW$T$268)
     799                      .dwattr $C$DW$172, DW_AT_location[DW_OP_reg6]
     800              ;* AL    assigned to _pPwmData
     801              $C$DW$173       .dwtag  DW_TAG_variable, DW_AT_name("pPwmData")
     802                      .dwattr $C$DW$173, DW_AT_TI_symbol_name("_pPwmData")
     803                      .dwattr $C$DW$173, DW_AT_type(*$C$DW$T$278)
     804                      .dwattr $C$DW$173, DW_AT_location[DW_OP_reg0]
     805              ;* AR0   assigned to _period
     806              $C$DW$174       .dwtag  DW_TAG_variable, DW_AT_name("period")
     807                      .dwattr $C$DW$174, DW_AT_TI_symbol_name("_period")
     808                      .dwattr $C$DW$174, DW_AT_type(*$C$DW$T$31)
     809                      .dwattr $C$DW$174, DW_AT_location[DW_OP_reg4]
     810              ;* XT    assigned to _value
     811              $C$DW$175       .dwtag  DW_TAG_variable, DW_AT_name("value")
     812                      .dwattr $C$DW$175, DW_AT_TI_symbol_name("_value")
     813                      .dwattr $C$DW$175, DW_AT_type(*$C$DW$T$31)
     814                      .dwattr $C$DW$175, DW_AT_location[DW_OP_reg21]
     815              ;* XT    assigned to _value
     816              $C$DW$176       .dwtag  DW_TAG_variable, DW_AT_name("value")
     817                      .dwattr $C$DW$176, DW_AT_TI_symbol_name("_value")
     818                      .dwattr $C$DW$176, DW_AT_type(*$C$DW$T$31)
     819                      .dwattr $C$DW$176, DW_AT_location[DW_OP_reg21]
     820              ;* XT    assigned to _value
     821              $C$DW$177       .dwtag  DW_TAG_variable, DW_AT_name("value")
     822                      .dwattr $C$DW$177, DW_AT_TI_symbol_name("_value")
     823                      .dwattr $C$DW$177, DW_AT_type(*$C$DW$T$31)
TMS320C2000 Assembler PC v6.2.5 Tue Nov 21 22:57:45 2017

Tools Copyright (c) 1996-2014 Texas Instruments Incorporated
C:\Users\wmj\AppData\Local\Temp\1055210                              PAGE   16

     824                      .dwattr $C$DW$177, DW_AT_location[DW_OP_reg21]
     825              ;* XT    assigned to _value
     826              $C$DW$178       .dwtag  DW_TAG_variable, DW_AT_name("value")
     827                      .dwattr $C$DW$178, DW_AT_TI_symbol_name("_value")
     828                      .dwattr $C$DW$178, DW_AT_type(*$C$DW$T$31)
     829                      .dwattr $C$DW$178, DW_AT_location[DW_OP_reg21]
     830              ;* XT    assigned to _value
     831              $C$DW$179       .dwtag  DW_TAG_variable, DW_AT_name("value")
     832                      .dwattr $C$DW$179, DW_AT_TI_symbol_name("_value")
     833                      .dwattr $C$DW$179, DW_AT_type(*$C$DW$T$31)
     834                      .dwattr $C$DW$179, DW_AT_location[DW_OP_reg21]
     835              ;* XT    assigned to _value
     836              $C$DW$180       .dwtag  DW_TAG_variable, DW_AT_name("value")
     837                      .dwattr $C$DW$180, DW_AT_TI_symbol_name("_value")
     838                      .dwattr $C$DW$180, DW_AT_type(*$C$DW$T$31)
     839                      .dwattr $C$DW$180, DW_AT_location[DW_OP_reg21]
     840              ;* XT    assigned to _value
     841              $C$DW$181       .dwtag  DW_TAG_variable, DW_AT_name("value")
     842                      .dwattr $C$DW$181, DW_AT_TI_symbol_name("_value")
     843                      .dwattr $C$DW$181, DW_AT_type(*$C$DW$T$31)
     844                      .dwattr $C$DW$181, DW_AT_location[DW_OP_reg21]
     845              ;* AL    assigned to _value
     846              $C$DW$182       .dwtag  DW_TAG_variable, DW_AT_name("value")
     847                      .dwattr $C$DW$182, DW_AT_TI_symbol_name("_value")
     848                      .dwattr $C$DW$182, DW_AT_type(*$C$DW$T$31)
     849                      .dwattr $C$DW$182, DW_AT_location[DW_OP_reg0]
     850              ;* AL    assigned to _value
     851              $C$DW$183       .dwtag  DW_TAG_variable, DW_AT_name("value")
     852                      .dwattr $C$DW$183, DW_AT_TI_symbol_name("_value")
     853                      .dwattr $C$DW$183, DW_AT_type(*$C$DW$T$31)
     854                      .dwattr $C$DW$183, DW_AT_location[DW_OP_reg0]
     855              ;* AL    assigned to _value
     856              $C$DW$184       .dwtag  DW_TAG_variable, DW_AT_name("value")
     857                      .dwattr $C$DW$184, DW_AT_TI_symbol_name("_value")
     858                      .dwattr $C$DW$184, DW_AT_type(*$C$DW$T$31)
     859                      .dwattr $C$DW$184, DW_AT_location[DW_OP_reg0]
     860              ;* AL    assigned to _value
     861              $C$DW$185       .dwtag  DW_TAG_variable, DW_AT_name("value")
     862                      .dwattr $C$DW$185, DW_AT_TI_symbol_name("_value")
     863                      .dwattr $C$DW$185, DW_AT_type(*$C$DW$T$31)
     864                      .dwattr $C$DW$185, DW_AT_location[DW_OP_reg0]
     865              ;* AR5   assigned to $O$v1
     866              ;* AR6   assigned to $O$U10
     867              ;* AR4   assigned to $O$U10
     868                      .dwcfi  cfa_offset, -2
     869                      .dwcfi  save_reg_to_mem, 26, 0
     870                      .dwcfi  save_reg_to_reg, 78, 26
     871 00000000 761B          ASP       ; [CPU_] 
     872 00000001 0005          PUSH      AR1H:AR0H             ; [CPU_] 
     873                      .dwcfi  save_reg_to_mem, 5, 2
     874                      .dwcfi  save_reg_to_mem, 7, 3
     875                      .dwcfi  cfa_offset, -4
     876 00000002 ABBD          MOVL      *SP++,XT              ; [CPU_] 
     877                      .dwcfi  save_reg_to_mem, 21, 4
     878                      .dwcfi  save_reg_to_mem, 22, 5
TMS320C2000 Assembler PC v6.2.5 Tue Nov 21 22:57:45 2017

Tools Copyright (c) 1996-2014 Texas Instruments Incorporated
C:\Users\wmj\AppData\Local\Temp\1055210                              PAGE   17

     879                      .dwcfi  cfa_offset, -6
     880 00000003 AABD          MOVL      *SP++,XAR2            ; [CPU_] 
     881                      .dwcfi  save_reg_to_mem, 8, 6
     882                      .dwcfi  save_reg_to_mem, 9, 7
     883                      .dwcfi  cfa_offset, -8
     884 00000004 A2BD          MOVL      *SP++,XAR3            ; [CPU_] 
     885                      .dwcfi  save_reg_to_mem, 10, 8
     886                      .dwcfi  save_reg_to_mem, 11, 9
     887                      .dwcfi  cfa_offset, -10
     888 00000005 A8BD          MOVL      *SP++,XAR4            ; [CPU_] 
     889                      .dwcfi  save_reg_to_mem, 12, 10
     890                      .dwcfi  save_reg_to_mem, 13, 11
     891                      .dwcfi  cfa_offset, -12
     892 00000006 A0BD          MOVL      *SP++,XAR5            ; [CPU_] 
     893                      .dwcfi  save_reg_to_mem, 14, 12
     894                      .dwcfi  save_reg_to_mem, 15, 13
     895                      .dwcfi  cfa_offset, -14
     896 00000007 C2BD          MOVL      *SP++,XAR6            ; [CPU_] 
     897                      .dwcfi  save_reg_to_mem, 16, 14
     898                      .dwcfi  save_reg_to_mem, 17, 15
     899                      .dwcfi  cfa_offset, -16
     900 00000008 C3BD          MOVL      *SP++,XAR7            ; [CPU_] 
     901                      .dwcfi  save_reg_to_mem, 18, 16
     902                      .dwcfi  save_reg_to_mem, 19, 17
     903                      .dwcfi  cfa_offset, -18
     904 00000009 FE04          ADDB      SP,#4                 ; [CPU_U] 
     905                      .dwcfi  cfa_offset, -22
     906 0000000a FF69          SPM       0                     ; [CPU_] 
     907 0000000b 2942          CLRC      PAGE0,OVM             ; [CPU_] 
     908 0000000c 5616          CLRC      AMODE                 ; [CPU_] 
     909 0000000d 761F-         MOVW      DP,#_halHandle        ; [CPU_U] 
         0000000e 0000 
     910                      .dwpsn  file "D:/BM1000_v1.1/sw/solutions/instaspin/src/proj_bm1000.c",line 354,column 3,is_stmt
     911 0000000f 8302-         MOVL      XAR5,@_halHandle      ; [CPU_] |354| 
     912                      .dwpsn  file "D:/BM1000_v1.1/sw/drivers/adc/src/32b/f28x/f2802x/adc.h",line 571,column 3,is_stmt
     913 00000010 8AC5          MOVL      XAR4,*+XAR5[0]        ; [CPU_] |571| 
     914 00000011 8D00          MOVL      XAR0,#26117           ; [CPU_] |571| 
         00000012 6605 
     915 00000013 56BF          MOVB      *+XAR4[AR0],#1,UNC    ; [CPU_] |571| 
         00000014 0194 
     916                      .dwpsn  file "D:/BM1000_v1.1/sw/drivers/pie/src/32b/f28x/f2802x/pie.h",line 757,column 5,is_stmt
     917 00000015 D078          MOVB      XAR0,#120             ; [CPU_] |757| 
     918 00000016 8A95          MOVL      XAR4,*+XAR5[AR0]      ; [CPU_] |757| 
     919 00000017 56BF          MOVB      *+XAR4[1],#1,UNC      ; [CPU_] |757| 
         00000018 01CC 
     920                      .dwpsn  file "D:/BM1000_v1.1/sw/solutions/instaspin/src/proj_bm1000.c",line 357,column 3,is_stmt
     921 00000019 C406-         MOVL      XAR6,@_proctrlHandle  ; [CPU_] |357| 
     922 0000001a 02D6          MOVB      ACC,#214              ; [CPU_] |357| 
     923                      .dwpsn  file "D:/BM1000_v1.1/sw/modules/hal/boards/hvkit_rev1p1/f28x/f2802x/src/hal.h",line 391,colum
     924 0000001b D0AC          MOVB      XAR0,#172             ; [CPU_] |391| 
     925                      .dwpsn  file "D:/BM1000_v1.1/sw/solutions/instaspin/src/proj_bm1000.c",line 357,column 3,is_stmt
     926 0000001c 07A6          ADDL      ACC,XAR6              ; [CPU_] |357| 
     927                      .dwpsn  file "D:/BM1000_v1.1/sw/modules/hal/boards/hvkit_rev1p1/f28x/f2802x/src/hal.h",line 391,colum
     928 0000001d 8695          MOVL      XAR2,*+XAR5[AR0]      ; [CPU_] |391| 
     929                      .dwpsn  file "D:/BM1000_v1.1/sw/drivers/adc/src/32b/f28x/f2802x/adc.h",line 684,column 3,is_stmt
TMS320C2000 Assembler PC v6.2.5 Tue Nov 21 22:57:45 2017

Tools Copyright (c) 1996-2014 Texas Instruments Incorporated
C:\Users\wmj\AppData\Local\Temp\1055210                              PAGE   18

     930 0000001e C5C5          MOVL      XAR7,*+XAR5[0]        ; [CPU_] |684| 
     931                      .dwpsn  file "D:/BM1000_v1.1/sw/modules/hal/boards/hvkit_rev1p1/f28x/f2802x/src/hal.h",line 486,colum
     932 0000001f D0AE          MOVB      XAR0,#174             ; [CPU_] |486| 
     933                      .dwpsn  file "D:/BM1000_v1.1/sw/solutions/instaspin/src/proj_bm1000.c",line 357,column 3,is_stmt
     934 00000020 8AA9          MOVL      XAR4,ACC              ; [CPU_] |357| 
     935                      .dwpsn  file "D:/BM1000_v1.1/sw/modules/hal/boards/hvkit_rev1p1/f28x/f2802x/src/hal.h",line 486,colum
     936 00000021 8295          MOVL      XAR3,*+XAR5[AR0]      ; [CPU_] |486| 
     937                      .dwpsn  file "D:/BM1000_v1.1/sw/drivers/adc/src/32b/f28x/f2802x/adc.h",line 684,column 3,is_stmt
     938 00000022 0ECF          MOVU      ACC,*+XAR7[1]         ; [CPU_] |684| 
     939 00000023 1EAC          MOVL      XT,ACC                ; [CPU_] |684| 
     940                      .dwpsn  file "D:/BM1000_v1.1/sw/modules/hal/boards/hvkit_rev1p1/f28x/f2802x/src/hal.h",line 549,colum
     941 00000024 0296          MOVB      ACC,#150              ; [CPU_] |549| 
     942 00000025 5605          IMPYL     P,XT,XAR2             ; [CPU_] |549| 
         00000026 00A2 
     943 00000027 07A5          ADDL      ACC,XAR5              ; [CPU_] |549| 
     944 00000028 1EA7          MOVL      XAR7,ACC              ; [CPU_] |549| 
     945 00000029 5663          QMPYL     ACC,XT,XAR2           ; [CPU_] |549| 
         0000002a 00A2 
     946 0000002b 568B          ASR64     ACC:P,#12             ; [CPU_] |549| 
     947 0000002c A9A9          MOVL      ACC,P                 ; [CPU_] |549| 
     948 0000002d 03C7          SUBL      ACC,*+XAR7[0]         ; [CPU_] |549| 
     949                      .dwpsn  file "D:/BM1000_v1.1/sw/modules/hal/boards/hvkit_rev1p1/f28x/f2802x/src/hal.h",line 550,colum
     950 0000002e 1EC4          MOVL      *+XAR4[0],ACC         ; [CPU_] |550| 
     951                      .dwpsn  file "D:/BM1000_v1.1/sw/drivers/adc/src/32b/f28x/f2802x/adc.h",line 684,column 3,is_stmt
     952 0000002f 8EC5          MOVL      XAR0,*+XAR5[0]        ; [CPU_] |684| 
     953 00000030 0ED0          MOVU      ACC,*+XAR0[2]         ; [CPU_] |684| 
     954 00000031 1EAC          MOVL      XT,ACC                ; [CPU_] |684| 
     955                      .dwpsn  file "D:/BM1000_v1.1/sw/modules/hal/boards/hvkit_rev1p1/f28x/f2802x/src/hal.h",line 554,colum
     956 00000032 5663          QMPYL     ACC,XT,XAR2           ; [CPU_] |554| 
         00000033 00A2 
     957 00000034 5605          IMPYL     P,XT,XAR2             ; [CPU_] |554| 
         00000035 00A2 
     958 00000036 568B          ASR64     ACC:P,#12             ; [CPU_] |554| 
     959 00000037 A9A9          MOVL      ACC,P                 ; [CPU_] |554| 
     960 00000038 03D7          SUBL      ACC,*+XAR7[2]         ; [CPU_] |554| 
     961                      .dwpsn  file "D:/BM1000_v1.1/sw/modules/hal/boards/hvkit_rev1p1/f28x/f2802x/src/hal.h",line 555,colum
     962 00000039 1ED4          MOVL      *+XAR4[2],ACC         ; [CPU_] |555| 
     963                      .dwpsn  file "D:/BM1000_v1.1/sw/drivers/adc/src/32b/f28x/f2802x/adc.h",line 684,column 3,is_stmt
     964 0000003a 8EC5          MOVL      XAR0,*+XAR5[0]        ; [CPU_] |684| 
     965 0000003b 0ED8          MOVU      ACC,*+XAR0[3]         ; [CPU_] |684| 
     966 0000003c 1EAC          MOVL      XT,ACC                ; [CPU_] |684| 
     967                      .dwpsn  file "D:/BM1000_v1.1/sw/modules/hal/boards/hvkit_rev1p1/f28x/f2802x/src/hal.h",line 565,colum
     968 0000003d 8EA4          MOVL      XAR0,XAR4             ; [CPU_] |565| 
     969                      .dwpsn  file "D:/BM1000_v1.1/sw/modules/hal/boards/hvkit_rev1p1/f28x/f2802x/src/hal.h",line 559,colum
     970 0000003e 5663          QMPYL     ACC,XT,XAR2           ; [CPU_] |559| 
         0000003f 00A2 
     971 00000040 5605          IMPYL     P,XT,XAR2             ; [CPU_] |559| 
         00000041 00A2 
     972 00000042 568B          ASR64     ACC:P,#12             ; [CPU_] |559| 
     973 00000043 A9A9          MOVL      ACC,P                 ; [CPU_] |559| 
     974 00000044 03E7          SUBL      ACC,*+XAR7[4]         ; [CPU_] |559| 
     975                      .dwpsn  file "D:/BM1000_v1.1/sw/modules/hal/boards/hvkit_rev1p1/f28x/f2802x/src/hal.h",line 560,colum
     976 00000045 1EE4          MOVL      *+XAR4[4],ACC         ; [CPU_] |560| 
     977                      .dwpsn  file "D:/BM1000_v1.1/sw/drivers/adc/src/32b/f28x/f2802x/adc.h",line 684,column 3,is_stmt
     978 00000046 C5C5          MOVL      XAR7,*+XAR5[0]        ; [CPU_] |684| 
TMS320C2000 Assembler PC v6.2.5 Tue Nov 21 22:57:45 2017

Tools Copyright (c) 1996-2014 Texas Instruments Incorporated
C:\Users\wmj\AppData\Local\Temp\1055210                              PAGE   19

     979                      .dwpsn  file "D:/BM1000_v1.1/sw/modules/hal/boards/hvkit_rev1p1/f28x/f2802x/src/hal.h",line 565,colum
     980 00000047 D806          ADDB      XAR0,#6               ; [CPU_] |565| 
     981                      .dwpsn  file "D:/BM1000_v1.1/sw/drivers/adc/src/32b/f28x/f2802x/adc.h",line 684,column 3,is_stmt
     982 00000048 0EE7          MOVU      ACC,*+XAR7[4]         ; [CPU_] |684| 
     983 00000049 1EAC          MOVL      XT,ACC                ; [CPU_] |684| 
     984                      .dwpsn  file "D:/BM1000_v1.1/sw/modules/hal/boards/hvkit_rev1p1/f28x/f2802x/src/hal.h",line 564,colum
     985 0000004a 029C          MOVB      ACC,#156              ; [CPU_] |564| 
     986 0000004b 5605          IMPYL     P,XT,XAR3             ; [CPU_] |564| 
         0000004c 00A3 
     987 0000004d 07A5          ADDL      ACC,XAR5              ; [CPU_] |564| 
     988 0000004e 1EA7          MOVL      XAR7,ACC              ; [CPU_] |564| 
     989 0000004f 5663          QMPYL     ACC,XT,XAR3           ; [CPU_] |564| 
         00000050 00A3 
     990 00000051 568B          ASR64     ACC:P,#12             ; [CPU_] |564| 
     991 00000052 A9A9          MOVL      ACC,P                 ; [CPU_] |564| 
     992 00000053 03C7          SUBL      ACC,*+XAR7[0]         ; [CPU_] |564| 
     993                      .dwpsn  file "D:/BM1000_v1.1/sw/modules/hal/boards/hvkit_rev1p1/f28x/f2802x/src/hal.h",line 565,colum
     994 00000054 1EC0          MOVL      *+XAR0[0],ACC         ; [CPU_] |565| 
     995                      .dwpsn  file "D:/BM1000_v1.1/sw/drivers/adc/src/32b/f28x/f2802x/adc.h",line 684,column 3,is_stmt
     996 00000055 8BC5          MOVL      XAR1,*+XAR5[0]        ; [CPU_] |684| 
     997 00000056 0EE9          MOVU      ACC,*+XAR1[5]         ; [CPU_] |684| 
     998 00000057 1EAC          MOVL      XT,ACC                ; [CPU_] |684| 
     999                      .dwpsn  file "D:/BM1000_v1.1/sw/modules/hal/boards/hvkit_rev1p1/f28x/f2802x/src/hal.h",line 569,colum
    1000 00000058 5663          QMPYL     ACC,XT,XAR3           ; [CPU_] |569| 
         00000059 00A3 
    1001 0000005a 5605          IMPYL     P,XT,XAR3             ; [CPU_] |569| 
         0000005b 00A3 
    1002 0000005c 568B          ASR64     ACC:P,#12             ; [CPU_] |569| 
    1003 0000005d A9A9          MOVL      ACC,P                 ; [CPU_] |569| 
    1004 0000005e 03D7          SUBL      ACC,*+XAR7[2]         ; [CPU_] |569| 
    1005                      .dwpsn  file "D:/BM1000_v1.1/sw/modules/hal/boards/hvkit_rev1p1/f28x/f2802x/src/hal.h",line 570,colum
    1006 0000005f 1ED0          MOVL      *+XAR0[2],ACC         ; [CPU_] |570| 
    1007                      .dwpsn  file "D:/BM1000_v1.1/sw/drivers/adc/src/32b/f28x/f2802x/adc.h",line 684,column 3,is_stmt
    1008 00000060 8BC5          MOVL      XAR1,*+XAR5[0]        ; [CPU_] |684| 
    1009 00000061 0EF1          MOVU      ACC,*+XAR1[6]         ; [CPU_] |684| 
    1010 00000062 1EAC          MOVL      XT,ACC                ; [CPU_] |684| 
    1011                      .dwpsn  file "D:/BM1000_v1.1/sw/modules/hal/boards/hvkit_rev1p1/f28x/f2802x/src/hal.h",line 574,colum
    1012 00000063 5663          QMPYL     ACC,XT,XAR3           ; [CPU_] |574| 
         00000064 00A3 
    1013 00000065 5605          IMPYL     P,XT,XAR3             ; [CPU_] |574| 
         00000066 00A3 
    1014 00000067 568B          ASR64     ACC:P,#12             ; [CPU_] |574| 
    1015 00000068 A9A9          MOVL      ACC,P                 ; [CPU_] |574| 
    1016 00000069 03E7          SUBL      ACC,*+XAR7[4]         ; [CPU_] |574| 
    1017                      .dwpsn  file "D:/BM1000_v1.1/sw/modules/hal/boards/hvkit_rev1p1/f28x/f2802x/src/hal.h",line 575,colum
    1018 0000006a 1EE0          MOVL      *+XAR0[4],ACC         ; [CPU_] |575| 
    1019                      .dwpsn  file "D:/BM1000_v1.1/sw/drivers/adc/src/32b/f28x/f2802x/adc.h",line 684,column 3,is_stmt
    1020 0000006b C5C5          MOVL      XAR7,*+XAR5[0]        ; [CPU_] |684| 
    1021                      .dwpsn  file "D:/BM1000_v1.1/sw/modules/hal/boards/hvkit_rev1p1/f28x/f2802x/src/hal.h",line 580,colum
    1022 0000006c D00C          MOVB      XAR0,#12              ; [CPU_] |580| 
    1023                      .dwpsn  file "D:/BM1000_v1.1/sw/drivers/adc/src/32b/f28x/f2802x/adc.h",line 684,column 3,is_stmt
    1024 0000006d 0EFF          MOVU      ACC,*+XAR7[7]         ; [CPU_] |684| 
    1025 0000006e 1EAC          MOVL      XT,ACC                ; [CPU_] |684| 
    1026                      .dwpsn  file "D:/BM1000_v1.1/sw/modules/hal/boards/hvkit_rev1p1/f28x/f2802x/src/hal.h",line 579,colum
    1027 0000006f 5663          QMPYL     ACC,XT,XAR3           ; [CPU_] |579| 
TMS320C2000 Assembler PC v6.2.5 Tue Nov 21 22:57:45 2017

Tools Copyright (c) 1996-2014 Texas Instruments Incorporated
C:\Users\wmj\AppData\Local\Temp\1055210                              PAGE   20

         00000070 00A3 
    1028 00000071 5605          IMPYL     P,XT,XAR3             ; [CPU_] |579| 
         00000072 00A3 
    1029 00000073 568B          ASR64     ACC:P,#12             ; [CPU_] |579| 
    1030                      .dwpsn  file "D:/BM1000_v1.1/sw/modules/hal/boards/hvkit_rev1p1/f28x/f2802x/src/hal.h",line 580,colum
    1031 00000074 A994          MOVL      *+XAR4[AR0],P         ; [CPU_] |580| 
    1032                      .dwpsn  file "D:/BM1000_v1.1/sw/drivers/adc/src/32b/f28x/f2802x/adc.h",line 684,column 3,is_stmt
    1033 00000075 C5C5          MOVL      XAR7,*+XAR5[0]        ; [CPU_] |684| 
    1034 00000076 D008          MOVB      XAR0,#8               ; [CPU_] |684| 
    1035 00000077 0E97          MOVU      ACC,*+XAR7[AR0]       ; [CPU_] |684| 
    1036                      .dwpsn  file "D:/BM1000_v1.1/sw/modules/hal/boards/hvkit_rev1p1/f28x/f2802x/src/hal.h",line 584,colum
    1037 00000078 D00E          MOVB      XAR0,#14              ; [CPU_] |584| 
    1038 00000079 1E94          MOVL      *+XAR4[AR0],ACC       ; [CPU_] |584| 
    1039                      .dwpsn  file "D:/BM1000_v1.1/sw/drivers/adc/src/32b/f28x/f2802x/adc.h",line 684,column 3,is_stmt
    1040 0000007a C5C5          MOVL      XAR7,*+XAR5[0]        ; [CPU_] |684| 
    1041 0000007b D009          MOVB      XAR0,#9               ; [CPU_] |684| 
    1042 0000007c 0E97          MOVU      ACC,*+XAR7[AR0]       ; [CPU_] |684| 
    1043                      .dwpsn  file "D:/BM1000_v1.1/sw/modules/hal/boards/hvkit_rev1p1/f28x/f2802x/src/hal.h",line 588,colum
    1044 0000007d D010          MOVB      XAR0,#16              ; [CPU_] |588| 
    1045 0000007e 1E94          MOVL      *+XAR4[AR0],ACC       ; [CPU_] |588| 
    1046                      .dwpsn  file "D:/BM1000_v1.1/sw/drivers/adc/src/32b/f28x/f2802x/adc.h",line 684,column 3,is_stmt
    1047 0000007f C5C5          MOVL      XAR7,*+XAR5[0]        ; [CPU_] |684| 
    1048 00000080 D00A          MOVB      XAR0,#10              ; [CPU_] |684| 
    1049 00000081 0E97          MOVU      ACC,*+XAR7[AR0]       ; [CPU_] |684| 
    1050                      .dwpsn  file "D:/BM1000_v1.1/sw/modules/hal/boards/hvkit_rev1p1/f28x/f2802x/src/hal.h",line 591,colum
    1051 00000082 D014          MOVB      XAR0,#20              ; [CPU_] |591| 
    1052 00000083 1E94          MOVL      *+XAR4[AR0],ACC       ; [CPU_] |591| 
    1053                      .dwpsn  file "D:/BM1000_v1.1/sw/drivers/adc/src/32b/f28x/f2802x/adc.h",line 684,column 3,is_stmt
    1054 00000084 C5C5          MOVL      XAR7,*+XAR5[0]        ; [CPU_] |684| 
    1055 00000085 D00B          MOVB      XAR0,#11              ; [CPU_] |684| 
    1056                      .dwpsn  file "D:/BM1000_v1.1/sw/solutions/instaspin/src/proj_bm1000.c",line 376,column 6,is_stmt
    1057 00000086 8204-         MOVL      XAR3,@_ctrlHandle     ; [CPU_] |376| 
    1058                      .dwpsn  file "D:/BM1000_v1.1/sw/drivers/adc/src/32b/f28x/f2802x/adc.h",line 684,column 3,is_stmt
    1059 00000087 0E97          MOVU      ACC,*+XAR7[AR0]       ; [CPU_] |684| 
    1060                      .dwpsn  file "D:/BM1000_v1.1/sw/modules/hal/boards/hvkit_rev1p1/f28x/f2802x/src/hal.h",line 594,colum
    1061 00000088 D012          MOVB      XAR0,#18              ; [CPU_] |594| 
    1062 00000089 1E94          MOVL      *+XAR4[AR0],ACC       ; [CPU_] |594| 
    1063                      .dwpsn  file "D:/BM1000_v1.1/sw/modules/flyingStart/src/32b/flyingStart.h",line 224,column 14,is_stmt
    1064 0000008a D018          MOVB      XAR0,#24              ; [CPU_] |224| 
    1065 0000008b 8B96          MOVL      XAR1,*+XAR6[AR0]      ; [CPU_] |224| 
    1066                      .dwpsn  file "D:/BM1000_v1.1/sw/modules/flyingStart/src/32b/flyingStart.h",line 222,column 18,is_stmt
    1067 0000008c 8AA3          MOVL      XAR4,XAR3             ; [CPU_] |222| 
    1068 0000008d 86A3          MOVL      XAR2,XAR3             ; [CPU_] |222| 
    1069                      .dwpsn  file "D:/BM1000_v1.1/sw/modules/flyingStart/src/32b/flyingStart.h",line 226,column 3,is_stmt
    1070 0000008e D011          MOVB      XAR0,#17              ; [CPU_] |226| 
    1071 0000008f 9291          MOV       AL,*+XAR1[AR0]        ; [CPU_] |226| 
    1072 00000090 5201          CMPB      AL,#1                 ; [CPU_] |226| 
    1073 00000091 ED4A          BF        $C$L4,NEQ             ; [CPU_] |226| 
    1074                      ; branchcc occurs ; [] |226| 
    1075                      .dwpsn  file "D:/BM1000_v1.1/sw/modules/ctrl/src/32b/ctrl.h",line 1384,column 3,is_stmt
    1076 00000092 02E2          MOVB      ACC,#226              ; [CPU_] |1384| 
    1077                      .dwpsn  file "D:/BM1000_v1.1/sw/modules/flyingStart/src/32b/flyingStart.h",line 231,column 4,is_stmt
    1078 00000093 D0E8          MOVB      XAR0,#232             ; [CPU_] |231| 
    1079                      .dwpsn  file "D:/BM1000_v1.1/sw/modules/ctrl/src/32b/ctrl.h",line 1384,column 3,is_stmt
    1080 00000094 07A2          ADDL      ACC,XAR2              ; [CPU_] |1384| 
TMS320C2000 Assembler PC v6.2.5 Tue Nov 21 22:57:45 2017

Tools Copyright (c) 1996-2014 Texas Instruments Incorporated
C:\Users\wmj\AppData\Local\Temp\1055210                              PAGE   21

    1081 00000095 8AA9          MOVL      XAR4,ACC              ; [CPU_] |1384| 
    1082 00000096 0200          MOVB      ACC,#0                ; [CPU_] |1384| 
    1083 00000097 1EC4          MOVL      *+XAR4[0],ACC         ; [CPU_] |1384| 
    1084                      .dwpsn  file "D:/BM1000_v1.1/sw/modules/ctrl/src/32b/ctrl.h",line 1476,column 3,is_stmt
    1085 00000098 1ED4          MOVL      *+XAR4[2],ACC         ; [CPU_] |1476| 
    1086                      .dwpsn  file "D:/BM1000_v1.1/sw/modules/flyingStart/src/32b/flyingStart.h",line 231,column 4,is_stmt
    1087 00000099 0692          MOVL      ACC,*+XAR2[AR0]       ; [CPU_] |231| 
    1088                      .dwpsn  file "D:/BM1000_v1.1/sw/modules/flyingStart/src/32b/flyingStart.h",line 232,column 4,is_stmt
    1089 0000009a D018          MOVB      XAR0,#24              ; [CPU_] |232| 
    1090                      .dwpsn  file "D:/BM1000_v1.1/sw/modules/flyingStart/src/32b/flyingStart.h",line 231,column 4,is_stmt
    1091 0000009b 1EC1          MOVL      *+XAR1[0],ACC         ; [CPU_] |231| 
    1092                      .dwpsn  file "D:/BM1000_v1.1/sw/modules/flyingStart/src/32b/flyingStart.h",line 232,column 4,is_stmt
    1093 0000009c 8A92          MOVL      XAR4,*+XAR2[AR0]      ; [CPU_] |232| 
    1094              $C$DW$186       .dwtag  DW_TAG_TI_branch
    1095                      .dwattr $C$DW$186, DW_AT_low_pc(0x00)
    1096                      .dwattr $C$DW$186, DW_AT_name("_EST_getFm_pu")
    1097                      .dwattr $C$DW$186, DW_AT_TI_call
    1098 0000009d 7640!         LCR       #_EST_getFm_pu        ; [CPU_] |232| 
         0000009e 0000 
    1099                      ; call occurs [#_EST_getFm_pu] ; [] |232| 
    1100 0000009f 1EE1          MOVL      *+XAR1[4],ACC         ; [CPU_] |232| 
    1101                      .dwpsn  file "D:/BM1000_v1.1/sw/modules/flyingStart/src/32b/flyingStart.h",line 233,column 4,is_stmt
    1102 000000a0 28A9          MOV       AL,#52429             ; [CPU_] |233| 
         000000a1 CCCD 
    1103 000000a2 9BCC          MOV       AH,#204               ; [CPU_] |233| 
    1104 000000a3 8F33          MOVL      XAR4,#3355443         ; [CPU_U] |233| 
         000000a4 3333 
    1105                      .dwpsn  file "D:/BM1000_v1.1/sw/modules/flyingStart/src/32b/flyingStart.h",line 235,column 4,is_stmt
    1106 000000a5 D00E          MOVB      XAR0,#14              ; [CPU_] |235| 
    1107                      .dwpsn  file "D:/BM1000_v1.1/sw/modules/flyingStart/src/32b/flyingStart.h",line 233,column 4,is_stmt
    1108 000000a6 87F1          MOVL      XT,*+XAR1[6]          ; [CPU_] |233| 
    1109 000000a7 5605          IMPYL     P,XT,ACC              ; [CPU_] |233| 
         000000a8 00A9 
    1110 000000a9 5663          QMPYL     ACC,XT,ACC            ; [CPU_] |233| 
         000000aa 00A9 
    1111 000000ab 87E1          MOVL      XT,*+XAR1[4]          ; [CPU_] |233| 
    1112 000000ac 56A7          LSL64     ACC:P,#8              ; [CPU_] |233| 
    1113 000000ad 1EA6          MOVL      XAR6,ACC              ; [CPU_] |233| 
    1114 000000ae 5605          IMPYL     P,XT,XAR4             ; [CPU_] |233| 
         000000af 00A4 
    1115 000000b0 5663          QMPYL     ACC,XT,XAR4           ; [CPU_] |233| 
         000000b1 00A4 
    1116 000000b2 56A7          LSL64     ACC:P,#8              ; [CPU_] |233| 
    1117 000000b3 07A6          ADDL      ACC,XAR6              ; [CPU_] |233| 
    1118 000000b4 1EF1          MOVL      *+XAR1[6],ACC         ; [CPU_] |233| 
    1119                      .dwpsn  file "D:/BM1000_v1.1/sw/modules/flyingStart/src/32b/flyingStart.h",line 235,column 4,is_stmt
    1120 000000b5 0691          MOVL      ACC,*+XAR1[AR0]       ; [CPU_] |235| 
    1121 000000b6 D00C          MOVB      XAR0,#12              ; [CPU_] |235| 
    1122 000000b7 0F91          CMPL      ACC,*+XAR1[AR0]       ; [CPU_] |235| 
    1123 000000b8 6906          B         $C$L1,LOS             ; [CPU_] |235| 
    1124                      ; branchcc occurs ; [] |235| 
    1125                      .dwpsn  file "D:/BM1000_v1.1/sw/modules/flyingStart/src/32b/flyingStart.h",line 255,column 5,is_stmt
    1126 000000b9 D90C          ADDB      XAR1,#12              ; [CPU_] |255| 
    1127 000000ba 0201          MOVB      ACC,#1                ; [CPU_] |255| 
    1128 000000bb 5601          ADDL      *+XAR1[0],ACC         ; [CPU_] |255| 
TMS320C2000 Assembler PC v6.2.5 Tue Nov 21 22:57:45 2017

Tools Copyright (c) 1996-2014 Texas Instruments Incorporated
C:\Users\wmj\AppData\Local\Temp\1055210                              PAGE   22

         000000bc 00C1 
    1129 000000bd 6F18          B         $C$L3,UNC             ; [CPU_] |255| 
    1130                      ; branch occurs ; [] |255| 
    1131 000000be       $C$L1:    
    1132                      .dwpsn  file "D:/BM1000_v1.1/sw/modules/flyingStart/src/32b/flyingStart.h",line 237,column 5,is_stmt
    1133 000000be C4F1          MOVL      XAR6,*+XAR1[6]        ; [CPU_] |237| 
    1134                      .dwpsn  file "D:/BM1000_v1.1/sw/modules/flyingStart/src/32b/flyingStart.h",line 239,column 6,is_stmt
    1135 000000bf D008          MOVB      XAR0,#8               ; [CPU_] |239| 
    1136 000000c0 06A6          MOVL      ACC,XAR6              ; [CPU_] |239| 
    1137 000000c1 FF56          ABS       ACC                   ; [CPU_] |239| 
    1138 000000c2 0F91          CMPL      ACC,*+XAR1[AR0]       ; [CPU_] |239| 
    1139 000000c3 6302          B         $C$L2,GEQ             ; [CPU_] |239| 
    1140                      ; branchcc occurs ; [] |239| 
    1141 000000c4 BE00          MOVB      XAR6,#0               ; [CPU_] |239| 
    1142 000000c5       $C$L2:    
    1143 000000c5 C2D1          MOVL      *+XAR1[2],XAR6        ; [CPU_] |239| 
    1144                      .dwpsn  file "D:/BM1000_v1.1/sw/modules/flyingStart/src/32b/flyingStart.h",line 246,column 5,is_stmt
    1145 000000c6 D011          MOVB      XAR0,#17              ; [CPU_] |246| 
    1146 000000c7 2B91          MOV       *+XAR1[AR0],#0        ; [CPU_] |246| 
    1147                      .dwpsn  file "D:/BM1000_v1.1/sw/modules/flyingStart/src/32b/flyingStart.h",line 247,column 5,is_stmt
    1148 000000c8 D010          MOVB      XAR0,#16              ; [CPU_] |247| 
    1149 000000c9 56BF          MOVB      *+XAR1[AR0],#1,UNC    ; [CPU_] |247| 
         000000ca 0191 
    1150                      .dwpsn  file "D:/BM1000_v1.1/sw/modules/traj/src/32b/traj.h",line 158,column 3,is_stmt
    1151 000000cb D06C          MOVB      XAR0,#108             ; [CPU_] |158| 
    1152 000000cc 8A92          MOVL      XAR4,*+XAR2[AR0]      ; [CPU_] |158| 
    1153 000000cd 06D1          MOVL      ACC,*+XAR1[2]         ; [CPU_] |158| 
    1154                      .dwpsn  file "D:/BM1000_v1.1/sw/modules/pid/src/32b/pid.h",line 413,column 3,is_stmt
    1155 000000ce D044          MOVB      XAR0,#68              ; [CPU_] |413| 
    1156                      .dwpsn  file "D:/BM1000_v1.1/sw/modules/traj/src/32b/traj.h",line 158,column 3,is_stmt
    1157 000000cf 1ED4          MOVL      *+XAR4[2],ACC         ; [CPU_] |158| 
    1158                      .dwpsn  file "D:/BM1000_v1.1/sw/modules/pid/src/32b/pid.h",line 413,column 3,is_stmt
    1159 000000d0 8A92          MOVL      XAR4,*+XAR2[AR0]      ; [CPU_] |413| 
    1160 000000d1 0200          MOVB      ACC,#0                ; [CPU_] |413| 
    1161                      .dwpsn  file "D:/BM1000_v1.1/sw/modules/ctrl/src/32b/ctrl.h",line 1791,column 3,is_stmt
    1162 000000d2 D0BA          MOVB      XAR0,#186             ; [CPU_] |1791| 
    1163                      .dwpsn  file "D:/BM1000_v1.1/sw/modules/pid/src/32b/pid.h",line 413,column 3,is_stmt
    1164 000000d3 1EF4          MOVL      *+XAR4[6],ACC         ; [CPU_] |413| 
    1165                      .dwpsn  file "D:/BM1000_v1.1/sw/modules/ctrl/src/32b/ctrl.h",line 1791,column 3,is_stmt
    1166 000000d4 1E93          MOVL      *+XAR3[AR0],ACC       ; [CPU_] |1791| 
    1167 000000d5       $C$L3:    
    1168 000000d5 761F-         MOVW      DP,#_halHandle        ; [CPU_U] 
         000000d6 0000 
    1169 000000d7 8302-         MOVL      XAR5,@_halHandle      ; [CPU_] 
    1170 000000d8 C406-         MOVL      XAR6,@_proctrlHandle  ; [CPU_] 
    1171 000000d9 8A04-         MOVL      XAR4,@_ctrlHandle     ; [CPU_] 
    1172                      .dwpsn  file "D:/BM1000_v1.1/sw/modules/ctrl/src/32b/ctrl.h",line 1793,column 3,is_stmt
    1173 000000da 6F04          B         $C$L5,UNC             ; [CPU_] |1793| 
    1174                      ; branch occurs ; [] |1793| 
    1175 000000db       $C$L4:    
    1176                      .dwpsn  file "D:/BM1000_v1.1/sw/modules/flyingStart/src/32b/flyingStart.h",line 259,column 4,is_stmt
    1177 000000db D010          MOVB      XAR0,#16              ; [CPU_] |259| 
    1178 000000dc 56BF          MOVB      *+XAR1[AR0],#1,UNC    ; [CPU_] |259| 
         000000dd 0191 
    1179 000000de       $C$L5:    
TMS320C2000 Assembler PC v6.2.5 Tue Nov 21 22:57:45 2017

Tools Copyright (c) 1996-2014 Texas Instruments Incorporated
C:\Users\wmj\AppData\Local\Temp\1055210                              PAGE   23

    1180                      .dwpsn  file "D:/BM1000_v1.1/sw/solutions/instaspin/src/proj_bm1000.c",line 394,column 3,is_stmt
    1181 000000de 02D6          MOVB      ACC,#214              ; [CPU_] |394| 
    1182 000000df 07A6          ADDL      ACC,XAR6              ; [CPU_] |394| 
    1183 000000e0 1E42          MOVL      *-SP[2],ACC           ; [CPU_] |394| 
    1184 000000e1 02EC          MOVB      ACC,#236              ; [CPU_] |394| 
    1185 000000e2 07A6          ADDL      ACC,XAR6              ; [CPU_] |394| 
    1186 000000e3 1E44          MOVL      *-SP[4],ACC           ; [CPU_] |394| 
    1187              $C$DW$187       .dwtag  DW_TAG_TI_branch
    1188                      .dwattr $C$DW$187, DW_AT_low_pc(0x00)
    1189                      .dwattr $C$DW$187, DW_AT_name("_CTRL_run")
    1190                      .dwattr $C$DW$187, DW_AT_TI_call
    1191 000000e4 7640!         LCR       #_CTRL_run            ; [CPU_] |394| 
         000000e5 0000 
    1192                      ; call occurs [#_CTRL_run] ; [] |394| 
    1193 000000e6 761F-         MOVW      DP,#_proctrlHandle    ; [CPU_U] 
         000000e7 0000 
    1194 000000e8 8A02-         MOVL      XAR4,@_halHandle      ; [CPU_] 
    1195                      .dwpsn  file "D:/BM1000_v1.1/sw/solutions/instaspin/src/proj_bm1000.c",line 397,column 3,is_stmt
    1196 000000e9 0606-         MOVL      ACC,@_proctrlHandle   ; [CPU_] |397| 
    1197 000000ea 3B01          SETC      SXM                   ; [CPU_] 
    1198 000000eb BEEC          MOVB      XAR6,#236             ; [CPU_] |397| 
    1199 000000ec 0DA6          ADDU      ACC,AR6               ; [CPU_] |397| 
    1200 000000ed BE02          MOVB      XAR6,#2               ; [CPU_] 
    1201 000000ee 83A9          MOVL      XAR5,ACC              ; [CPU_] 
    1202 000000ef DC7C          ADDB      XAR4,#124             ; [CPU_] 
    1203 000000f0       $C$L6:    
    1204                      .dwpsn  file "D:/BM1000_v1.1/sw/modules/hal/boards/hvkit_rev1p1/f28x/f2802x/src/hal.h",line 1129,colu
    1205 000000f0 C5C4          MOVL      XAR7,*+XAR4[0]        ; [CPU_] |1129| 
    1206                      .dwpsn  file "D:/BM1000_v1.1/sw/drivers/pwm/src/32b/f28x/f2802x/pwm.h",line 1717,column 3,is_stmt
    1207 000000f1 FF2F          MOV       ACC,#-512 << 15       ; [CPU_] |1717| 
         000000f2 FE00 
    1208 000000f3 8785          MOVL      XT,*XAR5++            ; [CPU_] |1717| 
    1209 000000f4 5605          IMPYL     P,XT,ACC              ; [CPU_] |1717| 
         000000f5 00A9 
    1210                      .dwpsn  file "D:/BM1000_v1.1/sw/modules/hal/boards/hvkit_rev1p1/f28x/f2802x/src/hal.h",line 1129,colu
    1211 000000f6 58EF          MOVZ      AR0,*+XAR7[5]         ; [CPU_] |1129| 
    1212                      .dwpsn  file "D:/BM1000_v1.1/sw/drivers/pwm/src/32b/f28x/f2802x/pwm.h",line 1717,column 3,is_stmt
    1213 000000f7 5663          QMPYL     ACC,XT,ACC            ; [CPU_] |1717| 
         000000f8 00A9 
    1214                      .dwpsn  file "D:/BM1000_v1.1/sw/modules/hal/boards/hvkit_rev1p1/f28x/f2802x/src/hal.h",line 1126,colu
    1215 000000f9 DC02          ADDB      XAR4,#2               ; [CPU_] |1126| 
    1216                      .dwpsn  file "D:/BM1000_v1.1/sw/drivers/pwm/src/32b/f28x/f2802x/pwm.h",line 1717,column 3,is_stmt
    1217 000000fa 56A7          LSL64     ACC:P,#8              ; [CPU_] |1717| 
    1218 000000fb 2BAB          MOV       PL,#0                 ; [CPU_] |1717| 
    1219 000000fc 28AA          MOV       PH,#128               ; [CPU_] |1717| 
         000000fd 0080 
    1220 000000fe A9A2          MOVL      XAR2,P                ; [CPU_] |1717| 
    1221 000000ff 2BAB          MOV       PL,#0                 ; [CPU_] |1717| 
    1222 00000100 28AA          MOV       PH,#65408             ; [CPU_] |1717| 
         00000101 FF80 
    1223 00000102 5650          MINL      ACC,XAR2              ; [CPU_] |1717| 
         00000103 00A2 
    1224 00000104 5661          MAXL      ACC,P                 ; [CPU_] |1717| 
         00000105 00AB 
    1225 00000106 FF1F          ADD       ACC,#256 << 15        ; [CPU_] |1717| 
TMS320C2000 Assembler PC v6.2.5 Tue Nov 21 22:57:45 2017

Tools Copyright (c) 1996-2014 Texas Instruments Incorporated
C:\Users\wmj\AppData\Local\Temp\1055210                              PAGE   24

         00000107 0100 
    1226 00000108 1EAC          MOVL      XT,ACC                ; [CPU_] |1717| 
    1227 00000109 5605          IMPYL     P,XT,XAR0             ; [CPU_] |1717| 
         0000010a 00A0 
    1228 0000010b 5663          QMPYL     ACC,XT,XAR0           ; [CPU_] |1717| 
         0000010c 00A0 
    1229 0000010d 56A7          LSL64     ACC:P,#8              ; [CPU_] |1717| 
    1230 0000010e 3100          MOV       P,#0                  ; [CPU_] |1717| 
    1231 0000010f 5650          MINL      ACC,XAR0              ; [CPU_] |1717| 
         00000110 00A0 
    1232 00000111 D009          MOVB      XAR0,#9               ; [CPU_] |1717| 
    1233 00000112 5661          MAXL      ACC,P                 ; [CPU_] |1717| 
         00000113 00AB 
    1234 00000114 9697          MOV       *+XAR7[AR0],AL        ; [CPU_] |1717| 
    1235                      .dwpsn  file "D:/BM1000_v1.1/sw/modules/hal/boards/hvkit_rev1p1/f28x/f2802x/src/hal.h",line 1126,colu
    1236 00000115 000E          BANZ      $C$L6,AR6--           ; [CPU_] |1126| 
         00000116 FFDB 
    1237                      ; branchcc occurs ; [] |1126| 
    1238 00000117 761F-         MOVW      DP,#_ctrlHandle       ; [CPU_U] 
         00000118 0000 
    1239                      .dwpsn  file "D:/BM1000_v1.1/sw/solutions/instaspin/src/proj_bm1000.c",line 400,column 3,is_stmt
    1240 00000119 8A04-         MOVL      XAR4,@_ctrlHandle     ; [CPU_] |400| 
    1241              $C$DW$188       .dwtag  DW_TAG_TI_branch
    1242                      .dwattr $C$DW$188, DW_AT_low_pc(0x00)
    1243                      .dwattr $C$DW$188, DW_AT_name("_CTRL_setup")
    1244                      .dwattr $C$DW$188, DW_AT_TI_call
    1245 0000011a 7640!         LCR       #_CTRL_setup          ; [CPU_] |400| 
         0000011b 0000 
    1246                      ; call occurs [#_CTRL_setup] ; [] |400| 
    1247 0000011c 761F-         MOVW      DP,#_gLEDcnt          ; [CPU_U] 
         0000011d 0000 
    1248                      .dwpsn  file "D:/BM1000_v1.1/sw/solutions/instaspin/src/proj_bm1000.c",line 411,column 3,is_stmt
    1249 0000011e 0A00-         INC       @_gLEDcnt             ; [CPU_] |411| 
    1250 0000011f 9200-         MOV       AL,@_gLEDcnt          ; [CPU_] |411| 
    1251 00000120 5264          CMPB      AL,#100               ; [CPU_] |411| 
    1252 00000121 681D          B         $C$L8,LO              ; [CPU_] |411| 
    1253                      ; branchcc occurs ; [] |411| 
    1254                      .dwpsn  file "D:/BM1000_v1.1/sw/solutions/instaspin/src/proj_bm1000.c",line 417,column 2,is_stmt
    1255 00000122 8A06-         MOVL      XAR4,@_proctrlHandle  ; [CPU_] |417| 
    1256 00000123 D0D4          MOVB      XAR0,#212             ; [CPU_] |417| 
    1257 00000124 8394          MOVL      XAR5,*+XAR4[AR0]      ; [CPU_] |417| 
    1258                      .dwpsn  file "D:/BM1000_v1.1/sw/solutions/instaspin/src/proj_bm1000.c",line 415,column 2,is_stmt
    1259 00000125 2B00-         MOV       @_gLEDcnt,#0          ; [CPU_] |415| 
    1260                      .dwpsn  file "D:/BM1000_v1.1/sw/solutions/instaspin/src/proj_bm1000.c",line 417,column 2,is_stmt
    1261 00000126 D020          MOVB      XAR0,#32              ; [CPU_] |417| 
    1262 00000127 9295          MOV       AL,*+XAR5[AR0]        ; [CPU_] |417| 
    1263 00000128 5201          CMPB      AL,#1                 ; [CPU_] |417| 
    1264 00000129 ED03          BF        $C$L7,NEQ             ; [CPU_] |417| 
    1265                      ; branchcc occurs ; [] |417| 
    1266                      .dwpsn  file "D:/BM1000_v1.1/sw/drivers/drvic/fsm.h",line 408,column 3,is_stmt
    1267 0000012a DD0D          ADDB      XAR5,#13              ; [CPU_] |408| 
    1268 0000012b 0AC5          INC       *+XAR5[0]             ; [CPU_] |408| 
    1269 0000012c       $C$L7:    
    1270                      .dwpsn  file "D:/BM1000_v1.1/sw/solutions/instaspin/src/proj_bm1000.c",line 423,column 2,is_stmt
    1271 0000012c 0A01-         INC       @_MeasCnt$1           ; [CPU_] |423| 
TMS320C2000 Assembler PC v6.2.5 Tue Nov 21 22:57:45 2017

Tools Copyright (c) 1996-2014 Texas Instruments Incorporated
C:\Users\wmj\AppData\Local\Temp\1055210                              PAGE   25

    1272 0000012d 9201-         MOV       AL,@_MeasCnt$1        ; [CPU_] |423| 
    1273 0000012e 520A          CMPB      AL,#10                ; [CPU_] |423| 
    1274 0000012f 680F          B         $C$L8,LO              ; [CPU_] |423| 
    1275                      ; branchcc occurs ; [] |423| 
    1276                      .dwpsn  file "D:/BM1000_v1.1/sw/solutions/instaspin/src/proj_bm1000.c",line 427,column 2,is_stmt
    1277 00000130 02D6          MOVB      ACC,#214              ; [CPU_] |427| 
    1278                      .dwpsn  file "D:/BM1000_v1.1/sw/solutions/instaspin/src/proj_bm1000.c",line 425,column 3,is_stmt
    1279 00000131 2B01-         MOV       @_MeasCnt$1,#0        ; [CPU_] |425| 
    1280                      .dwpsn  file "D:/BM1000_v1.1/sw/solutions/instaspin/src/proj_bm1000.c",line 427,column 2,is_stmt
    1281 00000132 07A4          ADDL      ACC,XAR4              ; [CPU_] |427| 
    1282 00000133 83A9          MOVL      XAR5,ACC              ; [CPU_] |427| 
    1283              $C$DW$189       .dwtag  DW_TAG_TI_branch
    1284                      .dwattr $C$DW$189, DW_AT_low_pc(0x00)
    1285                      .dwattr $C$DW$189, DW_AT_name("_PROCTRL_getChipTemperture")
    1286                      .dwattr $C$DW$189, DW_AT_TI_call
    1287 00000134 7640!         LCR       #_PROCTRL_getChipTemperture ; [CPU_] |427| 
         00000135 0000 
    1288                      ; call occurs [#_PROCTRL_getChipTemperture] ; [] |427| 
    1289 00000136 761F-         MOVW      DP,#_proctrlHandle    ; [CPU_U] 
         00000137 0000 
    1290                      .dwpsn  file "D:/BM1000_v1.1/sw/solutions/instaspin/src/proj_bm1000.c",line 428,column 2,is_stmt
    1291 00000138 8A06-         MOVL      XAR4,@_proctrlHandle  ; [CPU_] |428| 
    1292 00000139 02D6          MOVB      ACC,#214              ; [CPU_] |428| 
    1293 0000013a 07A4          ADDL      ACC,XAR4              ; [CPU_] |428| 
    1294 0000013b 83A9          MOVL      XAR5,ACC              ; [CPU_] |428| 
    1295              $C$DW$190       .dwtag  DW_TAG_TI_branch
    1296                      .dwattr $C$DW$190, DW_AT_low_pc(0x00)
    1297                      .dwattr $C$DW$190, DW_AT_name("_PROCTRL_getDCbusVoltage")
    1298                      .dwattr $C$DW$190, DW_AT_TI_call
    1299 0000013c 7640!         LCR       #_PROCTRL_getDCbusVoltage ; [CPU_] |428| 
         0000013d 0000 
    1300                      ; call occurs [#_PROCTRL_getDCbusVoltage] ; [] |428| 
    1301 0000013e       $C$L8:    
    1302 0000013e 761F-         MOVW      DP,#_proctrlHandle    ; [CPU_U] 
         0000013f 0000 
    1303                      .dwpsn  file "D:/BM1000_v1.1/sw/solutions/instaspin/src/proj_bm1000.c",line 433,column 3,is_stmt
    1304 00000140 8A06-         MOVL      XAR4,@_proctrlHandle  ; [CPU_] |433| 
    1305 00000141 02D6          MOVB      ACC,#214              ; [CPU_] |433| 
    1306 00000142 07A4          ADDL      ACC,XAR4              ; [CPU_] |433| 
    1307 00000143 83A9          MOVL      XAR5,ACC              ; [CPU_] |433| 
    1308              $C$DW$191       .dwtag  DW_TAG_TI_branch
    1309                      .dwattr $C$DW$191, DW_AT_low_pc(0x00)
    1310                      .dwattr $C$DW$191, DW_AT_name("_PROCTRL_getSensorData")
    1311                      .dwattr $C$DW$191, DW_AT_TI_call
    1312 00000144 7640!         LCR       #_PROCTRL_getSensorData ; [CPU_] |433| 
         00000145 0000 
    1313                      ; call occurs [#_PROCTRL_getSensorData] ; [] |433| 
    1314 00000146 FE84          SUBB      SP,#4                 ; [CPU_U] 
    1315                      .dwcfi  cfa_offset, -18
    1316 00000147 C5BE          MOVL      XAR7,*--SP            ; [CPU_] 
    1317                      .dwcfi  cfa_offset, -16
    1318                      .dwcfi  restore_reg, 18
    1319 00000148 C4BE          MOVL      XAR6,*--SP            ; [CPU_] 
    1320                      .dwcfi  cfa_offset, -14
    1321                      .dwcfi  restore_reg, 16
TMS320C2000 Assembler PC v6.2.5 Tue Nov 21 22:57:45 2017

Tools Copyright (c) 1996-2014 Texas Instruments Incorporated
C:\Users\wmj\AppData\Local\Temp\1055210                              PAGE   26

    1322 00000149 83BE          MOVL      XAR5,*--SP            ; [CPU_] 
    1323                      .dwcfi  cfa_offset, -12
    1324                      .dwcfi  restore_reg, 14
    1325 0000014a 8ABE          MOVL      XAR4,*--SP            ; [CPU_] 
    1326                      .dwcfi  cfa_offset, -10
    1327                      .dwcfi  restore_reg, 12
    1328 0000014b 82BE          MOVL      XAR3,*--SP            ; [CPU_] 
    1329                      .dwcfi  cfa_offset, -8
    1330                      .dwcfi  restore_reg, 10
    1331 0000014c 86BE          MOVL      XAR2,*--SP            ; [CPU_] 
    1332                      .dwcfi  cfa_offset, -6
    1333                      .dwcfi  restore_reg, 8
    1334 0000014d 87BE          MOVL      XT,*--SP              ; [CPU_] 
    1335                      .dwcfi  cfa_offset, -4
    1336                      .dwcfi  restore_reg, 22
    1337                      .dwcfi  restore_reg, 21
    1338 0000014e 0003          POP       AR1H:AR0H             ; [CPU_] 
    1339                      .dwcfi  cfa_offset, -2
    1340                      .dwcfi  restore_reg, 5
    1341                      .dwcfi  restore_reg, 7
    1342 0000014f 7617          NASP      ; [CPU_] 
    1343              $C$DW$192       .dwtag  DW_TAG_TI_branch
    1344                      .dwattr $C$DW$192, DW_AT_low_pc(0x00)
    1345                      .dwattr $C$DW$192, DW_AT_TI_return
    1346 00000150 7602          IRET      ; [CPU_] 
    1347                      ; return occurs ; [] 
    1348                      .dwattr $C$DW$164, DW_AT_TI_end_file("D:/BM1000_v1.1/sw/solutions/instaspin/src/proj_bm1000.c")
    1349                      .dwattr $C$DW$164, DW_AT_TI_end_line(0x1b5)
    1350                      .dwattr $C$DW$164, DW_AT_TI_end_column(0x01)
    1351                      .dwendentry
    1352                      .dwendtag $C$DW$164
    1353              
    1354 00000000               .sect   ".text"
    1355                      .clink
    1356                      .global _main
    1357              
    1358              $C$DW$193       .dwtag  DW_TAG_subprogram, DW_AT_name("main")
    1359                      .dwattr $C$DW$193, DW_AT_low_pc(_main)
    1360                      .dwattr $C$DW$193, DW_AT_high_pc(0x00)
    1361                      .dwattr $C$DW$193, DW_AT_TI_symbol_name("_main")
    1362                      .dwattr $C$DW$193, DW_AT_external
    1363                      .dwattr $C$DW$193, DW_AT_TI_begin_file("D:/BM1000_v1.1/sw/solutions/instaspin/src/proj_bm1000.c")
    1364                      .dwattr $C$DW$193, DW_AT_TI_begin_line(0x71)
    1365                      .dwattr $C$DW$193, DW_AT_TI_begin_column(0x06)
    1366                      .dwattr $C$DW$193, DW_AT_TI_max_frame_size(-12)
    1367                      .dwpsn  file "D:/BM1000_v1.1/sw/solutions/instaspin/src/proj_bm1000.c",line 114,column 1,is_stmt,addr
    1368              
    1369                      .dwfde $C$DW$CIE, _main
    1370              
    1371              ;***************************************************************
    1372              ;* FNAME: _main                         FR SIZE:  10           *
    1373              ;*                                                             *
    1374              ;* FUNCTION ENVIRONMENT                                        *
    1375              ;*                                                             *
    1376              ;* FUNCTION PROPERTIES                                         *
TMS320C2000 Assembler PC v6.2.5 Tue Nov 21 22:57:45 2017

Tools Copyright (c) 1996-2014 Texas Instruments Incorporated
C:\Users\wmj\AppData\Local\Temp\1055210                              PAGE   27

    1377              ;*                            2 Parameter,  4 Auto,  4 SOE     *
    1378              ;***************************************************************
    1379              
    1380              _main:
    1381              ;* AR4   assigned to $O$C9
    1382              ;* AR5   assigned to $O$C10
    1383              ;* AR4   assigned to $O$C11
    1384              ;* AR1   assigned to $O$K31
    1385              ;* AR7   assigned to $O$U17
    1386              ;* AR4   assigned to _obj
    1387              $C$DW$194       .dwtag  DW_TAG_variable, DW_AT_name("obj")
    1388                      .dwattr $C$DW$194, DW_AT_TI_symbol_name("_obj")
    1389                      .dwattr $C$DW$194, DW_AT_type(*$C$DW$T$274)
    1390                      .dwattr $C$DW$194, DW_AT_location[DW_OP_reg12]
    1391              ;* AR4   assigned to _pwmHandle
    1392              $C$DW$195       .dwtag  DW_TAG_variable, DW_AT_name("pwmHandle")
    1393                      .dwattr $C$DW$195, DW_AT_TI_symbol_name("_pwmHandle")
    1394                      .dwattr $C$DW$195, DW_AT_type(*$C$DW$T$140)
    1395                      .dwattr $C$DW$195, DW_AT_location[DW_OP_reg12]
    1396              ;* AR5   assigned to _pwmHandle
    1397              $C$DW$196       .dwtag  DW_TAG_variable, DW_AT_name("pwmHandle")
    1398                      .dwattr $C$DW$196, DW_AT_TI_symbol_name("_pwmHandle")
    1399                      .dwattr $C$DW$196, DW_AT_type(*$C$DW$T$140)
    1400                      .dwattr $C$DW$196, DW_AT_location[DW_OP_reg14]
    1401              ;* AR5   assigned to _pwmHandle
    1402              $C$DW$197       .dwtag  DW_TAG_variable, DW_AT_name("pwmHandle")
    1403                      .dwattr $C$DW$197, DW_AT_TI_symbol_name("_pwmHandle")
    1404                      .dwattr $C$DW$197, DW_AT_type(*$C$DW$T$140)
    1405                      .dwattr $C$DW$197, DW_AT_location[DW_OP_reg14]
    1406              ;* AR4   assigned to _obj
    1407              $C$DW$198       .dwtag  DW_TAG_variable, DW_AT_name("obj")
    1408                      .dwattr $C$DW$198, DW_AT_TI_symbol_name("_obj")
    1409                      .dwattr $C$DW$198, DW_AT_type(*$C$DW$T$274)
    1410                      .dwattr $C$DW$198, DW_AT_location[DW_OP_reg12]
    1411              ;* AR4   assigned to _pwmHandle
    1412              $C$DW$199       .dwtag  DW_TAG_variable, DW_AT_name("pwmHandle")
    1413                      .dwattr $C$DW$199, DW_AT_TI_symbol_name("_pwmHandle")
    1414                      .dwattr $C$DW$199, DW_AT_type(*$C$DW$T$140)
    1415                      .dwattr $C$DW$199, DW_AT_location[DW_OP_reg12]
    1416              ;* AR5   assigned to _pwmHandle
    1417              $C$DW$200       .dwtag  DW_TAG_variable, DW_AT_name("pwmHandle")
    1418                      .dwattr $C$DW$200, DW_AT_TI_symbol_name("_pwmHandle")
    1419                      .dwattr $C$DW$200, DW_AT_type(*$C$DW$T$140)
    1420                      .dwattr $C$DW$200, DW_AT_location[DW_OP_reg14]
    1421              ;* AR5   assigned to _pwmHandle
    1422              $C$DW$201       .dwtag  DW_TAG_variable, DW_AT_name("pwmHandle")
    1423                      .dwattr $C$DW$201, DW_AT_TI_symbol_name("_pwmHandle")
    1424                      .dwattr $C$DW$201, DW_AT_type(*$C$DW$T$140)
    1425                      .dwattr $C$DW$201, DW_AT_location[DW_OP_reg14]
    1426              ;* AR5   assigned to _pie
    1427              $C$DW$202       .dwtag  DW_TAG_variable, DW_AT_name("pie")
    1428                      .dwattr $C$DW$202, DW_AT_TI_symbol_name("_pie")
    1429                      .dwattr $C$DW$202, DW_AT_type(*$C$DW$T$281)
    1430                      .dwattr $C$DW$202, DW_AT_location[DW_OP_reg14]
    1431              ;* AL    assigned to _errorCode
TMS320C2000 Assembler PC v6.2.5 Tue Nov 21 22:57:45 2017

Tools Copyright (c) 1996-2014 Texas Instruments Incorporated
C:\Users\wmj\AppData\Local\Temp\1055210                              PAGE   28

    1432              $C$DW$203       .dwtag  DW_TAG_variable, DW_AT_name("errorCode")
    1433                      .dwattr $C$DW$203, DW_AT_TI_symbol_name("_errorCode")
    1434                      .dwattr $C$DW$203, DW_AT_type(*$C$DW$T$185)
    1435                      .dwattr $C$DW$203, DW_AT_location[DW_OP_reg0]
    1436              ;* AR2   assigned to _handle
    1437              $C$DW$204       .dwtag  DW_TAG_variable, DW_AT_name("handle")
    1438                      .dwattr $C$DW$204, DW_AT_TI_symbol_name("_handle")
    1439                      .dwattr $C$DW$204, DW_AT_type(*$C$DW$T$81)
    1440                      .dwattr $C$DW$204, DW_AT_location[DW_OP_reg8]
    1441              ;* AR4   assigned to $O$v1
    1442              ;* AR4   assigned to $O$v1
    1443              ;* AR5   assigned to $O$v1
    1444              ;* AR4   assigned to $O$v1
    1445              ;* AR5   assigned to $O$v1
    1446              ;* AR6   assigned to $O$v1
    1447              ;* AR4   assigned to $O$v2
    1448              ;* AR4   assigned to $O$v2
    1449              ;* AR4   assigned to $O$v3
    1450              ;* AR4   assigned to $O$v3
    1451              ;* AR4   assigned to $O$v3
    1452              $C$DW$205       .dwtag  DW_TAG_variable, DW_AT_name("version")
    1453                      .dwattr $C$DW$205, DW_AT_TI_symbol_name("_version")
    1454                      .dwattr $C$DW$205, DW_AT_type(*$C$DW$T$40)
    1455                      .dwattr $C$DW$205, DW_AT_location[DW_OP_breg20 -6]
    1456                      .dwcfi  cfa_offset, -2
    1457                      .dwcfi  save_reg_to_mem, 26, 0
    1458                      .dwcfi  save_reg_to_reg, 78, 26
    1459 00000000 B2BD          MOVL      *SP++,XAR1            ; [CPU_] 
    1460                      .dwcfi  save_reg_to_mem, 7, 2
    1461                      .dwcfi  cfa_offset, -4
    1462 00000001 AABD          MOVL      *SP++,XAR2            ; [CPU_] 
    1463                      .dwcfi  save_reg_to_mem, 9, 4
    1464                      .dwcfi  cfa_offset, -6
    1465 00000002 FE06          ADDB      SP,#6                 ; [CPU_U] 
    1466                      .dwcfi  cfa_offset, -12
    1467                      .dwpsn  file "D:/BM1000_v1.1/sw/solutions/instaspin/src/proj_bm1000.c",line 127,column 3,is_stmt
    1468 00000003 8F00!         MOVL      XAR4,#_RamfuncsRunStart ; [CPU_U] |127| 
         00000004 0000 
    1469 00000005 8F40!         MOVL      XAR5,#_RamfuncsLoadEnd ; [CPU_U] |127| 
         00000006 0000 
    1470 00000007 A842          MOVL      *-SP[2],XAR4          ; [CPU_] |127| 
    1471 00000008 8F00!         MOVL      XAR4,#_RamfuncsLoadStart ; [CPU_U] |127| 
         00000009 0000 
    1472              $C$DW$206       .dwtag  DW_TAG_TI_branch
    1473                      .dwattr $C$DW$206, DW_AT_low_pc(0x00)
    1474                      .dwattr $C$DW$206, DW_AT_name("_memCopy")
    1475                      .dwattr $C$DW$206, DW_AT_TI_call
    1476 0000000a 7640!         LCR       #_memCopy             ; [CPU_] |127| 
         0000000b 0000 
    1477                      ; call occurs [#_memCopy] ; [] |127| 
    1478                      .dwpsn  file "D:/BM1000_v1.1/sw/solutions/instaspin/src/proj_bm1000.c",line 145,column 3,is_stmt
    1479 0000000c 8F00!         MOVL      XAR4,#_hal            ; [CPU_U] |145| 
         0000000d 0000 
    1480 0000000e 02B4          MOVB      ACC,#180              ; [CPU_] |145| 
    1481              $C$DW$207       .dwtag  DW_TAG_TI_branch
TMS320C2000 Assembler PC v6.2.5 Tue Nov 21 22:57:45 2017

Tools Copyright (c) 1996-2014 Texas Instruments Incorporated
C:\Users\wmj\AppData\Local\Temp\1055210                              PAGE   29

    1482                      .dwattr $C$DW$207, DW_AT_low_pc(0x00)
    1483                      .dwattr $C$DW$207, DW_AT_name("_HAL_init")
    1484                      .dwattr $C$DW$207, DW_AT_TI_call
    1485 0000000f 7640!         LCR       #_HAL_init            ; [CPU_] |145| 
         00000010 0000 
    1486                      ; call occurs [#_HAL_init] ; [] |145| 
    1487 00000011 761F-         MOVW      DP,#_halHandle        ; [CPU_U] 
         00000012 0000 
    1488                      .dwpsn  file "D:/BM1000_v1.1/sw/solutions/instaspin/src/proj_bm1000.c",line 147,column 3,is_stmt
    1489 00000013 02FC          MOVB      ACC,#252              ; [CPU_] |147| 
    1490                      .dwpsn  file "D:/BM1000_v1.1/sw/solutions/instaspin/src/proj_bm1000.c",line 145,column 3,is_stmt
    1491 00000014 A802-         MOVL      @_halHandle,XAR4      ; [CPU_] |145| 
    1492                      .dwpsn  file "D:/BM1000_v1.1/sw/solutions/instaspin/src/proj_bm1000.c",line 147,column 3,is_stmt
    1493 00000015 8F00-         MOVL      XAR4,#_MyProcessCtrl  ; [CPU_U] |147| 
         00000016 0100 
    1494              $C$DW$208       .dwtag  DW_TAG_TI_branch
    1495                      .dwattr $C$DW$208, DW_AT_low_pc(0x00)
    1496                      .dwattr $C$DW$208, DW_AT_name("_PROCTRL_init")
    1497                      .dwattr $C$DW$208, DW_AT_TI_call
    1498 00000017 7640!         LCR       #_PROCTRL_init        ; [CPU_] |147| 
         00000018 0000 
    1499                      ; call occurs [#_PROCTRL_init] ; [] |147| 
    1500 00000019 761F-         MOVW      DP,#_proctrlHandle    ; [CPU_U] 
         0000001a 0000 
    1501                      .dwpsn  file "D:/BM1000_v1.1/sw/solutions/instaspin/src/proj_bm1000.c",line 148,column 3,is_stmt
    1502 0000001b D0AC          MOVB      XAR0,#172             ; [CPU_] |148| 
    1503                      .dwpsn  file "D:/BM1000_v1.1/sw/solutions/instaspin/src/proj_bm1000.c",line 147,column 3,is_stmt
    1504 0000001c A806-         MOVL      @_proctrlHandle,XAR4  ; [CPU_] |147| 
    1505                      .dwpsn  file "D:/BM1000_v1.1/sw/solutions/instaspin/src/proj_bm1000.c",line 148,column 3,is_stmt
    1506 0000001d 8A94          MOVL      XAR4,*+XAR4[AR0]      ; [CPU_] |148| 
    1507              $C$DW$209       .dwtag  DW_TAG_TI_branch
    1508                      .dwattr $C$DW$209, DW_AT_low_pc(0x00)
    1509                      .dwattr $C$DW$209, DW_AT_name("_MOTOR_CtrlVersion_Init")
    1510                      .dwattr $C$DW$209, DW_AT_TI_call
    1511 0000001e 7640!         LCR       #_MOTOR_CtrlVersion_Init ; [CPU_] |148| 
         0000001f 0000 
    1512                      ; call occurs [#_MOTOR_CtrlVersion_Init] ; [] |148| 
    1513                      .dwpsn  file "D:/BM1000_v1.1/sw/solutions/instaspin/src/proj_bm1000.c",line 156,column 3,is_stmt
    1514 00000020 D500          MOVB      XAR5,#0               ; [CPU_] |156| 
    1515 00000021 8F00-         MOVL      XAR4,#_ctrl           ; [CPU_U] |156| 
         00000022 0200 
    1516 00000023 FF20          MOV       ACC,#264              ; [CPU_] |156| 
         00000024 0108 
    1517              $C$DW$210       .dwtag  DW_TAG_TI_branch
    1518                      .dwattr $C$DW$210, DW_AT_low_pc(0x00)
    1519                      .dwattr $C$DW$210, DW_AT_name("_CTRL_initCtrl")
    1520                      .dwattr $C$DW$210, DW_AT_TI_call
    1521 00000025 7640!         LCR       #_CTRL_initCtrl       ; [CPU_] |156| 
         00000026 0000 
    1522                      ; call occurs [#_CTRL_initCtrl] ; [] |156| 
    1523 00000027 761F-         MOVW      DP,#_ctrlHandle       ; [CPU_U] 
         00000028 0000 
    1524                      .dwpsn  file "D:/BM1000_v1.1/sw/solutions/instaspin/src/proj_bm1000.c",line 164,column 5,is_stmt
    1525 00000029 5DAD          MOVZ      AR5,SP                ; [CPU_U] |164| 
    1526 0000002a DD86          SUBB      XAR5,#6               ; [CPU_U] |164| 
TMS320C2000 Assembler PC v6.2.5 Tue Nov 21 22:57:45 2017

Tools Copyright (c) 1996-2014 Texas Instruments Incorporated
C:\Users\wmj\AppData\Local\Temp\1055210                              PAGE   30

    1527                      .dwpsn  file "D:/BM1000_v1.1/sw/solutions/instaspin/src/proj_bm1000.c",line 156,column 3,is_stmt
    1528 0000002b A804-         MOVL      @_ctrlHandle,XAR4     ; [CPU_] |156| 
    1529                      .dwpsn  file "D:/BM1000_v1.1/sw/solutions/instaspin/src/proj_bm1000.c",line 164,column 5,is_stmt
    1530              $C$DW$211       .dwtag  DW_TAG_TI_branch
    1531                      .dwattr $C$DW$211, DW_AT_low_pc(0x00)
    1532                      .dwattr $C$DW$211, DW_AT_name("_CTRL_getVersion")
    1533                      .dwattr $C$DW$211, DW_AT_TI_call
    1534 0000002c 7640!         LCR       #_CTRL_getVersion     ; [CPU_] |164| 
         0000002d 0000 
    1535                      ; call occurs [#_CTRL_getVersion] ; [] |164| 
    1536 0000002e 761F-         MOVW      DP,#_proctrlHandle    ; [CPU_U] 
         0000002f 0000 
    1537                      .dwpsn  file "D:/BM1000_v1.1/sw/solutions/instaspin/src/proj_bm1000.c",line 165,column 5,is_stmt
    1538 00000030 8A06-         MOVL      XAR4,@_proctrlHandle  ; [CPU_] |165| 
    1539                      .dwpsn  file "D:/BM1000_v1.1/sw/drivers/drvic/motor.h",line 205,column 3,is_stmt
    1540 00000031 D0AC          MOVB      XAR0,#172             ; [CPU_] |205| 
    1541 00000032 8394          MOVL      XAR5,*+XAR4[AR0]      ; [CPU_] |205| 
    1542 00000033 80AD          MOVZ      AR7,SP                ; [CPU_U] |205| 
    1543 00000034 DF86          SUBB      XAR7,#6               ; [CPU_U] |205| 
    1544 00000035 DD15          ADDB      XAR5,#21              ; [CPU_] |205| 
    1545 00000036 F603          RPT       #3
    1546 00000037 2485  ||     PREAD     *XAR5++,*XAR7         ; [CPU_] |205| 
    1547                      .dwpsn  file "D:/BM1000_v1.1/sw/solutions/instaspin/src/proj_bm1000.c",line 169,column 3,is_stmt
    1548 00000038 8304-         MOVL      XAR5,@_ctrlHandle     ; [CPU_] |169| 
    1549              $C$DW$212       .dwtag  DW_TAG_TI_branch
    1550                      .dwattr $C$DW$212, DW_AT_low_pc(0x00)
    1551                      .dwattr $C$DW$212, DW_AT_name("_PROCTRL_setCtrlHandle")
    1552                      .dwattr $C$DW$212, DW_AT_TI_call
    1553 00000039 7640!         LCR       #_PROCTRL_setCtrlHandle ; [CPU_] |169| 
         0000003a 0000 
    1554                      ; call occurs [#_PROCTRL_setCtrlHandle] ; [] |169| 
    1555                      .dwpsn  file "D:/BM1000_v1.1/sw/solutions/instaspin/src/proj_bm1000.c",line 170,column 3,is_stmt
    1556 0000003b 8D40-         MOVL      XAR1,#_gUserParams    ; [CPU_U] |170| 
         0000003c 0040 
    1557 0000003d 761F-         MOVW      DP,#_proctrlHandle    ; [CPU_U] 
         0000003e 0000 
    1558 0000003f 83A1          MOVL      XAR5,XAR1             ; [CPU_] |170| 
    1559 00000040 8A06-         MOVL      XAR4,@_proctrlHandle  ; [CPU_] |170| 
    1560              $C$DW$213       .dwtag  DW_TAG_TI_branch
    1561                      .dwattr $C$DW$213, DW_AT_low_pc(0x00)
    1562                      .dwattr $C$DW$213, DW_AT_name("_PROCTRL_setUserParams")
    1563                      .dwattr $C$DW$213, DW_AT_TI_call
    1564 00000041 7640!         LCR       #_PROCTRL_setUserParams ; [CPU_] |170| 
         00000042 0000 
    1565                      ; call occurs [#_PROCTRL_setUserParams] ; [] |170| 
    1566 00000043 761F-         MOVW      DP,#_proctrlHandle    ; [CPU_U] 
         00000044 0000 
    1567                      .dwpsn  file "D:/BM1000_v1.1/sw/solutions/instaspin/src/proj_bm1000.c",line 171,column 3,is_stmt
    1568 00000045 8A06-         MOVL      XAR4,@_proctrlHandle  ; [CPU_] |171| 
    1569 00000046 8302-         MOVL      XAR5,@_halHandle      ; [CPU_] |171| 
    1570              $C$DW$214       .dwtag  DW_TAG_TI_branch
    1571                      .dwattr $C$DW$214, DW_AT_low_pc(0x00)
    1572                      .dwattr $C$DW$214, DW_AT_name("_PROCTRL_setHalHandle")
    1573                      .dwattr $C$DW$214, DW_AT_TI_call
    1574 00000047 7640!         LCR       #_PROCTRL_setHalHandle ; [CPU_] |171| 
TMS320C2000 Assembler PC v6.2.5 Tue Nov 21 22:57:45 2017

Tools Copyright (c) 1996-2014 Texas Instruments Incorporated
C:\Users\wmj\AppData\Local\Temp\1055210                              PAGE   31

         00000048 0000 
    1575                      ; call occurs [#_PROCTRL_setHalHandle] ; [] |171| 
    1576 00000049 761F-         MOVW      DP,#_proctrlHandle    ; [CPU_U] 
         0000004a 0000 
    1577                      .dwpsn  file "D:/BM1000_v1.1/sw/solutions/instaspin/src/proj_bm1000.c",line 174,column 3,is_stmt
    1578 0000004b 8A06-         MOVL      XAR4,@_proctrlHandle  ; [CPU_] |174| 
    1579              $C$DW$215       .dwtag  DW_TAG_TI_branch
    1580                      .dwattr $C$DW$215, DW_AT_low_pc(0x00)
    1581                      .dwattr $C$DW$215, DW_AT_name("_PROCTRL_setupFlyingStart")
    1582                      .dwattr $C$DW$215, DW_AT_TI_call
    1583 0000004c 7640!         LCR       #_PROCTRL_setupFlyingStart ; [CPU_] |174| 
         0000004d 0000 
    1584                      ; call occurs [#_PROCTRL_setupFlyingStart] ; [] |174| 
    1585 0000004e 761F-         MOVW      DP,#_proctrlHandle    ; [CPU_U] 
         0000004f 0000 
    1586                      .dwpsn  file "D:/BM1000_v1.1/sw/solutions/instaspin/src/proj_bm1000.c",line 177,column 3,is_stmt
    1587 00000050 8A06-         MOVL      XAR4,@_proctrlHandle  ; [CPU_] |177| 
    1588              $C$DW$216       .dwtag  DW_TAG_TI_branch
    1589                      .dwattr $C$DW$216, DW_AT_low_pc(0x00)
    1590                      .dwattr $C$DW$216, DW_AT_name("_PROCTRL_setupModbus")
    1591                      .dwattr $C$DW$216, DW_AT_TI_call
    1592 00000051 7640!         LCR       #_PROCTRL_setupModbus ; [CPU_] |177| 
         00000052 0000 
    1593                      ; call occurs [#_PROCTRL_setupModbus] ; [] |177| 
    1594 00000053 761F-         MOVW      DP,#_proctrlHandle    ; [CPU_U] 
         00000054 0000 
    1595                      .dwpsn  file "D:/BM1000_v1.1/sw/solutions/instaspin/src/proj_bm1000.c",line 178,column 3,is_stmt
    1596 00000055 8A06-         MOVL      XAR4,@_proctrlHandle  ; [CPU_] |178| 
    1597              $C$DW$217       .dwtag  DW_TAG_TI_branch
    1598                      .dwattr $C$DW$217, DW_AT_low_pc(0x00)
    1599                      .dwattr $C$DW$217, DW_AT_name("_PROCTRL_setupMotors")
    1600                      .dwattr $C$DW$217, DW_AT_TI_call
    1601 00000056 7640!         LCR       #_PROCTRL_setupMotors ; [CPU_] |178| 
         00000057 0000 
    1602                      ; call occurs [#_PROCTRL_setupMotors] ; [] |178| 
    1603 00000058 761F-         MOVW      DP,#_proctrlHandle    ; [CPU_U] 
         00000059 0000 
    1604                      .dwpsn  file "D:/BM1000_v1.1/sw/solutions/instaspin/src/proj_bm1000.c",line 179,column 3,is_stmt
    1605 0000005a 8A06-         MOVL      XAR4,@_proctrlHandle  ; [CPU_] |179| 
    1606              $C$DW$218       .dwtag  DW_TAG_TI_branch
    1607                      .dwattr $C$DW$218, DW_AT_low_pc(0x00)
    1608                      .dwattr $C$DW$218, DW_AT_name("_PROCTRL_setupFSM")
    1609                      .dwattr $C$DW$218, DW_AT_TI_call
    1610 0000005b 7640!         LCR       #_PROCTRL_setupFSM    ; [CPU_] |179| 
         0000005c 0000 
    1611                      ; call occurs [#_PROCTRL_setupFSM] ; [] |179| 
    1612                      .dwpsn  file "D:/BM1000_v1.1/sw/solutions/instaspin/src/proj_bm1000.c",line 183,column 3,is_stmt
    1613 0000005d 8AA1          MOVL      XAR4,XAR1             ; [CPU_] |183| 
    1614              $C$DW$219       .dwtag  DW_TAG_TI_branch
    1615                      .dwattr $C$DW$219, DW_AT_low_pc(0x00)
    1616                      .dwattr $C$DW$219, DW_AT_name("_USER_setSysParams")
    1617                      .dwattr $C$DW$219, DW_AT_TI_call
    1618 0000005e 7640!         LCR       #_USER_setSysParams   ; [CPU_] |183| 
         0000005f 0000 
    1619                      ; call occurs [#_USER_setSysParams] ; [] |183| 
TMS320C2000 Assembler PC v6.2.5 Tue Nov 21 22:57:45 2017

Tools Copyright (c) 1996-2014 Texas Instruments Incorporated
C:\Users\wmj\AppData\Local\Temp\1055210                              PAGE   32

    1620 00000060 761F-         MOVW      DP,#_halHandle        ; [CPU_U] 
         00000061 0000 
    1621                      .dwpsn  file "D:/BM1000_v1.1/sw/solutions/instaspin/src/proj_bm1000.c",line 185,column 3,is_stmt
    1622 00000062 83A1          MOVL      XAR5,XAR1             ; [CPU_] |185| 
    1623 00000063 8A02-         MOVL      XAR4,@_halHandle      ; [CPU_] |185| 
    1624              $C$DW$220       .dwtag  DW_TAG_TI_branch
    1625                      .dwattr $C$DW$220, DW_AT_low_pc(0x00)
    1626                      .dwattr $C$DW$220, DW_AT_name("_HAL_setParams")
    1627                      .dwattr $C$DW$220, DW_AT_TI_call
    1628 00000064 7640!         LCR       #_HAL_setParams       ; [CPU_] |185| 
         00000065 0000 
    1629                      ; call occurs [#_HAL_setParams] ; [] |185| 
    1630                      .dwpsn  file "D:/BM1000_v1.1/sw/solutions/instaspin/src/proj_bm1000.c",line 187,column 3,is_stmt
    1631 00000066 8AA1          MOVL      XAR4,XAR1             ; [CPU_] |187| 
    1632              $C$DW$221       .dwtag  DW_TAG_TI_branch
    1633                      .dwattr $C$DW$221, DW_AT_low_pc(0x00)
    1634                      .dwattr $C$DW$221, DW_AT_name("_USER_setParams")
    1635                      .dwattr $C$DW$221, DW_AT_TI_call
    1636 00000067 7640!         LCR       #_USER_setParams      ; [CPU_] |187| 
         00000068 0000 
    1637                      ; call occurs [#_USER_setParams] ; [] |187| 
    1638                      .dwpsn  file "D:/BM1000_v1.1/sw/solutions/instaspin/src/proj_bm1000.c",line 189,column 3,is_stmt
    1639 00000069 8AA1          MOVL      XAR4,XAR1             ; [CPU_] |189| 
    1640              $C$DW$222       .dwtag  DW_TAG_TI_branch
    1641                      .dwattr $C$DW$222, DW_AT_low_pc(0x00)
    1642                      .dwattr $C$DW$222, DW_AT_name("_USER_checkDefErrors")
    1643                      .dwattr $C$DW$222, DW_AT_TI_call
    1644 0000006a 7640!         LCR       #_USER_checkDefErrors ; [CPU_] |189| 
         0000006b 0000 
    1645                      ; call occurs [#_USER_checkDefErrors] ; [] |189| 
    1646 0000006c 761F-         MOVW      DP,#_halHandle        ; [CPU_U] 
         0000006d 0000 
    1647                      .dwpsn  file "D:/BM1000_v1.1/sw/solutions/instaspin/src/proj_bm1000.c",line 196,column 3,is_stmt
    1648 0000006e 8A02-         MOVL      XAR4,@_halHandle      ; [CPU_] |196| 
    1649 0000006f D0B2          MOVB      XAR0,#178             ; [CPU_] |196| 
    1650 00000070 9294          MOV       AL,*+XAR4[AR0]        ; [CPU_] |196| 
    1651 00000071 8AA1          MOVL      XAR4,XAR1             ; [CPU_] |196| 
    1652              $C$DW$223       .dwtag  DW_TAG_TI_branch
    1653                      .dwattr $C$DW$223, DW_AT_low_pc(0x00)
    1654                      .dwattr $C$DW$223, DW_AT_name("_USER_setMotorIDs")
    1655                      .dwattr $C$DW$223, DW_AT_TI_call
    1656 00000072 7640!         LCR       #_USER_setMotorIDs    ; [CPU_] |196| 
         00000073 0000 
    1657                      ; call occurs [#_USER_setMotorIDs] ; [] |196| 
    1658 00000074 761F-         MOVW      DP,#_halHandle        ; [CPU_U] 
         00000075 0000 
    1659                      .dwpsn  file "D:/BM1000_v1.1/sw/solutions/instaspin/src/proj_bm1000.c",line 198,column 3,is_stmt
    1660 00000076 8A02-         MOVL      XAR4,@_halHandle      ; [CPU_] |198| 
    1661 00000077 8306-         MOVL      XAR5,@_proctrlHandle  ; [CPU_] |198| 
    1662                      .dwpsn  file "D:/BM1000_v1.1/sw/drivers/drvic/modbus/mb.h",line 347,column 3,is_stmt
    1663 00000078 D0B2          MOVB      XAR0,#178             ; [CPU_] |347| 
    1664 00000079 9294          MOV       AL,*+XAR4[AR0]        ; [CPU_] |347| 
    1665 0000007a D03A          MOVB      XAR0,#58              ; [CPU_] |347| 
    1666 0000007b C495          MOVL      XAR6,*+XAR5[AR0]      ; [CPU_] |347| 
    1667 0000007c 9C11          ADDB      AL,#17                ; [CPU_] |347| 
TMS320C2000 Assembler PC v6.2.5 Tue Nov 21 22:57:45 2017

Tools Copyright (c) 1996-2014 Texas Instruments Incorporated
C:\Users\wmj\AppData\Local\Temp\1055210                              PAGE   33

    1668 0000007d D019          MOVB      XAR0,#25              ; [CPU_] |347| 
    1669 0000007e 9696          MOV       *+XAR6[AR0],AL        ; [CPU_] |347| 
    1670                      .dwpsn  file "D:/BM1000_v1.1/sw/drivers/drvic/motor.h",line 365,column 3,is_stmt
    1671 0000007f D0B2          MOVB      XAR0,#178             ; [CPU_] |365| 
    1672 00000080 9294          MOV       AL,*+XAR4[AR0]        ; [CPU_] |365| 
    1673 00000081 D0AC          MOVB      XAR0,#172             ; [CPU_] |365| 
    1674 00000082 8A95          MOVL      XAR4,*+XAR5[AR0]      ; [CPU_] |365| 
    1675 00000083 D06E          MOVB      XAR0,#110             ; [CPU_] |365| 
    1676 00000084 9694          MOV       *+XAR4[AR0],AL        ; [CPU_] |365| 
    1677                      .dwpsn  file "D:/BM1000_v1.1/sw/solutions/instaspin/src/proj_bm1000.c",line 203,column 3,is_stmt
    1678 00000085 8AA1          MOVL      XAR4,XAR1             ; [CPU_] |203| 
    1679              $C$DW$224       .dwtag  DW_TAG_TI_branch
    1680                      .dwattr $C$DW$224, DW_AT_low_pc(0x00)
    1681                      .dwattr $C$DW$224, DW_AT_name("_USER_setMotorParams")
    1682                      .dwattr $C$DW$224, DW_AT_TI_call
    1683 00000086 7640!         LCR       #_USER_setMotorParams ; [CPU_] |203| 
         00000087 0000 
    1684                      ; call occurs [#_USER_setMotorParams] ; [] |203| 
    1685                      .dwpsn  file "D:/BM1000_v1.1/sw/solutions/instaspin/src/proj_bm1000.c",line 205,column 3,is_stmt
    1686 00000088 8AA1          MOVL      XAR4,XAR1             ; [CPU_] |205| 
    1687              $C$DW$225       .dwtag  DW_TAG_TI_branch
    1688                      .dwattr $C$DW$225, DW_AT_low_pc(0x00)
    1689                      .dwattr $C$DW$225, DW_AT_name("_USER_setWaitTimeParams")
    1690                      .dwattr $C$DW$225, DW_AT_TI_call
    1691 00000089 7640!         LCR       #_USER_setWaitTimeParams ; [CPU_] |205| 
         0000008a 0000 
    1692                      ; call occurs [#_USER_setWaitTimeParams] ; [] |205| 
    1693                      .dwpsn  file "D:/BM1000_v1.1/sw/solutions/instaspin/src/proj_bm1000.c",line 208,column 3,is_stmt
    1694 0000008b 8AA1          MOVL      XAR4,XAR1             ; [CPU_] |208| 
    1695              $C$DW$226       .dwtag  DW_TAG_TI_branch
    1696                      .dwattr $C$DW$226, DW_AT_low_pc(0x00)
    1697                      .dwattr $C$DW$226, DW_AT_name("_USER_setBoardParams")
    1698                      .dwattr $C$DW$226, DW_AT_TI_call
    1699 0000008c 7640!         LCR       #_USER_setBoardParams ; [CPU_] |208| 
         0000008d 0000 
    1700                      ; call occurs [#_USER_setBoardParams] ; [] |208| 
    1701 0000008e 761F-         MOVW      DP,#_halHandle        ; [CPU_U] 
         0000008f 0000 
    1702                      .dwpsn  file "D:/BM1000_v1.1/sw/solutions/instaspin/src/proj_bm1000.c",line 211,column 3,is_stmt
    1703 00000090 83A1          MOVL      XAR5,XAR1             ; [CPU_] |211| 
    1704 00000091 8A02-         MOVL      XAR4,@_halHandle      ; [CPU_] |211| 
    1705              $C$DW$227       .dwtag  DW_TAG_TI_branch
    1706                      .dwattr $C$DW$227, DW_AT_low_pc(0x00)
    1707                      .dwattr $C$DW$227, DW_AT_name("_HAL_setupAdcParams")
    1708                      .dwattr $C$DW$227, DW_AT_TI_call
    1709 00000092 7640!         LCR       #_HAL_setupAdcParams  ; [CPU_] |211| 
         00000093 0000 
    1710                      ; call occurs [#_HAL_setupAdcParams] ; [] |211| 
    1711                      .dwpsn  file "D:/BM1000_v1.1/sw/solutions/instaspin/src/proj_bm1000.c",line 214,column 3,is_stmt
    1712 00000094 8AA1          MOVL      XAR4,XAR1             ; [CPU_] |214| 
    1713              $C$DW$228       .dwtag  DW_TAG_TI_branch
    1714                      .dwattr $C$DW$228, DW_AT_low_pc(0x00)
    1715                      .dwattr $C$DW$228, DW_AT_name("_USER_checkForErrors")
    1716                      .dwattr $C$DW$228, DW_AT_TI_call
    1717 00000095 7640!         LCR       #_USER_checkForErrors ; [CPU_] |214| 
TMS320C2000 Assembler PC v6.2.5 Tue Nov 21 22:57:45 2017

Tools Copyright (c) 1996-2014 Texas Instruments Incorporated
C:\Users\wmj\AppData\Local\Temp\1055210                              PAGE   34

         00000096 0000 
    1718                      ; call occurs [#_USER_checkForErrors] ; [] |214| 
    1719 00000097 761F-         MOVW      DP,#_proctrlHandle    ; [CPU_U] 
         00000098 0000 
    1720                      .dwpsn  file "D:/BM1000_v1.1/sw/solutions/instaspin/src/proj_bm1000.c",line 217,column 3,is_stmt
    1721 00000099 8A06-         MOVL      XAR4,@_proctrlHandle  ; [CPU_] |217| 
    1722 0000009a D0AC          MOVB      XAR0,#172             ; [CPU_] |217| 
    1723 0000009b 8694          MOVL      XAR2,*+XAR4[AR0]      ; [CPU_] |217| 
    1724 0000009c 8AA1          MOVL      XAR4,XAR1             ; [CPU_] |217| 
    1725              $C$DW$229       .dwtag  DW_TAG_TI_branch
    1726                      .dwattr $C$DW$229, DW_AT_low_pc(0x00)
    1727                      .dwattr $C$DW$229, DW_AT_name("_USER_getErrorCode")
    1728                      .dwattr $C$DW$229, DW_AT_TI_call
    1729 0000009d 7640!         LCR       #_USER_getErrorCode   ; [CPU_] |217| 
         0000009e 0000 
    1730                      ; call occurs [#_USER_getErrorCode] ; [] |217| 
    1731 0000009f 761F-         MOVW      DP,#_proctrlHandle    ; [CPU_U] 
         000000a0 0000 
    1732                      .dwpsn  file "D:/BM1000_v1.1/sw/drivers/drvic/motor.h",line 187,column 3,is_stmt
    1733 000000a1 D014          MOVB      XAR0,#20              ; [CPU_] |187| 
    1734                      .dwpsn  file "D:/BM1000_v1.1/sw/solutions/instaspin/src/proj_bm1000.c",line 219,column 3,is_stmt
    1735 000000a2 8A06-         MOVL      XAR4,@_proctrlHandle  ; [CPU_] |219| 
    1736 000000a3 83A1          MOVL      XAR5,XAR1             ; [CPU_] |219| 
    1737                      .dwpsn  file "D:/BM1000_v1.1/sw/drivers/drvic/motor.h",line 187,column 3,is_stmt
    1738 000000a4 9692          MOV       *+XAR2[AR0],AL        ; [CPU_] |187| 
    1739                      .dwpsn  file "D:/BM1000_v1.1/sw/solutions/instaspin/src/proj_bm1000.c",line 219,column 3,is_stmt
    1740 000000a5 D0AC          MOVB      XAR0,#172             ; [CPU_] |219| 
    1741 000000a6 8A94          MOVL      XAR4,*+XAR4[AR0]      ; [CPU_] |219| 
    1742              $C$DW$230       .dwtag  DW_TAG_TI_branch
    1743                      .dwattr $C$DW$230, DW_AT_low_pc(0x00)
    1744                      .dwattr $C$DW$230, DW_AT_name("_MOTOR_getMaxCurrent")
    1745                      .dwattr $C$DW$230, DW_AT_TI_call
    1746 000000a7 7640!         LCR       #_MOTOR_getMaxCurrent ; [CPU_] |219| 
         000000a8 0000 
    1747                      ; call occurs [#_MOTOR_getMaxCurrent] ; [] |219| 
    1748 000000a9 761F-         MOVW      DP,#_halHandle        ; [CPU_U] 
         000000aa 0000 
    1749                      .dwpsn  file "D:/BM1000_v1.1/sw/solutions/instaspin/src/proj_bm1000.c",line 229,column 3,is_stmt
    1750 000000ab 8A02-         MOVL      XAR4,@_halHandle      ; [CPU_] |229| 
    1751              $C$DW$231       .dwtag  DW_TAG_TI_branch
    1752                      .dwattr $C$DW$231, DW_AT_low_pc(0x00)
    1753                      .dwattr $C$DW$231, DW_AT_name("_HAL_setupFaults")
    1754                      .dwattr $C$DW$231, DW_AT_TI_call
    1755 000000ac 7640!         LCR       #_HAL_setupFaults     ; [CPU_] |229| 
         000000ad 0000 
    1756                      ; call occurs [#_HAL_setupFaults] ; [] |229| 
    1757 000000ae 761F-         MOVW      DP,#_halHandle        ; [CPU_U] 
         000000af 0000 
    1758                      .dwpsn  file "D:/BM1000_v1.1/sw/solutions/instaspin/src/proj_bm1000.c",line 232,column 3,is_stmt
    1759 000000b0 8A02-         MOVL      XAR4,@_halHandle      ; [CPU_] |232| 
    1760                      .dwpsn  file "D:/BM1000_v1.1/sw/modules/hal/boards/hvkit_rev1p1/f28x/f2802x/src/hal.h",line 514,colum
    1761 000000b1 D078          MOVB      XAR0,#120             ; [CPU_] |514| 
    1762 000000b2 8394          MOVL      XAR5,*+XAR4[AR0]      ; [CPU_] |514| 
    1763 000000b3 7622   EALLOW
    1764                      .dwpsn  file "D:/BM1000_v1.1/sw/modules/hal/boards/hvkit_rev1p1/f28x/f2802x/src/hal.h",line 520,colum
TMS320C2000 Assembler PC v6.2.5 Tue Nov 21 22:57:45 2017

Tools Copyright (c) 1996-2014 Texas Instruments Incorporated
C:\Users\wmj\AppData\Local\Temp\1055210                              PAGE   35

    1765 000000b4 D060          MOVB      XAR0,#96              ; [CPU_] |520| 
    1766 000000b5 7680+         MOVL      XAR6,#_mainISR        ; [CPU_U] |520| 
         000000b6 0000 
    1767 000000b7 C295          MOVL      *+XAR5[AR0],XAR6      ; [CPU_] |520| 
    1768                      .dwpsn  file "D:/BM1000_v1.1/sw/modules/hal/boards/hvkit_rev1p1/f28x/f2802x/src/hal.h",line 521,colum
    1769 000000b8 D0E0          MOVB      XAR0,#224             ; [CPU_] |521| 
    1770 000000b9 7680+         MOVL      XAR6,#_UART_RxISR     ; [CPU_U] |521| 
         000000ba 0027 
    1771 000000bb C295          MOVL      *+XAR5[AR0],XAR6      ; [CPU_] |521| 
    1772                      .dwpsn  file "D:/BM1000_v1.1/sw/modules/hal/boards/hvkit_rev1p1/f28x/f2802x/src/hal.h",line 522,colum
    1773 000000bc D0E2          MOVB      XAR0,#226             ; [CPU_] |522| 
    1774 000000bd 7680+         MOVL      XAR6,#_UART_TxReadyISR ; [CPU_U] |522| 
         000000be 0000 
    1775 000000bf C295          MOVL      *+XAR5[AR0],XAR6      ; [CPU_] |522| 
    1776 000000c0 761A   EDIS
    1777 000000c1 FF69          SPM       #0                    ; [CPU_] 
    1778                      .dwpsn  file "D:/BM1000_v1.1/sw/solutions/instaspin/src/proj_bm1000.c",line 235,column 3,is_stmt
    1779              $C$DW$232       .dwtag  DW_TAG_TI_branch
    1780                      .dwattr $C$DW$232, DW_AT_low_pc(0x00)
    1781                      .dwattr $C$DW$232, DW_AT_name("_HAL_enableAdcInts")
    1782                      .dwattr $C$DW$232, DW_AT_TI_call
    1783 000000c2 7640!         LCR       #_HAL_enableAdcInts   ; [CPU_] |235| 
         000000c3 0000 
    1784                      ; call occurs [#_HAL_enableAdcInts] ; [] |235| 
    1785 000000c4 761F-         MOVW      DP,#_halHandle        ; [CPU_U] 
         000000c5 0000 
    1786                      .dwpsn  file "D:/BM1000_v1.1/sw/solutions/instaspin/src/proj_bm1000.c",line 237,column 3,is_stmt
    1787 000000c6 8A02-         MOVL      XAR4,@_halHandle      ; [CPU_] |237| 
    1788              $C$DW$233       .dwtag  DW_TAG_TI_branch
    1789                      .dwattr $C$DW$233, DW_AT_low_pc(0x00)
    1790                      .dwattr $C$DW$233, DW_AT_name("_HAL_enableSciaInt")
    1791                      .dwattr $C$DW$233, DW_AT_TI_call
    1792 000000c7 7640!         LCR       #_HAL_enableSciaInt   ; [CPU_] |237| 
         000000c8 0000 
    1793                      ; call occurs [#_HAL_enableSciaInt] ; [] |237| 
    1794 000000c9 761F-         MOVW      DP,#_halHandle        ; [CPU_U] 
         000000ca 0000 
    1795                      .dwpsn  file "D:/BM1000_v1.1/sw/solutions/instaspin/src/proj_bm1000.c",line 239,column 3,is_stmt
    1796 000000cb 8F40+         MOVL      XAR5,#_Timer1ISR      ; [CPU_U] |239| 
         000000cc 0055 
    1797 000000cd 8A02-         MOVL      XAR4,@_halHandle      ; [CPU_] |239| 
    1798              $C$DW$234       .dwtag  DW_TAG_TI_branch
    1799                      .dwattr $C$DW$234, DW_AT_low_pc(0x00)
    1800                      .dwattr $C$DW$234, DW_AT_name("_HAL_enableTimer1Int")
    1801                      .dwattr $C$DW$234, DW_AT_TI_call
    1802 000000ce 7640!         LCR       #_HAL_enableTimer1Int ; [CPU_] |239| 
         000000cf 0000 
    1803                      ; call occurs [#_HAL_enableTimer1Int] ; [] |239| 
    1804 000000d0 761F-         MOVW      DP,#_halHandle        ; [CPU_U] 
         000000d1 0000 
    1805                      .dwpsn  file "D:/BM1000_v1.1/sw/solutions/instaspin/src/proj_bm1000.c",line 242,column 3,is_stmt
    1806 000000d2 8A02-         MOVL      XAR4,@_halHandle      ; [CPU_] |242| 
    1807              $C$DW$235       .dwtag  DW_TAG_TI_branch
    1808                      .dwattr $C$DW$235, DW_AT_low_pc(0x00)
    1809                      .dwattr $C$DW$235, DW_AT_name("_HAL_enableGlobalInts")
TMS320C2000 Assembler PC v6.2.5 Tue Nov 21 22:57:45 2017

Tools Copyright (c) 1996-2014 Texas Instruments Incorporated
C:\Users\wmj\AppData\Local\Temp\1055210                              PAGE   36

    1810                      .dwattr $C$DW$235, DW_AT_TI_call
    1811 000000d3 7640!         LCR       #_HAL_enableGlobalInts ; [CPU_] |242| 
         000000d4 0000 
    1812                      ; call occurs [#_HAL_enableGlobalInts] ; [] |242| 
    1813 000000d5 761F-         MOVW      DP,#_halHandle        ; [CPU_U] 
         000000d6 0000 
    1814                      .dwpsn  file "D:/BM1000_v1.1/sw/solutions/instaspin/src/proj_bm1000.c",line 245,column 3,is_stmt
    1815 000000d7 8A02-         MOVL      XAR4,@_halHandle      ; [CPU_] |245| 
    1816              $C$DW$236       .dwtag  DW_TAG_TI_branch
    1817                      .dwattr $C$DW$236, DW_AT_low_pc(0x00)
    1818                      .dwattr $C$DW$236, DW_AT_name("_HAL_enableDebugInt")
    1819                      .dwattr $C$DW$236, DW_AT_TI_call
    1820 000000d8 7640!         LCR       #_HAL_enableDebugInt  ; [CPU_] |245| 
         000000d9 0000 
    1821                      ; call occurs [#_HAL_enableDebugInt] ; [] |245| 
    1822 000000da 761F-         MOVW      DP,#_halHandle        ; [CPU_U] 
         000000db 0000 
    1823                      .dwpsn  file "D:/BM1000_v1.1/sw/modules/hal/boards/hvkit_rev1p1/f28x/f2802x/src/hal.h",line 288,colum
    1824 000000dc 8A02-         MOVL      XAR4,@_halHandle      ; [CPU_] |288| 
    1825                      .dwpsn  file "D:/BM1000_v1.1/sw/modules/hal/boards/hvkit_rev1p1/f28x/f2802x/src/hal.h",line 290,colum
    1826 000000dd DC7C          ADDB      XAR4,#124             ; [CPU_] |290| 
    1827 000000de 83C4          MOVL      XAR5,*+XAR4[0]        ; [CPU_] |290| 
    1828 000000df 7622   EALLOW
    1829                      .dwpsn  file "D:/BM1000_v1.1/sw/drivers/pwm/src/32b/f28x/f2802x/pwm.h",line 1567,column 5,is_stmt
    1830 000000e0 DD18          ADDB      XAR5,#24              ; [CPU_] |1567| 
    1831 000000e1 1AC5          OR        *+XAR5[0],#0x0004     ; [CPU_] |1567| 
         000000e2 0004 
    1832 000000e3 761A   EDIS
    1833                      .dwpsn  file "D:/BM1000_v1.1/sw/modules/hal/boards/hvkit_rev1p1/f28x/f2802x/src/hal.h",line 291,colum
    1834 000000e4 83D4          MOVL      XAR5,*+XAR4[2]        ; [CPU_] |291| 
    1835 000000e5 7622   EALLOW
    1836                      .dwpsn  file "D:/BM1000_v1.1/sw/drivers/pwm/src/32b/f28x/f2802x/pwm.h",line 1567,column 5,is_stmt
    1837 000000e6 DD18          ADDB      XAR5,#24              ; [CPU_] |1567| 
    1838 000000e7 1AC5          OR        *+XAR5[0],#0x0004     ; [CPU_] |1567| 
         000000e8 0004 
    1839 000000e9 761A   EDIS
    1840                      .dwpsn  file "D:/BM1000_v1.1/sw/modules/hal/boards/hvkit_rev1p1/f28x/f2802x/src/hal.h",line 292,colum
    1841 000000ea 8AE4          MOVL      XAR4,*+XAR4[4]        ; [CPU_] |292| 
    1842 000000eb 7622   EALLOW
    1843                      .dwpsn  file "D:/BM1000_v1.1/sw/drivers/pwm/src/32b/f28x/f2802x/pwm.h",line 1567,column 5,is_stmt
    1844 000000ec DC18          ADDB      XAR4,#24              ; [CPU_] |1567| 
    1845 000000ed 1AC4          OR        *+XAR4[0],#0x0004     ; [CPU_] |1567| 
         000000ee 0004 
    1846 000000ef 761A   EDIS
    1847 000000f0       $C$L9:    
    1848 000000f0 761F-         MOVW      DP,#_halHandle        ; [CPU_U] 
         000000f1 0000 
    1849                      .dwpsn  file "D:/BM1000_v1.1/sw/modules/hal/boards/hvkit_rev1p1/f28x/f2802x/src/hal.h",line 821,colum
    1850 000000f2 8A02-         MOVL      XAR4,@_halHandle      ; [CPU_] |821| 
    1851 000000f3 D008          MOVB      XAR0,#8               ; [CPU_] |821| 
    1852 000000f4 9A21          MOVB      AL,#33                ; [CPU_] |821| 
    1853 000000f5 FF69          SPM       #0                    ; [CPU_] 
    1854 000000f6 8A94          MOVL      XAR4,*+XAR4[AR0]      ; [CPU_] |821| 
    1855              $C$DW$237       .dwtag  DW_TAG_TI_branch
    1856                      .dwattr $C$DW$237, DW_AT_low_pc(0x00)
TMS320C2000 Assembler PC v6.2.5 Tue Nov 21 22:57:45 2017

Tools Copyright (c) 1996-2014 Texas Instruments Incorporated
C:\Users\wmj\AppData\Local\Temp\1055210                              PAGE   37

    1857                      .dwattr $C$DW$237, DW_AT_name("_GPIO_read")
    1858                      .dwattr $C$DW$237, DW_AT_TI_call
    1859 000000f7 7640!         LCR       #_GPIO_read           ; [CPU_] |821| 
         000000f8 0000 
    1860                      ; call occurs [#_GPIO_read] ; [] |821| 
    1861 000000f9 5200          CMPB      AL,#0                 ; [CPU_] |821| 
    1862 000000fa EDF6          BF        $C$L9,NEQ             ; [CPU_] |821| 
    1863                      ; branchcc occurs ; [] |821| 
    1864 000000fb 761F-         MOVW      DP,#_halHandle        ; [CPU_U] 
         000000fc 0000 
    1865                      .dwpsn  file "D:/BM1000_v1.1/sw/modules/hal/boards/hvkit_rev1p1/f28x/f2802x/src/hal.h",line 853,colum
    1866 000000fd 8A02-         MOVL      XAR4,@_halHandle      ; [CPU_] |853| 
    1867 000000fe D008          MOVB      XAR0,#8               ; [CPU_] |853| 
    1868 000000ff 9A20          MOVB      AL,#32                ; [CPU_] |853| 
    1869 00000100 8A94          MOVL      XAR4,*+XAR4[AR0]      ; [CPU_] |853| 
    1870              $C$DW$238       .dwtag  DW_TAG_TI_branch
    1871                      .dwattr $C$DW$238, DW_AT_low_pc(0x00)
    1872                      .dwattr $C$DW$238, DW_AT_name("_GPIO_setLow")
    1873                      .dwattr $C$DW$238, DW_AT_TI_call
    1874 00000101 7640!         LCR       #_GPIO_setLow         ; [CPU_] |853| 
         00000102 0000 
    1875                      ; call occurs [#_GPIO_setLow] ; [] |853| 
    1876 00000103 761F-         MOVW      DP,#_halHandle        ; [CPU_U] 
         00000104 0000 
    1877 00000105 8A02-         MOVL      XAR4,@_halHandle      ; [CPU_] |853| 
    1878 00000106 D008          MOVB      XAR0,#8               ; [CPU_] |853| 
    1879 00000107 9A12          MOVB      AL,#18                ; [CPU_] |853| 
    1880 00000108 8A94          MOVL      XAR4,*+XAR4[AR0]      ; [CPU_] |853| 
    1881              $C$DW$239       .dwtag  DW_TAG_TI_branch
    1882                      .dwattr $C$DW$239, DW_AT_low_pc(0x00)
    1883                      .dwattr $C$DW$239, DW_AT_name("_GPIO_setLow")
    1884                      .dwattr $C$DW$239, DW_AT_TI_call
    1885 00000109 7640!         LCR       #_GPIO_setLow         ; [CPU_] |853| 
         0000010a 0000 
    1886                      ; call occurs [#_GPIO_setLow] ; [] |853| 
    1887                      .dwpsn  file "D:/BM1000_v1.1/sw/solutions/instaspin/src/proj_bm1000.c",line 255,column 3,is_stmt
    1888 0000010b FF20          MOV       ACC,#1198             ; [CPU_] |255| 
         0000010c 04AE 
    1889              $C$DW$240       .dwtag  DW_TAG_TI_branch
    1890                      .dwattr $C$DW$240, DW_AT_low_pc(0x00)
    1891                      .dwattr $C$DW$240, DW_AT_name("_usDelay")
    1892                      .dwattr $C$DW$240, DW_AT_TI_call
    1893 0000010d 7640!         LCR       #_usDelay             ; [CPU_] |255| 
         0000010e 0000 
    1894                      ; call occurs [#_usDelay] ; [] |255| 
    1895 0000010f 761F-         MOVW      DP,#_halHandle        ; [CPU_U] 
         00000110 0000 
    1896                      .dwpsn  file "D:/BM1000_v1.1/sw/modules/hal/boards/hvkit_rev1p1/f28x/f2802x/src/hal.h",line 807,colum
    1897 00000111 8A02-         MOVL      XAR4,@_halHandle      ; [CPU_] |807| 
    1898 00000112 D008          MOVB      XAR0,#8               ; [CPU_] |807| 
    1899 00000113 9A12          MOVB      AL,#18                ; [CPU_] |807| 
    1900 00000114 8A94          MOVL      XAR4,*+XAR4[AR0]      ; [CPU_] |807| 
    1901              $C$DW$241       .dwtag  DW_TAG_TI_branch
    1902                      .dwattr $C$DW$241, DW_AT_low_pc(0x00)
    1903                      .dwattr $C$DW$241, DW_AT_name("_GPIO_setHigh")
TMS320C2000 Assembler PC v6.2.5 Tue Nov 21 22:57:45 2017

Tools Copyright (c) 1996-2014 Texas Instruments Incorporated
C:\Users\wmj\AppData\Local\Temp\1055210                              PAGE   38

    1904                      .dwattr $C$DW$241, DW_AT_TI_call
    1905 00000115 7640!         LCR       #_GPIO_setHigh        ; [CPU_] |807| 
         00000116 0000 
    1906                      ; call occurs [#_GPIO_setHigh] ; [] |807| 
    1907 00000117 761F-         MOVW      DP,#_proctrlHandle    ; [CPU_U] 
         00000118 0000 
    1908 00000119 C406-         MOVL      XAR6,@_proctrlHandle  ; [CPU_] 
    1909 0000011a 6F16          B         $C$L11,UNC            ; [CPU_] 
    1910                      ; branch occurs ; [] 
    1911 0000011b       $C$L10:    
    1912                      .dwpsn  file "D:/BM1000_v1.1/sw/modules/hal/boards/hvkit_rev1p1/f28x/f2802x/src/hal.h",line 288,colum
    1913 0000011b 8A02-         MOVL      XAR4,@_halHandle      ; [CPU_] |288| 
    1914                      .dwpsn  file "D:/BM1000_v1.1/sw/modules/hal/boards/hvkit_rev1p1/f28x/f2802x/src/hal.h",line 290,colum
    1915 0000011c DC7C          ADDB      XAR4,#124             ; [CPU_] |290| 
    1916 0000011d 83C4          MOVL      XAR5,*+XAR4[0]        ; [CPU_] |290| 
    1917 0000011e 7622   EALLOW
    1918                      .dwpsn  file "D:/BM1000_v1.1/sw/drivers/pwm/src/32b/f28x/f2802x/pwm.h",line 1567,column 5,is_stmt
    1919 0000011f DD18          ADDB      XAR5,#24              ; [CPU_] |1567| 
    1920 00000120 1AC5          OR        *+XAR5[0],#0x0004     ; [CPU_] |1567| 
         00000121 0004 
    1921 00000122 761A   EDIS
    1922                      .dwpsn  file "D:/BM1000_v1.1/sw/modules/hal/boards/hvkit_rev1p1/f28x/f2802x/src/hal.h",line 291,colum
    1923 00000123 83D4          MOVL      XAR5,*+XAR4[2]        ; [CPU_] |291| 
    1924 00000124 7622   EALLOW
    1925                      .dwpsn  file "D:/BM1000_v1.1/sw/drivers/pwm/src/32b/f28x/f2802x/pwm.h",line 1567,column 5,is_stmt
    1926 00000125 DD18          ADDB      XAR5,#24              ; [CPU_] |1567| 
    1927 00000126 1AC5          OR        *+XAR5[0],#0x0004     ; [CPU_] |1567| 
         00000127 0004 
    1928 00000128 761A   EDIS
    1929                      .dwpsn  file "D:/BM1000_v1.1/sw/modules/hal/boards/hvkit_rev1p1/f28x/f2802x/src/hal.h",line 292,colum
    1930 00000129 8AE4          MOVL      XAR4,*+XAR4[4]        ; [CPU_] |292| 
    1931 0000012a 7622   EALLOW
    1932                      .dwpsn  file "D:/BM1000_v1.1/sw/drivers/pwm/src/32b/f28x/f2802x/pwm.h",line 1567,column 5,is_stmt
    1933 0000012b DC18          ADDB      XAR4,#24              ; [CPU_] |1567| 
    1934 0000012c 1AC4          OR        *+XAR4[0],#0x0004     ; [CPU_] |1567| 
         0000012d 0004 
    1935 0000012e 761A   EDIS
    1936                      .dwpsn  file "D:/BM1000_v1.1/sw/solutions/instaspin/src/proj_bm1000.c",line 334,column 2,is_stmt
    1937 0000012f 2BCF          MOV       *+XAR7[1],#0          ; [CPU_] |334| 
    1938 00000130       $C$L11:    
    1939                      .dwpsn  file "D:/BM1000_v1.1/sw/drivers/drvic/motor.h",line 532,column 3,is_stmt
    1940 00000130 D0AC          MOVB      XAR0,#172             ; [CPU_] |532| 
    1941 00000131 8A96          MOVL      XAR4,*+XAR6[AR0]      ; [CPU_] |532| 
    1942 00000132 92C4          MOV       AL,*+XAR4[0]          ; [CPU_] |532| 
    1943 00000133 EC60          BF        $C$L14,EQ             ; [CPU_] |532| 
    1944                      ; branchcc occurs ; [] |532| 
    1945                      .dwpsn  file "D:/BM1000_v1.1/sw/modules/ctrl/src/32b/ctrl.h",line 1283,column 3,is_stmt
    1946 00000134 8A04-         MOVL      XAR4,@_ctrlHandle     ; [CPU_] |1283| 
    1947 00000135 D0F1          MOVB      XAR0,#241             ; [CPU_] |1283| 
    1948 00000136 FF69          SPM       #0                    ; [CPU_] 
    1949 00000137 56BF          MOVB      *+XAR4[AR0],#1,UNC    ; [CPU_] |1283| 
         00000138 0194 
    1950                      .dwpsn  file "D:/BM1000_v1.1/sw/solutions/instaspin/src/proj_bm1000.c",line 281,column 3,is_stmt
    1951 00000139 D0D4          MOVB      XAR0,#212             ; [CPU_] |281| 
    1952 0000013a 8A96          MOVL      XAR4,*+XAR6[AR0]      ; [CPU_] |281| 
TMS320C2000 Assembler PC v6.2.5 Tue Nov 21 22:57:45 2017

Tools Copyright (c) 1996-2014 Texas Instruments Incorporated
C:\Users\wmj\AppData\Local\Temp\1055210                              PAGE   39

    1953              $C$DW$242       .dwtag  DW_TAG_TI_branch
    1954                      .dwattr $C$DW$242, DW_AT_low_pc(0x00)
    1955                      .dwattr $C$DW$242, DW_AT_name("_FSM_getPortStatus")
    1956                      .dwattr $C$DW$242, DW_AT_TI_call
    1957 0000013b 7640!         LCR       #_FSM_getPortStatus   ; [CPU_] |281| 
         0000013c 0000 
    1958                      ; call occurs [#_FSM_getPortStatus] ; [] |281| 
    1959 0000013d 761F-         MOVW      DP,#_proctrlHandle    ; [CPU_U] 
         0000013e 0000 
    1960                      .dwpsn  file "D:/BM1000_v1.1/sw/solutions/instaspin/src/proj_bm1000.c",line 283,column 3,is_stmt
    1961 0000013f 8A06-         MOVL      XAR4,@_proctrlHandle  ; [CPU_] |283| 
    1962 00000140 D0D4          MOVB      XAR0,#212             ; [CPU_] |283| 
    1963 00000141 8A94          MOVL      XAR4,*+XAR4[AR0]      ; [CPU_] |283| 
    1964              $C$DW$243       .dwtag  DW_TAG_TI_branch
    1965                      .dwattr $C$DW$243, DW_AT_low_pc(0x00)
    1966                      .dwattr $C$DW$243, DW_AT_name("_FSM_ParamInit")
    1967                      .dwattr $C$DW$243, DW_AT_TI_call
    1968 00000142 7640!         LCR       #_FSM_ParamInit       ; [CPU_] |283| 
         00000143 0000 
    1969                      ; call occurs [#_FSM_ParamInit] ; [] |283| 
    1970 00000144 761F-         MOVW      DP,#_proctrlHandle    ; [CPU_U] 
         00000145 0000 
    1971                      .dwpsn  file "D:/BM1000_v1.1/sw/solutions/instaspin/src/proj_bm1000.c",line 286,column 3,is_stmt
    1972 00000146 8A06-         MOVL      XAR4,@_proctrlHandle  ; [CPU_] |286| 
    1973                      .dwpsn  file "D:/BM1000_v1.1/sw/drivers/drvic/motor.h",line 572,column 3,is_stmt
    1974 00000147 D0AC          MOVB      XAR0,#172             ; [CPU_] |572| 
    1975 00000148 8394          MOVL      XAR5,*+XAR4[AR0]      ; [CPU_] |572| 
    1976 00000149 D011          MOVB      XAR0,#17              ; [CPU_] |572| 
    1977 0000014a 9295          MOV       AL,*+XAR5[AR0]        ; [CPU_] |572| 
    1978                      .dwpsn  file "D:/BM1000_v1.1/sw/drivers/drvic/motor.h",line 478,column 3,is_stmt
    1979 0000014b 56B1          MOVB      *+XAR5[6],#1,EQ       ; [CPU_] |478| 
         0000014c 01F5 
    1980                      .dwpsn  file "D:/BM1000_v1.1/sw/drivers/drvic/motor.h",line 480,column 3,is_stmt
    1981 0000014d EC04          BF        $C$L12,EQ             ; [CPU_] |480| 
    1982                      ; branchcc occurs ; [] |480| 
    1983                      .dwpsn  file "D:/BM1000_v1.1/sw/drivers/drvic/motor.h",line 487,column 3,is_stmt
    1984 0000014e D0AC          MOVB      XAR0,#172             ; [CPU_] |487| 
    1985 0000014f 8394          MOVL      XAR5,*+XAR4[AR0]      ; [CPU_] |487| 
    1986 00000150 2BF5          MOV       *+XAR5[6],#0          ; [CPU_] |487| 
    1987 00000151       $C$L12:    
    1988                      .dwpsn  file "D:/BM1000_v1.1/sw/solutions/instaspin/src/proj_bm1000.c",line 295,column 3,is_stmt
    1989 00000151 83A1          MOVL      XAR5,XAR1             ; [CPU_] |295| 
    1990              $C$DW$244       .dwtag  DW_TAG_TI_branch
    1991                      .dwattr $C$DW$244, DW_AT_low_pc(0x00)
    1992                      .dwattr $C$DW$244, DW_AT_name("_PROCTRL_getScaleActors")
    1993                      .dwattr $C$DW$244, DW_AT_TI_call
    1994 00000152 7640!         LCR       #_PROCTRL_getScaleActors ; [CPU_] |295| 
         00000153 0000 
    1995                      ; call occurs [#_PROCTRL_getScaleActors] ; [] |295| 
    1996 00000154 761F-         MOVW      DP,#_ctrlHandle       ; [CPU_U] 
         00000155 0000 
    1997                      .dwpsn  file "D:/BM1000_v1.1/sw/solutions/instaspin/src/proj_bm1000.c",line 298,column 3,is_stmt
    1998 00000156 83A1          MOVL      XAR5,XAR1             ; [CPU_] |298| 
    1999 00000157 8A04-         MOVL      XAR4,@_ctrlHandle     ; [CPU_] |298| 
    2000              $C$DW$245       .dwtag  DW_TAG_TI_branch
TMS320C2000 Assembler PC v6.2.5 Tue Nov 21 22:57:45 2017

Tools Copyright (c) 1996-2014 Texas Instruments Incorporated
C:\Users\wmj\AppData\Local\Temp\1055210                              PAGE   40

    2001                      .dwattr $C$DW$245, DW_AT_low_pc(0x00)
    2002                      .dwattr $C$DW$245, DW_AT_name("_CTRL_setParams")
    2003                      .dwattr $C$DW$245, DW_AT_TI_call
    2004 00000158 7640!         LCR       #_CTRL_setParams      ; [CPU_] |298| 
         00000159 0000 
    2005                      ; call occurs [#_CTRL_setParams] ; [] |298| 
    2006 0000015a 761F-         MOVW      DP,#_proctrlHandle    ; [CPU_U] 
         0000015b 0000 
    2007                      .dwpsn  file "D:/BM1000_v1.1/sw/solutions/instaspin/src/proj_bm1000.c",line 300,column 3,is_stmt
    2008 0000015c 8A06-         MOVL      XAR4,@_proctrlHandle  ; [CPU_] |300| 
    2009              $C$DW$246       .dwtag  DW_TAG_TI_branch
    2010                      .dwattr $C$DW$246, DW_AT_low_pc(0x00)
    2011                      .dwattr $C$DW$246, DW_AT_name("_PROCTRL_setDcBrakeCurrent")
    2012                      .dwattr $C$DW$246, DW_AT_TI_call
    2013 0000015d 7640!         LCR       #_PROCTRL_setDcBrakeCurrent ; [CPU_] |300| 
         0000015e 0000 
    2014                      ; call occurs [#_PROCTRL_setDcBrakeCurrent] ; [] |300| 
    2015 0000015f 761F-         MOVW      DP,#_proctrlHandle    ; [CPU_U] 
         00000160 0000 
    2016                      .dwpsn  file "D:/BM1000_v1.1/sw/solutions/instaspin/src/proj_bm1000.c",line 303,column 3,is_stmt
    2017 00000161 8306-         MOVL      XAR5,@_proctrlHandle  ; [CPU_] |303| 
    2018                      .dwpsn  file "D:/BM1000_v1.1/sw/modules/ctrl/src/32b/ctrl.h",line 1804,column 3,is_stmt
    2019 00000162 D0AC          MOVB      XAR0,#172             ; [CPU_] |1804| 
    2020 00000163 C495          MOVL      XAR6,*+XAR5[AR0]      ; [CPU_] |1804| 
    2021                      .dwpsn  file "D:/BM1000_v1.1/sw/solutions/instaspin/src/proj_bm1000.c",line 303,column 3,is_stmt
    2022 00000164 8A04-         MOVL      XAR4,@_ctrlHandle     ; [CPU_] |303| 
    2023                      .dwpsn  file "D:/BM1000_v1.1/sw/modules/ctrl/src/32b/ctrl.h",line 1804,column 3,is_stmt
    2024 00000165 D022          MOVB      XAR0,#34              ; [CPU_] |1804| 
    2025 00000166 0696          MOVL      ACC,*+XAR6[AR0]       ; [CPU_] |1804| 
    2026 00000167 D0F8          MOVB      XAR0,#248             ; [CPU_] |1804| 
    2027 00000168 1E94          MOVL      *+XAR4[AR0],ACC       ; [CPU_] |1804| 
    2028                      .dwpsn  file "D:/BM1000_v1.1/sw/modules/ctrl/src/32b/ctrl.h",line 1325,column 3,is_stmt
    2029 00000169 D0F4          MOVB      XAR0,#244             ; [CPU_] |1325| 
    2030 0000016a 56BF          MOVB      *+XAR4[AR0],#1,UNC    ; [CPU_] |1325| 
         0000016b 0194 
    2031                      .dwpsn  file "D:/BM1000_v1.1/sw/modules/ctrl/src/32b/ctrl.h",line 1341,column 3,is_stmt
    2032 0000016c D0AC          MOVB      XAR0,#172             ; [CPU_] |1341| 
    2033 0000016d C495          MOVL      XAR6,*+XAR5[AR0]      ; [CPU_] |1341| 
    2034 0000016e D0F5          MOVB      XAR0,#245             ; [CPU_] |1341| 
    2035 0000016f 92F6          MOV       AL,*+XAR6[6]          ; [CPU_] |1341| 
    2036 00000170 9694          MOV       *+XAR4[AR0],AL        ; [CPU_] |1341| 
    2037                      .dwpsn  file "D:/BM1000_v1.1/sw/solutions/instaspin/src/proj_bm1000.c",line 317,column 3,is_stmt
    2038 00000171 D018          MOVB      XAR0,#24              ; [CPU_] |317| 
    2039 00000172 8A94          MOVL      XAR4,*+XAR4[AR0]      ; [CPU_] |317| 
    2040 00000173 D0AC          MOVB      XAR0,#172             ; [CPU_] |317| 
    2041 00000174 8395          MOVL      XAR5,*+XAR5[AR0]      ; [CPU_] |317| 
    2042 00000175 92ED          MOV       AL,*+XAR5[5]          ; [CPU_] |317| 
    2043              $C$DW$247       .dwtag  DW_TAG_TI_branch
    2044                      .dwattr $C$DW$247, DW_AT_low_pc(0x00)
    2045                      .dwattr $C$DW$247, DW_AT_name("_EST_setFlag_enableRsRecalc")
    2046                      .dwattr $C$DW$247, DW_AT_TI_call
    2047 00000176 7640!         LCR       #_EST_setFlag_enableRsRecalc ; [CPU_] |317| 
         00000177 0000 
    2048                      ; call occurs [#_EST_setFlag_enableRsRecalc] ; [] |317| 
    2049 00000178 761F-         MOVW      DP,#_proctrlHandle    ; [CPU_U] 
TMS320C2000 Assembler PC v6.2.5 Tue Nov 21 22:57:45 2017

Tools Copyright (c) 1996-2014 Texas Instruments Incorporated
C:\Users\wmj\AppData\Local\Temp\1055210                              PAGE   41

         00000179 0000 
    2050                      .dwpsn  file "D:/BM1000_v1.1/sw/solutions/instaspin/src/proj_bm1000.c",line 320,column 3,is_stmt
    2051 0000017a C406-         MOVL      XAR6,@_proctrlHandle  ; [CPU_] |320| 
    2052                      .dwpsn  file "D:/BM1000_v1.1/sw/modules/ctrl/src/32b/ctrl.h",line 1312,column 3,is_stmt
    2053 0000017b D0AC          MOVB      XAR0,#172             ; [CPU_] |1312| 
    2054 0000017c 8A96          MOVL      XAR4,*+XAR6[AR0]      ; [CPU_] |1312| 
    2055 0000017d 92FC          MOV       AL,*+XAR4[7]          ; [CPU_] |1312| 
    2056 0000017e 8A04-         MOVL      XAR4,@_ctrlHandle     ; [CPU_] |1312| 
    2057 0000017f D0F3          MOVB      XAR0,#243             ; [CPU_] |1312| 
    2058 00000180 9694          MOV       *+XAR4[AR0],AL        ; [CPU_] |1312| 
    2059 00000181       $C$L13:    
    2060                      .dwpsn  file "D:/BM1000_v1.1/sw/drivers/drvic/motor.h",line 532,column 3,is_stmt
    2061 00000181 D0AC          MOVB      XAR0,#172             ; [CPU_] |532| 
    2062 00000182 C596          MOVL      XAR7,*+XAR6[AR0]      ; [CPU_] |532| 
    2063 00000183 92C7          MOV       AL,*+XAR7[0]          ; [CPU_] |532| 
    2064 00000184 EC97          BF        $C$L10,EQ             ; [CPU_] |532| 
    2065                      ; branchcc occurs ; [] |532| 
    2066                      .dwpsn  file "D:/BM1000_v1.1/sw/solutions/instaspin/src/proj_bm1000.c",line 325,column 5,is_stmt
    2067 00000185 D03A          MOVB      XAR0,#58              ; [CPU_] |325| 
    2068 00000186 8A96          MOVL      XAR4,*+XAR6[AR0]      ; [CPU_] |325| 
    2069              $C$DW$248       .dwtag  DW_TAG_TI_branch
    2070                      .dwattr $C$DW$248, DW_AT_low_pc(0x00)
    2071                      .dwattr $C$DW$248, DW_AT_name("_MB_Poll")
    2072                      .dwattr $C$DW$248, DW_AT_TI_call
    2073 00000187 7640!         LCR       #_MB_Poll             ; [CPU_] |325| 
         00000188 0000 
    2074                      ; call occurs [#_MB_Poll] ; [] |325| 
    2075 00000189 761F-         MOVW      DP,#_proctrlHandle    ; [CPU_U] 
         0000018a 0000 
    2076                      .dwpsn  file "D:/BM1000_v1.1/sw/solutions/instaspin/src/proj_bm1000.c",line 326,column 5,is_stmt
    2077 0000018b 83A1          MOVL      XAR5,XAR1             ; [CPU_] |326| 
    2078 0000018c 8A06-         MOVL      XAR4,@_proctrlHandle  ; [CPU_] |326| 
    2079              $C$DW$249       .dwtag  DW_TAG_TI_branch
    2080                      .dwattr $C$DW$249, DW_AT_low_pc(0x00)
    2081                      .dwattr $C$DW$249, DW_AT_name("_PROCTRL_MainLoop")
    2082                      .dwattr $C$DW$249, DW_AT_TI_call
    2083 0000018d 7640!         LCR       #_PROCTRL_MainLoop    ; [CPU_] |326| 
         0000018e 0000 
    2084                      ; call occurs [#_PROCTRL_MainLoop] ; [] |326| 
    2085 0000018f 761F-         MOVW      DP,#_proctrlHandle    ; [CPU_U] 
         00000190 0000 
    2086 00000191 C406-         MOVL      XAR6,@_proctrlHandle  ; [CPU_] |326| 
    2087 00000192 6FEF          B         $C$L13,UNC            ; [CPU_] |326| 
    2088                      ; branch occurs ; [] |326| 
    2089 00000193       $C$L14:    
    2090                      .dwpsn  file "D:/BM1000_v1.1/sw/solutions/instaspin/src/proj_bm1000.c",line 266,column 6,is_stmt
    2091 00000193 D03A          MOVB      XAR0,#58              ; [CPU_] |266| 
    2092 00000194 FF69          SPM       #0                    ; [CPU_] 
    2093 00000195 8A96          MOVL      XAR4,*+XAR6[AR0]      ; [CPU_] |266| 
    2094              $C$DW$250       .dwtag  DW_TAG_TI_branch
    2095                      .dwattr $C$DW$250, DW_AT_low_pc(0x00)
    2096                      .dwattr $C$DW$250, DW_AT_name("_MB_Poll")
    2097                      .dwattr $C$DW$250, DW_AT_TI_call
    2098 00000196 7640!         LCR       #_MB_Poll             ; [CPU_] |266| 
         00000197 0000 
TMS320C2000 Assembler PC v6.2.5 Tue Nov 21 22:57:45 2017

Tools Copyright (c) 1996-2014 Texas Instruments Incorporated
C:\Users\wmj\AppData\Local\Temp\1055210                              PAGE   42

    2099                      ; call occurs [#_MB_Poll] ; [] |266| 
    2100 00000198 761F-         MOVW      DP,#_proctrlHandle    ; [CPU_U] 
         00000199 0000 
    2101                      .dwpsn  file "D:/BM1000_v1.1/sw/solutions/instaspin/src/proj_bm1000.c",line 268,column 6,is_stmt
    2102 0000019a 8A06-         MOVL      XAR4,@_proctrlHandle  ; [CPU_] |268| 
    2103              $C$DW$251       .dwtag  DW_TAG_TI_branch
    2104                      .dwattr $C$DW$251, DW_AT_low_pc(0x00)
    2105                      .dwattr $C$DW$251, DW_AT_name("_PROCTRL_CheckMotorError")
    2106                      .dwattr $C$DW$251, DW_AT_TI_call
    2107 0000019b 7640!         LCR       #_PROCTRL_CheckMotorError ; [CPU_] |268| 
         0000019c 0000 
    2108                      ; call occurs [#_PROCTRL_CheckMotorError] ; [] |268| 
    2109 0000019d 761F-         MOVW      DP,#_proctrlHandle    ; [CPU_U] 
         0000019e 0000 
    2110 0000019f C406-         MOVL      XAR6,@_proctrlHandle  ; [CPU_] |268| 
    2111 000001a0 6F90          B         $C$L11,UNC            ; [CPU_] |268| 
    2112                      ; branch occurs ; [] |268| 
    2113                      .dwattr $C$DW$193, DW_AT_TI_end_file("D:/BM1000_v1.1/sw/solutions/instaspin/src/proj_bm1000.c")
    2114                      .dwattr $C$DW$193, DW_AT_TI_end_line(0x154)
    2115                      .dwattr $C$DW$193, DW_AT_TI_end_column(0x01)
    2116                      .dwendentry
    2117                      .dwendtag $C$DW$193
    2118              
    2119 00000000               .sect   ".text:retain"
    2120                      .retain
    2121                      .retainrefs
    2122                      .global _UART_TxReadyISR
    2123              
    2124              $C$DW$252       .dwtag  DW_TAG_subprogram, DW_AT_name("UART_TxReadyISR")
    2125                      .dwattr $C$DW$252, DW_AT_low_pc(_UART_TxReadyISR)
    2126                      .dwattr $C$DW$252, DW_AT_high_pc(0x00)
    2127                      .dwattr $C$DW$252, DW_AT_TI_symbol_name("_UART_TxReadyISR")
    2128                      .dwattr $C$DW$252, DW_AT_external
    2129                      .dwattr $C$DW$252, DW_AT_TI_begin_file("D:/BM1000_v1.1/sw/solutions/instaspin/src/proj_bm1000.c")
    2130                      .dwattr $C$DW$252, DW_AT_TI_begin_line(0x1c2)
    2131                      .dwattr $C$DW$252, DW_AT_TI_begin_column(0x10)
    2132                      .dwattr $C$DW$252, DW_AT_TI_interrupt
    2133                      .dwattr $C$DW$252, DW_AT_TI_max_frame_size(-14)
    2134                      .dwpsn  file "D:/BM1000_v1.1/sw/solutions/instaspin/src/proj_bm1000.c",line 451,column 1,is_stmt,addr
    2135              
    2136                      .dwfde $C$DW$CIE, _UART_TxReadyISR
    2137              
    2138              ;***************************************************************
    2139              ;* FNAME: _UART_TxReadyISR              FR SIZE:  12           *
    2140              ;*                                                             *
    2141              ;* FUNCTION ENVIRONMENT                                        *
    2142              ;*                                                             *
    2143              ;* FUNCTION PROPERTIES                                         *
    2144              ;*                            0 Parameter,  0 Auto, 12 SOE     *
    2145              ;***************************************************************
    2146              
    2147 00000000       _UART_TxReadyISR:
    2148                      .dwcfi  cfa_offset, -2
    2149                      .dwcfi  save_reg_to_mem, 26, 0
    2150                      .dwcfi  save_reg_to_reg, 78, 26
TMS320C2000 Assembler PC v6.2.5 Tue Nov 21 22:57:45 2017

Tools Copyright (c) 1996-2014 Texas Instruments Incorporated
C:\Users\wmj\AppData\Local\Temp\1055210                              PAGE   43

    2151 00000000 761B          ASP       ; [CPU_] 
    2152 00000001 0005          PUSH      AR1H:AR0H             ; [CPU_] 
    2153                      .dwcfi  save_reg_to_mem, 5, 2
    2154                      .dwcfi  save_reg_to_mem, 7, 3
    2155                      .dwcfi  cfa_offset, -4
    2156 00000002 FF69          SPM       0                     ; [CPU_] 
    2157 00000003 ABBD          MOVL      *SP++,XT              ; [CPU_] 
    2158                      .dwcfi  save_reg_to_mem, 21, 4
    2159                      .dwcfi  save_reg_to_mem, 22, 5
    2160                      .dwcfi  cfa_offset, -6
    2161 00000004 A8BD          MOVL      *SP++,XAR4            ; [CPU_] 
    2162                      .dwcfi  save_reg_to_mem, 12, 6
    2163                      .dwcfi  save_reg_to_mem, 13, 7
    2164                      .dwcfi  cfa_offset, -8
    2165 00000005 A0BD          MOVL      *SP++,XAR5            ; [CPU_] 
    2166                      .dwcfi  save_reg_to_mem, 14, 8
    2167                      .dwcfi  save_reg_to_mem, 15, 9
    2168                      .dwcfi  cfa_offset, -10
    2169 00000006 C2BD          MOVL      *SP++,XAR6            ; [CPU_] 
    2170                      .dwcfi  save_reg_to_mem, 16, 10
    2171                      .dwcfi  save_reg_to_mem, 17, 11
    2172                      .dwcfi  cfa_offset, -12
    2173 00000007 C3BD          MOVL      *SP++,XAR7            ; [CPU_] 
    2174                      .dwcfi  save_reg_to_mem, 18, 12
    2175                      .dwcfi  save_reg_to_mem, 19, 13
    2176                      .dwcfi  cfa_offset, -14
    2177 00000008 2942          CLRC      PAGE0,OVM             ; [CPU_] 
    2178 00000009 5616          CLRC      AMODE                 ; [CPU_] 
    2179 0000000a 761F-         MOVW      DP,#_proctrlHandle    ; [CPU_U] 
         0000000b 0000 
    2180                      .dwpsn  file "D:/BM1000_v1.1/sw/solutions/instaspin/src/proj_bm1000.c",line 452,column 5,is_stmt
    2181 0000000c 8A06-         MOVL      XAR4,@_proctrlHandle  ; [CPU_] |452| 
    2182 0000000d D03A          MOVB      XAR0,#58              ; [CPU_] |452| 
    2183 0000000e 8A94          MOVL      XAR4,*+XAR4[AR0]      ; [CPU_] |452| 
    2184              $C$DW$253       .dwtag  DW_TAG_TI_branch
    2185                      .dwattr $C$DW$253, DW_AT_low_pc(0x00)
    2186                      .dwattr $C$DW$253, DW_AT_name("_MB_RTUTransmitFSM")
    2187                      .dwattr $C$DW$253, DW_AT_TI_call
    2188 0000000f 7640!         LCR       #_MB_RTUTransmitFSM   ; [CPU_] |452| 
         00000010 0000 
    2189                      ; call occurs [#_MB_RTUTransmitFSM] ; [] |452| 
    2190 00000011 761F-         MOVW      DP,#_halHandle        ; [CPU_U] 
         00000012 0000 
    2191                      .dwpsn  file "D:/BM1000_v1.1/sw/solutions/instaspin/src/proj_bm1000.c",line 454,column 2,is_stmt
    2192 00000013 8A02-         MOVL      XAR4,@_halHandle      ; [CPU_] |454| 
    2193 00000014 D094          MOVB      XAR0,#148             ; [CPU_] |454| 
    2194 00000015 8A94          MOVL      XAR4,*+XAR4[AR0]      ; [CPU_] |454| 
    2195              $C$DW$254       .dwtag  DW_TAG_TI_branch
    2196                      .dwattr $C$DW$254, DW_AT_low_pc(0x00)
    2197                      .dwattr $C$DW$254, DW_AT_name("_SCI_clearTxFifoInt")
    2198                      .dwattr $C$DW$254, DW_AT_TI_call
    2199 00000016 7640!         LCR       #_SCI_clearTxFifoInt  ; [CPU_] |454| 
         00000017 0000 
    2200                      ; call occurs [#_SCI_clearTxFifoInt] ; [] |454| 
    2201 00000018 761F-         MOVW      DP,#_halHandle        ; [CPU_U] 
TMS320C2000 Assembler PC v6.2.5 Tue Nov 21 22:57:45 2017

Tools Copyright (c) 1996-2014 Texas Instruments Incorporated
C:\Users\wmj\AppData\Local\Temp\1055210                              PAGE   44

         00000019 0000 
    2202                      .dwpsn  file "D:/BM1000_v1.1/sw/drivers/pie/src/32b/f28x/f2802x/pie.h",line 757,column 5,is_stmt
    2203 0000001a 8A02-         MOVL      XAR4,@_halHandle      ; [CPU_] |757| 
    2204 0000001b D078          MOVB      XAR0,#120             ; [CPU_] |757| 
    2205 0000001c 8A94          MOVL      XAR4,*+XAR4[AR0]      ; [CPU_] |757| 
    2206 0000001d 28CC          MOV       *+XAR4[1],#256        ; [CPU_] |757| 
         0000001e 0100 
    2207 0000001f C5BE          MOVL      XAR7,*--SP            ; [CPU_] 
    2208                      .dwcfi  cfa_offset, -12
    2209                      .dwcfi  restore_reg, 18
    2210 00000020 C4BE          MOVL      XAR6,*--SP            ; [CPU_] 
    2211                      .dwcfi  cfa_offset, -10
    2212                      .dwcfi  restore_reg, 16
    2213 00000021 83BE          MOVL      XAR5,*--SP            ; [CPU_] 
    2214                      .dwcfi  cfa_offset, -8
    2215                      .dwcfi  restore_reg, 14
    2216 00000022 8ABE          MOVL      XAR4,*--SP            ; [CPU_] 
    2217                      .dwcfi  cfa_offset, -6
    2218                      .dwcfi  restore_reg, 12
    2219 00000023 87BE          MOVL      XT,*--SP              ; [CPU_] 
    2220                      .dwcfi  cfa_offset, -4
    2221                      .dwcfi  restore_reg, 22
    2222                      .dwcfi  restore_reg, 21
    2223 00000024 0003          POP       AR1H:AR0H             ; [CPU_] 
    2224                      .dwcfi  cfa_offset, -2
    2225                      .dwcfi  restore_reg, 5
    2226                      .dwcfi  restore_reg, 7
    2227 00000025 7617          NASP      ; [CPU_] 
    2228              $C$DW$255       .dwtag  DW_TAG_TI_branch
    2229                      .dwattr $C$DW$255, DW_AT_low_pc(0x00)
    2230                      .dwattr $C$DW$255, DW_AT_TI_return
    2231 00000026 7602          IRET      ; [CPU_] 
    2232                      ; return occurs ; [] 
    2233                      .dwattr $C$DW$252, DW_AT_TI_end_file("D:/BM1000_v1.1/sw/solutions/instaspin/src/proj_bm1000.c")
    2234                      .dwattr $C$DW$252, DW_AT_TI_end_line(0x1c9)
    2235                      .dwattr $C$DW$252, DW_AT_TI_end_column(0x01)
    2236                      .dwendentry
    2237                      .dwendtag $C$DW$252
    2238              
    2239 00000027               .sect   ".text:retain"
    2240                      .retain
    2241                      .retainrefs
    2242                      .global _UART_RxISR
    2243              
    2244              $C$DW$256       .dwtag  DW_TAG_subprogram, DW_AT_name("UART_RxISR")
    2245                      .dwattr $C$DW$256, DW_AT_low_pc(_UART_RxISR)
    2246                      .dwattr $C$DW$256, DW_AT_high_pc(0x00)
    2247                      .dwattr $C$DW$256, DW_AT_TI_symbol_name("_UART_RxISR")
    2248                      .dwattr $C$DW$256, DW_AT_external
    2249                      .dwattr $C$DW$256, DW_AT_TI_begin_file("D:/BM1000_v1.1/sw/solutions/instaspin/src/proj_bm1000.c")
    2250                      .dwattr $C$DW$256, DW_AT_TI_begin_line(0x1cb)
    2251                      .dwattr $C$DW$256, DW_AT_TI_begin_column(0x10)
    2252                      .dwattr $C$DW$256, DW_AT_TI_interrupt
    2253                      .dwattr $C$DW$256, DW_AT_TI_max_frame_size(-14)
    2254                      .dwpsn  file "D:/BM1000_v1.1/sw/solutions/instaspin/src/proj_bm1000.c",line 460,column 1,is_stmt,addr
TMS320C2000 Assembler PC v6.2.5 Tue Nov 21 22:57:45 2017

Tools Copyright (c) 1996-2014 Texas Instruments Incorporated
C:\Users\wmj\AppData\Local\Temp\1055210                              PAGE   45

    2255              
    2256                      .dwfde $C$DW$CIE, _UART_RxISR
    2257              
    2258              ;***************************************************************
    2259              ;* FNAME: _UART_RxISR                   FR SIZE:  12           *
    2260              ;*                                                             *
    2261              ;* FUNCTION ENVIRONMENT                                        *
    2262              ;*                                                             *
    2263              ;* FUNCTION PROPERTIES                                         *
    2264              ;*                            0 Parameter,  0 Auto, 12 SOE     *
    2265              ;***************************************************************
    2266              
    2267 00000027       _UART_RxISR:
    2268                      .dwcfi  cfa_offset, -2
    2269                      .dwcfi  save_reg_to_mem, 26, 0
    2270                      .dwcfi  save_reg_to_reg, 78, 26
    2271 00000027 761B          ASP       ; [CPU_] 
    2272 00000028 0005          PUSH      AR1H:AR0H             ; [CPU_] 
    2273                      .dwcfi  save_reg_to_mem, 5, 2
    2274                      .dwcfi  save_reg_to_mem, 7, 3
    2275                      .dwcfi  cfa_offset, -4
    2276 00000029 FF69          SPM       0                     ; [CPU_] 
    2277 0000002a ABBD          MOVL      *SP++,XT              ; [CPU_] 
    2278                      .dwcfi  save_reg_to_mem, 21, 4
    2279                      .dwcfi  save_reg_to_mem, 22, 5
    2280                      .dwcfi  cfa_offset, -6
    2281 0000002b A8BD          MOVL      *SP++,XAR4            ; [CPU_] 
    2282                      .dwcfi  save_reg_to_mem, 12, 6
    2283                      .dwcfi  save_reg_to_mem, 13, 7
    2284                      .dwcfi  cfa_offset, -8
    2285 0000002c A0BD          MOVL      *SP++,XAR5            ; [CPU_] 
    2286                      .dwcfi  save_reg_to_mem, 14, 8
    2287                      .dwcfi  save_reg_to_mem, 15, 9
    2288                      .dwcfi  cfa_offset, -10
    2289 0000002d C2BD          MOVL      *SP++,XAR6            ; [CPU_] 
    2290                      .dwcfi  save_reg_to_mem, 16, 10
    2291                      .dwcfi  save_reg_to_mem, 17, 11
    2292                      .dwcfi  cfa_offset, -12
    2293 0000002e C3BD          MOVL      *SP++,XAR7            ; [CPU_] 
    2294                      .dwcfi  save_reg_to_mem, 18, 12
    2295                      .dwcfi  save_reg_to_mem, 19, 13
    2296                      .dwcfi  cfa_offset, -14
    2297 0000002f 2942          CLRC      PAGE0,OVM             ; [CPU_] 
    2298 00000030 5616          CLRC      AMODE                 ; [CPU_] 
    2299 00000031 761F-         MOVW      DP,#_proctrlHandle    ; [CPU_U] 
         00000032 0000 
    2300                      .dwpsn  file "D:/BM1000_v1.1/sw/solutions/instaspin/src/proj_bm1000.c",line 461,column 5,is_stmt
    2301 00000033 8A06-         MOVL      XAR4,@_proctrlHandle  ; [CPU_] |461| 
    2302 00000034 D03A          MOVB      XAR0,#58              ; [CPU_] |461| 
    2303 00000035 8A94          MOVL      XAR4,*+XAR4[AR0]      ; [CPU_] |461| 
    2304              $C$DW$257       .dwtag  DW_TAG_TI_branch
    2305                      .dwattr $C$DW$257, DW_AT_low_pc(0x00)
    2306                      .dwattr $C$DW$257, DW_AT_name("_MB_RTUReceiveFSM")
    2307                      .dwattr $C$DW$257, DW_AT_TI_call
    2308 00000036 7640!         LCR       #_MB_RTUReceiveFSM    ; [CPU_] |461| 
TMS320C2000 Assembler PC v6.2.5 Tue Nov 21 22:57:45 2017

Tools Copyright (c) 1996-2014 Texas Instruments Incorporated
C:\Users\wmj\AppData\Local\Temp\1055210                              PAGE   46

         00000037 0000 
    2309                      ; call occurs [#_MB_RTUReceiveFSM] ; [] |461| 
    2310 00000038 761F-         MOVW      DP,#_halHandle        ; [CPU_U] 
         00000039 0000 
    2311                      .dwpsn  file "D:/BM1000_v1.1/sw/solutions/instaspin/src/proj_bm1000.c",line 463,column 2,is_stmt
    2312 0000003a 8A02-         MOVL      XAR4,@_halHandle      ; [CPU_] |463| 
    2313 0000003b D094          MOVB      XAR0,#148             ; [CPU_] |463| 
    2314 0000003c 8A94          MOVL      XAR4,*+XAR4[AR0]      ; [CPU_] |463| 
    2315              $C$DW$258       .dwtag  DW_TAG_TI_branch
    2316                      .dwattr $C$DW$258, DW_AT_low_pc(0x00)
    2317                      .dwattr $C$DW$258, DW_AT_name("_SCI_clearRxFifoOvf")
    2318                      .dwattr $C$DW$258, DW_AT_TI_call
    2319 0000003d 7640!         LCR       #_SCI_clearRxFifoOvf  ; [CPU_] |463| 
         0000003e 0000 
    2320                      ; call occurs [#_SCI_clearRxFifoOvf] ; [] |463| 
    2321 0000003f 761F-         MOVW      DP,#_halHandle        ; [CPU_U] 
         00000040 0000 
    2322                      .dwpsn  file "D:/BM1000_v1.1/sw/solutions/instaspin/src/proj_bm1000.c",line 464,column 2,is_stmt
    2323 00000041 8A02-         MOVL      XAR4,@_halHandle      ; [CPU_] |464| 
    2324 00000042 D094          MOVB      XAR0,#148             ; [CPU_] |464| 
    2325 00000043 8A94          MOVL      XAR4,*+XAR4[AR0]      ; [CPU_] |464| 
    2326              $C$DW$259       .dwtag  DW_TAG_TI_branch
    2327                      .dwattr $C$DW$259, DW_AT_low_pc(0x00)
    2328                      .dwattr $C$DW$259, DW_AT_name("_SCI_clearRxFifoInt")
    2329                      .dwattr $C$DW$259, DW_AT_TI_call
    2330 00000044 7640!         LCR       #_SCI_clearRxFifoInt  ; [CPU_] |464| 
         00000045 0000 
    2331                      ; call occurs [#_SCI_clearRxFifoInt] ; [] |464| 
    2332 00000046 761F-         MOVW      DP,#_halHandle        ; [CPU_U] 
         00000047 0000 
    2333                      .dwpsn  file "D:/BM1000_v1.1/sw/drivers/pie/src/32b/f28x/f2802x/pie.h",line 757,column 5,is_stmt
    2334 00000048 8A02-         MOVL      XAR4,@_halHandle      ; [CPU_] |757| 
    2335 00000049 D078          MOVB      XAR0,#120             ; [CPU_] |757| 
    2336 0000004a 8A94          MOVL      XAR4,*+XAR4[AR0]      ; [CPU_] |757| 
    2337 0000004b 28CC          MOV       *+XAR4[1],#256        ; [CPU_] |757| 
         0000004c 0100 
    2338 0000004d C5BE          MOVL      XAR7,*--SP            ; [CPU_] 
    2339                      .dwcfi  cfa_offset, -12
    2340                      .dwcfi  restore_reg, 18
    2341 0000004e C4BE          MOVL      XAR6,*--SP            ; [CPU_] 
    2342                      .dwcfi  cfa_offset, -10
    2343                      .dwcfi  restore_reg, 16
    2344 0000004f 83BE          MOVL      XAR5,*--SP            ; [CPU_] 
    2345                      .dwcfi  cfa_offset, -8
    2346                      .dwcfi  restore_reg, 14
    2347 00000050 8ABE          MOVL      XAR4,*--SP            ; [CPU_] 
    2348                      .dwcfi  cfa_offset, -6
    2349                      .dwcfi  restore_reg, 12
    2350 00000051 87BE          MOVL      XT,*--SP              ; [CPU_] 
    2351                      .dwcfi  cfa_offset, -4
    2352                      .dwcfi  restore_reg, 22
    2353                      .dwcfi  restore_reg, 21
    2354 00000052 0003          POP       AR1H:AR0H             ; [CPU_] 
    2355                      .dwcfi  cfa_offset, -2
    2356                      .dwcfi  restore_reg, 5
TMS320C2000 Assembler PC v6.2.5 Tue Nov 21 22:57:45 2017

Tools Copyright (c) 1996-2014 Texas Instruments Incorporated
C:\Users\wmj\AppData\Local\Temp\1055210                              PAGE   47

    2357                      .dwcfi  restore_reg, 7
    2358 00000053 7617          NASP      ; [CPU_] 
    2359              $C$DW$260       .dwtag  DW_TAG_TI_branch
    2360                      .dwattr $C$DW$260, DW_AT_low_pc(0x00)
    2361                      .dwattr $C$DW$260, DW_AT_TI_return
    2362 00000054 7602          IRET      ; [CPU_] 
    2363                      ; return occurs ; [] 
    2364                      .dwattr $C$DW$256, DW_AT_TI_end_file("D:/BM1000_v1.1/sw/solutions/instaspin/src/proj_bm1000.c")
    2365                      .dwattr $C$DW$256, DW_AT_TI_end_line(0x1d3)
    2366                      .dwattr $C$DW$256, DW_AT_TI_end_column(0x01)
    2367                      .dwendentry
    2368                      .dwendtag $C$DW$256
    2369              
    2370 00000055               .sect   ".text:retain"
    2371                      .retain
    2372                      .retainrefs
    2373                      .global _Timer1ISR
    2374              
    2375              $C$DW$261       .dwtag  DW_TAG_subprogram, DW_AT_name("Timer1ISR")
    2376                      .dwattr $C$DW$261, DW_AT_low_pc(_Timer1ISR)
    2377                      .dwattr $C$DW$261, DW_AT_high_pc(0x00)
    2378                      .dwattr $C$DW$261, DW_AT_TI_symbol_name("_Timer1ISR")
    2379                      .dwattr $C$DW$261, DW_AT_external
    2380                      .dwattr $C$DW$261, DW_AT_TI_begin_file("D:/BM1000_v1.1/sw/solutions/instaspin/src/proj_bm1000.c")
    2381                      .dwattr $C$DW$261, DW_AT_TI_begin_line(0x1b9)
    2382                      .dwattr $C$DW$261, DW_AT_TI_begin_column(0x10)
    2383                      .dwattr $C$DW$261, DW_AT_TI_interrupt
    2384                      .dwattr $C$DW$261, DW_AT_TI_max_frame_size(-14)
    2385                      .dwpsn  file "D:/BM1000_v1.1/sw/solutions/instaspin/src/proj_bm1000.c",line 442,column 1,is_stmt,addr
    2386              
    2387                      .dwfde $C$DW$CIE, _Timer1ISR
    2388              
    2389              ;***************************************************************
    2390              ;* FNAME: _Timer1ISR                    FR SIZE:  12           *
    2391              ;*                                                             *
    2392              ;* FUNCTION ENVIRONMENT                                        *
    2393              ;*                                                             *
    2394              ;* FUNCTION PROPERTIES                                         *
    2395              ;*                            0 Parameter,  0 Auto, 12 SOE     *
    2396              ;***************************************************************
    2397              
    2398 00000055       _Timer1ISR:
    2399                      .dwcfi  cfa_offset, -2
    2400                      .dwcfi  save_reg_to_mem, 26, 0
    2401                      .dwcfi  save_reg_to_reg, 78, 26
    2402 00000055 761B          ASP       ; [CPU_] 
    2403 00000056 0005          PUSH      AR1H:AR0H             ; [CPU_] 
    2404                      .dwcfi  save_reg_to_mem, 5, 2
    2405                      .dwcfi  save_reg_to_mem, 7, 3
    2406                      .dwcfi  cfa_offset, -4
    2407 00000057 FF69          SPM       0                     ; [CPU_] 
    2408 00000058 ABBD          MOVL      *SP++,XT              ; [CPU_] 
    2409                      .dwcfi  save_reg_to_mem, 21, 4
    2410                      .dwcfi  save_reg_to_mem, 22, 5
    2411                      .dwcfi  cfa_offset, -6
TMS320C2000 Assembler PC v6.2.5 Tue Nov 21 22:57:45 2017

Tools Copyright (c) 1996-2014 Texas Instruments Incorporated
C:\Users\wmj\AppData\Local\Temp\1055210                              PAGE   48

    2412 00000059 A8BD          MOVL      *SP++,XAR4            ; [CPU_] 
    2413                      .dwcfi  save_reg_to_mem, 12, 6
    2414                      .dwcfi  save_reg_to_mem, 13, 7
    2415                      .dwcfi  cfa_offset, -8
    2416 0000005a A0BD          MOVL      *SP++,XAR5            ; [CPU_] 
    2417                      .dwcfi  save_reg_to_mem, 14, 8
    2418                      .dwcfi  save_reg_to_mem, 15, 9
    2419                      .dwcfi  cfa_offset, -10
    2420 0000005b C2BD          MOVL      *SP++,XAR6            ; [CPU_] 
    2421                      .dwcfi  save_reg_to_mem, 16, 10
    2422                      .dwcfi  save_reg_to_mem, 17, 11
    2423                      .dwcfi  cfa_offset, -12
    2424 0000005c C3BD          MOVL      *SP++,XAR7            ; [CPU_] 
    2425                      .dwcfi  save_reg_to_mem, 18, 12
    2426                      .dwcfi  save_reg_to_mem, 19, 13
    2427                      .dwcfi  cfa_offset, -14
    2428 0000005d 2942          CLRC      PAGE0,OVM             ; [CPU_] 
    2429 0000005e 5616          CLRC      AMODE                 ; [CPU_] 
    2430 0000005f 761F-         MOVW      DP,#_proctrlHandle    ; [CPU_U] 
         00000060 0000 
    2431                      .dwpsn  file "D:/BM1000_v1.1/sw/solutions/instaspin/src/proj_bm1000.c",line 444,column 5,is_stmt
    2432 00000061 8A06-         MOVL      XAR4,@_proctrlHandle  ; [CPU_] |444| 
    2433 00000062 D03A          MOVB      XAR0,#58              ; [CPU_] |444| 
    2434 00000063 8A94          MOVL      XAR4,*+XAR4[AR0]      ; [CPU_] |444| 
    2435              $C$DW$262       .dwtag  DW_TAG_TI_branch
    2436                      .dwattr $C$DW$262, DW_AT_low_pc(0x00)
    2437                      .dwattr $C$DW$262, DW_AT_name("_MB_RTUTimerFSM")
    2438                      .dwattr $C$DW$262, DW_AT_TI_call
    2439 00000064 7640!         LCR       #_MB_RTUTimerFSM      ; [CPU_] |444| 
         00000065 0000 
    2440                      ; call occurs [#_MB_RTUTimerFSM] ; [] |444| 
    2441 00000066 761F-         MOVW      DP,#_halHandle        ; [CPU_U] 
         00000067 0000 
    2442                      .dwpsn  file "D:/BM1000_v1.1/sw/solutions/instaspin/src/proj_bm1000.c",line 445,column 2,is_stmt
    2443 00000068 8A02-         MOVL      XAR4,@_halHandle      ; [CPU_] |445| 
    2444 00000069 D08C          MOVB      XAR0,#140             ; [CPU_] |445| 
    2445 0000006a 8A94          MOVL      XAR4,*+XAR4[AR0]      ; [CPU_] |445| 
    2446              $C$DW$263       .dwtag  DW_TAG_TI_branch
    2447                      .dwattr $C$DW$263, DW_AT_low_pc(0x00)
    2448                      .dwattr $C$DW$263, DW_AT_name("_TIMER_clearFlag")
    2449                      .dwattr $C$DW$263, DW_AT_TI_call
    2450 0000006b 7640!         LCR       #_TIMER_clearFlag     ; [CPU_] |445| 
         0000006c 0000 
    2451                      ; call occurs [#_TIMER_clearFlag] ; [] |445| 
    2452 0000006d C5BE          MOVL      XAR7,*--SP            ; [CPU_] 
    2453                      .dwcfi  cfa_offset, -12
    2454                      .dwcfi  restore_reg, 18
    2455 0000006e C4BE          MOVL      XAR6,*--SP            ; [CPU_] 
    2456                      .dwcfi  cfa_offset, -10
    2457                      .dwcfi  restore_reg, 16
    2458 0000006f 83BE          MOVL      XAR5,*--SP            ; [CPU_] 
    2459                      .dwcfi  cfa_offset, -8
    2460                      .dwcfi  restore_reg, 14
    2461 00000070 8ABE          MOVL      XAR4,*--SP            ; [CPU_] 
    2462                      .dwcfi  cfa_offset, -6
TMS320C2000 Assembler PC v6.2.5 Tue Nov 21 22:57:45 2017

Tools Copyright (c) 1996-2014 Texas Instruments Incorporated
C:\Users\wmj\AppData\Local\Temp\1055210                              PAGE   49

    2463                      .dwcfi  restore_reg, 12
    2464 00000071 87BE          MOVL      XT,*--SP              ; [CPU_] 
    2465                      .dwcfi  cfa_offset, -4
    2466                      .dwcfi  restore_reg, 22
    2467                      .dwcfi  restore_reg, 21
    2468 00000072 0003          POP       AR1H:AR0H             ; [CPU_] 
    2469                      .dwcfi  cfa_offset, -2
    2470                      .dwcfi  restore_reg, 5
    2471                      .dwcfi  restore_reg, 7
    2472 00000073 7617          NASP      ; [CPU_] 
    2473              $C$DW$264       .dwtag  DW_TAG_TI_branch
    2474                      .dwattr $C$DW$264, DW_AT_low_pc(0x00)
    2475                      .dwattr $C$DW$264, DW_AT_TI_return
    2476 00000074 7602          IRET      ; [CPU_] 
    2477                      ; return occurs ; [] 
    2478                      .dwattr $C$DW$261, DW_AT_TI_end_file("D:/BM1000_v1.1/sw/solutions/instaspin/src/proj_bm1000.c")
    2479                      .dwattr $C$DW$261, DW_AT_TI_end_line(0x1c0)
    2480                      .dwattr $C$DW$261, DW_AT_TI_end_column(0x01)
    2481                      .dwendentry
    2482                      .dwendtag $C$DW$261
    2483              
    2484              ;**************************************************************
    2485              ;* UNDEFINED EXTERNAL REFERENCES                              *
    2486              ;**************************************************************
    2487                      .global _MOTOR_getMaxCurrent
    2488                      .global _HAL_enableTimer1Int
    2489                      .global _MOTOR_CtrlVersion_Init
    2490                      .global _HAL_enableSciaInt
    2491                      .global _FSM_getPortStatus
    2492                      .global _FSM_ParamInit
    2493                      .global _HAL_setupFaults
    2494                      .global _HAL_enableGlobalInts
    2495                      .global _HAL_enableAdcInts
    2496                      .global _HAL_enableDebugInt
    2497                      .global _HAL_setupAdcParams
    2498                      .global _HAL_setParams
    2499                      .global _PROCTRL_getDCbusVoltage
    2500                      .global _PROCTRL_getChipTemperture
    2501                      .global _PROCTRL_setDcBrakeCurrent
    2502                      .global _PROCTRL_CheckMotorError
    2503                      .global _PROCTRL_getScaleActors
    2504                      .global _PROCTRL_getSensorData
    2505                      .global _PROCTRL_MainLoop
    2506                      .global _MB_RTUReceiveFSM
    2507                      .global _PROCTRL_setHalHandle
    2508                      .global _MB_RTUTransmitFSM
    2509                      .global _MB_RTUTimerFSM
    2510                      .global _PROCTRL_setupMotors
    2511                      .global _PROCTRL_setupFSM
    2512                      .global _PROCTRL_setupModbus
    2513                      .global _PROCTRL_setUserParams
    2514                      .global _PROCTRL_setupFlyingStart
    2515                      .global _USER_setSysParams
    2516                      .global _USER_setParams
    2517                      .global _usDelay
TMS320C2000 Assembler PC v6.2.5 Tue Nov 21 22:57:45 2017

Tools Copyright (c) 1996-2014 Texas Instruments Incorporated
C:\Users\wmj\AppData\Local\Temp\1055210                              PAGE   50

    2518                      .global _SCI_clearRxFifoInt
    2519                      .global _SCI_clearTxFifoInt
    2520                      .global _SCI_clearRxFifoOvf
    2521                      .global _USER_checkForErrors
    2522                      .global _USER_checkDefErrors
    2523                      .global _USER_setMotorIDs
    2524                      .global _USER_setMotorParams
    2525                      .global _USER_setBoardParams
    2526                      .global _EST_setFlag_enableRsRecalc
    2527                      .global _memCopy
    2528                      .global _TIMER_clearFlag
    2529                      .global _USER_setWaitTimeParams
    2530                      .global _GPIO_setLow
    2531                      .global _GPIO_setHigh
    2532                      .global _CTRL_setParams
    2533                      .global _PROCTRL_setCtrlHandle
    2534                      .global _CTRL_setup
    2535                      .global _CTRL_getVersion
    2536                      .global _CTRL_run
    2537                      .global _GPIO_read
    2538                      .global _USER_getErrorCode
    2539                      .global _MB_Poll
    2540                      .global _RamfuncsRunStart
    2541                      .global _RamfuncsLoadEnd
    2542                      .global _PROCTRL_init
    2543                      .global _CTRL_initCtrl
    2544                      .global _RamfuncsLoadStart
    2545                      .global _HAL_init
    2546                      .global _EST_getFm_pu
    2547                      .global _hal
    2548              
    2549              ;***************************************************************
    2550              ;* TYPE INFORMATION                                            *
    2551              ;***************************************************************
    2552              
    2553              $C$DW$T$41      .dwtag  DW_TAG_enumeration_type
    2554                      .dwattr $C$DW$T$41, DW_AT_byte_size(0x01)
    2555              $C$DW$265       .dwtag  DW_TAG_enumerator, DW_AT_name("CTRL_State_Error"), DW_AT_const_value(0x00)
    2556              $C$DW$266       .dwtag  DW_TAG_enumerator, DW_AT_name("CTRL_State_Idle"), DW_AT_const_value(0x01)
    2557              $C$DW$267       .dwtag  DW_TAG_enumerator, DW_AT_name("CTRL_State_OffLine"), DW_AT_const_value(0x02)
    2558              $C$DW$268       .dwtag  DW_TAG_enumerator, DW_AT_name("CTRL_State_OnLine"), DW_AT_const_value(0x03)
    2559              $C$DW$269       .dwtag  DW_TAG_enumerator, DW_AT_name("CTRL_numStates"), DW_AT_const_value(0x04)
    2560                      .dwendtag $C$DW$T$41
    2561              
    2562              $C$DW$T$42      .dwtag  DW_TAG_typedef, DW_AT_name("CTRL_State_e")
    2563                      .dwattr $C$DW$T$42, DW_AT_type(*$C$DW$T$41)
    2564                      .dwattr $C$DW$T$42, DW_AT_language(DW_LANG_C)
    2565              
    2566              $C$DW$T$43      .dwtag  DW_TAG_enumeration_type
    2567                      .dwattr $C$DW$T$43, DW_AT_byte_size(0x01)
    2568              $C$DW$270       .dwtag  DW_TAG_enumerator, DW_AT_name("CTRL_ErrorCode_NoError"), DW_AT_const_value(0x00)
    2569              $C$DW$271       .dwtag  DW_TAG_enumerator, DW_AT_name("CTRL_ErrorCode_IdClip"), DW_AT_const_value(0x01)
    2570              $C$DW$272       .dwtag  DW_TAG_enumerator, DW_AT_name("CTRL_ErrorCode_EstError"), DW_AT_const_value(0x02)
    2571              $C$DW$273       .dwtag  DW_TAG_enumerator, DW_AT_name("CTRL_numErrorCodes"), DW_AT_const_value(0x03)
    2572                      .dwendtag $C$DW$T$43
TMS320C2000 Assembler PC v6.2.5 Tue Nov 21 22:57:45 2017

Tools Copyright (c) 1996-2014 Texas Instruments Incorporated
C:\Users\wmj\AppData\Local\Temp\1055210                              PAGE   51

    2573              
    2574              $C$DW$T$44      .dwtag  DW_TAG_typedef, DW_AT_name("CTRL_ErrorCode_e")
    2575                      .dwattr $C$DW$T$44, DW_AT_type(*$C$DW$T$43)
    2576                      .dwattr $C$DW$T$44, DW_AT_language(DW_LANG_C)
    2577              
    2578              $C$DW$T$75      .dwtag  DW_TAG_enumeration_type
    2579                      .dwattr $C$DW$T$75, DW_AT_byte_size(0x01)
    2580              $C$DW$274       .dwtag  DW_TAG_enumerator, DW_AT_name("CTRL_TargetProc_2806x"), DW_AT_const_value(0x00)
    2581              $C$DW$275       .dwtag  DW_TAG_enumerator, DW_AT_name("CTRL_TargetProc_2805x"), DW_AT_const_value(0x01)
    2582              $C$DW$276       .dwtag  DW_TAG_enumerator, DW_AT_name("CTRL_TargetProc_2803x"), DW_AT_const_value(0x02)
    2583              $C$DW$277       .dwtag  DW_TAG_enumerator, DW_AT_name("CTRL_TargetProc_2802x"), DW_AT_const_value(0x03)
    2584              $C$DW$278       .dwtag  DW_TAG_enumerator, DW_AT_name("CTRL_TargetProc_Unknown"), DW_AT_const_value(0x04)
    2585                      .dwendtag $C$DW$T$75
    2586              
    2587              $C$DW$T$76      .dwtag  DW_TAG_typedef, DW_AT_name("CTRL_TargetProc_e")
    2588                      .dwattr $C$DW$T$76, DW_AT_type(*$C$DW$T$75)
    2589                      .dwattr $C$DW$T$76, DW_AT_language(DW_LANG_C)
    2590              
    2591              $C$DW$T$86      .dwtag  DW_TAG_enumeration_type
    2592                      .dwattr $C$DW$T$86, DW_AT_byte_size(0x01)
    2593              $C$DW$279       .dwtag  DW_TAG_enumerator, DW_AT_name("Fsm_State_Idle"), DW_AT_const_value(0x00)
    2594              $C$DW$280       .dwtag  DW_TAG_enumerator, DW_AT_name("Fsm_State_MotorFunc"), DW_AT_const_value(0x01)
    2595              $C$DW$281       .dwtag  DW_TAG_enumerator, DW_AT_name("Fsm_State_Spinning"), DW_AT_const_value(0x02)
    2596              $C$DW$282       .dwtag  DW_TAG_enumerator, DW_AT_name("Fsm_State_Reverse"), DW_AT_const_value(0x03)
    2597              $C$DW$283       .dwtag  DW_TAG_enumerator, DW_AT_name("Fsm_State_Slowdown"), DW_AT_const_value(0x04)
    2598              $C$DW$284       .dwtag  DW_TAG_enumerator, DW_AT_name("Fsm_State_ConstTorque"), DW_AT_const_value(0x05)
    2599              $C$DW$285       .dwtag  DW_TAG_enumerator, DW_AT_name("Fsm_State_MagneticBrake"), DW_AT_const_value(0x06)
    2600              $C$DW$286       .dwtag  DW_TAG_enumerator, DW_AT_name("Fsm_State_FullyClose"), DW_AT_const_value(0x07)
    2601              $C$DW$287       .dwtag  DW_TAG_enumerator, DW_AT_name("Fsm_State_InchingOpen"), DW_AT_const_value(0x08)
    2602              $C$DW$288       .dwtag  DW_TAG_enumerator, DW_AT_name("Fsm_State_FullyOpen"), DW_AT_const_value(0x09)
    2603              $C$DW$289       .dwtag  DW_TAG_enumerator, DW_AT_name("Fsm_State_SharedState1"), DW_AT_const_value(0x0a)
    2604              $C$DW$290       .dwtag  DW_TAG_enumerator, DW_AT_name("Fsm_State_SharedState2"), DW_AT_const_value(0x0b)
    2605              $C$DW$291       .dwtag  DW_TAG_enumerator, DW_AT_name("Fsm_State_SharedState3"), DW_AT_const_value(0x0c)
    2606              $C$DW$292       .dwtag  DW_TAG_enumerator, DW_AT_name("Fsm_State_NormWait"), DW_AT_const_value(0x0d)
    2607              $C$DW$293       .dwtag  DW_TAG_enumerator, DW_AT_name("Fsm_State_STOP"), DW_AT_const_value(0x0e)
    2608              $C$DW$294       .dwtag  DW_TAG_enumerator, DW_AT_name("Fsm_State_Num"), DW_AT_const_value(0x0f)
    2609                      .dwendtag $C$DW$T$86
    2610              
    2611              $C$DW$T$87      .dwtag  DW_TAG_typedef, DW_AT_name("FSM_State_e")
    2612                      .dwattr $C$DW$T$87, DW_AT_type(*$C$DW$T$86)
    2613                      .dwattr $C$DW$T$87, DW_AT_language(DW_LANG_C)
    2614              
    2615              $C$DW$T$109     .dwtag  DW_TAG_array_type
    2616                      .dwattr $C$DW$T$109, DW_AT_type(*$C$DW$T$87)
    2617                      .dwattr $C$DW$T$109, DW_AT_language(DW_LANG_C)
    2618                      .dwattr $C$DW$T$109, DW_AT_byte_size(0x0f)
    2619              $C$DW$295       .dwtag  DW_TAG_subrange_type
    2620                      .dwattr $C$DW$295, DW_AT_upper_bound(0x0e)
    2621                      .dwendtag $C$DW$T$109
    2622              
    2623              
    2624              $C$DW$T$88      .dwtag  DW_TAG_enumeration_type
    2625                      .dwattr $C$DW$T$88, DW_AT_byte_size(0x01)
    2626              $C$DW$296       .dwtag  DW_TAG_enumerator, DW_AT_name("FSM_Trans_RetireState"), DW_AT_const_value(0x00)
    2627              $C$DW$297       .dwtag  DW_TAG_enumerator, DW_AT_name("FSM_Trans_LoopForever"), DW_AT_const_value(0x01)
TMS320C2000 Assembler PC v6.2.5 Tue Nov 21 22:57:45 2017

Tools Copyright (c) 1996-2014 Texas Instruments Incorporated
C:\Users\wmj\AppData\Local\Temp\1055210                              PAGE   52

    2628              $C$DW$298       .dwtag  DW_TAG_enumerator, DW_AT_name("FSM_Trans_JumpState1"), DW_AT_const_value(0x02)
    2629              $C$DW$299       .dwtag  DW_TAG_enumerator, DW_AT_name("FSM_Trans_JumpState2"), DW_AT_const_value(0x03)
    2630                      .dwendtag $C$DW$T$88
    2631              
    2632              $C$DW$T$89      .dwtag  DW_TAG_typedef, DW_AT_name("FSM_Trans_e")
    2633                      .dwattr $C$DW$T$89, DW_AT_type(*$C$DW$T$88)
    2634                      .dwattr $C$DW$T$89, DW_AT_language(DW_LANG_C)
    2635              
    2636              $C$DW$T$90      .dwtag  DW_TAG_enumeration_type
    2637                      .dwattr $C$DW$T$90, DW_AT_byte_size(0x01)
    2638              $C$DW$300       .dwtag  DW_TAG_enumerator, DW_AT_name("FSM_Event_IDLE"), DW_AT_const_value(0x00)
    2639              $C$DW$301       .dwtag  DW_TAG_enumerator, DW_AT_name("FSM_Event_MeetTime"), DW_AT_const_value(0x01)
    2640              $C$DW$302       .dwtag  DW_TAG_enumerator, DW_AT_name("FSM_Event_ArriveRefSpd"), DW_AT_const_value(0x02)
    2641              $C$DW$303       .dwtag  DW_TAG_enumerator, DW_AT_name("FSM_Event_485Start"), DW_AT_const_value(0x03)
    2642              $C$DW$304       .dwtag  DW_TAG_enumerator, DW_AT_name("FSM_Event_Sensor0"), DW_AT_const_value(0x04)
    2643              $C$DW$305       .dwtag  DW_TAG_enumerator, DW_AT_name("FSM_Event_Sensor1"), DW_AT_const_value(0x05)
    2644              $C$DW$306       .dwtag  DW_TAG_enumerator, DW_AT_name("FSM_Event_arrive_point"), DW_AT_const_value(0x06)
    2645              $C$DW$307       .dwtag  DW_TAG_enumerator, DW_AT_name("FSM_Event_ContactSensor"), DW_AT_const_value(0x07)
    2646              $C$DW$308       .dwtag  DW_TAG_enumerator, DW_AT_name("FSM_Event_ZeroSpeed"), DW_AT_const_value(0x08)
    2647              $C$DW$309       .dwtag  DW_TAG_enumerator, DW_AT_name("FSM_Event_MoveIdle"), DW_AT_const_value(0x09)
    2648              $C$DW$310       .dwtag  DW_TAG_enumerator, DW_AT_name("FSM_Event_Num"), DW_AT_const_value(0x0a)
    2649                      .dwendtag $C$DW$T$90
    2650              
    2651              $C$DW$T$91      .dwtag  DW_TAG_typedef, DW_AT_name("FSM_Event_e")
    2652                      .dwattr $C$DW$T$91, DW_AT_type(*$C$DW$T$90)
    2653                      .dwattr $C$DW$T$91, DW_AT_language(DW_LANG_C)
    2654              
    2655              $C$DW$T$92      .dwtag  DW_TAG_enumeration_type
    2656                      .dwattr $C$DW$T$92, DW_AT_byte_size(0x01)
    2657              $C$DW$311       .dwtag  DW_TAG_enumerator, DW_AT_name("FSM_StateMode_Free_mode"), DW_AT_const_value(0x00)
    2658              $C$DW$312       .dwtag  DW_TAG_enumerator, DW_AT_name("FSM_StateMode_Nipping_mode"), DW_AT_const_value(0x01)
    2659              $C$DW$313       .dwtag  DW_TAG_enumerator, DW_AT_name("FSM_StateMode_Notching_mode"), DW_AT_const_value(0x02)
    2660              $C$DW$314       .dwtag  DW_TAG_enumerator, DW_AT_name("FSM_StateMode_TrimPlat_mode"), DW_AT_const_value(0x03)
    2661              $C$DW$315       .dwtag  DW_TAG_enumerator, DW_AT_name("FSM_StateMode_Clamper_mode"), DW_AT_const_value(0x04)
    2662              $C$DW$316       .dwtag  DW_TAG_enumerator, DW_AT_name("FSM_StateMode_GlueTank_mode"), DW_AT_const_value(0x05)
    2663              $C$DW$317       .dwtag  DW_TAG_enumerator, DW_AT_name("FSM_StateMode_BlowerFan_mode"), DW_AT_const_value(0x06
    2664              $C$DW$318       .dwtag  DW_TAG_enumerator, DW_AT_name("FSM_StateMode_Trolley_mode"), DW_AT_const_value(0x07)
    2665              $C$DW$319       .dwtag  DW_TAG_enumerator, DW_AT_name("FSM_StateMode_Num"), DW_AT_const_value(0x08)
    2666                      .dwendtag $C$DW$T$92
    2667              
    2668              $C$DW$T$93      .dwtag  DW_TAG_typedef, DW_AT_name("FSM_StateMode_e")
    2669                      .dwattr $C$DW$T$93, DW_AT_type(*$C$DW$T$92)
    2670                      .dwattr $C$DW$T$93, DW_AT_language(DW_LANG_C)
    2671              
    2672              $C$DW$T$94      .dwtag  DW_TAG_enumeration_type
    2673                      .dwattr $C$DW$T$94, DW_AT_byte_size(0x01)
    2674              $C$DW$320       .dwtag  DW_TAG_enumerator, DW_AT_name("FSM_485EditOpt_RefSpeed"), DW_AT_const_value(0x00)
    2675              $C$DW$321       .dwtag  DW_TAG_enumerator, DW_AT_name("FSM_485EditOpt_CondValue"), DW_AT_const_value(0x01)
    2676              $C$DW$322       .dwtag  DW_TAG_enumerator, DW_AT_name("FSM_485EditOpt_Condition"), DW_AT_const_value(0x02)
    2677              $C$DW$323       .dwtag  DW_TAG_enumerator, DW_AT_name("FSM_485EditOpt_RunAction"), DW_AT_const_value(0x03)
    2678              $C$DW$324       .dwtag  DW_TAG_enumerator, DW_AT_name("FSM_485EditOpt_NextState"), DW_AT_const_value(0x04)
    2679              $C$DW$325       .dwtag  DW_TAG_enumerator, DW_AT_name("FSM_485EditOpt_Num"), DW_AT_const_value(0x05)
    2680                      .dwendtag $C$DW$T$94
    2681              
    2682              $C$DW$T$95      .dwtag  DW_TAG_typedef, DW_AT_name("FSM_EditOpt_e")
TMS320C2000 Assembler PC v6.2.5 Tue Nov 21 22:57:45 2017

Tools Copyright (c) 1996-2014 Texas Instruments Incorporated
C:\Users\wmj\AppData\Local\Temp\1055210                              PAGE   53

    2683                      .dwattr $C$DW$T$95, DW_AT_type(*$C$DW$T$94)
    2684                      .dwattr $C$DW$T$95, DW_AT_language(DW_LANG_C)
    2685              
    2686              $C$DW$T$96      .dwtag  DW_TAG_enumeration_type
    2687                      .dwattr $C$DW$T$96, DW_AT_byte_size(0x01)
    2688              $C$DW$326       .dwtag  DW_TAG_enumerator, DW_AT_name("FSM_Condition_Times"), DW_AT_const_value(0x00)
    2689              $C$DW$327       .dwtag  DW_TAG_enumerator, DW_AT_name("FSM_Condition_Speed"), DW_AT_const_value(0x01)
    2690              $C$DW$328       .dwtag  DW_TAG_enumerator, DW_AT_name("FSM_Condition_485Cmd"), DW_AT_const_value(0x02)
    2691              $C$DW$329       .dwtag  DW_TAG_enumerator, DW_AT_name("FSM_Condition_KeyS1"), DW_AT_const_value(0x03)
    2692              $C$DW$330       .dwtag  DW_TAG_enumerator, DW_AT_name("FSM_Condition_KeyS2"), DW_AT_const_value(0x04)
    2693              $C$DW$331       .dwtag  DW_TAG_enumerator, DW_AT_name("FSM_Condition_AnalogS1"), DW_AT_const_value(0x05)
    2694              $C$DW$332       .dwtag  DW_TAG_enumerator, DW_AT_name("FSM_Condition_AnalogS2"), DW_AT_const_value(0x06)
    2695              $C$DW$333       .dwtag  DW_TAG_enumerator, DW_AT_name("FSM_Condition_ContactS1"), DW_AT_const_value(0x07)
    2696              $C$DW$334       .dwtag  DW_TAG_enumerator, DW_AT_name("FSM_Condition_ContactS2"), DW_AT_const_value(0x08)
    2697              $C$DW$335       .dwtag  DW_TAG_enumerator, DW_AT_name("FSM_Condition_ZeroSpeed"), DW_AT_const_value(0x09)
    2698              $C$DW$336       .dwtag  DW_TAG_enumerator, DW_AT_name("FSM_Condition_MoveStatus"), DW_AT_const_value(0x0a)
    2699              $C$DW$337       .dwtag  DW_TAG_enumerator, DW_AT_name("FSM_Condition_Num"), DW_AT_const_value(0x0b)
    2700                      .dwendtag $C$DW$T$96
    2701              
    2702              $C$DW$T$97      .dwtag  DW_TAG_typedef, DW_AT_name("FSM_Cond_e")
    2703                      .dwattr $C$DW$T$97, DW_AT_type(*$C$DW$T$96)
    2704                      .dwattr $C$DW$T$97, DW_AT_language(DW_LANG_C)
    2705              
    2706              $C$DW$T$105     .dwtag  DW_TAG_array_type
    2707                      .dwattr $C$DW$T$105, DW_AT_type(*$C$DW$T$97)
    2708                      .dwattr $C$DW$T$105, DW_AT_language(DW_LANG_C)
    2709                      .dwattr $C$DW$T$105, DW_AT_byte_size(0x0f)
    2710              $C$DW$338       .dwtag  DW_TAG_subrange_type
    2711                      .dwattr $C$DW$338, DW_AT_upper_bound(0x0e)
    2712                      .dwendtag $C$DW$T$105
    2713              
    2714              
    2715              $C$DW$T$106     .dwtag  DW_TAG_enumeration_type
    2716                      .dwattr $C$DW$T$106, DW_AT_byte_size(0x01)
    2717              $C$DW$339       .dwtag  DW_TAG_enumerator, DW_AT_name("FSM_Action_RunIDLE"), DW_AT_const_value(0x00)
    2718              $C$DW$340       .dwtag  DW_TAG_enumerator, DW_AT_name("FSM_Action_calcSensorPos"), DW_AT_const_value(0x01)
    2719              $C$DW$341       .dwtag  DW_TAG_enumerator, DW_AT_name("FSM_Action_calcRelativePos"), DW_AT_const_value(0x02)
    2720              $C$DW$342       .dwtag  DW_TAG_enumerator, DW_AT_name("FSM_Action_CheckCoverSensor"), DW_AT_const_value(0x03)
    2721              $C$DW$343       .dwtag  DW_TAG_enumerator, DW_AT_name("FSM_Action_SetPosStep"), DW_AT_const_value(0x04)
    2722              $C$DW$344       .dwtag  DW_TAG_enumerator, DW_AT_name("FSM_Action_CheckPosition"), DW_AT_const_value(0x05)
    2723              $C$DW$345       .dwtag  DW_TAG_enumerator, DW_AT_name("FSM_Action_VelTransToPos"), DW_AT_const_value(0x06)
    2724              $C$DW$346       .dwtag  DW_TAG_enumerator, DW_AT_name("FSM_Action_SetVelocity"), DW_AT_const_value(0x07)
    2725              $C$DW$347       .dwtag  DW_TAG_enumerator, DW_AT_name("FSM_Action_RunVelocityMode"), DW_AT_const_value(0x08)
    2726              $C$DW$348       .dwtag  DW_TAG_enumerator, DW_AT_name("FSM_Action_ReleaseDcBrake"), DW_AT_const_value(0x09)
    2727              $C$DW$349       .dwtag  DW_TAG_enumerator, DW_AT_name("FSM_Action_RunSTOP"), DW_AT_const_value(0x0a)
    2728              $C$DW$350       .dwtag  DW_TAG_enumerator, DW_AT_name("FSM_Action_Num"), DW_AT_const_value(0x0b)
    2729                      .dwendtag $C$DW$T$106
    2730              
    2731              $C$DW$T$107     .dwtag  DW_TAG_typedef, DW_AT_name("FSM_Action_e")
    2732                      .dwattr $C$DW$T$107, DW_AT_type(*$C$DW$T$106)
    2733                      .dwattr $C$DW$T$107, DW_AT_language(DW_LANG_C)
    2734              
    2735              $C$DW$T$108     .dwtag  DW_TAG_array_type
    2736                      .dwattr $C$DW$T$108, DW_AT_type(*$C$DW$T$107)
    2737                      .dwattr $C$DW$T$108, DW_AT_language(DW_LANG_C)
TMS320C2000 Assembler PC v6.2.5 Tue Nov 21 22:57:45 2017

Tools Copyright (c) 1996-2014 Texas Instruments Incorporated
C:\Users\wmj\AppData\Local\Temp\1055210                              PAGE   54

    2738                      .dwattr $C$DW$T$108, DW_AT_byte_size(0x0f)
    2739              $C$DW$351       .dwtag  DW_TAG_subrange_type
    2740                      .dwattr $C$DW$351, DW_AT_upper_bound(0x0e)
    2741                      .dwendtag $C$DW$T$108
    2742              
    2743              
    2744              $C$DW$T$154     .dwtag  DW_TAG_enumeration_type
    2745                      .dwattr $C$DW$T$154, DW_AT_byte_size(0x01)
    2746              $C$DW$352       .dwtag  DW_TAG_enumerator, DW_AT_name("HAL_BoardAddr_Motor1"), DW_AT_const_value(0x00)
    2747              $C$DW$353       .dwtag  DW_TAG_enumerator, DW_AT_name("HAL_BoardAddr_Motor2"), DW_AT_const_value(0x01)
    2748              $C$DW$354       .dwtag  DW_TAG_enumerator, DW_AT_name("HAL_BoardAddr_Motor3"), DW_AT_const_value(0x02)
    2749              $C$DW$355       .dwtag  DW_TAG_enumerator, DW_AT_name("HAL_BoardAddr_Motor4"), DW_AT_const_value(0x03)
    2750              $C$DW$356       .dwtag  DW_TAG_enumerator, DW_AT_name("HAL_BoardAddr_Motor5"), DW_AT_const_value(0x04)
    2751              $C$DW$357       .dwtag  DW_TAG_enumerator, DW_AT_name("HAL_BoardAddr_Motor6"), DW_AT_const_value(0x05)
    2752              $C$DW$358       .dwtag  DW_TAG_enumerator, DW_AT_name("HAL_BoardAddr_Motor7"), DW_AT_const_value(0x06)
    2753              $C$DW$359       .dwtag  DW_TAG_enumerator, DW_AT_name("HAL_BoardAddr_Heater"), DW_AT_const_value(0x07)
    2754              $C$DW$360       .dwtag  DW_TAG_enumerator, DW_AT_name("HAL_BoardAddr_OpenLoop"), DW_AT_const_value(0x08)
    2755              $C$DW$361       .dwtag  DW_TAG_enumerator, DW_AT_name("HAL_BoardAddr_Short"), DW_AT_const_value(0x09)
    2756                      .dwendtag $C$DW$T$154
    2757              
    2758              $C$DW$T$155     .dwtag  DW_TAG_typedef, DW_AT_name("HAL_BdAddr_e")
    2759                      .dwattr $C$DW$T$155, DW_AT_type(*$C$DW$T$154)
    2760                      .dwattr $C$DW$T$155, DW_AT_language(DW_LANG_C)
    2761              
    2762              $C$DW$T$171     .dwtag  DW_TAG_enumeration_type
    2763                      .dwattr $C$DW$T$171, DW_AT_byte_size(0x01)
    2764              $C$DW$362       .dwtag  DW_TAG_enumerator, DW_AT_name("MB_ENOERR"), DW_AT_const_value(0x00)
    2765              $C$DW$363       .dwtag  DW_TAG_enumerator, DW_AT_name("MB_ENOREG"), DW_AT_const_value(0x01)
    2766              $C$DW$364       .dwtag  DW_TAG_enumerator, DW_AT_name("MB_EINVAL"), DW_AT_const_value(0x02)
    2767              $C$DW$365       .dwtag  DW_TAG_enumerator, DW_AT_name("MB_EPORTERR"), DW_AT_const_value(0x03)
    2768              $C$DW$366       .dwtag  DW_TAG_enumerator, DW_AT_name("MB_ENORES"), DW_AT_const_value(0x04)
    2769              $C$DW$367       .dwtag  DW_TAG_enumerator, DW_AT_name("MB_EIO"), DW_AT_const_value(0x05)
    2770              $C$DW$368       .dwtag  DW_TAG_enumerator, DW_AT_name("MB_EILLSTATE"), DW_AT_const_value(0x06)
    2771              $C$DW$369       .dwtag  DW_TAG_enumerator, DW_AT_name("MB_ETIMEDOUT"), DW_AT_const_value(0x07)
    2772                      .dwendtag $C$DW$T$171
    2773              
    2774              $C$DW$T$172     .dwtag  DW_TAG_typedef, DW_AT_name("eMBErrorCode")
    2775                      .dwattr $C$DW$T$172, DW_AT_type(*$C$DW$T$171)
    2776                      .dwattr $C$DW$T$172, DW_AT_language(DW_LANG_C)
    2777              
    2778              $C$DW$T$173     .dwtag  DW_TAG_enumeration_type
    2779                      .dwattr $C$DW$T$173, DW_AT_byte_size(0x01)
    2780              $C$DW$370       .dwtag  DW_TAG_enumerator, DW_AT_name("STATE_TX_IDLE"), DW_AT_const_value(0x00)
    2781              $C$DW$371       .dwtag  DW_TAG_enumerator, DW_AT_name("STATE_TX_XMIT"), DW_AT_const_value(0x01)
    2782                      .dwendtag $C$DW$T$173
    2783              
    2784              $C$DW$T$174     .dwtag  DW_TAG_typedef, DW_AT_name("eMBSndState")
    2785                      .dwattr $C$DW$T$174, DW_AT_type(*$C$DW$T$173)
    2786                      .dwattr $C$DW$T$174, DW_AT_language(DW_LANG_C)
    2787              
    2788              $C$DW$T$175     .dwtag  DW_TAG_enumeration_type
    2789                      .dwattr $C$DW$T$175, DW_AT_byte_size(0x01)
    2790              $C$DW$372       .dwtag  DW_TAG_enumerator, DW_AT_name("STATE_RX_INIT"), DW_AT_const_value(0x00)
    2791              $C$DW$373       .dwtag  DW_TAG_enumerator, DW_AT_name("STATE_RX_IDLE"), DW_AT_const_value(0x01)
    2792              $C$DW$374       .dwtag  DW_TAG_enumerator, DW_AT_name("STATE_RX_RCV"), DW_AT_const_value(0x02)
TMS320C2000 Assembler PC v6.2.5 Tue Nov 21 22:57:45 2017

Tools Copyright (c) 1996-2014 Texas Instruments Incorporated
C:\Users\wmj\AppData\Local\Temp\1055210                              PAGE   55

    2793              $C$DW$375       .dwtag  DW_TAG_enumerator, DW_AT_name("STATE_RX_ERROR"), DW_AT_const_value(0x03)
    2794                      .dwendtag $C$DW$T$175
    2795              
    2796              $C$DW$T$176     .dwtag  DW_TAG_typedef, DW_AT_name("eMBRcvState")
    2797                      .dwattr $C$DW$T$176, DW_AT_type(*$C$DW$T$175)
    2798                      .dwattr $C$DW$T$176, DW_AT_language(DW_LANG_C)
    2799              
    2800              $C$DW$T$177     .dwtag  DW_TAG_enumeration_type
    2801                      .dwattr $C$DW$T$177, DW_AT_byte_size(0x01)
    2802              $C$DW$376       .dwtag  DW_TAG_enumerator, DW_AT_name("EV_READY"), DW_AT_const_value(0x00)
    2803              $C$DW$377       .dwtag  DW_TAG_enumerator, DW_AT_name("EV_FRAME_RECEIVED"), DW_AT_const_value(0x01)
    2804              $C$DW$378       .dwtag  DW_TAG_enumerator, DW_AT_name("EV_EXECUTE"), DW_AT_const_value(0x02)
    2805              $C$DW$379       .dwtag  DW_TAG_enumerator, DW_AT_name("EV_FRAME_SENT"), DW_AT_const_value(0x03)
    2806                      .dwendtag $C$DW$T$177
    2807              
    2808              $C$DW$T$178     .dwtag  DW_TAG_typedef, DW_AT_name("eMBEventType")
    2809                      .dwattr $C$DW$T$178, DW_AT_type(*$C$DW$T$177)
    2810                      .dwattr $C$DW$T$178, DW_AT_language(DW_LANG_C)
    2811              
    2812              $C$DW$T$182     .dwtag  DW_TAG_enumeration_type
    2813                      .dwattr $C$DW$T$182, DW_AT_byte_size(0x01)
    2814              $C$DW$380       .dwtag  DW_TAG_enumerator, DW_AT_name("EST_State_Error"), DW_AT_const_value(0x00)
    2815              $C$DW$381       .dwtag  DW_TAG_enumerator, DW_AT_name("EST_State_Idle"), DW_AT_const_value(0x01)
    2816              $C$DW$382       .dwtag  DW_TAG_enumerator, DW_AT_name("EST_State_RoverL"), DW_AT_const_value(0x02)
    2817              $C$DW$383       .dwtag  DW_TAG_enumerator, DW_AT_name("EST_State_Rs"), DW_AT_const_value(0x03)
    2818              $C$DW$384       .dwtag  DW_TAG_enumerator, DW_AT_name("EST_State_RampUp"), DW_AT_const_value(0x04)
    2819              $C$DW$385       .dwtag  DW_TAG_enumerator, DW_AT_name("EST_State_IdRated"), DW_AT_const_value(0x05)
    2820              $C$DW$386       .dwtag  DW_TAG_enumerator, DW_AT_name("EST_State_RatedFlux_OL"), DW_AT_const_value(0x06)
    2821              $C$DW$387       .dwtag  DW_TAG_enumerator, DW_AT_name("EST_State_RatedFlux"), DW_AT_const_value(0x07)
    2822              $C$DW$388       .dwtag  DW_TAG_enumerator, DW_AT_name("EST_State_RampDown"), DW_AT_const_value(0x08)
    2823              $C$DW$389       .dwtag  DW_TAG_enumerator, DW_AT_name("EST_State_LockRotor"), DW_AT_const_value(0x09)
    2824              $C$DW$390       .dwtag  DW_TAG_enumerator, DW_AT_name("EST_State_Ls"), DW_AT_const_value(0x0a)
    2825              $C$DW$391       .dwtag  DW_TAG_enumerator, DW_AT_name("EST_State_Rr"), DW_AT_const_value(0x0b)
    2826              $C$DW$392       .dwtag  DW_TAG_enumerator, DW_AT_name("EST_State_MotorIdentified"), DW_AT_const_value(0x0c)
    2827              $C$DW$393       .dwtag  DW_TAG_enumerator, DW_AT_name("EST_State_OnLine"), DW_AT_const_value(0x0d)
    2828              $C$DW$394       .dwtag  DW_TAG_enumerator, DW_AT_name("EST_numStates"), DW_AT_const_value(0x0e)
    2829                      .dwendtag $C$DW$T$182
    2830              
    2831              $C$DW$T$183     .dwtag  DW_TAG_typedef, DW_AT_name("EST_State_e")
    2832                      .dwattr $C$DW$T$183, DW_AT_type(*$C$DW$T$182)
    2833                      .dwattr $C$DW$T$183, DW_AT_language(DW_LANG_C)
    2834              
    2835              $C$DW$T$184     .dwtag  DW_TAG_enumeration_type
    2836                      .dwattr $C$DW$T$184, DW_AT_byte_size(0x01)
    2837              $C$DW$395       .dwtag  DW_TAG_enumerator, DW_AT_name("USER_ErrorCode_NoError"), DW_AT_const_value(0x00)
    2838              $C$DW$396       .dwtag  DW_TAG_enumerator, DW_AT_name("USER_ErrorCode_iqFullScaleCurrent_A_High"), DW_AT_cons
    2839              $C$DW$397       .dwtag  DW_TAG_enumerator, DW_AT_name("USER_ErrorCode_iqFullScaleCurrent_A_Low"), DW_AT_const
    2840              $C$DW$398       .dwtag  DW_TAG_enumerator, DW_AT_name("USER_ErrorCode_iqFullScaleVoltage_V_High"), DW_AT_cons
    2841              $C$DW$399       .dwtag  DW_TAG_enumerator, DW_AT_name("USER_ErrorCode_iqFullScaleVoltage_V_Low"), DW_AT_const
    2842              $C$DW$400       .dwtag  DW_TAG_enumerator, DW_AT_name("USER_ErrorCode_iqFullScaleFreq_Hz_High"), DW_AT_const_
    2843              $C$DW$401       .dwtag  DW_TAG_enumerator, DW_AT_name("USER_ErrorCode_iqFullScaleFreq_Hz_Low"), DW_AT_const_v
    2844              $C$DW$402       .dwtag  DW_TAG_enumerator, DW_AT_name("USER_ErrorCode_numPwmTicksPerIsrTick_High"), DW_AT_con
    2845              $C$DW$403       .dwtag  DW_TAG_enumerator, DW_AT_name("USER_ErrorCode_numPwmTicksPerIsrTick_Low"), DW_AT_cons
    2846              $C$DW$404       .dwtag  DW_TAG_enumerator, DW_AT_name("USER_ErrorCode_numIsrTicksPerCtrlTick_High"), DW_AT_co
    2847              $C$DW$405       .dwtag  DW_TAG_enumerator, DW_AT_name("USER_ErrorCode_numIsrTicksPerCtrlTick_Low"), DW_AT_con
TMS320C2000 Assembler PC v6.2.5 Tue Nov 21 22:57:45 2017

Tools Copyright (c) 1996-2014 Texas Instruments Incorporated
C:\Users\wmj\AppData\Local\Temp\1055210                              PAGE   56

    2848              $C$DW$406       .dwtag  DW_TAG_enumerator, DW_AT_name("USER_ErrorCode_numCtrlTicksPerCurrentTick_High"), DW_A
    2849              $C$DW$407       .dwtag  DW_TAG_enumerator, DW_AT_name("USER_ErrorCode_numCtrlTicksPerCurrentTick_Low"), DW_AT
    2850              $C$DW$408       .dwtag  DW_TAG_enumerator, DW_AT_name("USER_ErrorCode_numCtrlTicksPerEstTick_High"), DW_AT_co
    2851              $C$DW$409       .dwtag  DW_TAG_enumerator, DW_AT_name("USER_ErrorCode_numCtrlTicksPerEstTick_Low"), DW_AT_con
    2852              $C$DW$410       .dwtag  DW_TAG_enumerator, DW_AT_name("USER_ErrorCode_numCtrlTicksPerSpeedTick_High"), DW_AT_
    2853              $C$DW$411       .dwtag  DW_TAG_enumerator, DW_AT_name("USER_ErrorCode_numCtrlTicksPerSpeedTick_Low"), DW_AT_c
    2854              $C$DW$412       .dwtag  DW_TAG_enumerator, DW_AT_name("USER_ErrorCode_numCtrlTicksPerTrajTick_High"), DW_AT_c
    2855              $C$DW$413       .dwtag  DW_TAG_enumerator, DW_AT_name("USER_ErrorCode_numCtrlTicksPerTrajTick_Low"), DW_AT_co
    2856              $C$DW$414       .dwtag  DW_TAG_enumerator, DW_AT_name("USER_ErrorCode_numCurrentSensors_High"), DW_AT_const_v
    2857              $C$DW$415       .dwtag  DW_TAG_enumerator, DW_AT_name("USER_ErrorCode_numCurrentSensors_Low"), DW_AT_const_va
    2858              $C$DW$416       .dwtag  DW_TAG_enumerator, DW_AT_name("USER_ErrorCode_numVoltageSensors_High"), DW_AT_const_v
    2859              $C$DW$417       .dwtag  DW_TAG_enumerator, DW_AT_name("USER_ErrorCode_numVoltageSensors_Low"), DW_AT_const_va
    2860              $C$DW$418       .dwtag  DW_TAG_enumerator, DW_AT_name("USER_ErrorCode_offsetPole_rps_High"), DW_AT_const_valu
    2861              $C$DW$419       .dwtag  DW_TAG_enumerator, DW_AT_name("USER_ErrorCode_offsetPole_rps_Low"), DW_AT_const_value
    2862              $C$DW$420       .dwtag  DW_TAG_enumerator, DW_AT_name("USER_ErrorCode_fluxPole_rps_High"), DW_AT_const_value(
    2863              $C$DW$421       .dwtag  DW_TAG_enumerator, DW_AT_name("USER_ErrorCode_fluxPole_rps_Low"), DW_AT_const_value(0
    2864              $C$DW$422       .dwtag  DW_TAG_enumerator, DW_AT_name("USER_ErrorCode_zeroSpeedLimit_High"), DW_AT_const_valu
    2865              $C$DW$423       .dwtag  DW_TAG_enumerator, DW_AT_name("USER_ErrorCode_zeroSpeedLimit_Low"), DW_AT_const_value
    2866              $C$DW$424       .dwtag  DW_TAG_enumerator, DW_AT_name("USER_ErrorCode_forceAngleFreq_Hz_High"), DW_AT_const_v
    2867              $C$DW$425       .dwtag  DW_TAG_enumerator, DW_AT_name("USER_ErrorCode_forceAngleFreq_Hz_Low"), DW_AT_const_va
    2868              $C$DW$426       .dwtag  DW_TAG_enumerator, DW_AT_name("USER_ErrorCode_maxAccel_Hzps_High"), DW_AT_const_value
    2869              $C$DW$427       .dwtag  DW_TAG_enumerator, DW_AT_name("USER_ErrorCode_maxAccel_Hzps_Low"), DW_AT_const_value(
    2870              $C$DW$428       .dwtag  DW_TAG_enumerator, DW_AT_name("USER_ErrorCode_maxAccel_est_Hzps_High"), DW_AT_const_v
    2871              $C$DW$429       .dwtag  DW_TAG_enumerator, DW_AT_name("USER_ErrorCode_maxAccel_est_Hzps_Low"), DW_AT_const_va
    2872              $C$DW$430       .dwtag  DW_TAG_enumerator, DW_AT_name("USER_ErrorCode_directionPole_rps_High"), DW_AT_const_v
    2873              $C$DW$431       .dwtag  DW_TAG_enumerator, DW_AT_name("USER_ErrorCode_directionPole_rps_Low"), DW_AT_const_va
    2874              $C$DW$432       .dwtag  DW_TAG_enumerator, DW_AT_name("USER_ErrorCode_speedPole_rps_High"), DW_AT_const_value
    2875              $C$DW$433       .dwtag  DW_TAG_enumerator, DW_AT_name("USER_ErrorCode_speedPole_rps_Low"), DW_AT_const_value(
    2876              $C$DW$434       .dwtag  DW_TAG_enumerator, DW_AT_name("USER_ErrorCode_dcBusPole_rps_High"), DW_AT_const_value
    2877              $C$DW$435       .dwtag  DW_TAG_enumerator, DW_AT_name("USER_ErrorCode_dcBusPole_rps_Low"), DW_AT_const_value(
    2878              $C$DW$436       .dwtag  DW_TAG_enumerator, DW_AT_name("USER_ErrorCode_fluxFraction_High"), DW_AT_const_value(
    2879              $C$DW$437       .dwtag  DW_TAG_enumerator, DW_AT_name("USER_ErrorCode_fluxFraction_Low"), DW_AT_const_value(0
    2880              $C$DW$438       .dwtag  DW_TAG_enumerator, DW_AT_name("USER_ErrorCode_indEst_speedMaxFraction_High"), DW_AT_c
    2881              $C$DW$439       .dwtag  DW_TAG_enumerator, DW_AT_name("USER_ErrorCode_indEst_speedMaxFraction_Low"), DW_AT_co
    2882              $C$DW$440       .dwtag  DW_TAG_enumerator, DW_AT_name("USER_ErrorCode_powerWarpGain_High"), DW_AT_const_value
    2883              $C$DW$441       .dwtag  DW_TAG_enumerator, DW_AT_name("USER_ErrorCode_powerWarpGain_Low"), DW_AT_const_value(
    2884              $C$DW$442       .dwtag  DW_TAG_enumerator, DW_AT_name("USER_ErrorCode_systemFreq_MHz_High"), DW_AT_const_valu
    2885              $C$DW$443       .dwtag  DW_TAG_enumerator, DW_AT_name("USER_ErrorCode_systemFreq_MHz_Low"), DW_AT_const_value
    2886              $C$DW$444       .dwtag  DW_TAG_enumerator, DW_AT_name("USER_ErrorCode_pwmFreq_kHz_High"), DW_AT_const_value(0
    2887              $C$DW$445       .dwtag  DW_TAG_enumerator, DW_AT_name("USER_ErrorCode_pwmFreq_kHz_Low"), DW_AT_const_value(0x
    2888              $C$DW$446       .dwtag  DW_TAG_enumerator, DW_AT_name("USER_ErrorCode_voltage_sf_High"), DW_AT_const_value(0x
    2889              $C$DW$447       .dwtag  DW_TAG_enumerator, DW_AT_name("USER_ErrorCode_voltage_sf_Low"), DW_AT_const_value(0x3
    2890              $C$DW$448       .dwtag  DW_TAG_enumerator, DW_AT_name("USER_ErrorCode_current_sf_High"), DW_AT_const_value(0x
    2891              $C$DW$449       .dwtag  DW_TAG_enumerator, DW_AT_name("USER_ErrorCode_current_sf_Low"), DW_AT_const_value(0x3
    2892              $C$DW$450       .dwtag  DW_TAG_enumerator, DW_AT_name("USER_ErrorCode_voltageFilterPole_Hz_High"), DW_AT_cons
    2893              $C$DW$451       .dwtag  DW_TAG_enumerator, DW_AT_name("USER_ErrorCode_voltageFilterPole_Hz_Low"), DW_AT_const
    2894              $C$DW$452       .dwtag  DW_TAG_enumerator, DW_AT_name("USER_ErrorCode_maxVsMag_pu_High"), DW_AT_const_value(0
    2895              $C$DW$453       .dwtag  DW_TAG_enumerator, DW_AT_name("USER_ErrorCode_maxVsMag_pu_Low"), DW_AT_const_value(0x
    2896              $C$DW$454       .dwtag  DW_TAG_enumerator, DW_AT_name("USER_ErrorCode_estKappa_High"), DW_AT_const_value(0x3b
    2897              $C$DW$455       .dwtag  DW_TAG_enumerator, DW_AT_name("USER_ErrorCode_estKappa_Low"), DW_AT_const_value(0x3c)
    2898              $C$DW$456       .dwtag  DW_TAG_enumerator, DW_AT_name("USER_ErrorCode_motor_type_Unknown"), DW_AT_const_value
    2899              $C$DW$457       .dwtag  DW_TAG_enumerator, DW_AT_name("USER_ErrorCode_motor_numPolePairs_High"), DW_AT_const_
    2900              $C$DW$458       .dwtag  DW_TAG_enumerator, DW_AT_name("USER_ErrorCode_motor_numPolePairs_Low"), DW_AT_const_v
    2901              $C$DW$459       .dwtag  DW_TAG_enumerator, DW_AT_name("USER_ErrorCode_motor_ratedFlux_High"), DW_AT_const_val
    2902              $C$DW$460       .dwtag  DW_TAG_enumerator, DW_AT_name("USER_ErrorCode_motor_ratedFlux_Low"), DW_AT_const_valu
TMS320C2000 Assembler PC v6.2.5 Tue Nov 21 22:57:45 2017

Tools Copyright (c) 1996-2014 Texas Instruments Incorporated
C:\Users\wmj\AppData\Local\Temp\1055210                              PAGE   57

    2903              $C$DW$461       .dwtag  DW_TAG_enumerator, DW_AT_name("USER_ErrorCode_motor_Rr_High"), DW_AT_const_value(0x42
    2904              $C$DW$462       .dwtag  DW_TAG_enumerator, DW_AT_name("USER_ErrorCode_motor_Rr_Low"), DW_AT_const_value(0x43)
    2905              $C$DW$463       .dwtag  DW_TAG_enumerator, DW_AT_name("USER_ErrorCode_motor_Rs_High"), DW_AT_const_value(0x44
    2906              $C$DW$464       .dwtag  DW_TAG_enumerator, DW_AT_name("USER_ErrorCode_motor_Rs_Low"), DW_AT_const_value(0x45)
    2907              $C$DW$465       .dwtag  DW_TAG_enumerator, DW_AT_name("USER_ErrorCode_motor_Ls_d_High"), DW_AT_const_value(0x
    2908              $C$DW$466       .dwtag  DW_TAG_enumerator, DW_AT_name("USER_ErrorCode_motor_Ls_d_Low"), DW_AT_const_value(0x4
    2909              $C$DW$467       .dwtag  DW_TAG_enumerator, DW_AT_name("USER_ErrorCode_motor_Ls_q_High"), DW_AT_const_value(0x
    2910              $C$DW$468       .dwtag  DW_TAG_enumerator, DW_AT_name("USER_ErrorCode_motor_Ls_q_Low"), DW_AT_const_value(0x4
    2911              $C$DW$469       .dwtag  DW_TAG_enumerator, DW_AT_name("USER_ErrorCode_maxCurrent_High"), DW_AT_const_value(0x
    2912              $C$DW$470       .dwtag  DW_TAG_enumerator, DW_AT_name("USER_ErrorCode_maxCurrent_Low"), DW_AT_const_value(0x4
    2913              $C$DW$471       .dwtag  DW_TAG_enumerator, DW_AT_name("USER_ErrorCode_maxCurrent_resEst_High"), DW_AT_const_v
    2914              $C$DW$472       .dwtag  DW_TAG_enumerator, DW_AT_name("USER_ErrorCode_maxCurrent_resEst_Low"), DW_AT_const_va
    2915              $C$DW$473       .dwtag  DW_TAG_enumerator, DW_AT_name("USER_ErrorCode_maxCurrent_indEst_High"), DW_AT_const_v
    2916              $C$DW$474       .dwtag  DW_TAG_enumerator, DW_AT_name("USER_ErrorCode_maxCurrent_indEst_Low"), DW_AT_const_va
    2917              $C$DW$475       .dwtag  DW_TAG_enumerator, DW_AT_name("USER_ErrorCode_maxCurrentSlope_High"), DW_AT_const_val
    2918              $C$DW$476       .dwtag  DW_TAG_enumerator, DW_AT_name("USER_ErrorCode_maxCurrentSlope_Low"), DW_AT_const_valu
    2919              $C$DW$477       .dwtag  DW_TAG_enumerator, DW_AT_name("USER_ErrorCode_maxCurrentSlope_powerWarp_High"), DW_AT
    2920              $C$DW$478       .dwtag  DW_TAG_enumerator, DW_AT_name("USER_ErrorCode_maxCurrentSlope_powerWarp_Low"), DW_AT_
    2921              $C$DW$479       .dwtag  DW_TAG_enumerator, DW_AT_name("USER_ErrorCode_IdRated_High"), DW_AT_const_value(0x54)
    2922              $C$DW$480       .dwtag  DW_TAG_enumerator, DW_AT_name("USER_ErrorCode_IdRated_Low"), DW_AT_const_value(0x55)
    2923              $C$DW$481       .dwtag  DW_TAG_enumerator, DW_AT_name("USER_ErrorCode_IdRatedFraction_indEst_High"), DW_AT_co
    2924              $C$DW$482       .dwtag  DW_TAG_enumerator, DW_AT_name("USER_ErrorCode_IdRatedFraction_indEst_Low"), DW_AT_con
    2925              $C$DW$483       .dwtag  DW_TAG_enumerator, DW_AT_name("USER_ErrorCode_IdRatedFraction_ratedFlux_High"), DW_AT
    2926              $C$DW$484       .dwtag  DW_TAG_enumerator, DW_AT_name("USER_ErrorCode_IdRatedFraction_ratedFlux_Low"), DW_AT_
    2927              $C$DW$485       .dwtag  DW_TAG_enumerator, DW_AT_name("USER_ErrorCode_IdRated_delta_High"), DW_AT_const_value
    2928              $C$DW$486       .dwtag  DW_TAG_enumerator, DW_AT_name("USER_ErrorCode_IdRated_delta_Low"), DW_AT_const_value(
    2929              $C$DW$487       .dwtag  DW_TAG_enumerator, DW_AT_name("USER_ErrorCode_fluxEstFreq_Hz_High"), DW_AT_const_valu
    2930              $C$DW$488       .dwtag  DW_TAG_enumerator, DW_AT_name("USER_ErrorCode_fluxEstFreq_Hz_Low"), DW_AT_const_value
    2931              $C$DW$489       .dwtag  DW_TAG_enumerator, DW_AT_name("USER_ErrorCode_ctrlFreq_Hz_High"), DW_AT_const_value(0
    2932              $C$DW$490       .dwtag  DW_TAG_enumerator, DW_AT_name("USER_ErrorCode_ctrlFreq_Hz_Low"), DW_AT_const_value(0x
    2933              $C$DW$491       .dwtag  DW_TAG_enumerator, DW_AT_name("USER_ErrorCode_estFreq_Hz_High"), DW_AT_const_value(0x
    2934              $C$DW$492       .dwtag  DW_TAG_enumerator, DW_AT_name("USER_ErrorCode_estFreq_Hz_Low"), DW_AT_const_value(0x6
    2935              $C$DW$493       .dwtag  DW_TAG_enumerator, DW_AT_name("USER_ErrorCode_RoverL_estFreq_Hz_High"), DW_AT_const_v
    2936              $C$DW$494       .dwtag  DW_TAG_enumerator, DW_AT_name("USER_ErrorCode_RoverL_estFreq_Hz_Low"), DW_AT_const_va
    2937              $C$DW$495       .dwtag  DW_TAG_enumerator, DW_AT_name("USER_ErrorCode_trajFreq_Hz_High"), DW_AT_const_value(0
    2938              $C$DW$496       .dwtag  DW_TAG_enumerator, DW_AT_name("USER_ErrorCode_trajFreq_Hz_Low"), DW_AT_const_value(0x
    2939              $C$DW$497       .dwtag  DW_TAG_enumerator, DW_AT_name("USER_ErrorCode_ctrlPeriod_sec_High"), DW_AT_const_valu
    2940              $C$DW$498       .dwtag  DW_TAG_enumerator, DW_AT_name("USER_ErrorCode_ctrlPeriod_sec_Low"), DW_AT_const_value
    2941              $C$DW$499       .dwtag  DW_TAG_enumerator, DW_AT_name("USER_ErrorCode_maxNegativeIdCurrent_a_High"), DW_AT_co
    2942              $C$DW$500       .dwtag  DW_TAG_enumerator, DW_AT_name("USER_ErrorCode_maxNegativeIdCurrent_a_Low"), DW_AT_con
    2943              $C$DW$501       .dwtag  DW_TAG_enumerator, DW_AT_name("USER_numErrorCodes"), DW_AT_const_value(0x6a)
    2944                      .dwendtag $C$DW$T$184
    2945              
    2946              $C$DW$T$185     .dwtag  DW_TAG_typedef, DW_AT_name("USER_ErrorCode_e")
    2947                      .dwattr $C$DW$T$185, DW_AT_type(*$C$DW$T$184)
    2948                      .dwattr $C$DW$T$185, DW_AT_language(DW_LANG_C)
    2949              
    2950              $C$DW$T$188     .dwtag  DW_TAG_enumeration_type
    2951                      .dwattr $C$DW$T$188, DW_AT_byte_size(0x01)
    2952              $C$DW$502       .dwtag  DW_TAG_enumerator, DW_AT_name("MOTOR_Type_Induction"), DW_AT_const_value(0x00)
    2953              $C$DW$503       .dwtag  DW_TAG_enumerator, DW_AT_name("MOTOR_Type_Pm"), DW_AT_const_value(0x01)
    2954                      .dwendtag $C$DW$T$188
    2955              
    2956              $C$DW$T$189     .dwtag  DW_TAG_typedef, DW_AT_name("MOTOR_Type_e")
    2957                      .dwattr $C$DW$T$189, DW_AT_type(*$C$DW$T$188)
TMS320C2000 Assembler PC v6.2.5 Tue Nov 21 22:57:45 2017

Tools Copyright (c) 1996-2014 Texas Instruments Incorporated
C:\Users\wmj\AppData\Local\Temp\1055210                              PAGE   58

    2958                      .dwattr $C$DW$T$189, DW_AT_language(DW_LANG_C)
    2959              
    2960              $C$DW$T$245     .dwtag  DW_TAG_enumeration_type
    2961                      .dwattr $C$DW$T$245, DW_AT_byte_size(0x01)
    2962              $C$DW$504       .dwtag  DW_TAG_enumerator, DW_AT_name("ADC_IntNumber_1"), DW_AT_const_value(0x00)
    2963              $C$DW$505       .dwtag  DW_TAG_enumerator, DW_AT_name("ADC_IntNumber_2"), DW_AT_const_value(0x01)
    2964              $C$DW$506       .dwtag  DW_TAG_enumerator, DW_AT_name("ADC_IntNumber_3"), DW_AT_const_value(0x02)
    2965              $C$DW$507       .dwtag  DW_TAG_enumerator, DW_AT_name("ADC_IntNumber_4"), DW_AT_const_value(0x03)
    2966              $C$DW$508       .dwtag  DW_TAG_enumerator, DW_AT_name("ADC_IntNumber_5"), DW_AT_const_value(0x04)
    2967              $C$DW$509       .dwtag  DW_TAG_enumerator, DW_AT_name("ADC_IntNumber_6"), DW_AT_const_value(0x05)
    2968              $C$DW$510       .dwtag  DW_TAG_enumerator, DW_AT_name("ADC_IntNumber_7"), DW_AT_const_value(0x06)
    2969              $C$DW$511       .dwtag  DW_TAG_enumerator, DW_AT_name("ADC_IntNumber_8"), DW_AT_const_value(0x07)
    2970              $C$DW$512       .dwtag  DW_TAG_enumerator, DW_AT_name("ADC_IntNumber_9"), DW_AT_const_value(0x08)
    2971              $C$DW$513       .dwtag  DW_TAG_enumerator, DW_AT_name("ADC_IntNumber_1HP"), DW_AT_const_value(0x09)
    2972              $C$DW$514       .dwtag  DW_TAG_enumerator, DW_AT_name("ADC_IntNumber_2HP"), DW_AT_const_value(0x0a)
    2973              $C$DW$515       .dwtag  DW_TAG_enumerator, DW_AT_name("ADC_IntNumber_9HP"), DW_AT_const_value(0x0e)
    2974                      .dwendtag $C$DW$T$245
    2975              
    2976              $C$DW$T$246     .dwtag  DW_TAG_typedef, DW_AT_name("ADC_IntNumber_e")
    2977                      .dwattr $C$DW$T$246, DW_AT_type(*$C$DW$T$245)
    2978                      .dwattr $C$DW$T$246, DW_AT_language(DW_LANG_C)
    2979              
    2980              $C$DW$T$248     .dwtag  DW_TAG_enumeration_type
    2981                      .dwattr $C$DW$T$248, DW_AT_byte_size(0x01)
    2982              $C$DW$516       .dwtag  DW_TAG_enumerator, DW_AT_name("ADC_ResultNumber_0"), DW_AT_const_value(0x00)
    2983              $C$DW$517       .dwtag  DW_TAG_enumerator, DW_AT_name("ADC_ResultNumber_1"), DW_AT_const_value(0x01)
    2984              $C$DW$518       .dwtag  DW_TAG_enumerator, DW_AT_name("ADC_ResultNumber_2"), DW_AT_const_value(0x02)
    2985              $C$DW$519       .dwtag  DW_TAG_enumerator, DW_AT_name("ADC_ResultNumber_3"), DW_AT_const_value(0x03)
    2986              $C$DW$520       .dwtag  DW_TAG_enumerator, DW_AT_name("ADC_ResultNumber_4"), DW_AT_const_value(0x04)
    2987              $C$DW$521       .dwtag  DW_TAG_enumerator, DW_AT_name("ADC_ResultNumber_5"), DW_AT_const_value(0x05)
    2988              $C$DW$522       .dwtag  DW_TAG_enumerator, DW_AT_name("ADC_ResultNumber_6"), DW_AT_const_value(0x06)
    2989              $C$DW$523       .dwtag  DW_TAG_enumerator, DW_AT_name("ADC_ResultNumber_7"), DW_AT_const_value(0x07)
    2990              $C$DW$524       .dwtag  DW_TAG_enumerator, DW_AT_name("ADC_ResultNumber_8"), DW_AT_const_value(0x08)
    2991              $C$DW$525       .dwtag  DW_TAG_enumerator, DW_AT_name("ADC_ResultNumber_9"), DW_AT_const_value(0x09)
    2992              $C$DW$526       .dwtag  DW_TAG_enumerator, DW_AT_name("ADC_ResultNumber_10"), DW_AT_const_value(0x0a)
    2993              $C$DW$527       .dwtag  DW_TAG_enumerator, DW_AT_name("ADC_ResultNumber_11"), DW_AT_const_value(0x0b)
    2994              $C$DW$528       .dwtag  DW_TAG_enumerator, DW_AT_name("ADC_ResultNumber_12"), DW_AT_const_value(0x0c)
    2995              $C$DW$529       .dwtag  DW_TAG_enumerator, DW_AT_name("ADC_ResultNumber_13"), DW_AT_const_value(0x0d)
    2996              $C$DW$530       .dwtag  DW_TAG_enumerator, DW_AT_name("ADC_ResultNumber_14"), DW_AT_const_value(0x0e)
    2997              $C$DW$531       .dwtag  DW_TAG_enumerator, DW_AT_name("ADC_ResultNumber_15"), DW_AT_const_value(0x0f)
    2998                      .dwendtag $C$DW$T$248
    2999              
    3000              $C$DW$T$249     .dwtag  DW_TAG_typedef, DW_AT_name("ADC_ResultNumber_e")
    3001                      .dwattr $C$DW$T$249, DW_AT_type(*$C$DW$T$248)
    3002                      .dwattr $C$DW$T$249, DW_AT_language(DW_LANG_C)
    3003              
    3004              $C$DW$T$251     .dwtag  DW_TAG_enumeration_type
    3005                      .dwattr $C$DW$T$251, DW_AT_byte_size(0x01)
    3006              $C$DW$532       .dwtag  DW_TAG_enumerator, DW_AT_name("GPIO_Number_0"), DW_AT_const_value(0x00)
    3007              $C$DW$533       .dwtag  DW_TAG_enumerator, DW_AT_name("GPIO_Number_1"), DW_AT_const_value(0x01)
    3008              $C$DW$534       .dwtag  DW_TAG_enumerator, DW_AT_name("GPIO_Number_2"), DW_AT_const_value(0x02)
    3009              $C$DW$535       .dwtag  DW_TAG_enumerator, DW_AT_name("GPIO_Number_3"), DW_AT_const_value(0x03)
    3010              $C$DW$536       .dwtag  DW_TAG_enumerator, DW_AT_name("GPIO_Number_4"), DW_AT_const_value(0x04)
    3011              $C$DW$537       .dwtag  DW_TAG_enumerator, DW_AT_name("GPIO_Number_5"), DW_AT_const_value(0x05)
    3012              $C$DW$538       .dwtag  DW_TAG_enumerator, DW_AT_name("GPIO_Number_6"), DW_AT_const_value(0x06)
TMS320C2000 Assembler PC v6.2.5 Tue Nov 21 22:57:45 2017

Tools Copyright (c) 1996-2014 Texas Instruments Incorporated
C:\Users\wmj\AppData\Local\Temp\1055210                              PAGE   59

    3013              $C$DW$539       .dwtag  DW_TAG_enumerator, DW_AT_name("GPIO_Number_7"), DW_AT_const_value(0x07)
    3014              $C$DW$540       .dwtag  DW_TAG_enumerator, DW_AT_name("GPIO_Rsvd_8"), DW_AT_const_value(0x08)
    3015              $C$DW$541       .dwtag  DW_TAG_enumerator, DW_AT_name("GPIO_Rsvd_9"), DW_AT_const_value(0x09)
    3016              $C$DW$542       .dwtag  DW_TAG_enumerator, DW_AT_name("GPIO_Rsvd_10"), DW_AT_const_value(0x0a)
    3017              $C$DW$543       .dwtag  DW_TAG_enumerator, DW_AT_name("GPIO_Rsvd_11"), DW_AT_const_value(0x0b)
    3018              $C$DW$544       .dwtag  DW_TAG_enumerator, DW_AT_name("GPIO_Number_12"), DW_AT_const_value(0x0c)
    3019              $C$DW$545       .dwtag  DW_TAG_enumerator, DW_AT_name("GPIO_Rsvd_13"), DW_AT_const_value(0x0d)
    3020              $C$DW$546       .dwtag  DW_TAG_enumerator, DW_AT_name("GPIO_Rsvd_14"), DW_AT_const_value(0x0e)
