TMS320C2000 Assembler PC v15.12.3 Wed Nov 22 00:56:30 2017

Tools Copyright (c) 1996-2015 Texas Instruments Incorporated
C:\Users\wmj\AppData\Local\Temp\0764810                              PAGE    1

       1              ;***************************************************************
       2              ;* TMS320C2000 C/C++ Codegen                   PC v15.12.3.LTS *
       3              ;* Date/Time created: Wed Nov 22 00:56:28 2017                 *
       4              ;***************************************************************
       5                      .compiler_opts --abi=coffabi --float_support=softlib --hll_source=on --mem_model:code=flat --mem_mode
       6        0002  FP      .set    XAR2
       7              
       8              $C$DW$CU        .dwtag  DW_TAG_compile_unit
       9                      .dwattr $C$DW$CU, DW_AT_name("C:/Users/wmj/Desktop/BM1000_v1.1/sw/modules/user/src/32b/user.c")
      10                      .dwattr $C$DW$CU, DW_AT_producer("TI TMS320C2000 C/C++ Codegen PC v15.12.3.LTS Copyright (c) 1996-201
      11                      .dwattr $C$DW$CU, DW_AT_TI_version(0x01)
      12                      .dwattr $C$DW$CU, DW_AT_comp_dir("C:\Users\wmj\Desktop\BM1000_v1.1\sw\solutions\instaspin_foc\boards\
      13              
      14              $C$DW$1 .dwtag  DW_TAG_subprogram
      15                      .dwattr $C$DW$1, DW_AT_name("EST_setLs_qFmt")
      16                      .dwattr $C$DW$1, DW_AT_TI_symbol_name("_EST_setLs_qFmt")
      17                      .dwattr $C$DW$1, DW_AT_declaration
      18                      .dwattr $C$DW$1, DW_AT_external
      19              $C$DW$2 .dwtag  DW_TAG_formal_parameter
      20                      .dwattr $C$DW$2, DW_AT_type(*$C$DW$T$36)
      21              
      22              $C$DW$3 .dwtag  DW_TAG_formal_parameter
      23                      .dwattr $C$DW$3, DW_AT_type(*$C$DW$T$114)
      24              
      25                      .dwendtag $C$DW$1
      26              
      27              
      28              $C$DW$4 .dwtag  DW_TAG_subprogram
      29                      .dwattr $C$DW$4, DW_AT_name("CTRL_setGains")
      30                      .dwattr $C$DW$4, DW_AT_TI_symbol_name("_CTRL_setGains")
      31                      .dwattr $C$DW$4, DW_AT_declaration
      32                      .dwattr $C$DW$4, DW_AT_external
      33              $C$DW$5 .dwtag  DW_TAG_formal_parameter
      34                      .dwattr $C$DW$5, DW_AT_type(*$C$DW$T$93)
      35              
      36              $C$DW$6 .dwtag  DW_TAG_formal_parameter
      37                      .dwattr $C$DW$6, DW_AT_type(*$C$DW$T$90)
      38              
      39              $C$DW$7 .dwtag  DW_TAG_formal_parameter
      40                      .dwattr $C$DW$7, DW_AT_type(*$C$DW$T$111)
      41              
      42              $C$DW$8 .dwtag  DW_TAG_formal_parameter
      43                      .dwattr $C$DW$8, DW_AT_type(*$C$DW$T$111)
      44              
      45              $C$DW$9 .dwtag  DW_TAG_formal_parameter
      46                      .dwattr $C$DW$9, DW_AT_type(*$C$DW$T$111)
      47              
      48                      .dwendtag $C$DW$4
      49              
      50              
      51              $C$DW$10        .dwtag  DW_TAG_subprogram
      52                      .dwattr $C$DW$10, DW_AT_name("EST_setLs_d_pu")
      53                      .dwattr $C$DW$10, DW_AT_TI_symbol_name("_EST_setLs_d_pu")
      54                      .dwattr $C$DW$10, DW_AT_declaration
      55                      .dwattr $C$DW$10, DW_AT_external
TMS320C2000 Assembler PC v15.12.3 Wed Nov 22 00:56:30 2017

Tools Copyright (c) 1996-2015 Texas Instruments Incorporated
C:\Users\wmj\AppData\Local\Temp\0764810                              PAGE    2

      56              $C$DW$11        .dwtag  DW_TAG_formal_parameter
      57                      .dwattr $C$DW$11, DW_AT_type(*$C$DW$T$36)
      58              
      59              $C$DW$12        .dwtag  DW_TAG_formal_parameter
      60                      .dwattr $C$DW$12, DW_AT_type(*$C$DW$T$111)
      61              
      62                      .dwendtag $C$DW$10
      63              
      64              
      65              $C$DW$13        .dwtag  DW_TAG_subprogram
      66                      .dwattr $C$DW$13, DW_AT_name("EST_setLs_q_pu")
      67                      .dwattr $C$DW$13, DW_AT_TI_symbol_name("_EST_setLs_q_pu")
      68                      .dwattr $C$DW$13, DW_AT_declaration
      69                      .dwattr $C$DW$13, DW_AT_external
      70              $C$DW$14        .dwtag  DW_TAG_formal_parameter
      71                      .dwattr $C$DW$14, DW_AT_type(*$C$DW$T$36)
      72              
      73              $C$DW$15        .dwtag  DW_TAG_formal_parameter
      74                      .dwattr $C$DW$15, DW_AT_type(*$C$DW$T$111)
      75              
      76                      .dwendtag $C$DW$13
      77              
      78              
      79              $C$DW$16        .dwtag  DW_TAG_subprogram
      80                      .dwattr $C$DW$16, DW_AT_name("__IQmpy")
      81                      .dwattr $C$DW$16, DW_AT_TI_symbol_name("___IQmpy")
      82                      .dwattr $C$DW$16, DW_AT_type(*$C$DW$T$12)
      83                      .dwattr $C$DW$16, DW_AT_declaration
      84                      .dwattr $C$DW$16, DW_AT_external
      85              $C$DW$17        .dwtag  DW_TAG_formal_parameter
      86                      .dwattr $C$DW$17, DW_AT_type(*$C$DW$T$12)
      87              
      88              $C$DW$18        .dwtag  DW_TAG_formal_parameter
      89                      .dwattr $C$DW$18, DW_AT_type(*$C$DW$T$12)
      90              
      91              $C$DW$19        .dwtag  DW_TAG_formal_parameter
      92                      .dwattr $C$DW$19, DW_AT_type(*$C$DW$T$10)
      93              
      94                      .dwendtag $C$DW$16
      95              
      96              
      97              $C$DW$20        .dwtag  DW_TAG_subprogram
      98                      .dwattr $C$DW$20, DW_AT_name("pow")
      99                      .dwattr $C$DW$20, DW_AT_TI_symbol_name("_pow")
     100                      .dwattr $C$DW$20, DW_AT_type(*$C$DW$T$17)
     101                      .dwattr $C$DW$20, DW_AT_declaration
     102                      .dwattr $C$DW$20, DW_AT_external
     103              $C$DW$21        .dwtag  DW_TAG_formal_parameter
     104                      .dwattr $C$DW$21, DW_AT_type(*$C$DW$T$17)
     105              
     106              $C$DW$22        .dwtag  DW_TAG_formal_parameter
     107                      .dwattr $C$DW$22, DW_AT_type(*$C$DW$T$17)
     108              
     109                      .dwendtag $C$DW$20
     110              
TMS320C2000 Assembler PC v15.12.3 Wed Nov 22 00:56:30 2017

Tools Copyright (c) 1996-2015 Texas Instruments Incorporated
C:\Users\wmj\AppData\Local\Temp\0764810                              PAGE    3

     111              
     112              $C$DW$23        .dwtag  DW_TAG_subprogram
     113                      .dwattr $C$DW$23, DW_AT_name("log")
     114                      .dwattr $C$DW$23, DW_AT_TI_symbol_name("_log")
     115                      .dwattr $C$DW$23, DW_AT_type(*$C$DW$T$17)
     116                      .dwattr $C$DW$23, DW_AT_declaration
     117                      .dwattr $C$DW$23, DW_AT_external
     118              $C$DW$24        .dwtag  DW_TAG_formal_parameter
     119                      .dwattr $C$DW$24, DW_AT_type(*$C$DW$T$17)
     120              
     121                      .dwendtag $C$DW$23
     122              
     123              
     124              $C$DW$25        .dwtag  DW_TAG_subprogram
     125                      .dwattr $C$DW$25, DW_AT_name("EST_getLs_q_H")
     126                      .dwattr $C$DW$25, DW_AT_TI_symbol_name("_EST_getLs_q_H")
     127                      .dwattr $C$DW$25, DW_AT_type(*$C$DW$T$57)
     128                      .dwattr $C$DW$25, DW_AT_declaration
     129                      .dwattr $C$DW$25, DW_AT_external
     130              $C$DW$26        .dwtag  DW_TAG_formal_parameter
     131                      .dwattr $C$DW$26, DW_AT_type(*$C$DW$T$36)
     132              
     133                      .dwendtag $C$DW$25
     134              
     135              
     136              $C$DW$27        .dwtag  DW_TAG_subprogram
     137                      .dwattr $C$DW$27, DW_AT_name("EST_getLs_d_pu")
     138                      .dwattr $C$DW$27, DW_AT_TI_symbol_name("_EST_getLs_d_pu")
     139                      .dwattr $C$DW$27, DW_AT_type(*$C$DW$T$20)
     140                      .dwattr $C$DW$27, DW_AT_declaration
     141                      .dwattr $C$DW$27, DW_AT_external
     142              $C$DW$28        .dwtag  DW_TAG_formal_parameter
     143                      .dwattr $C$DW$28, DW_AT_type(*$C$DW$T$36)
     144              
     145                      .dwendtag $C$DW$27
     146              
     147              
     148              $C$DW$29        .dwtag  DW_TAG_subprogram
     149                      .dwattr $C$DW$29, DW_AT_name("EST_getLs_q_pu")
     150                      .dwattr $C$DW$29, DW_AT_TI_symbol_name("_EST_getLs_q_pu")
     151                      .dwattr $C$DW$29, DW_AT_type(*$C$DW$T$20)
     152                      .dwattr $C$DW$29, DW_AT_declaration
     153                      .dwattr $C$DW$29, DW_AT_external
     154              $C$DW$30        .dwtag  DW_TAG_formal_parameter
     155                      .dwattr $C$DW$30, DW_AT_type(*$C$DW$T$36)
     156              
     157                      .dwendtag $C$DW$29
     158              
     159              
     160              $C$DW$31        .dwtag  DW_TAG_subprogram
     161                      .dwattr $C$DW$31, DW_AT_name("EST_getRs_Ohm")
     162                      .dwattr $C$DW$31, DW_AT_TI_symbol_name("_EST_getRs_Ohm")
     163                      .dwattr $C$DW$31, DW_AT_type(*$C$DW$T$57)
     164                      .dwattr $C$DW$31, DW_AT_declaration
     165                      .dwattr $C$DW$31, DW_AT_external
TMS320C2000 Assembler PC v15.12.3 Wed Nov 22 00:56:30 2017

Tools Copyright (c) 1996-2015 Texas Instruments Incorporated
C:\Users\wmj\AppData\Local\Temp\0764810                              PAGE    4

     166              $C$DW$32        .dwtag  DW_TAG_formal_parameter
     167                      .dwattr $C$DW$32, DW_AT_type(*$C$DW$T$36)
     168              
     169                      .dwendtag $C$DW$31
     170              
     171              
     172              $C$DW$33        .dwtag  DW_TAG_subprogram
     173                      .dwattr $C$DW$33, DW_AT_name("EST_getLs_coarse_max_pu")
     174                      .dwattr $C$DW$33, DW_AT_TI_symbol_name("_EST_getLs_coarse_max_pu")
     175                      .dwattr $C$DW$33, DW_AT_type(*$C$DW$T$20)
     176                      .dwattr $C$DW$33, DW_AT_declaration
     177                      .dwattr $C$DW$33, DW_AT_external
     178              $C$DW$34        .dwtag  DW_TAG_formal_parameter
     179                      .dwattr $C$DW$34, DW_AT_type(*$C$DW$T$36)
     180              
     181                      .dwendtag $C$DW$33
     182              
     183              
     184              $C$DW$35        .dwtag  DW_TAG_subprogram
     185                      .dwattr $C$DW$35, DW_AT_name("ceil")
     186                      .dwattr $C$DW$35, DW_AT_TI_symbol_name("_ceil")
     187                      .dwattr $C$DW$35, DW_AT_type(*$C$DW$T$17)
     188                      .dwattr $C$DW$35, DW_AT_declaration
     189                      .dwattr $C$DW$35, DW_AT_external
     190              $C$DW$36        .dwtag  DW_TAG_formal_parameter
     191                      .dwattr $C$DW$36, DW_AT_type(*$C$DW$T$17)
     192              
     193                      .dwendtag $C$DW$35
     194              
     195              
     196              $C$DW$37        .dwtag  DW_TAG_subprogram
     197                      .dwattr $C$DW$37, DW_AT_name("_IQ30toF")
     198                      .dwattr $C$DW$37, DW_AT_TI_symbol_name("__IQ30toF")
     199                      .dwattr $C$DW$37, DW_AT_type(*$C$DW$T$16)
     200                      .dwattr $C$DW$37, DW_AT_declaration
     201                      .dwattr $C$DW$37, DW_AT_external
     202              $C$DW$38        .dwtag  DW_TAG_formal_parameter
     203                      .dwattr $C$DW$38, DW_AT_type(*$C$DW$T$12)
     204              
     205                      .dwendtag $C$DW$37
     206              
     207              
     208              $C$DW$39        .dwtag  DW_TAG_subprogram
     209                      .dwattr $C$DW$39, DW_AT_name("EST_getLs_d_H")
     210                      .dwattr $C$DW$39, DW_AT_TI_symbol_name("_EST_getLs_d_H")
     211                      .dwattr $C$DW$39, DW_AT_type(*$C$DW$T$57)
     212                      .dwattr $C$DW$39, DW_AT_declaration
     213                      .dwattr $C$DW$39, DW_AT_external
     214              $C$DW$40        .dwtag  DW_TAG_formal_parameter
     215                      .dwattr $C$DW$40, DW_AT_type(*$C$DW$T$36)
     216              
     217                      .dwendtag $C$DW$39
     218              
     219              
     220              $C$DW$41        .dwtag  DW_TAG_subprogram
TMS320C2000 Assembler PC v15.12.3 Wed Nov 22 00:56:30 2017

Tools Copyright (c) 1996-2015 Texas Instruments Incorporated
C:\Users\wmj\AppData\Local\Temp\0764810                              PAGE    5

     221                      .dwattr $C$DW$41, DW_AT_name("EST_getFlux_pu")
     222                      .dwattr $C$DW$41, DW_AT_TI_symbol_name("_EST_getFlux_pu")
     223                      .dwattr $C$DW$41, DW_AT_type(*$C$DW$T$20)
     224                      .dwattr $C$DW$41, DW_AT_declaration
     225                      .dwattr $C$DW$41, DW_AT_external
     226              $C$DW$42        .dwtag  DW_TAG_formal_parameter
     227                      .dwattr $C$DW$42, DW_AT_type(*$C$DW$T$36)
     228              
     229                      .dwendtag $C$DW$41
     230              
     231                      .global _BOARD_Params
     232 00000000               .sect   ".econst:_BOARD_Params"
     233                      .clink
     234                      .align  2
     235 00000000       _BOARD_Params:
     236 00000000 0000          .xfloat $strtod("0x1.4p+3")             ; _BOARD_Params[0]._iqFullScaleCurrent_A @ 0
         00000001 4120 
     237 00000002 0000          .xfloat $strtod("0x1.f4p+8")            ; _BOARD_Params[0]._iqFullScaleVoltage_V @ 32
         00000003 43FA 
     238 00000004 1EB8          .xfloat $strtod("0x1.3e3d7p+4")         ; _BOARD_Params[0]._adcFullScaleCurrent_A @ 64
         00000005 419F 
     239 00000006 0000          .xfloat $strtod("0x1.c6p+8")            ; _BOARD_Params[0]._adcFullScaleVoltage_V @ 96
         00000007 43E3 
     240 00000008 0000          .xfloat $strtod("0x1.4p+3")             ; _BOARD_Params[1]._iqFullScaleCurrent_A @ 128
         00000009 4120 
     241 0000000a 0000          .xfloat $strtod("0x1.f4p+8")            ; _BOARD_Params[1]._iqFullScaleVoltage_V @ 160
         0000000b 43FA 
     242 0000000c 1EB8          .xfloat $strtod("0x1.3e3d7p+4")         ; _BOARD_Params[1]._adcFullScaleCurrent_A @ 192
         0000000d 419F 
     243 0000000e 0000          .xfloat $strtod("0x1.c6p+8")            ; _BOARD_Params[1]._adcFullScaleVoltage_V @ 224
         0000000f 43E3 
     244 00000010 0000          .xfloat $strtod("0x1p+1")               ; _BOARD_Params[2]._iqFullScaleCurrent_A @ 256
         00000011 4000 
     245 00000012 0000          .xfloat $strtod("0x1.f4p+8")            ; _BOARD_Params[2]._iqFullScaleVoltage_V @ 288
         00000013 43FA 
     246 00000014 70A4          .xfloat $strtod("0x1.fae148p+1")                ; _BOARD_Params[2]._adcFullScaleCurrent_A @ 320
         00000015 407D 
     247 00000016 0000          .xfloat $strtod("0x1.c6p+8")            ; _BOARD_Params[2]._adcFullScaleVoltage_V @ 352
         00000017 43E3 
     248 00000018 0000          .xfloat $strtod("0x1p+1")               ; _BOARD_Params[3]._iqFullScaleCurrent_A @ 384
         00000019 4000 
     249 0000001a 0000          .xfloat $strtod("0x1.f4p+8")            ; _BOARD_Params[3]._iqFullScaleVoltage_V @ 416
         0000001b 43FA 
     250 0000001c 70A4          .xfloat $strtod("0x1.fae148p+1")                ; _BOARD_Params[3]._adcFullScaleCurrent_A @ 448
         0000001d 407D 
     251 0000001e 0000          .xfloat $strtod("0x1.c6p+8")            ; _BOARD_Params[3]._adcFullScaleVoltage_V @ 480
         0000001f 43E3 
     252 00000020 0000          .xfloat $strtod("0x1p+1")               ; _BOARD_Params[4]._iqFullScaleCurrent_A @ 512
         00000021 4000 
     253 00000022 0000          .xfloat $strtod("0x1.f4p+8")            ; _BOARD_Params[4]._iqFullScaleVoltage_V @ 544
         00000023 43FA 
     254 00000024 70A4          .xfloat $strtod("0x1.fae148p+1")                ; _BOARD_Params[4]._adcFullScaleCurrent_A @ 576
         00000025 407D 
     255 00000026 0000          .xfloat $strtod("0x1.c6p+8")            ; _BOARD_Params[4]._adcFullScaleVoltage_V @ 608
         00000027 43E3 
TMS320C2000 Assembler PC v15.12.3 Wed Nov 22 00:56:30 2017

Tools Copyright (c) 1996-2015 Texas Instruments Incorporated
C:\Users\wmj\AppData\Local\Temp\0764810                              PAGE    6

     256 00000028 0000          .xfloat $strtod("0x1.4p+3")             ; _BOARD_Params[5]._iqFullScaleCurrent_A @ 640
         00000029 4120 
     257 0000002a 0000          .xfloat $strtod("0x1.f4p+8")            ; _BOARD_Params[5]._iqFullScaleVoltage_V @ 672
         0000002b 43FA 
     258 0000002c 1EB8          .xfloat $strtod("0x1.3e3d7p+4")         ; _BOARD_Params[5]._adcFullScaleCurrent_A @ 704
         0000002d 419F 
     259 0000002e 0000          .xfloat $strtod("0x1.c6p+8")            ; _BOARD_Params[5]._adcFullScaleVoltage_V @ 736
         0000002f 43E3 
     260 00000030 0000          .xfloat $strtod("0x1.4p+3")             ; _BOARD_Params[6]._iqFullScaleCurrent_A @ 768
         00000031 4120 
     261 00000032 0000          .xfloat $strtod("0x1.f4p+8")            ; _BOARD_Params[6]._iqFullScaleVoltage_V @ 800
         00000033 43FA 
     262 00000034 1EB8          .xfloat $strtod("0x1.3e3d7p+4")         ; _BOARD_Params[6]._adcFullScaleCurrent_A @ 832
         00000035 419F 
     263 00000036 0000          .xfloat $strtod("0x1.c6p+8")            ; _BOARD_Params[6]._adcFullScaleVoltage_V @ 864
         00000037 43E3 
     264              
     265              $C$DW$43        .dwtag  DW_TAG_variable
     266                      .dwattr $C$DW$43, DW_AT_name("BOARD_Params")
     267                      .dwattr $C$DW$43, DW_AT_TI_symbol_name("_BOARD_Params")
     268                      .dwattr $C$DW$43, DW_AT_location[DW_OP_addr _BOARD_Params]
     269                      .dwattr $C$DW$43, DW_AT_type(*$C$DW$T$101)
     270                      .dwattr $C$DW$43, DW_AT_external
     271              
     272                      .global _MOTOR_DATA
     273 00000000               .sect   ".econst:_MOTOR_DATA"
     274                      .clink
     275                      .align  2
     276 00000000       _MOTOR_DATA:
     277 00000000 0000          .bits   0,16                    ; _MOTOR_DATA[0]._motor_type @ 0
     278 00000001 0001          .bits   1,16                    ; _MOTOR_DATA[0]._motor_numPolePairs @ 16
     279 00000002 8242          .xfloat $strtod("0x1.750484p+0")                ; _MOTOR_DATA[0]._motor_Rr @ 32
         00000003 3FBA 
     280 00000004 9864          .xfloat $strtod("0x1.0930c8p+1")                ; _MOTOR_DATA[0]._motor_Rs @ 64
         00000005 4004 
     281 00000006 77D0          .xfloat $strtod("0x1.92efap-6")         ; _MOTOR_DATA[0]._motor_Ls_d @ 96
         00000007 3CC9 
     282 00000008 77D0          .xfloat $strtod("0x1.92efap-6")         ; _MOTOR_DATA[0]._motor_Ls_q @ 128
         00000009 3CC9 
     283 0000000a 5048          .xfloat $strtod("0x1.90a09p+1")         ; _MOTOR_DATA[0]._motor_ratedFlux @ 160
         0000000b 4048 
     284 0000000c 1F2D          .xfloat $strtod("0x1.563e5ap+1")                ; _MOTOR_DATA[0]._IdRated @ 192
         0000000d 402B 
     285 0000000e 0000          .xfloat $strtod("0x1p+0")               ; _MOTOR_DATA[0]._maxCurrent_resEst @ 224
         0000000f 3F80 
     286 00000010 0000          .xfloat $strtod("0x0p+0")               ; _MOTOR_DATA[0]._maxCurrent_indEst @ 256
         00000011 0000 
     287 00000012 0000          .xfloat $strtod("0x1.4p+2")             ; _MOTOR_DATA[0]._maxCurrent @ 288
         00000013 40A0 
     288 00000014 0000          .xfloat $strtod("0x1.4p+2")             ; _MOTOR_DATA[0]._fluxEstFreq_Hz @ 320
         00000015 40A0 
     289 00000016 0000          .bits   0,16                    ; _MOTOR_DATA[1]._motor_type @ 352
     290 00000017 0002          .bits   2,16                    ; _MOTOR_DATA[1]._motor_numPolePairs @ 368
     291 00000018 CBBC          .xfloat $strtod("0x1.979778p+4")                ; _MOTOR_DATA[1]._motor_Rr @ 384
         00000019 41CB 
TMS320C2000 Assembler PC v15.12.3 Wed Nov 22 00:56:30 2017

Tools Copyright (c) 1996-2015 Texas Instruments Incorporated
C:\Users\wmj\AppData\Local\Temp\0764810                              PAGE    7

     292 0000001a C6B2          .xfloat $strtod("0x1.1d8d64p+4")                ; _MOTOR_DATA[1]._motor_Rs @ 416
         0000001b 418E 
     293 0000001c F847          .xfloat $strtod("0x1.2ff08ep-4")                ; _MOTOR_DATA[1]._motor_Ls_d @ 448
         0000001d 3D97 
     294 0000001e F847          .xfloat $strtod("0x1.2ff08ep-4")                ; _MOTOR_DATA[1]._motor_Ls_q @ 480
         0000001f 3D97 
     295 00000020 5048          .xfloat $strtod("0x1.90a09p+1")         ; _MOTOR_DATA[1]._motor_ratedFlux @ 512
         00000021 4048 
     296 00000022 1C33          .xfloat $strtod("0x1.7c3866p-1")                ; _MOTOR_DATA[1]._IdRated @ 544
         00000023 3F3E 
     297 00000024 CCCD          .xfloat $strtod("0x1.99999ap-3")                ; _MOTOR_DATA[1]._maxCurrent_resEst @ 576
         00000025 3E4C 
     298 00000026 0000          .xfloat $strtod("0x0p+0")               ; _MOTOR_DATA[1]._maxCurrent_indEst @ 608
         00000027 0000 
     299 00000028 CCCD          .xfloat $strtod("0x1.99999ap+0")                ; _MOTOR_DATA[1]._maxCurrent @ 640
         00000029 3FCC 
     300 0000002a 0000          .xfloat $strtod("0x1.4p+2")             ; _MOTOR_DATA[1]._fluxEstFreq_Hz @ 672
         0000002b 40A0 
     301 0000002c 0000          .bits   0,16                    ; _MOTOR_DATA[2]._motor_type @ 704
     302 0000002d 0002          .bits   2,16                    ; _MOTOR_DATA[2]._motor_numPolePairs @ 720
     303 0000002e D850          .xfloat $strtod("0x1.47b0ap+7")         ; _MOTOR_DATA[2]._motor_Rr @ 736
         0000002f 4323 
     304 00000030 B483          .xfloat $strtod("0x1.cf6906p+6")                ; _MOTOR_DATA[2]._motor_Rs @ 768
         00000031 42E7 
     305 00000032 6602          .xfloat $strtod("0x1.3acc04p-2")                ; _MOTOR_DATA[2]._motor_Ls_d @ 800
         00000033 3E9D 
     306 00000034 6602          .xfloat $strtod("0x1.3acc04p-2")                ; _MOTOR_DATA[2]._motor_Ls_q @ 832
         00000035 3E9D 
     307 00000036 5048          .xfloat $strtod("0x1.90a09p+1")         ; _MOTOR_DATA[2]._motor_ratedFlux @ 864
         00000037 4048 
     308 00000038 CCC8          .xfloat $strtod("0x1.99999p-3")         ; _MOTOR_DATA[2]._IdRated @ 896
         00000039 3E4C 
     309 0000003a CCCD          .xfloat $strtod("0x1.99999ap-5")                ; _MOTOR_DATA[2]._maxCurrent_resEst @ 928
         0000003b 3D4C 
     310 0000003c 0000          .xfloat $strtod("0x0p+0")               ; _MOTOR_DATA[2]._maxCurrent_indEst @ 960
         0000003d 0000 
     311 0000003e 999A          .xfloat $strtod("0x1.333334p-2")                ; _MOTOR_DATA[2]._maxCurrent @ 992
         0000003f 3E99 
     312 00000040 0000          .xfloat $strtod("0x1.4p+2")             ; _MOTOR_DATA[2]._fluxEstFreq_Hz @ 1024
         00000041 40A0 
     313 00000042 0000          .bits   0,16                    ; _MOTOR_DATA[3]._motor_type @ 1056
     314 00000043 0002          .bits   2,16                    ; _MOTOR_DATA[3]._motor_numPolePairs @ 1072
     315 00000044 D850          .xfloat $strtod("0x1.47b0ap+7")         ; _MOTOR_DATA[3]._motor_Rr @ 1088
         00000045 4323 
     316 00000046 B483          .xfloat $strtod("0x1.cf6906p+6")                ; _MOTOR_DATA[3]._motor_Rs @ 1120
         00000047 42E7 
     317 00000048 6602          .xfloat $strtod("0x1.3acc04p-2")                ; _MOTOR_DATA[3]._motor_Ls_d @ 1152
         00000049 3E9D 
     318 0000004a 6602          .xfloat $strtod("0x1.3acc04p-2")                ; _MOTOR_DATA[3]._motor_Ls_q @ 1184
         0000004b 3E9D 
     319 0000004c 5048          .xfloat $strtod("0x1.90a09p+1")         ; _MOTOR_DATA[3]._motor_ratedFlux @ 1216
         0000004d 4048 
     320 0000004e CCC8          .xfloat $strtod("0x1.99999p-3")         ; _MOTOR_DATA[3]._IdRated @ 1248
         0000004f 3E4C 
     321 00000050 CCCD          .xfloat $strtod("0x1.99999ap-5")                ; _MOTOR_DATA[3]._maxCurrent_resEst @ 1280
TMS320C2000 Assembler PC v15.12.3 Wed Nov 22 00:56:30 2017

Tools Copyright (c) 1996-2015 Texas Instruments Incorporated
C:\Users\wmj\AppData\Local\Temp\0764810                              PAGE    8

         00000051 3D4C 
     322 00000052 0000          .xfloat $strtod("0x0p+0")               ; _MOTOR_DATA[3]._maxCurrent_indEst @ 1312
         00000053 0000 
     323 00000054 999A          .xfloat $strtod("0x1.333334p-2")                ; _MOTOR_DATA[3]._maxCurrent @ 1344
         00000055 3E99 
     324 00000056 0000          .xfloat $strtod("0x1.4p+2")             ; _MOTOR_DATA[3]._fluxEstFreq_Hz @ 1376
         00000057 40A0 
     325 00000058 0000          .bits   0,16                    ; _MOTOR_DATA[4]._motor_type @ 1408
     326 00000059 0002          .bits   2,16                    ; _MOTOR_DATA[4]._motor_numPolePairs @ 1424
     327 0000005a B0A4          .xfloat $strtod("0x1.ff6148p+7")                ; _MOTOR_DATA[4]._motor_Rr @ 1440
         0000005b 437F 
     328 0000005c 0B96          .xfloat $strtod("0x1.32172cp+8")                ; _MOTOR_DATA[4]._motor_Rs @ 1472
         0000005d 4399 
     329 0000005e 93B5          .xfloat $strtod("0x1.c7276ap-2")                ; _MOTOR_DATA[4]._motor_Ls_d @ 1504
         0000005f 3EE3 
     330 00000060 93B5          .xfloat $strtod("0x1.c7276ap-2")                ; _MOTOR_DATA[4]._motor_Ls_q @ 1536
         00000061 3EE3 
     331 00000062 5048          .xfloat $strtod("0x1.90a09p+1")         ; _MOTOR_DATA[4]._motor_ratedFlux @ 1568
         00000063 4048 
     332 00000064 CDC3          .xfloat $strtod("0x1.fd9b86p-4")                ; _MOTOR_DATA[4]._IdRated @ 1600
         00000065 3DFE 
     333 00000066 CCCD          .xfloat $strtod("0x1.99999ap-5")                ; _MOTOR_DATA[4]._maxCurrent_resEst @ 1632
         00000067 3D4C 
     334 00000068 0000          .xfloat $strtod("0x0p+0")               ; _MOTOR_DATA[4]._maxCurrent_indEst @ 1664
         00000069 0000 
     335 0000006a 999A          .xfloat $strtod("0x1.333334p-2")                ; _MOTOR_DATA[4]._maxCurrent @ 1696
         0000006b 3E99 
     336 0000006c 0000          .xfloat $strtod("0x1.4p+2")             ; _MOTOR_DATA[4]._fluxEstFreq_Hz @ 1728
         0000006d 40A0 
     337 0000006e 0000          .bits   0,16                    ; _MOTOR_DATA[5]._motor_type @ 1760
     338 0000006f 0002          .bits   2,16                    ; _MOTOR_DATA[5]._motor_numPolePairs @ 1776
     339 00000070 2C88          .xfloat $strtod("0x1.2c591p+7")         ; _MOTOR_DATA[5]._motor_Rr @ 1792
         00000071 4316 
     340 00000072 5FC3          .xfloat $strtod("0x1.5ebf86p+6")                ; _MOTOR_DATA[5]._motor_Rs @ 1824
         00000073 42AF 
     341 00000074 EF2D          .xfloat $strtod("0x1.a7de5ap-4")                ; _MOTOR_DATA[5]._motor_Ls_d @ 1856
         00000075 3DD3 
     342 00000076 EF2D          .xfloat $strtod("0x1.a7de5ap-4")                ; _MOTOR_DATA[5]._motor_Ls_q @ 1888
         00000077 3DD3 
     343 00000078 5048          .xfloat $strtod("0x1.90a09p+1")         ; _MOTOR_DATA[5]._motor_ratedFlux @ 1920
         00000079 4048 
     344 0000007a A248          .xfloat $strtod("0x1.ed449p-3")         ; _MOTOR_DATA[5]._IdRated @ 1952
         0000007b 3E76 
     345 0000007c CCCD          .xfloat $strtod("0x1.99999ap-5")                ; _MOTOR_DATA[5]._maxCurrent_resEst @ 1984
         0000007d 3D4C 
     346 0000007e 0000          .xfloat $strtod("0x0p+0")               ; _MOTOR_DATA[5]._maxCurrent_indEst @ 2016
         0000007f 0000 
     347 00000080 999A          .xfloat $strtod("0x1.333334p-2")                ; _MOTOR_DATA[5]._maxCurrent @ 2048
         00000081 3E99 
     348 00000082 0000          .xfloat $strtod("0x1.4p+2")             ; _MOTOR_DATA[5]._fluxEstFreq_Hz @ 2080
         00000083 40A0 
     349 00000084 0000          .bits   0,16                    ; _MOTOR_DATA[6]._motor_type @ 2112
     350 00000085 0002          .bits   2,16                    ; _MOTOR_DATA[6]._motor_numPolePairs @ 2128
     351 00000086 72AF          .xfloat $strtod("0x1.00e55ep+4")                ; _MOTOR_DATA[6]._motor_Rr @ 2144
         00000087 4180 
TMS320C2000 Assembler PC v15.12.3 Wed Nov 22 00:56:30 2017

Tools Copyright (c) 1996-2015 Texas Instruments Incorporated
C:\Users\wmj\AppData\Local\Temp\0764810                              PAGE    9

     352 00000088 C528          .xfloat $strtod("0x1.058a5p+3")         ; _MOTOR_DATA[6]._motor_Rs @ 2176
         00000089 4102 
     353 0000008a 01ED          .xfloat $strtod("0x1.a603dap-6")                ; _MOTOR_DATA[6]._motor_Ls_d @ 2208
         0000008b 3CD3 
     354 0000008c 01ED          .xfloat $strtod("0x1.a603dap-6")                ; _MOTOR_DATA[6]._motor_Ls_q @ 2240
         0000008d 3CD3 
     355 0000008e 5048          .xfloat $strtod("0x1.90a09p+1")         ; _MOTOR_DATA[6]._motor_ratedFlux @ 2272
         0000008f 4048 
     356 00000090 F3E4          .xfloat $strtod("0x1.03e7c8p+0")                ; _MOTOR_DATA[6]._IdRated @ 2304
         00000091 3F81 
     357 00000092 999A          .xfloat $strtod("0x1.333334p-2")                ; _MOTOR_DATA[6]._maxCurrent_resEst @ 2336
         00000093 3E99 
     358 00000094 0000          .xfloat $strtod("0x0p+0")               ; _MOTOR_DATA[6]._maxCurrent_indEst @ 2368
         00000095 0000 
     359 00000096 999A          .xfloat $strtod("0x1.333334p+0")                ; _MOTOR_DATA[6]._maxCurrent @ 2400
         00000097 3F99 
     360 00000098 0000          .xfloat $strtod("0x1.4p+2")             ; _MOTOR_DATA[6]._fluxEstFreq_Hz @ 2432
         00000099 40A0 
     361              
     362              $C$DW$44        .dwtag  DW_TAG_variable
     363                      .dwattr $C$DW$44, DW_AT_name("MOTOR_DATA")
     364                      .dwattr $C$DW$44, DW_AT_TI_symbol_name("_MOTOR_DATA")
     365                      .dwattr $C$DW$44, DW_AT_location[DW_OP_addr _MOTOR_DATA]
     366                      .dwattr $C$DW$44, DW_AT_type(*$C$DW$T$107)
     367                      .dwattr $C$DW$44, DW_AT_external
     368              
     369              ;       C:\ti\ccsv6\tools\compiler\c2000_15.12.3.LTS\bin\opt2000.exe C:\\Users\\wmj\\AppData\\Local\\Temp\\07
     370              ;       C:\ti\ccsv6\tools\compiler\c2000_15.12.3.LTS\bin\ac2000.exe -@C:\\Users\\wmj\\AppData\\Local\\Temp\\0
     371 00000000               .sect   ".text"
     372                      .clink
     373                      .global _USER_softwareUpdate1p6
     374              
     375              $C$DW$45        .dwtag  DW_TAG_subprogram
     376                      .dwattr $C$DW$45, DW_AT_name("USER_softwareUpdate1p6")
     377                      .dwattr $C$DW$45, DW_AT_low_pc(_USER_softwareUpdate1p6)
     378                      .dwattr $C$DW$45, DW_AT_high_pc(0x00)
     379                      .dwattr $C$DW$45, DW_AT_TI_symbol_name("_USER_softwareUpdate1p6")
     380                      .dwattr $C$DW$45, DW_AT_external
     381                      .dwattr $C$DW$45, DW_AT_TI_begin_file("C:/Users/wmj/Desktop/BM1000_v1.1/sw/modules/user/src/32b/user.
     382                      .dwattr $C$DW$45, DW_AT_TI_begin_line(0x38b)
     383                      .dwattr $C$DW$45, DW_AT_TI_begin_column(0x06)
     384                      .dwattr $C$DW$45, DW_AT_TI_max_frame_size(-20)
     385                      .dwpsn  file "C:/Users/wmj/Desktop/BM1000_v1.1/sw/modules/user/src/32b/user.c",line 908,column 1,is_s
     386              
     387                      .dwfde $C$DW$CIE, _USER_softwareUpdate1p6
     388              $C$DW$46        .dwtag  DW_TAG_formal_parameter
     389                      .dwattr $C$DW$46, DW_AT_name("handle")
     390                      .dwattr $C$DW$46, DW_AT_TI_symbol_name("_handle")
     391                      .dwattr $C$DW$46, DW_AT_type(*$C$DW$T$93)
     392                      .dwattr $C$DW$46, DW_AT_location[DW_OP_reg12]
     393              
     394              $C$DW$47        .dwtag  DW_TAG_formal_parameter
     395                      .dwattr $C$DW$47, DW_AT_name("pUserParams")
     396                      .dwattr $C$DW$47, DW_AT_TI_symbol_name("_pUserParams")
     397                      .dwattr $C$DW$47, DW_AT_type(*$C$DW$T$85)
TMS320C2000 Assembler PC v15.12.3 Wed Nov 22 00:56:30 2017

Tools Copyright (c) 1996-2015 Texas Instruments Incorporated
C:\Users\wmj\AppData\Local\Temp\0764810                              PAGE   10

     398                      .dwattr $C$DW$47, DW_AT_location[DW_OP_reg14]
     399              
     400              
     401              ;***************************************************************
     402              ;* FNAME: _USER_softwareUpdate1p6       FR SIZE:  18           *
     403              ;*                                                             *
     404              ;* FUNCTION ENVIRONMENT                                        *
     405              ;*                                                             *
     406              ;* FUNCTION PROPERTIES                                         *
     407              ;*                            2 Parameter,  9 Auto,  6 SOE     *
     408              ;***************************************************************
     409              
     410              _USER_softwareUpdate1p6:
     411              ;* AR1   assigned to _handle
     412              $C$DW$48        .dwtag  DW_TAG_variable
     413                      .dwattr $C$DW$48, DW_AT_name("handle")
     414                      .dwattr $C$DW$48, DW_AT_TI_symbol_name("_handle")
     415                      .dwattr $C$DW$48, DW_AT_type(*$C$DW$T$94)
     416                      .dwattr $C$DW$48, DW_AT_location[DW_OP_reg6]
     417              
     418              ;* AR2   assigned to _pUserParams
     419              $C$DW$49        .dwtag  DW_TAG_variable
     420                      .dwattr $C$DW$49, DW_AT_name("pUserParams")
     421                      .dwattr $C$DW$49, DW_AT_TI_symbol_name("_pUserParams")
     422                      .dwattr $C$DW$49, DW_AT_type(*$C$DW$T$96)
     423                      .dwattr $C$DW$49, DW_AT_location[DW_OP_reg8]
     424              
     425              ;* AR2   assigned to _fullScaleInductance
     426              $C$DW$50        .dwtag  DW_TAG_variable
     427                      .dwattr $C$DW$50, DW_AT_name("fullScaleInductance")
     428                      .dwattr $C$DW$50, DW_AT_TI_symbol_name("_fullScaleInductance")
     429                      .dwattr $C$DW$50, DW_AT_type(*$C$DW$T$57)
     430                      .dwattr $C$DW$50, DW_AT_location[DW_OP_reg8]
     431              
     432              $C$DW$51        .dwtag  DW_TAG_variable
     433                      .dwattr $C$DW$51, DW_AT_name("lShift")
     434                      .dwattr $C$DW$51, DW_AT_TI_symbol_name("_lShift")
     435                      .dwattr $C$DW$51, DW_AT_type(*$C$DW$T$126)
     436                      .dwattr $C$DW$51, DW_AT_location[DW_OP_breg20 -11]
     437              
     438              ;* AR2   assigned to _L_max
     439              $C$DW$52        .dwtag  DW_TAG_variable
     440                      .dwattr $C$DW$52, DW_AT_name("L_max")
     441                      .dwattr $C$DW$52, DW_AT_TI_symbol_name("_L_max")
     442                      .dwattr $C$DW$52, DW_AT_type(*$C$DW$T$57)
     443                      .dwattr $C$DW$52, DW_AT_location[DW_OP_reg8]
     444              
     445              ;* AR3   assigned to _Ls_q_pu
     446              $C$DW$53        .dwtag  DW_TAG_variable
     447                      .dwattr $C$DW$53, DW_AT_name("Ls_q_pu")
     448                      .dwattr $C$DW$53, DW_AT_TI_symbol_name("_Ls_q_pu")
     449                      .dwattr $C$DW$53, DW_AT_type(*$C$DW$T$20)
     450                      .dwattr $C$DW$53, DW_AT_location[DW_OP_reg10]
     451              
     452                      .dwcfi  cfa_offset, -2
TMS320C2000 Assembler PC v15.12.3 Wed Nov 22 00:56:30 2017

Tools Copyright (c) 1996-2015 Texas Instruments Incorporated
C:\Users\wmj\AppData\Local\Temp\0764810                              PAGE   11

     453                      .dwcfi  save_reg_to_mem, 26, 0
     454 00000000 B2BD          MOVL      *SP++,XAR1            ; [CPU_] 
     455                      .dwcfi  save_reg_to_mem, 7, 2
     456                      .dwcfi  cfa_offset, -4
     457 00000001 AABD          MOVL      *SP++,XAR2            ; [CPU_] 
     458                      .dwcfi  save_reg_to_mem, 9, 4
     459                      .dwcfi  cfa_offset, -6
     460 00000002 A2BD          MOVL      *SP++,XAR3            ; [CPU_] 
     461                      .dwcfi  save_reg_to_mem, 11, 6
     462                      .dwcfi  cfa_offset, -8
     463 00000003 FE0C          ADDB      SP,#12                ; [CPU_U] 
     464                      .dwcfi  cfa_offset, -20
     465                      .dwpsn  file "C:/Users/wmj/Desktop/BM1000_v1.1/sw/modules/user/src/32b/user.c",line 910,column 31,is_
     466 00000004 28A9          MOV       AL,#18377             ; [CPU_] |910| 
         00000005 47C9 
     467                      .dwpsn  file "C:/Users/wmj/Desktop/BM1000_v1.1/sw/modules/user/src/32b/user.c",line 908,column 1,is_s
     468 00000006 86A5          MOVL      XAR2,XAR5             ; [CPU_] |908| 
     469                      .dwpsn  file "C:/Users/wmj/Desktop/BM1000_v1.1/sw/modules/user/src/32b/user.c",line 910,column 31,is_
     470 00000007 28A8          MOV       AH,#17682             ; [CPU_] |910| 
         00000008 4512 
     471                      .dwpsn  file "C:/Users/wmj/Desktop/BM1000_v1.1/sw/modules/user/src/32b/user.c",line 908,column 1,is_s
     472 00000009 8BA4          MOVL      XAR1,XAR4             ; [CPU_] |908| 
     473                      .dwpsn  file "C:/Users/wmj/Desktop/BM1000_v1.1/sw/modules/user/src/32b/user.c",line 910,column 31,is_
     474 0000000a 1E42          MOVL      *-SP[2],ACC           ; [CPU_] |910| 
     475 0000000b 06C2          MOVL      ACC,*+XAR2[0]         ; [CPU_] |910| 
     476              $C$DW$54        .dwtag  DW_TAG_TI_branch
     477                      .dwattr $C$DW$54, DW_AT_low_pc(0x00)
     478                      .dwattr $C$DW$54, DW_AT_name("FS$$MPY")
     479                      .dwattr $C$DW$54, DW_AT_TI_call
     480              
     481 0000000c 7640!         LCR       #FS$$MPY              ; [CPU_] |910| 
         0000000d 0000 
     482                      ; call occurs [#FS$$MPY] ; [] |910| 
     483 0000000e 1E42          MOVL      *-SP[2],ACC           ; [CPU_] |910| 
     484 0000000f 06D2          MOVL      ACC,*+XAR2[2]         ; [CPU_] |910| 
     485              $C$DW$55        .dwtag  DW_TAG_TI_branch
     486                      .dwattr $C$DW$55, DW_AT_low_pc(0x00)
     487                      .dwattr $C$DW$55, DW_AT_name("FS$$DIV")
     488                      .dwattr $C$DW$55, DW_AT_TI_call
     489              
     490 00000010 7640!         LCR       #FS$$DIV              ; [CPU_] |910| 
         00000011 0000 
     491                      ; call occurs [#FS$$DIV] ; [] |910| 
     492                      .dwpsn  file "C:/Users/wmj/Desktop/BM1000_v1.1/sw/modules/user/src/32b/user.c",line 911,column 25,is_
     493 00000012 D018          MOVB      XAR0,#24              ; [CPU_] |911| 
     494                      .dwpsn  file "C:/Users/wmj/Desktop/BM1000_v1.1/sw/modules/user/src/32b/user.c",line 910,column 31,is_
     495 00000013 86A9          MOVL      XAR2,ACC              ; [CPU_] |910| 
     496                      .dwpsn  file "C:/Users/wmj/Desktop/BM1000_v1.1/sw/modules/user/src/32b/user.c",line 911,column 25,is_
     497 00000014 8A91          MOVL      XAR4,*+XAR1[AR0]      ; [CPU_] |911| 
     498              $C$DW$56        .dwtag  DW_TAG_TI_branch
     499                      .dwattr $C$DW$56, DW_AT_low_pc(0x00)
     500                      .dwattr $C$DW$56, DW_AT_name("_EST_getLs_coarse_max_pu")
     501                      .dwattr $C$DW$56, DW_AT_TI_call
     502              
     503 00000015 7640!         LCR       #_EST_getLs_coarse_max_pu ; [CPU_] |911| 
TMS320C2000 Assembler PC v15.12.3 Wed Nov 22 00:56:30 2017

Tools Copyright (c) 1996-2015 Texas Instruments Incorporated
C:\Users\wmj\AppData\Local\Temp\0764810                              PAGE   12

         00000016 0000 
     504                      ; call occurs [#_EST_getLs_coarse_max_pu] ; [] |911| 
     505              $C$DW$57        .dwtag  DW_TAG_TI_branch
     506                      .dwattr $C$DW$57, DW_AT_low_pc(0x00)
     507                      .dwattr $C$DW$57, DW_AT_name("__IQ30toF")
     508                      .dwattr $C$DW$57, DW_AT_TI_call
     509              
     510 00000017 7640!         LCR       #__IQ30toF            ; [CPU_] |911| 
         00000018 0000 
     511                      ; call occurs [#__IQ30toF] ; [] |911| 
     512                      .dwpsn  file "C:/Users/wmj/Desktop/BM1000_v1.1/sw/modules/user/src/32b/user.c",line 912,column 23,is_
     513 00000019 AA42          MOVL      *-SP[2],XAR2          ; [CPU_] |912| 
     514              $C$DW$58        .dwtag  DW_TAG_TI_branch
     515                      .dwattr $C$DW$58, DW_AT_low_pc(0x00)
     516                      .dwattr $C$DW$58, DW_AT_name("FS$$MPY")
     517                      .dwattr $C$DW$58, DW_AT_TI_call
     518              
     519 0000001a 7640!         LCR       #FS$$MPY              ; [CPU_] |912| 
         0000001b 0000 
     520                      ; call occurs [#FS$$MPY] ; [] |912| 
     521 0000001c D088          MOVB      XAR0,#136             ; [CPU_] |912| 
     522 0000001d 1E42          MOVL      *-SP[2],ACC           ; [CPU_] |912| 
     523 0000001e 0691          MOVL      ACC,*+XAR1[AR0]       ; [CPU_] |912| 
     524              $C$DW$59        .dwtag  DW_TAG_TI_branch
     525                      .dwattr $C$DW$59, DW_AT_low_pc(0x00)
     526                      .dwattr $C$DW$59, DW_AT_name("FS$$DIV")
     527                      .dwattr $C$DW$59, DW_AT_TI_call
     528              
     529 0000001f 7640!         LCR       #FS$$DIV              ; [CPU_] |912| 
         00000020 0000 
     530                      ; call occurs [#FS$$DIV] ; [] |912| 
     531              $C$DW$60        .dwtag  DW_TAG_TI_branch
     532                      .dwattr $C$DW$60, DW_AT_low_pc(0x00)
     533                      .dwattr $C$DW$60, DW_AT_name("_log")
     534                      .dwattr $C$DW$60, DW_AT_TI_call
     535              
     536 00000021 7640!         LCR       #_log                 ; [CPU_] |912| 
         00000022 0000 
     537                      ; call occurs [#_log] ; [] |912| 
     538 00000023 82A9          MOVL      XAR3,ACC              ; [CPU_] |912| 
     539 00000024 9A00          MOV       AL,#0                 ; [CPU_] |912| 
     540 00000025 28A8          MOV       AH,#16384             ; [CPU_] |912| 
         00000026 4000 
     541              $C$DW$61        .dwtag  DW_TAG_TI_branch
     542                      .dwattr $C$DW$61, DW_AT_low_pc(0x00)
     543                      .dwattr $C$DW$61, DW_AT_name("_log")
     544                      .dwattr $C$DW$61, DW_AT_TI_call
     545              
     546 00000027 7640!         LCR       #_log                 ; [CPU_] |912| 
         00000028 0000 
     547                      ; call occurs [#_log] ; [] |912| 
     548 00000029 1E42          MOVL      *-SP[2],ACC           ; [CPU_] |912| 
     549 0000002a A2A9          MOVL      ACC,XAR3              ; [CPU_] |912| 
     550              $C$DW$62        .dwtag  DW_TAG_TI_branch
     551                      .dwattr $C$DW$62, DW_AT_low_pc(0x00)
TMS320C2000 Assembler PC v15.12.3 Wed Nov 22 00:56:30 2017

Tools Copyright (c) 1996-2015 Texas Instruments Incorporated
C:\Users\wmj\AppData\Local\Temp\0764810                              PAGE   13

     552                      .dwattr $C$DW$62, DW_AT_name("FS$$DIV")
     553                      .dwattr $C$DW$62, DW_AT_TI_call
     554              
     555 0000002b 7640!         LCR       #FS$$DIV              ; [CPU_] |912| 
         0000002c 0000 
     556                      ; call occurs [#FS$$DIV] ; [] |912| 
     557              $C$DW$63        .dwtag  DW_TAG_TI_branch
     558                      .dwattr $C$DW$63, DW_AT_low_pc(0x00)
     559                      .dwattr $C$DW$63, DW_AT_name("_ceil")
     560                      .dwattr $C$DW$63, DW_AT_TI_call
     561              
     562 0000002d 7640!         LCR       #_ceil                ; [CPU_] |912| 
         0000002e 0000 
     563                      ; call occurs [#_ceil] ; [] |912| 
     564              $C$DW$64        .dwtag  DW_TAG_TI_branch
     565                      .dwattr $C$DW$64, DW_AT_low_pc(0x00)
     566                      .dwattr $C$DW$64, DW_AT_name("FS$$TOI")
     567                      .dwattr $C$DW$64, DW_AT_TI_call
     568              
     569 0000002f 7640!         LCR       #FS$$TOI              ; [CPU_] |912| 
         00000030 0000 
     570                      ; call occurs [#FS$$TOI] ; [] |912| 
     571 00000031 964B          MOV       *-SP[11],AL           ; [CPU_] |912| 
     572                      .dwpsn  file "C:/Users/wmj/Desktop/BM1000_v1.1/sw/modules/user/src/32b/user.c",line 914,column 17,is_
     573              $C$DW$65        .dwtag  DW_TAG_TI_branch
     574                      .dwattr $C$DW$65, DW_AT_low_pc(0x00)
     575                      .dwattr $C$DW$65, DW_AT_name("I$$TOFS")
     576                      .dwattr $C$DW$65, DW_AT_TI_call
     577              
     578 00000032 7640!         LCR       #I$$TOFS              ; [CPU_] |914| 
         00000033 0000 
     579                      ; call occurs [#I$$TOFS] ; [] |914| 
     580 00000034 1E42          MOVL      *-SP[2],ACC           ; [CPU_] |914| 
     581 00000035 9A00          MOV       AL,#0                 ; [CPU_] |914| 
     582 00000036 28A8          MOV       AH,#16384             ; [CPU_] |914| 
         00000037 4000 
     583              $C$DW$66        .dwtag  DW_TAG_TI_branch
     584                      .dwattr $C$DW$66, DW_AT_low_pc(0x00)
     585                      .dwattr $C$DW$66, DW_AT_name("_pow")
     586                      .dwattr $C$DW$66, DW_AT_TI_call
     587              
     588 00000038 7640!         LCR       #_pow                 ; [CPU_] |914| 
         00000039 0000 
     589                      ; call occurs [#_pow] ; [] |914| 
     590 0000003a AA42          MOVL      *-SP[2],XAR2          ; [CPU_] |914| 
     591              $C$DW$67        .dwtag  DW_TAG_TI_branch
     592                      .dwattr $C$DW$67, DW_AT_low_pc(0x00)
     593                      .dwattr $C$DW$67, DW_AT_name("FS$$MPY")
     594                      .dwattr $C$DW$67, DW_AT_TI_call
     595              
     596 0000003b 7640!         LCR       #FS$$MPY              ; [CPU_] |914| 
         0000003c 0000 
     597                      ; call occurs [#FS$$MPY] ; [] |914| 
     598                      .dwpsn  file "C:/Users/wmj/Desktop/BM1000_v1.1/sw/modules/user/src/32b/user.c",line 916,column 15,is_
     599 0000003d D08A          MOVB      XAR0,#138             ; [CPU_] |916| 
TMS320C2000 Assembler PC v15.12.3 Wed Nov 22 00:56:30 2017

Tools Copyright (c) 1996-2015 Texas Instruments Incorporated
C:\Users\wmj\AppData\Local\Temp\0764810                              PAGE   14

     600                      .dwpsn  file "C:/Users/wmj/Desktop/BM1000_v1.1/sw/modules/user/src/32b/user.c",line 914,column 17,is_
     601 0000003e 86A9          MOVL      XAR2,ACC              ; [CPU_] |914| 
     602                      .dwpsn  file "C:/Users/wmj/Desktop/BM1000_v1.1/sw/modules/user/src/32b/user.c",line 916,column 15,is_
     603 0000003f 1E42          MOVL      *-SP[2],ACC           ; [CPU_] |916| 
     604 00000040 0691          MOVL      ACC,*+XAR1[AR0]       ; [CPU_] |916| 
     605              $C$DW$68        .dwtag  DW_TAG_TI_branch
     606                      .dwattr $C$DW$68, DW_AT_low_pc(0x00)
     607                      .dwattr $C$DW$68, DW_AT_name("FS$$DIV")
     608                      .dwattr $C$DW$68, DW_AT_TI_call
     609              
     610 00000041 7640!         LCR       #FS$$DIV              ; [CPU_] |916| 
         00000042 0000 
     611                      ; call occurs [#FS$$DIV] ; [] |916| 
     612 00000043 5CAD          MOVZ      AR4,SP                ; [CPU_] |916| 
     613 00000044 DC8A          SUBB      XAR4,#10              ; [CPU_U] |916| 
     614 00000045 88A4          MOVZ      AR6,AR4               ; [CPU_] |916| 
     615              $C$DW$69        .dwtag  DW_TAG_TI_branch
     616                      .dwattr $C$DW$69, DW_AT_low_pc(0x00)
     617                      .dwattr $C$DW$69, DW_AT_name("FS$$TOFD")
     618                      .dwattr $C$DW$69, DW_AT_TI_call
     619              
     620 00000046 7640!         LCR       #FS$$TOFD             ; [CPU_] |916| 
         00000047 0000 
     621                      ; call occurs [#FS$$TOFD] ; [] |916| 
     622 00000048 5DAD          MOVZ      AR5,SP                ; [CPU_] |916| 
     623 00000049 5CAD          MOVZ      AR4,SP                ; [CPU_] |916| 
     624 0000004a DD86          SUBB      XAR5,#6               ; [CPU_U] |916| 
     625 0000004b DC8A          SUBB      XAR4,#10              ; [CPU_U] |916| 
     626 0000004c 88A5          MOVZ      AR6,AR5               ; [CPU_] |916| 
     627 0000004d 5CA4          MOVZ      AR4,AR4               ; [CPU_] |916| 
     628 0000004e 8F40+         MOVL      XAR5,#$C$FL1          ; [CPU_U] |916| 
         0000004f 0000 
     629              $C$DW$70        .dwtag  DW_TAG_TI_branch
     630                      .dwattr $C$DW$70, DW_AT_low_pc(0x00)
     631                      .dwattr $C$DW$70, DW_AT_name("FD$$MPY")
     632                      .dwattr $C$DW$70, DW_AT_TI_call
     633              
     634 00000050 7640!         LCR       #FD$$MPY              ; [CPU_] |916| 
         00000051 0000 
     635                      ; call occurs [#FD$$MPY] ; [] |916| 
     636 00000052 5CAD          MOVZ      AR4,SP                ; [CPU_] |916| 
     637 00000053 DC86          SUBB      XAR4,#6               ; [CPU_U] |916| 
     638 00000054 5CA4          MOVZ      AR4,AR4               ; [CPU_] |916| 
     639              $C$DW$71        .dwtag  DW_TAG_TI_branch
     640                      .dwattr $C$DW$71, DW_AT_low_pc(0x00)
     641                      .dwattr $C$DW$71, DW_AT_name("FD$$TOL")
     642                      .dwattr $C$DW$71, DW_AT_TI_call
     643              
     644 00000055 7640!         LCR       #FD$$TOL              ; [CPU_] |916| 
         00000056 0000 
     645                      ; call occurs [#FD$$TOL] ; [] |916| 
     646                      .dwpsn  file "C:/Users/wmj/Desktop/BM1000_v1.1/sw/modules/user/src/32b/user.c",line 920,column 3,is_s
     647 00000057 AA42          MOVL      *-SP[2],XAR2          ; [CPU_] |920| 
     648 00000058 D088          MOVB      XAR0,#136             ; [CPU_] |920| 
     649                      .dwpsn  file "C:/Users/wmj/Desktop/BM1000_v1.1/sw/modules/user/src/32b/user.c",line 916,column 15,is_
TMS320C2000 Assembler PC v15.12.3 Wed Nov 22 00:56:30 2017

Tools Copyright (c) 1996-2015 Texas Instruments Incorporated
C:\Users\wmj\AppData\Local\Temp\0764810                              PAGE   15

     650 00000059 82A9          MOVL      XAR3,ACC              ; [CPU_] |916| 
     651                      .dwpsn  file "C:/Users/wmj/Desktop/BM1000_v1.1/sw/modules/user/src/32b/user.c",line 920,column 3,is_s
     652 0000005a 0691          MOVL      ACC,*+XAR1[AR0]       ; [CPU_] |920| 
     653              $C$DW$72        .dwtag  DW_TAG_TI_branch
     654                      .dwattr $C$DW$72, DW_AT_low_pc(0x00)
     655                      .dwattr $C$DW$72, DW_AT_name("FS$$DIV")
     656                      .dwattr $C$DW$72, DW_AT_TI_call
     657              
     658 0000005b 7640!         LCR       #FS$$DIV              ; [CPU_] |920| 
         0000005c 0000 
     659                      ; call occurs [#FS$$DIV] ; [] |920| 
     660 0000005d 5CAD          MOVZ      AR4,SP                ; [CPU_] |920| 
     661 0000005e DC8A          SUBB      XAR4,#10              ; [CPU_U] |920| 
     662 0000005f 88A4          MOVZ      AR6,AR4               ; [CPU_] |920| 
     663              $C$DW$73        .dwtag  DW_TAG_TI_branch
     664                      .dwattr $C$DW$73, DW_AT_low_pc(0x00)
     665                      .dwattr $C$DW$73, DW_AT_name("FS$$TOFD")
     666                      .dwattr $C$DW$73, DW_AT_TI_call
     667              
     668 00000060 7640!         LCR       #FS$$TOFD             ; [CPU_] |920| 
         00000061 0000 
     669                      ; call occurs [#FS$$TOFD] ; [] |920| 
     670 00000062 5DAD          MOVZ      AR5,SP                ; [CPU_] |920| 
     671 00000063 5CAD          MOVZ      AR4,SP                ; [CPU_] |920| 
     672 00000064 DD86          SUBB      XAR5,#6               ; [CPU_U] |920| 
     673 00000065 DC8A          SUBB      XAR4,#10              ; [CPU_U] |920| 
     674 00000066 88A5          MOVZ      AR6,AR5               ; [CPU_] |920| 
     675 00000067 5CA4          MOVZ      AR4,AR4               ; [CPU_] |920| 
     676 00000068 8F40+         MOVL      XAR5,#$C$FL1          ; [CPU_U] |920| 
         00000069 0000 
     677              $C$DW$74        .dwtag  DW_TAG_TI_branch
     678                      .dwattr $C$DW$74, DW_AT_low_pc(0x00)
     679                      .dwattr $C$DW$74, DW_AT_name("FD$$MPY")
     680                      .dwattr $C$DW$74, DW_AT_TI_call
     681              
     682 0000006a 7640!         LCR       #FD$$MPY              ; [CPU_] |920| 
         0000006b 0000 
     683                      ; call occurs [#FD$$MPY] ; [] |920| 
     684 0000006c 5CAD          MOVZ      AR4,SP                ; [CPU_] |920| 
     685 0000006d DC86          SUBB      XAR4,#6               ; [CPU_U] |920| 
     686 0000006e 5CA4          MOVZ      AR4,AR4               ; [CPU_] |920| 
     687              $C$DW$75        .dwtag  DW_TAG_TI_branch
     688                      .dwattr $C$DW$75, DW_AT_low_pc(0x00)
     689                      .dwattr $C$DW$75, DW_AT_name("FD$$TOL")
     690                      .dwattr $C$DW$75, DW_AT_TI_call
     691              
     692 0000006f 7640!         LCR       #FD$$TOL              ; [CPU_] |920| 
         00000070 0000 
     693                      ; call occurs [#FD$$TOL] ; [] |920| 
     694 00000071 D018          MOVB      XAR0,#24              ; [CPU_] |920| 
     695 00000072 8A91          MOVL      XAR4,*+XAR1[AR0]      ; [CPU_] |920| 
     696              $C$DW$76        .dwtag  DW_TAG_TI_branch
     697                      .dwattr $C$DW$76, DW_AT_low_pc(0x00)
     698                      .dwattr $C$DW$76, DW_AT_name("_EST_setLs_d_pu")
     699                      .dwattr $C$DW$76, DW_AT_TI_call
TMS320C2000 Assembler PC v15.12.3 Wed Nov 22 00:56:30 2017

Tools Copyright (c) 1996-2015 Texas Instruments Incorporated
C:\Users\wmj\AppData\Local\Temp\0764810                              PAGE   16

     700              
     701 00000073 7640!         LCR       #_EST_setLs_d_pu      ; [CPU_] |920| 
         00000074 0000 
     702                      ; call occurs [#_EST_setLs_d_pu] ; [] |920| 
     703                      .dwpsn  file "C:/Users/wmj/Desktop/BM1000_v1.1/sw/modules/user/src/32b/user.c",line 921,column 3,is_s
     704 00000075 D018          MOVB      XAR0,#24              ; [CPU_] |921| 
     705 00000076 8A91          MOVL      XAR4,*+XAR1[AR0]      ; [CPU_] |921| 
     706 00000077 A2A9          MOVL      ACC,XAR3              ; [CPU_] |921| 
     707              $C$DW$77        .dwtag  DW_TAG_TI_branch
     708                      .dwattr $C$DW$77, DW_AT_low_pc(0x00)
     709                      .dwattr $C$DW$77, DW_AT_name("_EST_setLs_q_pu")
     710                      .dwattr $C$DW$77, DW_AT_TI_call
     711              
     712 00000078 7640!         LCR       #_EST_setLs_q_pu      ; [CPU_] |921| 
         00000079 0000 
     713                      ; call occurs [#_EST_setLs_q_pu] ; [] |921| 
     714                      .dwpsn  file "C:/Users/wmj/Desktop/BM1000_v1.1/sw/modules/user/src/32b/user.c",line 922,column 3,is_s
     715 0000007a 9A1E          MOVB      AL,#30                ; [CPU_] |922| 
     716 0000007b D018          MOVB      XAR0,#24              ; [CPU_] |922| 
     717 0000007c 9E4B          SUB       AL,*-SP[11]           ; [CPU_] |922| 
     718 0000007d 8A91          MOVL      XAR4,*+XAR1[AR0]      ; [CPU_] |922| 
     719              $C$DW$78        .dwtag  DW_TAG_TI_branch
     720                      .dwattr $C$DW$78, DW_AT_low_pc(0x00)
     721                      .dwattr $C$DW$78, DW_AT_name("_EST_setLs_qFmt")
     722                      .dwattr $C$DW$78, DW_AT_TI_call
     723              
     724 0000007e 7640!         LCR       #_EST_setLs_qFmt      ; [CPU_] |922| 
         0000007f 0000 
     725                      ; call occurs [#_EST_setLs_qFmt] ; [] |922| 
     726 00000080 FE8C          SUBB      SP,#12                ; [CPU_U] 
     727                      .dwcfi  cfa_offset, -8
     728 00000081 82BE          MOVL      XAR3,*--SP            ; [CPU_] 
     729                      .dwcfi  cfa_offset, -6
     730                      .dwcfi  restore_reg, 11
     731 00000082 86BE          MOVL      XAR2,*--SP            ; [CPU_] 
     732                      .dwcfi  cfa_offset, -4
     733                      .dwcfi  restore_reg, 9
     734 00000083 8BBE          MOVL      XAR1,*--SP            ; [CPU_] 
     735                      .dwcfi  cfa_offset, -2
     736                      .dwcfi  restore_reg, 7
     737              $C$DW$79        .dwtag  DW_TAG_TI_branch
     738                      .dwattr $C$DW$79, DW_AT_low_pc(0x00)
     739                      .dwattr $C$DW$79, DW_AT_TI_return
     740              
     741 00000084 0006          LRETR     ; [CPU_] 
     742                      ; return occurs ; [] 
     743                      .dwattr $C$DW$45, DW_AT_TI_end_file("C:/Users/wmj/Desktop/BM1000_v1.1/sw/modules/user/src/32b/user.c"
     744                      .dwattr $C$DW$45, DW_AT_TI_end_line(0x39d)
     745                      .dwattr $C$DW$45, DW_AT_TI_end_column(0x01)
     746                      .dwendentry
     747                      .dwendtag $C$DW$45
     748              
     749 00000085               .sect   ".text"
     750                      .clink
     751                      .global _USER_setWaitTimeParams
TMS320C2000 Assembler PC v15.12.3 Wed Nov 22 00:56:30 2017

Tools Copyright (c) 1996-2015 Texas Instruments Incorporated
C:\Users\wmj\AppData\Local\Temp\0764810                              PAGE   17

     752              
     753              $C$DW$80        .dwtag  DW_TAG_subprogram
     754                      .dwattr $C$DW$80, DW_AT_name("USER_setWaitTimeParams")
     755                      .dwattr $C$DW$80, DW_AT_low_pc(_USER_setWaitTimeParams)
     756                      .dwattr $C$DW$80, DW_AT_high_pc(0x00)
     757                      .dwattr $C$DW$80, DW_AT_TI_symbol_name("_USER_setWaitTimeParams")
     758                      .dwattr $C$DW$80, DW_AT_external
     759                      .dwattr $C$DW$80, DW_AT_TI_begin_file("C:/Users/wmj/Desktop/BM1000_v1.1/sw/modules/user/src/32b/user.
     760                      .dwattr $C$DW$80, DW_AT_TI_begin_line(0xa2)
     761                      .dwattr $C$DW$80, DW_AT_TI_begin_column(0x06)
     762                      .dwattr $C$DW$80, DW_AT_TI_max_frame_size(-6)
     763                      .dwpsn  file "C:/Users/wmj/Desktop/BM1000_v1.1/sw/modules/user/src/32b/user.c",line 163,column 1,is_s
     764              
     765                      .dwfde $C$DW$CIE, _USER_setWaitTimeParams
     766              $C$DW$81        .dwtag  DW_TAG_formal_parameter
     767                      .dwattr $C$DW$81, DW_AT_name("pUserParams")
     768                      .dwattr $C$DW$81, DW_AT_TI_symbol_name("_pUserParams")
     769                      .dwattr $C$DW$81, DW_AT_type(*$C$DW$T$85)
     770                      .dwattr $C$DW$81, DW_AT_location[DW_OP_reg12]
     771              
     772              
     773              ;***************************************************************
     774              ;* FNAME: _USER_setWaitTimeParams       FR SIZE:   4           *
     775              ;*                                                             *
     776              ;* FUNCTION ENVIRONMENT                                        *
     777              ;*                                                             *
     778              ;* FUNCTION PROPERTIES                                         *
     779              ;*                            2 Parameter,  0 Auto,  2 SOE     *
     780              ;***************************************************************
     781              
     782              _USER_setWaitTimeParams:
     783              ;* AR1   assigned to _pUserParams
     784              $C$DW$82        .dwtag  DW_TAG_variable
     785                      .dwattr $C$DW$82, DW_AT_name("pUserParams")
     786                      .dwattr $C$DW$82, DW_AT_TI_symbol_name("_pUserParams")
     787                      .dwattr $C$DW$82, DW_AT_type(*$C$DW$T$96)
     788                      .dwattr $C$DW$82, DW_AT_location[DW_OP_reg6]
     789              
     790                      .dwcfi  cfa_offset, -2
     791                      .dwcfi  save_reg_to_mem, 26, 0
     792 00000085 B2BD          MOVL      *SP++,XAR1            ; [CPU_] 
     793                      .dwcfi  save_reg_to_mem, 7, 2
     794                      .dwcfi  cfa_offset, -4
     795 00000086 FE02          ADDB      SP,#2                 ; [CPU_U] 
     796                      .dwcfi  cfa_offset, -6
     797 00000087 8BA4          MOVL      XAR1,XAR4             ; [CPU_] |163| 
     798                      .dwpsn  file "C:/Users/wmj/Desktop/BM1000_v1.1/sw/modules/user/src/32b/user.c",line 165,column 3,is_s
     799 00000088 D054          MOVB      XAR0,#84              ; [CPU_] |165| 
     800 00000089 0200          MOVB      ACC,#0                ; [CPU_] |165| 
     801                      .dwpsn  file "C:/Users/wmj/Desktop/BM1000_v1.1/sw/modules/user/src/32b/user.c",line 167,column 3,is_s
     802 0000008a 8F00          MOVL      XAR4,#25000           ; [CPU_U] |167| 
         0000008b 61A8 
     803                      .dwpsn  file "C:/Users/wmj/Desktop/BM1000_v1.1/sw/modules/user/src/32b/user.c",line 165,column 3,is_s
     804 0000008c 1E91          MOVL      *+XAR1[AR0],ACC       ; [CPU_] |165| 
     805                      .dwpsn  file "C:/Users/wmj/Desktop/BM1000_v1.1/sw/modules/user/src/32b/user.c",line 166,column 3,is_s
TMS320C2000 Assembler PC v15.12.3 Wed Nov 22 00:56:30 2017

Tools Copyright (c) 1996-2015 Texas Instruments Incorporated
C:\Users\wmj\AppData\Local\Temp\0764810                              PAGE   18

     806 0000008d D056          MOVB      XAR0,#86              ; [CPU_] |166| 
     807 0000008e 1E91          MOVL      *+XAR1[AR0],ACC       ; [CPU_] |166| 
     808                      .dwpsn  file "C:/Users/wmj/Desktop/BM1000_v1.1/sw/modules/user/src/32b/user.c",line 167,column 3,is_s
     809 0000008f D058          MOVB      XAR0,#88              ; [CPU_] |167| 
     810 00000090 A891          MOVL      *+XAR1[AR0],XAR4      ; [CPU_] |167| 
     811                      .dwpsn  file "C:/Users/wmj/Desktop/BM1000_v1.1/sw/modules/user/src/32b/user.c",line 168,column 3,is_s
     812 00000091 D05A          MOVB      XAR0,#90              ; [CPU_] |168| 
     813                      .dwpsn  file "C:/Users/wmj/Desktop/BM1000_v1.1/sw/modules/user/src/32b/user.c",line 172,column 3,is_s
     814 00000092 8F00          MOVL      XAR4,#40000           ; [CPU_U] |172| 
         00000093 9C40 
     815                      .dwpsn  file "C:/Users/wmj/Desktop/BM1000_v1.1/sw/modules/user/src/32b/user.c",line 168,column 3,is_s
     816 00000094 1E91          MOVL      *+XAR1[AR0],ACC       ; [CPU_] |168| 
     817                      .dwpsn  file "C:/Users/wmj/Desktop/BM1000_v1.1/sw/modules/user/src/32b/user.c",line 170,column 3,is_s
     818 00000095 D05C          MOVB      XAR0,#92              ; [CPU_] |170| 
     819 00000096 1E91          MOVL      *+XAR1[AR0],ACC       ; [CPU_] |170| 
     820                      .dwpsn  file "C:/Users/wmj/Desktop/BM1000_v1.1/sw/modules/user/src/32b/user.c",line 171,column 3,is_s
     821 00000097 D05E          MOVB      XAR0,#94              ; [CPU_] |171| 
     822 00000098 1E91          MOVL      *+XAR1[AR0],ACC       ; [CPU_] |171| 
     823                      .dwpsn  file "C:/Users/wmj/Desktop/BM1000_v1.1/sw/modules/user/src/32b/user.c",line 172,column 3,is_s
     824 00000099 D060          MOVB      XAR0,#96              ; [CPU_] |172| 
     825 0000009a A891          MOVL      *+XAR1[AR0],XAR4      ; [CPU_] |172| 
     826                      .dwpsn  file "C:/Users/wmj/Desktop/BM1000_v1.1/sw/modules/user/src/32b/user.c",line 173,column 3,is_s
     827 0000009b D062          MOVB      XAR0,#98              ; [CPU_] |173| 
     828 0000009c 1E91          MOVL      *+XAR1[AR0],ACC       ; [CPU_] |173| 
     829                      .dwpsn  file "C:/Users/wmj/Desktop/BM1000_v1.1/sw/modules/user/src/32b/user.c",line 174,column 3,is_s
     830 0000009d D052          MOVB      XAR0,#82              ; [CPU_] |174| 
     831 0000009e FF2F          MOV       ACC,#32256 << 15      ; [CPU_] |174| 
         0000009f 7E00 
     832 000000a0 1E42          MOVL      *-SP[2],ACC           ; [CPU_] |174| 
     833 000000a1 0691          MOVL      ACC,*+XAR1[AR0]       ; [CPU_] |174| 
     834              $C$DW$83        .dwtag  DW_TAG_TI_branch
     835                      .dwattr $C$DW$83, DW_AT_low_pc(0x00)
     836                      .dwattr $C$DW$83, DW_AT_name("FS$$MPY")
     837                      .dwattr $C$DW$83, DW_AT_TI_call
     838              
     839 000000a2 7640!         LCR       #FS$$MPY              ; [CPU_] |174| 
         000000a3 0000 
     840                      ; call occurs [#FS$$MPY] ; [] |174| 
     841 000000a4 1EA6          MOVL      XAR6,ACC              ; [CPU_] |174| 
     842 000000a5 9A00          MOV       AL,#0                 ; [CPU_] |174| 
     843 000000a6 28A8          MOV       AH,#16544             ; [CPU_] |174| 
         000000a7 40A0 
     844 000000a8 1E42          MOVL      *-SP[2],ACC           ; [CPU_] |174| 
     845 000000a9 06A6          MOVL      ACC,XAR6              ; [CPU_] |174| 
     846              $C$DW$84        .dwtag  DW_TAG_TI_branch
     847                      .dwattr $C$DW$84, DW_AT_low_pc(0x00)
     848                      .dwattr $C$DW$84, DW_AT_name("FS$$ADD")
     849                      .dwattr $C$DW$84, DW_AT_TI_call
     850              
     851 000000aa 7640!         LCR       #FS$$ADD              ; [CPU_] |174| 
         000000ab 0000 
     852                      ; call occurs [#FS$$ADD] ; [] |174| 
     853 000000ac 1EA6          MOVL      XAR6,ACC              ; [CPU_] |174| 
     854 000000ad 28A9          MOV       AL,#16384             ; [CPU_] |174| 
         000000ae 4000 
TMS320C2000 Assembler PC v15.12.3 Wed Nov 22 00:56:30 2017

Tools Copyright (c) 1996-2015 Texas Instruments Incorporated
C:\Users\wmj\AppData\Local\Temp\0764810                              PAGE   19

     855 000000af 28A8          MOV       AH,#17820             ; [CPU_] |174| 
         000000b0 459C 
     856 000000b1 1E42          MOVL      *-SP[2],ACC           ; [CPU_] |174| 
     857 000000b2 06A6          MOVL      ACC,XAR6              ; [CPU_] |174| 
     858              $C$DW$85        .dwtag  DW_TAG_TI_branch
     859                      .dwattr $C$DW$85, DW_AT_low_pc(0x00)
     860                      .dwattr $C$DW$85, DW_AT_name("FS$$MPY")
     861                      .dwattr $C$DW$85, DW_AT_TI_call
     862              
     863 000000b3 7640!         LCR       #FS$$MPY              ; [CPU_] |174| 
         000000b4 0000 
     864                      ; call occurs [#FS$$MPY] ; [] |174| 
     865              $C$DW$86        .dwtag  DW_TAG_TI_branch
     866                      .dwattr $C$DW$86, DW_AT_low_pc(0x00)
     867                      .dwattr $C$DW$86, DW_AT_name("FS$$TOUL")
     868                      .dwattr $C$DW$86, DW_AT_TI_call
     869              
     870 000000b5 7640!         LCR       #FS$$TOUL             ; [CPU_] |174| 
         000000b6 0000 
     871                      ; call occurs [#FS$$TOUL] ; [] |174| 
     872 000000b7 D064          MOVB      XAR0,#100             ; [CPU_] |174| 
     873                      .dwpsn  file "C:/Users/wmj/Desktop/BM1000_v1.1/sw/modules/user/src/32b/user.c",line 175,column 3,is_s
     874 000000b8 8F02          MOVL      XAR4,#150000          ; [CPU_U] |175| 
         000000b9 49F0 
     875                      .dwpsn  file "C:/Users/wmj/Desktop/BM1000_v1.1/sw/modules/user/src/32b/user.c",line 174,column 3,is_s
     876 000000ba 1E91          MOVL      *+XAR1[AR0],ACC       ; [CPU_] |174| 
     877                      .dwpsn  file "C:/Users/wmj/Desktop/BM1000_v1.1/sw/modules/user/src/32b/user.c",line 175,column 3,is_s
     878 000000bb D066          MOVB      XAR0,#102             ; [CPU_] |175| 
     879                      .dwpsn  file "C:/Users/wmj/Desktop/BM1000_v1.1/sw/modules/user/src/32b/user.c",line 177,column 3,is_s
     880 000000bc 0200          MOVB      ACC,#0                ; [CPU_] |177| 
     881                      .dwpsn  file "C:/Users/wmj/Desktop/BM1000_v1.1/sw/modules/user/src/32b/user.c",line 175,column 3,is_s
     882 000000bd A891          MOVL      *+XAR1[AR0],XAR4      ; [CPU_] |175| 
     883                      .dwpsn  file "C:/Users/wmj/Desktop/BM1000_v1.1/sw/modules/user/src/32b/user.c",line 176,column 3,is_s
     884 000000be D068          MOVB      XAR0,#104             ; [CPU_] |176| 
     885 000000bf 8F00          MOVL      XAR4,#1000            ; [CPU_U] |176| 
         000000c0 03E8 
     886 000000c1 A891          MOVL      *+XAR1[AR0],XAR4      ; [CPU_] |176| 
     887                      .dwpsn  file "C:/Users/wmj/Desktop/BM1000_v1.1/sw/modules/user/src/32b/user.c",line 177,column 3,is_s
     888 000000c2 D06A          MOVB      XAR0,#106             ; [CPU_] |177| 
     889                      .dwpsn  file "C:/Users/wmj/Desktop/BM1000_v1.1/sw/modules/user/src/32b/user.c",line 178,column 3,is_s
     890 000000c3 8F00          MOVL      XAR4,#10000           ; [CPU_U] |178| 
         000000c4 2710 
     891                      .dwpsn  file "C:/Users/wmj/Desktop/BM1000_v1.1/sw/modules/user/src/32b/user.c",line 177,column 3,is_s
     892 000000c5 1E91          MOVL      *+XAR1[AR0],ACC       ; [CPU_] |177| 
     893                      .dwpsn  file "C:/Users/wmj/Desktop/BM1000_v1.1/sw/modules/user/src/32b/user.c",line 178,column 3,is_s
     894 000000c6 D06C          MOVB      XAR0,#108             ; [CPU_] |178| 
     895 000000c7 A891          MOVL      *+XAR1[AR0],XAR4      ; [CPU_] |178| 
     896                      .dwpsn  file "C:/Users/wmj/Desktop/BM1000_v1.1/sw/modules/user/src/32b/user.c",line 179,column 3,is_s
     897 000000c8 D06E          MOVB      XAR0,#110             ; [CPU_] |179| 
     898                      .dwpsn  file "C:/Users/wmj/Desktop/BM1000_v1.1/sw/modules/user/src/32b/user.c",line 181,column 3,is_s
     899 000000c9 8F01          MOVL      XAR4,#100000          ; [CPU_U] |181| 
         000000ca 86A0 
     900                      .dwpsn  file "C:/Users/wmj/Desktop/BM1000_v1.1/sw/modules/user/src/32b/user.c",line 179,column 3,is_s
     901 000000cb 1E91          MOVL      *+XAR1[AR0],ACC       ; [CPU_] |179| 
     902                      .dwpsn  file "C:/Users/wmj/Desktop/BM1000_v1.1/sw/modules/user/src/32b/user.c",line 180,column 3,is_s
TMS320C2000 Assembler PC v15.12.3 Wed Nov 22 00:56:30 2017

Tools Copyright (c) 1996-2015 Texas Instruments Incorporated
C:\Users\wmj\AppData\Local\Temp\0764810                              PAGE   20

     903 000000cc D070          MOVB      XAR0,#112             ; [CPU_] |180| 
     904 000000cd 1E91          MOVL      *+XAR1[AR0],ACC       ; [CPU_] |180| 
     905                      .dwpsn  file "C:/Users/wmj/Desktop/BM1000_v1.1/sw/modules/user/src/32b/user.c",line 181,column 3,is_s
     906 000000ce D072          MOVB      XAR0,#114             ; [CPU_] |181| 
     907 000000cf A891          MOVL      *+XAR1[AR0],XAR4      ; [CPU_] |181| 
     908                      .dwpsn  file "C:/Users/wmj/Desktop/BM1000_v1.1/sw/modules/user/src/32b/user.c",line 182,column 3,is_s
     909 000000d0 D074          MOVB      XAR0,#116             ; [CPU_] |182| 
     910                      .dwpsn  file "C:/Users/wmj/Desktop/BM1000_v1.1/sw/modules/user/src/32b/user.c",line 187,column 3,is_s
     911 000000d1 8F00          MOVL      XAR4,#50000           ; [CPU_U] |187| 
         000000d2 C350 
     912                      .dwpsn  file "C:/Users/wmj/Desktop/BM1000_v1.1/sw/modules/user/src/32b/user.c",line 182,column 3,is_s
     913 000000d3 1E91          MOVL      *+XAR1[AR0],ACC       ; [CPU_] |182| 
     914                      .dwpsn  file "C:/Users/wmj/Desktop/BM1000_v1.1/sw/modules/user/src/32b/user.c",line 183,column 3,is_s
     915 000000d4 D076          MOVB      XAR0,#118             ; [CPU_] |183| 
     916 000000d5 1E91          MOVL      *+XAR1[AR0],ACC       ; [CPU_] |183| 
     917                      .dwpsn  file "C:/Users/wmj/Desktop/BM1000_v1.1/sw/modules/user/src/32b/user.c",line 185,column 3,is_s
     918 000000d6 D078          MOVB      XAR0,#120             ; [CPU_] |185| 
     919 000000d7 1E91          MOVL      *+XAR1[AR0],ACC       ; [CPU_] |185| 
     920                      .dwpsn  file "C:/Users/wmj/Desktop/BM1000_v1.1/sw/modules/user/src/32b/user.c",line 186,column 3,is_s
     921 000000d8 D07A          MOVB      XAR0,#122             ; [CPU_] |186| 
     922 000000d9 1E91          MOVL      *+XAR1[AR0],ACC       ; [CPU_] |186| 
     923                      .dwpsn  file "C:/Users/wmj/Desktop/BM1000_v1.1/sw/modules/user/src/32b/user.c",line 187,column 3,is_s
     924 000000da D07C          MOVB      XAR0,#124             ; [CPU_] |187| 
     925 000000db A891          MOVL      *+XAR1[AR0],XAR4      ; [CPU_] |187| 
     926                      .dwpsn  file "C:/Users/wmj/Desktop/BM1000_v1.1/sw/modules/user/src/32b/user.c",line 188,column 3,is_s
     927 000000dc D07E          MOVB      XAR0,#126             ; [CPU_] |188| 
     928 000000dd 8F00          MOVL      XAR4,#1000            ; [CPU_U] |188| 
         000000de 03E8 
     929 000000df A891          MOVL      *+XAR1[AR0],XAR4      ; [CPU_] |188| 
     930                      .dwpsn  file "C:/Users/wmj/Desktop/BM1000_v1.1/sw/modules/user/src/32b/user.c",line 189,column 3,is_s
     931 000000e0 D080          MOVB      XAR0,#128             ; [CPU_] |189| 
     932 000000e1 8F00          MOVL      XAR4,#20000           ; [CPU_U] |189| 
         000000e2 4E20 
     933 000000e3 A891          MOVL      *+XAR1[AR0],XAR4      ; [CPU_] |189| 
     934                      .dwpsn  file "C:/Users/wmj/Desktop/BM1000_v1.1/sw/modules/user/src/32b/user.c",line 190,column 3,is_s
     935 000000e4 D082          MOVB      XAR0,#130             ; [CPU_] |190| 
     936                      .dwpsn  file "C:/Users/wmj/Desktop/BM1000_v1.1/sw/modules/user/src/32b/user.c",line 194,column 3,is_s
     937 000000e5 8F00          MOVL      XAR4,#15000           ; [CPU_U] |194| 
         000000e6 3A98 
     938                      .dwpsn  file "C:/Users/wmj/Desktop/BM1000_v1.1/sw/modules/user/src/32b/user.c",line 190,column 3,is_s
     939 000000e7 1E91          MOVL      *+XAR1[AR0],ACC       ; [CPU_] |190| 
     940                      .dwpsn  file "C:/Users/wmj/Desktop/BM1000_v1.1/sw/modules/user/src/32b/user.c",line 192,column 3,is_s
     941 000000e8 D084          MOVB      XAR0,#132             ; [CPU_] |192| 
     942 000000e9 1E91          MOVL      *+XAR1[AR0],ACC       ; [CPU_] |192| 
     943                      .dwpsn  file "C:/Users/wmj/Desktop/BM1000_v1.1/sw/modules/user/src/32b/user.c",line 193,column 3,is_s
     944 000000ea D086          MOVB      XAR0,#134             ; [CPU_] |193| 
     945 000000eb 1E91          MOVL      *+XAR1[AR0],ACC       ; [CPU_] |193| 
     946                      .dwpsn  file "C:/Users/wmj/Desktop/BM1000_v1.1/sw/modules/user/src/32b/user.c",line 194,column 3,is_s
     947 000000ec D088          MOVB      XAR0,#136             ; [CPU_] |194| 
     948 000000ed A891          MOVL      *+XAR1[AR0],XAR4      ; [CPU_] |194| 
     949                      .dwpsn  file "C:/Users/wmj/Desktop/BM1000_v1.1/sw/modules/user/src/32b/user.c",line 195,column 3,is_s
     950 000000ee D08A          MOVB      XAR0,#138             ; [CPU_] |195| 
     951 000000ef A891          MOVL      *+XAR1[AR0],XAR4      ; [CPU_] |195| 
     952                      .dwpsn  file "C:/Users/wmj/Desktop/BM1000_v1.1/sw/modules/user/src/32b/user.c",line 196,column 3,is_s
     953 000000f0 D08C          MOVB      XAR0,#140             ; [CPU_] |196| 
TMS320C2000 Assembler PC v15.12.3 Wed Nov 22 00:56:30 2017

Tools Copyright (c) 1996-2015 Texas Instruments Incorporated
C:\Users\wmj\AppData\Local\Temp\0764810                              PAGE   21

     954 000000f1 8F00          MOVL      XAR4,#1000            ; [CPU_U] |196| 
         000000f2 03E8 
     955 000000f3 A891          MOVL      *+XAR1[AR0],XAR4      ; [CPU_] |196| 
     956                      .dwpsn  file "C:/Users/wmj/Desktop/BM1000_v1.1/sw/modules/user/src/32b/user.c",line 197,column 3,is_s
     957 000000f4 D08E          MOVB      XAR0,#142             ; [CPU_] |197| 
     958 000000f5 8F01          MOVL      XAR4,#100000          ; [CPU_U] |197| 
         000000f6 86A0 
     959 000000f7 A891          MOVL      *+XAR1[AR0],XAR4      ; [CPU_] |197| 
     960                      .dwpsn  file "C:/Users/wmj/Desktop/BM1000_v1.1/sw/modules/user/src/32b/user.c",line 198,column 3,is_s
     961 000000f8 D090          MOVB      XAR0,#144             ; [CPU_] |198| 
     962                      .dwpsn  file "C:/Users/wmj/Desktop/BM1000_v1.1/sw/modules/user/src/32b/user.c",line 202,column 3,is_s
     963 000000f9 8F00          MOVL      XAR4,#5000            ; [CPU_U] |202| 
         000000fa 1388 
     964                      .dwpsn  file "C:/Users/wmj/Desktop/BM1000_v1.1/sw/modules/user/src/32b/user.c",line 198,column 3,is_s
     965 000000fb 1E91          MOVL      *+XAR1[AR0],ACC       ; [CPU_] |198| 
     966                      .dwpsn  file "C:/Users/wmj/Desktop/BM1000_v1.1/sw/modules/user/src/32b/user.c",line 200,column 3,is_s
     967 000000fc D092          MOVB      XAR0,#146             ; [CPU_] |200| 
     968 000000fd 1E91          MOVL      *+XAR1[AR0],ACC       ; [CPU_] |200| 
     969                      .dwpsn  file "C:/Users/wmj/Desktop/BM1000_v1.1/sw/modules/user/src/32b/user.c",line 201,column 3,is_s
     970 000000fe D094          MOVB      XAR0,#148             ; [CPU_] |201| 
     971 000000ff 1E91          MOVL      *+XAR1[AR0],ACC       ; [CPU_] |201| 
     972                      .dwpsn  file "C:/Users/wmj/Desktop/BM1000_v1.1/sw/modules/user/src/32b/user.c",line 202,column 3,is_s
     973 00000100 D096          MOVB      XAR0,#150             ; [CPU_] |202| 
     974 00000101 A891          MOVL      *+XAR1[AR0],XAR4      ; [CPU_] |202| 
     975                      .dwpsn  file "C:/Users/wmj/Desktop/BM1000_v1.1/sw/modules/user/src/32b/user.c",line 203,column 3,is_s
     976 00000102 D098          MOVB      XAR0,#152             ; [CPU_] |203| 
     977 00000103 8F00          MOVL      XAR4,#10000           ; [CPU_U] |203| 
         00000104 2710 
     978 00000105 A891          MOVL      *+XAR1[AR0],XAR4      ; [CPU_] |203| 
     979                      .dwpsn  file "C:/Users/wmj/Desktop/BM1000_v1.1/sw/modules/user/src/32b/user.c",line 204,column 3,is_s
     980 00000106 D09A          MOVB      XAR0,#154             ; [CPU_] |204| 
     981 00000107 8F00          MOVL      XAR4,#35000           ; [CPU_U] |204| 
         00000108 88B8 
     982 00000109 A891          MOVL      *+XAR1[AR0],XAR4      ; [CPU_] |204| 
     983                      .dwpsn  file "C:/Users/wmj/Desktop/BM1000_v1.1/sw/modules/user/src/32b/user.c",line 205,column 3,is_s
     984 0000010a D09C          MOVB      XAR0,#156             ; [CPU_] |205| 
     985 0000010b FE82          SUBB      SP,#2                 ; [CPU_U] 
     986                      .dwcfi  cfa_offset, -4
     987 0000010c 1E91          MOVL      *+XAR1[AR0],ACC       ; [CPU_] |205| 
     988 0000010d 8BBE          MOVL      XAR1,*--SP            ; [CPU_] 
     989                      .dwcfi  cfa_offset, -2
     990                      .dwcfi  restore_reg, 7
     991              $C$DW$87        .dwtag  DW_TAG_TI_branch
     992                      .dwattr $C$DW$87, DW_AT_low_pc(0x00)
     993                      .dwattr $C$DW$87, DW_AT_TI_return
     994              
     995 0000010e 0006          LRETR     ; [CPU_] 
     996                      ; return occurs ; [] 
     997                      .dwattr $C$DW$80, DW_AT_TI_end_file("C:/Users/wmj/Desktop/BM1000_v1.1/sw/modules/user/src/32b/user.c"
     998                      .dwattr $C$DW$80, DW_AT_TI_end_line(0xd0)
     999                      .dwattr $C$DW$80, DW_AT_TI_end_column(0x01)
    1000                      .dwendentry
    1001                      .dwendtag $C$DW$80
    1002              
    1003 0000010f               .sect   ".text"
TMS320C2000 Assembler PC v15.12.3 Wed Nov 22 00:56:30 2017

Tools Copyright (c) 1996-2015 Texas Instruments Incorporated
C:\Users\wmj\AppData\Local\Temp\0764810                              PAGE   22

    1004                      .clink
    1005                      .global _USER_setSysParams
    1006              
    1007              $C$DW$88        .dwtag  DW_TAG_subprogram
    1008                      .dwattr $C$DW$88, DW_AT_name("USER_setSysParams")
    1009                      .dwattr $C$DW$88, DW_AT_low_pc(_USER_setSysParams)
    1010                      .dwattr $C$DW$88, DW_AT_high_pc(0x00)
    1011                      .dwattr $C$DW$88, DW_AT_TI_symbol_name("_USER_setSysParams")
    1012                      .dwattr $C$DW$88, DW_AT_external
    1013                      .dwattr $C$DW$88, DW_AT_TI_begin_file("C:/Users/wmj/Desktop/BM1000_v1.1/sw/modules/user/src/32b/user.
    1014                      .dwattr $C$DW$88, DW_AT_TI_begin_line(0x61)
    1015                      .dwattr $C$DW$88, DW_AT_TI_begin_column(0x06)
    1016                      .dwattr $C$DW$88, DW_AT_TI_max_frame_size(-2)
    1017                      .dwpsn  file "C:/Users/wmj/Desktop/BM1000_v1.1/sw/modules/user/src/32b/user.c",line 98,column 1,is_st
    1018              
    1019                      .dwfde $C$DW$CIE, _USER_setSysParams
    1020              $C$DW$89        .dwtag  DW_TAG_formal_parameter
    1021                      .dwattr $C$DW$89, DW_AT_name("pUserParams")
    1022                      .dwattr $C$DW$89, DW_AT_TI_symbol_name("_pUserParams")
    1023                      .dwattr $C$DW$89, DW_AT_type(*$C$DW$T$85)
    1024                      .dwattr $C$DW$89, DW_AT_location[DW_OP_reg12]
    1025              
    1026              
    1027              ;***************************************************************
    1028              ;* FNAME: _USER_setSysParams            FR SIZE:   0           *
    1029              ;*                                                             *
    1030              ;* FUNCTION ENVIRONMENT                                        *
    1031              ;*                                                             *
    1032              ;* FUNCTION PROPERTIES                                         *
    1033              ;*                            0 Parameter,  0 Auto,  0 SOE     *
    1034              ;***************************************************************
    1035              
    1036              _USER_setSysParams:
    1037              ;* AR4   assigned to _pUserParams
    1038              $C$DW$90        .dwtag  DW_TAG_variable
    1039                      .dwattr $C$DW$90, DW_AT_name("pUserParams")
    1040                      .dwattr $C$DW$90, DW_AT_TI_symbol_name("_pUserParams")
    1041                      .dwattr $C$DW$90, DW_AT_type(*$C$DW$T$96)
    1042                      .dwattr $C$DW$90, DW_AT_location[DW_OP_reg12]
    1043              
    1044                      .dwcfi  cfa_offset, -2
    1045                      .dwcfi  save_reg_to_mem, 26, 0
    1046                      .dwpsn  file "C:/Users/wmj/Desktop/BM1000_v1.1/sw/modules/user/src/32b/user.c",line 99,column 3,is_st
    1047 0000010f D00E          MOVB      XAR0,#14              ; [CPU_] |99| 
    1048 00000110 9A00          MOV       AL,#0                 ; [CPU_] |99| 
    1049 00000111 28A8          MOV       AH,#16800             ; [CPU_] |99| 
         00000112 41A0 
    1050                      .dwpsn  file "C:/Users/wmj/Desktop/BM1000_v1.1/sw/modules/user/src/32b/user.c",line 100,column 3,is_s
    1051 00000113 8F40          MOVL      XAR5,#5000            ; [CPU_U] |100| 
         00000114 1388 
    1052                      .dwpsn  file "C:/Users/wmj/Desktop/BM1000_v1.1/sw/modules/user/src/32b/user.c",line 99,column 3,is_st
    1053 00000115 1E94          MOVL      *+XAR4[AR0],ACC       ; [CPU_] |99| 
    1054                      .dwpsn  file "C:/Users/wmj/Desktop/BM1000_v1.1/sw/modules/user/src/32b/user.c",line 100,column 3,is_s
    1055 00000116 D09E          MOVB      XAR0,#158             ; [CPU_] |100| 
    1056                      .dwpsn  file "C:/Users/wmj/Desktop/BM1000_v1.1/sw/modules/user/src/32b/user.c",line 104,column 3,is_s
TMS320C2000 Assembler PC v15.12.3 Wed Nov 22 00:56:30 2017

Tools Copyright (c) 1996-2015 Texas Instruments Incorporated
C:\Users\wmj\AppData\Local\Temp\0764810                              PAGE   23

    1057 00000117 28A8          MOV       AH,#16968             ; [CPU_] |104| 
         00000118 4248 
    1058                      .dwpsn  file "C:/Users/wmj/Desktop/BM1000_v1.1/sw/modules/user/src/32b/user.c",line 100,column 3,is_s
    1059 00000119 A094          MOVL      *+XAR4[AR0],XAR5      ; [CPU_] |100| 
    1060                      .dwpsn  file "C:/Users/wmj/Desktop/BM1000_v1.1/sw/modules/user/src/32b/user.c",line 101,column 3,is_s
    1061 0000011a D00B          MOVB      XAR0,#11              ; [CPU_] |101| 
    1062 0000011b 56BF          MOVB      *+XAR4[AR0],#3,UNC    ; [CPU_] |101| 
         0000011c 0394 
    1063                      .dwpsn  file "C:/Users/wmj/Desktop/BM1000_v1.1/sw/modules/user/src/32b/user.c",line 102,column 3,is_s
    1064 0000011d D00C          MOVB      XAR0,#12              ; [CPU_] |102| 
    1065 0000011e 56BF          MOVB      *+XAR4[AR0],#3,UNC    ; [CPU_] |102| 
         0000011f 0394 
    1066                      .dwpsn  file "C:/Users/wmj/Desktop/BM1000_v1.1/sw/modules/user/src/32b/user.c",line 103,column 3,is_s
    1067 00000120 D026          MOVB      XAR0,#38              ; [CPU_] |103| 
    1068 00000121 56BF          MOVB      *+XAR4[AR0],#60,UNC   ; [CPU_] |103| 
         00000122 3C94 
    1069                      .dwpsn  file "C:/Users/wmj/Desktop/BM1000_v1.1/sw/modules/user/src/32b/user.c",line 104,column 3,is_s
    1070 00000123 D028          MOVB      XAR0,#40              ; [CPU_] |104| 
    1071 00000124 1E94          MOVL      *+XAR4[AR0],ACC       ; [CPU_] |104| 
    1072              $C$DW$91        .dwtag  DW_TAG_TI_branch
    1073                      .dwattr $C$DW$91, DW_AT_low_pc(0x00)
    1074                      .dwattr $C$DW$91, DW_AT_TI_return
    1075              
    1076 00000125 0006          LRETR     ; [CPU_] 
    1077                      ; return occurs ; [] 
    1078                      .dwattr $C$DW$88, DW_AT_TI_end_file("C:/Users/wmj/Desktop/BM1000_v1.1/sw/modules/user/src/32b/user.c"
    1079                      .dwattr $C$DW$88, DW_AT_TI_end_line(0x69)
    1080                      .dwattr $C$DW$88, DW_AT_TI_end_column(0x01)
    1081                      .dwendentry
    1082                      .dwendtag $C$DW$88
    1083              
    1084 00000126               .sect   ".text"
    1085                      .clink
    1086                      .global _USER_setParams
    1087              
    1088              $C$DW$92        .dwtag  DW_TAG_subprogram
    1089                      .dwattr $C$DW$92, DW_AT_name("USER_setParams")
    1090                      .dwattr $C$DW$92, DW_AT_low_pc(_USER_setParams)
    1091                      .dwattr $C$DW$92, DW_AT_high_pc(0x00)
    1092                      .dwattr $C$DW$92, DW_AT_TI_symbol_name("_USER_setParams")
    1093                      .dwattr $C$DW$92, DW_AT_external
    1094                      .dwattr $C$DW$92, DW_AT_TI_begin_file("C:/Users/wmj/Desktop/BM1000_v1.1/sw/modules/user/src/32b/user.
    1095                      .dwattr $C$DW$92, DW_AT_TI_begin_line(0x6b)
    1096                      .dwattr $C$DW$92, DW_AT_TI_begin_column(0x06)
    1097                      .dwattr $C$DW$92, DW_AT_TI_max_frame_size(-2)
    1098                      .dwpsn  file "C:/Users/wmj/Desktop/BM1000_v1.1/sw/modules/user/src/32b/user.c",line 108,column 1,is_s
    1099              
    1100                      .dwfde $C$DW$CIE, _USER_setParams
    1101              $C$DW$93        .dwtag  DW_TAG_formal_parameter
    1102                      .dwattr $C$DW$93, DW_AT_name("pUserParams")
    1103                      .dwattr $C$DW$93, DW_AT_TI_symbol_name("_pUserParams")
    1104                      .dwattr $C$DW$93, DW_AT_type(*$C$DW$T$85)
    1105                      .dwattr $C$DW$93, DW_AT_location[DW_OP_reg12]
    1106              
    1107              
TMS320C2000 Assembler PC v15.12.3 Wed Nov 22 00:56:30 2017

Tools Copyright (c) 1996-2015 Texas Instruments Incorporated
C:\Users\wmj\AppData\Local\Temp\0764810                              PAGE   24

    1108              ;***************************************************************
    1109              ;* FNAME: _USER_setParams               FR SIZE:   0           *
    1110              ;*                                                             *
    1111              ;* FUNCTION ENVIRONMENT                                        *
    1112              ;*                                                             *
    1113              ;* FUNCTION PROPERTIES                                         *
    1114              ;*                            0 Parameter,  0 Auto,  0 SOE     *
    1115              ;***************************************************************
    1116              
    1117              _USER_setParams:
    1118              ;* AR4   assigned to _pUserParams
    1119              $C$DW$94        .dwtag  DW_TAG_variable
    1120                      .dwattr $C$DW$94, DW_AT_name("pUserParams")
    1121                      .dwattr $C$DW$94, DW_AT_TI_symbol_name("_pUserParams")
    1122                      .dwattr $C$DW$94, DW_AT_type(*$C$DW$T$96)
    1123                      .dwattr $C$DW$94, DW_AT_location[DW_OP_reg12]
    1124              
    1125                      .dwcfi  cfa_offset, -2
    1126                      .dwcfi  save_reg_to_mem, 26, 0
    1127                      .dwpsn  file "C:/Users/wmj/Desktop/BM1000_v1.1/sw/modules/user/src/32b/user.c",line 110,column 3,is_s
    1128 00000126 9A00          MOV       AL,#0                 ; [CPU_] |110| 
    1129 00000127 28A8          MOV       AH,#17224             ; [CPU_] |110| 
         00000128 4348 
    1130                      .dwpsn  file "C:/Users/wmj/Desktop/BM1000_v1.1/sw/modules/user/src/32b/user.c",line 114,column 3,is_s
    1131 00000129 D008          MOVB      XAR0,#8               ; [CPU_] |114| 
    1132                      .dwpsn  file "C:/Users/wmj/Desktop/BM1000_v1.1/sw/modules/user/src/32b/user.c",line 110,column 3,is_s
    1133 0000012a 1EE4          MOVL      *+XAR4[4],ACC         ; [CPU_] |110| 
    1134                      .dwpsn  file "C:/Users/wmj/Desktop/BM1000_v1.1/sw/modules/user/src/32b/user.c",line 112,column 3,is_s
    1135 0000012b 56BF          MOVB      *+XAR4[6],#2,UNC      ; [CPU_] |112| 
         0000012c 02F4 
    1136                      .dwpsn  file "C:/Users/wmj/Desktop/BM1000_v1.1/sw/modules/user/src/32b/user.c",line 113,column 3,is_s
    1137 0000012d 56BF          MOVB      *+XAR4[7],#1,UNC      ; [CPU_] |113| 
         0000012e 01FC 
    1138                      .dwpsn  file "C:/Users/wmj/Desktop/BM1000_v1.1/sw/modules/user/src/32b/user.c",line 118,column 3,is_s
    1139 0000012f 28A8          MOV       AH,#17096             ; [CPU_] |118| 
         00000130 42C8 
    1140                      .dwpsn  file "C:/Users/wmj/Desktop/BM1000_v1.1/sw/modules/user/src/32b/user.c",line 114,column 3,is_s
    1141 00000131 56BF          MOVB      *+XAR4[AR0],#1,UNC    ; [CPU_] |114| 
         00000132 0194 
    1142                      .dwpsn  file "C:/Users/wmj/Desktop/BM1000_v1.1/sw/modules/user/src/32b/user.c",line 115,column 3,is_s
    1143 00000133 D009          MOVB      XAR0,#9               ; [CPU_] |115| 
    1144 00000134 56BF          MOVB      *+XAR4[AR0],#15,UNC   ; [CPU_] |115| 
         00000135 0F94 
    1145                      .dwpsn  file "C:/Users/wmj/Desktop/BM1000_v1.1/sw/modules/user/src/32b/user.c",line 116,column 3,is_s
    1146 00000136 D00A          MOVB      XAR0,#10              ; [CPU_] |116| 
    1147 00000137 56BF          MOVB      *+XAR4[AR0],#15,UNC   ; [CPU_] |116| 
         00000138 0F94 
    1148                      .dwpsn  file "C:/Users/wmj/Desktop/BM1000_v1.1/sw/modules/user/src/32b/user.c",line 118,column 3,is_s
    1149 00000139 D010          MOVB      XAR0,#16              ; [CPU_] |118| 
    1150                      .dwpsn  file "C:/Users/wmj/Desktop/BM1000_v1.1/sw/modules/user/src/32b/user.c",line 150,column 3,is_s
    1151 0000013a 8F40          MOVL      XAR5,#5000            ; [CPU_U] |150| 
         0000013b 1388 
    1152                      .dwpsn  file "C:/Users/wmj/Desktop/BM1000_v1.1/sw/modules/user/src/32b/user.c",line 118,column 3,is_s
    1153 0000013c 1E94          MOVL      *+XAR4[AR0],ACC       ; [CPU_] |118| 
    1154                      .dwpsn  file "C:/Users/wmj/Desktop/BM1000_v1.1/sw/modules/user/src/32b/user.c",line 120,column 3,is_s
TMS320C2000 Assembler PC v15.12.3 Wed Nov 22 00:56:30 2017

Tools Copyright (c) 1996-2015 Texas Instruments Incorporated
C:\Users\wmj\AppData\Local\Temp\0764810                              PAGE   25

    1155 0000013d D012          MOVB      XAR0,#18              ; [CPU_] |120| 
    1156 0000013e 28A8          MOV       AH,#15267             ; [CPU_] |120| 
         0000013f 3BA3 
    1157 00000140 28A9          MOV       AL,#55050             ; [CPU_] |120| 
         00000141 D70A 
    1158 00000142 1E94          MOVL      *+XAR4[AR0],ACC       ; [CPU_] |120| 
    1159                      .dwpsn  file "C:/Users/wmj/Desktop/BM1000_v1.1/sw/modules/user/src/32b/user.c",line 122,column 3,is_s
    1160 00000143 D014          MOVB      XAR0,#20              ; [CPU_] |122| 
    1161 00000144 FF2F          MOV       ACC,#32512 << 15      ; [CPU_] |122| 
         00000145 7F00 
    1162 00000146 1E94          MOVL      *+XAR4[AR0],ACC       ; [CPU_] |122| 
    1163                      .dwpsn  file "C:/Users/wmj/Desktop/BM1000_v1.1/sw/modules/user/src/32b/user.c",line 124,column 3,is_s
    1164 00000147 D016          MOVB      XAR0,#22              ; [CPU_] |124| 
    1165 00000148 9A00          MOV       AL,#0                 ; [CPU_] |124| 
    1166 00000149 28A8          MOV       AH,#16800             ; [CPU_] |124| 
         0000014a 41A0 
    1167 0000014b 1E94          MOVL      *+XAR4[AR0],ACC       ; [CPU_] |124| 
    1168                      .dwpsn  file "C:/Users/wmj/Desktop/BM1000_v1.1/sw/modules/user/src/32b/user.c",line 126,column 3,is_s
    1169 0000014c D018          MOVB      XAR0,#24              ; [CPU_] |126| 
    1170 0000014d 28A8          MOV       AH,#16384             ; [CPU_] |126| 
         0000014e 4000 
    1171 0000014f 1E94          MOVL      *+XAR4[AR0],ACC       ; [CPU_] |126| 
    1172                      .dwpsn  file "C:/Users/wmj/Desktop/BM1000_v1.1/sw/modules/user/src/32b/user.c",line 128,column 3,is_s
    1173 00000150 D01A          MOVB      XAR0,#26              ; [CPU_] |128| 
    1174 00000151 28A8          MOV       AH,#16576             ; [CPU_] |128| 
         00000152 40C0 
    1175 00000153 1E94          MOVL      *+XAR4[AR0],ACC       ; [CPU_] |128| 
    1176                      .dwpsn  file "C:/Users/wmj/Desktop/BM1000_v1.1/sw/modules/user/src/32b/user.c",line 130,column 3,is_s
    1177 00000154 D01C          MOVB      XAR0,#28              ; [CPU_] |130| 
    1178 00000155 28A8          MOV       AH,#17096             ; [CPU_] |130| 
         00000156 42C8 
    1179 00000157 1E94          MOVL      *+XAR4[AR0],ACC       ; [CPU_] |130| 
    1180                      .dwpsn  file "C:/Users/wmj/Desktop/BM1000_v1.1/sw/modules/user/src/32b/user.c",line 132,column 3,is_s
    1181 00000158 D01E          MOVB      XAR0,#30              ; [CPU_] |132| 
    1182 00000159 1E94          MOVL      *+XAR4[AR0],ACC       ; [CPU_] |132| 
    1183                      .dwpsn  file "C:/Users/wmj/Desktop/BM1000_v1.1/sw/modules/user/src/32b/user.c",line 134,column 3,is_s
    1184 0000015a D020          MOVB      XAR0,#32              ; [CPU_] |134| 
    1185 0000015b FF2F          MOV       ACC,#32512 << 15      ; [CPU_] |134| 
         0000015c 7F00 
    1186 0000015d 1E94          MOVL      *+XAR4[AR0],ACC       ; [CPU_] |134| 
    1187                      .dwpsn  file "C:/Users/wmj/Desktop/BM1000_v1.1/sw/modules/user/src/32b/user.c",line 136,column 3,is_s
    1188 0000015e D022          MOVB      XAR0,#34              ; [CPU_] |136| 
    1189 0000015f 1E94          MOVL      *+XAR4[AR0],ACC       ; [CPU_] |136| 
    1190                      .dwpsn  file "C:/Users/wmj/Desktop/BM1000_v1.1/sw/modules/user/src/32b/user.c",line 138,column 3,is_s
    1191 00000160 D02E          MOVB      XAR0,#46              ; [CPU_] |138| 
    1192 00000161 28A9          MOV       AL,#18377             ; [CPU_] |138| 
         00000162 47C9 
    1193 00000163 28A8          MOV       AH,#17682             ; [CPU_] |138| 
         00000164 4512 
    1194 00000165 1E94          MOVL      *+XAR4[AR0],ACC       ; [CPU_] |138| 
    1195                      .dwpsn  file "C:/Users/wmj/Desktop/BM1000_v1.1/sw/modules/user/src/32b/user.c",line 140,column 3,is_s
    1196 00000166 D030          MOVB      XAR0,#48              ; [CPU_] |140| 
    1197 00000167 FF2F          MOV       ACC,#32256 << 15      ; [CPU_] |140| 
         00000168 7E00 
    1198 00000169 1E94          MOVL      *+XAR4[AR0],ACC       ; [CPU_] |140| 
TMS320C2000 Assembler PC v15.12.3 Wed Nov 22 00:56:30 2017

Tools Copyright (c) 1996-2015 Texas Instruments Incorporated
C:\Users\wmj\AppData\Local\Temp\0764810                              PAGE   26

    1199                      .dwpsn  file "C:/Users/wmj/Desktop/BM1000_v1.1/sw/modules/user/src/32b/user.c",line 142,column 3,is_s
    1200 0000016a D032          MOVB      XAR0,#50              ; [CPU_] |142| 
    1201 0000016b FF2F          MOV       ACC,#32640 << 15      ; [CPU_] |142| 
         0000016c 7F80 
    1202 0000016d 1E94          MOVL      *+XAR4[AR0],ACC       ; [CPU_] |142| 
    1203                      .dwpsn  file "C:/Users/wmj/Desktop/BM1000_v1.1/sw/modules/user/src/32b/user.c",line 144,column 3,is_s
    1204 0000016e D024          MOVB      XAR0,#36              ; [CPU_] |144| 
    1205 0000016f FF2F          MOV       ACC,#32512 << 15      ; [CPU_] |144| 
         00000170 7F00 
    1206 00000171 1E94          MOVL      *+XAR4[AR0],ACC       ; [CPU_] |144| 
    1207                      .dwpsn  file "C:/Users/wmj/Desktop/BM1000_v1.1/sw/modules/user/src/32b/user.c",line 146,column 3,is_s
    1208 00000172 D04E          MOVB      XAR0,#78              ; [CPU_] |146| 
    1209 00000173 1E94          MOVL      *+XAR4[AR0],ACC       ; [CPU_] |146| 
    1210                      .dwpsn  file "C:/Users/wmj/Desktop/BM1000_v1.1/sw/modules/user/src/32b/user.c",line 147,column 3,is_s
    1211 00000174 D04C          MOVB      XAR0,#76              ; [CPU_] |147| 
    1212 00000175 1E94          MOVL      *+XAR4[AR0],ACC       ; [CPU_] |147| 
    1213                      .dwpsn  file "C:/Users/wmj/Desktop/BM1000_v1.1/sw/modules/user/src/32b/user.c",line 148,column 3,is_s
    1214 00000176 D050          MOVB      XAR0,#80              ; [CPU_] |148| 
    1215 00000177 28A9          MOV       AL,#46871             ; [CPU_] |148| 
         00000178 B717 
    1216 00000179 28A8          MOV       AH,#14545             ; [CPU_] |148| 
         0000017a 38D1 
    1217 0000017b 1E94          MOVL      *+XAR4[AR0],ACC       ; [CPU_] |148| 
    1218                      .dwpsn  file "C:/Users/wmj/Desktop/BM1000_v1.1/sw/modules/user/src/32b/user.c",line 150,column 3,is_s
    1219 0000017c D0A0          MOVB      XAR0,#160             ; [CPU_] |150| 
    1220                      .dwpsn  file "C:/Users/wmj/Desktop/BM1000_v1.1/sw/modules/user/src/32b/user.c",line 152,column 3,is_s
    1221 0000017d 0264          MOVB      ACC,#100              ; [CPU_] |152| 
    1222                      .dwpsn  file "C:/Users/wmj/Desktop/BM1000_v1.1/sw/modules/user/src/32b/user.c",line 150,column 3,is_s
    1223 0000017e A094          MOVL      *+XAR4[AR0],XAR5      ; [CPU_] |150| 
    1224                      .dwpsn  file "C:/Users/wmj/Desktop/BM1000_v1.1/sw/modules/user/src/32b/user.c",line 152,column 3,is_s
    1225 0000017f D0A2          MOVB      XAR0,#162             ; [CPU_] |152| 
    1226                      .dwpsn  file "C:/Users/wmj/Desktop/BM1000_v1.1/sw/modules/user/src/32b/user.c",line 154,column 3,is_s
    1227 00000180 8F40          MOVL      XAR5,#333             ; [CPU_U] |154| 
         00000181 014D 
    1228                      .dwpsn  file "C:/Users/wmj/Desktop/BM1000_v1.1/sw/modules/user/src/32b/user.c",line 152,column 3,is_s
    1229 00000182 1E94          MOVL      *+XAR4[AR0],ACC       ; [CPU_] |152| 
    1230                      .dwpsn  file "C:/Users/wmj/Desktop/BM1000_v1.1/sw/modules/user/src/32b/user.c",line 154,column 3,is_s
    1231 00000183 D0A4          MOVB      XAR0,#164             ; [CPU_] |154| 
    1232                      .dwpsn  file "C:/Users/wmj/Desktop/BM1000_v1.1/sw/modules/user/src/32b/user.c",line 156,column 3,is_s
    1233 00000184 28A9          MOV       AL,#46871             ; [CPU_] |156| 
         00000185 B717 
    1234 00000186 28A8          MOV       AH,#14673             ; [CPU_] |156| 
         00000187 3951 
    1235                      .dwpsn  file "C:/Users/wmj/Desktop/BM1000_v1.1/sw/modules/user/src/32b/user.c",line 154,column 3,is_s
    1236 00000188 A094          MOVL      *+XAR4[AR0],XAR5      ; [CPU_] |154| 
    1237                      .dwpsn  file "C:/Users/wmj/Desktop/BM1000_v1.1/sw/modules/user/src/32b/user.c",line 156,column 3,is_s
    1238 00000189 D0A6          MOVB      XAR0,#166             ; [CPU_] |156| 
    1239 0000018a 1E94          MOVL      *+XAR4[AR0],ACC       ; [CPU_] |156| 
    1240              $C$DW$95        .dwtag  DW_TAG_TI_branch
    1241                      .dwattr $C$DW$95, DW_AT_low_pc(0x00)
    1242                      .dwattr $C$DW$95, DW_AT_TI_return
    1243              
    1244 0000018b 0006          LRETR     ; [CPU_] 
    1245                      ; return occurs ; [] 
    1246                      .dwattr $C$DW$92, DW_AT_TI_end_file("C:/Users/wmj/Desktop/BM1000_v1.1/sw/modules/user/src/32b/user.c"
TMS320C2000 Assembler PC v15.12.3 Wed Nov 22 00:56:30 2017

Tools Copyright (c) 1996-2015 Texas Instruments Incorporated
C:\Users\wmj\AppData\Local\Temp\0764810                              PAGE   27

    1247                      .dwattr $C$DW$92, DW_AT_TI_end_line(0xa0)
    1248                      .dwattr $C$DW$92, DW_AT_TI_end_column(0x01)
    1249                      .dwendentry
    1250                      .dwendtag $C$DW$92
    1251              
    1252 0000018c               .sect   ".text"
    1253                      .clink
    1254                      .global _USER_setMotorParams
    1255              
    1256              $C$DW$96        .dwtag  DW_TAG_subprogram
    1257                      .dwattr $C$DW$96, DW_AT_name("USER_setMotorParams")
    1258                      .dwattr $C$DW$96, DW_AT_low_pc(_USER_setMotorParams)
    1259                      .dwattr $C$DW$96, DW_AT_high_pc(0x00)
    1260                      .dwattr $C$DW$96, DW_AT_TI_symbol_name("_USER_setMotorParams")
    1261                      .dwattr $C$DW$96, DW_AT_external
    1262                      .dwattr $C$DW$96, DW_AT_TI_begin_file("C:/Users/wmj/Desktop/BM1000_v1.1/sw/modules/user/src/32b/user.
    1263                      .dwattr $C$DW$96, DW_AT_TI_begin_line(0xd3)
    1264                      .dwattr $C$DW$96, DW_AT_TI_begin_column(0x06)
    1265                      .dwattr $C$DW$96, DW_AT_TI_max_frame_size(-2)
    1266                      .dwpsn  file "C:/Users/wmj/Desktop/BM1000_v1.1/sw/modules/user/src/32b/user.c",line 212,column 1,is_s
    1267              
    1268                      .dwfde $C$DW$CIE, _USER_setMotorParams
    1269              $C$DW$97        .dwtag  DW_TAG_formal_parameter
    1270                      .dwattr $C$DW$97, DW_AT_name("pUserParams")
    1271                      .dwattr $C$DW$97, DW_AT_TI_symbol_name("_pUserParams")
    1272                      .dwattr $C$DW$97, DW_AT_type(*$C$DW$T$85)
    1273                      .dwattr $C$DW$97, DW_AT_location[DW_OP_reg12]
    1274              
    1275              
    1276              ;***************************************************************
    1277              ;* FNAME: _USER_setMotorParams          FR SIZE:   0           *
    1278              ;*                                                             *
    1279              ;* FUNCTION ENVIRONMENT                                        *
    1280              ;*                                                             *
    1281              ;* FUNCTION PROPERTIES                                         *
    1282              ;*                            0 Parameter,  0 Auto,  0 SOE     *
    1283              ;***************************************************************
    1284              
    1285              _USER_setMotorParams:
    1286              ;* AR6   assigned to $O$C1
    1287              ;* AR4   assigned to _pUserParams
    1288              $C$DW$98        .dwtag  DW_TAG_variable
    1289                      .dwattr $C$DW$98, DW_AT_name("pUserParams")
    1290                      .dwattr $C$DW$98, DW_AT_TI_symbol_name("_pUserParams")
    1291                      .dwattr $C$DW$98, DW_AT_type(*$C$DW$T$96)
    1292                      .dwattr $C$DW$98, DW_AT_location[DW_OP_reg12]
    1293              
    1294                      .dwcfi  cfa_offset, -2
    1295                      .dwcfi  save_reg_to_mem, 26, 0
    1296                      .dwpsn  file "C:/Users/wmj/Desktop/BM1000_v1.1/sw/modules/user/src/32b/user.c",line 214,column 3,is_s
    1297 0000018c D0AB          MOVB      XAR0,#171             ; [CPU_] |214| 
    1298 0000018d 28AC          MOV       T,#22                 ; [CPU_] |214| 
         0000018e 0016 
    1299 0000018f 7680+         MOVL      XAR6,#_MOTOR_DATA     ; [CPU_U] |214| 
         00000190 0000 
TMS320C2000 Assembler PC v15.12.3 Wed Nov 22 00:56:30 2017

Tools Copyright (c) 1996-2015 Texas Instruments Incorporated
C:\Users\wmj\AppData\Local\Temp\0764810                              PAGE   28

    1300 00000191 3094          MPYXU     ACC,T,*+XAR4[AR0]     ; [CPU_] |214| 
    1301 00000192 07A6          ADDL      ACC,XAR6              ; [CPU_] |214| 
    1302 00000193 1EA7          MOVL      XAR7,ACC              ; [CPU_] |214| 
    1303 00000194 D034          MOVB      XAR0,#52              ; [CPU_] |214| 
    1304 00000195 92C7          MOV       AL,*XAR7              ; [CPU_] |214| 
    1305 00000196 9694          MOV       *+XAR4[AR0],AL        ; [CPU_] |214| 
    1306                      .dwpsn  file "C:/Users/wmj/Desktop/BM1000_v1.1/sw/modules/user/src/32b/user.c",line 215,column 3,is_s
    1307 00000197 D0AB          MOVB      XAR0,#171             ; [CPU_] |215| 
    1308 00000198 3094          MPYXU     ACC,T,*+XAR4[AR0]     ; [CPU_] |215| 
    1309 00000199 07A6          ADDL      ACC,XAR6              ; [CPU_] |215| 
    1310 0000019a 83A9          MOVL      XAR5,ACC              ; [CPU_] |215| 
    1311 0000019b D035          MOVB      XAR0,#53              ; [CPU_] |215| 
    1312 0000019c 92CD          MOV       AL,*+XAR5[1]          ; [CPU_] |215| 
    1313 0000019d 9694          MOV       *+XAR4[AR0],AL        ; [CPU_] |215| 
    1314                      .dwpsn  file "C:/Users/wmj/Desktop/BM1000_v1.1/sw/modules/user/src/32b/user.c",line 216,column 3,is_s
    1315 0000019e D0AB          MOVB      XAR0,#171             ; [CPU_] |216| 
    1316 0000019f 3094          MPYXU     ACC,T,*+XAR4[AR0]     ; [CPU_] |216| 
    1317 000001a0 07A6          ADDL      ACC,XAR6              ; [CPU_] |216| 
    1318 000001a1 83A9          MOVL      XAR5,ACC              ; [CPU_] |216| 
    1319 000001a2 D00A          MOVB      XAR0,#10              ; [CPU_] |216| 
    1320 000001a3 0695          MOVL      ACC,*+XAR5[AR0]       ; [CPU_] |216| 
    1321 000001a4 D036          MOVB      XAR0,#54              ; [CPU_] |216| 
    1322 000001a5 1E94          MOVL      *+XAR4[AR0],ACC       ; [CPU_] |216| 
    1323                      .dwpsn  file "C:/Users/wmj/Desktop/BM1000_v1.1/sw/modules/user/src/32b/user.c",line 217,column 3,is_s
    1324 000001a6 D0AB          MOVB      XAR0,#171             ; [CPU_] |217| 
    1325 000001a7 3094          MPYXU     ACC,T,*+XAR4[AR0]     ; [CPU_] |217| 
    1326 000001a8 07A6          ADDL      ACC,XAR6              ; [CPU_] |217| 
    1327 000001a9 83A9          MOVL      XAR5,ACC              ; [CPU_] |217| 
    1328 000001aa D038          MOVB      XAR0,#56              ; [CPU_] |217| 
    1329 000001ab 06D5          MOVL      ACC,*+XAR5[2]         ; [CPU_] |217| 
    1330 000001ac 1E94          MOVL      *+XAR4[AR0],ACC       ; [CPU_] |217| 
    1331                      .dwpsn  file "C:/Users/wmj/Desktop/BM1000_v1.1/sw/modules/user/src/32b/user.c",line 218,column 3,is_s
    1332 000001ad D0AB          MOVB      XAR0,#171             ; [CPU_] |218| 
    1333 000001ae 3094          MPYXU     ACC,T,*+XAR4[AR0]     ; [CPU_] |218| 
    1334 000001af 07A6          ADDL      ACC,XAR6              ; [CPU_] |218| 
    1335 000001b0 83A9          MOVL      XAR5,ACC              ; [CPU_] |218| 
    1336 000001b1 D03A          MOVB      XAR0,#58              ; [CPU_] |218| 
    1337 000001b2 06E5          MOVL      ACC,*+XAR5[4]         ; [CPU_] |218| 
    1338 000001b3 1E94          MOVL      *+XAR4[AR0],ACC       ; [CPU_] |218| 
    1339                      .dwpsn  file "C:/Users/wmj/Desktop/BM1000_v1.1/sw/modules/user/src/32b/user.c",line 219,column 3,is_s
    1340 000001b4 D0AB          MOVB      XAR0,#171             ; [CPU_] |219| 
    1341 000001b5 3094          MPYXU     ACC,T,*+XAR4[AR0]     ; [CPU_] |219| 
    1342 000001b6 07A6          ADDL      ACC,XAR6              ; [CPU_] |219| 
    1343 000001b7 83A9          MOVL      XAR5,ACC              ; [CPU_] |219| 
    1344 000001b8 D03C          MOVB      XAR0,#60              ; [CPU_] |219| 
    1345 000001b9 06F5          MOVL      ACC,*+XAR5[6]         ; [CPU_] |219| 
    1346 000001ba 1E94          MOVL      *+XAR4[AR0],ACC       ; [CPU_] |219| 
    1347                      .dwpsn  file "C:/Users/wmj/Desktop/BM1000_v1.1/sw/modules/user/src/32b/user.c",line 220,column 3,is_s
    1348 000001bb D0AB          MOVB      XAR0,#171             ; [CPU_] |220| 
    1349 000001bc 3094          MPYXU     ACC,T,*+XAR4[AR0]     ; [CPU_] |220| 
    1350 000001bd 07A6          ADDL      ACC,XAR6              ; [CPU_] |220| 
    1351 000001be 83A9          MOVL      XAR5,ACC              ; [CPU_] |220| 
    1352 000001bf D008          MOVB      XAR0,#8               ; [CPU_] |220| 
    1353 000001c0 0695          MOVL      ACC,*+XAR5[AR0]       ; [CPU_] |220| 
    1354 000001c1 D03E          MOVB      XAR0,#62              ; [CPU_] |220| 
TMS320C2000 Assembler PC v15.12.3 Wed Nov 22 00:56:30 2017

Tools Copyright (c) 1996-2015 Texas Instruments Incorporated
C:\Users\wmj\AppData\Local\Temp\0764810                              PAGE   29

    1355 000001c2 1E94          MOVL      *+XAR4[AR0],ACC       ; [CPU_] |220| 
    1356                      .dwpsn  file "C:/Users/wmj/Desktop/BM1000_v1.1/sw/modules/user/src/32b/user.c",line 222,column 3,is_s
    1357 000001c3 D0AB          MOVB      XAR0,#171             ; [CPU_] |222| 
    1358 000001c4 3094          MPYXU     ACC,T,*+XAR4[AR0]     ; [CPU_] |222| 
    1359 000001c5 07A6          ADDL      ACC,XAR6              ; [CPU_] |222| 
    1360 000001c6 83A9          MOVL      XAR5,ACC              ; [CPU_] |222| 
    1361 000001c7 D00C          MOVB      XAR0,#12              ; [CPU_] |222| 
    1362 000001c8 0695          MOVL      ACC,*+XAR5[AR0]       ; [CPU_] |222| 
    1363 000001c9 D04A          MOVB      XAR0,#74              ; [CPU_] |222| 
    1364 000001ca 1E94          MOVL      *+XAR4[AR0],ACC       ; [CPU_] |222| 
    1365                      .dwpsn  file "C:/Users/wmj/Desktop/BM1000_v1.1/sw/modules/user/src/32b/user.c",line 223,column 3,is_s
    1366 000001cb D0AB          MOVB      XAR0,#171             ; [CPU_] |223| 
    1367 000001cc 3094          MPYXU     ACC,T,*+XAR4[AR0]     ; [CPU_] |223| 
    1368 000001cd 07A6          ADDL      ACC,XAR6              ; [CPU_] |223| 
    1369 000001ce 83A9          MOVL      XAR5,ACC              ; [CPU_] |223| 
    1370 000001cf D00E          MOVB      XAR0,#14              ; [CPU_] |223| 
    1371 000001d0 0695          MOVL      ACC,*+XAR5[AR0]       ; [CPU_] |223| 
    1372 000001d1 D042          MOVB      XAR0,#66              ; [CPU_] |223| 
    1373 000001d2 1E94          MOVL      *+XAR4[AR0],ACC       ; [CPU_] |223| 
    1374                      .dwpsn  file "C:/Users/wmj/Desktop/BM1000_v1.1/sw/modules/user/src/32b/user.c",line 224,column 3,is_s
    1375 000001d3 D0AB          MOVB      XAR0,#171             ; [CPU_] |224| 
    1376 000001d4 3094          MPYXU     ACC,T,*+XAR4[AR0]     ; [CPU_] |224| 
    1377 000001d5 07A6          ADDL      ACC,XAR6              ; [CPU_] |224| 
    1378 000001d6 83A9          MOVL      XAR5,ACC              ; [CPU_] |224| 
    1379 000001d7 D010          MOVB      XAR0,#16              ; [CPU_] |224| 
    1380 000001d8 0695          MOVL      ACC,*+XAR5[AR0]       ; [CPU_] |224| 
    1381 000001d9 D044          MOVB      XAR0,#68              ; [CPU_] |224| 
    1382 000001da 1E94          MOVL      *+XAR4[AR0],ACC       ; [CPU_] |224| 
    1383                      .dwpsn  file "C:/Users/wmj/Desktop/BM1000_v1.1/sw/modules/user/src/32b/user.c",line 225,column 3,is_s
    1384 000001db D0AB          MOVB      XAR0,#171             ; [CPU_] |225| 
    1385 000001dc 3094          MPYXU     ACC,T,*+XAR4[AR0]     ; [CPU_] |225| 
    1386 000001dd 07A6          ADDL      ACC,XAR6              ; [CPU_] |225| 
    1387 000001de 83A9          MOVL      XAR5,ACC              ; [CPU_] |225| 
    1388 000001df D012          MOVB      XAR0,#18              ; [CPU_] |225| 
    1389 000001e0 0695          MOVL      ACC,*+XAR5[AR0]       ; [CPU_] |225| 
    1390 000001e1 D040          MOVB      XAR0,#64              ; [CPU_] |225| 
    1391 000001e2 1E94          MOVL      *+XAR4[AR0],ACC       ; [CPU_] |225| 
    1392                      .dwpsn  file "C:/Users/wmj/Desktop/BM1000_v1.1/sw/modules/user/src/32b/user.c",line 226,column 3,is_s
    1393 000001e3 D0AB          MOVB      XAR0,#171             ; [CPU_] |226| 
    1394 000001e4 3094          MPYXU     ACC,T,*+XAR4[AR0]     ; [CPU_] |226| 
    1395 000001e5 07A6          ADDL      ACC,XAR6              ; [CPU_] |226| 
    1396 000001e6 83A9          MOVL      XAR5,ACC              ; [CPU_] |226| 
    1397 000001e7 D014          MOVB      XAR0,#20              ; [CPU_] |226| 
    1398 000001e8 0695          MOVL      ACC,*+XAR5[AR0]       ; [CPU_] |226| 
    1399 000001e9 D052          MOVB      XAR0,#82              ; [CPU_] |226| 
    1400 000001ea 1E94          MOVL      *+XAR4[AR0],ACC       ; [CPU_] |226| 
    1401              $C$DW$99        .dwtag  DW_TAG_TI_branch
    1402                      .dwattr $C$DW$99, DW_AT_low_pc(0x00)
    1403                      .dwattr $C$DW$99, DW_AT_TI_return
    1404              
    1405 000001eb 0006          LRETR     ; [CPU_] 
    1406                      ; return occurs ; [] 
    1407                      .dwattr $C$DW$96, DW_AT_TI_end_file("C:/Users/wmj/Desktop/BM1000_v1.1/sw/modules/user/src/32b/user.c"
    1408                      .dwattr $C$DW$96, DW_AT_TI_end_line(0xe5)
    1409                      .dwattr $C$DW$96, DW_AT_TI_end_column(0x01)
TMS320C2000 Assembler PC v15.12.3 Wed Nov 22 00:56:30 2017

Tools Copyright (c) 1996-2015 Texas Instruments Incorporated
C:\Users\wmj\AppData\Local\Temp\0764810                              PAGE   30

    1410                      .dwendentry
    1411                      .dwendtag $C$DW$96
    1412              
    1413 000001ec               .sect   ".text"
    1414                      .clink
    1415                      .global _USER_setMotorIDs
    1416              
    1417              $C$DW$100       .dwtag  DW_TAG_subprogram
    1418                      .dwattr $C$DW$100, DW_AT_name("USER_setMotorIDs")
    1419                      .dwattr $C$DW$100, DW_AT_low_pc(_USER_setMotorIDs)
    1420                      .dwattr $C$DW$100, DW_AT_high_pc(0x00)
    1421                      .dwattr $C$DW$100, DW_AT_TI_symbol_name("_USER_setMotorIDs")
    1422                      .dwattr $C$DW$100, DW_AT_external
    1423                      .dwattr $C$DW$100, DW_AT_TI_begin_file("C:/Users/wmj/Desktop/BM1000_v1.1/sw/modules/user/src/32b/user
    1424                      .dwattr $C$DW$100, DW_AT_TI_begin_line(0xfb)
    1425                      .dwattr $C$DW$100, DW_AT_TI_begin_column(0x06)
    1426                      .dwattr $C$DW$100, DW_AT_TI_max_frame_size(-2)
    1427                      .dwpsn  file "C:/Users/wmj/Desktop/BM1000_v1.1/sw/modules/user/src/32b/user.c",line 252,column 1,is_s
    1428              
    1429                      .dwfde $C$DW$CIE, _USER_setMotorIDs
    1430              $C$DW$101       .dwtag  DW_TAG_formal_parameter
    1431                      .dwattr $C$DW$101, DW_AT_name("pUserParams")
    1432                      .dwattr $C$DW$101, DW_AT_TI_symbol_name("_pUserParams")
    1433                      .dwattr $C$DW$101, DW_AT_type(*$C$DW$T$85)
    1434                      .dwattr $C$DW$101, DW_AT_location[DW_OP_reg12]
    1435              
    1436              $C$DW$102       .dwtag  DW_TAG_formal_parameter
    1437                      .dwattr $C$DW$102, DW_AT_name("motor_ID")
    1438                      .dwattr $C$DW$102, DW_AT_TI_symbol_name("_motor_ID")
    1439                      .dwattr $C$DW$102, DW_AT_type(*$C$DW$T$114)
    1440                      .dwattr $C$DW$102, DW_AT_location[DW_OP_reg0]
    1441              
    1442              
    1443              ;***************************************************************
    1444              ;* FNAME: _USER_setMotorIDs             FR SIZE:   0           *
    1445              ;*                                                             *
    1446              ;* FUNCTION ENVIRONMENT                                        *
    1447              ;*                                                             *
    1448              ;* FUNCTION PROPERTIES                                         *
    1449              ;*                            0 Parameter,  0 Auto,  0 SOE     *
    1450              ;***************************************************************
    1451              
    1452              _USER_setMotorIDs:
    1453              ;* AR4   assigned to _pUserParams
    1454              $C$DW$103       .dwtag  DW_TAG_variable
    1455                      .dwattr $C$DW$103, DW_AT_name("pUserParams")
    1456                      .dwattr $C$DW$103, DW_AT_TI_symbol_name("_pUserParams")
    1457                      .dwattr $C$DW$103, DW_AT_type(*$C$DW$T$96)
    1458                      .dwattr $C$DW$103, DW_AT_location[DW_OP_reg12]
    1459              
    1460              ;* AL    assigned to _motor_ID
    1461              $C$DW$104       .dwtag  DW_TAG_variable
    1462                      .dwattr $C$DW$104, DW_AT_name("motor_ID")
    1463                      .dwattr $C$DW$104, DW_AT_TI_symbol_name("_motor_ID")
    1464                      .dwattr $C$DW$104, DW_AT_type(*$C$DW$T$114)
TMS320C2000 Assembler PC v15.12.3 Wed Nov 22 00:56:30 2017

Tools Copyright (c) 1996-2015 Texas Instruments Incorporated
C:\Users\wmj\AppData\Local\Temp\0764810                              PAGE   31

    1465                      .dwattr $C$DW$104, DW_AT_location[DW_OP_reg0]
    1466              
    1467                      .dwcfi  cfa_offset, -2
    1468                      .dwcfi  save_reg_to_mem, 26, 0
    1469                      .dwpsn  file "C:/Users/wmj/Desktop/BM1000_v1.1/sw/modules/user/src/32b/user.c",line 253,column 3,is_s
    1470 000001ec D0AB          MOVB      XAR0,#171             ; [CPU_] |253| 
    1471 000001ed 9694          MOV       *+XAR4[AR0],AL        ; [CPU_] |253| 
    1472              $C$DW$105       .dwtag  DW_TAG_TI_branch
    1473                      .dwattr $C$DW$105, DW_AT_low_pc(0x00)
    1474                      .dwattr $C$DW$105, DW_AT_TI_return
    1475              
    1476 000001ee 0006          LRETR     ; [CPU_] 
    1477                      ; return occurs ; [] 
    1478                      .dwattr $C$DW$100, DW_AT_TI_end_file("C:/Users/wmj/Desktop/BM1000_v1.1/sw/modules/user/src/32b/user.c
    1479                      .dwattr $C$DW$100, DW_AT_TI_end_line(0xff)
    1480                      .dwattr $C$DW$100, DW_AT_TI_end_column(0x01)
    1481                      .dwendentry
    1482                      .dwendtag $C$DW$100
    1483              
    1484 000001ef               .sect   ".text"
    1485                      .clink
    1486                      .global _USER_setErrorCode
    1487              
    1488              $C$DW$106       .dwtag  DW_TAG_subprogram
    1489                      .dwattr $C$DW$106, DW_AT_name("USER_setErrorCode")
    1490                      .dwattr $C$DW$106, DW_AT_low_pc(_USER_setErrorCode)
    1491                      .dwattr $C$DW$106, DW_AT_high_pc(0x00)
    1492                      .dwattr $C$DW$106, DW_AT_TI_symbol_name("_USER_setErrorCode")
    1493                      .dwattr $C$DW$106, DW_AT_external
    1494                      .dwattr $C$DW$106, DW_AT_TI_begin_file("C:/Users/wmj/Desktop/BM1000_v1.1/sw/modules/user/src/32b/user
    1495                      .dwattr $C$DW$106, DW_AT_TI_begin_line(0x383)
    1496                      .dwattr $C$DW$106, DW_AT_TI_begin_column(0x06)
    1497                      .dwattr $C$DW$106, DW_AT_TI_max_frame_size(-2)
    1498                      .dwpsn  file "C:/Users/wmj/Desktop/BM1000_v1.1/sw/modules/user/src/32b/user.c",line 900,column 1,is_s
    1499              
    1500                      .dwfde $C$DW$CIE, _USER_setErrorCode
    1501              $C$DW$107       .dwtag  DW_TAG_formal_parameter
    1502                      .dwattr $C$DW$107, DW_AT_name("pUserParams")
    1503                      .dwattr $C$DW$107, DW_AT_TI_symbol_name("_pUserParams")
    1504                      .dwattr $C$DW$107, DW_AT_type(*$C$DW$T$85)
    1505                      .dwattr $C$DW$107, DW_AT_location[DW_OP_reg12]
    1506              
    1507              $C$DW$108       .dwtag  DW_TAG_formal_parameter
    1508                      .dwattr $C$DW$108, DW_AT_name("errorCode")
    1509                      .dwattr $C$DW$108, DW_AT_TI_symbol_name("_errorCode")
    1510                      .dwattr $C$DW$108, DW_AT_type(*$C$DW$T$83)
    1511                      .dwattr $C$DW$108, DW_AT_location[DW_OP_reg0]
    1512              
    1513              
    1514              ;***************************************************************
    1515              ;* FNAME: _USER_setErrorCode            FR SIZE:   0           *
    1516              ;*                                                             *
    1517              ;* FUNCTION ENVIRONMENT                                        *
    1518              ;*                                                             *
    1519              ;* FUNCTION PROPERTIES                                         *
TMS320C2000 Assembler PC v15.12.3 Wed Nov 22 00:56:30 2017

Tools Copyright (c) 1996-2015 Texas Instruments Incorporated
C:\Users\wmj\AppData\Local\Temp\0764810                              PAGE   32

    1520              ;*                            0 Parameter,  0 Auto,  0 SOE     *
    1521              ;***************************************************************
    1522              
    1523              _USER_setErrorCode:
    1524              ;* AR4   assigned to _pUserParams
    1525              $C$DW$109       .dwtag  DW_TAG_variable
    1526                      .dwattr $C$DW$109, DW_AT_name("pUserParams")
    1527                      .dwattr $C$DW$109, DW_AT_TI_symbol_name("_pUserParams")
    1528                      .dwattr $C$DW$109, DW_AT_type(*$C$DW$T$96)
    1529                      .dwattr $C$DW$109, DW_AT_location[DW_OP_reg12]
    1530              
    1531              ;* AL    assigned to _errorCode
    1532              $C$DW$110       .dwtag  DW_TAG_variable
    1533                      .dwattr $C$DW$110, DW_AT_name("errorCode")
    1534                      .dwattr $C$DW$110, DW_AT_TI_symbol_name("_errorCode")
    1535                      .dwattr $C$DW$110, DW_AT_type(*$C$DW$T$83)
    1536                      .dwattr $C$DW$110, DW_AT_location[DW_OP_reg0]
    1537              
    1538                      .dwcfi  cfa_offset, -2
    1539                      .dwcfi  save_reg_to_mem, 26, 0
    1540                      .dwpsn  file "C:/Users/wmj/Desktop/BM1000_v1.1/sw/modules/user/src/32b/user.c",line 901,column 3,is_s
    1541 000001ef D0AA          MOVB      XAR0,#170             ; [CPU_] |901| 
    1542 000001f0 9694          MOV       *+XAR4[AR0],AL        ; [CPU_] |901| 
    1543              $C$DW$111       .dwtag  DW_TAG_TI_branch
    1544                      .dwattr $C$DW$111, DW_AT_low_pc(0x00)
    1545                      .dwattr $C$DW$111, DW_AT_TI_return
    1546              
    1547 000001f1 0006          LRETR     ; [CPU_] 
    1548                      ; return occurs ; [] 
    1549                      .dwattr $C$DW$106, DW_AT_TI_end_file("C:/Users/wmj/Desktop/BM1000_v1.1/sw/modules/user/src/32b/user.c
    1550                      .dwattr $C$DW$106, DW_AT_TI_end_line(0x388)
    1551                      .dwattr $C$DW$106, DW_AT_TI_end_column(0x01)
    1552                      .dwendentry
    1553                      .dwendtag $C$DW$106
    1554              
    1555 000001f2               .sect   ".text"
    1556                      .clink
    1557                      .global _USER_setBoardParams
    1558              
    1559              $C$DW$112       .dwtag  DW_TAG_subprogram
    1560                      .dwattr $C$DW$112, DW_AT_name("USER_setBoardParams")
    1561                      .dwattr $C$DW$112, DW_AT_low_pc(_USER_setBoardParams)
    1562                      .dwattr $C$DW$112, DW_AT_high_pc(0x00)
    1563                      .dwattr $C$DW$112, DW_AT_TI_symbol_name("_USER_setBoardParams")
    1564                      .dwattr $C$DW$112, DW_AT_external
    1565                      .dwattr $C$DW$112, DW_AT_TI_begin_file("C:/Users/wmj/Desktop/BM1000_v1.1/sw/modules/user/src/32b/user
    1566                      .dwattr $C$DW$112, DW_AT_TI_begin_line(0xe7)
    1567                      .dwattr $C$DW$112, DW_AT_TI_begin_column(0x06)
    1568                      .dwattr $C$DW$112, DW_AT_TI_max_frame_size(-8)
    1569                      .dwpsn  file "C:/Users/wmj/Desktop/BM1000_v1.1/sw/modules/user/src/32b/user.c",line 232,column 1,is_s
    1570              
    1571                      .dwfde $C$DW$CIE, _USER_setBoardParams
    1572              $C$DW$113       .dwtag  DW_TAG_formal_parameter
    1573                      .dwattr $C$DW$113, DW_AT_name("pUserParams")
    1574                      .dwattr $C$DW$113, DW_AT_TI_symbol_name("_pUserParams")
TMS320C2000 Assembler PC v15.12.3 Wed Nov 22 00:56:30 2017

Tools Copyright (c) 1996-2015 Texas Instruments Incorporated
C:\Users\wmj\AppData\Local\Temp\0764810                              PAGE   33

    1575                      .dwattr $C$DW$113, DW_AT_type(*$C$DW$T$85)
    1576                      .dwattr $C$DW$113, DW_AT_location[DW_OP_reg12]
    1577              
    1578              
    1579              ;***************************************************************
    1580              ;* FNAME: _USER_setBoardParams          FR SIZE:   6           *
    1581              ;*                                                             *
    1582              ;* FUNCTION ENVIRONMENT                                        *
    1583              ;*                                                             *
    1584              ;* FUNCTION PROPERTIES                                         *
    1585              ;*                            2 Parameter,  0 Auto,  4 SOE     *
    1586              ;***************************************************************
    1587              
    1588              _USER_setBoardParams:
    1589              ;* AR2   assigned to $O$C1
    1590              ;* AR1   assigned to _pUserParams
    1591              $C$DW$114       .dwtag  DW_TAG_variable
    1592                      .dwattr $C$DW$114, DW_AT_name("pUserParams")
    1593                      .dwattr $C$DW$114, DW_AT_TI_symbol_name("_pUserParams")
    1594                      .dwattr $C$DW$114, DW_AT_type(*$C$DW$T$96)
    1595                      .dwattr $C$DW$114, DW_AT_location[DW_OP_reg6]
    1596              
    1597                      .dwcfi  cfa_offset, -2
    1598                      .dwcfi  save_reg_to_mem, 26, 0
    1599 000001f2 B2BD          MOVL      *SP++,XAR1            ; [CPU_] 
    1600                      .dwcfi  save_reg_to_mem, 7, 2
    1601                      .dwcfi  cfa_offset, -4
    1602 000001f3 AABD          MOVL      *SP++,XAR2            ; [CPU_] 
    1603                      .dwcfi  save_reg_to_mem, 9, 4
    1604                      .dwcfi  cfa_offset, -6
    1605 000001f4 FE02          ADDB      SP,#2                 ; [CPU_U] 
    1606                      .dwcfi  cfa_offset, -8
    1607 000001f5 8BA4          MOVL      XAR1,XAR4             ; [CPU_] |232| 
    1608                      .dwpsn  file "C:/Users/wmj/Desktop/BM1000_v1.1/sw/modules/user/src/32b/user.c",line 234,column 3,is_s
    1609 000001f6 D0AB          MOVB      XAR0,#171             ; [CPU_] |234| 
    1610 000001f7 2901          CLRC      SXM                   ; [CPU_] 
    1611 000001f8 8D80+         MOVL      XAR2,#_BOARD_Params   ; [CPU_U] |234| 
         000001f9 0000 
    1612 000001fa 5603          MOV       ACC,*+XAR1[AR0] << 3  ; [CPU_] |234| 
         000001fb 0391 
    1613 000001fc 07A2          ADDL      ACC,XAR2              ; [CPU_] |234| 
    1614 000001fd 8AA9          MOVL      XAR4,ACC              ; [CPU_] |234| 
    1615                      .dwpsn  file "C:/Users/wmj/Desktop/BM1000_v1.1/sw/modules/user/src/32b/user.c",line 235,column 3,is_s
    1616 000001fe D0AB          MOVB      XAR0,#171             ; [CPU_] |235| 
    1617                      .dwpsn  file "C:/Users/wmj/Desktop/BM1000_v1.1/sw/modules/user/src/32b/user.c",line 234,column 3,is_s
    1618 000001ff 06C4          MOVL      ACC,*+XAR4[0]         ; [CPU_] |234| 
    1619 00000200 1EC1          MOVL      *+XAR1[0],ACC         ; [CPU_] |234| 
    1620                      .dwpsn  file "C:/Users/wmj/Desktop/BM1000_v1.1/sw/modules/user/src/32b/user.c",line 235,column 3,is_s
    1621 00000201 5603          MOV       ACC,*+XAR1[AR0] << 3  ; [CPU_] |235| 
         00000202 0391 
    1622 00000203 07A2          ADDL      ACC,XAR2              ; [CPU_] |235| 
    1623 00000204 8AA9          MOVL      XAR4,ACC              ; [CPU_] |235| 
    1624                      .dwpsn  file "C:/Users/wmj/Desktop/BM1000_v1.1/sw/modules/user/src/32b/user.c",line 237,column 3,is_s
    1625 00000205 D040          MOVB      XAR0,#64              ; [CPU_] |237| 
    1626                      .dwpsn  file "C:/Users/wmj/Desktop/BM1000_v1.1/sw/modules/user/src/32b/user.c",line 235,column 3,is_s
TMS320C2000 Assembler PC v15.12.3 Wed Nov 22 00:56:30 2017

Tools Copyright (c) 1996-2015 Texas Instruments Incorporated
C:\Users\wmj\AppData\Local\Temp\0764810                              PAGE   34

    1627 00000206 06D4          MOVL      ACC,*+XAR4[2]         ; [CPU_] |235| 
    1628 00000207 1ED1          MOVL      *+XAR1[2],ACC         ; [CPU_] |235| 
    1629                      .dwpsn  file "C:/Users/wmj/Desktop/BM1000_v1.1/sw/modules/user/src/32b/user.c",line 237,column 3,is_s
    1630 00000208 9A00          MOV       AL,#0                 ; [CPU_] |237| 
    1631 00000209 28A8          MOV       AH,#48896             ; [CPU_] |237| 
         0000020a BF00 
    1632 0000020b 1E42          MOVL      *-SP[2],ACC           ; [CPU_] |237| 
    1633 0000020c 0691          MOVL      ACC,*+XAR1[AR0]       ; [CPU_] |237| 
    1634              $C$DW$115       .dwtag  DW_TAG_TI_branch
    1635                      .dwattr $C$DW$115, DW_AT_low_pc(0x00)
    1636                      .dwattr $C$DW$115, DW_AT_name("FS$$MPY")
    1637                      .dwattr $C$DW$115, DW_AT_TI_call
    1638              
    1639 0000020d 7640!         LCR       #FS$$MPY              ; [CPU_] |237| 
         0000020e 0000 
    1640                      ; call occurs [#FS$$MPY] ; [] |237| 
    1641 0000020f D0A8          MOVB      XAR0,#168             ; [CPU_] |237| 
    1642 00000210 2901          CLRC      SXM                   ; [CPU_] 
    1643 00000211 1E91          MOVL      *+XAR1[AR0],ACC       ; [CPU_] |237| 
    1644                      .dwpsn  file "C:/Users/wmj/Desktop/BM1000_v1.1/sw/modules/user/src/32b/user.c",line 239,column 3,is_s
    1645 00000212 D0AB          MOVB      XAR0,#171             ; [CPU_] |239| 
    1646 00000213 06D1          MOVL      ACC,*+XAR1[2]         ; [CPU_] |239| 
    1647 00000214 1E42          MOVL      *-SP[2],ACC           ; [CPU_] |239| 
    1648 00000215 5603          MOV       ACC,*+XAR1[AR0] << 3  ; [CPU_] |239| 
         00000216 0391 
    1649 00000217 07A2          ADDL      ACC,XAR2              ; [CPU_] |239| 
    1650 00000218 8AA9          MOVL      XAR4,ACC              ; [CPU_] |239| 
    1651 00000219 06F4          MOVL      ACC,*+XAR4[6]         ; [CPU_] |239| 
    1652              $C$DW$116       .dwtag  DW_TAG_TI_branch
    1653                      .dwattr $C$DW$116, DW_AT_low_pc(0x00)
    1654                      .dwattr $C$DW$116, DW_AT_name("FS$$DIV")
    1655                      .dwattr $C$DW$116, DW_AT_TI_call
    1656              
    1657 0000021a 7640!         LCR       #FS$$DIV              ; [CPU_] |239| 
         0000021b 0000 
    1658                      ; call occurs [#FS$$DIV] ; [] |239| 
    1659 0000021c D02A          MOVB      XAR0,#42              ; [CPU_] |239| 
    1660 0000021d 2901          CLRC      SXM                   ; [CPU_] 
    1661 0000021e 1E91          MOVL      *+XAR1[AR0],ACC       ; [CPU_] |239| 
    1662                      .dwpsn  file "C:/Users/wmj/Desktop/BM1000_v1.1/sw/modules/user/src/32b/user.c",line 241,column 3,is_s
    1663 0000021f D0AB          MOVB      XAR0,#171             ; [CPU_] |241| 
    1664 00000220 06C1          MOVL      ACC,*+XAR1[0]         ; [CPU_] |241| 
    1665 00000221 1E42          MOVL      *-SP[2],ACC           ; [CPU_] |241| 
    1666 00000222 5603          MOV       ACC,*+XAR1[AR0] << 3  ; [CPU_] |241| 
         00000223 0391 
    1667 00000224 07A2          ADDL      ACC,XAR2              ; [CPU_] |241| 
    1668 00000225 8AA9          MOVL      XAR4,ACC              ; [CPU_] |241| 
    1669 00000226 06E4          MOVL      ACC,*+XAR4[4]         ; [CPU_] |241| 
    1670              $C$DW$117       .dwtag  DW_TAG_TI_branch
    1671                      .dwattr $C$DW$117, DW_AT_low_pc(0x00)
    1672                      .dwattr $C$DW$117, DW_AT_name("FS$$DIV")
    1673                      .dwattr $C$DW$117, DW_AT_TI_call
    1674              
    1675 00000227 7640!         LCR       #FS$$DIV              ; [CPU_] |241| 
         00000228 0000 
TMS320C2000 Assembler PC v15.12.3 Wed Nov 22 00:56:30 2017

Tools Copyright (c) 1996-2015 Texas Instruments Incorporated
C:\Users\wmj\AppData\Local\Temp\0764810                              PAGE   35

    1676                      ; call occurs [#FS$$DIV] ; [] |241| 
    1677 00000229 D02C          MOVB      XAR0,#44              ; [CPU_] |241| 
    1678 0000022a 1E91          MOVL      *+XAR1[AR0],ACC       ; [CPU_] |241| 
    1679                      .dwpsn  file "C:/Users/wmj/Desktop/BM1000_v1.1/sw/modules/user/src/32b/user.c",line 243,column 3,is_s
    1680 0000022b 28A9          MOV       AL,#39322             ; [CPU_] |243| 
         0000022c 999A 
    1681 0000022d 28A8          MOV       AH,#16025             ; [CPU_] |243| 
         0000022e 3E99 
    1682 0000022f D042          MOVB      XAR0,#66              ; [CPU_] |243| 
    1683 00000230 1E42          MOVL      *-SP[2],ACC           ; [CPU_] |243| 
    1684 00000231 0691          MOVL      ACC,*+XAR1[AR0]       ; [CPU_] |243| 
    1685              $C$DW$118       .dwtag  DW_TAG_TI_branch
    1686                      .dwattr $C$DW$118, DW_AT_low_pc(0x00)
    1687                      .dwattr $C$DW$118, DW_AT_name("FS$$MPY")
    1688                      .dwattr $C$DW$118, DW_AT_TI_call
    1689              
    1690 00000232 7640!         LCR       #FS$$MPY              ; [CPU_] |243| 
         00000233 0000 
    1691                      ; call occurs [#FS$$MPY] ; [] |243| 
    1692 00000234 C4C1          MOVL      XAR6,*+XAR1[0]        ; [CPU_] |243| 
    1693 00000235 C242          MOVL      *-SP[2],XAR6          ; [CPU_] |243| 
    1694              $C$DW$119       .dwtag  DW_TAG_TI_branch
    1695                      .dwattr $C$DW$119, DW_AT_low_pc(0x00)
    1696                      .dwattr $C$DW$119, DW_AT_name("FS$$DIV")
    1697                      .dwattr $C$DW$119, DW_AT_TI_call
    1698              
    1699 00000236 7640!         LCR       #FS$$DIV              ; [CPU_] |243| 
         00000237 0000 
    1700                      ; call occurs [#FS$$DIV] ; [] |243| 
    1701 00000238 1EA6          MOVL      XAR6,ACC              ; [CPU_] |243| 
    1702 00000239 28A9          MOV       AL,#32768             ; [CPU_] |243| 
         0000023a 8000 
    1703 0000023b 28A8          MOV       AH,#17318             ; [CPU_] |243| 
         0000023c 43A6 
    1704 0000023d 1E42          MOVL      *-SP[2],ACC           ; [CPU_] |243| 
    1705 0000023e 06A6          MOVL      ACC,XAR6              ; [CPU_] |243| 
    1706              $C$DW$120       .dwtag  DW_TAG_TI_branch
    1707                      .dwattr $C$DW$120, DW_AT_low_pc(0x00)
    1708                      .dwattr $C$DW$120, DW_AT_name("FS$$DIV")
    1709                      .dwattr $C$DW$120, DW_AT_TI_call
    1710              
    1711 0000023f 7640!         LCR       #FS$$DIV              ; [CPU_] |243| 
         00000240 0000 
    1712                      ; call occurs [#FS$$DIV] ; [] |243| 
    1713 00000241 D048          MOVB      XAR0,#72              ; [CPU_] |243| 
    1714 00000242 1E91          MOVL      *+XAR1[AR0],ACC       ; [CPU_] |243| 
    1715                      .dwpsn  file "C:/Users/wmj/Desktop/BM1000_v1.1/sw/modules/user/src/32b/user.c",line 244,column 3,is_s
    1716 00000243 D042          MOVB      XAR0,#66              ; [CPU_] |244| 
    1717 00000244 06C1          MOVL      ACC,*+XAR1[0]         ; [CPU_] |244| 
    1718 00000245 1E42          MOVL      *-SP[2],ACC           ; [CPU_] |244| 
    1719 00000246 0691          MOVL      ACC,*+XAR1[AR0]       ; [CPU_] |244| 
    1720              $C$DW$121       .dwtag  DW_TAG_TI_branch
    1721                      .dwattr $C$DW$121, DW_AT_low_pc(0x00)
    1722                      .dwattr $C$DW$121, DW_AT_name("FS$$DIV")
    1723                      .dwattr $C$DW$121, DW_AT_TI_call
TMS320C2000 Assembler PC v15.12.3 Wed Nov 22 00:56:30 2017

Tools Copyright (c) 1996-2015 Texas Instruments Incorporated
C:\Users\wmj\AppData\Local\Temp\0764810                              PAGE   36

    1724              
    1725 00000247 7640!         LCR       #FS$$DIV              ; [CPU_] |244| 
         00000248 0000 
    1726                      ; call occurs [#FS$$DIV] ; [] |244| 
    1727 00000249 1EA6          MOVL      XAR6,ACC              ; [CPU_] |244| 
    1728 0000024a 28A9          MOV       AL,#32768             ; [CPU_] |244| 
         0000024b 8000 
    1729 0000024c 28A8          MOV       AH,#17318             ; [CPU_] |244| 
         0000024d 43A6 
    1730 0000024e 1E42          MOVL      *-SP[2],ACC           ; [CPU_] |244| 
    1731 0000024f 06A6          MOVL      ACC,XAR6              ; [CPU_] |244| 
    1732              $C$DW$122       .dwtag  DW_TAG_TI_branch
    1733                      .dwattr $C$DW$122, DW_AT_low_pc(0x00)
    1734                      .dwattr $C$DW$122, DW_AT_name("FS$$DIV")
    1735                      .dwattr $C$DW$122, DW_AT_TI_call
    1736              
    1737 00000250 7640!         LCR       #FS$$DIV              ; [CPU_] |244| 
         00000251 0000 
    1738                      ; call occurs [#FS$$DIV] ; [] |244| 
    1739 00000252 D046          MOVB      XAR0,#70              ; [CPU_] |244| 
    1740 00000253 1E91          MOVL      *+XAR1[AR0],ACC       ; [CPU_] |244| 
    1741 00000254 FE82          SUBB      SP,#2                 ; [CPU_U] 
    1742                      .dwcfi  cfa_offset, -6
    1743 00000255 86BE          MOVL      XAR2,*--SP            ; [CPU_] 
    1744                      .dwcfi  cfa_offset, -4
    1745                      .dwcfi  restore_reg, 9
    1746 00000256 8BBE          MOVL      XAR1,*--SP            ; [CPU_] 
    1747                      .dwcfi  cfa_offset, -2
    1748                      .dwcfi  restore_reg, 7
    1749              $C$DW$123       .dwtag  DW_TAG_TI_branch
    1750                      .dwattr $C$DW$123, DW_AT_low_pc(0x00)
    1751                      .dwattr $C$DW$123, DW_AT_TI_return
    1752              
    1753 00000257 0006          LRETR     ; [CPU_] 
    1754                      ; return occurs ; [] 
    1755                      .dwattr $C$DW$112, DW_AT_TI_end_file("C:/Users/wmj/Desktop/BM1000_v1.1/sw/modules/user/src/32b/user.c
    1756                      .dwattr $C$DW$112, DW_AT_TI_end_line(0xf8)
    1757                      .dwattr $C$DW$112, DW_AT_TI_end_column(0x01)
    1758                      .dwendentry
    1759                      .dwendtag $C$DW$112
    1760              
    1761 00000258               .sect   ".text"
    1762                      .clink
    1763                      .global _USER_getErrorCode
    1764              
    1765              $C$DW$124       .dwtag  DW_TAG_subprogram
    1766                      .dwattr $C$DW$124, DW_AT_name("USER_getErrorCode")
    1767                      .dwattr $C$DW$124, DW_AT_low_pc(_USER_getErrorCode)
    1768                      .dwattr $C$DW$124, DW_AT_high_pc(0x00)
    1769                      .dwattr $C$DW$124, DW_AT_TI_symbol_name("_USER_getErrorCode")
    1770                      .dwattr $C$DW$124, DW_AT_external
    1771                      .dwattr $C$DW$124, DW_AT_type(*$C$DW$T$79)
    1772                      .dwattr $C$DW$124, DW_AT_TI_begin_file("C:/Users/wmj/Desktop/BM1000_v1.1/sw/modules/user/src/32b/user
    1773                      .dwattr $C$DW$124, DW_AT_TI_begin_line(0x37d)
    1774                      .dwattr $C$DW$124, DW_AT_TI_begin_column(0x12)
TMS320C2000 Assembler PC v15.12.3 Wed Nov 22 00:56:30 2017

Tools Copyright (c) 1996-2015 Texas Instruments Incorporated
C:\Users\wmj\AppData\Local\Temp\0764810                              PAGE   37

    1775                      .dwattr $C$DW$124, DW_AT_TI_max_frame_size(-2)
    1776                      .dwpsn  file "C:/Users/wmj/Desktop/BM1000_v1.1/sw/modules/user/src/32b/user.c",line 894,column 1,is_s
    1777              
    1778                      .dwfde $C$DW$CIE, _USER_getErrorCode
    1779              $C$DW$125       .dwtag  DW_TAG_formal_parameter
    1780                      .dwattr $C$DW$125, DW_AT_name("pUserParams")
    1781                      .dwattr $C$DW$125, DW_AT_TI_symbol_name("_pUserParams")
    1782                      .dwattr $C$DW$125, DW_AT_type(*$C$DW$T$85)
    1783                      .dwattr $C$DW$125, DW_AT_location[DW_OP_reg12]
    1784              
    1785              
    1786              ;***************************************************************
    1787              ;* FNAME: _USER_getErrorCode            FR SIZE:   0           *
    1788              ;*                                                             *
    1789              ;* FUNCTION ENVIRONMENT                                        *
    1790              ;*                                                             *
    1791              ;* FUNCTION PROPERTIES                                         *
    1792              ;*                            0 Parameter,  0 Auto,  0 SOE     *
    1793              ;***************************************************************
    1794              
    1795              _USER_getErrorCode:
    1796              ;* AR4   assigned to _pUserParams
    1797              $C$DW$126       .dwtag  DW_TAG_variable
    1798                      .dwattr $C$DW$126, DW_AT_name("pUserParams")
    1799                      .dwattr $C$DW$126, DW_AT_TI_symbol_name("_pUserParams")
    1800                      .dwattr $C$DW$126, DW_AT_type(*$C$DW$T$96)
    1801                      .dwattr $C$DW$126, DW_AT_location[DW_OP_reg12]
    1802              
    1803                      .dwcfi  cfa_offset, -2
    1804                      .dwcfi  save_reg_to_mem, 26, 0
    1805                      .dwpsn  file "C:/Users/wmj/Desktop/BM1000_v1.1/sw/modules/user/src/32b/user.c",line 895,column 3,is_s
    1806 00000258 D0AA          MOVB      XAR0,#170             ; [CPU_] |895| 
    1807 00000259 9294          MOV       AL,*+XAR4[AR0]        ; [CPU_] |895| 
    1808              $C$DW$127       .dwtag  DW_TAG_TI_branch
    1809                      .dwattr $C$DW$127, DW_AT_low_pc(0x00)
    1810                      .dwattr $C$DW$127, DW_AT_TI_return
    1811              
    1812 0000025a 0006          LRETR     ; [CPU_] 
    1813                      ; return occurs ; [] 
    1814                      .dwattr $C$DW$124, DW_AT_TI_end_file("C:/Users/wmj/Desktop/BM1000_v1.1/sw/modules/user/src/32b/user.c
    1815                      .dwattr $C$DW$124, DW_AT_TI_end_line(0x380)
    1816                      .dwattr $C$DW$124, DW_AT_TI_end_column(0x01)
    1817                      .dwendentry
    1818                      .dwendtag $C$DW$124
    1819              
    1820 0000025b               .sect   ".text"
    1821                      .clink
    1822                      .global _USER_computeTorque_lbin
    1823              
    1824              $C$DW$128       .dwtag  DW_TAG_subprogram
    1825                      .dwattr $C$DW$128, DW_AT_name("USER_computeTorque_lbin")
    1826                      .dwattr $C$DW$128, DW_AT_low_pc(_USER_computeTorque_lbin)
    1827                      .dwattr $C$DW$128, DW_AT_high_pc(0x00)
    1828                      .dwattr $C$DW$128, DW_AT_TI_symbol_name("_USER_computeTorque_lbin")
    1829                      .dwattr $C$DW$128, DW_AT_external
TMS320C2000 Assembler PC v15.12.3 Wed Nov 22 00:56:30 2017

Tools Copyright (c) 1996-2015 Texas Instruments Incorporated
C:\Users\wmj\AppData\Local\Temp\0764810                              PAGE   38

    1830                      .dwattr $C$DW$128, DW_AT_type(*$C$DW$T$20)
    1831                      .dwattr $C$DW$128, DW_AT_TI_begin_file("C:/Users/wmj/Desktop/BM1000_v1.1/sw/modules/user/src/32b/user
    1832                      .dwattr $C$DW$128, DW_AT_TI_begin_line(0x42d)
    1833                      .dwattr $C$DW$128, DW_AT_TI_begin_column(0x05)
    1834                      .dwattr $C$DW$128, DW_AT_TI_max_frame_size(-16)
    1835                      .dwpsn  file "C:/Users/wmj/Desktop/BM1000_v1.1/sw/modules/user/src/32b/user.c",line 1070,column 1,is_
    1836              
    1837                      .dwfde $C$DW$CIE, _USER_computeTorque_lbin
    1838              $C$DW$129       .dwtag  DW_TAG_formal_parameter
    1839                      .dwattr $C$DW$129, DW_AT_name("handle")
    1840                      .dwattr $C$DW$129, DW_AT_TI_symbol_name("_handle")
    1841                      .dwattr $C$DW$129, DW_AT_type(*$C$DW$T$93)
    1842                      .dwattr $C$DW$129, DW_AT_location[DW_OP_reg12]
    1843              
    1844              $C$DW$130       .dwtag  DW_TAG_formal_parameter
    1845                      .dwattr $C$DW$130, DW_AT_name("torque_Flux_sf")
    1846                      .dwattr $C$DW$130, DW_AT_TI_symbol_name("_torque_Flux_sf")
    1847                      .dwattr $C$DW$130, DW_AT_type(*$C$DW$T$111)
    1848                      .dwattr $C$DW$130, DW_AT_location[DW_OP_reg0]
    1849              
    1850              $C$DW$131       .dwtag  DW_TAG_formal_parameter
    1851                      .dwattr $C$DW$131, DW_AT_name("torque_Ls_sf")
    1852                      .dwattr $C$DW$131, DW_AT_TI_symbol_name("_torque_Ls_sf")
    1853                      .dwattr $C$DW$131, DW_AT_type(*$C$DW$T$111)
    1854                      .dwattr $C$DW$131, DW_AT_location[DW_OP_breg20 -18]
    1855              
    1856              
    1857              ;***************************************************************
    1858              ;* FNAME: _USER_computeTorque_lbin      FR SIZE:  14           *
    1859              ;*                                                             *
    1860              ;* FUNCTION ENVIRONMENT                                        *
    1861              ;*                                                             *
    1862              ;* FUNCTION PROPERTIES                                         *
    1863              ;*                            0 Parameter,  8 Auto,  6 SOE     *
    1864              ;***************************************************************
    1865              
    1866              _USER_computeTorque_lbin:
    1867              ;* AR1   assigned to _handle
    1868              $C$DW$132       .dwtag  DW_TAG_variable
    1869                      .dwattr $C$DW$132, DW_AT_name("handle")
    1870                      .dwattr $C$DW$132, DW_AT_TI_symbol_name("_handle")
    1871                      .dwattr $C$DW$132, DW_AT_type(*$C$DW$T$94)
    1872                      .dwattr $C$DW$132, DW_AT_location[DW_OP_reg6]
    1873              
    1874              $C$DW$133       .dwtag  DW_TAG_variable
    1875                      .dwattr $C$DW$133, DW_AT_name("torque_Flux_sf")
    1876                      .dwattr $C$DW$133, DW_AT_TI_symbol_name("_torque_Flux_sf")
    1877                      .dwattr $C$DW$133, DW_AT_type(*$C$DW$T$111)
    1878                      .dwattr $C$DW$133, DW_AT_location[DW_OP_breg20 -2]
    1879              
    1880              $C$DW$134       .dwtag  DW_TAG_variable
    1881                      .dwattr $C$DW$134, DW_AT_name("torque_Ls_sf")
    1882                      .dwattr $C$DW$134, DW_AT_TI_symbol_name("_torque_Ls_sf")
    1883                      .dwattr $C$DW$134, DW_AT_type(*$C$DW$T$111)
    1884                      .dwattr $C$DW$134, DW_AT_location[DW_OP_breg20 -4]
TMS320C2000 Assembler PC v15.12.3 Wed Nov 22 00:56:30 2017

Tools Copyright (c) 1996-2015 Texas Instruments Incorporated
C:\Users\wmj\AppData\Local\Temp\0764810                              PAGE   39

    1885              
    1886              $C$DW$135       .dwtag  DW_TAG_variable
    1887                      .dwattr $C$DW$135, DW_AT_name("Flux_pu")
    1888                      .dwattr $C$DW$135, DW_AT_TI_symbol_name("_Flux_pu")
    1889                      .dwattr $C$DW$135, DW_AT_type(*$C$DW$T$20)
    1890                      .dwattr $C$DW$135, DW_AT_location[DW_OP_breg20 -6]
    1891              
    1892              ;* AR3   assigned to _Id_pu
    1893              $C$DW$136       .dwtag  DW_TAG_variable
    1894                      .dwattr $C$DW$136, DW_AT_name("Id_pu")
    1895                      .dwattr $C$DW$136, DW_AT_TI_symbol_name("_Id_pu")
    1896                      .dwattr $C$DW$136, DW_AT_type(*$C$DW$T$20)
    1897                      .dwattr $C$DW$136, DW_AT_location[DW_OP_reg10]
    1898              
    1899              ;* AR2   assigned to _Iq_pu
    1900              $C$DW$137       .dwtag  DW_TAG_variable
    1901                      .dwattr $C$DW$137, DW_AT_name("Iq_pu")
    1902                      .dwattr $C$DW$137, DW_AT_TI_symbol_name("_Iq_pu")
    1903                      .dwattr $C$DW$137, DW_AT_type(*$C$DW$T$20)
    1904                      .dwattr $C$DW$137, DW_AT_location[DW_OP_reg8]
    1905              
    1906              ;* AR7   assigned to _Ld_minus_Lq_pu
    1907              $C$DW$138       .dwtag  DW_TAG_variable
    1908                      .dwattr $C$DW$138, DW_AT_name("Ld_minus_Lq_pu")
    1909                      .dwattr $C$DW$138, DW_AT_TI_symbol_name("_Ld_minus_Lq_pu")
    1910                      .dwattr $C$DW$138, DW_AT_type(*$C$DW$T$20)
    1911                      .dwattr $C$DW$138, DW_AT_location[DW_OP_reg18]
    1912              
    1913                      .dwcfi  cfa_offset, -2
    1914                      .dwcfi  save_reg_to_mem, 26, 0
    1915 0000025b B2BD          MOVL      *SP++,XAR1            ; [CPU_] 
    1916                      .dwcfi  save_reg_to_mem, 7, 2
    1917                      .dwcfi  cfa_offset, -4
    1918 0000025c AABD          MOVL      *SP++,XAR2            ; [CPU_] 
    1919                      .dwcfi  save_reg_to_mem, 9, 4
    1920                      .dwcfi  cfa_offset, -6
    1921 0000025d A2BD          MOVL      *SP++,XAR3            ; [CPU_] 
    1922                      .dwcfi  save_reg_to_mem, 11, 6
    1923                      .dwcfi  cfa_offset, -8
    1924 0000025e FE08          ADDB      SP,#8                 ; [CPU_U] 
    1925                      .dwcfi  cfa_offset, -16
    1926                      .dwpsn  file "C:/Users/wmj/Desktop/BM1000_v1.1/sw/modules/user/src/32b/user.c",line 1073,column 15,is
    1927 0000025f D018          MOVB      XAR0,#24              ; [CPU_] |1073| 
    1928                      .dwpsn  file "C:/Users/wmj/Desktop/BM1000_v1.1/sw/modules/user/src/32b/user.c",line 1070,column 1,is_
    1929 00000260 8BA4          MOVL      XAR1,XAR4             ; [CPU_] |1070| 
    1930 00000261 1E42          MOVL      *-SP[2],ACC           ; [CPU_] |1070| 
    1931 00000262 0652          MOVL      ACC,*-SP[18]          ; [CPU_] |1070| 
    1932 00000263 1E44          MOVL      *-SP[4],ACC           ; [CPU_] |1070| 
    1933                      .dwpsn  file "C:/Users/wmj/Desktop/BM1000_v1.1/sw/modules/user/src/32b/user.c",line 1073,column 15,is
    1934 00000264 8A91          MOVL      XAR4,*+XAR1[AR0]      ; [CPU_] |1073| 
    1935              $C$DW$139       .dwtag  DW_TAG_TI_branch
    1936                      .dwattr $C$DW$139, DW_AT_low_pc(0x00)
    1937                      .dwattr $C$DW$139, DW_AT_name("_EST_getFlux_pu")
    1938                      .dwattr $C$DW$139, DW_AT_TI_call
    1939              
TMS320C2000 Assembler PC v15.12.3 Wed Nov 22 00:56:30 2017

Tools Copyright (c) 1996-2015 Texas Instruments Incorporated
C:\Users\wmj\AppData\Local\Temp\0764810                              PAGE   40

    1940 00000265 7640!         LCR       #_EST_getFlux_pu      ; [CPU_] |1073| 
         00000266 0000 
    1941                      ; call occurs [#_EST_getFlux_pu] ; [] |1073| 
    1942                      .dwpsn  file "C:/Users/wmj/Desktop/BM1000_v1.1/sw/modules/pid/src/32b/pid.h",line 106,column 3,is_stm
    1943 00000267 D020          MOVB      XAR0,#32              ; [CPU_] |106| 
    1944                      .dwpsn  file "C:/Users/wmj/Desktop/BM1000_v1.1/sw/modules/user/src/32b/user.c",line 1073,column 15,is
    1945 00000268 1E46          MOVL      *-SP[6],ACC           ; [CPU_] |1073| 
    1946                      .dwpsn  file "C:/Users/wmj/Desktop/BM1000_v1.1/sw/modules/pid/src/32b/pid.h",line 106,column 3,is_stm
    1947 00000269 020A          MOVB      ACC,#10               ; [CPU_] |106| 
    1948 0000026a 0791          ADDL      ACC,*+XAR1[AR0]       ; [CPU_] |106| 
    1949 0000026b 8AA9          MOVL      XAR4,ACC              ; [CPU_] |106| 
    1950 0000026c D032          MOVB      XAR0,#50              ; [CPU_] |106| 
    1951 0000026d 020A          MOVB      ACC,#10               ; [CPU_] |106| 
    1952 0000026e 82C4          MOVL      XAR3,*+XAR4[0]        ; [CPU_] |106| 
    1953 0000026f 0791          ADDL      ACC,*+XAR1[AR0]       ; [CPU_] |106| 
    1954 00000270 8AA9          MOVL      XAR4,ACC              ; [CPU_] |106| 
    1955                      .dwpsn  file "C:/Users/wmj/Desktop/BM1000_v1.1/sw/modules/user/src/32b/user.c",line 1076,column 22,is
    1956 00000271 D018          MOVB      XAR0,#24              ; [CPU_] |1076| 
    1957                      .dwpsn  file "C:/Users/wmj/Desktop/BM1000_v1.1/sw/modules/pid/src/32b/pid.h",line 106,column 3,is_stm
    1958 00000272 86C4          MOVL      XAR2,*+XAR4[0]        ; [CPU_] |106| 
    1959                      .dwpsn  file "C:/Users/wmj/Desktop/BM1000_v1.1/sw/modules/user/src/32b/user.c",line 1076,column 22,is
    1960 00000273 8A91          MOVL      XAR4,*+XAR1[AR0]      ; [CPU_] |1076| 
    1961              $C$DW$140       .dwtag  DW_TAG_TI_branch
    1962                      .dwattr $C$DW$140, DW_AT_low_pc(0x00)
    1963                      .dwattr $C$DW$140, DW_AT_name("_EST_getLs_q_pu")
    1964                      .dwattr $C$DW$140, DW_AT_TI_call
    1965              
    1966 00000274 7640!         LCR       #_EST_getLs_q_pu      ; [CPU_] |1076| 
         00000275 0000 
    1967                      ; call occurs [#_EST_getLs_q_pu] ; [] |1076| 
    1968 00000276 D018          MOVB      XAR0,#24              ; [CPU_] |1076| 
    1969 00000277 1E48          MOVL      *-SP[8],ACC           ; [CPU_] |1076| 
    1970 00000278 8A91          MOVL      XAR4,*+XAR1[AR0]      ; [CPU_] |1076| 
    1971              $C$DW$141       .dwtag  DW_TAG_TI_branch
    1972                      .dwattr $C$DW$141, DW_AT_low_pc(0x00)
    1973                      .dwattr $C$DW$141, DW_AT_name("_EST_getLs_d_pu")
    1974                      .dwattr $C$DW$141, DW_AT_TI_call
    1975              
    1976 00000279 7640!         LCR       #_EST_getLs_d_pu      ; [CPU_] |1076| 
         0000027a 0000 
    1977                      ; call occurs [#_EST_getLs_d_pu] ; [] |1076| 
    1978 0000027b C448          MOVL      XAR6,*-SP[8]          ; [CPU_] |1076| 
    1979 0000027c 3B01          SETC      SXM                   ; [CPU_] 
    1980 0000027d 8746          MOVL      XT,*-SP[6]            ; [CPU_] |1076| 
    1981 0000027e 03A6          SUBL      ACC,XAR6              ; [CPU_] |1076| 
    1982                      .dwpsn  file "C:/Users/wmj/Desktop/BM1000_v1.1/sw/modules/user/src/32b/user.c",line 1081,column 3,is_
    1983 0000027f 5605          IMPYL     P,XT,XAR2             ; [CPU_] |1081| 
         00000280 00A2 
    1984                      .dwpsn  file "C:/Users/wmj/Desktop/BM1000_v1.1/sw/modules/user/src/32b/user.c",line 1076,column 22,is
    1985 00000281 FF45          SFR       ACC,6                 ; [CPU_] |1076| 
    1986                      .dwpsn  file "C:/Users/wmj/Desktop/BM1000_v1.1/sw/modules/user/src/32b/user.c",line 1081,column 3,is_
    1987 00000282 C442          MOVL      XAR6,*-SP[2]          ; [CPU_] |1081| 
    1988                      .dwpsn  file "C:/Users/wmj/Desktop/BM1000_v1.1/sw/modules/user/src/32b/user.c",line 1076,column 22,is
    1989 00000283 1EA7          MOVL      XAR7,ACC              ; [CPU_] |1076| 
    1990                      .dwpsn  file "C:/Users/wmj/Desktop/BM1000_v1.1/sw/modules/user/src/32b/user.c",line 1081,column 3,is_
TMS320C2000 Assembler PC v15.12.3 Wed Nov 22 00:56:30 2017

Tools Copyright (c) 1996-2015 Texas Instruments Incorporated
C:\Users\wmj\AppData\Local\Temp\0764810                              PAGE   41

    1991 00000284 5663          QMPYL     ACC,XT,XAR2           ; [CPU_] |1081| 
         00000285 00A2 
    1992 00000286 56A7          LSL64     ACC:P,#8              ; [CPU_] |1081| 
    1993 00000287 1EAC          MOVL      XT,ACC                ; [CPU_] |1081| 
    1994 00000288 0642          MOVL      ACC,*-SP[2]           ; [CPU_] |1081| 
    1995 00000289 5605          IMPYL     P,XT,XAR6             ; [CPU_] |1081| 
         0000028a 00A6 
    1996 0000028b 5663          QMPYL     ACC,XT,ACC            ; [CPU_] |1081| 
         0000028c 00A9 
    1997 0000028d 56A7          LSL64     ACC:P,#8              ; [CPU_] |1081| 
    1998 0000028e 87A7          MOVL      XT,XAR7               ; [CPU_] |1081| 
    1999 0000028f 1EA6          MOVL      XAR6,ACC              ; [CPU_] |1081| 
    2000 00000290 C544          MOVL      XAR7,*-SP[4]          ; [CPU_] |1081| 
    2001 00000291 5605          IMPYL     P,XT,XAR3             ; [CPU_] |1081| 
         00000292 00A3 
    2002 00000293 5663          QMPYL     ACC,XT,XAR3           ; [CPU_] |1081| 
         00000294 00A3 
    2003 00000295 56A7          LSL64     ACC:P,#8              ; [CPU_] |1081| 
    2004 00000296 1EAC          MOVL      XT,ACC                ; [CPU_] |1081| 
    2005 00000297 5605          IMPYL     P,XT,XAR2             ; [CPU_] |1081| 
         00000298 00A2 
    2006 00000299 5663          QMPYL     ACC,XT,XAR2           ; [CPU_] |1081| 
         0000029a 00A2 
    2007 0000029b 56A7          LSL64     ACC:P,#8              ; [CPU_] |1081| 
    2008 0000029c 1EAC          MOVL      XT,ACC                ; [CPU_] |1081| 
    2009 0000029d 0644          MOVL      ACC,*-SP[4]           ; [CPU_] |1081| 
    2010 0000029e 5605          IMPYL     P,XT,XAR7             ; [CPU_] |1081| 
         0000029f 00A7 
    2011 000002a0 5663          QMPYL     ACC,XT,ACC            ; [CPU_] |1081| 
         000002a1 00A9 
    2012 000002a2 56A7          LSL64     ACC:P,#8              ; [CPU_] |1081| 
    2013 000002a3 07A6          ADDL      ACC,XAR6              ; [CPU_] |1081| 
    2014 000002a4 1EAC          MOVL      XT,ACC                ; [CPU_] |1081| 
    2015 000002a5 FE88          SUBB      SP,#8                 ; [CPU_U] 
    2016                      .dwcfi  cfa_offset, -8
    2017 000002a6 28A9          MOV       AL,#51840             ; [CPU_] |1081| 
         000002a7 CA80 
    2018 000002a8 28A8          MOV       AH,#2265              ; [CPU_] |1081| 
         000002a9 08D9 
    2019 000002aa 5605          IMPYL     P,XT,ACC              ; [CPU_] |1081| 
         000002ab 00A9 
    2020 000002ac 82BE          MOVL      XAR3,*--SP            ; [CPU_] 
    2021                      .dwcfi  cfa_offset, -6
    2022                      .dwcfi  restore_reg, 11
    2023 000002ad 5663          QMPYL     ACC,XT,ACC            ; [CPU_] |1081| 
         000002ae 00A9 
    2024 000002af 56A7          LSL64     ACC:P,#8              ; [CPU_] |1081| 
    2025 000002b0 86BE          MOVL      XAR2,*--SP            ; [CPU_] 
    2026                      .dwcfi  cfa_offset, -4
    2027                      .dwcfi  restore_reg, 9
    2028 000002b1 8BBE          MOVL      XAR1,*--SP            ; [CPU_] 
    2029                      .dwcfi  cfa_offset, -2
    2030                      .dwcfi  restore_reg, 7
    2031              $C$DW$142       .dwtag  DW_TAG_TI_branch
    2032                      .dwattr $C$DW$142, DW_AT_low_pc(0x00)
TMS320C2000 Assembler PC v15.12.3 Wed Nov 22 00:56:30 2017

Tools Copyright (c) 1996-2015 Texas Instruments Incorporated
C:\Users\wmj\AppData\Local\Temp\0764810                              PAGE   42

    2033                      .dwattr $C$DW$142, DW_AT_TI_return
    2034              
    2035 000002b2 0006          LRETR     ; [CPU_] 
    2036                      ; return occurs ; [] 
    2037                      .dwattr $C$DW$128, DW_AT_TI_end_file("C:/Users/wmj/Desktop/BM1000_v1.1/sw/modules/user/src/32b/user.c
    2038                      .dwattr $C$DW$128, DW_AT_TI_end_line(0x43a)
    2039                      .dwattr $C$DW$128, DW_AT_TI_end_column(0x01)
    2040                      .dwendentry
    2041                      .dwendtag $C$DW$128
    2042              
    2043 000002b3               .sect   ".text"
    2044                      .clink
    2045                      .global _USER_computeTorque_Nm
    2046              
    2047              $C$DW$143       .dwtag  DW_TAG_subprogram
    2048                      .dwattr $C$DW$143, DW_AT_name("USER_computeTorque_Nm")
    2049                      .dwattr $C$DW$143, DW_AT_low_pc(_USER_computeTorque_Nm)
    2050                      .dwattr $C$DW$143, DW_AT_high_pc(0x00)
    2051                      .dwattr $C$DW$143, DW_AT_TI_symbol_name("_USER_computeTorque_Nm")
    2052                      .dwattr $C$DW$143, DW_AT_external
    2053                      .dwattr $C$DW$143, DW_AT_type(*$C$DW$T$20)
    2054                      .dwattr $C$DW$143, DW_AT_TI_begin_file("C:/Users/wmj/Desktop/BM1000_v1.1/sw/modules/user/src/32b/user
    2055                      .dwattr $C$DW$143, DW_AT_TI_begin_line(0x41b)
    2056                      .dwattr $C$DW$143, DW_AT_TI_begin_column(0x05)
    2057                      .dwattr $C$DW$143, DW_AT_TI_max_frame_size(-16)
    2058                      .dwpsn  file "C:/Users/wmj/Desktop/BM1000_v1.1/sw/modules/user/src/32b/user.c",line 1052,column 1,is_
    2059              
    2060                      .dwfde $C$DW$CIE, _USER_computeTorque_Nm
    2061              $C$DW$144       .dwtag  DW_TAG_formal_parameter
    2062                      .dwattr $C$DW$144, DW_AT_name("handle")
    2063                      .dwattr $C$DW$144, DW_AT_TI_symbol_name("_handle")
    2064                      .dwattr $C$DW$144, DW_AT_type(*$C$DW$T$93)
    2065                      .dwattr $C$DW$144, DW_AT_location[DW_OP_reg12]
    2066              
    2067              $C$DW$145       .dwtag  DW_TAG_formal_parameter
    2068                      .dwattr $C$DW$145, DW_AT_name("torque_Flux_sf")
    2069                      .dwattr $C$DW$145, DW_AT_TI_symbol_name("_torque_Flux_sf")
    2070                      .dwattr $C$DW$145, DW_AT_type(*$C$DW$T$111)
    2071                      .dwattr $C$DW$145, DW_AT_location[DW_OP_reg0]
    2072              
    2073              $C$DW$146       .dwtag  DW_TAG_formal_parameter
    2074                      .dwattr $C$DW$146, DW_AT_name("torque_Ls_sf")
    2075                      .dwattr $C$DW$146, DW_AT_TI_symbol_name("_torque_Ls_sf")
    2076                      .dwattr $C$DW$146, DW_AT_type(*$C$DW$T$111)
    2077                      .dwattr $C$DW$146, DW_AT_location[DW_OP_breg20 -18]
    2078              
    2079              
    2080              ;***************************************************************
    2081              ;* FNAME: _USER_computeTorque_Nm        FR SIZE:  14           *
    2082              ;*                                                             *
    2083              ;* FUNCTION ENVIRONMENT                                        *
    2084              ;*                                                             *
    2085              ;* FUNCTION PROPERTIES                                         *
    2086              ;*                            0 Parameter,  8 Auto,  6 SOE     *
    2087              ;***************************************************************
TMS320C2000 Assembler PC v15.12.3 Wed Nov 22 00:56:30 2017

Tools Copyright (c) 1996-2015 Texas Instruments Incorporated
C:\Users\wmj\AppData\Local\Temp\0764810                              PAGE   43

    2088              
    2089              _USER_computeTorque_Nm:
    2090              ;* AR1   assigned to _handle
    2091              $C$DW$147       .dwtag  DW_TAG_variable
    2092                      .dwattr $C$DW$147, DW_AT_name("handle")
    2093                      .dwattr $C$DW$147, DW_AT_TI_symbol_name("_handle")
    2094                      .dwattr $C$DW$147, DW_AT_type(*$C$DW$T$94)
    2095                      .dwattr $C$DW$147, DW_AT_location[DW_OP_reg6]
    2096              
    2097              $C$DW$148       .dwtag  DW_TAG_variable
    2098                      .dwattr $C$DW$148, DW_AT_name("torque_Flux_sf")
    2099                      .dwattr $C$DW$148, DW_AT_TI_symbol_name("_torque_Flux_sf")
    2100                      .dwattr $C$DW$148, DW_AT_type(*$C$DW$T$111)
    2101                      .dwattr $C$DW$148, DW_AT_location[DW_OP_breg20 -2]
    2102              
    2103              $C$DW$149       .dwtag  DW_TAG_variable
    2104                      .dwattr $C$DW$149, DW_AT_name("torque_Ls_sf")
    2105                      .dwattr $C$DW$149, DW_AT_TI_symbol_name("_torque_Ls_sf")
    2106                      .dwattr $C$DW$149, DW_AT_type(*$C$DW$T$111)
    2107                      .dwattr $C$DW$149, DW_AT_location[DW_OP_breg20 -4]
    2108              
    2109              $C$DW$150       .dwtag  DW_TAG_variable
    2110                      .dwattr $C$DW$150, DW_AT_name("Flux_pu")
    2111                      .dwattr $C$DW$150, DW_AT_TI_symbol_name("_Flux_pu")
    2112                      .dwattr $C$DW$150, DW_AT_type(*$C$DW$T$20)
    2113                      .dwattr $C$DW$150, DW_AT_location[DW_OP_breg20 -6]
    2114              
    2115              ;* AR3   assigned to _Id_pu
    2116              $C$DW$151       .dwtag  DW_TAG_variable
    2117                      .dwattr $C$DW$151, DW_AT_name("Id_pu")
    2118                      .dwattr $C$DW$151, DW_AT_TI_symbol_name("_Id_pu")
    2119                      .dwattr $C$DW$151, DW_AT_type(*$C$DW$T$20)
    2120                      .dwattr $C$DW$151, DW_AT_location[DW_OP_reg10]
    2121              
    2122              ;* AR2   assigned to _Iq_pu
    2123              $C$DW$152       .dwtag  DW_TAG_variable
    2124                      .dwattr $C$DW$152, DW_AT_name("Iq_pu")
    2125                      .dwattr $C$DW$152, DW_AT_TI_symbol_name("_Iq_pu")
    2126                      .dwattr $C$DW$152, DW_AT_type(*$C$DW$T$20)
    2127                      .dwattr $C$DW$152, DW_AT_location[DW_OP_reg8]
    2128              
    2129              ;* AR7   assigned to _Ld_minus_Lq_pu
    2130              $C$DW$153       .dwtag  DW_TAG_variable
    2131                      .dwattr $C$DW$153, DW_AT_name("Ld_minus_Lq_pu")
    2132                      .dwattr $C$DW$153, DW_AT_TI_symbol_name("_Ld_minus_Lq_pu")
    2133                      .dwattr $C$DW$153, DW_AT_type(*$C$DW$T$20)
    2134                      .dwattr $C$DW$153, DW_AT_location[DW_OP_reg18]
    2135              
    2136                      .dwcfi  cfa_offset, -2
    2137                      .dwcfi  save_reg_to_mem, 26, 0
    2138 000002b3 B2BD          MOVL      *SP++,XAR1            ; [CPU_] 
    2139                      .dwcfi  save_reg_to_mem, 7, 2
    2140                      .dwcfi  cfa_offset, -4
    2141 000002b4 AABD          MOVL      *SP++,XAR2            ; [CPU_] 
    2142                      .dwcfi  save_reg_to_mem, 9, 4
TMS320C2000 Assembler PC v15.12.3 Wed Nov 22 00:56:30 2017

Tools Copyright (c) 1996-2015 Texas Instruments Incorporated
C:\Users\wmj\AppData\Local\Temp\0764810                              PAGE   44

    2143                      .dwcfi  cfa_offset, -6
    2144 000002b5 A2BD          MOVL      *SP++,XAR3            ; [CPU_] 
    2145                      .dwcfi  save_reg_to_mem, 11, 6
    2146                      .dwcfi  cfa_offset, -8
    2147 000002b6 FE08          ADDB      SP,#8                 ; [CPU_U] 
    2148                      .dwcfi  cfa_offset, -16
    2149                      .dwpsn  file "C:/Users/wmj/Desktop/BM1000_v1.1/sw/modules/user/src/32b/user.c",line 1055,column 15,is
    2150 000002b7 D018          MOVB      XAR0,#24              ; [CPU_] |1055| 
    2151                      .dwpsn  file "C:/Users/wmj/Desktop/BM1000_v1.1/sw/modules/user/src/32b/user.c",line 1052,column 1,is_
    2152 000002b8 8BA4          MOVL      XAR1,XAR4             ; [CPU_] |1052| 
    2153 000002b9 1E42          MOVL      *-SP[2],ACC           ; [CPU_] |1052| 
    2154 000002ba 0652          MOVL      ACC,*-SP[18]          ; [CPU_] |1052| 
    2155 000002bb 1E44          MOVL      *-SP[4],ACC           ; [CPU_] |1052| 
    2156                      .dwpsn  file "C:/Users/wmj/Desktop/BM1000_v1.1/sw/modules/user/src/32b/user.c",line 1055,column 15,is
    2157 000002bc 8A91          MOVL      XAR4,*+XAR1[AR0]      ; [CPU_] |1055| 
    2158              $C$DW$154       .dwtag  DW_TAG_TI_branch
    2159                      .dwattr $C$DW$154, DW_AT_low_pc(0x00)
    2160                      .dwattr $C$DW$154, DW_AT_name("_EST_getFlux_pu")
    2161                      .dwattr $C$DW$154, DW_AT_TI_call
    2162              
    2163 000002bd 7640!         LCR       #_EST_getFlux_pu      ; [CPU_] |1055| 
         000002be 0000 
    2164                      ; call occurs [#_EST_getFlux_pu] ; [] |1055| 
    2165                      .dwpsn  file "C:/Users/wmj/Desktop/BM1000_v1.1/sw/modules/pid/src/32b/pid.h",line 106,column 3,is_stm
    2166 000002bf D020          MOVB      XAR0,#32              ; [CPU_] |106| 
    2167                      .dwpsn  file "C:/Users/wmj/Desktop/BM1000_v1.1/sw/modules/user/src/32b/user.c",line 1055,column 15,is
    2168 000002c0 1E46          MOVL      *-SP[6],ACC           ; [CPU_] |1055| 
    2169                      .dwpsn  file "C:/Users/wmj/Desktop/BM1000_v1.1/sw/modules/pid/src/32b/pid.h",line 106,column 3,is_stm
    2170 000002c1 020A          MOVB      ACC,#10               ; [CPU_] |106| 
    2171 000002c2 0791          ADDL      ACC,*+XAR1[AR0]       ; [CPU_] |106| 
    2172 000002c3 8AA9          MOVL      XAR4,ACC              ; [CPU_] |106| 
    2173 000002c4 D032          MOVB      XAR0,#50              ; [CPU_] |106| 
    2174 000002c5 020A          MOVB      ACC,#10               ; [CPU_] |106| 
    2175 000002c6 82C4          MOVL      XAR3,*+XAR4[0]        ; [CPU_] |106| 
    2176 000002c7 0791          ADDL      ACC,*+XAR1[AR0]       ; [CPU_] |106| 
    2177 000002c8 8AA9          MOVL      XAR4,ACC              ; [CPU_] |106| 
    2178                      .dwpsn  file "C:/Users/wmj/Desktop/BM1000_v1.1/sw/modules/user/src/32b/user.c",line 1058,column 22,is
    2179 000002c9 D018          MOVB      XAR0,#24              ; [CPU_] |1058| 
    2180                      .dwpsn  file "C:/Users/wmj/Desktop/BM1000_v1.1/sw/modules/pid/src/32b/pid.h",line 106,column 3,is_stm
    2181 000002ca 86C4          MOVL      XAR2,*+XAR4[0]        ; [CPU_] |106| 
    2182                      .dwpsn  file "C:/Users/wmj/Desktop/BM1000_v1.1/sw/modules/user/src/32b/user.c",line 1058,column 22,is
    2183 000002cb 8A91          MOVL      XAR4,*+XAR1[AR0]      ; [CPU_] |1058| 
    2184              $C$DW$155       .dwtag  DW_TAG_TI_branch
    2185                      .dwattr $C$DW$155, DW_AT_low_pc(0x00)
    2186                      .dwattr $C$DW$155, DW_AT_name("_EST_getLs_q_pu")
    2187                      .dwattr $C$DW$155, DW_AT_TI_call
    2188              
    2189 000002cc 7640!         LCR       #_EST_getLs_q_pu      ; [CPU_] |1058| 
         000002cd 0000 
    2190                      ; call occurs [#_EST_getLs_q_pu] ; [] |1058| 
    2191 000002ce D018          MOVB      XAR0,#24              ; [CPU_] |1058| 
    2192 000002cf 1E48          MOVL      *-SP[8],ACC           ; [CPU_] |1058| 
    2193 000002d0 8A91          MOVL      XAR4,*+XAR1[AR0]      ; [CPU_] |1058| 
    2194              $C$DW$156       .dwtag  DW_TAG_TI_branch
    2195                      .dwattr $C$DW$156, DW_AT_low_pc(0x00)
TMS320C2000 Assembler PC v15.12.3 Wed Nov 22 00:56:30 2017

Tools Copyright (c) 1996-2015 Texas Instruments Incorporated
C:\Users\wmj\AppData\Local\Temp\0764810                              PAGE   45

    2196                      .dwattr $C$DW$156, DW_AT_name("_EST_getLs_d_pu")
    2197                      .dwattr $C$DW$156, DW_AT_TI_call
    2198              
    2199 000002d1 7640!         LCR       #_EST_getLs_d_pu      ; [CPU_] |1058| 
         000002d2 0000 
    2200                      ; call occurs [#_EST_getLs_d_pu] ; [] |1058| 
    2201 000002d3 C448          MOVL      XAR6,*-SP[8]          ; [CPU_] |1058| 
    2202 000002d4 3B01          SETC      SXM                   ; [CPU_] 
    2203 000002d5 8746          MOVL      XT,*-SP[6]            ; [CPU_] |1058| 
    2204 000002d6 03A6          SUBL      ACC,XAR6              ; [CPU_] |1058| 
    2205                      .dwpsn  file "C:/Users/wmj/Desktop/BM1000_v1.1/sw/modules/user/src/32b/user.c",line 1063,column 3,is_
    2206 000002d7 5605          IMPYL     P,XT,XAR2             ; [CPU_] |1063| 
         000002d8 00A2 
    2207                      .dwpsn  file "C:/Users/wmj/Desktop/BM1000_v1.1/sw/modules/user/src/32b/user.c",line 1058,column 22,is
    2208 000002d9 FF45          SFR       ACC,6                 ; [CPU_] |1058| 
    2209                      .dwpsn  file "C:/Users/wmj/Desktop/BM1000_v1.1/sw/modules/user/src/32b/user.c",line 1063,column 3,is_
    2210 000002da C442          MOVL      XAR6,*-SP[2]          ; [CPU_] |1063| 
    2211                      .dwpsn  file "C:/Users/wmj/Desktop/BM1000_v1.1/sw/modules/user/src/32b/user.c",line 1058,column 22,is
    2212 000002db 1EA7          MOVL      XAR7,ACC              ; [CPU_] |1058| 
    2213                      .dwpsn  file "C:/Users/wmj/Desktop/BM1000_v1.1/sw/modules/user/src/32b/user.c",line 1063,column 3,is_
    2214 000002dc 5663          QMPYL     ACC,XT,XAR2           ; [CPU_] |1063| 
         000002dd 00A2 
    2215 000002de 56A7          LSL64     ACC:P,#8              ; [CPU_] |1063| 
    2216 000002df 1EAC          MOVL      XT,ACC                ; [CPU_] |1063| 
    2217 000002e0 0642          MOVL      ACC,*-SP[2]           ; [CPU_] |1063| 
    2218 000002e1 5605          IMPYL     P,XT,XAR6             ; [CPU_] |1063| 
         000002e2 00A6 
    2219 000002e3 5663          QMPYL     ACC,XT,ACC            ; [CPU_] |1063| 
         000002e4 00A9 
    2220 000002e5 56A7          LSL64     ACC:P,#8              ; [CPU_] |1063| 
    2221 000002e6 87A7          MOVL      XT,XAR7               ; [CPU_] |1063| 
    2222 000002e7 1EA6          MOVL      XAR6,ACC              ; [CPU_] |1063| 
    2223 000002e8 C544          MOVL      XAR7,*-SP[4]          ; [CPU_] |1063| 
    2224 000002e9 5605          IMPYL     P,XT,XAR3             ; [CPU_] |1063| 
         000002ea 00A3 
    2225 000002eb 5663          QMPYL     ACC,XT,XAR3           ; [CPU_] |1063| 
         000002ec 00A3 
    2226 000002ed 56A7          LSL64     ACC:P,#8              ; [CPU_] |1063| 
    2227 000002ee 1EAC          MOVL      XT,ACC                ; [CPU_] |1063| 
    2228 000002ef FE88          SUBB      SP,#8                 ; [CPU_U] 
    2229                      .dwcfi  cfa_offset, -8
    2230 000002f0 5605          IMPYL     P,XT,XAR2             ; [CPU_] |1063| 
         000002f1 00A2 
    2231 000002f2 5663          QMPYL     ACC,XT,XAR2           ; [CPU_] |1063| 
         000002f3 00A2 
    2232 000002f4 56A7          LSL64     ACC:P,#8              ; [CPU_] |1063| 
    2233 000002f5 82BE          MOVL      XAR3,*--SP            ; [CPU_] 
    2234                      .dwcfi  cfa_offset, -6
    2235                      .dwcfi  restore_reg, 11
    2236 000002f6 1EAC          MOVL      XT,ACC                ; [CPU_] |1063| 
    2237 000002f7 5605          IMPYL     P,XT,XAR7             ; [CPU_] |1063| 
         000002f8 00A7 
    2238 000002f9 5663          QMPYL     ACC,XT,XAR7           ; [CPU_] |1063| 
         000002fa 00A7 
    2239 000002fb 86BE          MOVL      XAR2,*--SP            ; [CPU_] 
TMS320C2000 Assembler PC v15.12.3 Wed Nov 22 00:56:30 2017

Tools Copyright (c) 1996-2015 Texas Instruments Incorporated
C:\Users\wmj\AppData\Local\Temp\0764810                              PAGE   46

    2240                      .dwcfi  cfa_offset, -4
    2241                      .dwcfi  restore_reg, 9
    2242 000002fc 56A7          LSL64     ACC:P,#8              ; [CPU_] |1063| 
    2243 000002fd 07A6          ADDL      ACC,XAR6              ; [CPU_] |1063| 
    2244 000002fe 8BBE          MOVL      XAR1,*--SP            ; [CPU_] 
    2245                      .dwcfi  cfa_offset, -2
    2246                      .dwcfi  restore_reg, 7
    2247              $C$DW$157       .dwtag  DW_TAG_TI_branch
    2248                      .dwattr $C$DW$157, DW_AT_low_pc(0x00)
    2249                      .dwattr $C$DW$157, DW_AT_TI_return
    2250              
    2251 000002ff 0006          LRETR     ; [CPU_] 
    2252                      ; return occurs ; [] 
    2253                      .dwattr $C$DW$143, DW_AT_TI_end_file("C:/Users/wmj/Desktop/BM1000_v1.1/sw/modules/user/src/32b/user.c
    2254                      .dwattr $C$DW$143, DW_AT_TI_end_line(0x428)
    2255                      .dwattr $C$DW$143, DW_AT_TI_end_column(0x01)
    2256                      .dwendentry
    2257                      .dwendtag $C$DW$143
    2258              
    2259 00000300               .sect   ".text"
    2260                      .clink
    2261                      .global _USER_computeTorque_Ls_Id_Iq_pu_to_Nm_sf
    2262              
    2263              $C$DW$158       .dwtag  DW_TAG_subprogram
    2264                      .dwattr $C$DW$158, DW_AT_name("USER_computeTorque_Ls_Id_Iq_pu_to_Nm_sf")
    2265                      .dwattr $C$DW$158, DW_AT_low_pc(_USER_computeTorque_Ls_Id_Iq_pu_to_Nm_sf)
    2266                      .dwattr $C$DW$158, DW_AT_high_pc(0x00)
    2267                      .dwattr $C$DW$158, DW_AT_TI_symbol_name("_USER_computeTorque_Ls_Id_Iq_pu_to_Nm_sf")
    2268                      .dwattr $C$DW$158, DW_AT_external
    2269                      .dwattr $C$DW$158, DW_AT_type(*$C$DW$T$20)
    2270                      .dwattr $C$DW$158, DW_AT_TI_begin_file("C:/Users/wmj/Desktop/BM1000_v1.1/sw/modules/user/src/32b/user
    2271                      .dwattr $C$DW$158, DW_AT_TI_begin_line(0x3e0)
    2272                      .dwattr $C$DW$158, DW_AT_TI_begin_column(0x05)
    2273                      .dwattr $C$DW$158, DW_AT_TI_max_frame_size(-20)
    2274                      .dwpsn  file "C:/Users/wmj/Desktop/BM1000_v1.1/sw/modules/user/src/32b/user.c",line 993,column 1,is_s
    2275              
    2276                      .dwfde $C$DW$CIE, _USER_computeTorque_Ls_Id_Iq_pu_to_Nm_sf
    2277              $C$DW$159       .dwtag  DW_TAG_formal_parameter
    2278                      .dwattr $C$DW$159, DW_AT_name("pUserParams")
    2279                      .dwattr $C$DW$159, DW_AT_TI_symbol_name("_pUserParams")
    2280                      .dwattr $C$DW$159, DW_AT_type(*$C$DW$T$85)
    2281                      .dwattr $C$DW$159, DW_AT_location[DW_OP_reg12]
    2282              
    2283              
    2284              ;***************************************************************
    2285              ;* FNAME: _USER_computeTorque_Ls_Id_Iq_pu_to_Nm_sf FR SIZE:  18           *
    2286              ;*                                                             *
    2287              ;* FUNCTION ENVIRONMENT                                        *
    2288              ;*                                                             *
    2289              ;* FUNCTION PROPERTIES                                         *
    2290              ;*                            2 Parameter, 10 Auto,  6 SOE     *
    2291              ;***************************************************************
    2292              
    2293              _USER_computeTorque_Ls_Id_Iq_pu_to_Nm_sf:
    2294              ;* AR1   assigned to $O$C1
TMS320C2000 Assembler PC v15.12.3 Wed Nov 22 00:56:30 2017

Tools Copyright (c) 1996-2015 Texas Instruments Incorporated
C:\Users\wmj\AppData\Local\Temp\0764810                              PAGE   47

    2295              ;* AR3   assigned to _pUserParams
    2296              $C$DW$160       .dwtag  DW_TAG_variable
    2297                      .dwattr $C$DW$160, DW_AT_name("pUserParams")
    2298                      .dwattr $C$DW$160, DW_AT_TI_symbol_name("_pUserParams")
    2299                      .dwattr $C$DW$160, DW_AT_type(*$C$DW$T$96)
    2300                      .dwattr $C$DW$160, DW_AT_location[DW_OP_reg10]
    2301              
    2302              $C$DW$161       .dwtag  DW_TAG_variable
    2303                      .dwattr $C$DW$161, DW_AT_name("FullScaleInductance")
    2304                      .dwattr $C$DW$161, DW_AT_TI_symbol_name("_FullScaleInductance")
    2305                      .dwattr $C$DW$161, DW_AT_type(*$C$DW$T$57)
    2306                      .dwattr $C$DW$161, DW_AT_location[DW_OP_breg20 -12]
    2307              
    2308              ;* AR1   assigned to _FullScaleCurrent
    2309              $C$DW$162       .dwtag  DW_TAG_variable
    2310                      .dwattr $C$DW$162, DW_AT_name("FullScaleCurrent")
    2311                      .dwattr $C$DW$162, DW_AT_TI_symbol_name("_FullScaleCurrent")
    2312                      .dwattr $C$DW$162, DW_AT_type(*$C$DW$T$57)
    2313                      .dwattr $C$DW$162, DW_AT_location[DW_OP_reg6]
    2314              
    2315              ;* AR2   assigned to _lShift
    2316              $C$DW$163       .dwtag  DW_TAG_variable
    2317                      .dwattr $C$DW$163, DW_AT_name("lShift")
    2318                      .dwattr $C$DW$163, DW_AT_TI_symbol_name("_lShift")
    2319                      .dwattr $C$DW$163, DW_AT_type(*$C$DW$T$57)
    2320                      .dwattr $C$DW$163, DW_AT_location[DW_OP_reg8]
    2321              
    2322                      .dwcfi  cfa_offset, -2
    2323                      .dwcfi  save_reg_to_mem, 26, 0
    2324 00000300 B2BD          MOVL      *SP++,XAR1            ; [CPU_] 
    2325                      .dwcfi  save_reg_to_mem, 7, 2
    2326                      .dwcfi  cfa_offset, -4
    2327 00000301 AABD          MOVL      *SP++,XAR2            ; [CPU_] 
    2328                      .dwcfi  save_reg_to_mem, 9, 4
    2329                      .dwcfi  cfa_offset, -6
    2330 00000302 A2BD          MOVL      *SP++,XAR3            ; [CPU_] 
    2331                      .dwcfi  save_reg_to_mem, 11, 6
    2332                      .dwcfi  cfa_offset, -8
    2333 00000303 FE0C          ADDB      SP,#12                ; [CPU_U] 
    2334                      .dwcfi  cfa_offset, -20
    2335 00000304 82A4          MOVL      XAR3,XAR4             ; [CPU_] |993| 
    2336                      .dwpsn  file "C:/Users/wmj/Desktop/BM1000_v1.1/sw/modules/user/src/32b/user.c",line 994,column 31,is_
    2337 00000305 8BC3          MOVL      XAR1,*+XAR3[0]        ; [CPU_] |994| 
    2338 00000306 28A9          MOV       AL,#18377             ; [CPU_] |994| 
         00000307 47C9 
    2339 00000308 28A8          MOV       AH,#17682             ; [CPU_] |994| 
         00000309 4512 
    2340 0000030a 1E42          MOVL      *-SP[2],ACC           ; [CPU_] |994| 
    2341 0000030b B2A9          MOVL      ACC,XAR1              ; [CPU_] |994| 
    2342              $C$DW$164       .dwtag  DW_TAG_TI_branch
    2343                      .dwattr $C$DW$164, DW_AT_low_pc(0x00)
    2344                      .dwattr $C$DW$164, DW_AT_name("FS$$MPY")
    2345                      .dwattr $C$DW$164, DW_AT_TI_call
    2346              
    2347 0000030c 7640!         LCR       #FS$$MPY              ; [CPU_] |994| 
TMS320C2000 Assembler PC v15.12.3 Wed Nov 22 00:56:30 2017

Tools Copyright (c) 1996-2015 Texas Instruments Incorporated
C:\Users\wmj\AppData\Local\Temp\0764810                              PAGE   48

         0000030d 0000 
    2348                      ; call occurs [#FS$$MPY] ; [] |994| 
    2349 0000030e 1E42          MOVL      *-SP[2],ACC           ; [CPU_] |994| 
    2350 0000030f 06D3          MOVL      ACC,*+XAR3[2]         ; [CPU_] |994| 
    2351              $C$DW$165       .dwtag  DW_TAG_TI_branch
    2352                      .dwattr $C$DW$165, DW_AT_low_pc(0x00)
    2353                      .dwattr $C$DW$165, DW_AT_name("FS$$DIV")
    2354                      .dwattr $C$DW$165, DW_AT_TI_call
    2355              
    2356 00000310 7640!         LCR       #FS$$DIV              ; [CPU_] |994| 
         00000311 0000 
    2357                      ; call occurs [#FS$$DIV] ; [] |994| 
    2358 00000312 1EA6          MOVL      XAR6,ACC              ; [CPU_] |994| 
    2359 00000313 1E4C          MOVL      *-SP[12],ACC          ; [CPU_] |994| 
    2360                      .dwpsn  file "C:/Users/wmj/Desktop/BM1000_v1.1/sw/modules/user/src/32b/user.c",line 996,column 18,is_
    2361 00000314 28A9          MOV       AL,#13107             ; [CPU_] |996| 
         00000315 3333 
    2362 00000316 28A8          MOV       AH,#16179             ; [CPU_] |996| 
         00000317 3F33 
    2363 00000318 1E42          MOVL      *-SP[2],ACC           ; [CPU_] |996| 
    2364 00000319 06A6          MOVL      ACC,XAR6              ; [CPU_] |996| 
    2365              $C$DW$166       .dwtag  DW_TAG_TI_branch
    2366                      .dwattr $C$DW$166, DW_AT_low_pc(0x00)
    2367                      .dwattr $C$DW$166, DW_AT_name("FS$$MPY")
    2368                      .dwattr $C$DW$166, DW_AT_TI_call
    2369              
    2370 0000031a 7640!         LCR       #FS$$MPY              ; [CPU_] |996| 
         0000031b 0000 
    2371                      ; call occurs [#FS$$MPY] ; [] |996| 
    2372 0000031c D03C          MOVB      XAR0,#60              ; [CPU_] |996| 
    2373 0000031d 1E42          MOVL      *-SP[2],ACC           ; [CPU_] |996| 
    2374 0000031e 0693          MOVL      ACC,*+XAR3[AR0]       ; [CPU_] |996| 
    2375              $C$DW$167       .dwtag  DW_TAG_TI_branch
    2376                      .dwattr $C$DW$167, DW_AT_low_pc(0x00)
    2377                      .dwattr $C$DW$167, DW_AT_name("FS$$DIV")
    2378                      .dwattr $C$DW$167, DW_AT_TI_call
    2379              
    2380 0000031f 7640!         LCR       #FS$$DIV              ; [CPU_] |996| 
         00000320 0000 
    2381                      ; call occurs [#FS$$DIV] ; [] |996| 
    2382              $C$DW$168       .dwtag  DW_TAG_TI_branch
    2383                      .dwattr $C$DW$168, DW_AT_low_pc(0x00)
    2384                      .dwattr $C$DW$168, DW_AT_name("_log")
    2385                      .dwattr $C$DW$168, DW_AT_TI_call
    2386              
    2387 00000321 7640!         LCR       #_log                 ; [CPU_] |996| 
         00000322 0000 
    2388                      ; call occurs [#_log] ; [] |996| 
    2389 00000323 86A9          MOVL      XAR2,ACC              ; [CPU_] |996| 
    2390 00000324 9A00          MOV       AL,#0                 ; [CPU_] |996| 
    2391 00000325 28A8          MOV       AH,#16384             ; [CPU_] |996| 
         00000326 4000 
    2392              $C$DW$169       .dwtag  DW_TAG_TI_branch
    2393                      .dwattr $C$DW$169, DW_AT_low_pc(0x00)
    2394                      .dwattr $C$DW$169, DW_AT_name("_log")
TMS320C2000 Assembler PC v15.12.3 Wed Nov 22 00:56:30 2017

Tools Copyright (c) 1996-2015 Texas Instruments Incorporated
C:\Users\wmj\AppData\Local\Temp\0764810                              PAGE   49

    2395                      .dwattr $C$DW$169, DW_AT_TI_call
    2396              
    2397 00000327 7640!         LCR       #_log                 ; [CPU_] |996| 
         00000328 0000 
    2398                      ; call occurs [#_log] ; [] |996| 
    2399 00000329 1E42          MOVL      *-SP[2],ACC           ; [CPU_] |996| 
    2400 0000032a AAA9          MOVL      ACC,XAR2              ; [CPU_] |996| 
    2401              $C$DW$170       .dwtag  DW_TAG_TI_branch
    2402                      .dwattr $C$DW$170, DW_AT_low_pc(0x00)
    2403                      .dwattr $C$DW$170, DW_AT_name("FS$$DIV")
    2404                      .dwattr $C$DW$170, DW_AT_TI_call
    2405              
    2406 0000032b 7640!         LCR       #FS$$DIV              ; [CPU_] |996| 
         0000032c 0000 
    2407                      ; call occurs [#FS$$DIV] ; [] |996| 
    2408              $C$DW$171       .dwtag  DW_TAG_TI_branch
    2409                      .dwattr $C$DW$171, DW_AT_low_pc(0x00)
    2410                      .dwattr $C$DW$171, DW_AT_name("_ceil")
    2411                      .dwattr $C$DW$171, DW_AT_TI_call
    2412              
    2413 0000032d 7640!         LCR       #_ceil                ; [CPU_] |996| 
         0000032e 0000 
    2414                      ; call occurs [#_ceil] ; [] |996| 
    2415 0000032f 86A9          MOVL      XAR2,ACC              ; [CPU_] |996| 
    2416                      .dwpsn  file "C:/Users/wmj/Desktop/BM1000_v1.1/sw/modules/user/src/32b/user.c",line 998,column 3,is_s
    2417 00000330 B242          MOVL      *-SP[2],XAR1          ; [CPU_] |998| 
    2418 00000331 064C          MOVL      ACC,*-SP[12]          ; [CPU_] 
    2419              $C$DW$172       .dwtag  DW_TAG_TI_branch
    2420                      .dwattr $C$DW$172, DW_AT_low_pc(0x00)
    2421                      .dwattr $C$DW$172, DW_AT_name("FS$$MPY")
    2422                      .dwattr $C$DW$172, DW_AT_TI_call
    2423              
    2424 00000332 7640!         LCR       #FS$$MPY              ; [CPU_] |998| 
         00000333 0000 
    2425                      ; call occurs [#FS$$MPY] ; [] |998| 
    2426 00000334 B242          MOVL      *-SP[2],XAR1          ; [CPU_] |998| 
    2427              $C$DW$173       .dwtag  DW_TAG_TI_branch
    2428                      .dwattr $C$DW$173, DW_AT_low_pc(0x00)
    2429                      .dwattr $C$DW$173, DW_AT_name("FS$$MPY")
    2430                      .dwattr $C$DW$173, DW_AT_TI_call
    2431              
    2432 00000335 7640!         LCR       #FS$$MPY              ; [CPU_] |998| 
         00000336 0000 
    2433                      ; call occurs [#FS$$MPY] ; [] |998| 
    2434 00000337 D035          MOVB      XAR0,#53              ; [CPU_] |998| 
    2435 00000338 8BA9          MOVL      XAR1,ACC              ; [CPU_] |998| 
    2436 00000339 9293          MOV       AL,*+XAR3[AR0]        ; [CPU_] |998| 
    2437              $C$DW$174       .dwtag  DW_TAG_TI_branch
    2438                      .dwattr $C$DW$174, DW_AT_low_pc(0x00)
    2439                      .dwattr $C$DW$174, DW_AT_name("U$$TOFS")
    2440                      .dwattr $C$DW$174, DW_AT_TI_call
    2441              
    2442 0000033a 7640!         LCR       #U$$TOFS              ; [CPU_] |998| 
         0000033b 0000 
    2443                      ; call occurs [#U$$TOFS] ; [] |998| 
TMS320C2000 Assembler PC v15.12.3 Wed Nov 22 00:56:30 2017

Tools Copyright (c) 1996-2015 Texas Instruments Incorporated
C:\Users\wmj\AppData\Local\Temp\0764810                              PAGE   50

    2444 0000033c 1E42          MOVL      *-SP[2],ACC           ; [CPU_] |998| 
    2445 0000033d B2A9          MOVL      ACC,XAR1              ; [CPU_] |998| 
    2446              $C$DW$175       .dwtag  DW_TAG_TI_branch
    2447                      .dwattr $C$DW$175, DW_AT_low_pc(0x00)
    2448                      .dwattr $C$DW$175, DW_AT_name("FS$$MPY")
    2449                      .dwattr $C$DW$175, DW_AT_TI_call
    2450              
    2451 0000033e 7640!         LCR       #FS$$MPY              ; [CPU_] |998| 
         0000033f 0000 
    2452                      ; call occurs [#FS$$MPY] ; [] |998| 
    2453 00000340 1EA6          MOVL      XAR6,ACC              ; [CPU_] |998| 
    2454 00000341 FF2F          MOV       ACC,#32640 << 15      ; [CPU_] |998| 
         00000342 7F80 
    2455 00000343 1E42          MOVL      *-SP[2],ACC           ; [CPU_] |998| 
    2456 00000344 06A6          MOVL      ACC,XAR6              ; [CPU_] |998| 
    2457              $C$DW$176       .dwtag  DW_TAG_TI_branch
    2458                      .dwattr $C$DW$176, DW_AT_low_pc(0x00)
    2459                      .dwattr $C$DW$176, DW_AT_name("FS$$MPY")
    2460                      .dwattr $C$DW$176, DW_AT_TI_call
    2461              
    2462 00000345 7640!         LCR       #FS$$MPY              ; [CPU_] |998| 
         00000346 0000 
    2463                      ; call occurs [#FS$$MPY] ; [] |998| 
    2464 00000347 AA42          MOVL      *-SP[2],XAR2          ; [CPU_] |998| 
    2465 00000348 8BA9          MOVL      XAR1,ACC              ; [CPU_] |998| 
    2466 00000349 9A00          MOV       AL,#0                 ; [CPU_] |998| 
    2467 0000034a 28A8          MOV       AH,#16384             ; [CPU_] |998| 
         0000034b 4000 
    2468              $C$DW$177       .dwtag  DW_TAG_TI_branch
    2469                      .dwattr $C$DW$177, DW_AT_low_pc(0x00)
    2470                      .dwattr $C$DW$177, DW_AT_name("_pow")
    2471                      .dwattr $C$DW$177, DW_AT_TI_call
    2472              
    2473 0000034c 7640!         LCR       #_pow                 ; [CPU_] |998| 
         0000034d 0000 
    2474                      ; call occurs [#_pow] ; [] |998| 
    2475 0000034e 1E42          MOVL      *-SP[2],ACC           ; [CPU_] |998| 
    2476 0000034f B2A9          MOVL      ACC,XAR1              ; [CPU_] |998| 
    2477              $C$DW$178       .dwtag  DW_TAG_TI_branch
    2478                      .dwattr $C$DW$178, DW_AT_low_pc(0x00)
    2479                      .dwattr $C$DW$178, DW_AT_name("FS$$MPY")
    2480                      .dwattr $C$DW$178, DW_AT_TI_call
    2481              
    2482 00000350 7640!         LCR       #FS$$MPY              ; [CPU_] |998| 
         00000351 0000 
    2483                      ; call occurs [#FS$$MPY] ; [] |998| 
    2484 00000352 5CAD          MOVZ      AR4,SP                ; [CPU_] |998| 
    2485 00000353 DC8A          SUBB      XAR4,#10              ; [CPU_U] |998| 
    2486 00000354 88A4          MOVZ      AR6,AR4               ; [CPU_] |998| 
    2487              $C$DW$179       .dwtag  DW_TAG_TI_branch
    2488                      .dwattr $C$DW$179, DW_AT_low_pc(0x00)
    2489                      .dwattr $C$DW$179, DW_AT_name("FS$$TOFD")
    2490                      .dwattr $C$DW$179, DW_AT_TI_call
    2491              
    2492 00000355 7640!         LCR       #FS$$TOFD             ; [CPU_] |998| 
TMS320C2000 Assembler PC v15.12.3 Wed Nov 22 00:56:30 2017

Tools Copyright (c) 1996-2015 Texas Instruments Incorporated
C:\Users\wmj\AppData\Local\Temp\0764810                              PAGE   51

         00000356 0000 
    2493                      ; call occurs [#FS$$TOFD] ; [] |998| 
    2494 00000357 5DAD          MOVZ      AR5,SP                ; [CPU_] |998| 
    2495 00000358 5CAD          MOVZ      AR4,SP                ; [CPU_] |998| 
    2496 00000359 DD86          SUBB      XAR5,#6               ; [CPU_U] |998| 
    2497 0000035a DC8A          SUBB      XAR4,#10              ; [CPU_U] |998| 
    2498 0000035b 88A5          MOVZ      AR6,AR5               ; [CPU_] |998| 
    2499 0000035c 5CA4          MOVZ      AR4,AR4               ; [CPU_] |998| 
    2500 0000035d 8F40+         MOVL      XAR5,#$C$FL2          ; [CPU_U] |998| 
         0000035e 0004 
    2501              $C$DW$180       .dwtag  DW_TAG_TI_branch
    2502                      .dwattr $C$DW$180, DW_AT_low_pc(0x00)
    2503                      .dwattr $C$DW$180, DW_AT_name("FD$$MPY")
    2504                      .dwattr $C$DW$180, DW_AT_TI_call
    2505              
    2506 0000035f 7640!         LCR       #FD$$MPY              ; [CPU_] |998| 
         00000360 0000 
    2507                      ; call occurs [#FD$$MPY] ; [] |998| 
    2508 00000361 5CAD          MOVZ      AR4,SP                ; [CPU_] |998| 
    2509 00000362 DC86          SUBB      XAR4,#6               ; [CPU_U] |998| 
    2510 00000363 5CA4          MOVZ      AR4,AR4               ; [CPU_] |998| 
    2511              $C$DW$181       .dwtag  DW_TAG_TI_branch
    2512                      .dwattr $C$DW$181, DW_AT_low_pc(0x00)
    2513                      .dwattr $C$DW$181, DW_AT_name("FD$$TOL")
    2514                      .dwattr $C$DW$181, DW_AT_TI_call
    2515              
    2516 00000364 7640!         LCR       #FD$$TOL              ; [CPU_] |998| 
         00000365 0000 
    2517                      ; call occurs [#FD$$TOL] ; [] |998| 
    2518 00000366 FE8C          SUBB      SP,#12                ; [CPU_U] 
    2519                      .dwcfi  cfa_offset, -8
    2520 00000367 82BE          MOVL      XAR3,*--SP            ; [CPU_] 
    2521                      .dwcfi  cfa_offset, -6
    2522                      .dwcfi  restore_reg, 11
    2523 00000368 86BE          MOVL      XAR2,*--SP            ; [CPU_] 
    2524                      .dwcfi  cfa_offset, -4
    2525                      .dwcfi  restore_reg, 9
    2526 00000369 8BBE          MOVL      XAR1,*--SP            ; [CPU_] 
    2527                      .dwcfi  cfa_offset, -2
    2528                      .dwcfi  restore_reg, 7
    2529              $C$DW$182       .dwtag  DW_TAG_TI_branch
    2530                      .dwattr $C$DW$182, DW_AT_low_pc(0x00)
    2531                      .dwattr $C$DW$182, DW_AT_TI_return
    2532              
    2533 0000036a 0006          LRETR     ; [CPU_] 
    2534                      ; return occurs ; [] 
    2535                      .dwattr $C$DW$158, DW_AT_TI_end_file("C:/Users/wmj/Desktop/BM1000_v1.1/sw/modules/user/src/32b/user.c
    2536                      .dwattr $C$DW$158, DW_AT_TI_end_line(0x3e7)
    2537                      .dwattr $C$DW$158, DW_AT_TI_end_column(0x01)
    2538                      .dwendentry
    2539                      .dwendtag $C$DW$158
    2540              
    2541 0000036b               .sect   ".text"
    2542                      .clink
    2543                      .global _USER_computeTorque_Flux_Iq_pu_to_Nm_sf
TMS320C2000 Assembler PC v15.12.3 Wed Nov 22 00:56:30 2017

Tools Copyright (c) 1996-2015 Texas Instruments Incorporated
C:\Users\wmj\AppData\Local\Temp\0764810                              PAGE   52

    2544              
    2545              $C$DW$183       .dwtag  DW_TAG_subprogram
    2546                      .dwattr $C$DW$183, DW_AT_name("USER_computeTorque_Flux_Iq_pu_to_Nm_sf")
    2547                      .dwattr $C$DW$183, DW_AT_low_pc(_USER_computeTorque_Flux_Iq_pu_to_Nm_sf)
    2548                      .dwattr $C$DW$183, DW_AT_high_pc(0x00)
    2549                      .dwattr $C$DW$183, DW_AT_TI_symbol_name("_USER_computeTorque_Flux_Iq_pu_to_Nm_sf")
    2550                      .dwattr $C$DW$183, DW_AT_external
    2551                      .dwattr $C$DW$183, DW_AT_type(*$C$DW$T$20)
    2552                      .dwattr $C$DW$183, DW_AT_TI_begin_file("C:/Users/wmj/Desktop/BM1000_v1.1/sw/modules/user/src/32b/user
    2553                      .dwattr $C$DW$183, DW_AT_TI_begin_line(0x3ec)
    2554                      .dwattr $C$DW$183, DW_AT_TI_begin_column(0x05)
    2555                      .dwattr $C$DW$183, DW_AT_TI_max_frame_size(-18)
    2556                      .dwpsn  file "C:/Users/wmj/Desktop/BM1000_v1.1/sw/modules/user/src/32b/user.c",line 1005,column 1,is_
    2557              
    2558                      .dwfde $C$DW$CIE, _USER_computeTorque_Flux_Iq_pu_to_Nm_sf
    2559              $C$DW$184       .dwtag  DW_TAG_formal_parameter
    2560                      .dwattr $C$DW$184, DW_AT_name("pUserParams")
    2561                      .dwattr $C$DW$184, DW_AT_TI_symbol_name("_pUserParams")
    2562                      .dwattr $C$DW$184, DW_AT_type(*$C$DW$T$85)
    2563                      .dwattr $C$DW$184, DW_AT_location[DW_OP_reg12]
    2564              
    2565              
    2566              ;***************************************************************
    2567              ;* FNAME: _USER_computeTorque_Flux_Iq_pu_to_Nm_sf FR SIZE:  16           *
    2568              ;*                                                             *
    2569              ;* FUNCTION ENVIRONMENT                                        *
    2570              ;*                                                             *
    2571              ;* FUNCTION PROPERTIES                                         *
    2572              ;*                            2 Parameter,  8 Auto,  6 SOE     *
    2573              ;***************************************************************
    2574              
    2575              _USER_computeTorque_Flux_Iq_pu_to_Nm_sf:
    2576              ;* AR1   assigned to _lShift
    2577              $C$DW$185       .dwtag  DW_TAG_variable
    2578                      .dwattr $C$DW$185, DW_AT_name("lShift")
    2579                      .dwattr $C$DW$185, DW_AT_TI_symbol_name("_lShift")
    2580                      .dwattr $C$DW$185, DW_AT_type(*$C$DW$T$57)
    2581                      .dwattr $C$DW$185, DW_AT_location[DW_OP_reg6]
    2582              
    2583              ;* AL    assigned to _maxFlux
    2584              $C$DW$186       .dwtag  DW_TAG_variable
    2585                      .dwattr $C$DW$186, DW_AT_name("maxFlux")
    2586                      .dwattr $C$DW$186, DW_AT_TI_symbol_name("_maxFlux")
    2587                      .dwattr $C$DW$186, DW_AT_type(*$C$DW$T$57)
    2588                      .dwattr $C$DW$186, DW_AT_location[DW_OP_reg0]
    2589              
    2590              ;* AR2   assigned to _FullScaleCurrent
    2591              $C$DW$187       .dwtag  DW_TAG_variable
    2592                      .dwattr $C$DW$187, DW_AT_name("FullScaleCurrent")
    2593                      .dwattr $C$DW$187, DW_AT_TI_symbol_name("_FullScaleCurrent")
    2594                      .dwattr $C$DW$187, DW_AT_type(*$C$DW$T$57)
    2595                      .dwattr $C$DW$187, DW_AT_location[DW_OP_reg8]
    2596              
    2597              ;* AR3   assigned to _pUserParams
    2598              $C$DW$188       .dwtag  DW_TAG_variable
TMS320C2000 Assembler PC v15.12.3 Wed Nov 22 00:56:30 2017

Tools Copyright (c) 1996-2015 Texas Instruments Incorporated
C:\Users\wmj\AppData\Local\Temp\0764810                              PAGE   53

    2599                      .dwattr $C$DW$188, DW_AT_name("pUserParams")
    2600                      .dwattr $C$DW$188, DW_AT_TI_symbol_name("_pUserParams")
    2601                      .dwattr $C$DW$188, DW_AT_type(*$C$DW$T$96)
    2602                      .dwattr $C$DW$188, DW_AT_location[DW_OP_reg10]
    2603              
    2604              ;* AL    assigned to $O$S1
    2605                      .dwcfi  cfa_offset, -2
    2606                      .dwcfi  save_reg_to_mem, 26, 0
    2607 0000036b B2BD          MOVL      *SP++,XAR1            ; [CPU_] 
    2608                      .dwcfi  save_reg_to_mem, 7, 2
    2609                      .dwcfi  cfa_offset, -4
    2610 0000036c AABD          MOVL      *SP++,XAR2            ; [CPU_] 
    2611                      .dwcfi  save_reg_to_mem, 9, 4
    2612                      .dwcfi  cfa_offset, -6
    2613 0000036d A2BD          MOVL      *SP++,XAR3            ; [CPU_] 
    2614                      .dwcfi  save_reg_to_mem, 11, 6
    2615                      .dwcfi  cfa_offset, -8
    2616 0000036e FE0A          ADDB      SP,#10                ; [CPU_U] 
    2617                      .dwcfi  cfa_offset, -18
    2618 0000036f 82A4          MOVL      XAR3,XAR4             ; [CPU_] |1005| 
    2619                      .dwpsn  file "C:/Users/wmj/Desktop/BM1000_v1.1/sw/modules/user/src/32b/user.c",line 1008,column 19,is
    2620 00000370 D034          MOVB      XAR0,#52              ; [CPU_] |1008| 
    2621 00000371 9293          MOV       AL,*+XAR3[AR0]        ; [CPU_] |1008| 
    2622                      .dwpsn  file "C:/Users/wmj/Desktop/BM1000_v1.1/sw/modules/user/src/32b/user.c",line 1007,column 28,is
    2623 00000372 86C3          MOVL      XAR2,*+XAR3[0]        ; [CPU_] |1007| 
    2624                      .dwpsn  file "C:/Users/wmj/Desktop/BM1000_v1.1/sw/modules/user/src/32b/user.c",line 1008,column 19,is
    2625 00000373 6106          B         $C$L1,EQ              ; [CPU_] |1008| 
    2626                      ; branchcc occurs ; [] |1008| 
    2627 00000374 28A9          MOV       AL,#13107             ; [CPU_] |1008| 
         00000375 3333 
    2628 00000376 28A8          MOV       AH,#16179             ; [CPU_] |1008| 
         00000377 3F33 
    2629 00000378 6F05          B         $C$L2,UNC             ; [CPU_] |1008| 
    2630                      ; branch occurs ; [] |1008| 
    2631 00000379       $C$L1:    
    2632 00000379 28A9          MOV       AL,#52429             ; [CPU_] |1008| 
         0000037a CCCD 
    2633 0000037b 28A8          MOV       AH,#15692             ; [CPU_] |1008| 
         0000037c 3D4C 
    2634 0000037d       $C$L2:    
    2635 0000037d 1E42          MOVL      *-SP[2],ACC           ; [CPU_] |1008| 
    2636 0000037e D036          MOVB      XAR0,#54              ; [CPU_] |1008| 
    2637 0000037f 0693          MOVL      ACC,*+XAR3[AR0]       ; [CPU_] |1008| 
    2638              $C$DW$189       .dwtag  DW_TAG_TI_branch
    2639                      .dwattr $C$DW$189, DW_AT_low_pc(0x00)
    2640                      .dwattr $C$DW$189, DW_AT_name("FS$$MPY")
    2641                      .dwattr $C$DW$189, DW_AT_TI_call
    2642              
    2643 00000380 7640!         LCR       #FS$$MPY              ; [CPU_] |1008| 
         00000381 0000 
    2644                      ; call occurs [#FS$$MPY] ; [] |1008| 
    2645                      .dwpsn  file "C:/Users/wmj/Desktop/BM1000_v1.1/sw/modules/user/src/32b/user.c",line 1009,column 18,is
    2646 00000382 1E42          MOVL      *-SP[2],ACC           ; [CPU_] |1009| 
    2647 00000383 28A9          MOV       AL,#52429             ; [CPU_] |1009| 
         00000384 CCCD 
TMS320C2000 Assembler PC v15.12.3 Wed Nov 22 00:56:30 2017

Tools Copyright (c) 1996-2015 Texas Instruments Incorporated
C:\Users\wmj\AppData\Local\Temp\0764810                              PAGE   54

    2648 00000385 28A8          MOV       AH,#15820             ; [CPU_] |1009| 
         00000386 3DCC 
    2649              $C$DW$190       .dwtag  DW_TAG_TI_branch
    2650                      .dwattr $C$DW$190, DW_AT_low_pc(0x00)
    2651                      .dwattr $C$DW$190, DW_AT_name("FS$$DIV")
    2652                      .dwattr $C$DW$190, DW_AT_TI_call
    2653              
    2654 00000387 7640!         LCR       #FS$$DIV              ; [CPU_] |1009| 
         00000388 0000 
    2655                      ; call occurs [#FS$$DIV] ; [] |1009| 
    2656              $C$DW$191       .dwtag  DW_TAG_TI_branch
    2657                      .dwattr $C$DW$191, DW_AT_low_pc(0x00)
    2658                      .dwattr $C$DW$191, DW_AT_name("_log")
    2659                      .dwattr $C$DW$191, DW_AT_TI_call
    2660              
    2661 00000389 7640!         LCR       #_log                 ; [CPU_] |1009| 
         0000038a 0000 
    2662                      ; call occurs [#_log] ; [] |1009| 
    2663 0000038b 8BA9          MOVL      XAR1,ACC              ; [CPU_] |1009| 
    2664 0000038c 9A00          MOV       AL,#0                 ; [CPU_] |1009| 
    2665 0000038d 28A8          MOV       AH,#16384             ; [CPU_] |1009| 
         0000038e 4000 
    2666              $C$DW$192       .dwtag  DW_TAG_TI_branch
    2667                      .dwattr $C$DW$192, DW_AT_low_pc(0x00)
    2668                      .dwattr $C$DW$192, DW_AT_name("_log")
    2669                      .dwattr $C$DW$192, DW_AT_TI_call
    2670              
    2671 0000038f 7640!         LCR       #_log                 ; [CPU_] |1009| 
         00000390 0000 
    2672                      ; call occurs [#_log] ; [] |1009| 
    2673 00000391 1E42          MOVL      *-SP[2],ACC           ; [CPU_] |1009| 
    2674 00000392 B2A9          MOVL      ACC,XAR1              ; [CPU_] |1009| 
    2675              $C$DW$193       .dwtag  DW_TAG_TI_branch
    2676                      .dwattr $C$DW$193, DW_AT_low_pc(0x00)
    2677                      .dwattr $C$DW$193, DW_AT_name("FS$$DIV")
    2678                      .dwattr $C$DW$193, DW_AT_TI_call
    2679              
    2680 00000393 7640!         LCR       #FS$$DIV              ; [CPU_] |1009| 
         00000394 0000 
    2681                      ; call occurs [#FS$$DIV] ; [] |1009| 
    2682              $C$DW$194       .dwtag  DW_TAG_TI_branch
    2683                      .dwattr $C$DW$194, DW_AT_low_pc(0x00)
    2684                      .dwattr $C$DW$194, DW_AT_name("_ceil")
    2685                      .dwattr $C$DW$194, DW_AT_TI_call
    2686              
    2687 00000395 7640!         LCR       #_ceil                ; [CPU_] |1009| 
         00000396 0000 
    2688                      ; call occurs [#_ceil] ; [] |1009| 
    2689              $C$DW$195       .dwtag  DW_TAG_TI_branch
    2690                      .dwattr $C$DW$195, DW_AT_low_pc(0x00)
    2691                      .dwattr $C$DW$195, DW_AT_name("FS$$NEG")
    2692                      .dwattr $C$DW$195, DW_AT_TI_call
    2693              
    2694 00000397 7640!         LCR       #FS$$NEG              ; [CPU_] |1009| 
         00000398 0000 
TMS320C2000 Assembler PC v15.12.3 Wed Nov 22 00:56:30 2017

Tools Copyright (c) 1996-2015 Texas Instruments Incorporated
C:\Users\wmj\AppData\Local\Temp\0764810                              PAGE   55

    2695                      ; call occurs [#FS$$NEG] ; [] |1009| 
    2696 00000399 8BA9          MOVL      XAR1,ACC              ; [CPU_] |1009| 
    2697                      .dwpsn  file "C:/Users/wmj/Desktop/BM1000_v1.1/sw/modules/user/src/32b/user.c",line 1011,column 3,is_
    2698 0000039a 28A9          MOV       AL,#24886             ; [CPU_] |1011| 
         0000039b 6136 
    2699 0000039c 28A8          MOV       AH,#15490             ; [CPU_] |1011| 
         0000039d 3C82 
    2700 0000039e 1E42          MOVL      *-SP[2],ACC           ; [CPU_] |1011| 
    2701 0000039f AAA9          MOVL      ACC,XAR2              ; [CPU_] |1011| 
    2702              $C$DW$196       .dwtag  DW_TAG_TI_branch
    2703                      .dwattr $C$DW$196, DW_AT_low_pc(0x00)
    2704                      .dwattr $C$DW$196, DW_AT_name("FS$$MPY")
    2705                      .dwattr $C$DW$196, DW_AT_TI_call
    2706              
    2707 000003a0 7640!         LCR       #FS$$MPY              ; [CPU_] |1011| 
         000003a1 0000 
    2708                      ; call occurs [#FS$$MPY] ; [] |1011| 
    2709 000003a2 D035          MOVB      XAR0,#53              ; [CPU_] |1011| 
    2710 000003a3 86A9          MOVL      XAR2,ACC              ; [CPU_] |1011| 
    2711 000003a4 9293          MOV       AL,*+XAR3[AR0]        ; [CPU_] |1011| 
    2712              $C$DW$197       .dwtag  DW_TAG_TI_branch
    2713                      .dwattr $C$DW$197, DW_AT_low_pc(0x00)
    2714                      .dwattr $C$DW$197, DW_AT_name("U$$TOFS")
    2715                      .dwattr $C$DW$197, DW_AT_TI_call
    2716              
    2717 000003a5 7640!         LCR       #U$$TOFS              ; [CPU_] |1011| 
         000003a6 0000 
    2718                      ; call occurs [#U$$TOFS] ; [] |1011| 
    2719 000003a7 1E42          MOVL      *-SP[2],ACC           ; [CPU_] |1011| 
    2720 000003a8 AAA9          MOVL      ACC,XAR2              ; [CPU_] |1011| 
    2721              $C$DW$198       .dwtag  DW_TAG_TI_branch
    2722                      .dwattr $C$DW$198, DW_AT_low_pc(0x00)
    2723                      .dwattr $C$DW$198, DW_AT_name("FS$$MPY")
    2724                      .dwattr $C$DW$198, DW_AT_TI_call
    2725              
    2726 000003a9 7640!         LCR       #FS$$MPY              ; [CPU_] |1011| 
         000003aa 0000 
    2727                      ; call occurs [#FS$$MPY] ; [] |1011| 
    2728 000003ab 1EA6          MOVL      XAR6,ACC              ; [CPU_] |1011| 
    2729 000003ac FF2F          MOV       ACC,#32640 << 15      ; [CPU_] |1011| 
         000003ad 7F80 
    2730 000003ae 1E42          MOVL      *-SP[2],ACC           ; [CPU_] |1011| 
    2731 000003af 06A6          MOVL      ACC,XAR6              ; [CPU_] |1011| 
    2732              $C$DW$199       .dwtag  DW_TAG_TI_branch
    2733                      .dwattr $C$DW$199, DW_AT_low_pc(0x00)
    2734                      .dwattr $C$DW$199, DW_AT_name("FS$$MPY")
    2735                      .dwattr $C$DW$199, DW_AT_TI_call
    2736              
    2737 000003b0 7640!         LCR       #FS$$MPY              ; [CPU_] |1011| 
         000003b1 0000 
    2738                      ; call occurs [#FS$$MPY] ; [] |1011| 
    2739 000003b2 B242          MOVL      *-SP[2],XAR1          ; [CPU_] |1011| 
    2740 000003b3 86A9          MOVL      XAR2,ACC              ; [CPU_] |1011| 
    2741 000003b4 9A00          MOV       AL,#0                 ; [CPU_] |1011| 
    2742 000003b5 28A8          MOV       AH,#16384             ; [CPU_] |1011| 
TMS320C2000 Assembler PC v15.12.3 Wed Nov 22 00:56:30 2017

Tools Copyright (c) 1996-2015 Texas Instruments Incorporated
C:\Users\wmj\AppData\Local\Temp\0764810                              PAGE   56

         000003b6 4000 
    2743              $C$DW$200       .dwtag  DW_TAG_TI_branch
    2744                      .dwattr $C$DW$200, DW_AT_low_pc(0x00)
    2745                      .dwattr $C$DW$200, DW_AT_name("_pow")
    2746                      .dwattr $C$DW$200, DW_AT_TI_call
    2747              
    2748 000003b7 7640!         LCR       #_pow                 ; [CPU_] |1011| 
         000003b8 0000 
    2749                      ; call occurs [#_pow] ; [] |1011| 
    2750 000003b9 1E42          MOVL      *-SP[2],ACC           ; [CPU_] |1011| 
    2751 000003ba AAA9          MOVL      ACC,XAR2              ; [CPU_] |1011| 
    2752              $C$DW$201       .dwtag  DW_TAG_TI_branch
    2753                      .dwattr $C$DW$201, DW_AT_low_pc(0x00)
    2754                      .dwattr $C$DW$201, DW_AT_name("FS$$MPY")
    2755                      .dwattr $C$DW$201, DW_AT_TI_call
    2756              
    2757 000003bb 7640!         LCR       #FS$$MPY              ; [CPU_] |1011| 
         000003bc 0000 
    2758                      ; call occurs [#FS$$MPY] ; [] |1011| 
    2759 000003bd 5CAD          MOVZ      AR4,SP                ; [CPU_] |1011| 
    2760 000003be DC8A          SUBB      XAR4,#10              ; [CPU_U] |1011| 
    2761 000003bf 88A4          MOVZ      AR6,AR4               ; [CPU_] |1011| 
    2762              $C$DW$202       .dwtag  DW_TAG_TI_branch
    2763                      .dwattr $C$DW$202, DW_AT_low_pc(0x00)
    2764                      .dwattr $C$DW$202, DW_AT_name("FS$$TOFD")
    2765                      .dwattr $C$DW$202, DW_AT_TI_call
    2766              
    2767 000003c0 7640!         LCR       #FS$$TOFD             ; [CPU_] |1011| 
         000003c1 0000 
    2768                      ; call occurs [#FS$$TOFD] ; [] |1011| 
    2769 000003c2 5DAD          MOVZ      AR5,SP                ; [CPU_] |1011| 
    2770 000003c3 5CAD          MOVZ      AR4,SP                ; [CPU_] |1011| 
    2771 000003c4 DD86          SUBB      XAR5,#6               ; [CPU_U] |1011| 
    2772 000003c5 DC8A          SUBB      XAR4,#10              ; [CPU_U] |1011| 
    2773 000003c6 88A5          MOVZ      AR6,AR5               ; [CPU_] |1011| 
    2774 000003c7 5CA4          MOVZ      AR4,AR4               ; [CPU_] |1011| 
    2775 000003c8 8F40+         MOVL      XAR5,#$C$FL2          ; [CPU_U] |1011| 
         000003c9 0004 
    2776              $C$DW$203       .dwtag  DW_TAG_TI_branch
    2777                      .dwattr $C$DW$203, DW_AT_low_pc(0x00)
    2778                      .dwattr $C$DW$203, DW_AT_name("FD$$MPY")
    2779                      .dwattr $C$DW$203, DW_AT_TI_call
    2780              
    2781 000003ca 7640!         LCR       #FD$$MPY              ; [CPU_] |1011| 
         000003cb 0000 
    2782                      ; call occurs [#FD$$MPY] ; [] |1011| 
    2783 000003cc 5CAD          MOVZ      AR4,SP                ; [CPU_] |1011| 
    2784 000003cd DC86          SUBB      XAR4,#6               ; [CPU_U] |1011| 
    2785 000003ce 5CA4          MOVZ      AR4,AR4               ; [CPU_] |1011| 
    2786              $C$DW$204       .dwtag  DW_TAG_TI_branch
    2787                      .dwattr $C$DW$204, DW_AT_low_pc(0x00)
    2788                      .dwattr $C$DW$204, DW_AT_name("FD$$TOL")
    2789                      .dwattr $C$DW$204, DW_AT_TI_call
    2790              
    2791 000003cf 7640!         LCR       #FD$$TOL              ; [CPU_] |1011| 
TMS320C2000 Assembler PC v15.12.3 Wed Nov 22 00:56:30 2017

Tools Copyright (c) 1996-2015 Texas Instruments Incorporated
C:\Users\wmj\AppData\Local\Temp\0764810                              PAGE   57

         000003d0 0000 
    2792                      ; call occurs [#FD$$TOL] ; [] |1011| 
    2793 000003d1 FE8A          SUBB      SP,#10                ; [CPU_U] 
    2794                      .dwcfi  cfa_offset, -8
    2795 000003d2 82BE          MOVL      XAR3,*--SP            ; [CPU_] 
    2796                      .dwcfi  cfa_offset, -6
    2797                      .dwcfi  restore_reg, 11
    2798 000003d3 86BE          MOVL      XAR2,*--SP            ; [CPU_] 
    2799                      .dwcfi  cfa_offset, -4
    2800                      .dwcfi  restore_reg, 9
    2801 000003d4 8BBE          MOVL      XAR1,*--SP            ; [CPU_] 
    2802                      .dwcfi  cfa_offset, -2
    2803                      .dwcfi  restore_reg, 7
    2804              $C$DW$205       .dwtag  DW_TAG_TI_branch
    2805                      .dwattr $C$DW$205, DW_AT_low_pc(0x00)
    2806                      .dwattr $C$DW$205, DW_AT_TI_return
    2807              
    2808 000003d5 0006          LRETR     ; [CPU_] 
    2809                      ; return occurs ; [] 
    2810                      .dwattr $C$DW$183, DW_AT_TI_end_file("C:/Users/wmj/Desktop/BM1000_v1.1/sw/modules/user/src/32b/user.c
    2811                      .dwattr $C$DW$183, DW_AT_TI_end_line(0x3f4)
    2812                      .dwattr $C$DW$183, DW_AT_TI_end_column(0x01)
    2813                      .dwendentry
    2814                      .dwendtag $C$DW$183
    2815              
    2816 000003d6               .sect   ".text"
    2817                      .clink
    2818                      .global _USER_computeFlux_pu_to_Wb_sf
    2819              
    2820              $C$DW$206       .dwtag  DW_TAG_subprogram
    2821                      .dwattr $C$DW$206, DW_AT_name("USER_computeFlux_pu_to_Wb_sf")
    2822                      .dwattr $C$DW$206, DW_AT_low_pc(_USER_computeFlux_pu_to_Wb_sf)
    2823                      .dwattr $C$DW$206, DW_AT_high_pc(0x00)
    2824                      .dwattr $C$DW$206, DW_AT_TI_symbol_name("_USER_computeFlux_pu_to_Wb_sf")
    2825                      .dwattr $C$DW$206, DW_AT_external
    2826                      .dwattr $C$DW$206, DW_AT_type(*$C$DW$T$20)
    2827                      .dwattr $C$DW$206, DW_AT_TI_begin_file("C:/Users/wmj/Desktop/BM1000_v1.1/sw/modules/user/src/32b/user
    2828                      .dwattr $C$DW$206, DW_AT_TI_begin_line(0x3f9)
    2829                      .dwattr $C$DW$206, DW_AT_TI_begin_column(0x05)
    2830                      .dwattr $C$DW$206, DW_AT_TI_max_frame_size(-14)
    2831                      .dwpsn  file "C:/Users/wmj/Desktop/BM1000_v1.1/sw/modules/user/src/32b/user.c",line 1018,column 1,is_
    2832              
    2833                      .dwfde $C$DW$CIE, _USER_computeFlux_pu_to_Wb_sf
    2834              $C$DW$207       .dwtag  DW_TAG_formal_parameter
    2835                      .dwattr $C$DW$207, DW_AT_name("pUserParams")
    2836                      .dwattr $C$DW$207, DW_AT_TI_symbol_name("_pUserParams")
    2837                      .dwattr $C$DW$207, DW_AT_type(*$C$DW$T$85)
    2838                      .dwattr $C$DW$207, DW_AT_location[DW_OP_reg12]
    2839              
    2840              
    2841              ;***************************************************************
    2842              ;* FNAME: _USER_computeFlux_pu_to_Wb_sf FR SIZE:  12           *
    2843              ;*                                                             *
    2844              ;* FUNCTION ENVIRONMENT                                        *
    2845              ;*                                                             *
TMS320C2000 Assembler PC v15.12.3 Wed Nov 22 00:56:30 2017

Tools Copyright (c) 1996-2015 Texas Instruments Incorporated
C:\Users\wmj\AppData\Local\Temp\0764810                              PAGE   58

    2846              ;* FUNCTION PROPERTIES                                         *
    2847              ;*                            2 Parameter,  8 Auto,  2 SOE     *
    2848              ;***************************************************************
    2849              
    2850              _USER_computeFlux_pu_to_Wb_sf:
    2851              ;* AL    assigned to _lShift
    2852              $C$DW$208       .dwtag  DW_TAG_variable
    2853                      .dwattr $C$DW$208, DW_AT_name("lShift")
    2854                      .dwattr $C$DW$208, DW_AT_TI_symbol_name("_lShift")
    2855                      .dwattr $C$DW$208, DW_AT_type(*$C$DW$T$57)
    2856                      .dwattr $C$DW$208, DW_AT_location[DW_OP_reg0]
    2857              
    2858              ;* AL    assigned to _maxFlux
    2859              $C$DW$209       .dwtag  DW_TAG_variable
    2860                      .dwattr $C$DW$209, DW_AT_name("maxFlux")
    2861                      .dwattr $C$DW$209, DW_AT_TI_symbol_name("_maxFlux")
    2862                      .dwattr $C$DW$209, DW_AT_type(*$C$DW$T$57)
    2863                      .dwattr $C$DW$209, DW_AT_location[DW_OP_reg0]
    2864              
    2865              ;* AR4   assigned to _pUserParams
    2866              $C$DW$210       .dwtag  DW_TAG_variable
    2867                      .dwattr $C$DW$210, DW_AT_name("pUserParams")
    2868                      .dwattr $C$DW$210, DW_AT_TI_symbol_name("_pUserParams")
    2869                      .dwattr $C$DW$210, DW_AT_type(*$C$DW$T$96)
    2870                      .dwattr $C$DW$210, DW_AT_location[DW_OP_reg12]
    2871              
    2872              ;* AL    assigned to $O$S1
    2873                      .dwcfi  cfa_offset, -2
    2874                      .dwcfi  save_reg_to_mem, 26, 0
    2875 000003d6 B2BD          MOVL      *SP++,XAR1            ; [CPU_] 
    2876                      .dwcfi  save_reg_to_mem, 7, 2
    2877                      .dwcfi  cfa_offset, -4
    2878 000003d7 FE0A          ADDB      SP,#10                ; [CPU_U] 
    2879                      .dwcfi  cfa_offset, -14
    2880                      .dwpsn  file "C:/Users/wmj/Desktop/BM1000_v1.1/sw/modules/user/src/32b/user.c",line 1020,column 19,is
    2881 000003d8 D034          MOVB      XAR0,#52              ; [CPU_] |1020| 
    2882 000003d9 9294          MOV       AL,*+XAR4[AR0]        ; [CPU_] |1020| 
    2883 000003da 6106          B         $C$L3,EQ              ; [CPU_] |1020| 
    2884                      ; branchcc occurs ; [] |1020| 
    2885 000003db 28A9          MOV       AL,#13107             ; [CPU_] |1020| 
         000003dc 3333 
    2886 000003dd 28A8          MOV       AH,#16179             ; [CPU_] |1020| 
         000003de 3F33 
    2887 000003df 6F05          B         $C$L4,UNC             ; [CPU_] |1020| 
    2888                      ; branch occurs ; [] |1020| 
    2889 000003e0       $C$L3:    
    2890 000003e0 28A9          MOV       AL,#52429             ; [CPU_] |1020| 
         000003e1 CCCD 
    2891 000003e2 28A8          MOV       AH,#15692             ; [CPU_] |1020| 
         000003e3 3D4C 
    2892 000003e4       $C$L4:    
    2893 000003e4 1E42          MOVL      *-SP[2],ACC           ; [CPU_] |1020| 
    2894 000003e5 D036          MOVB      XAR0,#54              ; [CPU_] |1020| 
    2895 000003e6 0694          MOVL      ACC,*+XAR4[AR0]       ; [CPU_] |1020| 
    2896              $C$DW$211       .dwtag  DW_TAG_TI_branch
TMS320C2000 Assembler PC v15.12.3 Wed Nov 22 00:56:30 2017

Tools Copyright (c) 1996-2015 Texas Instruments Incorporated
C:\Users\wmj\AppData\Local\Temp\0764810                              PAGE   59

    2897                      .dwattr $C$DW$211, DW_AT_low_pc(0x00)
    2898                      .dwattr $C$DW$211, DW_AT_name("FS$$MPY")
    2899                      .dwattr $C$DW$211, DW_AT_TI_call
    2900              
    2901 000003e7 7640!         LCR       #FS$$MPY              ; [CPU_] |1020| 
         000003e8 0000 
    2902                      ; call occurs [#FS$$MPY] ; [] |1020| 
    2903                      .dwpsn  file "C:/Users/wmj/Desktop/BM1000_v1.1/sw/modules/user/src/32b/user.c",line 1021,column 18,is
    2904 000003e9 1E42          MOVL      *-SP[2],ACC           ; [CPU_] |1021| 
    2905 000003ea 28A9          MOV       AL,#52429             ; [CPU_] |1021| 
         000003eb CCCD 
    2906 000003ec 28A8          MOV       AH,#15820             ; [CPU_] |1021| 
         000003ed 3DCC 
    2907              $C$DW$212       .dwtag  DW_TAG_TI_branch
    2908                      .dwattr $C$DW$212, DW_AT_low_pc(0x00)
    2909                      .dwattr $C$DW$212, DW_AT_name("FS$$DIV")
    2910                      .dwattr $C$DW$212, DW_AT_TI_call
    2911              
    2912 000003ee 7640!         LCR       #FS$$DIV              ; [CPU_] |1021| 
         000003ef 0000 
    2913                      ; call occurs [#FS$$DIV] ; [] |1021| 
    2914              $C$DW$213       .dwtag  DW_TAG_TI_branch
    2915                      .dwattr $C$DW$213, DW_AT_low_pc(0x00)
    2916                      .dwattr $C$DW$213, DW_AT_name("_log")
    2917                      .dwattr $C$DW$213, DW_AT_TI_call
    2918              
    2919 000003f0 7640!         LCR       #_log                 ; [CPU_] |1021| 
         000003f1 0000 
    2920                      ; call occurs [#_log] ; [] |1021| 
    2921 000003f2 8BA9          MOVL      XAR1,ACC              ; [CPU_] |1021| 
    2922 000003f3 9A00          MOV       AL,#0                 ; [CPU_] |1021| 
    2923 000003f4 28A8          MOV       AH,#16384             ; [CPU_] |1021| 
         000003f5 4000 
    2924              $C$DW$214       .dwtag  DW_TAG_TI_branch
    2925                      .dwattr $C$DW$214, DW_AT_low_pc(0x00)
    2926                      .dwattr $C$DW$214, DW_AT_name("_log")
    2927                      .dwattr $C$DW$214, DW_AT_TI_call
    2928              
    2929 000003f6 7640!         LCR       #_log                 ; [CPU_] |1021| 
         000003f7 0000 
    2930                      ; call occurs [#_log] ; [] |1021| 
    2931 000003f8 1E42          MOVL      *-SP[2],ACC           ; [CPU_] |1021| 
    2932 000003f9 B2A9          MOVL      ACC,XAR1              ; [CPU_] |1021| 
    2933              $C$DW$215       .dwtag  DW_TAG_TI_branch
    2934                      .dwattr $C$DW$215, DW_AT_low_pc(0x00)
    2935                      .dwattr $C$DW$215, DW_AT_name("FS$$DIV")
    2936                      .dwattr $C$DW$215, DW_AT_TI_call
    2937              
    2938 000003fa 7640!         LCR       #FS$$DIV              ; [CPU_] |1021| 
         000003fb 0000 
    2939                      ; call occurs [#FS$$DIV] ; [] |1021| 
    2940              $C$DW$216       .dwtag  DW_TAG_TI_branch
    2941                      .dwattr $C$DW$216, DW_AT_low_pc(0x00)
    2942                      .dwattr $C$DW$216, DW_AT_name("_ceil")
    2943                      .dwattr $C$DW$216, DW_AT_TI_call
TMS320C2000 Assembler PC v15.12.3 Wed Nov 22 00:56:30 2017

Tools Copyright (c) 1996-2015 Texas Instruments Incorporated
C:\Users\wmj\AppData\Local\Temp\0764810                              PAGE   60

    2944              
    2945 000003fc 7640!         LCR       #_ceil                ; [CPU_] |1021| 
         000003fd 0000 
    2946                      ; call occurs [#_ceil] ; [] |1021| 
    2947              $C$DW$217       .dwtag  DW_TAG_TI_branch
    2948                      .dwattr $C$DW$217, DW_AT_low_pc(0x00)
    2949                      .dwattr $C$DW$217, DW_AT_name("FS$$NEG")
    2950                      .dwattr $C$DW$217, DW_AT_TI_call
    2951              
    2952 000003fe 7640!         LCR       #FS$$NEG              ; [CPU_] |1021| 
         000003ff 0000 
    2953                      ; call occurs [#FS$$NEG] ; [] |1021| 
    2954                      .dwpsn  file "C:/Users/wmj/Desktop/BM1000_v1.1/sw/modules/user/src/32b/user.c",line 1023,column 3,is_
    2955 00000400 1E42          MOVL      *-SP[2],ACC           ; [CPU_] |1023| 
    2956 00000401 9A00          MOV       AL,#0                 ; [CPU_] |1023| 
    2957 00000402 28A8          MOV       AH,#16384             ; [CPU_] |1023| 
         00000403 4000 
    2958              $C$DW$218       .dwtag  DW_TAG_TI_branch
    2959                      .dwattr $C$DW$218, DW_AT_low_pc(0x00)
    2960                      .dwattr $C$DW$218, DW_AT_name("_pow")
    2961                      .dwattr $C$DW$218, DW_AT_TI_call
    2962              
    2963 00000404 7640!         LCR       #_pow                 ; [CPU_] |1023| 
         00000405 0000 
    2964                      ; call occurs [#_pow] ; [] |1023| 
    2965 00000406 1EA6          MOVL      XAR6,ACC              ; [CPU_] |1023| 
    2966 00000407 28A9          MOV       AL,#24886             ; [CPU_] |1023| 
         00000408 6136 
    2967 00000409 28A8          MOV       AH,#15490             ; [CPU_] |1023| 
         0000040a 3C82 
    2968 0000040b 1E42          MOVL      *-SP[2],ACC           ; [CPU_] |1023| 
    2969 0000040c 06A6          MOVL      ACC,XAR6              ; [CPU_] |1023| 
    2970              $C$DW$219       .dwtag  DW_TAG_TI_branch
    2971                      .dwattr $C$DW$219, DW_AT_low_pc(0x00)
    2972                      .dwattr $C$DW$219, DW_AT_name("FS$$MPY")
    2973                      .dwattr $C$DW$219, DW_AT_TI_call
    2974              
    2975 0000040d 7640!         LCR       #FS$$MPY              ; [CPU_] |1023| 
         0000040e 0000 
    2976                      ; call occurs [#FS$$MPY] ; [] |1023| 
    2977 0000040f 5CAD          MOVZ      AR4,SP                ; [CPU_] |1023| 
    2978 00000410 DC8A          SUBB      XAR4,#10              ; [CPU_U] |1023| 
    2979 00000411 88A4          MOVZ      AR6,AR4               ; [CPU_] |1023| 
    2980              $C$DW$220       .dwtag  DW_TAG_TI_branch
    2981                      .dwattr $C$DW$220, DW_AT_low_pc(0x00)
    2982                      .dwattr $C$DW$220, DW_AT_name("FS$$TOFD")
    2983                      .dwattr $C$DW$220, DW_AT_TI_call
    2984              
    2985 00000412 7640!         LCR       #FS$$TOFD             ; [CPU_] |1023| 
         00000413 0000 
    2986                      ; call occurs [#FS$$TOFD] ; [] |1023| 
    2987 00000414 5DAD          MOVZ      AR5,SP                ; [CPU_] |1023| 
    2988 00000415 5CAD          MOVZ      AR4,SP                ; [CPU_] |1023| 
    2989 00000416 DD86          SUBB      XAR5,#6               ; [CPU_U] |1023| 
    2990 00000417 DC8A          SUBB      XAR4,#10              ; [CPU_U] |1023| 
TMS320C2000 Assembler PC v15.12.3 Wed Nov 22 00:56:30 2017

Tools Copyright (c) 1996-2015 Texas Instruments Incorporated
C:\Users\wmj\AppData\Local\Temp\0764810                              PAGE   61

    2991 00000418 88A5          MOVZ      AR6,AR5               ; [CPU_] |1023| 
    2992 00000419 5CA4          MOVZ      AR4,AR4               ; [CPU_] |1023| 
    2993 0000041a 8F40+         MOVL      XAR5,#$C$FL2          ; [CPU_U] |1023| 
         0000041b 0004 
    2994              $C$DW$221       .dwtag  DW_TAG_TI_branch
    2995                      .dwattr $C$DW$221, DW_AT_low_pc(0x00)
    2996                      .dwattr $C$DW$221, DW_AT_name("FD$$MPY")
    2997                      .dwattr $C$DW$221, DW_AT_TI_call
    2998              
    2999 0000041c 7640!         LCR       #FD$$MPY              ; [CPU_] |1023| 
         0000041d 0000 
    3000                      ; call occurs [#FD$$MPY] ; [] |1023| 
    3001 0000041e 5CAD          MOVZ      AR4,SP                ; [CPU_] |1023| 
    3002 0000041f DC86          SUBB      XAR4,#6               ; [CPU_U] |1023| 
    3003 00000420 5CA4          MOVZ      AR4,AR4               ; [CPU_] |1023| 
    3004              $C$DW$222       .dwtag  DW_TAG_TI_branch
    3005                      .dwattr $C$DW$222, DW_AT_low_pc(0x00)
    3006                      .dwattr $C$DW$222, DW_AT_name("FD$$TOL")
    3007                      .dwattr $C$DW$222, DW_AT_TI_call
    3008              
    3009 00000421 7640!         LCR       #FD$$TOL              ; [CPU_] |1023| 
         00000422 0000 
    3010                      ; call occurs [#FD$$TOL] ; [] |1023| 
    3011 00000423 FE8A          SUBB      SP,#10                ; [CPU_U] 
    3012                      .dwcfi  cfa_offset, -4
    3013 00000424 8BBE          MOVL      XAR1,*--SP            ; [CPU_] 
    3014                      .dwcfi  cfa_offset, -2
    3015                      .dwcfi  restore_reg, 7
    3016              $C$DW$223       .dwtag  DW_TAG_TI_branch
    3017                      .dwattr $C$DW$223, DW_AT_low_pc(0x00)
    3018                      .dwattr $C$DW$223, DW_AT_TI_return
    3019              
    3020 00000425 0006          LRETR     ; [CPU_] 
    3021                      ; return occurs ; [] 
    3022                      .dwattr $C$DW$206, DW_AT_TI_end_file("C:/Users/wmj/Desktop/BM1000_v1.1/sw/modules/user/src/32b/user.c
    3023                      .dwattr $C$DW$206, DW_AT_TI_end_line(0x400)
    3024                      .dwattr $C$DW$206, DW_AT_TI_end_column(0x01)
    3025                      .dwendentry
    3026                      .dwendtag $C$DW$206
    3027              
    3028 00000426               .sect   ".text"
    3029                      .clink
    3030                      .global _USER_computeFlux_pu_to_VpHz_sf
    3031              
    3032              $C$DW$224       .dwtag  DW_TAG_subprogram
    3033                      .dwattr $C$DW$224, DW_AT_name("USER_computeFlux_pu_to_VpHz_sf")
    3034                      .dwattr $C$DW$224, DW_AT_low_pc(_USER_computeFlux_pu_to_VpHz_sf)
    3035                      .dwattr $C$DW$224, DW_AT_high_pc(0x00)
    3036                      .dwattr $C$DW$224, DW_AT_TI_symbol_name("_USER_computeFlux_pu_to_VpHz_sf")
    3037                      .dwattr $C$DW$224, DW_AT_external
    3038                      .dwattr $C$DW$224, DW_AT_type(*$C$DW$T$20)
    3039                      .dwattr $C$DW$224, DW_AT_TI_begin_file("C:/Users/wmj/Desktop/BM1000_v1.1/sw/modules/user/src/32b/user
    3040                      .dwattr $C$DW$224, DW_AT_TI_begin_line(0x405)
    3041                      .dwattr $C$DW$224, DW_AT_TI_begin_column(0x05)
    3042                      .dwattr $C$DW$224, DW_AT_TI_max_frame_size(-14)
TMS320C2000 Assembler PC v15.12.3 Wed Nov 22 00:56:30 2017

Tools Copyright (c) 1996-2015 Texas Instruments Incorporated
C:\Users\wmj\AppData\Local\Temp\0764810                              PAGE   62

    3043                      .dwpsn  file "C:/Users/wmj/Desktop/BM1000_v1.1/sw/modules/user/src/32b/user.c",line 1030,column 1,is_
    3044              
    3045                      .dwfde $C$DW$CIE, _USER_computeFlux_pu_to_VpHz_sf
    3046              $C$DW$225       .dwtag  DW_TAG_formal_parameter
    3047                      .dwattr $C$DW$225, DW_AT_name("pUserParams")
    3048                      .dwattr $C$DW$225, DW_AT_TI_symbol_name("_pUserParams")
    3049                      .dwattr $C$DW$225, DW_AT_type(*$C$DW$T$85)
    3050                      .dwattr $C$DW$225, DW_AT_location[DW_OP_reg12]
    3051              
    3052              
    3053              ;***************************************************************
    3054              ;* FNAME: _USER_computeFlux_pu_to_VpHz_sf FR SIZE:  12           *
    3055              ;*                                                             *
    3056              ;* FUNCTION ENVIRONMENT                                        *
    3057              ;*                                                             *
    3058              ;* FUNCTION PROPERTIES                                         *
    3059              ;*                            2 Parameter,  8 Auto,  2 SOE     *
    3060              ;***************************************************************
    3061              
    3062              _USER_computeFlux_pu_to_VpHz_sf:
    3063              ;* AL    assigned to _lShift
    3064              $C$DW$226       .dwtag  DW_TAG_variable
    3065                      .dwattr $C$DW$226, DW_AT_name("lShift")
    3066                      .dwattr $C$DW$226, DW_AT_TI_symbol_name("_lShift")
    3067                      .dwattr $C$DW$226, DW_AT_type(*$C$DW$T$57)
    3068                      .dwattr $C$DW$226, DW_AT_location[DW_OP_reg0]
    3069              
    3070              ;* AL    assigned to _maxFlux
    3071              $C$DW$227       .dwtag  DW_TAG_variable
    3072                      .dwattr $C$DW$227, DW_AT_name("maxFlux")
    3073                      .dwattr $C$DW$227, DW_AT_TI_symbol_name("_maxFlux")
    3074                      .dwattr $C$DW$227, DW_AT_type(*$C$DW$T$57)
    3075                      .dwattr $C$DW$227, DW_AT_location[DW_OP_reg0]
    3076              
